Open Watcom Linker Version 1.9
Portions Copyright (c) 1985-2002 Sybase, Inc. All Rights Reserved.
Created on:       12/12/16 02:43:30
Executable Image: wipfc.exe
creating a DOS/4G executable


                        +------------+
                        |   Groups   |
                        +------------+

Group                           Address              Size
=====                           =======              ====

DGROUP                          0002:00000000        0006e390



                        +--------------+
                        |   Segments   |
                        +--------------+

Segment                Class          Group          Address         Size
=======                =====          =====          =======         ====

BEGTEXT                CODE           AUTO           0001:00000000   00000010
_TEXT                  CODE           AUTO           0001:00000010   0005e9c0
_NULL                  BEGDATA        DGROUP         0002:00000000   00000004
_AFTERNULL             BEGDATA        DGROUP         0002:00000004   00000000
CONST                  DATA           DGROUP         0002:00000004   0000551c
CONST2                 DATA           DGROUP         0002:00005520   00056d20
_DATA                  DATA           DGROUP         0002:0005c240   00001e68
XIB                    DATA           DGROUP         0002:0005e0a8   00000000
XI                     DATA           DGROUP         0002:0005e0a8   00000042
XIE                    DATA           DGROUP         0002:0005e0ea   00000000
YIB                    DATA           DGROUP         0002:0005e0ea   00000000
YI                     DATA           DGROUP         0002:0005e0ea   00000024
YIE                    DATA           DGROUP         0002:0005e10e   00000000
TIB                    DATA           DGROUP         0002:0005e10e   00000000
TI                     DATA           DGROUP         0002:0005e10e   00000000
TIE                    DATA           DGROUP         0002:0005e10e   00000000
DATA                   DATA           DGROUP         0002:0005e10e   00000000
_BSS                   BSS            DGROUP         0002:0005e110   00000248
c_common               BSS            DGROUP         0002:0005e358   00000031
STACK                  STACK          DGROUP         0002:0005e390   00010000


                        +----------------+
                        |   Memory Map   |
                        +----------------+

* = unreferenced symbol
+ = symbol only referenced locally

Address        Symbol
=======        ======

Module: main.obj(/mnt/sda5/.user/root/src/openwatcom-1.9/bld/wipfc/cpp/main.cpp)
0001:00000920  W?$dt:exception$:std$n()_
0001:000009b0  W?what$:exception$:std$n.x()pnxa
0001:000009e0  W?what$:str_exception$:_ow$:std$n.x()pnxa
0001:00000a20+ W?$ct:Env$n()_
0001:000000d0  main_
0001:00000a40+ W?$dt:Env$n()_
0001:00000a50  T?c8er$dt:Node$:RedBlackTree$::1n$basic_string$::1na1n$char_traits$::1na:std$$1n$allocator$::1na:4$:4$1n$less$::1n$2::1na1n$3::1na:4$1n$5::1na:4$:4$:4$1n$5::1n$pair$::1nx$2::1na1n$3::1na:4$1n$5::1na:4$:4$1n$2::1na1n$3::1na:4$1n$5::1na:4$:4$:4$:4$1n$TreePa
0001:00000ac0  W?$dt:pair$::1nx$basic_string$::1na1n$char_traits$::1na:std$$1n$allocator$::1na:3$:3$1n$1::1na1n$2::1na:3$1n$4::1na:3$:3$:3n()_
0001:00000b30  W?$dt:out_of_range$:std$n()_
0001:00000bf0  W?$dt:length_error$:std$n()_
0001:00000cb0  W?$dt:logic_error$:std$n()_
0001:00000d70  W?$dt:str_exception$:_ow$:std$n()_
0001:00000e20  W?$dt:allocator$::1na:std$n()_
0001:00000e30  W?$dt:allocator$::1nw:std$n()_
0001:00000e40  T?1d36$dt:allocator$::1n$Node$:RedBlackTree$::1n$basic_string$::1nw1n$char_traits$::1nw:std$$1n$0::1nw:5$:5$1n$less$::1n$3::1nw1n$4::1nw:5$1n$0::1nw:5$:5$:5$1n$0::1n$pair$::1nx$3::1nw1n$4::1nw:5$1n$0::1nw:5$:5$1n$TagId$:Lexer$$:5$:5$1n$TreePairWrapper$::1
0001:00000e50  W?$dt:allocator$::1npn$IpfData$$:std$n()_
0001:00000e60  T?cf1z$dt:allocator$::1n$Node$:RedBlackTree$::1npn$basic_string$::1nw1n$char_traits$::1nw:std$$1n$0::1nw:5$:5$1n$ptrLess$::1npn$3::1nw1n$4::1nw:5$1n$0::1nw:5$:5$$1n$0::1npn$3::1nw1n$4::1nw:5$1n$0::1nw:5$:5$:5$1n$TreeKeyWrapper$::1npn$3::1nw1n$4::1nw:5$1n$
0001:00000e70  W?$dt:allocator$::1n$pair$::1nx$basic_string$::1na1n$char_traits$::1na:std$$1n$0::1na:4$:4$1n$2::1na1n$3::1na:4$1n$0::1na:4$:4$:4$:4n()_
0001:00000e80  T?4knk$dt:allocator$::1n$Node$:RedBlackTree$::1n$basic_string$::1na1n$char_traits$::1na:std$$1n$0::1na:5$:5$1n$less$::1n$3::1na1n$4::1na:5$1n$0::1na:5$:5$:5$1n$0::1n$pair$::1nx$3::1na1n$4::1na:5$1n$0::1na:5$:5$1n$3::1na1n$4::1na:5$1n$0::1na:5$:5$:5$:5$1n$
0001:00000e90  T?1zyj$dt:RedBlackTree$::1n$basic_string$::1nw1n$char_traits$::1nw:std$$1n$allocator$::1nw:3$:3$1n$less$::1n$1::1nw1n$2::1nw:3$1n$4::1nw:3$:3$:3$1n$4::1n$pair$::1nx$1::1nw1n$2::1nw:3$1n$4::1nw:3$:3$1n$TagId$:Lexer$$:3$:3$1n$TreePairWrapper$::1n$1::1nw1n$2
0001:00000ef0  T?rkltclear$:RedBlackTree$::1n$basic_string$::1nw1n$char_traits$::1nw:std$$1n$allocator$::1nw:4$:4$1n$less$::1n$2::1nw1n$3::1nw:4$1n$5::1nw:4$:4$:4$1n$5::1n$pair$::1nx$2::1nw1n$3::1nw:4$1n$5::1nw:4$:4$1n$TagId$:Lexer$$:4$:4$1n$TreePairWrapper$::1n$2::1nw1
0001:00000f90  T?guem$dt:RedBlackTree$::1npn$basic_string$::1nw1n$char_traits$::1nw:std$$1n$allocator$::1nw:3$:3$1n$ptrLess$::1npn$1::1nw1n$2::1nw:3$1n$4::1nw:3$:3$$1n$4::1npn$1::1nw1n$2::1nw:3$1n$4::1nw:3$:3$:3$1n$TreeKeyWrapper$::1npn$1::1nw1n$2::1nw:3$1n$4::1nw:3$:3$
0001:00000ff0  T?jqviclear$:RedBlackTree$::1npn$basic_string$::1nw1n$char_traits$::1nw:std$$1n$allocator$::1nw:4$:4$1n$ptrLess$::1npn$2::1nw1n$3::1nw:4$1n$5::1nw:4$:4$$1n$5::1npn$2::1nw1n$3::1nw:4$1n$5::1nw:4$:4$:4$1n$TreeKeyWrapper$::1npn$2::1nw1n$3::1nw:4$1n$5::1nw:4$
0001:00001060  T?1wnmwalkRight$:RedBlackTree$::1npn$basic_string$::1nw1n$char_traits$::1nw:std$$1n$allocator$::1nw:4$:4$1n$ptrLess$::1npn$2::1nw1n$3::1nw:4$1n$5::1nw:4$:4$$1n$5::1npn$2::1nw1n$3::1nw:4$1n$5::1nw:4$:4$:4$1n$TreeKeyWrapper$::1npn$2::1nw1n$3::1nw:4$1n$5::1n
0001:000010a0  T?2rqy$dt:RedBlackTree$::1n$basic_string$::1na1n$char_traits$::1na:std$$1n$allocator$::1na:3$:3$1n$less$::1n$1::1na1n$2::1na:3$1n$4::1na:3$:3$:3$1n$4::1n$pair$::1nx$1::1na1n$2::1na:3$1n$4::1na:3$:3$1n$1::1na1n$2::1na:3$1n$4::1na:3$:3$:3$:3$1n$TreePairWrap
0001:00001100  T?0nygclear$:RedBlackTree$::1n$basic_string$::1na1n$char_traits$::1na:std$$1n$allocator$::1na:4$:4$1n$less$::1n$2::1na1n$3::1na:4$1n$5::1na:4$:4$:4$1n$5::1n$pair$::1nx$2::1na1n$3::1na:4$1n$5::1na:4$:4$1n$2::1na1n$3::1na:4$1n$5::1na:4$:4$:4$:4$1n$TreePairW
0001:00001210  W?$ct:basic_string$::1na1n$char_traits$::1na:std$$1n$allocator$::1na:2$:2n(rnx$3::1na:2$)_
0001:00001280  W?$ct:basic_string$::1na1n$char_traits$::1na:std$$1n$allocator$::1na:2$:2n(rnx$0::1na1n$1::1na:2$1n$3::1na:2$:2$)_
0001:00001320  W?$ct:basic_string$::1na1n$char_traits$::1na:std$$1n$allocator$::1na:2$:2n(pnxarnx$3::1na:2$)_
0001:000013c0  W?$dt:basic_string$::1na1n$char_traits$::1na:std$$1n$allocator$::1na:2$:2n()_
0001:00001420  W?$aa:basic_string$::1na1n$char_traits$::1na:std$$1n$allocator$::1na:2$:2n(rnx$0::1na1n$1::1na:2$1n$3::1na:2$:2$)rn$0::1na1n$1::1na:2$1n$3::1na:2$:2$
0001:00001480  W?erase$:basic_string$::1na1n$char_traits$::1na:std$$1n$allocator$::1na:3$:3n(uiui)rn$1::1na1n$2::1na:3$1n$4::1na:3$:3$
0001:00001580  W?$ct:basic_string$::1nw1n$char_traits$::1nw:std$$1n$allocator$::1nw:2$:2n(rnx$0::1nw1n$1::1nw:2$1n$3::1nw:2$:2$)_
0001:00001620  W?$ct:basic_string$::1nw1n$char_traits$::1nw:std$$1n$allocator$::1nw:2$:2n(pnxwrnx$3::1nw:2$)_
0001:000016c0  W?$dt:basic_string$::1nw1n$char_traits$::1nw:std$$1n$allocator$::1nw:2$:2n()_
0001:00001720  W?$dt:vector$::1npn$IpfData$$1n$allocator$::1npn$1$:std$$:3n()_
0001:00001790  W?push_back$:vector$::1npn$IpfData$$1n$allocator$::1npn$2$:std$$:4n(rnxpn$2$)v
0001:000017e0  T?9qzw$ct:map$::1n$basic_string$::1na1n$char_traits$::1na:std$$1n$allocator$::1na:3$:3$1n$1::1na1n$2::1na:3$1n$4::1na:3$:3$1n$less$::1n$1::1na1n$2::1na:3$1n$4::1na:3$:3$:3$1n$4::1n$pair$::1nx$1::1na1n$2::1na:3$1n$4::1na:3$:3$1n$1::1na1n$2::1na:3$1n$4::1na
0001:00001850  T?835l$od:map$::1n$basic_string$::1na1n$char_traits$::1na:std$$1n$allocator$::1na:3$:3$1n$1::1na1n$2::1na:3$1n$4::1na:3$:3$1n$less$::1n$1::1na1n$2::1na:3$1n$4::1na:3$:3$:3$1n$4::1n$pair$::1nx$1::1na1n$2::1na:3$1n$4::1na:3$:3$1n$1::1na1n$2::1na:3$1n$4::1na
0001:000018f0  W?$ct:out_of_range$:std$n(rnx$0:1$)_
0001:00001990  W?$rc::1nw1n$char_traits$::1nw:std$$1n$allocator$::1nw:1$:1n(rnx$basic_string$::1nw1n$0::1nw:1$1n$2::1nw:1$:1$rnx$3::1nw1n$0::1nw:1$1n$2::1nw:1$:1$)q
0001:000019e0  W?$rc::1na1n$char_traits$::1na:std$$1n$allocator$::1na:1$:1n(rnx$basic_string$::1na1n$0::1na:1$1n$2::1na:1$:1$rnx$3::1na1n$0::1na:1$1n$2::1na:1$:1$)q
0001:00001a30  T?y50vinsert$:RedBlackTree$::1n$basic_string$::1na1n$char_traits$::1na:std$$1n$allocator$::1na:4$:4$1n$less$::1n$2::1na1n$3::1na:4$1n$5::1na:4$:4$:4$1n$5::1n$pair$::1nx$2::1na1n$3::1na:4$1n$5::1na:4$:4$1n$2::1na1n$3::1na:4$1n$5::1na:4$:4$:4$:4$1n$TreePair
0001:00001a60  W?alloc$:basic_string$::1na1n$char_traits$::1na:std$$1n$allocator$::1na:3$:3n(uirnui)pna
0001:00001a80  W?replace_buffer$:basic_string$::1na1n$char_traits$::1na:std$$1n$allocator$::1na:3$:3n(pnxaui)v
0001:00001ae0  W?$ct:basic_string$::1na1n$char_traits$::1na:std$$1n$allocator$::1na:2$:2n(uiarnx$3::1na:2$)_
0001:00001bf0  W?append$:basic_string$::1na1n$char_traits$::1na:std$$1n$allocator$::1na:3$:3n(pnxaui)rn$1::1na1n$2::1na:3$1n$4::1na:3$:3$
0001:00001d80  W?rfind$:basic_string$::1na1n$char_traits$::1na:std$$1n$allocator$::1na:3$:3n.x(pnxauiui)ui
0001:00001de0  W?alloc$:basic_string$::1nw1n$char_traits$::1nw:std$$1n$allocator$::1nw:3$:3n(uirnui)pnw
0001:00001e00  W?reserve$:vector$::1npn$IpfData$$1n$allocator$::1npn$2$:std$$:4n(ui)v
0001:00001fa0  W?$ct:length_error$:std$n(rnx$0:1$)_
0001:00002040  W?uninitialized_copy$::1npnpn$IpfData$$1npnpn$1$:std$n(pnpn$1$pnpn$1$pnpn$1$)pnpn$1$
0001:00002120  T?yhvt$ct::1n$pair$::1nx$basic_string$::1na1n$char_traits$::1na:std$$1n$allocator$::1na:3$:3$1n$1::1na1n$2::1na:3$1n$4::1na:3$:3$:3$:4::1n$Node$:RedBlackTree$::1n$1::1na1n$2::1na:3$1n$4::1na:3$:3$1n$less$::1n$1::1na1n$2::1na:3$1n$4::1na:3$:3$:3$1n$4::1n$0
0001:00002130  T?dl96insBalTransform$:RedBlackTree$::1n$basic_string$::1na1n$char_traits$::1na:std$$1n$allocator$::1na:4$:4$1n$less$::1n$2::1na1n$3::1na:4$1n$5::1na:4$:4$:4$1n$5::1n$pair$::1nx$2::1na1n$3::1na:4$1n$5::1na:4$:4$1n$2::1na1n$3::1na:4$1n$5::1na:4$:4$:4$:4$1n
0001:00002330  T?dio3unbalancedInsert$:RedBlackTree$::1n$basic_string$::1na1n$char_traits$::1na:std$$1n$allocator$::1na:4$:4$1n$less$::1n$2::1na1n$3::1na:4$1n$5::1na:4$:4$:4$1n$5::1n$pair$::1nx$2::1na1n$3::1na:4$1n$5::1na:4$:4$1n$2::1na1n$3::1na:4$1n$5::1na:4$:4$:4$:4$1
0002:00005ea0  W?$Wvf0Io4:exception$:std$$nx[]pn()v
0002:00005eb0  W?npos$:basic_string$::1na1n$char_traits$::1na:std$$1n$allocator$::1na:3$:3nxui
0002:00005ec0  W?$Wvf0Ro4:str_exception$:_ow$:std$$nx[]pn()v
0002:00005ed0  W?$Wvf0Ko4:logic_error$:std$$nx[]pn()v
0002:00005ee0  W?$Wvf0Lo4:length_error$:std$$nx[]pn()v
0002:00005ef0  W?$Wvf0Lo4:out_of_range$:std$$nx[]pn()v
0002:00005f00  W?npos$:basic_string$::1nw1n$char_traits$::1nw:std$$1n$allocator$::1nw:3$:3nxui
0002:00005f10  W?is_specialized$:numeric_limits$::1nui:std$nxq
0002:00005f20  W?digits$:numeric_limits$::1nui:std$nxi
0002:00005f30  W?digits10$:numeric_limits$::1nui:std$nxi
0002:00005f40  W?is_integer$:numeric_limits$::1nui:std$nxq
0002:00005f50  W?is_exact$:numeric_limits$::1nui:std$nxq
0002:0005e358  W?is_signed$:numeric_limits$::1nui:std$nxq
0002:0005e35c  W?min_exponent$:numeric_limits$::1nui:std$nxi
0002:0005e360  W?min_exponent10$:numeric_limits$::1nui:std$nxi
0002:0005e364  W?max_exponent$:numeric_limits$::1nui:std$nxi
0002:0005e368  W?max_exponent10$:numeric_limits$::1nui:std$nxi
0002:0005e36c  W?has_infinity$:numeric_limits$::1nui:std$nxq
0002:0005e370  W?has_quiet_NaN$:numeric_limits$::1nui:std$nxq
0002:00005f60  W?radix$:numeric_limits$::1nui:std$nxi
0002:0005e374  W?has_signaling_NaN$:numeric_limits$::1nui:std$nxq
0002:0005e378  W?has_denorm_loss$:numeric_limits$::1nui:std$nxq
0002:00005f70  W?has_denorm$:numeric_limits$::1nui:std$nx$float_denorm_style$:2$
0002:00005f80  W?is_bounded$:numeric_limits$::1nui:std$nxq
0002:0005e37c  W?is_iec559$:numeric_limits$::1nui:std$nxq
0002:0005e380  W?traps$:numeric_limits$::1nui:std$nxq
0002:0005e384  W?tinyness_before$:numeric_limits$::1nui:std$nxq
0002:00005f90  W?is_modulo$:numeric_limits$::1nui:std$nxq
0002:00005fa0  W?$Wcm012$nx[]uc
0002:00005fb0+ W?$Wcm0218$nx[]uc
0002:00005fc0  W?$Wcm014$nx[]uc
0002:00005fd0  W?$Wcm015$nx[]uc
0002:00005fe0  W?$Wcm013$nx[]uc
0002:00005ff0  W?$Wcm0216$nx[]uc
0002:00006000  W?$Wth0Nnrn$out_of_range$:std$$$nx[]uc
0002:00006030  W?$Wth0Nnrn$length_error$:std$$$nx[]uc
0002:00006060  W?$Wts0In$exception$:std$$$nx[]uc
0002:00006080+ W?$Wts07n$Env$$$nx[]uc
0002:000060a0+ W?$Wts0Cn$Compiler$$$nx[]uc
0002:000060c0  W?$Wts0En$FatalError$$$nx[]uc
0002:000060e0  W?$Wts0Gn$FatalIOError$$$nx[]uc
0002:00006100  W?$Wts18n$basic_string$::1na1n$char_traits$::1na:std$$1n$allocator$::1na:2$:2$$nx[]uc
0002:00006120  W?$Wts0Ln$out_of_range$:std$$$nx[]uc
0002:00006140  W?$Wts0Ln$length_error$:std$$$nx[]uc
0002:00006160  W?$Wts0Kn$logic_error$:std$$$nx[]uc
0002:0005c250  W?$Wti0Q$str_exception$:_ow$:std$$$n[]uc
0002:0005c26f  W?$Wti0J$logic_error$:std$$$n[]uc
0002:0005c287  W?$Wti0K$length_error$:std$$$n[]uc
0002:0005c2a0  W?$Wti0K$out_of_range$:std$$$n[]uc
0002:0005c2b9  W?$Wti17$basic_string$::1na1n$char_traits$::1na:std$$1n$allocator$::1na:2$:2$$n[]uc
0002:0005c303  W?$Wti0F$FatalIOError$$$n[]uc
0002:0005c317  W?$Wti0D$FatalError$$$n[]uc
0002:0005c329+ W?$Wti0B$Compiler$$$n[]uc
0002:0005c339+ W?$Wti06$Env$$$n[]uc
0001:00002850  W?alloc$:vector$::1npn$IpfData$$1n$allocator$::1npn$2$:std$$:4n(uirnui)pnpn$2$
0001:00002870  W?.tcctor$:length_error$:std$n(rnx$1:2$)rn$1:2$
0001:00002880  W?.tcctor$:out_of_range$:std$n(rnx$1:2$)rn$1:2$
0001:00002890  W?.tdtor$:out_of_range$:std$n()pnv
0001:000028a0  W?.tdtor$:length_error$:std$n()pnv
0001:000028b0  W?.tdtor$:logic_error$:std$n()pnv
0001:000028c0  W?.tdtor$:str_exception$:_ow$:std$n()pnv
0001:000028d0  W?.tdtor$:exception$:std$n()pnv
0002:00006180  W?$Wts0Rn$str_exception$:_ow$:std$$$nx[]uc
0002:0005c344  W?$Wti0H$exception$:std$$$n[]uc
0002:0005e388  W?round_style$:numeric_limits$::1nui:std$nx$float_round_style$:2$
0002:0005e110  W?Environment$n$Env$$
Module: compiler.obj(/mnt/sda5/.user/root/src/openwatcom-1.9/bld/wipfc/cpp/compiler.cpp)
0001:000028e0  W?$ct:Compiler$n()_
0001:000029d0  W?$dt:Compiler$n()_
0001:00002b00  W?setInputFile$:Compiler$n(rn$basic_string$::1na1n$char_traits$::1na:std$$1n$allocator$::1na:4$:4$)v
0001:00002bd0  W?addFileName$:Compiler$n(pn$basic_string$::1nw1n$char_traits$::1nw:std$$1n$allocator$::1nw:4$:4$)pn$2::1nw1n$3::1nw:4$1n$5::1nw:4$:4$
0001:00002c70  W?compile$:Compiler$n()i
0001:000031a0  W?printError$:Compiler$n.x($ErrCode$$)v
0001:00003250  W?printError$:Compiler$n.x($ErrCode$$rnx$basic_string$::1nw1n$char_traits$::1nw:std$$1n$allocator$::1nw:5$:5$)v
0001:00003300  W?printError$:Compiler$n.x($ErrCode$$pnx$basic_string$::1nw1n$char_traits$::1nw:std$$1n$allocator$::1nw:5$:5$uiui)v
0001:00003380  W?printError$:Compiler$n.x($ErrCode$$pnx$basic_string$::1nw1n$char_traits$::1nw:std$$1n$allocator$::1nw:5$:5$uiuirnx$3::1nw1n$4::1nw:5$1n$6::1nw:5$:5$)v
0001:000034a0  T?9gev$dt:Node$:RedBlackTree$::1n$basic_string$::1nw1n$char_traits$::1nw:std$$1n$allocator$::1nw:4$:4$1n$less$::1n$2::1nw1n$3::1nw:4$1n$5::1nw:4$:4$:4$1n$5::1n$pair$::1nx$2::1nw1n$3::1nw:4$1n$5::1nw:4$:4$1nus:4$:4$1n$TreePairWrapper$::1n$2::1nw1n$3::1nw:4
0001:000034b0  W?$dt:pair$::1nx$basic_string$::1nw1n$char_traits$::1nw:std$$1n$allocator$::1nw:3$:3$1nus:3n()_
0001:000034c0  W?$ct:FatalIOError$n(rnx$0$)_
0001:000034e0  W?$dt:FatalIOError$n()_
0001:000034f0  W?$ra::1nw1n$char_traits$::1nw:std$$1n$allocator$::1nw:1$:1n(rnx$basic_string$::1nw1n$0::1nw:1$1n$2::1nw:1$:1$rnx$3::1nw1n$0::1nw:1$1n$2::1nw:1$:1$)q
0001:00003540+ W?$dt:allocator$::1npn$basic_string$::1nw1n$char_traits$::1nw:std$$1n$0::1nw:3$:3$:3n()_
0001:00003550  W?$dt:allocator$::1nus:std$n()_
0001:00003560  W?$dt:allocator$::1n$ControlButton$$:std$n()_
0001:00003570  W?$dt:allocator$::1n$ControlGroup$$:std$n()_
0001:00003580  W?$dt:allocator$::1n$pair$::1nx$basic_string$::1nw1n$char_traits$::1nw:std$$1n$0::1nw:4$:4$1nus:4$:4n()_
0001:00003590  T?ub39$dt:allocator$::1n$Node$:RedBlackTree$::1n$basic_string$::1nw1n$char_traits$::1nw:std$$1n$0::1nw:5$:5$1n$less$::1n$3::1nw1n$4::1nw:5$1n$0::1nw:5$:5$:5$1n$0::1n$pair$::1nx$3::1nw1n$4::1nw:5$1n$0::1nw:5$:5$1nus:5$:5$1n$TreePairWrapper$::1n$3::1nw1n$4:
0001:000035a0  W?$dt:allocator$::1nuc:std$n()_
0001:000035b0  W?$dt:allocator$::1npn$GlobalDictionaryWord$$:std$n()_
0001:000035c0  W?$dt:allocator$::1n$Node$:RedBlackTree$::1npn$GlobalDictionaryWord$$1n$ptrLess$::1npn$3$$1n$0::1npn$3$:std$$1n$TreeKeyWrapper$::1npn$3$:_ow$:5$:7:5$:5n()_
0001:000035d0  W?$dt:allocator$::1n$pair$::1nxpn$GlobalDictionaryWord$$1nus:std$$:3n()_
0001:000035e0  W?$dt:allocator$::1n$Node$:RedBlackTree$::1npn$GlobalDictionaryWord$$1n$ptrLess$::1npn$3$$1n$0::1n$pair$::1nxpn$3$1nus:std$$:6$1n$TreePairWrapper$::1npn$3$1nus:_ow$:6$:8:6$:6n()_
0001:000035f0  W?$dt:allocator$::1n$basic_string$::1nw1n$char_traits$::1nw:std$$1n$0::1nw:3$:3$:3n()_
0001:00003600  W?$dt:allocator$::1n$XRef$$:std$n()_
0001:00003610  W?$dt:allocator$::1n$Node$:RedBlackTree$::1n$XRef$$1n$less$::1n$3$:std$$1n$0::1n$3$:5$1n$TreeKeyWrapper$::1n$3$:_ow$:5$:7:5$:5n()_
0001:00003620+ W?$dt:auto_ptr$::1n$Lexer$$:std$n()_
0001:000036b0+ W?$dt:auto_ptr$::1n$Document$$:std$n()_
0001:00003730  W?$ct:basic_string$::1nw1n$char_traits$::1nw:std$$1n$allocator$::1nw:2$:2n(rnx$3::1nw:2$)_
0001:000037a0  W?$aa:basic_string$::1nw1n$char_traits$::1nw:std$$1n$allocator$::1nw:2$:2n(rnx$0::1nw1n$1::1nw:2$1n$3::1nw:2$:2$)rn$0::1nw1n$1::1nw:2$1n$3::1nw:2$:2$
0001:00003800+ T?5zdminsert$:RedBlackTree$::1npn$basic_string$::1nw1n$char_traits$::1nw:std$$1n$allocator$::1nw:4$:4$1n$ptrLess$::1npn$2::1nw1n$3::1nw:4$1n$5::1nw:4$:4$$1n$5::1npn$2::1nw1n$3::1nw:4$1n$5::1nw:4$:4$:4$1n$TreeKeyWrapper$::1npn$2::1nw1n$3::1nw:4$1n$5::1nw:4
0001:00003830  T?fvku$dt:RedBlackTree$::1n$basic_string$::1nw1n$char_traits$::1nw:std$$1n$allocator$::1nw:3$:3$1n$less$::1n$1::1nw1n$2::1nw:3$1n$4::1nw:3$:3$:3$1n$4::1n$pair$::1nx$1::1nw1n$2::1nw:3$1n$4::1nw:3$:3$1nus:3$:3$1n$TreePairWrapper$::1n$1::1nw1n$2::1nw:3$1n$4:
0001:00003890  T?bkhrclear$:RedBlackTree$::1n$basic_string$::1nw1n$char_traits$::1nw:std$$1n$allocator$::1nw:4$:4$1n$less$::1n$2::1nw1n$3::1nw:4$1n$5::1nw:4$:4$:4$1n$5::1n$pair$::1nx$2::1nw1n$3::1nw:4$1n$5::1nw:4$:4$1nus:4$:4$1n$TreePairWrapper$::1n$2::1nw1n$3::1nw:4$1n
0001:00003930  T?hknywalkRight$:RedBlackTree$::1n$basic_string$::1nw1n$char_traits$::1nw:std$$1n$allocator$::1nw:4$:4$1n$less$::1n$2::1nw1n$3::1nw:4$1n$5::1nw:4$:4$:4$1n$5::1n$pair$::1nx$2::1nw1n$3::1nw:4$1n$5::1nw:4$:4$1nus:4$:4$1n$TreePairWrapper$::1n$2::1nw1n$3::1nw:
0001:00003970  W?$dt:RedBlackTree$::1npn$GlobalDictionaryWord$$1n$ptrLess$::1npn$1$$1n$allocator$::1npn$1$:std$$1n$TreeKeyWrapper$::1npn$1$:_ow$:4$:6:4n()_
0001:000039d0  W?clear$:RedBlackTree$::1npn$GlobalDictionaryWord$$1n$ptrLess$::1npn$2$$1n$allocator$::1npn$2$:std$$1n$TreeKeyWrapper$::1npn$2$:_ow$:5$:7:5n()v
0001:00003a40  W?find$:RedBlackTree$::1npn$GlobalDictionaryWord$$1n$ptrLess$::1npn$2$$1n$allocator$::1npn$2$:std$$1n$TreeKeyWrapper$::1npn$2$:_ow$:5$:7:5n(rnxpn$2$)$iterator$:1::1npn$2$1n$3::1npn$2$$1n$4::1npn$2$:5$1n$6::1npn$2$:7:5$:7:5$
0001:00003aa0  T?kfivwalkRight$:RedBlackTree$::1npn$GlobalDictionaryWord$$1n$ptrLess$::1npn$2$$1n$allocator$::1npn$2$:std$$1n$TreeKeyWrapper$::1npn$2$:_ow$:5$:7:5n.x(pn$Node$:1::1npn$2$1n$3::1npn$2$$1n$4::1npn$2$:5$1n$6::1npn$2$:7:5$:7:5$)pn$8:1::1npn$2$1n$3::1npn$2$$1n
0001:00003ae0  W?$dt:RedBlackTree$::1npn$GlobalDictionaryWord$$1n$ptrLess$::1npn$1$$1n$allocator$::1n$pair$::1nxpn$1$1nus:std$$:5$1n$TreePairWrapper$::1npn$1$1nus:_ow$:5$:7:5n()_
0001:00003b40  W?clear$:RedBlackTree$::1npn$GlobalDictionaryWord$$1n$ptrLess$::1npn$2$$1n$allocator$::1n$pair$::1nxpn$2$1nus:std$$:6$1n$TreePairWrapper$::1npn$2$1nus:_ow$:6$:8:6n()v
0001:00003bb0  T?jmvzwalkRight$:RedBlackTree$::1npn$GlobalDictionaryWord$$1n$ptrLess$::1npn$2$$1n$allocator$::1n$pair$::1nxpn$2$1nus:std$$:6$1n$TreePairWrapper$::1npn$2$1nus:_ow$:6$:8:6n.x(pn$Node$:1::1npn$2$1n$3::1npn$2$$1n$4::1n$5::1nxpn$2$1nus:6$:6$1n$7::1npn$2$1nus:
0001:00003bf0  T?anqafind$:RedBlackTree$::1n$basic_string$::1nw1n$char_traits$::1nw:std$$1n$allocator$::1nw:4$:4$1n$less$::1n$2::1nw1n$3::1nw:4$1n$5::1nw:4$:4$:4$1n$5::1n$pair$::1nx$2::1nw1n$3::1nw:4$1n$5::1nw:4$:4$1nw:4$:4$1n$TreePairWrapper$::1n$2::1nw1n$3::1nw:4$1n$5
0001:00003c50  W?$dt:RedBlackTree$::1n$XRef$$1n$less$::1n$1$:std$$1n$allocator$::1n$1$:3$1n$TreeKeyWrapper$::1n$1$:_ow$:3$:6:3n()_
0001:00003cb0  W?clear$:RedBlackTree$::1n$XRef$$1n$less$::1n$2$:std$$1n$allocator$::1n$2$:4$1n$TreeKeyWrapper$::1n$2$:_ow$:4$:7:4n()v
0001:00003d20  W?walkRight$:RedBlackTree$::1n$XRef$$1n$less$::1n$2$:std$$1n$allocator$::1n$2$:4$1n$TreeKeyWrapper$::1n$2$:_ow$:4$:7:4n.x(pn$Node$:1::1n$2$1n$3::1n$2$:4$1n$5::1n$2$:4$1n$6::1n$2$:7:4$:7:4$)pn$8:1::1n$2$1n$3::1n$2$:4$1n$5::1n$2$:4$1n$6::1n$2$:7:4$:7:4$
0001:00003d60  W?insert$:RedBlackTree$::1n$XRef$$1n$less$::1n$2$:std$$1n$allocator$::1n$2$:4$1n$TreeKeyWrapper$::1n$2$:_ow$:4$:7:4n(rnx$2$)$pair$::1n$iterator$:1::1n$2$1n$3::1n$2$:4$1n$5::1n$2$:4$1n$6::1n$2$:7:4$:7:4$1nq:4$
0001:00003d90  T?qntewalkRight$:RedBlackTree$::1n$basic_string$::1nw1n$char_traits$::1nw:std$$1n$allocator$::1nw:4$:4$1n$less$::1n$2::1nw1n$3::1nw:4$1n$5::1nw:4$:4$:4$1n$5::1n$pair$::1nx$2::1nw1n$3::1nw:4$1n$5::1nw:4$:4$1nui:4$:4$1n$TreePairWrapper$::1n$2::1nw1n$3::1nw:
0001:00003dd0  T?rsqzwalkRight$:RedBlackTree$::1nus1n$less$::1nus:std$$1n$allocator$::1n$pair$::1nxus1n$TocRef$$:3$:3$1n$TreePairWrapper$::1nus1n$6$:_ow$:3$:8:3n.x(pn$Node$:1::1nus1n$2::1nus:3$1n$4::1n$5::1nxus1n$6$:3$:3$1n$7::1nus1n$6$:8:3$:8:3$)pn$9:1::1nus1n$2::1nus:
0001:00003e10  T?oj29walkRight$:RedBlackTree$::1npn$GlobalDictionaryWord$$1n$ptrLess$::1npn$2$$1n$allocator$::1n$pair$::1nxpn$2$1n$TocRef$$:std$$:7$1n$TreePairWrapper$::1npn$2$1n$6$:_ow$:7$:9:7n.x(pn$Node$:1::1npn$2$1n$3::1npn$2$$1n$4::1n$5::1nxpn$2$1n$6$:7$:7$1n$8::1np
0001:00003e50  T?8n40walkRight$:RedBlackTree$::1n$basic_string$::1nw1n$char_traits$::1nw:std$$1n$allocator$::1nw:4$:4$1n$less$::1n$2::1nw1n$3::1nw:4$1n$5::1nw:4$:4$:4$1n$5::1n$pair$::1nx$2::1nw1n$3::1nw:4$1n$5::1nw:4$:4$1npn$Synonym$$:4$:4$1n$TreePairWrapper$::1n$2::1nw
0001:00003e90+ T?d7mj$dt:set$::1npn$basic_string$::1nw1n$char_traits$::1nw:std$$1n$allocator$::1nw:3$:3$1n$ptrLess$::1npn$1::1nw1n$2::1nw:3$1n$4::1nw:3$:3$$1n$4::1npn$1::1nw1n$2::1nw:3$1n$4::1nw:3$:3$:3$1n$RedBlackTree$::1npn$1::1nw1n$2::1nw:3$1n$4::1nw:3$:3$1n$5::1npn$
0001:00003ea0+ T?qts9$ct:set$::1npn$basic_string$::1nw1n$char_traits$::1nw:std$$1n$allocator$::1nw:3$:3$1n$ptrLess$::1npn$1::1nw1n$2::1nw:3$1n$4::1nw:3$:3$$1n$4::1npn$1::1nw1n$2::1nw:3$1n$4::1nw:3$:3$:3$1n$RedBlackTree$::1npn$1::1nw1n$2::1nw:3$1n$4::1nw:3$:3$1n$5::1npn$
0001:00003f10  W?$ct:set$::1npn$GlobalDictionaryWord$$1n$ptrLess$::1npn$1$$1n$allocator$::1npn$1$:std$$1n$RedBlackTree$::1npn$1$1n$2::1npn$1$$1n$3::1npn$1$:4$1n$TreeKeyWrapper$::1npn$1$:_ow$:4$:7:4$:4n(rnx$2::1npn$1$$rnx$3::1npn$1$:4$)_
0001:00003f80  W?$ct:set$::1n$XRef$$1n$less$::1n$1$:std$$1n$allocator$::1n$1$:3$1n$RedBlackTree$::1n$1$1n$2::1n$1$:3$1n$4::1n$1$:3$1n$TreeKeyWrapper$::1n$1$:_ow$:3$:7:3$:3n(rnx$2::1n$1$:3$rnx$4::1n$1$:3$)_
0001:00003ff0+ W?$ct:vector$::1npn$IpfData$$1n$allocator$::1npn$1$:std$$:3n(rnx$2::1npn$1$:3$)_
0001:00004060  W?$ct:vector$::1nus1n$allocator$::1nus:std$$:2n(rnx$1::1nus:2$)_
0001:000040d0  W?$dt:vector$::1nus1n$allocator$::1nus:std$$:2n()_
0001:00004140  W?push_back$:vector$::1nus1n$allocator$::1nus:std$$:3n(rnxus)v
0001:00004190  W?$ct:vector$::1n$ControlButton$$1n$allocator$::1n$1$:std$$:3n(rnx$2::1n$1$:3$)_
0001:00004200  W?$dt:vector$::1n$ControlButton$$1n$allocator$::1n$1$:std$$:3n()_
0001:000042b0  W?push_back$:vector$::1n$ControlButton$$1n$allocator$::1n$2$:std$$:4n(rnx$2$)v
0001:00004370  W?$ct:vector$::1n$ControlGroup$$1n$allocator$::1n$1$:std$$:3n(rnx$2::1n$1$:3$)_
0001:000043e0  W?$dt:vector$::1n$ControlGroup$$1n$allocator$::1n$1$:std$$:3n()_
0001:00004490  W?push_back$:vector$::1n$ControlGroup$$1n$allocator$::1n$2$:std$$:4n(rnx$2$)v
0001:00004550  W?$ct:vector$::1nuc1n$allocator$::1nuc:std$$:2n(rnx$1::1nuc:2$)_
0001:000045c0  W?$dt:vector$::1nuc1n$allocator$::1nuc:std$$:2n()_
0001:00004630  W?$ct:vector$::1n$basic_string$::1nw1n$char_traits$::1nw:std$$1n$allocator$::1nw:3$:3$1n$4::1n$1::1nw1n$2::1nw:3$1n$4::1nw:3$:3$:3$:3n(rnx$4::1n$1::1nw1n$2::1nw:3$1n$4::1nw:3$:3$:3$)_
0001:000046a0  W?$dt:vector$::1n$basic_string$::1nw1n$char_traits$::1nw:std$$1n$allocator$::1nw:3$:3$1n$4::1n$1::1nw1n$2::1nw:3$1n$4::1nw:3$:3$:3$:3n()_
0001:00004720  W?reserve$:vector$::1n$basic_string$::1nw1n$char_traits$::1nw:std$$1n$allocator$::1nw:4$:4$1n$5::1n$2::1nw1n$3::1nw:4$1n$5::1nw:4$:4$:4$:4n(ui)v
0001:000048d0  W?push_back$:vector$::1n$basic_string$::1nw1n$char_traits$::1nw:std$$1n$allocator$::1nw:4$:4$1n$5::1n$2::1nw1n$3::1nw:4$1n$5::1nw:4$:4$:4$:4n(rnx$2::1nw1n$3::1nw:4$1n$5::1nw:4$:4$)v
0001:00004920  W?push_back$:vector$::1npn$I1$$1n$allocator$::1npn$2$:std$$:4n(rnxpn$2$)v
0001:00004970  W?push_back$:vector$::1npn$ICmd$$1n$allocator$::1npn$2$:std$$:4n(rnxpn$2$)v
0001:000049c0  W?push_back$:vector$::1nui1n$allocator$::1nui:std$$:3n(rnxui)v
0001:00004a10  T?vvpv$ct:map$::1n$basic_string$::1nw1n$char_traits$::1nw:std$$1n$allocator$::1nw:3$:3$1nus1n$less$::1n$1::1nw1n$2::1nw:3$1n$4::1nw:3$:3$:3$1n$4::1n$pair$::1nx$1::1nw1n$2::1nw:3$1n$4::1nw:3$:3$1nus:3$:3$1n$RedBlackTree$::1n$1::1nw1n$2::1nw:3$1n$4::1nw:3$:
0001:00004a80  T?mesp$od:map$::1n$basic_string$::1nw1n$char_traits$::1nw:std$$1n$allocator$::1nw:3$:3$1nus1n$less$::1n$1::1nw1n$2::1nw:3$1n$4::1nw:3$:3$:3$1n$4::1n$pair$::1nx$1::1nw1n$2::1nw:3$1n$4::1nw:3$:3$1nus:3$:3$1n$RedBlackTree$::1n$1::1nw1n$2::1nw:3$1n$4::1nw:3$:
0001:00004b00  T?n9z1$ct:map$::1npn$GlobalDictionaryWord$$1nus1n$ptrLess$::1npn$1$$1n$allocator$::1n$pair$::1nxpn$1$1nus:std$$:5$1n$RedBlackTree$::1npn$1$1n$2::1npn$1$$1n$3::1n$4::1nxpn$1$1nus:5$:5$1n$TreePairWrapper$::1npn$1$1nus:_ow$:5$:8:5$:5n(rnx$2::1npn$1$$rnx$3::1
0001:00004b70  T?2f6yuninitialized_copy$::1npn$basic_string$::1nw1n$char_traits$::1nw:std$$1n$allocator$::1nw:3$:3$1npn$1::1nw1n$2::1nw:3$1n$4::1nw:3$:3$:3n(pn$1::1nw1n$2::1nw:3$1n$4::1nw:3$:3$pn$1::1nw1n$2::1nw:3$1n$4::1nw:3$:3$pn$1::1nw1n$2::1nw:3$1n$4::1nw:3$:3$)pn$1
0001:00004c50  W?replace_buffer$:basic_string$::1nw1n$char_traits$::1nw:std$$1n$allocator$::1nw:3$:3n(pnxwui)v
0001:00004cb0+ T?5yrpinsBalTransform$:RedBlackTree$::1npn$basic_string$::1nw1n$char_traits$::1nw:std$$1n$allocator$::1nw:4$:4$1n$ptrLess$::1npn$2::1nw1n$3::1nw:4$1n$5::1nw:4$:4$$1n$5::1npn$2::1nw1n$3::1nw:4$1n$5::1nw:4$:4$:4$1n$TreeKeyWrapper$::1npn$2::1nw1n$3::1nw:4$1n
0001:00004eb0+ T?0evvunbalancedInsert$:RedBlackTree$::1npn$basic_string$::1nw1n$char_traits$::1nw:std$$1n$allocator$::1nw:4$:4$1n$ptrLess$::1npn$2::1nw1n$3::1nw:4$1n$5::1nw:4$:4$$1n$5::1npn$2::1nw1n$3::1nw:4$1n$5::1nw:4$:4$:4$1n$TreeKeyWrapper$::1npn$2::1nw1n$3::1nw:4$1
0001:000051a0  T?d6x7insert$:RedBlackTree$::1n$basic_string$::1nw1n$char_traits$::1nw:std$$1n$allocator$::1nw:4$:4$1n$less$::1n$2::1nw1n$3::1nw:4$1n$5::1nw:4$:4$:4$1n$5::1n$pair$::1nx$2::1nw1n$3::1nw:4$1n$5::1nw:4$:4$1nus:4$:4$1n$TreePairWrapper$::1n$2::1nw1n$3::1nw:4$1
0001:000051d0  W?$ct:RedBlackTree$::1n$XRef$$1n$less$::1n$1$:std$$1n$allocator$::1n$1$:3$1n$TreeKeyWrapper$::1n$1$:_ow$:3$:6:3n(rnx$0::1n$1$1n$2::1n$1$:3$1n$4::1n$1$:3$1n$5::1n$1$:6:3$:6:3$)_
0001:00005720  W?insBalTransform$:RedBlackTree$::1n$XRef$$1n$less$::1n$2$:std$$1n$allocator$::1n$2$:4$1n$TreeKeyWrapper$::1n$2$:_ow$:4$:7:4n(pn$Node$:1::1n$2$1n$3::1n$2$:4$1n$5::1n$2$:4$1n$6::1n$2$:7:4$:7:4$)v
0001:00005920  W?unbalancedInsert$:RedBlackTree$::1n$XRef$$1n$less$::1n$2$:std$$1n$allocator$::1n$2$:4$1n$TreeKeyWrapper$::1n$2$:_ow$:4$:7:4n(rnx$2$)$pair$::1n$iterator$:1::1n$2$1n$3::1n$2$:4$1n$5::1n$2$:4$1n$6::1n$2$:7:4$:7:4$1nq:4$
0001:00005ca0  W?alloc$:vector$::1nus1n$allocator$::1nus:std$$:3n(uirnui)pnus
0001:00005cc0  W?$ct:vector$::1nus1n$allocator$::1nus:std$$:2n(rnx$0::1nus1n$1::1nus:2$:2$)_
0001:00005d90  W?reserve$:vector$::1nus1n$allocator$::1nus:std$$:3n(ui)v
0001:00005f30  W?alloc$:vector$::1n$ControlButton$$1n$allocator$::1n$2$:std$$:4n(uirnui)pn$2$
0001:00005f50  W?reserve$:vector$::1n$ControlButton$$1n$allocator$::1n$2$:std$$:4n(ui)v
0001:00006130  W?alloc$:vector$::1n$ControlGroup$$1n$allocator$::1n$2$:std$$:4n(uirnui)pn$2$
0001:00006150  W?reserve$:vector$::1n$ControlGroup$$1n$allocator$::1n$2$:std$$:4n(ui)v
0001:00006330  W?alloc$:vector$::1nuc1n$allocator$::1nuc:std$$:3n(uirnui)pnuc
0001:00006350  W?alloc$:vector$::1n$basic_string$::1nw1n$char_traits$::1nw:std$$1n$allocator$::1nw:4$:4$1n$5::1n$2::1nw1n$3::1nw:4$1n$5::1nw:4$:4$:4$:4n(uirnui)pn$2::1nw1n$3::1nw:4$1n$5::1nw:4$:4$
0001:00006370  W?reserve$:vector$::1npn$I1$$1n$allocator$::1npn$2$:std$$:4n(ui)v
0001:00006510  W?reserve$:vector$::1npn$ICmd$$1n$allocator$::1npn$2$:std$$:4n(ui)v
0001:000066b0  W?reserve$:vector$::1nui1n$allocator$::1nui:std$$:3n(ui)v
0001:00006850  W?uninitialized_copy$::1npnus1npnus:std$n(pnuspnuspnus)pnus
0001:00006930  W?uninitialized_copy$::1npn$ControlButton$$1npn$1$:std$n(pn$1$pn$1$pn$1$)pn$1$
0001:00006a80  W?uninitialized_copy$::1npn$ControlGroup$$1npn$1$:std$n(pn$1$pn$1$pn$1$)pn$1$
0001:00006bd0  W?uninitialized_copy$::1npnpn$I1$$1npnpn$1$:std$n(pnpn$1$pnpn$1$pnpn$1$)pnpn$1$
0001:00006cb0  W?uninitialized_copy$::1npnpn$ICmd$$1npnpn$1$:std$n(pnpn$1$pnpn$1$pnpn$1$)pnpn$1$
0001:00006d90  W?uninitialized_copy$::1npnui1npnui:std$n(pnuipnuipnui)pnui
0001:00006e70+ T?936v$ct::1npn$basic_string$::1nw1n$char_traits$::1nw:std$$1n$allocator$::1nw:2$:2$:3::1n$Node$:RedBlackTree$::1npn$0::1nw1n$1::1nw:2$1n$3::1nw:2$:2$1n$ptrLess$::1npn$0::1nw1n$1::1nw:2$1n$3::1nw:2$:2$$1n$3::1npn$0::1nw1n$1::1nw:2$1n$3::1nw:2$:2$:2$1n$Tre
0001:00006e80  T?w2a3$ct::1n$pair$::1nx$basic_string$::1nw1n$char_traits$::1nw:std$$1n$allocator$::1nw:3$:3$1nus:3$:4::1n$Node$:RedBlackTree$::1n$1::1nw1n$2::1nw:3$1n$4::1nw:3$:3$1n$less$::1n$1::1nw1n$2::1nw:3$1n$4::1nw:3$:3$:3$1n$4::1n$0::1nx$1::1nw1n$2::1nw:3$1n$4::1n
0001:00006e90  W?$ct::1npn$GlobalDictionaryWord$$:allocator$::1n$Node$:RedBlackTree$::1npn$0$1n$ptrLess$::1npn$0$$1n$1::1npn$0$:std$$1n$TreeKeyWrapper$::1npn$0$:_ow$:5$:7:5$:5n(rnx$1::1npn$0$:5$)_
0001:00006ea0  W?$ct::1n$pair$::1nxpn$GlobalDictionaryWord$$1nus:std$$:allocator$::1n$Node$:RedBlackTree$::1npn$1$1n$ptrLess$::1npn$1$$1n$3::1n$0::1nxpn$1$1nus:2$:2$1n$TreePairWrapper$::1npn$1$1nus:_ow$:2$:8:2$:2n(rnx$3::1n$0::1nxpn$1$1nus:2$:2$)_
0001:00006eb0  W?$ct::1n$XRef$$:allocator$::1n$Node$:RedBlackTree$::1n$0$1n$less$::1n$0$:std$$1n$1::1n$0$:5$1n$TreeKeyWrapper$::1n$0$:_ow$:5$:7:5$:5n(rnx$1::1n$0$:5$)_
0001:00006ec0  T?f2p1insBalTransform$:RedBlackTree$::1n$basic_string$::1nw1n$char_traits$::1nw:std$$1n$allocator$::1nw:4$:4$1n$less$::1n$2::1nw1n$3::1nw:4$1n$5::1nw:4$:4$:4$1n$5::1n$pair$::1nx$2::1nw1n$3::1nw:4$1n$5::1nw:4$:4$1nus:4$:4$1n$TreePairWrapper$::1n$2::1nw1n$3
0001:000070c0  T?2vw6unbalancedInsert$:RedBlackTree$::1n$basic_string$::1nw1n$char_traits$::1nw:std$$1n$allocator$::1nw:4$:4$1n$less$::1n$2::1nw1n$3::1nw:4$1n$5::1nw:4$:4$:4$1n$5::1n$pair$::1nx$2::1nw1n$3::1nw:4$1n$5::1nw:4$:4$1nus:4$:4$1n$TreePairWrapper$::1n$2::1nw1n$
0001:000074d0  W?alloc$:vector$::1npn$I1$$1n$allocator$::1npn$2$:std$$:4n(uirnui)pnpn$2$
0002:00007820  W?$Wcm017$nx[]uc
0002:00007830  W?$Wcm0211$nx[]uc
0002:00007840  W?$Wcm0219$nx[]uc
0002:00007850  W?$Wcm018$nx[]uc
0002:00007860  W?$Wcm0215$nx[]uc
0002:00007870  W?$Wth0Inrn$FatalIOError$$$nx[]uc
0002:00007890+ W?$Wts0Wn$auto_ptr$::1n$Document$$:std$$$nx[]uc
0002:0005c35a+ W?$Wti0V$auto_ptr$::1n$Document$$:std$$$n[]uc
0001:000074f0  W?alloc$:vector$::1npn$ICmd$$1n$allocator$::1npn$2$:std$$:4n(uirnui)pnpn$2$
0001:00007510  W?alloc$:vector$::1nui1n$allocator$::1nui:std$$:3n(uirnui)pnui
0001:00003410  W?getNextToken$:Compiler$n()$Token$:Lexer$$
0001:00003470  W?popInput$:Compiler$n()v
Module: document.obj(/mnt/sda5/.user/root/src/openwatcom-1.9/bld/wipfc/cpp/document.cpp)
0001:0000bb60+ T?8z2t$ct:iterator_base$:RedBlackTree$::1n$basic_string$::1nw1n$char_traits$::1nw:std$$1n$allocator$::1nw:4$:4$1n$less$::1n$2::1nw1n$3::1nw:4$1n$5::1nw:4$:4$:4$1n$5::1n$pair$::1nx$2::1nw1n$3::1nw:4$1n$5::1nw:4$:4$1nw:4$:4$1n$TreePairWrapper$::1n$2::1nw1n$
0001:0000bb70+ W?$dt:Bitmap$n()_
0001:0000bbe0  W?$dt:Element$n()_
0001:0000bbf0  W?buildTOC$:Element$n(pn$Page$$)v
0001:0000bc00  W?buildIndex$:Element$n()v
0001:0000bc10  W?buildLocalDict$:Element$n(pn$Page$$)$pair$::1nq1nq:std$$
0001:0000bc20  W?$dt:BrCmd$n()_
0001:0000bcb0  W?parse$:BrCmd$n(pn$Lexer$$)$Token$:2$
0001:0000bcc0  W?$ct:Node$:list$::1npn$Element$$1n$allocator$::1npn$2$:std$$:4n(rnxpn$2$)_
0001:0000bcd0+ W?$dt:CeCmd$n()_
0001:0000bd70+ W?$dt:DocProf$n()_
0001:0000bdf0+ W?$dt:Fn$n()_
0001:0000be90+ W?linearize$:Fn$n(pn$Page$$)v
0001:0000bea0+ W?buildText$:Fn$n(pn$Cell$$)v
0001:0000beb0+ W?linearize$:Page$n()v
0001:0000bed0+ W?buildIndex$:Page$n()v
0001:0000bee0+ W?$dt:Title$n()_
0001:0000bef0+ W?$Wmp0Elinearize$n()v$:Page$n()pn()v
0001:0000bf00+ W?$Wmp0PbuildLocalDictionary$n()v$:Page$n()pn()v
0001:0000bf10+ W?$Wmp0Abuild$n()v$:Cell$n()pn()v
0001:00007530  W?$ct:Document$n(rn$Compiler$$pnxa)_
0001:00007b20  W?$dt:Document$n()_
0001:00008130  W?parse$:Document$n(pn$Lexer$$)v
0001:00008ce0  W?build$:Document$n()v
0001:00008f00  W?write$:Document$n(pn$__iobuf$$)v
0001:00009170  W?summary$:Document$n(pn$__iobuf$$)v
0001:000092c0  W?addBitmap$:Document$n(rn$basic_string$::1nw1n$char_traits$::1nw:std$$1n$allocator$::1nw:4$:4$)v
0001:00009340  W?bitmapByName$:Document$n(rn$basic_string$::1nw1n$char_traits$::1nw:std$$1n$allocator$::1nw:4$:4$)ui
0001:00009370  W?addRes$:Document$n(usrn$TocRef$$)v
0001:00009450  W?addNameOrId$:Document$n(pn$GlobalDictionaryWord$$rn$TocRef$$)v
0001:00009530  W?addXRef$:Document$n(usrn$XRef$$)v
0001:00009580  W?addXRef$:Document$n(pn$GlobalDictionaryWord$$rn$XRef$$)v
0001:0000bf20+ W?$Wmp0FbuildIndex$n()v$:Page$n()pn()v
0001:000095d0  W?addPage$:Document$n(pn$Page$$)v
0001:000095f0  W?addCell$:Document$n(pn$Cell$$)v
0001:00009610+ W?makeIndexes$:Document$n()v
0001:00009700+ W?makeBitmaps$:Document$n()v
0001:00009e80+ W?writeBitmaps$:Document$n(pn$__iobuf$$)ui
0001:0000a2c0+ W?writeResMap$:Document$n(pn$__iobuf$$)ui
0001:0000a410+ W?writeNameMap$:Document$n(pn$__iobuf$$)ui
0001:0000a580+ W?writeTOCs$:Document$n(pn$__iobuf$$)ui
0001:0000a600+ W?writeTOCOffsets$:Document$n(pn$__iobuf$$)ui
0001:0000a670+ W?writeCells$:Document$n(pn$__iobuf$$)v
0001:0000a6e0+ W?writeCellOffsets$:Document$n(pn$__iobuf$$)ui
0001:0000a750+ W?writeChildWindows$:Document$n(pn$__iobuf$$)ui
0001:0000a7c0+ W?writeSynonyms$:Document$n(pn$__iobuf$$)v
0001:0000a800+ W?writeIndex$:Document$n(pn$__iobuf$$)ui
0001:0000a900+ W?writeICmd$:Document$n(pn$__iobuf$$)ui
0001:0000a9b0  W?processCommand$:Document$n(pn$Lexer$$pn$Tag$$)$Token$:2$
0001:0000b810  W?tocIndexByRes$:Document$n(us)us
0001:0000b860  W?tocIndexById$:Document$n(pn$GlobalDictionaryWord$$)us
0001:0000b8b0  W?addSynonym$:Document$n(rn$basic_string$::1nw1n$char_traits$::1nw:std$$1n$allocator$::1nw:4$:4$pn$Synonym$$)v
0001:0000b970  W?synonym$:Document$n(rnx$basic_string$::1nw1n$char_traits$::1nw:std$$1n$allocator$::1nw:4$:4$)pn$Synonym$$
0001:0000b9b0  W?addIndexId$:Document$n(rn$basic_string$::1nw1n$char_traits$::1nw:std$$1n$allocator$::1nw:4$:4$pn$I1$$)v
0001:0000ba70  W?indexById$:Document$n(rnx$basic_string$::1nw1n$char_traits$::1nw:std$$1n$allocator$::1nw:4$:4$)pn$I1$$
0001:0000bab0  W?nameit$:Document$n(rnx$basic_string$::1nw1n$char_traits$::1nw:std$$1n$allocator$::1nw:4$:4$)pnx$2::1nw1n$3::1nw:4$1n$5::1nw:4$:4$
0001:0000bae0  W?prepNameitName$:Document$n(rnx$basic_string$::1nw1n$char_traits$::1nw:std$$1n$allocator$::1nw:4$:4$)pn$2::1nw1n$3::1nw:4$1n$5::1nw:4$:4$
0001:0000bf30+ W?$dt:pair$::1nx$basic_string$::1nw1n$char_traits$::1nw:std$$1n$allocator$::1nw:3$:3$1nul:3n()_
0001:0000bf40+ T?t3nw$dt:Node$:RedBlackTree$::1n$basic_string$::1nw1n$char_traits$::1nw:std$$1n$allocator$::1nw:4$:4$1n$less$::1n$2::1nw1n$3::1nw:4$1n$5::1nw:4$:4$:4$1n$5::1n$pair$::1nx$2::1nw1n$3::1nw:4$1n$5::1nw:4$:4$1npn$I1$$:4$:4$1n$TreePairWrapper$::1n$2::1nw1n$3::
0001:0000bf50+ W?$dt:pair$::1nx$basic_string$::1nw1n$char_traits$::1nw:std$$1n$allocator$::1nw:3$:3$1npn$I1$$:3n()_
0001:0000bf60+ T?de47$dt:Node$:RedBlackTree$::1n$basic_string$::1nw1n$char_traits$::1nw:std$$1n$allocator$::1nw:4$:4$1n$less$::1n$2::1nw1n$3::1nw:4$1n$5::1nw:4$:4$:4$1n$5::1n$pair$::1nx$2::1nw1n$3::1nw:4$1n$5::1nw:4$:4$1n$2::1nw1n$3::1nw:4$1n$5::1nw:4$:4$:4$:4$1n$TreePa
0001:0000bfd0+ W?$dt:pair$::1nx$basic_string$::1nw1n$char_traits$::1nw:std$$1n$allocator$::1nw:3$:3$1n$1::1nw1n$2::1nw:3$1n$4::1nw:3$:3$:3n()_
0001:0000c040+ T?tidb$dt:Node$:RedBlackTree$::1n$basic_string$::1nw1n$char_traits$::1nw:std$$1n$allocator$::1nw:4$:4$1n$less$::1n$2::1nw1n$3::1nw:4$1n$5::1nw:4$:4$:4$1n$5::1n$pair$::1nx$2::1nw1n$3::1nw:4$1n$5::1nw:4$:4$1npn$Synonym$$:4$:4$1n$TreePairWrapper$::1n$2::1nw1
0001:0000c050+ W?$dt:pair$::1nx$basic_string$::1nw1n$char_traits$::1nw:std$$1n$allocator$::1nw:3$:3$1npn$Synonym$$:3n()_
0001:0000c060+ W?$dt:Node$:RedBlackTree$::1npn$GlobalDictionaryWord$$1n$ptrLess$::1npn$2$$1n$allocator$::1n$pair$::1nxpn$2$1n$TocRef$$:std$$:7$1n$TreePairWrapper$::1npn$2$1n$6$:_ow$:7$:9:7n()_
0001:0000c080+ W?$dt:pair$::1nxpn$GlobalDictionaryWord$$1n$TocRef$$:std$n()_
0001:0000c0a0+ W?$dt:Node$:RedBlackTree$::1nus1n$less$::1nus:std$$1n$allocator$::1n$pair$::1nxus1n$TocRef$$:3$:3$1n$TreePairWrapper$::1nus1n$6$:_ow$:3$:8:3n()_
0001:0000c0c0+ W?$dt:pair$::1nxus1n$TocRef$$:std$n()_
0001:0000c0e0+ T?wg9k$dt:Node$:RedBlackTree$::1n$basic_string$::1nw1n$char_traits$::1nw:std$$1n$allocator$::1nw:4$:4$1n$less$::1n$2::1nw1n$3::1nw:4$1n$5::1nw:4$:4$:4$1n$5::1n$pair$::1nx$2::1nw1n$3::1nw:4$1n$5::1nw:4$:4$1nui:4$:4$1n$TreePairWrapper$::1n$2::1nw1n$3::1nw:4
0001:0000c0f0+ W?$dt:pair$::1nx$basic_string$::1nw1n$char_traits$::1nw:std$$1n$allocator$::1nw:3$:3$1nui:3n()_
0001:0000c100  W?$ct:TocRef$n(rnx$0$)_
0001:0000c130  W?$ct:Class3Error$n(rnx$0$)_
0001:0000c140  W?$dt:Class3Error$n()_
0001:0000c150  W?$ct:Class1Error$n(rnx$0$)_
0001:0000c160  W?$dt:Class1Error$n()_
0001:0000c170  W?$ct:FatalError$n(rnx$0$)_
0001:0000c180  W?$dt:FatalError$n()_
0001:0000c190+ W?for_each$::1npnpn$Page$$1n$mem_fun_t$::1nv1n$1$:std$$:3n(pnpn$1$pnpn$1$$2::1nv1n$1$:3$)$2::1nv1n$1$:3$
0001:0000c1e0+ W?for_each$::1npnpn$Cell$$1n$mem_fun_t$::1nv1n$1$:std$$:3n(pnpn$1$pnpn$1$$2::1nv1n$1$:3$)$2::1nv1n$1$:3$
0001:0000c230+ W?$ct::1nx$basic_string$::1nw1n$char_traits$::1nw:std$$1n$allocator$::1nw:2$:2$1nul:pair$::1nx$0::1nw1n$1::1nw:2$1n$3::1nw:2$:2$1nui:2n(rnx$4::1nx$0::1nw1n$1::1nw:2$1n$3::1nw:2$:2$1nul:2$)_
0001:0000c240  W?$ct:allocator$::1nw:std$n()_
0001:0000c250  W?$ct:allocator$::1nus:std$n()_
0001:0000c260  W?$dt:allocator$::1n$FontEntry$$:std$n()_
0001:0000c270  W?$ct:allocator$::1nuc:std$n()_
0001:0000c280+ W?$dt:allocator$::1npn$Page$$:std$n()_
0001:0000c290+ W?$dt:allocator$::1npn$Cell$$:std$n()_
0001:0000c2a0+ W?$dt:allocator$::1n$pair$::1nx$basic_string$::1nw1n$char_traits$::1nw:std$$1n$0::1nw:4$:4$1nui:4$:4n()_
0001:0000c2b0+ T?uax1$dt:allocator$::1n$Node$:RedBlackTree$::1n$basic_string$::1nw1n$char_traits$::1nw:std$$1n$0::1nw:5$:5$1n$less$::1n$3::1nw1n$4::1nw:5$1n$0::1nw:5$:5$:5$1n$0::1n$pair$::1nx$3::1nw1n$4::1nw:5$1n$0::1nw:5$:5$1nui:5$:5$1n$TreePairWrapper$::1n$3::1nw1n$4:
0001:0000c2c0+ W?$dt:allocator$::1n$pair$::1nxus1n$TocRef$$:std$$:3n()_
0001:0000c2d0+ W?$dt:allocator$::1n$Node$:RedBlackTree$::1nus1n$less$::1nus:std$$1n$0::1n$pair$::1nxus1n$TocRef$$:4$:4$1n$TreePairWrapper$::1nus1n$6$:_ow$:4$:8:4$:4n()_
0001:0000c2e0+ W?$dt:allocator$::1n$pair$::1nxpn$GlobalDictionaryWord$$1n$TocRef$$:std$$:4n()_
0001:0000c2f0+ W?$dt:allocator$::1n$Node$:RedBlackTree$::1npn$GlobalDictionaryWord$$1n$ptrLess$::1npn$3$$1n$0::1n$pair$::1nxpn$3$1n$TocRef$$:std$$:7$1n$TreePairWrapper$::1npn$3$1n$6$:_ow$:7$:9:7$:7n()_
0001:0000c300+ W?$dt:allocator$::1n$pair$::1nx$basic_string$::1nw1n$char_traits$::1nw:std$$1n$0::1nw:4$:4$1npn$Synonym$$:4$:4n()_
0001:0000c310+ T?hgnc$dt:allocator$::1n$Node$:RedBlackTree$::1n$basic_string$::1nw1n$char_traits$::1nw:std$$1n$0::1nw:5$:5$1n$less$::1n$3::1nw1n$4::1nw:5$1n$0::1nw:5$:5$:5$1n$0::1n$pair$::1nx$3::1nw1n$4::1nw:5$1n$0::1nw:5$:5$1npn$Synonym$$:5$:5$1n$TreePairWrapper$::1n$3
0001:0000c320+ W?$dt:allocator$::1n$pair$::1nx$basic_string$::1nw1n$char_traits$::1nw:std$$1n$0::1nw:4$:4$1n$2::1nw1n$3::1nw:4$1n$0::1nw:4$:4$:4$:4n()_
0001:0000c330+ T?hz2o$dt:allocator$::1n$Node$:RedBlackTree$::1n$basic_string$::1nw1n$char_traits$::1nw:std$$1n$0::1nw:5$:5$1n$less$::1n$3::1nw1n$4::1nw:5$1n$0::1nw:5$:5$:5$1n$0::1n$pair$::1nx$3::1nw1n$4::1nw:5$1n$0::1nw:5$:5$1n$3::1nw1n$4::1nw:5$1n$0::1nw:5$:5$:5$:5$1n$
0001:0000c340+ W?$dt:allocator$::1npn$I1$$:std$n()_
0001:0000c350+ W?$dt:allocator$::1n$pair$::1nx$basic_string$::1nw1n$char_traits$::1nw:std$$1n$0::1nw:4$:4$1npn$I1$$:4$:4n()_
0001:0000c360+ T?mjij$dt:allocator$::1n$Node$:RedBlackTree$::1n$basic_string$::1nw1n$char_traits$::1nw:std$$1n$0::1nw:5$:5$1n$less$::1n$3::1nw1n$4::1nw:5$1n$0::1nw:5$:5$:5$1n$0::1n$pair$::1nx$3::1nw1n$4::1nw:5$1n$0::1nw:5$:5$1npn$I1$$:5$:5$1n$TreePairWrapper$::1n$3::1nw
0001:0000c370+ W?$dt:allocator$::1npn$ICmd$$:std$n()_
0001:0000c380  W?$dt:allocator$::1nui:std$n()_
0001:0000c390  W?$dt:allocator$::1n$RGB$:Bitmap$$:std$n()_
0001:0000c3a0  W?$dt:allocator$::1n$BitmapBlock$$:std$n()_
0001:0000c3b0  W?$dt:allocator$::1npn$Element$$:std$n()_
0001:0000c3c0  W?$dt:allocator$::1n$Node$:list$::1npn$Element$$1n$0::1npn$3$:std$$:4$:4n()_
0001:0000c3d0  W?$dt:allocator$::1n$DoubleLink$:list$::1npn$Element$$1n$0::1npn$3$:std$$:4$:4n()_
0001:0000c3e0  W?$dt:allocator$::1npn$CtrlTag$$:std$n()_
0001:0000c3f0  W?$dt:allocator$::1npn$IndexItem$$:std$n()_
0001:0000c400  W?$dt:allocator$::1n$basic_string$::1na1n$char_traits$::1na:std$$1n$0::1na:3$:3$:3n()_
0001:0000c410+ W?$dt:auto_ptr$::1n$Nls$$:std$n()_
0001:0000c570+ W?$dt:auto_ptr$::1n$IpfHeader$$:std$n()_
0001:0000c5c0+ W?$dt:auto_ptr$::1n$IpfExtHeader$$:std$n()_
0001:0000c610+ W?$dt:auto_ptr$::1n$StringTable$$:std$n()_
0001:0000c690+ W?$dt:auto_ptr$::1n$ExternalFiles$$:std$n()_
0001:0000c710+ W?$dt:auto_ptr$::1n$Controls$$:std$n()_
0001:0000c7b0+ W?$dt:auto_ptr$::1n$FontCollection$$:std$n()_
0001:0000c830+ W?$dt:auto_ptr$::1n$GNames$$:std$n()_
0001:0000c8b0+ W?$dt:auto_ptr$::1n$GlobalDictionary$$:std$n()_
0001:0000c930  W?append$:basic_string$::1na1n$char_traits$::1na:std$$1n$allocator$::1na:3$:3n(rnx$1::1na1n$2::1na:3$1n$4::1na:3$:3$uiui)rn$1::1na1n$2::1na:3$1n$4::1na:3$:3$
0001:0000ca10+ W?find_first_of$:basic_string$::1na1n$char_traits$::1na:std$$1n$allocator$::1na:3$:3n.x(pnxauiui)ui
0001:0000ca60+ W?substr$:basic_string$::1na1n$char_traits$::1na:std$$1n$allocator$::1na:3$:3n.x(uiui)$1::1na1n$2::1na:3$1n$4::1na:3$:3$
0001:0000cb60  W?append$:basic_string$::1nw1n$char_traits$::1nw:std$$1n$allocator$::1nw:3$:3n(rnx$1::1nw1n$2::1nw:3$1n$4::1nw:3$:3$uiui)rn$1::1nw1n$2::1nw:3$1n$4::1nw:3$:3$
0001:0000cc40  W?append$:basic_string$::1nw1n$char_traits$::1nw:std$$1n$allocator$::1nw:3$:3n(pnxwui)rn$1::1nw1n$2::1nw:3$1n$4::1nw:3$:3$
0001:0000cdd0  W?substr$:basic_string$::1nw1n$char_traits$::1nw:std$$1n$allocator$::1nw:3$:3n.x(uiui)$1::1nw1n$2::1nw:3$1n$4::1nw:3$:3$
0001:0000ced0  T?my32$dt:RedBlackTree$::1n$basic_string$::1nw1n$char_traits$::1nw:std$$1n$allocator$::1nw:3$:3$1n$less$::1n$1::1nw1n$2::1nw:3$1n$4::1nw:3$:3$:3$1n$4::1n$pair$::1nx$1::1nw1n$2::1nw:3$1n$4::1nw:3$:3$1nw:3$:3$1n$TreePairWrapper$::1n$1::1nw1n$2::1nw:3$1n$4::
0001:0000cf30  T?8iwvclear$:RedBlackTree$::1n$basic_string$::1nw1n$char_traits$::1nw:std$$1n$allocator$::1nw:4$:4$1n$less$::1n$2::1nw1n$3::1nw:4$1n$5::1nw:4$:4$:4$1n$5::1n$pair$::1nx$2::1nw1n$3::1nw:4$1n$5::1nw:4$:4$1nw:4$:4$1n$TreePairWrapper$::1n$2::1nw1n$3::1nw:4$1n$
0001:0000cfd0+ T?1mla$dt:RedBlackTree$::1n$basic_string$::1nw1n$char_traits$::1nw:std$$1n$allocator$::1nw:3$:3$1n$less$::1n$1::1nw1n$2::1nw:3$1n$4::1nw:3$:3$:3$1n$4::1n$pair$::1nx$1::1nw1n$2::1nw:3$1n$4::1nw:3$:3$1nui:3$:3$1n$TreePairWrapper$::1n$1::1nw1n$2::1nw:3$1n$4:
0001:0000d030+ T?2xrlclear$:RedBlackTree$::1n$basic_string$::1nw1n$char_traits$::1nw:std$$1n$allocator$::1nw:4$:4$1n$less$::1n$2::1nw1n$3::1nw:4$1n$5::1nw:4$:4$:4$1n$5::1n$pair$::1nx$2::1nw1n$3::1nw:4$1n$5::1nw:4$:4$1nui:4$:4$1n$TreePairWrapper$::1n$2::1nw1n$3::1nw:4$1n
0001:0000d0d0+ T?5go6find$:RedBlackTree$::1n$basic_string$::1nw1n$char_traits$::1nw:std$$1n$allocator$::1nw:4$:4$1n$less$::1n$2::1nw1n$3::1nw:4$1n$5::1nw:4$:4$:4$1n$5::1n$pair$::1nx$2::1nw1n$3::1nw:4$1n$5::1nw:4$:4$1nui:4$:4$1n$TreePairWrapper$::1n$2::1nw1n$3::1nw:4$1n$
0001:0000d130+ T?8pvzinsert$:RedBlackTree$::1n$basic_string$::1nw1n$char_traits$::1nw:std$$1n$allocator$::1nw:4$:4$1n$less$::1n$2::1nw1n$3::1nw:4$1n$5::1nw:4$:4$:4$1n$5::1n$pair$::1nx$2::1nw1n$3::1nw:4$1n$5::1nw:4$:4$1nui:4$:4$1n$TreePairWrapper$::1n$2::1nw1n$3::1nw:4$1
0001:0000d160+ W?$dt:RedBlackTree$::1nus1n$less$::1nus:std$$1n$allocator$::1n$pair$::1nxus1n$TocRef$$:2$:2$1n$TreePairWrapper$::1nus1n$5$:_ow$:2$:7:2n()_
0001:0000d1c0+ W?clear$:RedBlackTree$::1nus1n$less$::1nus:std$$1n$allocator$::1n$pair$::1nxus1n$TocRef$$:3$:3$1n$TreePairWrapper$::1nus1n$6$:_ow$:3$:8:3n()v
0001:0000d270+ W?find$:RedBlackTree$::1nus1n$less$::1nus:std$$1n$allocator$::1n$pair$::1nxus1n$TocRef$$:3$:3$1n$TreePairWrapper$::1nus1n$6$:_ow$:3$:8:3n(rnxus)$iterator$:1::1nus1n$2::1nus:3$1n$4::1n$5::1nxus1n$6$:3$:3$1n$7::1nus1n$6$:8:3$:8:3$
0001:0000d2c0+ T?78t3insert$:RedBlackTree$::1nus1n$less$::1nus:std$$1n$allocator$::1n$pair$::1nxus1n$TocRef$$:3$:3$1n$TreePairWrapper$::1nus1n$6$:_ow$:3$:8:3n(rnx$5::1nxus1n$6$:3$)$5::1n$iterator$:1::1nus1n$2::1nus:3$1n$4::1n$5::1nxus1n$6$:3$:3$1n$7::1nus1n$6$:8:3$:8:3$
0001:0000d2f0+ W?$dt:RedBlackTree$::1npn$GlobalDictionaryWord$$1n$ptrLess$::1npn$1$$1n$allocator$::1n$pair$::1nxpn$1$1n$TocRef$$:std$$:6$1n$TreePairWrapper$::1npn$1$1n$5$:_ow$:6$:8:6n()_
0001:0000d350+ W?clear$:RedBlackTree$::1npn$GlobalDictionaryWord$$1n$ptrLess$::1npn$2$$1n$allocator$::1n$pair$::1nxpn$2$1n$TocRef$$:std$$:7$1n$TreePairWrapper$::1npn$2$1n$6$:_ow$:7$:9:7n()v
0001:0000d400+ T?y3pyfind$:RedBlackTree$::1npn$GlobalDictionaryWord$$1n$ptrLess$::1npn$2$$1n$allocator$::1n$pair$::1nxpn$2$1n$TocRef$$:std$$:7$1n$TreePairWrapper$::1npn$2$1n$6$:_ow$:7$:9:7n(rnxpn$2$)$iterator$:1::1npn$2$1n$3::1npn$2$$1n$4::1n$5::1nxpn$2$1n$6$:7$:7$1n$8:
0001:0000d460+ T?e313insert$:RedBlackTree$::1npn$GlobalDictionaryWord$$1n$ptrLess$::1npn$2$$1n$allocator$::1n$pair$::1nxpn$2$1n$TocRef$$:std$$:7$1n$TreePairWrapper$::1npn$2$1n$6$:_ow$:7$:9:7n(rnx$5::1nxpn$2$1n$6$:7$)$5::1n$iterator$:1::1npn$2$1n$3::1npn$2$$1n$4::1n$5::1
0001:0000d490+ T?fkaa$dt:RedBlackTree$::1n$basic_string$::1nw1n$char_traits$::1nw:std$$1n$allocator$::1nw:3$:3$1n$less$::1n$1::1nw1n$2::1nw:3$1n$4::1nw:3$:3$:3$1n$4::1n$pair$::1nx$1::1nw1n$2::1nw:3$1n$4::1nw:3$:3$1npn$Synonym$$:3$:3$1n$TreePairWrapper$::1n$1::1nw1n$2::1
0001:0000d4f0+ T?k5yeclear$:RedBlackTree$::1n$basic_string$::1nw1n$char_traits$::1nw:std$$1n$allocator$::1nw:4$:4$1n$less$::1n$2::1nw1n$3::1nw:4$1n$5::1nw:4$:4$:4$1n$5::1n$pair$::1nx$2::1nw1n$3::1nw:4$1n$5::1nw:4$:4$1npn$Synonym$$:4$:4$1n$TreePairWrapper$::1n$2::1nw1n$3
0001:0000d590+ T?98xafind$:RedBlackTree$::1n$basic_string$::1nw1n$char_traits$::1nw:std$$1n$allocator$::1nw:4$:4$1n$less$::1n$2::1nw1n$3::1nw:4$1n$5::1nw:4$:4$:4$1n$5::1n$pair$::1nx$2::1nw1n$3::1nw:4$1n$5::1nw:4$:4$1npn$Synonym$$:4$:4$1n$TreePairWrapper$::1n$2::1nw1n$3:
0001:0000d5f0+ T?uai6insert$:RedBlackTree$::1n$basic_string$::1nw1n$char_traits$::1nw:std$$1n$allocator$::1nw:4$:4$1n$less$::1n$2::1nw1n$3::1nw:4$1n$5::1nw:4$:4$:4$1n$5::1n$pair$::1nx$2::1nw1n$3::1nw:4$1n$5::1nw:4$:4$1npn$Synonym$$:4$:4$1n$TreePairWrapper$::1n$2::1nw1n$
0001:0000d620+ T?p6y9$dt:RedBlackTree$::1n$basic_string$::1nw1n$char_traits$::1nw:std$$1n$allocator$::1nw:3$:3$1n$less$::1n$1::1nw1n$2::1nw:3$1n$4::1nw:3$:3$:3$1n$4::1n$pair$::1nx$1::1nw1n$2::1nw:3$1n$4::1nw:3$:3$1n$1::1nw1n$2::1nw:3$1n$4::1nw:3$:3$:3$:3$1n$TreePairWrap
0001:0000d680+ T?m71dclear$:RedBlackTree$::1n$basic_string$::1nw1n$char_traits$::1nw:std$$1n$allocator$::1nw:4$:4$1n$less$::1n$2::1nw1n$3::1nw:4$1n$5::1nw:4$:4$:4$1n$5::1n$pair$::1nx$2::1nw1n$3::1nw:4$1n$5::1nw:4$:4$1n$2::1nw1n$3::1nw:4$1n$5::1nw:4$:4$:4$:4$1n$TreePairW
0001:0000d790+ T?av8ifind$:RedBlackTree$::1n$basic_string$::1nw1n$char_traits$::1nw:std$$1n$allocator$::1nw:4$:4$1n$less$::1n$2::1nw1n$3::1nw:4$1n$5::1nw:4$:4$:4$1n$5::1n$pair$::1nx$2::1nw1n$3::1nw:4$1n$5::1nw:4$:4$1n$2::1nw1n$3::1nw:4$1n$5::1nw:4$:4$:4$:4$1n$TreePairWr
0001:0000d7f0+ T?ukwyinsert$:RedBlackTree$::1n$basic_string$::1nw1n$char_traits$::1nw:std$$1n$allocator$::1nw:4$:4$1n$less$::1n$2::1nw1n$3::1nw:4$1n$5::1nw:4$:4$:4$1n$5::1n$pair$::1nx$2::1nw1n$3::1nw:4$1n$5::1nw:4$:4$1n$2::1nw1n$3::1nw:4$1n$5::1nw:4$:4$:4$:4$1n$TreePair
0001:0000d820+ T?r5jd$dt:RedBlackTree$::1n$basic_string$::1nw1n$char_traits$::1nw:std$$1n$allocator$::1nw:3$:3$1n$less$::1n$1::1nw1n$2::1nw:3$1n$4::1nw:3$:3$:3$1n$4::1n$pair$::1nx$1::1nw1n$2::1nw:3$1n$4::1nw:3$:3$1npn$I1$$:3$:3$1n$TreePairWrapper$::1n$1::1nw1n$2::1nw:3$
0001:0000d880+ T?l2paclear$:RedBlackTree$::1n$basic_string$::1nw1n$char_traits$::1nw:std$$1n$allocator$::1nw:4$:4$1n$less$::1n$2::1nw1n$3::1nw:4$1n$5::1nw:4$:4$:4$1n$5::1n$pair$::1nx$2::1nw1n$3::1nw:4$1n$5::1nw:4$:4$1npn$I1$$:4$:4$1n$TreePairWrapper$::1n$2::1nw1n$3::1nw
0001:0000d920+ T?opeifind$:RedBlackTree$::1n$basic_string$::1nw1n$char_traits$::1nw:std$$1n$allocator$::1nw:4$:4$1n$less$::1n$2::1nw1n$3::1nw:4$1n$5::1nw:4$:4$:4$1n$5::1n$pair$::1nx$2::1nw1n$3::1nw:4$1n$5::1nw:4$:4$1npn$I1$$:4$:4$1n$TreePairWrapper$::1n$2::1nw1n$3::1nw:
0001:0000d980+ T?0pb0insert$:RedBlackTree$::1n$basic_string$::1nw1n$char_traits$::1nw:std$$1n$allocator$::1nw:4$:4$1n$less$::1n$2::1nw1n$3::1nw:4$1n$5::1nw:4$:4$:4$1n$5::1n$pair$::1nx$2::1nw1n$3::1nw:4$1n$5::1nw:4$:4$1npn$I1$$:4$:4$1n$TreePairWrapper$::1n$2::1nw1n$3::1n
0001:0000d9b0  T?8twe$dt:map$::1n$basic_string$::1nw1n$char_traits$::1nw:std$$1n$allocator$::1nw:3$:3$1nw1n$less$::1n$1::1nw1n$2::1nw:3$1n$4::1nw:3$:3$:3$1n$4::1n$pair$::1nx$1::1nw1n$2::1nw:3$1n$4::1nw:3$:3$1nw:3$:3$1n$RedBlackTree$::1n$1::1nw1n$2::1nw:3$1n$4::1nw:3$:3$
0001:0000d9c0+ T?5sha$dt:map$::1n$basic_string$::1nw1n$char_traits$::1nw:std$$1n$allocator$::1nw:3$:3$1nui1n$less$::1n$1::1nw1n$2::1nw:3$1n$4::1nw:3$:3$:3$1n$4::1n$pair$::1nx$1::1nw1n$2::1nw:3$1n$4::1nw:3$:3$1nui:3$:3$1n$RedBlackTree$::1n$1::1nw1n$2::1nw:3$1n$4::1nw:3$:
0001:0000d9d0+ T?s3k4$ct:map$::1n$basic_string$::1nw1n$char_traits$::1nw:std$$1n$allocator$::1nw:3$:3$1nui1n$less$::1n$1::1nw1n$2::1nw:3$1n$4::1nw:3$:3$:3$1n$4::1n$pair$::1nx$1::1nw1n$2::1nw:3$1n$4::1nw:3$:3$1nui:3$:3$1n$RedBlackTree$::1n$1::1nw1n$2::1nw:3$1n$4::1nw:3$:
0001:0000da40+ W?$dt:map$::1nus1n$TocRef$$1n$less$::1nus:std$$1n$allocator$::1n$pair$::1nxus1n$1$:3$:3$1n$RedBlackTree$::1nus1n$2::1nus:3$1n$4::1n$5::1nxus1n$1$:3$:3$1n$TreePairWrapper$::1nus1n$1$:_ow$:3$:8:3$:3n()_
0001:0000da50+ W?$ct:map$::1nus1n$TocRef$$1n$less$::1nus:std$$1n$allocator$::1n$pair$::1nxus1n$1$:3$:3$1n$RedBlackTree$::1nus1n$2::1nus:3$1n$4::1n$5::1nxus1n$1$:3$:3$1n$TreePairWrapper$::1nus1n$1$:_ow$:3$:8:3$:3n(rnx$2::1nus:3$rnx$4::1n$5::1nxus1n$1$:3$:3$)_
0001:0000dac0+ W?$dt:map$::1npn$GlobalDictionaryWord$$1n$TocRef$$1n$ptrLess$::1npn$1$$1n$allocator$::1n$pair$::1nxpn$1$1n$2$:std$$:6$1n$RedBlackTree$::1npn$1$1n$3::1npn$1$$1n$4::1n$5::1nxpn$1$1n$2$:6$:6$1n$TreePairWrapper$::1npn$1$1n$2$:_ow$:6$:9:6$:6n()_
0001:0000dad0+ T?ip7f$ct:map$::1npn$GlobalDictionaryWord$$1n$TocRef$$1n$ptrLess$::1npn$1$$1n$allocator$::1n$pair$::1nxpn$1$1n$2$:std$$:6$1n$RedBlackTree$::1npn$1$1n$3::1npn$1$$1n$4::1n$5::1nxpn$1$1n$2$:6$:6$1n$TreePairWrapper$::1npn$1$1n$2$:_ow$:6$:9:6$:6n(rnx$3::1npn$1
0001:0000db40+ T?n7fh$dt:map$::1n$basic_string$::1nw1n$char_traits$::1nw:std$$1n$allocator$::1nw:3$:3$1npn$Synonym$$1n$less$::1n$1::1nw1n$2::1nw:3$1n$4::1nw:3$:3$:3$1n$4::1n$pair$::1nx$1::1nw1n$2::1nw:3$1n$4::1nw:3$:3$1npn$5$:3$:3$1n$RedBlackTree$::1n$1::1nw1n$2::1nw:3$
0001:0000db50+ T?k0sy$ct:map$::1n$basic_string$::1nw1n$char_traits$::1nw:std$$1n$allocator$::1nw:3$:3$1npn$Synonym$$1n$less$::1n$1::1nw1n$2::1nw:3$1n$4::1nw:3$:3$:3$1n$4::1n$pair$::1nx$1::1nw1n$2::1nw:3$1n$4::1nw:3$:3$1npn$5$:3$:3$1n$RedBlackTree$::1n$1::1nw1n$2::1nw:3$
0001:0000dbc0+ T?n2mj$dt:map$::1n$basic_string$::1nw1n$char_traits$::1nw:std$$1n$allocator$::1nw:3$:3$1n$1::1nw1n$2::1nw:3$1n$4::1nw:3$:3$1n$less$::1n$1::1nw1n$2::1nw:3$1n$4::1nw:3$:3$:3$1n$4::1n$pair$::1nx$1::1nw1n$2::1nw:3$1n$4::1nw:3$:3$1n$1::1nw1n$2::1nw:3$1n$4::1nw
0001:0000dbd0+ T?8nas$ct:map$::1n$basic_string$::1nw1n$char_traits$::1nw:std$$1n$allocator$::1nw:3$:3$1n$1::1nw1n$2::1nw:3$1n$4::1nw:3$:3$1n$less$::1n$1::1nw1n$2::1nw:3$1n$4::1nw:3$:3$:3$1n$4::1n$pair$::1nx$1::1nw1n$2::1nw:3$1n$4::1nw:3$:3$1n$1::1nw1n$2::1nw:3$1n$4::1nw
0001:0000dc40+ T?holf$dt:map$::1n$basic_string$::1nw1n$char_traits$::1nw:std$$1n$allocator$::1nw:3$:3$1npn$I1$$1n$less$::1n$1::1nw1n$2::1nw:3$1n$4::1nw:3$:3$:3$1n$4::1n$pair$::1nx$1::1nw1n$2::1nw:3$1n$4::1nw:3$:3$1npn$5$:3$:3$1n$RedBlackTree$::1n$1::1nw1n$2::1nw:3$1n$4:
0001:0000dc50+ T?z5f5$ct:map$::1n$basic_string$::1nw1n$char_traits$::1nw:std$$1n$allocator$::1nw:3$:3$1npn$I1$$1n$less$::1n$1::1nw1n$2::1nw:3$1n$4::1nw:3$:3$:3$1n$4::1n$pair$::1nx$1::1nw1n$2::1nw:3$1n$4::1nw:3$:3$1npn$5$:3$:3$1n$RedBlackTree$::1n$1::1nw1n$2::1nw:3$1n$4:
0001:0000dcc0+ T?5va5$ct:set$::1n$XRef$$1n$less$::1n$1$:std$$1n$allocator$::1n$1$:3$1n$RedBlackTree$::1n$1$1n$2::1n$1$:3$1n$4::1n$1$:3$1n$TreeKeyWrapper$::1n$1$:_ow$:3$:7:3$:3n(rnx$0::1n$1$1n$2::1n$1$:3$1n$4::1n$1$:3$1n$5::1n$1$1n$2::1n$1$:3$1n$4::1n$1$:3$1n$6::1n$1$:7:
0001:0000dcd0  W?$aa:vector$::1nus1n$allocator$::1nus:std$$:2n(rnx$0::1nus1n$1::1nus:2$:2$)rn$0::1nus1n$1::1nus:2$:2$
0001:0000dde0  W?$dt:vector$::1n$FontEntry$$1n$allocator$::1n$1$:std$$:3n()_
0001:0000de50  W?$ct:vector$::1nuc1n$allocator$::1nuc:std$$:2n(uirnxucrnx$1::1nuc:2$)_
0001:0000df10  W?push_back$:vector$::1nuc1n$allocator$::1nuc:std$$:3n(rnxuc)v
0001:0000df50+ W?$ct:vector$::1npn$Page$$1n$allocator$::1npn$1$:std$$:3n(rnx$2::1npn$1$:3$)_
0001:0000dfc0+ W?$dt:vector$::1npn$Page$$1n$allocator$::1npn$1$:std$$:3n()_
0001:0000e030+ W?push_back$:vector$::1npn$Page$$1n$allocator$::1npn$2$:std$$:4n(rnxpn$2$)v
0001:0000e080+ W?$ct:vector$::1npn$Cell$$1n$allocator$::1npn$1$:std$$:3n(rnx$2::1npn$1$:3$)_
0001:0000e0f0+ W?$dt:vector$::1npn$Cell$$1n$allocator$::1npn$1$:std$$:3n()_
0001:0000e160+ W?push_back$:vector$::1npn$Cell$$1n$allocator$::1npn$2$:std$$:4n(rnxpn$2$)v
0001:0000e1b0+ W?$ct:vector$::1npn$I1$$1n$allocator$::1npn$1$:std$$:3n(rnx$2::1npn$1$:3$)_
0001:0000e220+ W?$dt:vector$::1npn$I1$$1n$allocator$::1npn$1$:std$$:3n()_
0001:0000e290+ W?$ct:vector$::1npn$ICmd$$1n$allocator$::1npn$1$:std$$:3n(rnx$2::1npn$1$:3$)_
0001:0000e300+ W?$dt:vector$::1npn$ICmd$$1n$allocator$::1npn$1$:std$$:3n()_
0001:0000e370  W?$ct:vector$::1nui1n$allocator$::1nui:std$$:2n(rnx$1::1nui:2$)_
0001:0000e3e0  W?$dt:vector$::1nui1n$allocator$::1nui:std$$:2n()_
0001:0000e450  W?$dt:vector$::1n$RGB$:Bitmap$$1n$allocator$::1n$1:2$:std$$:4n()_
0001:0000e4c0  W?$dt:vector$::1n$BitmapBlock$$1n$allocator$::1n$1$:std$$:3n()_
0001:0000e540  W?$ct:vector$::1npn$Element$$1n$allocator$::1npn$1$:std$$:3n(rnx$2::1npn$1$:3$)_
0001:0000e5b0  W?$ct:vector$::1npn$Element$$1n$allocator$::1npn$1$:std$$:3n(uirnxpn$1$rnx$2::1npn$1$:3$)_
0001:0000e670  W?$dt:vector$::1npn$Element$$1n$allocator$::1npn$1$:std$$:3n()_
0001:0000e6e0  W?push_back$:vector$::1npn$Element$$1n$allocator$::1npn$2$:std$$:4n(rnxpn$2$)v
0001:0000e730  W?$ct:vector$::1npn$CtrlTag$$1n$allocator$::1npn$1$:std$$:3n(rnx$2::1npn$1$:3$)_
0001:0000e7a0  W?$dt:vector$::1npn$CtrlTag$$1n$allocator$::1npn$1$:std$$:3n()_
0001:0000e810  W?push_back$:vector$::1npn$CtrlTag$$1n$allocator$::1npn$2$:std$$:4n(rnxpn$2$)v
0001:0000e860  W?$dt:vector$::1npn$IndexItem$$1n$allocator$::1npn$1$:std$$:3n()_
0001:0000e8d0  W?push_back$:vector$::1npn$IndexItem$$1n$allocator$::1npn$2$:std$$:4n(rnxpn$2$)v
0001:0000e920  W?$ct:vector$::1n$basic_string$::1na1n$char_traits$::1na:std$$1n$allocator$::1na:3$:3$1n$4::1n$1::1na1n$2::1na:3$1n$4::1na:3$:3$:3$:3n(rnx$4::1n$1::1na1n$2::1na:3$1n$4::1na:3$:3$:3$)_
0001:0000e990  W?$dt:vector$::1n$basic_string$::1na1n$char_traits$::1na:std$$1n$allocator$::1na:3$:3$1n$4::1n$1::1na1n$2::1na:3$1n$4::1na:3$:3$:3$:3n()_
0001:0000ea10  W?push_back$:vector$::1n$basic_string$::1na1n$char_traits$::1na:std$$1n$allocator$::1na:4$:4$1n$5::1n$2::1na1n$3::1na:4$1n$5::1na:4$:4$:4$:4n(rnx$2::1na1n$3::1na:4$1n$5::1na:4$:4$)v
0001:0000ea60  W?$dt:list$::1npn$Element$$1n$allocator$::1npn$1$:std$$:3n()_
0001:0000eac0  W?clear$:list$::1npn$Element$$1n$allocator$::1npn$2$:std$$:4n()v
0001:0000eaf0  W?$Wda012$:basic_string$::1nw1n$char_traits$::1nw:std$$1n$allocator$::1nw:3$:3n(ui)pnv
0001:0000eb10  W?$Wda013$:basic_string$::1nw1n$char_traits$::1nw:std$$1n$allocator$::1nw:3$:3n(ui)pnv
0001:0000eb30  W?uninitialized_fill_n$::1npnuc1nui1nuc:std$n(pnucuirnxuc)v
0001:0000ec00  W?uninitialized_fill_n$::1npnpn$Element$$1nui1npn$1$:std$n(pnpn$1$uirnxpn$1$)v
0001:0000ecd0+ W?quick_sort$::1npnpn$I1$$1n$ptrLess$::1npn$1$$:_ow$:std$n(pnpn$1$ii$2::1npn$1$$)v
0001:0000edd0+ W?quick_sort$::1npnpn$ICmd$$1n$ptrLess$::1npn$1$$:_ow$:std$n(pnpn$1$ii$2::1npn$1$$)v
0001:0000eed0  W?$ct::1npn$Element$$:allocator$::1n$Node$:list$::1npn$0$1n$1::1npn$0$:std$$:4$:4n(rnx$1::1npn$0$:4$)_
0001:0000eee0  W?$ct::1npn$Element$$:allocator$::1n$DoubleLink$:list$::1npn$0$1n$1::1npn$0$:std$$:4$:4n(rnx$1::1npn$0$:4$)_
0001:0000eef0  W?$ct:allocator$::1nus:std$n(rnx$0::1nus:1$)_
0001:0000ef00  T?rdiy$dt:allocator$::1n$Node$:RedBlackTree$::1n$basic_string$::1nw1n$char_traits$::1nw:std$$1n$0::1nw:5$:5$1n$less$::1n$3::1nw1n$4::1nw:5$1n$0::1nw:5$:5$:5$1n$0::1n$pair$::1nx$3::1nw1n$4::1nw:5$1n$0::1nw:5$:5$1nw:5$:5$1n$TreePairWrapper$::1n$3::1nw1n$4::
0001:0000ef10  W?allocate$:allocator$::1n$Node$:list$::1npn$Element$$1n$1::1npn$4$:std$$:5$:5n(uipnxv)pn$2:3::1npn$4$1n$1::1npn$4$:5$:5$
0001:0000ef20  W?deallocate$:allocator$::1n$Node$:list$::1npn$Element$$1n$1::1npn$4$:std$$:5$:5n(pn$2:3::1npn$4$1n$1::1npn$4$:5$:5$ui)v
0001:0000ef30  W?construct$:allocator$::1n$Node$:list$::1npn$Element$$1n$1::1npn$4$:std$$:5$:5n(pn$2:3::1npn$4$1n$1::1npn$4$:5$:5$rnx$2:3::1npn$4$1n$1::1npn$4$:5$:5$)v
0001:0000ef50  W?allocate$:allocator$::1n$DoubleLink$:list$::1npn$Element$$1n$1::1npn$4$:std$$:5$:5n(uipnxv)pn$2:3::1npn$4$1n$1::1npn$4$:5$:5$
0001:0000ef60+ W?$ct:basic_string$::1na1n$char_traits$::1na:std$$1n$allocator$::1na:2$:2n(pnxauirnx$3::1na:2$)_
0001:0000f080  W?$ct:basic_string$::1nw1n$char_traits$::1nw:std$$1n$allocator$::1nw:2$:2n(pnxwuirnx$3::1nw:2$)_
0001:0000f1a0  W?$ct:basic_string$::1nw1n$char_traits$::1nw:std$$1n$allocator$::1nw:2$:2n(uiwrnx$3::1nw:2$)_
0001:0000f2b0+ W?insert_helper$:basic_string$::1nw1n$char_traits$::1nw:std$$1n$allocator$::1nw:3$:3n(pnwuiw)pnw
0001:0000f4c0  W?find$:basic_string$::1nw1n$char_traits$::1nw:std$$1n$allocator$::1nw:3$:3n.x(pnxwuiui)ui
0001:0000f550+ T?jpb6insBalTransform$:RedBlackTree$::1n$basic_string$::1nw1n$char_traits$::1nw:std$$1n$allocator$::1nw:4$:4$1n$less$::1n$2::1nw1n$3::1nw:4$1n$5::1nw:4$:4$:4$1n$5::1n$pair$::1nx$2::1nw1n$3::1nw:4$1n$5::1nw:4$:4$1nui:4$:4$1n$TreePairWrapper$::1n$2::1nw1n$3
0001:0000f750+ T?924wunbalancedInsert$:RedBlackTree$::1n$basic_string$::1nw1n$char_traits$::1nw:std$$1n$allocator$::1nw:4$:4$1n$less$::1n$2::1nw1n$3::1nw:4$1n$5::1nw:4$:4$:4$1n$5::1n$pair$::1nx$2::1nw1n$3::1nw:4$1n$5::1nw:4$:4$1nui:4$:4$1n$TreePairWrapper$::1n$2::1nw1n$
0001:0000fb50+ W?insBalTransform$:RedBlackTree$::1nus1n$less$::1nus:std$$1n$allocator$::1n$pair$::1nxus1n$TocRef$$:3$:3$1n$TreePairWrapper$::1nus1n$6$:_ow$:3$:8:3n(pn$Node$:1::1nus1n$2::1nus:3$1n$4::1n$5::1nxus1n$6$:3$:3$1n$7::1nus1n$6$:8:3$:8:3$)v
0001:0000fd50+ T?vhowunbalancedInsert$:RedBlackTree$::1nus1n$less$::1nus:std$$1n$allocator$::1n$pair$::1nxus1n$TocRef$$:3$:3$1n$TreePairWrapper$::1nus1n$6$:_ow$:3$:8:3n(rnx$5::1nxus1n$6$:3$)$5::1n$iterator$:1::1nus1n$2::1nus:3$1n$4::1n$5::1nxus1n$6$:3$:3$1n$7::1nus1n$6$
0001:00010170+ T?3gf7insBalTransform$:RedBlackTree$::1npn$GlobalDictionaryWord$$1n$ptrLess$::1npn$2$$1n$allocator$::1n$pair$::1nxpn$2$1n$TocRef$$:std$$:7$1n$TreePairWrapper$::1npn$2$1n$6$:_ow$:7$:9:7n(pn$Node$:1::1npn$2$1n$3::1npn$2$$1n$4::1n$5::1nxpn$2$1n$6$:7$:7$1n$8:
0001:00010370+ T?pkaounbalancedInsert$:RedBlackTree$::1npn$GlobalDictionaryWord$$1n$ptrLess$::1npn$2$$1n$allocator$::1n$pair$::1nxpn$2$1n$TocRef$$:std$$:7$1n$TreePairWrapper$::1npn$2$1n$6$:_ow$:7$:9:7n(rnx$5::1nxpn$2$1n$6$:7$)$5::1n$iterator$:1::1npn$2$1n$3::1npn$2$$1n$
0001:00010790+ T?huuoinsBalTransform$:RedBlackTree$::1n$basic_string$::1nw1n$char_traits$::1nw:std$$1n$allocator$::1nw:4$:4$1n$less$::1n$2::1nw1n$3::1nw:4$1n$5::1nw:4$:4$:4$1n$5::1n$pair$::1nx$2::1nw1n$3::1nw:4$1n$5::1nw:4$:4$1npn$Synonym$$:4$:4$1n$TreePairWrapper$::1n$
0001:00010990+ T?o19uunbalancedInsert$:RedBlackTree$::1n$basic_string$::1nw1n$char_traits$::1nw:std$$1n$allocator$::1nw:4$:4$1n$less$::1n$2::1nw1n$3::1nw:4$1n$5::1nw:4$:4$:4$1n$5::1n$pair$::1nx$2::1nw1n$3::1nw:4$1n$5::1nw:4$:4$1npn$Synonym$$:4$:4$1n$TreePairWrapper$::1n
0001:00010d90+ T?92m8insBalTransform$:RedBlackTree$::1n$basic_string$::1nw1n$char_traits$::1nw:std$$1n$allocator$::1nw:4$:4$1n$less$::1n$2::1nw1n$3::1nw:4$1n$5::1nw:4$:4$:4$1n$5::1n$pair$::1nx$2::1nw1n$3::1nw:4$1n$5::1nw:4$:4$1n$2::1nw1n$3::1nw:4$1n$5::1nw:4$:4$:4$:4$1n
0001:00010f90+ T?2z8gunbalancedInsert$:RedBlackTree$::1n$basic_string$::1nw1n$char_traits$::1nw:std$$1n$allocator$::1nw:4$:4$1n$less$::1n$2::1nw1n$3::1nw:4$1n$5::1nw:4$:4$:4$1n$5::1n$pair$::1nx$2::1nw1n$3::1nw:4$1n$5::1nw:4$:4$1n$2::1nw1n$3::1nw:4$1n$5::1nw:4$:4$:4$:4$1
0001:000114b0+ T?idpainsBalTransform$:RedBlackTree$::1n$basic_string$::1nw1n$char_traits$::1nw:std$$1n$allocator$::1nw:4$:4$1n$less$::1n$2::1nw1n$3::1nw:4$1n$5::1nw:4$:4$:4$1n$5::1n$pair$::1nx$2::1nw1n$3::1nw:4$1n$5::1nw:4$:4$1npn$I1$$:4$:4$1n$TreePairWrapper$::1n$2::1n
0001:000116b0+ T?zkozunbalancedInsert$:RedBlackTree$::1n$basic_string$::1nw1n$char_traits$::1nw:std$$1n$allocator$::1nw:4$:4$1n$less$::1n$2::1nw1n$3::1nw:4$1n$5::1nw:4$:4$:4$1n$5::1n$pair$::1nx$2::1nw1n$3::1nw:4$1n$5::1nw:4$:4$1npn$I1$$:4$:4$1n$TreePairWrapper$::1n$2::1
0001:00011ab0  W?reserve$:vector$::1nuc1n$allocator$::1nuc:std$$:3n(ui)v
0001:00011bc0+ W?alloc$:vector$::1npn$Page$$1n$allocator$::1npn$2$:std$$:4n(uirnui)pnpn$2$
0001:00011be0+ W?reserve$:vector$::1npn$Page$$1n$allocator$::1npn$2$:std$$:4n(ui)v
0001:00011d80+ W?alloc$:vector$::1npn$Cell$$1n$allocator$::1npn$2$:std$$:4n(uirnui)pnpn$2$
0001:00011da0+ W?reserve$:vector$::1npn$Cell$$1n$allocator$::1npn$2$:std$$:4n(ui)v
0001:00011f40  W?alloc$:vector$::1npn$Element$$1n$allocator$::1npn$2$:std$$:4n(uirnui)pnpn$2$
0001:00011f60  W?reserve$:vector$::1npn$Element$$1n$allocator$::1npn$2$:std$$:4n(ui)v
0001:00012100  W?alloc$:vector$::1npn$CtrlTag$$1n$allocator$::1npn$2$:std$$:4n(uirnui)pnpn$2$
0001:00012120  W?reserve$:vector$::1npn$CtrlTag$$1n$allocator$::1npn$2$:std$$:4n(ui)v
0001:000122c0  W?reserve$:vector$::1npn$IndexItem$$1n$allocator$::1npn$2$:std$$:4n(ui)v
0001:00012460  W?alloc$:vector$::1n$basic_string$::1na1n$char_traits$::1na:std$$1n$allocator$::1na:4$:4$1n$5::1n$2::1na1n$3::1na:4$1n$5::1na:4$:4$:4$:4n(uirnui)pn$2::1na1n$3::1na:4$1n$5::1na:4$:4$
0001:00012480  W?reserve$:vector$::1n$basic_string$::1na1n$char_traits$::1na:std$$1n$allocator$::1na:4$:4$1n$5::1n$2::1na1n$3::1na:4$1n$5::1na:4$:4$:4$:4n(ui)v
0001:00012630  W?uninitialized_copy$::1npnuc1npnuc:std$n(pnucpnucpnuc)pnuc
0001:00012700+ W?uninitialized_copy$::1npnpn$Page$$1npnpn$1$:std$n(pnpn$1$pnpn$1$pnpn$1$)pnpn$1$
0001:000127e0+ W?uninitialized_copy$::1npnpn$Cell$$1npnpn$1$:std$n(pnpn$1$pnpn$1$pnpn$1$)pnpn$1$
0001:000128c0  W?uninitialized_copy$::1npnpn$Element$$1npnpn$1$:std$n(pnpn$1$pnpn$1$pnpn$1$)pnpn$1$
0001:000129a0  W?uninitialized_copy$::1npnpn$CtrlTag$$1npnpn$1$:std$n(pnpn$1$pnpn$1$pnpn$1$)pnpn$1$
0001:00012a80  W?uninitialized_copy$::1npnpn$IndexItem$$1npnpn$1$:std$n(pnpn$1$pnpn$1$pnpn$1$)pnpn$1$
0001:00012b60  T?1w8uuninitialized_copy$::1npn$basic_string$::1na1n$char_traits$::1na:std$$1n$allocator$::1na:3$:3$1npn$1::1na1n$2::1na:3$1n$4::1na:3$:3$:3n(pn$1::1na1n$2::1na:3$1n$4::1na:3$:3$pn$1::1na1n$2::1na:3$1n$4::1na:3$:3$pn$1::1na1n$2::1na:3$1n$4::1na:3$:3$)pn$1
0001:00012c40+ W?insertion_sort$::1npnpn$I1$$1n$ptrLess$::1npn$1$$:_ow$:std$n(pnpn$1$pnpn$1$$2::1npn$1$$)v
0001:00012cb0+ W?insertion_sort$::1npnpn$ICmd$$1n$ptrLess$::1npn$1$$:_ow$:std$n(pnpn$1$pnpn$1$$2::1npn$1$$)v
0001:00012d20+ W?med3$::1npnpn$I1$$1n$ptrLess$::1npn$1$$:_ow$:std$n(pnpn$1$ii$2::1npn$1$$)pnpn$1$
0001:00012de0+ W?med3$::1npnpn$ICmd$$1n$ptrLess$::1npn$1$$:_ow$:std$n(pnpn$1$ii$2::1npn$1$$)pnpn$1$
0001:00012ea0+ T?u4kt$ct::1n$pair$::1nx$basic_string$::1nw1n$char_traits$::1nw:std$$1n$allocator$::1nw:3$:3$1nui:3$:4::1n$Node$:RedBlackTree$::1n$1::1nw1n$2::1nw:3$1n$4::1nw:3$:3$1n$less$::1n$1::1nw1n$2::1nw:3$1n$4::1nw:3$:3$:3$1n$4::1n$0::1nx$1::1nw1n$2::1nw:3$1n$4::1n
0001:00012eb0+ W?$ct::1n$pair$::1nxus1n$TocRef$$:std$$:allocator$::1n$Node$:RedBlackTree$::1nus1n$less$::1nus:2$1n$3::1n$0::1nxus1n$1$:2$:2$1n$TreePairWrapper$::1nus1n$1$:_ow$:2$:8:2$:2n(rnx$3::1n$0::1nxus1n$1$:2$:2$)_
0001:00012ec0+ W?$ct::1n$pair$::1nxpn$GlobalDictionaryWord$$1n$TocRef$$:std$$:allocator$::1n$Node$:RedBlackTree$::1npn$1$1n$ptrLess$::1npn$1$$1n$4::1n$0::1nxpn$1$1n$2$:3$:3$1n$TreePairWrapper$::1npn$1$1n$2$:_ow$:3$:9:3$:3n(rnx$4::1n$0::1nxpn$1$1n$2$:3$:3$)_
0001:00012ed0+ T?8cvy$ct::1n$pair$::1nx$basic_string$::1nw1n$char_traits$::1nw:std$$1n$allocator$::1nw:3$:3$1npn$Synonym$$:3$:4::1n$Node$:RedBlackTree$::1n$1::1nw1n$2::1nw:3$1n$4::1nw:3$:3$1n$less$::1n$1::1nw1n$2::1nw:3$1n$4::1nw:3$:3$:3$1n$4::1n$0::1nx$1::1nw1n$2::1nw:
0001:00012ee0+ T?10gh$ct::1n$pair$::1nx$basic_string$::1nw1n$char_traits$::1nw:std$$1n$allocator$::1nw:3$:3$1n$1::1nw1n$2::1nw:3$1n$4::1nw:3$:3$:3$:4::1n$Node$:RedBlackTree$::1n$1::1nw1n$2::1nw:3$1n$4::1nw:3$:3$1n$less$::1n$1::1nw1n$2::1nw:3$1n$4::1nw:3$:3$:3$1n$4::1n$0
0001:00012ef0+ T?0k41$ct::1n$pair$::1nx$basic_string$::1nw1n$char_traits$::1nw:std$$1n$allocator$::1nw:3$:3$1npn$I1$$:3$:4::1n$Node$:RedBlackTree$::1n$1::1nw1n$2::1nw:3$1n$4::1nw:3$:3$1n$less$::1n$1::1nw1n$2::1nw:3$1n$4::1nw:3$:3$:3$1n$4::1n$0::1nx$1::1nw1n$2::1nw:3$1n$
0002:0000bd30  W?$Wvf0Bok:Element$$nx[]pn()v
0002:0000bd50  W?$Wvf09ok:BrCmd$$nx[]pn()v
0002:0000bd70  W?$Wvf07ok:Tag$$nx[]pn()v
0002:0000bda0+ W?$Wvf09ok:CeCmd$$nx[]pn()v
0002:0000bdd0+ W?$Wvf06ok:Fn$$nx[]pn()v
0002:0000be00  W?$Wvf06ok:Hn$$nx[]pn()v
0002:0000be30  W?$Wcm0223$nx[]uc
0002:0000be40  W?$Wcm0231$nx[]uc
0002:0000be50  W?$Wcm0227$nx[]uc
0002:0000be60  W?$Wcm0240$nx[]uc
0002:0000be70+ W?$Wcm0244$nx[]uc
0002:0000be80+ W?$Wcm0248$nx[]uc
0002:0000be90  W?$Wcm0252$nx[]uc
0002:0000bea0+ W?$Wcm0256$nx[]uc
0002:0000beb0+ W?$Wcm0260$nx[]uc
0002:0000bec0  W?$Wcm0264$nx[]uc
0002:0000bed0  W?$Wcm0268$nx[]uc
0002:0000bee0+ W?$Wcm0272$nx[]uc
0002:0000bef0  W?$Wcm0276$nx[]uc
0002:0000bf00  W?$Wcm0280$nx[]uc
0002:0000bf10+ W?$Wcm0284$nx[]uc
0002:0000bf20  W?$Wcm0288$nx[]uc
0002:0000bf30  W?$Wcm0292$nx[]uc
0002:0000bf40+ W?$Wcm0296$nx[]uc
0002:0000bf50+ W?$Wcm0224$nx[]uc
0002:0000bf60  W?$Wcm0210$nx[]uc
0002:0000bf70  W?$Wcm019$nx[]uc
0002:0000bf80  W?$Wcm016$nx[]uc
0002:0000bf90+ W?$Wcm0229$nx[]uc
0002:0000bfa0  W?$Wcm0237$nx[]uc
0002:0000bfb0  W?$Wcm0241$nx[]uc
0002:0000bfc0  W?$Wcm0228$nx[]uc
0002:0000bfd0+ W?$Wcm0251$nx[]uc
0002:0000bfe0  W?$Wcm0255$nx[]uc
0002:0000bff0+ W?$Wcm0259$nx[]uc
0002:0000c000+ W?$Wcm0279$nx[]uc
0002:0000c010+ W?$Wcm0283$nx[]uc
0002:0000c020+ W?$Wcm0287$nx[]uc
0002:0000c030+ W?$Wcm0212$nx[]uc
0002:0000c040  W?$Wcm0217$nx[]uc
0002:0000c050  W?$Wcm0221$nx[]uc
0002:0000c060  W?$Wcm0230$nx[]uc
0002:0000c070  W?$Wcm0234$nx[]uc
0002:0000c080  W?$Wcm0213$nx[]uc
0002:0000c090+ W?$Wcm0226$nx[]uc
0002:0000c0a0+ W?$Wcm0269$nx[]uc
0002:0000c0b0  W?$Wth0Gnrn$FatalError$$$nx[]uc
0002:0000c0d0  W?$Wth0Hnrn$Class3Error$$$nx[]uc
0002:0000c0f0  W?$Wth0Hnrn$Class1Error$$$nx[]uc
0002:0000c110  W?$Wts09n$BrCmd$$$nx[]uc
0002:0000c130+ W?$Wts09n$CeCmd$$$nx[]uc
0002:0000c150+ W?$Wts06n$Fn$$$nx[]uc
0002:0000c170+ W?$Wts09n$Title$$$nx[]uc
0002:0000c190+ W?$Wts0Bn$DocProf$$$nx[]uc
0002:0000c1b0+ W?$Wts0Bn$CtrlDef$$$nx[]uc
0002:0000c1d0  W?$Wts0Fn$Class3Error$$$nx[]uc
0002:0000c1f0  W?$Wts0Fn$Class1Error$$$nx[]uc
0002:0000c210+ W?$Wts26n$vector$::1n$basic_string$::1na1n$char_traits$::1na:std$$1n$allocator$::1na:3$:3$1n$4::1n$1::1na1n$2::1na:3$1n$4::1na:3$:3$:3$:3$$nx[]uc
0002:0000c230+ W?$Wts0An$Bitmap$$$nx[]uc
0002:0000c250  W?$Wts0hn$vector$::1nuc1n$allocator$::1nuc:std$$:2$$nx[]uc
0002:0000c270+ W?$Wts26n$vector$::1n$basic_string$::1nw1n$char_traits$::1nw:std$$1n$allocator$::1nw:3$:3$1n$4::1n$1::1nw1n$2::1nw:3$1n$4::1nw:3$:3$:3$:3$$nx[]uc
0002:0000c290  W?$Wts18n$basic_string$::1nw1n$char_traits$::1nw:std$$1n$allocator$::1nw:2$:2$$nx[]uc
0002:0005c37e  W?$Wti0N$allocator$::1nus:std$$$n[]uc
0002:0005c39a  W?$Wti17$basic_string$::1nw1n$char_traits$::1nw:std$$1n$allocator$::1nw:2$:2$$n[]uc
0002:0005c3e4+ W?$Wti25$vector$::1n$basic_string$::1nw1n$char_traits$::1nw:std$$1n$allocator$::1nw:3$:3$1n$4::1n$1::1nw1n$2::1nw:3$1n$4::1nw:3$:3$:3$:3$$n[]uc
0002:0005c46a  W?$Wti0g$vector$::1nuc1n$allocator$::1nuc:std$$:2$$n[]uc
0002:0005c499+ W?$Wti09$Bitmap$$$n[]uc
0002:0005c4a7+ W?$Wti25$vector$::1n$basic_string$::1na1n$char_traits$::1na:std$$1n$allocator$::1na:3$:3$1n$4::1n$1::1na1n$2::1na:3$1n$4::1na:3$:3$:3$:3$$n[]uc
0002:0005c52d  W?$Wti0E$Class1Error$$$n[]uc
0002:0005c540  W?$Wti0E$Class3Error$$$n[]uc
0002:0005c553+ W?$Wti0A$CtrlDef$$$n[]uc
0002:0005c562+ W?$Wti0A$DocProf$$$n[]uc
0002:0005c571+ W?$Wti08$Title$$$n[]uc
0002:0005c57e+ W?$Wti05$Fn$$$n[]uc
0002:0005c588+ W?$Wti08$CeCmd$$$n[]uc
0002:0005c595  W?$Wti08$BrCmd$$$n[]uc
0001:00012f00  W?alloc$:vector$::1npn$IndexItem$$1n$allocator$::1npn$2$:std$$:4n(uirnui)pnpn$2$
0001:0000bb30  W?getGroupById$:Document$n(rnx$basic_string$::1nw1n$char_traits$::1nw:std$$1n$allocator$::1nw:4$:4$)us
0002:0000c2b0  W?$Wts0On$allocator$::1nus:std$$$nx[]uc
Module: env.obj(/mnt/sda5/.user/root/src/openwatcom-1.9/bld/wipfc/cpp/env.cpp)
0001:00012f20  W?add$:Env$n(rnx$basic_string$::1na1n$char_traits$::1na:std$$1n$allocator$::1na:4$:4$)v
0001:000130c0+ W?killQuotes$:Env$n(rn$basic_string$::1na1n$char_traits$::1na:std$$1n$allocator$::1na:4$:4$)v
Module: ipfbuff.obj(/mnt/sda5/.user/root/src/openwatcom-1.9/bld/wipfc/cpp/ipfbuff.cpp)
0001:000132d0  W?$dt:IpfData$n()_
0001:000132e0+ W?$dt:IpfBuffer$n()_
0001:00013380+ W?name$:IpfBuffer$n.x()pnx$basic_string$::1nw1n$char_traits$::1nw:std$$1n$allocator$::1nw:4$:4$
0001:00013390+ W?reset$:IpfBuffer$n()v
0001:000133a0+ W?setPos$:IpfBuffer$n(l)v
0001:000133c0+ W?pos$:IpfBuffer$n()l
0001:00013110  W?$ct:IpfBuffer$n(pnx$basic_string$::1nw1n$char_traits$::1nw:std$$1n$allocator$::1nw:3$:3$uiuirnx$1::1nw1n$2::1nw:3$1n$4::1nw:3$:3$)_
0001:000131a0* W?$ct:IpfBuffer$n(pnx$basic_string$::1nw1n$char_traits$::1nw:std$$1n$allocator$::1nw:3$:3$rnx$1::1nw1n$2::1nw:3$1n$4::1nw:3$:3$)_
0002:0000ca60  W?$Wvf0Bo8:IpfData$$nx[]pn()v
0002:0000ca80+ W?$Wvf0Do8:IpfBuffer$$nx[]pn()v
0001:00013240+ W?get$:IpfBuffer$n()w
0001:00013290+ W?unget$:IpfBuffer$n(w)v
0002:0000caa0+ W?$Wts0Dn$IpfBuffer$$$nx[]uc
0002:0005c5a2+ W?$Wti0C$IpfBuffer$$$n[]uc
Module: ipffile.obj(/mnt/sda5/.user/root/src/openwatcom-1.9/bld/wipfc/cpp/ipffile.cpp)
0001:000136d0+ W?$dt:IpfFile$n()_
0001:00013770+ W?name$:IpfFile$n.x()pnx$basic_string$::1nw1n$char_traits$::1nw:std$$1n$allocator$::1nw:4$:4$
0001:00013780+ W?reset$:IpfFile$n()v
0001:00013790+ W?setPos$:IpfFile$n(l)v
0001:000137a0+ W?pos$:IpfFile$n()l
0002:0000cbe0+ W?$Wvf0Bo8:IpfFile$$nx[]pn()v
0002:0000cc00+ W?$Wts0Bn$IpfFile$$$nx[]uc
0001:000133d0  W?$ct:IpfFile$n(pnx$basic_string$::1nw1n$char_traits$::1nw:std$$1n$allocator$::1nw:3$:3$)_
0001:00013500+ W?get$:IpfFile$n()w
0001:000135f0+ W?unget$:IpfFile$n(w)v
0001:00013610+ W?readMBChar$:IpfFile$n()w
0002:0005c5b3+ W?$Wti0A$IpfFile$$$n[]uc
Module: lexer.obj(/mnt/sda5/.user/root/src/openwatcom-1.9/bld/wipfc/cpp/lexer.cpp)
0001:00016720+ T?12sp$dt:Node$:RedBlackTree$::1n$basic_string$::1nw1n$char_traits$::1nw:std$$1n$allocator$::1nw:4$:4$1n$less$::1n$2::1nw1n$3::1nw:4$1n$5::1nw:4$:4$:4$1n$5::1n$pair$::1nx$2::1nw1n$3::1nw:4$1n$5::1nw:4$:4$1n$TagId$:Lexer$$:4$:4$1n$TreePairWrapper$::1n$2::1
0001:00016730+ W?$dt:pair$::1nx$basic_string$::1nw1n$char_traits$::1nw:std$$1n$allocator$::1nw:3$:3$1n$TagId$:Lexer$$:3n()_
0001:00016740+ W?$dt:allocator$::1n$pair$::1nx$basic_string$::1nw1n$char_traits$::1nw:std$$1n$0::1nw:4$:4$1n$TagId$:Lexer$$:4$:4n()_
0001:00016750+ T?h93dfind$:RedBlackTree$::1n$basic_string$::1nw1n$char_traits$::1nw:std$$1n$allocator$::1nw:4$:4$1n$less$::1n$2::1nw1n$3::1nw:4$1n$5::1nw:4$:4$:4$1n$5::1n$pair$::1nx$2::1nw1n$3::1nw:4$1n$5::1nw:4$:4$1n$TagId$:Lexer$$:4$:4$1n$TreePairWrapper$::1n$2::1nw1n
0001:000167b0+ T?6rtiinsert$:RedBlackTree$::1n$basic_string$::1nw1n$char_traits$::1nw:std$$1n$allocator$::1nw:4$:4$1n$less$::1n$2::1nw1n$3::1nw:4$1n$5::1nw:4$:4$:4$1n$5::1n$pair$::1nx$2::1nw1n$3::1nw:4$1n$5::1nw:4$:4$1n$TagId$:Lexer$$:4$:4$1n$TreePairWrapper$::1n$2::1nw
0001:000167e0+ T?vpxk$dt:map$::1n$basic_string$::1nw1n$char_traits$::1nw:std$$1n$allocator$::1nw:3$:3$1n$TagId$:Lexer$$1n$less$::1n$1::1nw1n$2::1nw:3$1n$4::1nw:3$:3$:3$1n$4::1n$pair$::1nx$1::1nw1n$2::1nw:3$1n$4::1nw:3$:3$1n$5:6$:3$:3$1n$RedBlackTree$::1n$1::1nw1n$2::1nw
0001:000167f0+ T?h1dz$ct:map$::1n$basic_string$::1nw1n$char_traits$::1nw:std$$1n$allocator$::1nw:3$:3$1n$TagId$:Lexer$$1n$less$::1n$1::1nw1n$2::1nw:3$1n$4::1nw:3$:3$:3$1n$4::1n$pair$::1nx$1::1nw1n$2::1nw:3$1n$4::1nw:3$:3$1n$5:6$:3$:3$1n$RedBlackTree$::1n$1::1nw1n$2::1nw
0001:00016860  W?reserve$:basic_string$::1nw1n$char_traits$::1nw:std$$1n$allocator$::1nw:3$:3n(ui)v
0001:000168c0  W?erase$:basic_string$::1nw1n$char_traits$::1nw:std$$1n$allocator$::1nw:3$:3n(uiui)rn$1::1nw1n$2::1nw:3$1n$4::1nw:3$:3$
0001:000169c0+ T?c7sfinsBalTransform$:RedBlackTree$::1n$basic_string$::1nw1n$char_traits$::1nw:std$$1n$allocator$::1nw:4$:4$1n$less$::1n$2::1nw1n$3::1nw:4$1n$5::1nw:4$:4$:4$1n$5::1n$pair$::1nx$2::1nw1n$3::1nw:4$1n$5::1nw:4$:4$1n$TagId$:Lexer$$:4$:4$1n$TreePairWrapper$::
0001:00016bc0+ T?7h9qunbalancedInsert$:RedBlackTree$::1n$basic_string$::1nw1n$char_traits$::1nw:std$$1n$allocator$::1nw:4$:4$1n$less$::1n$2::1nw1n$3::1nw:4$1n$5::1nw:4$:4$:4$1n$5::1n$pair$::1nx$2::1nw1n$3::1nw:4$1n$5::1nw:4$:4$1n$TagId$:Lexer$$:4$:4$1n$TreePairWrapper$:
0001:00016fc0+ T?g2pc$ct::1n$pair$::1nx$basic_string$::1nw1n$char_traits$::1nw:std$$1n$allocator$::1nw:3$:3$1n$TagId$:Lexer$$:3$:4::1n$Node$:RedBlackTree$::1n$1::1nw1n$2::1nw:3$1n$4::1nw:3$:3$1n$less$::1n$1::1nw1n$2::1nw:3$1n$4::1nw:3$:3$:3$1n$4::1n$0::1nx$1::1nw1n$2::1
0001:000137b0  W?$ct:Lexer$n()_
0001:00016120  W?lex$:Lexer$n(pn$IpfData$$)$Token$:1$
0001:00016550+ W?getTagId$:Lexer$n()v
0001:00016590+ W?getCmdId$:Lexer$n()v
Module: bitmap.obj(/mnt/sda5/.user/root/src/openwatcom-1.9/bld/wipfc/cpp/bitmap.cpp)
0001:00016fd0  W?$ct:Bitmap$n(rn$basic_string$::1na1n$char_traits$::1na:std$$1n$allocator$::1na:3$:3$)_
0001:000171f0  W?write$:Bitmap$n.x(pn$__iobuf$$)ui
0001:000172e0+ W?read$:BitmapFileHeader$:Bitmap$n(pn$__iobuf$$)v
0001:00017320+ W?write$:BitmapFileHeader$:Bitmap$n.x(pn$__iobuf$$)v
0001:00017360+ W?read$:BitmapInfoHeader16$:Bitmap$n(pn$__iobuf$$)v
0001:000173a0+ W?write$:BitmapInfoHeader16$:Bitmap$n.x(pn$__iobuf$$)v
0001:000173e0+ W?read$:BitmapInfoHeaderWin32$n(pn$__iobuf$$)v
0001:00017420+ W?read$:BitmapInfoHeaderOS22x$n(pn$__iobuf$$)v
0001:00017460* W?read$:RGB$:Bitmap$n(pn$__iobuf$$)v
0001:000174a0* W?write$:RGB$:Bitmap$n.x(pn$__iobuf$$)v
0001:000174e0+ W?read$:RGBA$:Bitmap$n(pn$__iobuf$$)v
0001:00017520+ W?readHeader16$:Bitmap$n(pn$__iobuf$$)v
0001:00017980+ W?$dt:BitmapBlock$n()_
0001:00017990+ W?$ct:vector$::1n$RGB$:Bitmap$$1n$allocator$::1n$1:2$:std$$:4n(rnx$3::1n$1:2$:4$)_
0001:00017a00+ W?resize$:vector$::1n$RGB$:Bitmap$$1n$allocator$::1n$2:3$:std$$:5n(ui$2:3$)v
0001:00017a50+ W?reserve$:vector$::1n$RGB$:Bitmap$$1n$allocator$::1n$2:3$:std$$:5n(ui)v
0001:00017bf0+ W?push_back$:vector$::1n$RGB$:Bitmap$$1n$allocator$::1n$2:3$:std$$:5n(rnx$2:3$)v
0001:00017c40+ W?insert$:vector$::1n$RGB$:Bitmap$$1n$allocator$::1n$2:3$:std$$:5n(pn$2:3$uirnx$2:3$)v
0001:00017f50+ W?erase$:vector$::1n$RGB$:Bitmap$$1n$allocator$::1n$2:3$:std$$:5n(pn$2:3$pn$2:3$)pn$2:3$
0001:00017fc0+ W?$ct:vector$::1n$BitmapBlock$$1n$allocator$::1n$1$:std$$:3n(rnx$2::1n$1$:3$)_
0001:00018030+ W?push_back$:vector$::1n$BitmapBlock$$1n$allocator$::1n$2$:std$$:4n(rnx$2$)v
0001:000180b0+ W?uninitialized_fill_n$::1npn$RGB$:Bitmap$$1nui1n$1:2$:std$n(pn$1:2$uirnx$1:2$)v
0001:00018190+ W?uninitialized_copy$::1npn$RGB$:Bitmap$$1npn$1:2$:std$n(pn$1:2$pn$1:2$pn$1:2$)pn$1:2$
0001:00018270  W?$ct:vector$::1nuc1n$allocator$::1nuc:std$$:2n(rnx$0::1nuc1n$1::1nuc:2$:2$)_
0001:00018340+ W?alloc$:vector$::1n$RGB$:Bitmap$$1n$allocator$::1n$2:3$:std$$:5n(uirnui)pn$2:3$
0001:00018360+ W?alloc$:vector$::1n$BitmapBlock$$1n$allocator$::1n$2$:std$$:4n(uirnui)pn$2$
0001:00018380+ W?reserve$:vector$::1n$BitmapBlock$$1n$allocator$::1n$2$:std$$:4n(ui)v
0001:00018530+ W?uninitialized_copy$::1npn$BitmapBlock$$1npn$1$:std$n(pn$1$pn$1$pn$1$)pn$1$
0001:000175a0+ W?readHeaderW32$:Bitmap$n(pn$__iobuf$$)v
0001:00017690+ W?readHeaderOS2$:Bitmap$n(pn$__iobuf$$)v
0001:00017800+ W?findBlockSize$:Bitmap$n(uiuiui)v
0001:000178c0+ W?compress$:Bitmap$n(pn$__iobuf$$)v
Module: btmpblk.obj(/mnt/sda5/.user/root/src/openwatcom-1.9/bld/wipfc/cpp/btmpblk.cpp)
0001:00018660  W?$ct:BitmapBlock$n(usuc)_
0001:000186f0  W?write$:BitmapBlock$n.x(pn$__iobuf$$)v
0001:00018790  W?compress$:BitmapBlock$n(pn$__iobuf$$)ui
0001:00018b30+ W?findMatch$:BitmapBlock$n.x(rn$vector$::1nus1n$allocator$::1nus:std$$:4$rn$2::1nus1n$3::1nus:4$:4$rn$2::1nuc1n$3::1nuc:4$:4$sus)s
0001:00018c70+ W?fill$::1npnus1n$lzwCodes$:BitmapBlock$$:std$n(pnuspnusrnx$1:2$)v
0001:00018c90  W?resize$:vector$::1nuc1n$allocator$::1nuc:std$$:3n(uiuc)v
0001:00018cd0  W?insert$:vector$::1nuc1n$allocator$::1nuc:std$$:3n(pnucuirnxuc)v
0001:00018f60  W?erase$:vector$::1nuc1n$allocator$::1nuc:std$$:3n(pnucpnuc)pnuc
0001:00018fa0+ W?$ct:vector$::1nus1n$allocator$::1nus:std$$:2n(uirnxusrnx$1::1nus:2$)_
0001:00019060+ W?uninitialized_fill_n$::1npnus1nui1nus:std$n(pnusuirnxus)v
0002:0000e810  W?$Wts0hn$vector$::1nus1n$allocator$::1nus:std$$:2$$nx[]uc
0002:0005c5c2  W?$Wti0g$vector$::1nus1n$allocator$::1nus:std$$:2$$n[]uc
0001:00018bb0+ W?outputCode$:BitmapBlock$n(us)us
0001:00018c10+ W?flushCode$:BitmapBlock$n()us
Module: cecmd.obj(/mnt/sda5/.user/root/src/openwatcom-1.9/bld/wipfc/cpp/cecmd.cpp)
0001:00019aa0  W?$dt:Text$n()_
0001:00019ab0  W?$dt:Entity$n()_
0001:00019b50  W?$dt:Punctuation$n()_
0001:00019bf0  W?$dt:WhiteSpace$n()_
0001:00019c90  W?$dt:Word$n()_
0001:00019d30  W?assign$:basic_string$::1nw1n$char_traits$::1nw:std$$1n$allocator$::1nw:3$:3n(pnxw)rn$1::1nw1n$2::1nw:3$1n$4::1nw:3$:3$
0001:00019d60  W?swap$:basic_string$::1nw1n$char_traits$::1nw:std$$1n$allocator$::1nw:3$:3n(rn$1::1nw1n$2::1nw:3$1n$4::1nw:3$:3$)v
0001:00019d90  W?$ct:allocator$::1nw:std$n(rnx$0::1nw:1$)_
0002:0000fe40  W?$Wvf08ok:Text$$nx[]pn()v
0002:0000fe60  W?$Wvf0Aok:Entity$$nx[]pn()v
0002:0000fe80  W?$Wvf0Fok:Punctuation$$nx[]pn()v
0002:0000fea0  W?$Wvf0Eok:WhiteSpace$$nx[]pn()v
0002:0000fec0  W?$Wvf08ok:Word$$nx[]pn()v
0002:0000fee0  W?$Wts0An$Entity$$$nx[]uc
0002:0000ff00  W?$Wts0Fn$Punctuation$$$nx[]uc
0002:0000ff20  W?$Wts0En$WhiteSpace$$$nx[]uc
0002:0000ff40  W?$Wts08n$Word$$$nx[]uc
0002:0005c5f1  W?$Wti0M$allocator$::1nw:std$$$n[]uc
0002:0005c60c  W?$Wti07$Word$$$n[]uc
0002:0005c618  W?$Wti0D$WhiteSpace$$$n[]uc
0002:0005c62a  W?$Wti0E$Punctuation$$$n[]uc
0002:0005c63d  W?$Wti09$Entity$$$n[]uc
0001:00019130  W?parse$:CeCmd$n(pn$Lexer$$)$Token$:2$
0001:00019a30  W?buildText$:CeCmd$n(pn$Cell$$)v
0001:00019a70+ W?prepBufferName$:CeCmd$n(pn$basic_string$::1nw1n$char_traits$::1nw:std$$1n$allocator$::1nw:4$:4$rnx$2::1nw1n$3::1nw:4$1n$5::1nw:4$:4$)v
0002:0000ff60  W?$Wts0Nn$allocator$::1nw:std$$$nx[]uc
Module: cell.obj(/mnt/sda5/.user/root/src/openwatcom-1.9/bld/wipfc/cpp/cell.cpp)
0001:0001a080+ W?find$::1npnus1nus:std$n(pnuspnusrnxus)pnus
0001:0001a0a0+ W?find_if$::1npnus1n$binder2nd$::1n$greater$::1nus:std$$:3$:3n(pnuspnus$1::1n$2::1nus:3$:3$)pnus
0001:0001a0d0+ W?insert$:vector$::1nus1n$allocator$::1nus:std$$:3n(pnusrnxus)pnus
0001:0001a360+ W?$ct:binary_function$::1nus1nus1nq:std$n(rnx$0::1nus1nus1nq:1$)_
0001:0001a370+ W?$ct:random_access_iterator_tag$:std$n()_
0001:0001a380+ W?advance$::1npnus1ni:std$n(rnpnusi$random_access_iterator_tag$:1$)v
0001:00019da0  W?build$:Cell$n()v
0001:00019e00  W?addWord$:Cell$n(us)v
0001:00019f20  W?addText$:Cell$n(us)v
0001:00019f60  W?addEsc$:Cell$n(rnx$vector$::1nuc1n$allocator$::1nuc:std$$:4$)v
0001:00019fa0  W?write$:Cell$n.x(pn$__iobuf$$)ui
Module: ctrlbtn.obj(/mnt/sda5/.user/root/src/openwatcom-1.9/bld/wipfc/cpp/ctrlbtn.cpp)
0001:0001a390  W?write$:ControlButton$n.x(pn$__iobuf$$)ui
Module: ctrlgrp.obj(/mnt/sda5/.user/root/src/openwatcom-1.9/bld/wipfc/cpp/ctrlgrp.cpp)
0001:0001a500  W?write$:ControlGroup$n.x(pn$__iobuf$$)ui
Module: controls.obj(/mnt/sda5/.user/root/src/openwatcom-1.9/bld/wipfc/cpp/controls.cpp)
0001:0001a590  W?write$:Controls$n(pn$__iobuf$$)ui
0001:0001a6c0  W?getButtonById$:Controls$n(rnx$basic_string$::1nw1n$char_traits$::1nw:std$$1n$allocator$::1nw:4$:4$)pn$ControlButton$$
0001:0001a700  W?getGroupById$:Controls$n(rnx$basic_string$::1nw1n$char_traits$::1nw:std$$1n$allocator$::1nw:4$:4$)pn$ControlGroup$$
Module: errors.obj(/mnt/sda5/.user/root/src/openwatcom-1.9/bld/wipfc/cpp/errors.cpp)
0002:0005c64c  W?ErrText$n[]pnxa
Module: extfiles.obj(/mnt/sda5/.user/root/src/openwatcom-1.9/bld/wipfc/cpp/extfiles.cpp)
0001:0001a990+ T?8gerfind$:RedBlackTree$::1n$basic_string$::1nw1n$char_traits$::1nw:std$$1n$allocator$::1nw:4$:4$1n$less$::1n$2::1nw1n$3::1nw:4$1n$5::1nw:4$:4$:4$1n$5::1n$pair$::1nx$2::1nw1n$3::1nw:4$1n$5::1nw:4$:4$1nus:4$:4$1n$TreePairWrapper$::1n$2::1nw1n$3::1nw:4$1n$
0001:0001a750  W?addFile$:ExternalFiles$n(rn$basic_string$::1nw1n$char_traits$::1nw:std$$1n$allocator$::1nw:4$:4$)v
0001:0001a810  W?convert$:ExternalFiles$n()v
0001:0001a840  W?write$:ExternalFiles$n(pn$__iobuf$$)ui
Module: fnt.obj(/mnt/sda5/.user/root/src/openwatcom-1.9/bld/wipfc/cpp/fnt.cpp)
0001:0001a9f0  W?write$:FontEntry$n.x(pn$__iobuf$$)ui
Module: fntcol.obj(/mnt/sda5/.user/root/src/openwatcom-1.9/bld/wipfc/cpp/fntcol.cpp)
0001:0001abd0  W?$ct:Class2Error$n(rnx$0$)_
0001:0001abe0  W?$dt:Class2Error$n()_
0001:0001abf0+ W?$ct:vector$::1n$FontEntry$$1n$allocator$::1n$1$:std$$:3n(rnx$2::1n$1$:3$)_
0001:0001ac60+ W?reserve$:vector$::1n$FontEntry$$1n$allocator$::1n$2$:std$$:4n(ui)v
0001:0001ae00+ W?push_back$:vector$::1n$FontEntry$$1n$allocator$::1n$2$:std$$:4n(rnx$2$)v
0001:0001ae70+ W?uninitialized_copy$::1npn$FontEntry$$1npn$1$:std$n(pn$1$pn$1$pn$1$)pn$1$
0002:00011ab0  W?$Wth0Hnrn$Class2Error$$$nx[]uc
0002:00011ad0  W?$Wts0Fn$Class2Error$$$nx[]uc
0002:0005c768  W?$Wti0E$Class2Error$$$n[]uc
0001:0001af80+ W?alloc$:vector$::1n$FontEntry$$1n$allocator$::1n$2$:std$$:4n(uirnui)pn$2$
0001:0001aa40  W?$ct:FontCollection$n(i)_
0001:0001aaf0  W?add$:FontCollection$n(rn$FontEntry$$)ui
0001:0001ab90  W?write$:FontCollection$n(pn$__iobuf$$)ui
Module: fts.obj(/mnt/sda5/.user/root/src/openwatcom-1.9/bld/wipfc/cpp/fts.cpp)
0001:0001bce0+ W?$aa:vector$::1nuc1n$allocator$::1nuc:std$$:2n(rnx$0::1nuc1n$1::1nuc:2$:2$)rn$0::1nuc1n$1::1nuc:2$:2$
0001:0001bde0+ W?clear$:vector$::1nuc1n$allocator$::1nuc:std$$:3n()v
0001:0001be00+ W?$ct:allocator$::1nuc:std$n(rnx$0::1nuc:1$)_
0002:0005c77b+ W?$Wti0N$allocator$::1nuc:std$$$n[]uc
0001:0001afa0  W?setPages$:FTSElement$n(ui)v
0001:0001afc0  W?onPage$:FTSElement$n(ui)v
0001:0001b000  W?build$:FTSElement$n()v
0001:0001b1a0+ W?encode$:FTSElement$n(rn$vector$::1nuc1n$allocator$::1nuc:std$$:4$)v
0001:0001b4b0  W?write$:FTSElement$n.x(pn$__iobuf$$q)ui
0002:000120c0+ W?$Wts0On$allocator$::1nuc:std$$$nx[]uc
Module: gdword.obj(/mnt/sda5/.user/root/src/openwatcom-1.9/bld/wipfc/cpp/gdword.cpp)
0001:0001be10  W?toUpper$:GlobalDictionaryWord$n()v
0001:0001be50  W?writeWord$:GlobalDictionaryWord$n.x(pn$__iobuf$$)ui
0001:0001bf20  W?$rc:GlobalDictionaryWord$n.x(rnx$0$)q
0001:0001bf90+ W?wstricmp$:GlobalDictionaryWord$n.x(pnxwpnxw)i
Module: gdict.obj(/mnt/sda5/.user/root/src/openwatcom-1.9/bld/wipfc/cpp/gdict.cpp)
0001:0001c540+ W?$ct:GlobalDictionaryWord$n()_
0001:0001bff0  W?$dt:GlobalDictionary$n()_
0001:0001c0d0  W?insert$:GlobalDictionary$n(pn$GlobalDictionaryWord$$)pn$2$
0001:0001c180* W?insert$:GlobalDictionary$n(rn$basic_string$::1nw1n$char_traits$::1nw:std$$1n$allocator$::1nw:4$:4$)pn$GlobalDictionaryWord$$
0001:0001c230  W?convert$:GlobalDictionary$n(ui)v
0001:0001c270* W?findIndex$:GlobalDictionary$n(rn$basic_string$::1nw1n$char_traits$::1nw:std$$1n$allocator$::1nw:4$:4$)us
0001:0001c360* W?findWord$:GlobalDictionary$n(rn$basic_string$::1nw1n$char_traits$::1nw:std$$1n$allocator$::1nw:4$:4$)pn$GlobalDictionaryWord$$
0001:0001c5e0+ W?$dt:GlobalDictionaryWord$n()_
0001:0001c650  W?$dt:FTSElement$n()_
0001:0001c660+ W?insert$:RedBlackTree$::1npn$GlobalDictionaryWord$$1n$ptrLess$::1npn$2$$1n$allocator$::1npn$2$:std$$1n$TreeKeyWrapper$::1npn$2$:_ow$:5$:7:5n(rnxpn$2$)$pair$::1n$iterator$:1::1npn$2$1n$3::1npn$2$$1n$4::1npn$2$:5$1n$6::1npn$2$:7:5$:7:5$1nq:5$
0001:0001c690+ W?$dt:set$::1npn$GlobalDictionaryWord$$1n$ptrLess$::1npn$1$$1n$allocator$::1npn$1$:std$$1n$RedBlackTree$::1npn$1$1n$2::1npn$1$$1n$3::1npn$1$:4$1n$TreeKeyWrapper$::1npn$1$:_ow$:4$:7:4$:4n()_
0001:0001c6a0+ W?insBalTransform$:RedBlackTree$::1npn$GlobalDictionaryWord$$1n$ptrLess$::1npn$2$$1n$allocator$::1npn$2$:std$$1n$TreeKeyWrapper$::1npn$2$:_ow$:5$:7:5n(pn$Node$:1::1npn$2$1n$3::1npn$2$$1n$4::1npn$2$:5$1n$6::1npn$2$:7:5$:7:5$)v
0001:0001c8a0+ W?unbalancedInsert$:RedBlackTree$::1npn$GlobalDictionaryWord$$1n$ptrLess$::1npn$2$$1n$allocator$::1npn$2$:std$$1n$TreeKeyWrapper$::1npn$2$:_ow$:5$:7:5n(rnxpn$2$)$pair$::1n$iterator$:1::1npn$2$1n$3::1npn$2$$1n$4::1npn$2$:5$1n$6::1npn$2$:7:5$:7:5$1nq:5$
0001:0001c450  W?write$:GlobalDictionary$n(pn$__iobuf$$)ui
0001:0001c4a0  W?buildFTS$:GlobalDictionary$n()q
0001:0001c4e0  W?writeFTS$:GlobalDictionary$n(pn$__iobuf$$q)ui
0002:00012740+ W?$Wts0On$GlobalDictionaryWord$$$nx[]uc
0002:0005c797+ W?$Wti0N$GlobalDictionaryWord$$$n[]uc
Module: gnames.obj(/mnt/sda5/.user/root/src/openwatcom-1.9/bld/wipfc/cpp/gnames.cpp)
0001:0001cd00+ T?h1mpfind$:RedBlackTree$::1npn$GlobalDictionaryWord$$1n$ptrLess$::1npn$2$$1n$allocator$::1n$pair$::1nxpn$2$1nus:std$$:6$1n$TreePairWrapper$::1npn$2$1nus:_ow$:6$:8:6n(rnxpn$2$)$iterator$:1::1npn$2$1n$3::1npn$2$$1n$4::1n$5::1nxpn$2$1nus:6$:6$1n$7::1npn$2$1
0001:0001cd60+ T?imluinsert$:RedBlackTree$::1npn$GlobalDictionaryWord$$1n$ptrLess$::1npn$2$$1n$allocator$::1n$pair$::1nxpn$2$1nus:std$$:6$1n$TreePairWrapper$::1npn$2$1nus:_ow$:6$:8:6n(rnx$5::1nxpn$2$1nus:6$)$5::1n$iterator$:1::1npn$2$1n$3::1npn$2$$1n$4::1n$5::1nxpn$2$1n
0001:0001cd90+ T?d5spinsBalTransform$:RedBlackTree$::1npn$GlobalDictionaryWord$$1n$ptrLess$::1npn$2$$1n$allocator$::1n$pair$::1nxpn$2$1nus:std$$:6$1n$TreePairWrapper$::1npn$2$1nus:_ow$:6$:8:6n(pn$Node$:1::1npn$2$1n$3::1npn$2$$1n$4::1n$5::1nxpn$2$1nus:6$:6$1n$7::1npn$2$1
0001:0001cf90+ T?gctyunbalancedInsert$:RedBlackTree$::1npn$GlobalDictionaryWord$$1n$ptrLess$::1npn$2$$1n$allocator$::1n$pair$::1nxpn$2$1nus:std$$:6$1n$TreePairWrapper$::1npn$2$1nus:_ow$:6$:8:6n(rnx$5::1nxpn$2$1nus:6$)$5::1n$iterator$:1::1npn$2$1n$3::1npn$2$$1n$4::1n$5::
0001:0001cb90  W?insert$:GNames$n(pn$GlobalDictionaryWord$$us)v
0001:0001cbf0  W?write$:GNames$n.x(pn$__iobuf$$)ui
Module: header.obj(/mnt/sda5/.user/root/src/openwatcom-1.9/bld/wipfc/cpp/header.cpp)
0001:0001d300  W?$ct:IpfHeader$n()_
0001:0001d330  W?write$:IpfHeader$n.x(pn$__iobuf$$)v
0001:0001d380  W?write$:IpfExtHeader$n.x(pn$__iobuf$$)ui
Module: index.obj(/mnt/sda5/.user/root/src/openwatcom-1.9/bld/wipfc/cpp/index.cpp)
0001:0001d3d0  W?$ct:IndexItem$n($Type$:0$)_
0001:0001d490* W?$ra:IndexItem$n.x(rnx$0$)q
0001:0001d540* W?$ra:IndexItem$n.x(rnx$basic_string$::1nw1n$char_traits$::1nw:std$$1n$allocator$::1nw:3$:3$)q
0001:0001d590  W?$rc:IndexItem$n.x(rnx$0$)q
0001:0001d640+ W?wstricmp$:IndexItem$n.x(pnxwpnxw)i
0001:0001d6a0  W?write$:IndexItem$n(pn$__iobuf$$)ui
Module: nls.obj(/mnt/sda5/.user/root/src/openwatcom-1.9/bld/wipfc/cpp/nls.cpp)
0001:0001d8f0  W?$ct:Nls$n(pnxa)_
0001:0001db00+ W?setCodePage$:Nls$n(i)v
0001:0001dd20+ W?readEntityFile$:Nls$n(pn$__iobuf$$)v
0001:0001dee0+ W?setLocalization$:Nls$n(pnxa)v
0001:0001e080+ W?readNLS$:Nls$n(pn$__iobuf$$)v
0001:0001e8b0+ W?processGrammer$:Nls$n(pnw)v
0001:0001ea80  W?entity$:Nls$n(rnx$basic_string$::1nw1n$char_traits$::1nw:std$$1n$allocator$::1nw:4$:4$)w
0001:0001eac0  W?write$:Nls$n(pn$__iobuf$$)ui
0001:0001eb40+ W?write$:CountryDef$:Nls$n.x(pn$__iobuf$$)ui
0001:0001eb90+ W?setDefaultBits$:SbcsGrammerDef$:Nls$n($NlsRecType$:2$)v
0001:0001ed30+ T?v68m$dt:Node$:RedBlackTree$::1n$basic_string$::1nw1n$char_traits$::1nw:std$$1n$allocator$::1nw:4$:4$1n$less$::1n$2::1nw1n$3::1nw:4$1n$5::1nw:4$:4$:4$1n$5::1n$pair$::1nx$2::1nw1n$3::1nw:4$1n$5::1nw:4$:4$1nw:4$:4$1n$TreePairWrapper$::1n$2::1nw1n$3::1nw:4$
0001:0001ed40+ W?$dt:pair$::1nx$basic_string$::1nw1n$char_traits$::1nw:std$$1n$allocator$::1nw:3$:3$1nw:3n()_
0001:0001ed50+ W?$dt:DbcsGrammerDef$:Nls$n()_
0001:0001ed60+ W?$dt:allocator$::1n$pair$::1nx$basic_string$::1nw1n$char_traits$::1nw:std$$1n$0::1nw:4$:4$1nw:4$:4n()_
0001:0001ed70+ T?d3siinsert$:RedBlackTree$::1n$basic_string$::1nw1n$char_traits$::1nw:std$$1n$allocator$::1nw:4$:4$1n$less$::1n$2::1nw1n$3::1nw:4$1n$5::1nw:4$:4$:4$1n$5::1n$pair$::1nx$2::1nw1n$3::1nw:4$1n$5::1nw:4$:4$1nw:4$:4$1n$TreePairWrapper$::1n$2::1nw1n$3::1nw:4$1n
0001:0001eda0+ T?wq1l$ct:map$::1n$basic_string$::1nw1n$char_traits$::1nw:std$$1n$allocator$::1nw:3$:3$1nw1n$less$::1n$1::1nw1n$2::1nw:3$1n$4::1nw:3$:3$:3$1n$4::1n$pair$::1nx$1::1nw1n$2::1nw:3$1n$4::1nw:3$:3$1nw:3$:3$1n$RedBlackTree$::1n$1::1nw1n$2::1nw:3$1n$4::1nw:3$:3$
0001:0001ee10+ T?o0gyinsBalTransform$:RedBlackTree$::1n$basic_string$::1nw1n$char_traits$::1nw:std$$1n$allocator$::1nw:4$:4$1n$less$::1n$2::1nw1n$3::1nw:4$1n$5::1nw:4$:4$:4$1n$5::1n$pair$::1nx$2::1nw1n$3::1nw:4$1n$5::1nw:4$:4$1nw:4$:4$1n$TreePairWrapper$::1n$2::1nw1n$3:
0001:0001f010+ T?un8junbalancedInsert$:RedBlackTree$::1n$basic_string$::1nw1n$char_traits$::1nw:std$$1n$allocator$::1nw:4$:4$1n$less$::1n$2::1nw1n$3::1nw:4$1n$5::1nw:4$:4$:4$1n$5::1n$pair$::1nx$2::1nw1n$3::1nw:4$1n$5::1nw:4$:4$1nw:4$:4$1n$TreePairWrapper$::1n$2::1nw1n$3
0001:0001f420+ T?h97l$ct::1n$pair$::1nx$basic_string$::1nw1n$char_traits$::1nw:std$$1n$allocator$::1nw:3$:3$1nw:3$:4::1n$Node$:RedBlackTree$::1n$1::1nw1n$2::1nw:3$1n$4::1nw:3$:3$1n$less$::1n$1::1nw1n$2::1nw:3$1n$4::1nw:3$:3$:3$1n$4::1n$0::1nx$1::1nw1n$2::1nw:3$1n$4::1nw
0002:00013dc0+ W?$Wcm0235$nx[]uc
0002:00013dd0+ W?$Wcm0239$nx[]uc
0001:0001f430  W?.tdctor$:basic_string$::1nw1n$char_traits$::1nw:std$$1n$allocator$::1nw:3$:3n()rn$1::1nw1n$2::1nw:3$1n$4::1nw:3$:3$
0001:0001ebd0+ W?write$:SbcsGrammerDef$:Nls$n.x(pn$__iobuf$$)ui
0001:0001ec20+ W?write$:DbcsGrammerDef$:Nls$n(pn$__iobuf$$)ui
Module: page.obj(/mnt/sda5/.user/root/src/openwatcom-1.9/bld/wipfc/cpp/page.cpp)
0001:0001f460  W?buildTOC$:Page$n()v
0001:0001f480  W?buildLocalDictionary$:Page$n()v
0001:0001f6c0  W?addWord$:Page$n(pn$GlobalDictionaryWord$$)q
0001:0001f700  W?write$:Page$n(pn$__iobuf$$)ui
0001:0001f8f0  W?writeChildren$:Page$n.x(pn$__iobuf$$)ui
Module: strings.obj(/mnt/sda5/.user/root/src/openwatcom-1.9/bld/wipfc/cpp/strings.cpp)
0001:0001f9d0  W?write$:StringTable$n(pn$__iobuf$$)ui
Module: synonym.obj(/mnt/sda5/.user/root/src/openwatcom-1.9/bld/wipfc/cpp/synonym.cpp)
0001:0001fae0  W?write$:Synonym$n(pn$__iobuf$$)v
Module: toc.obj(/mnt/sda5/.user/root/src/openwatcom-1.9/bld/wipfc/cpp/toc.cpp)
0001:0001fbe0  W?write$:TocEntry$n.x(pn$__iobuf$$)ui
0001:0001fc30  W?write$:ExtTocEntry$n.x(pn$__iobuf$$)v
0001:0001fc70  W?write$:PageOrigin$n.x(pn$__iobuf$$)v
0001:0001fcb0  W?write$:PageSize$n.x(pn$__iobuf$$)v
0001:0001fcf0  W?write$:PageStyle$n.x(pn$__iobuf$$)v
0001:0001fd30  W?write$:PageGroup$n.x(pn$__iobuf$$)v
0001:0001fd70  W?write$:PageControls$n.x(pn$__iobuf$$)v
Module: tocref.obj(/mnt/sda5/.user/root/src/openwatcom-1.9/bld/wipfc/cpp/tocref.cpp)
0001:0001fdb0  W?write$:TocRef$n.x(pn$__iobuf$$)v
Module: util.obj(/mnt/sda5/.user/root/src/openwatcom-1.9/bld/wipfc/cpp/util.cpp)
0001:0001fe10* W?killQuotes$n(pna)v
0001:0001fe70* W?killQuotes$n(pnw)v
0001:0001fec0* W?killQuotes$n(rn$basic_string$::1na1n$char_traits$::1na:std$$1n$allocator$::1na:3$:3$)v
0001:0001ff10  W?killQuotes$n(rn$basic_string$::1nw1n$char_traits$::1nw:std$$1n$allocator$::1nw:3$:3$)v
0001:0001ff70  W?splitAttribute$n(rnx$basic_string$::1nw1n$char_traits$::1nw:std$$1n$allocator$::1nw:3$:3$rn$1::1nw1n$2::1nw:3$1n$4::1nw:3$:3$rn$1::1nw1n$2::1nw:3$1n$4::1nw:3$:3$)v
0001:00020070  W?killEOL$n(pna)v
0001:000200a0  W?killEOL$n(pnw)v
0001:000200e0  W?canonicalPath$n(pna)$basic_string$::1na1n$char_traits$::1na:std$$1n$allocator$::1na:3$:3$
0001:00020370  W?wtombstring$n(rnx$basic_string$::1nw1n$char_traits$::1nw:std$$1n$allocator$::1nw:3$:3$rn$1::1na1n$2::1na:3$1n$4::1na:3$:3$)v
0001:000204d0+ W?$dt:auto_ptr$::1na:std$n()_
0001:00020520+ W?find$:basic_string$::1na1n$char_traits$::1na:std$$1n$allocator$::1na:3$:3n.x(pnxauiui)ui
0002:000162f0+ W?$Wts0Mn$auto_ptr$::1na:std$$$nx[]uc
0002:0005c7b3+ W?$Wti0L$auto_ptr$::1na:std$$$n[]uc
0001:00020400  W?mbtowstring$n(rnx$basic_string$::1na1n$char_traits$::1na:std$$1n$allocator$::1na:3$:3$rn$1::1nw1n$2::1nw:3$1n$4::1nw:3$:3$)v
Module: xref.obj(/mnt/sda5/.user/root/src/openwatcom-1.9/bld/wipfc/cpp/xref.cpp)
0001:00020590  W?write$:XRef$n.x(pn$__iobuf$$)v
0001:000205c0  W?$rc:XRef$n.x(rnx$0$)q
Module: element.obj(/mnt/sda5/.user/root/src/openwatcom-1.9/bld/wipfc/cpp/element.cpp)
0001:000205f0  W?printError$:Element$n.x($ErrCode$$)v
0001:00020610  W?printError$:Element$n.x($ErrCode$$rnx$basic_string$::1nw1n$char_traits$::1nw:std$$1n$allocator$::1nw:5$:5$)v
0001:00020630  W?linearize$:Element$n(pn$Page$$)v
0001:00020650  W?rootElement$:Element$n()pn$1$
Module: text.obj(/mnt/sda5/.user/root/src/openwatcom-1.9/bld/wipfc/cpp/text.cpp)
0001:00020670  W?$ct:Text$n(pn$Document$$pn$Element$$pnx$basic_string$::1nw1n$char_traits$::1nw:std$$1n$allocator$::1nw:5$:5$uiuirnx$3::1nw1n$4::1nw:5$1n$6::1nw:5$:5$q)_
0001:00020770  W?buildLocalDict$:Text$n(pn$Page$$)$pair$::1nq1nq:std$$
0001:000207a0  W?buildText$:Text$n(pn$Cell$$)v
Module: entity.obj(/mnt/sda5/.user/root/src/openwatcom-1.9/bld/wipfc/cpp/entity.cpp)
0001:00020800  W?parse$:Entity$n(pn$Lexer$$)$Token$:2$
Module: punct.obj(/mnt/sda5/.user/root/src/openwatcom-1.9/bld/wipfc/cpp/punct.cpp)
0001:00020b30  W?parse$:Punctuation$n(pn$Lexer$$)$Token$:2$
Module: whtspc.obj(/mnt/sda5/.user/root/src/openwatcom-1.9/bld/wipfc/cpp/whtspc.cpp)
0001:00020c90  W?$ct:WhiteSpace$n(pn$Document$$pn$Element$$pnx$basic_string$::1nw1n$char_traits$::1nw:std$$1n$allocator$::1nw:5$:5$uiuirnx$3::1nw1n$4::1nw:5$1n$6::1nw:5$:5$$WsHandling$:Tag$$q)_
0001:00020df0  W?parse$:WhiteSpace$n(pn$Lexer$$)$Token$:2$
0001:00020f10  W?buildText$:WhiteSpace$n(pn$Cell$$)v
0001:00021080  W?buildLocalDict$:LiteralWhiteSpace$n(pn$Page$$)$pair$::1nq1nq:std$$
0001:00021090  W?buildText$:LiteralWhiteSpace$n(pn$Cell$$)v
Module: word.obj(/mnt/sda5/.user/root/src/openwatcom-1.9/bld/wipfc/cpp/word.cpp)
0001:000210f0  W?parse$:Word$n(pn$Lexer$$)$Token$:2$
Module: tag.obj(/mnt/sda5/.user/root/src/openwatcom-1.9/bld/wipfc/cpp/tag.cpp)
0001:0002a540+ W?$dt:AcViewport$n()_
0001:0002a600+ W?$dt:Artlink$n()_
0001:0002a6a0+ W?buildText$:Artlink$n(pn$Cell$$)v
0001:0002a6b0+ W?$dt:EArtlink$n()_
0001:0002a750+ W?buildText$:EArtlink$n(pn$Cell$$)v
0001:0002a760+ W?$dt:Artwork$n()_
0001:0002a800+ W?$dt:Caution$n()_
0001:0002a8a0+ W?linearize$:Caution$n(pn$Page$$)v
0001:0002a8b0+ W?buildText$:Caution$n(pn$Cell$$)v
0001:0002a8c0+ W?$dt:ECaution$n()_
0001:0002a960+ W?$dt:CGraphic$n()_
0001:0002aa00+ W?$dt:ECGraphic$n()_
0001:0002aaa0  W?$dt:Color$n()_
0001:0002ab30+ W?$dt:Ddf$n()_
0001:0002abc0  W?$dt:Dl$n()_
0001:0002ac60  W?linearize$:Dl$n(pn$Page$$)v
0001:0002ac70  W?buildText$:Dl$n(pn$Cell$$)v
0001:0002ac80+ W?$dt:Fig$n()_
0001:0002ad20+ W?$dt:EFig$n()_
0001:0002adc0  W?$dt:Font$n()_
0001:0002ae50+ W?$dt:Hdref$n()_
0001:0002aef0+ W?linearize$:Hdref$n(pn$Page$$)v
0001:0002af00+ W?buildText$:Hdref$n(pn$Cell$$)v
0001:0002af10+ W?$dt:Lines$n()_
0001:0002afb0+ W?$dt:ELines$n()_
0001:0002b050  W?$dt:ELink$n()_
0001:0002b0f0  W?$dt:Lm$n()_
0001:0002b180+ W?$dt:Note$n()_
0001:0002b220+ W?linearize$:Note$n(pn$Page$$)v
0001:0002b230+ W?buildText$:Note$n(pn$Cell$$)v
0001:0002b240+ W?$dt:Nt$n()_
0001:0002b2e0+ W?linearize$:Nt$n(pn$Page$$)v
0001:0002b2f0+ W?buildText$:Nt$n(pn$Cell$$)v
0001:0002b300+ W?$dt:ENt$n()_
0001:0002b3a0  W?$dt:Ol$n()_
0001:0002b440  W?linearize$:Ol$n(pn$Page$$)v
0001:0002b450  W?buildText$:Ol$n(pn$Cell$$)v
0001:0002b460  W?$dt:P$n()_
0001:0002b500  W?$dt:Parml$n()_
0001:0002b5a0  W?linearize$:Parml$n(pn$Page$$)v
0001:0002b5b0  W?buildText$:Parml$n(pn$Cell$$)v
0001:0002b5c0+ W?$dt:Rm$n()_
0001:0002b650  W?$dt:Sl$n()_
0001:0002b6f0  W?linearize$:Sl$n(pn$Page$$)v
0001:0002b700  W?buildText$:Sl$n(pn$Cell$$)v
0001:0002b710+ W?$dt:Table$n()_
0001:0002b7c0+ W?$dt:ETable$n()_
0001:0002b860  W?$dt:Ul$n()_
0001:0002b900  W?linearize$:Ul$n(pn$Page$$)v
0001:0002b910  W?buildText$:Ul$n(pn$Cell$$)v
0001:0002b920+ W?$dt:Warning$n()_
0001:0002b9c0+ W?linearize$:Warning$n(pn$Page$$)v
0001:0002b9d0+ W?buildText$:Warning$n(pn$Cell$$)v
0001:0002b9e0+ W?$dt:EWarning$n()_
0001:0002ba80+ W?$dt:Xmp$n()_
0001:0002bb20+ W?$dt:EXmp$n()_
0001:000213e0  W?$dt:Tag$n()_
0001:00021480  W?parse$:Tag$n(pn$Lexer$$)$Token$:2$
0001:00021490  W?parseAttributes$:Tag$n(pn$Lexer$$)$Token$:2$
0001:00021520  W?parseInline$:Tag$n(pn$Lexer$$rn$Token$:2$)q
0001:000257a0  W?parseBlock$:Tag$n(pn$Lexer$$rn$Token$:2$)q
0001:0002bbc0+ W?$Wmp0FbuildIndex$n()v$:Element$n()pn()v
0001:0002bbd0+ W?for_each$::1n$iterator$:list$::1npn$Element$$1n$allocator$::1npn$3$:std$$:5$1n$mem_fun_t$::1nv1n$3$:5$:5n($1:2::1npn$3$1n$4::1npn$3$:5$:5$$1:2::1npn$3$1n$4::1npn$3$:5$:5$$6::1nv1n$3$:5$)$6::1nv1n$3$:5$
0001:0002bc20  W?$dt:allocator$::1n$list$::1npn$Element$$1n$0::1npn$2$:std$$:3$:3n()_
0001:0002bc30  W?$dt:allocator$::1npn$TableCol$$:std$n()_
0001:0002bc40  W?$ct:vector$::1n$list$::1npn$Element$$1n$allocator$::1npn$2$:std$$:4$1n$3::1n$1::1npn$2$1n$3::1npn$2$:4$:4$:4$:4n(uirnx$1::1npn$2$1n$3::1npn$2$:4$:4$rnx$3::1n$1::1npn$2$1n$3::1npn$2$:4$:4$:4$)_
0001:0002bd00  W?$dt:vector$::1n$list$::1npn$Element$$1n$allocator$::1npn$2$:std$$:4$1n$3::1n$1::1npn$2$1n$3::1npn$2$:4$:4$:4$:4n()_
0001:0002bd80  W?$ct:vector$::1npn$TableCol$$1n$allocator$::1npn$1$:std$$:3n(rnx$2::1npn$1$:3$)_
0001:0002bdf0  W?$dt:vector$::1npn$TableCol$$1n$allocator$::1npn$1$:std$$:3n()_
0001:0002be60  W?uninitialized_fill_n$::1npn$list$::1npn$Element$$1n$allocator$::1npn$2$:std$$:4$1nui1n$1::1npn$2$1n$3::1npn$2$:4$:4$:4n(pn$1::1npn$2$1n$3::1npn$2$:4$:4$uirnx$1::1npn$2$1n$3::1npn$2$:4$:4$)v
0001:0002bf40  W?alloc$:vector$::1n$list$::1npn$Element$$1n$allocator$::1npn$3$:std$$:5$1n$4::1n$2::1npn$3$1n$4::1npn$3$:5$:5$:5$:5n(uirnui)pn$2::1npn$3$1n$4::1npn$3$:5$:5$
0001:0002bf60  W?alloc$:vector$::1npn$TableCol$$1n$allocator$::1npn$2$:std$$:4n(uirnui)pnpn$2$
0001:0002bf80  W?$ct:list$::1npn$Element$$1n$allocator$::1npn$1$:std$$:3n(rnx$0::1npn$1$1n$2::1npn$1$:3$:3$)_
0002:00020dc0+ W?$Wvf0Eok:AcViewport$$nx[]pn()v
0002:00020de0+ W?$Wvf0Bok:Artlink$$nx[]pn()v
0002:00020e10+ W?$Wvf0Cok:EArtlink$$nx[]pn()v
0002:00020e40+ W?$Wvf0Bok:Artwork$$nx[]pn()v
0002:00020e60+ W?$Wvf0Bok:Caution$$nx[]pn()v
0002:00020e90+ W?$Wvf0Cok:ECaution$$nx[]pn()v
0002:00020ec0+ W?$Wvf0Cok:CGraphic$$nx[]pn()v
0002:00020ef0+ W?$Wvf0Dok:ECGraphic$$nx[]pn()v
0002:00020f20  W?$Wvf09ok:Color$$nx[]pn()v
0002:00020f40+ W?$Wvf07ok:Ddf$$nx[]pn()v
0002:00020f60  W?$Wvf06ok:Dl$$nx[]pn()v
0002:00020f90+ W?$Wvf07ok:Fig$$nx[]pn()v
0002:00020fc0+ W?$Wvf08ok:EFig$$nx[]pn()v
0002:00020ff0  W?$Wvf08ok:Font$$nx[]pn()v
0002:00021010+ W?$Wvf09ok:Hdref$$nx[]pn()v
0002:00021040+ W?$Wvf09ok:Lines$$nx[]pn()v
0002:00021070+ W?$Wvf0Aok:ELines$$nx[]pn()v
0002:000210a0  W?$Wvf08ok:Link$$nx[]pn()v
0002:000210d0  W?$Wvf09ok:ELink$$nx[]pn()v
0002:00021100  W?$Wvf06ok:Lm$$nx[]pn()v
0002:00021120+ W?$Wvf08ok:Note$$nx[]pn()v
0002:00021150+ W?$Wvf06ok:Nt$$nx[]pn()v
0002:00021180+ W?$Wvf07ok:ENt$$nx[]pn()v
0002:000211b0  W?$Wvf06ok:Ol$$nx[]pn()v
0002:000211e0  W?$Wvf05ok:P$$nx[]pn()v
0002:00021210  W?$Wvf09ok:Parml$$nx[]pn()v
0002:00021240+ W?$Wvf06ok:Rm$$nx[]pn()v
0002:00021260  W?$Wvf06ok:Sl$$nx[]pn()v
0002:00021290+ W?$Wvf09ok:Table$$nx[]pn()v
0002:000212c0+ W?$Wvf0Aok:ETable$$nx[]pn()v
0002:000212f0  W?$Wvf06ok:Ul$$nx[]pn()v
0002:00021320+ W?$Wvf0Bok:Warning$$nx[]pn()v
0002:00021350+ W?$Wvf0Cok:EWarning$$nx[]pn()v
0002:00021380+ W?$Wvf07ok:Xmp$$nx[]pn()v
0002:000213b0+ W?$Wvf08ok:EXmp$$nx[]pn()v
0002:000213e0  W?$Wcm0274$nx[]uc
0002:000213f0+ W?$Wcm03207$nx[]uc
0002:00021400+ W?$Wcm03215$nx[]uc
0002:00021410+ W?$Wcm03219$nx[]uc
0002:00021420+ W?$Wcm03206$nx[]uc
0002:00021430+ W?$Wcm03232$nx[]uc
0002:00021440  W?$Wcm0222$nx[]uc
0002:00021450  W?$Wcm0246$nx[]uc
0002:00021460  W?$Wcm0258$nx[]uc
0002:00021470+ W?$Wcm03100$nx[]uc
0002:00021480  W?$Wcm03112$nx[]uc
0002:00021490+ W?$Wcm03124$nx[]uc
0002:000214a0+ W?$Wcm03136$nx[]uc
0002:000214b0+ W?$Wcm03148$nx[]uc
0002:000214c0+ W?$Wcm03160$nx[]uc
0002:000214d0  W?$Wcm03173$nx[]uc
0002:000214e0+ W?$Wcm03172$nx[]uc
0002:000214f0+ W?$Wcm03190$nx[]uc
0002:00021500+ W?$Wcm03202$nx[]uc
0002:00021510+ W?$Wcm03214$nx[]uc
0002:00021520+ W?$Wcm03226$nx[]uc
0002:00021530+ W?$Wcm03238$nx[]uc
0002:00021540+ W?$Wts0En$AcViewport$$$nx[]uc
0002:00021560+ W?$Wts0Bn$Artlink$$$nx[]uc
0002:00021580+ W?$Wts0Cn$EArtlink$$$nx[]uc
0002:000215a0+ W?$Wts0Bn$Artwork$$$nx[]uc
0002:000215c0+ W?$Wts0Bn$Caution$$$nx[]uc
0002:000215e0+ W?$Wts0Cn$ECaution$$$nx[]uc
0002:00021600+ W?$Wts0Cn$CGraphic$$$nx[]uc
0002:00021620+ W?$Wts0Dn$ECGraphic$$$nx[]uc
0002:00021640  W?$Wts09n$Color$$$nx[]uc
0002:00021660+ W?$Wts07n$Ddf$$$nx[]uc
0002:00021680  W?$Wts06n$Dl$$$nx[]uc
0002:000216a0+ W?$Wts07n$Fig$$$nx[]uc
0002:000216c0+ W?$Wts08n$EFig$$$nx[]uc
0002:000216e0  W?$Wts08n$Font$$$nx[]uc
0002:00021700+ W?$Wts09n$Hdref$$$nx[]uc
0002:00021720+ W?$Wts09n$Lines$$$nx[]uc
0002:00021740+ W?$Wts0An$ELines$$$nx[]uc
0002:00021760  W?$Wts09n$ELink$$$nx[]uc
0002:00021780  W?$Wts06n$Lm$$$nx[]uc
0002:000217a0+ W?$Wts08n$Note$$$nx[]uc
0002:000217c0+ W?$Wts06n$Nt$$$nx[]uc
0002:000217e0+ W?$Wts07n$ENt$$$nx[]uc
0002:00021800  W?$Wts06n$Ol$$$nx[]uc
0002:00021820  W?$Wts05n$P$$$nx[]uc
0002:00021840  W?$Wts09n$Parml$$$nx[]uc
0002:00021860+ W?$Wts06n$Rm$$$nx[]uc
0002:00021880  W?$Wts06n$Sl$$$nx[]uc
0002:000218a0+ W?$Wts09n$Table$$$nx[]uc
0002:000218c0+ W?$Wts0An$ETable$$$nx[]uc
0002:000218e0  W?$Wts06n$Ul$$$nx[]uc
0002:00021900+ W?$Wts0Bn$Warning$$$nx[]uc
0002:00021920+ W?$Wts0Cn$EWarning$$$nx[]uc
0002:00021940+ W?$Wts07n$Xmp$$$nx[]uc
0002:00021960+ W?$Wts08n$EXmp$$$nx[]uc
0002:0005c7cd+ W?$Wti07$EXmp$$$n[]uc
0002:0005c7d9+ W?$Wti06$Xmp$$$n[]uc
0002:0005c7e4+ W?$Wti0B$EWarning$$$n[]uc
0002:0005c7f4+ W?$Wti0A$Warning$$$n[]uc
0002:0005c803  W?$Wti05$Ul$$$n[]uc
0002:0005c80d+ W?$Wti09$ETable$$$n[]uc
0002:0005c81b+ W?$Wti08$Table$$$n[]uc
0002:0005c828  W?$Wti05$Sl$$$n[]uc
0002:0005c832+ W?$Wti05$Rm$$$n[]uc
0002:0005c83c  W?$Wti08$Parml$$$n[]uc
0002:0005c849  W?$Wti04$P$$$n[]uc
0002:0005c852  W?$Wti05$Ol$$$n[]uc
0002:0005c85c+ W?$Wti06$ENt$$$n[]uc
0002:0005c867+ W?$Wti05$Nt$$$n[]uc
0002:0005c871+ W?$Wti07$Note$$$n[]uc
0002:0005c87d  W?$Wti05$Lm$$$n[]uc
0002:0005c887  W?$Wti08$ELink$$$n[]uc
0002:0005c894+ W?$Wti09$ELines$$$n[]uc
0002:0005c8a2+ W?$Wti08$Lines$$$n[]uc
0002:0005c8af+ W?$Wti08$Hdref$$$n[]uc
0002:0005c8bc  W?$Wti07$Font$$$n[]uc
0002:0005c8c8+ W?$Wti07$EFig$$$n[]uc
0002:0005c8d4+ W?$Wti06$Fig$$$n[]uc
0002:0005c8df  W?$Wti05$Dl$$$n[]uc
0002:0005c8e9+ W?$Wti06$Ddf$$$n[]uc
0002:0005c8f4  W?$Wti08$Color$$$n[]uc
0002:0005c901+ W?$Wti0C$ECGraphic$$$n[]uc
0002:0005c912+ W?$Wti0B$CGraphic$$$n[]uc
0002:0005c922+ W?$Wti0B$ECaution$$$n[]uc
0002:0005c932+ W?$Wti0A$Caution$$$n[]uc
0002:0005c941+ W?$Wti0A$Artwork$$$n[]uc
0002:0005c950+ W?$Wti0B$EArtlink$$$n[]uc
0002:0005c960+ W?$Wti0A$Artlink$$$n[]uc
0002:0005c96f+ W?$Wti0D$AcViewport$$$n[]uc
0001:00029580  W?parseListBlock$:Tag$n(pn$Lexer$$rn$Token$:2$)q
0001:0002a3f0  W?parseCleanup$:Tag$n(pn$Lexer$$rn$Token$:2$)v
0001:0002a430  W?buildIndex$:Tag$n()v
0001:0002a4b0  W?linearize$:Tag$n(pn$Page$$)v
0001:0002a500  W?linearizeChildren$:Tag$n(pn$Page$$)v
Module: acvwport.obj(/mnt/sda5/.user/root/src/openwatcom-1.9/bld/wipfc/cpp/acvwport.cpp)
0001:0002cf20  W?$ra::1nw1n$char_traits$::1nw:std$$1n$allocator$::1nw:1$:1n(rnx$basic_string$::1nw1n$0::1nw:1$1n$2::1nw:1$:1$pnxw)q
0001:0002c1e0  W?parse$:AcViewport$n(pn$Lexer$$)$Token$:2$
0001:0002c300+ W?parseAttributes$:AcViewport$n(pn$Lexer$$)$Token$:2$
0001:0002cb20  W?buildText$:AcViewport$n(pn$Cell$$)v
Module: artlink.obj(/mnt/sda5/.user/root/src/openwatcom-1.9/bld/wipfc/cpp/artlink.cpp)
0001:0002cf70  W?parse$:Artlink$n(pn$Lexer$$)$Token$:2$
Module: artwork.obj(/mnt/sda5/.user/root/src/openwatcom-1.9/bld/wipfc/cpp/artwork.cpp)
0001:0002d3a0  W?parse$:Artwork$n(pn$Lexer$$)$Token$:2$
0001:0002d510+ W?parseAttributes$:Artwork$n(pn$Lexer$$)$Token$:2$
0001:0002d7a0  W?buildText$:Artwork$n(pn$Cell$$)v
Module: brcmd.obj(/mnt/sda5/.user/root/src/openwatcom-1.9/bld/wipfc/cpp/brcmd.cpp)
0001:0002d930  W?buildText$:BrCmd$n(pn$Cell$$)v
Module: caution.obj(/mnt/sda5/.user/root/src/openwatcom-1.9/bld/wipfc/cpp/caution.cpp)
0001:0002dfc0  W?$aa:basic_string$::1nw1n$char_traits$::1nw:std$$1n$allocator$::1nw:2$:2n(pnxw)rn$0::1nw1n$1::1nw:2$1n$3::1nw:2$:2$
0001:0002d970  W?parse$:Caution$n(pn$Lexer$$)$Token$:2$
0001:0002df50  W?buildText$:ECaution$n(pn$Cell$$)v
0001:0002df90+ W?prepBufferName$:Caution$n(pn$basic_string$::1nw1n$char_traits$::1nw:std$$1n$allocator$::1nw:4$:4$rnx$2::1nw1n$3::1nw:4$1n$5::1nw:4$:4$)v
Module: cgraphic.obj(/mnt/sda5/.user/root/src/openwatcom-1.9/bld/wipfc/cpp/cgraphic.cpp)
0001:0002e010  W?parse$:CGraphic$n(pn$Lexer$$)$Token$:2$
0001:0002e070  W?buildText$:CGraphic$n(pn$Cell$$)v
0001:0002e0d0  W?buildText$:ECGraphic$n(pn$Cell$$)v
Module: color.obj(/mnt/sda5/.user/root/src/openwatcom-1.9/bld/wipfc/cpp/color.cpp)
0001:0002e130  W?parse$:Color$n(pn$Lexer$$)$Token$:2$
0001:0002e2e0+ W?parseColor$:Color$n(rn$basic_string$::1nw1n$char_traits$::1nw:std$$1n$allocator$::1nw:4$:4$)$ColorName$:1$
0001:0002e460  W?buildText$:Color$n(pn$Cell$$)v
Module: ctrl.obj(/mnt/sda5/.user/root/src/openwatcom-1.9/bld/wipfc/cpp/ctrl.cpp)
0001:0002ea60+ W?$ct:ControlGroup$n()_
0001:0002eae0+ W?$dt:ControlGroup$n()_
0001:0002eb50  W?transform$::1npnw1npnw1npn(w)w:std$n(pnwpnwpnwpn(w)w)pnw
0001:0002eb70+ W?$ct:ControlGroup$n(rnx$0$)_
0002:0002af20+ W?$Wts0Gn$ControlGroup$$$nx[]uc
0002:0005c981+ W?$Wti0F$ControlGroup$$$n[]uc
0001:0002e530  W?parse$:Ctrl$n(pn$Lexer$$)$Token$:2$
0001:0002e720  W?build$:Ctrl$n(pn$Controls$$)v
Module: ctrldef.obj(/mnt/sda5/.user/root/src/openwatcom-1.9/bld/wipfc/cpp/ctrldef.cpp)
0001:0002f130+ W?$dt:CtrlTag$n()_
0001:0002f140+ W?$dt:PButton$n()_
0001:0002f200+ W?buildText$:PButton$n(pn$Cell$$)v
0001:0002f210+ W?$dt:Ctrl$n()_
0001:0002f2d0+ W?buildText$:Ctrl$n(pn$Cell$$)v
0002:0002c230+ W?$Wvf0Bok:CtrlTag$$nx[]pn()v
0002:0002c260+ W?$Wvf0Bok:PButton$$nx[]pn()v
0002:0002c290+ W?$Wvf08ok:Ctrl$$nx[]pn()v
0002:0002c2c0+ W?$Wts0Bn$PButton$$$nx[]uc
0002:0002c2e0+ W?$Wts08n$Ctrl$$$nx[]uc
0002:0005c995+ W?$Wti07$Ctrl$$$n[]uc
0002:0005c9a1+ W?$Wti0A$PButton$$$n[]uc
0001:0002ebf0  W?$dt:CtrlDef$n()_
0001:0002ec80  W?parse$:CtrlDef$n(pn$Lexer$$)$Token$:2$
0001:0002f100  W?build$:CtrlDef$n(pn$Controls$$)v
Module: ddf.obj(/mnt/sda5/.user/root/src/openwatcom-1.9/bld/wipfc/cpp/ddf.cpp)
0001:0002f600  W?$dt:XRef$n()_
0001:0002f610  W?$ct:XRef$n(rnx$0$)_
0002:0002d4d0  W?$Wts08n$XRef$$$nx[]uc
0002:0005c9b0  W?$Wti07$XRef$$$n[]uc
0001:0002f2e0  W?parse$:Ddf$n(pn$Lexer$$)$Token$:2$
0001:0002f310+ W?parseAttributes$:Ddf$n(pn$Lexer$$)$Token$:2$
0001:0002f4c0  W?buildText$:Ddf$n(pn$Cell$$)v
Module: dl.obj(/mnt/sda5/.user/root/src/openwatcom-1.9/bld/wipfc/cpp/dl.cpp)
0001:00032f20+ W?$dt:EDl$n()_
0001:00032fc0+ W?$dt:DtHd$n()_
0001:00033060+ W?linearize$:DtHd$n(pn$Page$$)v
0001:00033070+ W?buildText$:DtHd$n(pn$Cell$$)v
0001:00033080+ W?$dt:DdHd$n()_
0001:00033120+ W?linearize$:DdHd$n(pn$Page$$)v
0001:00033130+ W?buildText$:DdHd$n(pn$Cell$$)v
0001:00033140+ W?$dt:Dt$n()_
0001:000331e0+ W?linearize$:Dt$n(pn$Page$$)v
0001:000331f0+ W?buildText$:Dt$n(pn$Cell$$)v
0001:00033200+ W?$dt:Dd$n()_
0001:000332a0+ W?linearize$:Dd$n(pn$Page$$)v
0001:000332b0+ W?buildText$:Dd$n(pn$Cell$$)v
0001:0002f620  W?parse$:Dl$n(pn$Lexer$$)$Token$:2$
0001:00031670  W?parseAttributes$:Dl$n(pn$Lexer$$)$Token$:2$
0001:000318b0+ W?buildText$:EDl$n(pn$Cell$$)v
0001:00031930+ W?parse$:DtHd$n(pn$Lexer$$)$Token$:2$
0001:00031d80+ W?parse$:DdHd$n(pn$Lexer$$)$Token$:2$
0002:0002f6b0+ W?$Wvf07ok:EDl$$nx[]pn()v
0002:0002f6e0+ W?$Wvf08ok:DtHd$$nx[]pn()v
0002:0002f710+ W?$Wvf08ok:DdHd$$nx[]pn()v
0002:0002f740+ W?$Wvf06ok:Dt$$nx[]pn()v
0002:0002f770+ W?$Wvf06ok:Dd$$nx[]pn()v
0002:0002f7a0+ W?$Wcm0282$nx[]uc
0002:0002f7b0+ W?$Wcm0294$nx[]uc
0002:0002f7c0+ W?$Wcm03106$nx[]uc
0002:0002f7d0  W?$Wcm0238$nx[]uc
0002:0002f7e0+ W?$Wts07n$EDl$$$nx[]uc
0002:0002f800+ W?$Wts08n$DtHd$$$nx[]uc
0002:0002f820+ W?$Wts08n$DdHd$$$nx[]uc
0002:0002f840+ W?$Wts06n$Dt$$$nx[]uc
0002:0002f860+ W?$Wts06n$Dd$$$nx[]uc
0002:0005c9bc+ W?$Wti05$Dd$$$n[]uc
0002:0005c9c6+ W?$Wti05$Dt$$$n[]uc
0002:0005c9d0+ W?$Wti07$DdHd$$$n[]uc
0002:0005c9dc+ W?$Wti07$DtHd$$$n[]uc
0002:0005c9e8+ W?$Wti06$EDl$$$n[]uc
0001:00031fa0+ W?parse$:Dt$n(pn$Lexer$$)$Token$:2$
0001:00032b00+ W?parse$:Dd$n(pn$Lexer$$)$Token$:2$
Module: docprof.obj(/mnt/sda5/.user/root/src/openwatcom-1.9/bld/wipfc/cpp/docprof.cpp)
0001:000332c0  W?parse$:DocProf$n(pn$Lexer$$)$Token$:2$
0001:00033560  W?build$:DocProf$n(pn$Controls$$pn$StringTable$$)v
Module: fig.obj(/mnt/sda5/.user/root/src/openwatcom-1.9/bld/wipfc/cpp/fig.cpp)
0001:00033a30+ W?$dt:Figcap$n()_
0001:00033ad0+ W?buildText$:Figcap$n(pn$Cell$$)v
0002:00031bb0+ W?$Wvf0Aok:Figcap$$nx[]pn()v
0002:00031be0+ W?$Wts0An$Figcap$$$nx[]uc
0002:0005c9f3+ W?$Wti09$Figcap$$$n[]uc
0001:000335e0  W?parse$:Fig$n(pn$Lexer$$)$Token$:2$
0001:00033950  W?buildText$:Fig$n(pn$Cell$$)v
0001:000339c0  W?buildText$:EFig$n(pn$Cell$$)v
Module: figcap.obj(/mnt/sda5/.user/root/src/openwatcom-1.9/bld/wipfc/cpp/figcap.cpp)
0001:00033ae0  W?parse$:Figcap$n(pn$Lexer$$)$Token$:2$
Module: fn.obj(/mnt/sda5/.user/root/src/openwatcom-1.9/bld/wipfc/cpp/fn.cpp)
0001:00034720  W?$dt:TocRef$n()_
0002:000342e0  W?$Wts0An$TocRef$$$nx[]uc
0002:0005ca01  W?$Wti09$TocRef$$$n[]uc
0001:000343b0  W?parse$:Fn$n(pn$Lexer$$)$Token$:2$
0001:00034440  W?parseAttributes$:Fn$n(pn$Lexer$$)$Token$:2$
0001:00034660  W?buildTOC$:Fn$n(pn$Page$$)v
Module: font.obj(/mnt/sda5/.user/root/src/openwatcom-1.9/bld/wipfc/cpp/font.cpp)
0002:000355e0+ W?$Wth0Dnrn$ErrCode$$$nx[]uc
0002:000355f0+ W?$Wts0Bn$ErrCode$$$nx[]uc
0002:0005ca0f+ W?$Wti0A$ErrCode$$$n[]uc
0001:00034740  W?parse$:Font$n(pn$Lexer$$)$Token$:2$
0001:00034ae0  W?buildText$:Font$n(pn$Cell$$)v
Module: hdref.obj(/mnt/sda5/.user/root/src/openwatcom-1.9/bld/wipfc/cpp/hdref.cpp)
0001:00034b50  W?parse$:Hdref$n(pn$Lexer$$)$Token$:2$
0001:00034f60+ W?prepBufferName$:Hdref$n(pn$basic_string$::1nw1n$char_traits$::1nw:std$$1n$allocator$::1nw:4$:4$rnx$2::1nw1n$3::1nw:4$1n$5::1nw:4$:4$)v
Module: hide.obj(/mnt/sda5/.user/root/src/openwatcom-1.9/bld/wipfc/cpp/hide.cpp)
0001:000354c0+ W?$dt:Hide$n()_
0001:00035560+ W?$dt:EHide$n()_
0001:00034f90  W?$ct:Hide$n(pn$Document$$pn$Element$$pnx$basic_string$::1nw1n$char_traits$::1nw:std$$1n$allocator$::1nw:5$:5$uiui)_
0001:00035050+ W?parse$:Hide$n(pn$Lexer$$)$Token$:2$
0001:000351d0+ W?buildText$:Hide$n(pn$Cell$$)v
0002:00037f40+ W?$Wvf08ok:Hide$$nx[]pn()v
0002:00037f60+ W?$Wvf09ok:EHide$$nx[]pn()v
0002:00037f80+ W?$Wts08n$Hide$$$nx[]uc
0002:00037fa0+ W?$Wts09n$EHide$$$nx[]uc
0002:0005ca1e+ W?$Wti08$EHide$$$n[]uc
0002:0005ca2b+ W?$Wti07$Hide$$$n[]uc
0001:00035330  W?$ct:EHide$n(pn$Document$$pn$Element$$pnx$basic_string$::1nw1n$char_traits$::1nw:std$$1n$allocator$::1nw:5$:5$uiui)_
0001:000353d0+ W?parse$:EHide$n(pn$Lexer$$)$Token$:2$
0001:00035460+ W?buildText$:EHide$n(pn$Cell$$)v
0002:0005e12c  W?hide$:Hide$nq
Module: hn.obj(/mnt/sda5/.user/root/src/openwatcom-1.9/bld/wipfc/cpp/hn.cpp)
0001:00039830+ W?$dt:I2$n()_
0001:00039940+ W?buildText$:I2$n(pn$Cell$$)v
0001:00039950+ W?$dt:ISyn$n()_
0001:00039a20+ W?buildText$:ISyn$n(pn$Cell$$)v
0001:00039a30  W?$dt:auto_ptr$::1n$IndexItem$$:std$n()_
0001:00039ae0+ W?$dt:auto_ptr$::1n$Synonym$$:std$n()_
0002:0003b370+ W?$Wvf06ok:I2$$nx[]pn()v
0002:0003b390+ W?$Wvf08ok:ISyn$$nx[]pn()v
0002:0003b3b0+ W?$Wcm0214$nx[]uc
0002:0003b3c0  W?$Wcm0245$nx[]uc
0002:0003b3d0+ W?$Wcm0263$nx[]uc
0002:0003b3e0+ W?$Wcm0267$nx[]uc
0002:0003b3f0  W?$Wcm0254$nx[]uc
0002:0003b400+ W?$Wcm0281$nx[]uc
0002:0003b410+ W?$Wcm0289$nx[]uc
0002:0003b420+ W?$Wcm0293$nx[]uc
0002:0003b430+ W?$Wcm03103$nx[]uc
0002:0003b440+ W?$Wcm03107$nx[]uc
0002:0003b450+ W?$Wcm03111$nx[]uc
0002:0003b460+ W?$Wcm03121$nx[]uc
0002:0003b470+ W?$Wcm03129$nx[]uc
0002:0003b480+ W?$Wcm03133$nx[]uc
0002:0003b490+ W?$Wcm03120$nx[]uc
0002:0003b4a0+ W?$Wcm03147$nx[]uc
0002:0003b4b0+ W?$Wcm03155$nx[]uc
0002:0003b4c0+ W?$Wcm03159$nx[]uc
0002:0003b4d0  W?$Wcm03146$nx[]uc
0002:0003b4e0  W?$Wcm03169$nx[]uc
0002:0003b4f0+ W?$Wcm03177$nx[]uc
0002:0003b500+ W?$Wcm03187$nx[]uc
0002:0003b510+ W?$Wcm03195$nx[]uc
0002:0003b520+ W?$Wcm03199$nx[]uc
0002:0003b530+ W?$Wcm03186$nx[]uc
0002:0003b540+ W?$Wcm03213$nx[]uc
0002:0003b550+ W?$Wcm03221$nx[]uc
0002:0003b560+ W?$Wcm03225$nx[]uc
0002:0003b570+ W?$Wcm03212$nx[]uc
0002:0003b580+ W?$Wcm03235$nx[]uc
0002:0003b590+ W?$Wcm03239$nx[]uc
0002:0003b5a0+ W?$Wcm03243$nx[]uc
0002:0003b5b0+ W?$Wcm03253$nx[]uc
0002:0003b5c0+ W?$Wcm03261$nx[]uc
0002:0003b5d0+ W?$Wcm03265$nx[]uc
0002:0003b5e0+ W?$Wcm03252$nx[]uc
0002:0003b5f0+ W?$Wcm03279$nx[]uc
0002:0003b600+ W?$Wcm03287$nx[]uc
0002:0003b610+ W?$Wcm03291$nx[]uc
0002:0003b620+ W?$Wcm03278$nx[]uc
0002:0003b630+ W?$Wcm03301$nx[]uc
0002:0003b640+ W?$Wcm03305$nx[]uc
0002:0003b650+ W?$Wcm03309$nx[]uc
0002:0003b660+ W?$Wcm03319$nx[]uc
0002:0003b670+ W?$Wcm03327$nx[]uc
0002:0003b680+ W?$Wcm03331$nx[]uc
0002:0003b690+ W?$Wcm03318$nx[]uc
0002:0003b6a0+ W?$Wcm03351$nx[]uc
0002:0003b6b0+ W?$Wcm03371$nx[]uc
0002:0003b6c0+ W?$Wcm03370$nx[]uc
0002:0003b6d0+ W?$Wts06n$I2$$$nx[]uc
0002:0003b6f0+ W?$Wts08n$ISyn$$$nx[]uc
0002:0003b710+ W?$Wts06n$Hn$$$nx[]uc
0002:0005ca37+ W?$Wti05$Hn$$$n[]uc
0002:0005ca41+ W?$Wti07$ISyn$$$n[]uc
0002:0005ca4d+ W?$Wti05$I2$$$n[]uc
0001:000355f0  W?$dt:Hn$n()_
0001:00035790  W?parse$:Hn$n(pn$Lexer$$)$Token$:2$
0001:000384f0  W?parseAttributes$:Hn$n(pn$Lexer$$)$Token$:2$
0001:00039270  W?buildTOC$:Hn$n(pn$Page$$)v
0001:00039660  W?buildText$:Hn$n(pn$Cell$$)v
0001:000397d0  W?linearize$:Hn$n(pn$Page$$)v
Module: hpn.obj(/mnt/sda5/.user/root/src/openwatcom-1.9/bld/wipfc/cpp/hpn.cpp)
0001:0003a100+ W?$dt:Hpn$n()_
0001:0003a190+ W?$dt:EHpn$n()_
0001:00039bc0  W?$ct:Hpn$n(pn$Document$$pn$Element$$pnx$basic_string$::1nw1n$char_traits$::1nw:std$$1n$allocator$::1nw:5$:5$uiuiui)_
0001:00039c70+ W?parse$:Hpn$n(pn$Lexer$$)$Token$:2$
0001:00039d00+ W?buildText$:Hpn$n(pn$Cell$$)v
0002:0003c940+ W?$Wvf07ok:Hpn$$nx[]pn()v
0002:0003c960+ W?$Wvf08ok:EHpn$$nx[]pn()v
0002:0003c980+ W?$Wts07n$Hpn$$$nx[]uc
0002:0003c9a0+ W?$Wts08n$EHpn$$$nx[]uc
0002:0005ca67+ W?$Wti07$EHpn$$$n[]uc
0002:0005ca73+ W?$Wti06$Hpn$$$n[]uc
0001:00039e50  W?$ct:EHpn$n(pn$Document$$pn$Element$$pnx$basic_string$::1nw1n$char_traits$::1nw:std$$1n$allocator$::1nw:5$:5$uiuiui)_
0001:00039f30+ W?parse$:EHpn$n(pn$Lexer$$)$Token$:2$
0001:00039fc0+ W?buildText$:EHpn$n(pn$Cell$$)v
0002:0005e130+ W?levelStack$:Hpn$n$vector$::1nuc1n$allocator$::1nuc:std$$:4$
Module: i1.obj(/mnt/sda5/.user/root/src/openwatcom-1.9/bld/wipfc/cpp/i1.cpp)
0001:0003abf0+ W?$dt:I1$n()_
0001:0003ad20+ W?buildText$:I1$n(pn$Cell$$)v
0001:0003a220  W?$ct:I1$n(pn$Document$$pn$Element$$pnx$basic_string$::1nw1n$char_traits$::1nw:std$$1n$allocator$::1nw:5$:5$uiui)_
0001:0003a340+ W?parse$:I1$n(pn$Lexer$$)$Token$:2$
0001:0003a580+ W?parseAttributes$:I1$n(pn$Lexer$$)$Token$:2$
0001:0003ad30+ W?$ct:vector$::1npn$IndexItem$$1n$allocator$::1npn$1$:std$$:3n(rnx$2::1npn$1$:3$)_
0001:0003ada0+ W?quick_sort$::1npnpn$IndexItem$$1n$ptrLess$::1npn$1$$:_ow$:std$n(pnpn$1$ii$2::1npn$1$$)v
0001:0003ae90+ W?insertion_sort$::1npnpn$IndexItem$$1n$ptrLess$::1npn$1$$:_ow$:std$n(pnpn$1$pnpn$1$$2::1npn$1$$)v
0001:0003aef0+ W?med3$::1npnpn$IndexItem$$1n$ptrLess$::1npn$1$$:_ow$:std$n(pnpn$1$ii$2::1npn$1$$)pnpn$1$
0002:0003e240+ W?$Wvf06ok:I1$$nx[]pn()v
0002:0003e260+ W?$Wts06n$I1$$$nx[]uc
0002:0005ca7e+ W?$Wti05$I1$$$n[]uc
0001:0003a9b0+ W?buildIndex$:I1$n()v
0001:0003aa90  W?write$:I1$n(pn$__iobuf$$)ui
Module: i2.obj(/mnt/sda5/.user/root/src/openwatcom-1.9/bld/wipfc/cpp/i2.cpp)
0001:0003afa0  W?parse$:I2$n(pn$Lexer$$)$Token$:2$
0001:0003b1c0+ W?parseAttributes$:I2$n(pn$Lexer$$)$Token$:2$
0001:0003b380  W?buildIndex$:I2$n()v
Module: icmd.obj(/mnt/sda5/.user/root/src/openwatcom-1.9/bld/wipfc/cpp/icmd.cpp)
0001:0003b920+ W?$dt:ICmd$n()_
0001:0003ba10+ W?buildText$:ICmd$n(pn$Cell$$)v
0002:00040940+ W?$Wvf08ok:ICmd$$nx[]pn()v
0002:00040960+ W?$Wts08n$ICmd$$$nx[]uc
0002:0005ca88+ W?$Wti07$ICmd$$$n[]uc
0001:0003b480  W?$ct:ICmd$n(pn$Document$$pn$Element$$pnx$basic_string$::1nw1n$char_traits$::1nw:std$$1n$allocator$::1nw:5$:5$uiui)_
0001:0003b550+ W?parse$:ICmd$n(pn$Lexer$$)$Token$:2$
0001:0003b840+ W?buildIndex$:ICmd$n()v
Module: isyn.obj(/mnt/sda5/.user/root/src/openwatcom-1.9/bld/wipfc/cpp/isyn.cpp)
0001:0003ba20  W?parse$:ISyn$n(pn$Lexer$$)$Token$:2$
Module: lines.obj(/mnt/sda5/.user/root/src/openwatcom-1.9/bld/wipfc/cpp/lines.cpp)
0001:0003bdf0  W?parse$:Lines$n(pn$Lexer$$)$Token$:2$
0001:0003be40  W?parseAttributes$:Lines$n(pn$Lexer$$)$Token$:2$
0001:0003c000  W?buildText$:Lines$n(pn$Cell$$)v
0001:0003c070  W?buildText$:ELines$n(pn$Cell$$)v
Module: link.obj(/mnt/sda5/.user/root/src/openwatcom-1.9/bld/wipfc/cpp/link.cpp)
0001:0003c0e0  W?$dt:Link$n()_
0001:0003c220  W?parse$:Link$n(pn$Lexer$$)$Token$:2$
0001:0003c2d0  W?parseAttributes$:Link$n(pn$Lexer$$)$Token$:2$
0001:0003d1a0  W?buildText$:Link$n(pn$Cell$$)v
0001:0003d1e0+ W?doTopic$:Link$n(pn$Cell$$)v
0001:0003db00+ W?doFootnote$:Link$n(pn$Cell$$)v
0002:00044490+ W?$Wts08n$Link$$$nx[]uc
0002:0005ca94+ W?$Wti07$Link$$$n[]uc
0001:0003de90+ W?doLaunch$:Link$n(pn$Cell$$)v
0001:0003e210+ W?doInform$:Link$n(pn$Cell$$)v
0001:0003e4b0  W?buildText$:ELink$n(pn$Cell$$)v
Module: lm.obj(/mnt/sda5/.user/root/src/openwatcom-1.9/bld/wipfc/cpp/lm.cpp)
0001:0003e510  W?parse$:Lm$n(pn$Lexer$$)$Token$:2$
0001:0003e6c0  W?buildText$:Lm$n(pn$Cell$$)v
Module: lp.obj(/mnt/sda5/.user/root/src/openwatcom-1.9/bld/wipfc/cpp/lp.cpp)
0001:0003e730  W?parse$:Lp$n(pn$Lexer$$)$Token$:2$
0001:0003e780  W?buildText$:Lp$n(pn$Cell$$)v
Module: note.obj(/mnt/sda5/.user/root/src/openwatcom-1.9/bld/wipfc/cpp/note.cpp)
0002:00047ed0  W?$Wcm0236$nx[]uc
0001:0003e800  W?parse$:Note$n(pn$Lexer$$)$Token$:2$
0001:0003eed0+ W?prepBufferName$:Note$n(pn$basic_string$::1nw1n$char_traits$::1nw:std$$1n$allocator$::1nw:4$:4$rnx$2::1nw1n$3::1nw:4$1n$5::1nw:4$:4$)v
Module: nt.obj(/mnt/sda5/.user/root/src/openwatcom-1.9/bld/wipfc/cpp/nt.cpp)
0001:0003f8e0+ W?$dt:NtLm$n()_
0001:0003f970+ W?parse$:NtLm$n(pn$Lexer$$)$Token$:2$
0002:00049560+ W?$Wvf08ok:NtLm$$nx[]pn()v
0002:00049580+ W?$Wts08n$NtLm$$$nx[]uc
0002:0005caa0+ W?$Wti07$NtLm$$$n[]uc
0001:0003ef00  W?parse$:Nt$n(pn$Lexer$$)$Token$:2$
0001:0003f810  W?buildText$:ENt$n(pn$Cell$$)v
0001:0003f870+ W?buildText$:NtLm$n(pn$Cell$$)v
0001:0003f8b0+ W?prepBufferName$:Nt$n(pn$basic_string$::1nw1n$char_traits$::1nw:std$$1n$allocator$::1nw:4$:4$rnx$2::1nw1n$3::1nw:4$1n$5::1nw:4$:4$)v
Module: ol.obj(/mnt/sda5/.user/root/src/openwatcom-1.9/bld/wipfc/cpp/ol.cpp)
0001:00042c30  W?$ct:Element$n(pn$Document$$pn$0$pnx$basic_string$::1nw1n$char_traits$::1nw:std$$1n$allocator$::1nw:4$:4$uiui)_
0001:00042c50  W?$dt:Li$n()_
0001:00042c60+ W?$dt:EOl$n()_
0001:00042d00+ W?$dt:OlLi$n()_
0001:00042da0+ W?linearize$:OlLi$n(pn$Page$$)v
0001:00042db0+ W?buildText$:OlLi$n(pn$Cell$$)v
0001:00042dc0  W?$dt:Lp$n()_
0001:00042e60  W?$dt:LiteralWhiteSpace$n()_
0001:00042ef0  W?parse$:LiteralWhiteSpace$n(pn$Lexer$$)$Token$:2$
0001:00042f00  W?$ct:allocator$::1npn$Element$$:std$n()_
0001:00042f10  W?$ct:list$::1npn$Element$$1n$allocator$::1npn$1$:std$$:3n(rnx$2::1npn$1$:3$)_
0002:0004b620  W?$Wvf06ok:Li$$nx[]pn()v
0002:0004b650+ W?$Wvf07ok:EOl$$nx[]pn()v
0002:0004b680+ W?$Wvf08ok:OlLi$$nx[]pn()v
0002:0004b6b0  W?$Wvf06ok:Lp$$nx[]pn()v
0002:0004b6e0  W?$Wvf0Lok:LiteralWhiteSpace$$nx[]pn()v
0002:0004b700  W?$Wcm0250$nx[]uc
0002:0004b710  W?$Wcm0249$nx[]uc
0002:0004b720+ W?$Wcm0278$nx[]uc
0002:0004b730+ W?$Wts07n$EOl$$$nx[]uc
0002:0004b750+ W?$Wts08n$OlLi$$$nx[]uc
0002:0004b770  W?$Wts06n$Lp$$$nx[]uc
0002:0004b790  W?$Wts0Ln$LiteralWhiteSpace$$$nx[]uc
0002:0005caac  W?$Wti0K$LiteralWhiteSpace$$$n[]uc
0002:0005cac5  W?$Wti05$Lp$$$n[]uc
0002:0005cacf+ W?$Wti07$OlLi$$$n[]uc
0002:0005cadb+ W?$Wti06$EOl$$$n[]uc
0001:0003f980  W?parse$:Ol$n(pn$Lexer$$)$Token$:2$
0001:00041390  W?parseAttributes$:Ol$n(pn$Lexer$$)$Token$:2$
0001:00041450+ W?buildText$:EOl$n(pn$Cell$$)v
0001:000414c0+ W?parse$:OlLi$n(pn$Lexer$$)$Token$:2$
Module: p.obj(/mnt/sda5/.user/root/src/openwatcom-1.9/bld/wipfc/cpp/p.cpp)
0001:00042fa0  W?parse$:P$n(pn$Lexer$$)$Token$:2$
0001:00042ff0  W?buildText$:P$n(pn$Cell$$)v
Module: parml.obj(/mnt/sda5/.user/root/src/openwatcom-1.9/bld/wipfc/cpp/parml.cpp)
0001:00045830+ W?$dt:EParml$n()_
0001:000458d0+ W?$dt:Pt$n()_
0001:00045970+ W?linearize$:Pt$n(pn$Page$$)v
0001:00045980+ W?buildText$:Pt$n(pn$Cell$$)v
0001:00045990+ W?$dt:Pd$n()_
0001:00045a30+ W?linearize$:Pd$n(pn$Page$$)v
0001:00045a40+ W?buildText$:Pd$n(pn$Cell$$)v
0002:0004e660+ W?$Wvf0Aok:EParml$$nx[]pn()v
0002:0004e690+ W?$Wvf06ok:Pt$$nx[]pn()v
0002:0004e6c0+ W?$Wvf06ok:Pd$$nx[]pn()v
0002:0004e6f0  W?$Wcm0270$nx[]uc
0002:0004e700+ W?$Wts0An$EParml$$$nx[]uc
0002:0004e720+ W?$Wts06n$Pt$$$nx[]uc
0002:0004e740+ W?$Wts06n$Pd$$$nx[]uc
0002:0005cae6+ W?$Wti05$Pd$$$n[]uc
0002:0005caf0+ W?$Wti05$Pt$$$n[]uc
0002:0005cafa+ W?$Wti09$EParml$$$n[]uc
0001:00043030  W?parse$:Parml$n(pn$Lexer$$)$Token$:2$
0001:000445d0  W?parseAttributes$:Parml$n(pn$Lexer$$)$Token$:2$
0001:00044810+ W?buildText$:EParml$n(pn$Cell$$)v
0001:00044890+ W?parse$:Pt$n(pn$Lexer$$)$Token$:2$
0001:00045410+ W?parse$:Pd$n(pn$Lexer$$)$Token$:2$
Module: pbutton.obj(/mnt/sda5/.user/root/src/openwatcom-1.9/bld/wipfc/cpp/pbutton.cpp)
0001:00045e00+ W?$ct:ControlButton$n()_
0001:00045e90+ W?$dt:ControlButton$n()_
0001:00045f00+ W?$ct:ControlButton$n(rnx$0$)_
0002:0004f880+ W?$Wts0Hn$ControlButton$$$nx[]uc
0002:0005cb08+ W?$Wti0G$ControlButton$$$n[]uc
0001:00045a50  W?parse$:PButton$n(pn$Lexer$$)$Token$:2$
0001:00045cb0  W?build$:PButton$n(pn$Controls$$)v
Module: rm.obj(/mnt/sda5/.user/root/src/openwatcom-1.9/bld/wipfc/cpp/rm.cpp)
0001:00045f80  W?parse$:Rm$n(pn$Lexer$$)$Token$:2$
0001:00046130  W?buildText$:Rm$n(pn$Cell$$)v
Module: sl.obj(/mnt/sda5/.user/root/src/openwatcom-1.9/bld/wipfc/cpp/sl.cpp)
0001:00048110+ W?$dt:ESl$n()_
0001:000481b0+ W?$dt:SlLi$n()_
0002:00052670+ W?$Wvf07ok:ESl$$nx[]pn()v
0002:000526a0+ W?$Wvf08ok:SlLi$$nx[]pn()v
0002:000526d0  W?$Wcm0262$nx[]uc
0002:000526e0+ W?$Wts07n$ESl$$$nx[]uc
0002:00052700+ W?$Wts08n$SlLi$$$nx[]uc
0002:0005cb1d+ W?$Wti07$SlLi$$$n[]uc
0002:0005cb29+ W?$Wti06$ESl$$$n[]uc
0001:000461a0  W?parse$:Sl$n(pn$Lexer$$)$Token$:2$
0001:00047bd0  W?parseAttributes$:Sl$n(pn$Lexer$$)$Token$:2$
0001:00047c90+ W?buildText$:ESl$n(pn$Cell$$)v
0001:00047d00+ W?parse$:SlLi$n(pn$Lexer$$)$Token$:2$
0001:00048070+ W?buildText$:SlLi$n(pn$Cell$$)v
Module: table.obj(/mnt/sda5/.user/root/src/openwatcom-1.9/bld/wipfc/cpp/table.cpp)
0001:000515c0+ W?$dt:TableCol$n()_
0001:00051670+ W?buildText$:TableCol$n(pn$Cell$$)v
0001:00051680+ W?linearize$:TableRow$n(pn$Page$$)v
0001:00051690+ W?buildText$:TableRow$n(pn$Cell$$)v
0001:00048250  W?parse$:Table$n(pn$Lexer$$)$Token$:2$
0001:00048690  W?parseAttributes$:Table$n(pn$Lexer$$)$Token$:2$
0001:00048aa0+ W?tbBorder$:Table$n(q)v
0001:00049c40+ W?rowRule$:Table$n()v
0001:0004ac30  W?buildText$:Table$n(pn$Cell$$)v
0001:000516a0+ W?accumulate$::1npnuc1ni:std$n(pnucpnuci)i
0001:000516c0+ W?push_back$:vector$::1n$list$::1npn$Element$$1n$allocator$::1npn$3$:std$$:5$1n$4::1n$2::1npn$3$1n$4::1npn$3$:5$:5$:5$:5n(rnx$2::1npn$3$1n$4::1npn$3$:5$:5$)v
0001:00051710+ W?push_back$:vector$::1npn$TableCol$$1n$allocator$::1npn$2$:std$$:4n(rnxpn$2$)v
0001:00051760+ W?reserve$:vector$::1n$list$::1npn$Element$$1n$allocator$::1npn$3$:std$$:5$1n$4::1n$2::1npn$3$1n$4::1npn$3$:5$:5$:5$:5n(ui)v
0001:00051910+ W?reserve$:vector$::1npn$TableCol$$1n$allocator$::1npn$2$:std$$:4n(ui)v
0001:00051ab0+ W?uninitialized_copy$::1npn$list$::1npn$Element$$1n$allocator$::1npn$2$:std$$:4$1npn$1::1npn$2$1n$3::1npn$2$:4$:4$:4n(pn$1::1npn$2$1n$3::1npn$2$:4$:4$pn$1::1npn$2$1n$3::1npn$2$:4$:4$pn$1::1npn$2$1n$3::1npn$2$:4$:4$)pn$1::1npn$2$1n$3::1npn$2$:4$:4$
0001:00051b90+ W?uninitialized_copy$::1npnpn$TableCol$$1npnpn$1$:std$n(pnpn$1$pnpn$1$pnpn$1$)pnpn$1$
0002:00056280+ W?$Wvf0Cok:TableCol$$nx[]pn()v
0002:000562b0+ W?$Wvf0Cok:TableRow$$nx[]pn()v
0002:000562e0+ W?$Wcm0261$nx[]uc
0002:000562f0+ W?$Wcm0265$nx[]uc
0002:00056300+ W?$Wcm0275$nx[]uc
0002:00056310+ W?$Wcm0290$nx[]uc
0002:00056320+ W?$Wcm03162$nx[]uc
0002:00056330+ W?$Wcm03298$nx[]uc
0002:00056340+ W?$Wcm03306$nx[]uc
0002:00056350+ W?$Wcm03310$nx[]uc
0002:00056360+ W?$Wcm03297$nx[]uc
0002:00056370+ W?$Wcm03323$nx[]uc
0002:00056380+ W?$Wcm03335$nx[]uc
0002:00056390+ W?$Wcm03346$nx[]uc
0002:000563a0+ W?$Wts0Cn$TableCol$$$nx[]uc
0002:000563c0+ W?$Wts0Cn$TableRow$$$nx[]uc
0002:000563e0+ W?$Wts0sn$list$::1npn$Element$$1n$allocator$::1npn$1$:std$$:3$$nx[]uc
0002:0005cb34+ W?$Wti0r$list$::1npn$Element$$1n$allocator$::1npn$1$:std$$:3$$n[]uc
0002:0005cb6e+ W?$Wti0B$TableRow$$$n[]uc
0002:0005cb7e+ W?$Wti0B$TableCol$$$n[]uc
0001:0004ac90  W?buildText$:ETable$n(pn$Cell$$)v
0001:0004acf0+ W?$dt:TableRow$n()_
0001:0004adf0+ W?parse$:TableRow$n(pn$Lexer$$)$Token$:2$
0001:0004bde0+ W?parse$:TableCol$n(pn$Lexer$$)$Token$:2$
Module: title.obj(/mnt/sda5/.user/root/src/openwatcom-1.9/bld/wipfc/cpp/title.cpp)
0001:00051c70  W?parse$:Title$n(pn$Lexer$$pn$IpfHeader$$)$Token$:2$
Module: ul.obj(/mnt/sda5/.user/root/src/openwatcom-1.9/bld/wipfc/cpp/ul.cpp)
0001:00054a40+ W?$dt:EUl$n()_
0001:00054ae0+ W?$dt:UlLi$n()_
0001:00054b80+ W?linearize$:UlLi$n(pn$Page$$)v
0001:00054b90+ W?buildText$:UlLi$n(pn$Cell$$)v
0002:00059400+ W?$Wvf07ok:EUl$$nx[]pn()v
0002:00059430+ W?$Wvf08ok:UlLi$$nx[]pn()v
0002:00059460+ W?$Wcm0286$nx[]uc
0002:00059470+ W?$Wts07n$EUl$$$nx[]uc
0002:00059490+ W?$Wts08n$UlLi$$$nx[]uc
0002:0005cb8e+ W?$Wti07$UlLi$$$n[]uc
0002:0005cb9a+ W?$Wti06$EUl$$$n[]uc
0001:00051f60  W?parse$:Ul$n(pn$Lexer$$)$Token$:2$
0001:00053950  W?parseAttributes$:Ul$n(pn$Lexer$$)$Token$:2$
0001:00053a10+ W?buildText$:EUl$n(pn$Cell$$)v
0001:00053a80+ W?parse$:UlLi$n(pn$Lexer$$)$Token$:2$
Module: warning.obj(/mnt/sda5/.user/root/src/openwatcom-1.9/bld/wipfc/cpp/warning.cpp)
0001:00054ba0  W?parse$:Warning$n(pn$Lexer$$)$Token$:2$
0001:000552f0  W?buildText$:EWarning$n(pn$Cell$$)v
0001:00055330+ W?prepBufferName$:Warning$n(pn$basic_string$::1nw1n$char_traits$::1nw:std$$1n$allocator$::1nw:4$:4$rnx$2::1nw1n$3::1nw:4$1n$5::1nw:4$:4$)v
Module: xmp.obj(/mnt/sda5/.user/root/src/openwatcom-1.9/bld/wipfc/cpp/xmp.cpp)
0001:00055360  W?parse$:Xmp$n(pn$Lexer$$)$Token$:2$
0001:000553c0  W?buildText$:Xmp$n(pn$Cell$$)v
0001:00055420  W?buildText$:EXmp$n(pn$Cell$$)v
Module: /mnt/sda5/.user/root/src/openwatcom-1.9/rel2/lib386/plbx3r.lib(stablcl.cpp)
0001:00055480  __wcpp_4_lcl_register__
Module: /mnt/sda5/.user/root/src/openwatcom-1.9/rel2/lib386/plbx3r.lib(fsregist.cpp)
0001:00055490+ __wcpp_4_dispatch_dummy__
0001:000554b4  __wcpp_4_fs_lookup__
0001:00055558  __wcpp_4_fs_handler_rtn__
0001:0005562c  __wcpp_4_unwind_global__
0001:00055670  __wcpp_4_raise_exception__
Module: /mnt/sda5/.user/root/src/openwatcom-1.9/rel2/lib386/plbx3r.lib(cppdata.cpp)
0002:0005e140  __wint_thread_data
0002:0005e164  __compiled_under_generic
Module: /mnt/sda5/.user/root/src/openwatcom-1.9/rel2/lib386/plbx3r.lib(dtorarst.cpp)
0001:000556a0  __wcpp_4_dtor_array_store__
Module: /mnt/sda5/.user/root/src/openwatcom-1.9/rel2/lib386/plbx3r.lib(opdelarr.cpp)
0001:000556d0  W?$dan(pnv)v
Module: /mnt/sda5/.user/root/src/openwatcom-1.9/rel2/lib386/plbx3r.lib(opdel.cpp)
0001:000556e0  W?$dln(pnv)v
Module: /mnt/sda5/.user/root/src/openwatcom-1.9/rel2/lib386/plbx3r.lib(ioicout.cpp)
0002:0005e1a8  W?cout$:std$n$ostream$:1$
0002:0005bc50  W?$Wts0Cn$stdiobuf$$$nx[]uc
0002:0005bc70  W?$Wts0Gn$ostream$:std$$$nx[]uc
0002:0005cbd5+ W?$Wti0G$cout_initfini$$$n[]uc
0002:0005cbea  W?$Wti0F$ostream$:std$$$n[]uc
0001:00055760  W?.tdtor$:ostream$:std$n()pnv
0001:00055770  W?.tdtor$:stdiobuf$n()pnv
0001:00055744+ W?$ct:cout_initfini$n()_
0001:0005574c+ W?$dt:cout_initfini$n()_
0002:0005bc90+ W?$Wts0Hn$cout_initfini$$$nx[]uc
0002:0005cbfe  W?$Wti0B$stdiobuf$$$n[]uc
Module: /mnt/sda5/.user/root/src/openwatcom-1.9/rel2/lib386/plbx3r.lib(ostincch.cpp)
0001:00055780  W?$ob:ostream$:std$n(pnxa)rn$0:1$
Module: /mnt/sda5/.user/root/src/openwatcom-1.9/rel2/lib386/plbx3r.lib(manendl.cpp)
0001:00055800  W?endl$:std$n(rn$ostream$:1$)rn$2:1$
Module: /mnt/sda5/.user/root/src/openwatcom-1.9/rel2/lib386/plbx3r.lib(ostinomn.cpp)
0001:00055820  W?$ob:ostream$:std$n(pn(rn$0:1$)rn$0:1$)rn$0:1$
Module: /mnt/sda5/.user/root/src/openwatcom-1.9/rel2/lib386/plbx3r.lib(stabdtor.cpp)
0001:00055ad0  __wcpp_4_destruct_internal__
0001:00055aec  __wcpp_4_destruct_all__
0001:00055af0  __wcpp_4_destruct__
Module: /mnt/sda5/.user/root/src/openwatcom-1.9/rel2/lib386/dos/clib3r.lib(setjmp)
0001:00055b10  _setjmp_
0001:00055b3f  longjmp_
Module: /mnt/sda5/.user/root/src/openwatcom-1.9/rel2/lib386/plbx3r.lib(stabthrw.cpp)
0001:00056370+ W?$ct:bad_exception$:std$n(rnx$0:1$)_
0001:000563c0+ W?$dt:bad_exception$:std$n()_
0002:0005bda0+ W?$Wvf0Mo4:bad_exception$:std$$nx[]pn()v
0002:0005bdb0+ W?$Wth0Onrn$bad_exception$:std$$$nx[]uc
0002:0005bdd0+ W?$Wts0Mn$bad_exception$:std$$$nx[]uc
0002:0005bdf0+ W?$Wts0Hn$_EXC_PR_FNEXC$$$nx[]uc
0002:0005be10+ W?$Wts0Gn$_EXC_PR_DTOR$$$nx[]uc
0002:0005be30  W?$Wts0Gn$_EXC_PR_FREE$$$nx[]uc
0002:0005be50  W?$Wts0Bn$_EXC_PR$$$nx[]uc
0002:0005be70+ W?$Wva0Mo0:bad_exception$:std$$nx[]uc
0002:0005cc10  W?$Wti0A$_EXC_PR$$$n[]uc
0002:0005cc1f  W?$Wti0F$_EXC_PR_FREE$$$n[]uc
0002:0005cc33+ W?$Wti0F$_EXC_PR_DTOR$$$n[]uc
0002:0005cc47+ W?$Wti0G$_EXC_PR_FNEXC$$$n[]uc
0002:0005cc5c+ W?$Wti0L$bad_exception$:std$$$n[]uc
0001:00056470+ W?.tcctor$:bad_exception$:std$n(rnx$1:2$)rn$1:2$
0001:00056480+ W?.tdtor$:bad_exception$:std$n()pnv
0001:0005623c  __wcpp_4_rethrow__
0001:00056280  __wcpp_4_catch_done__
0001:000562e0  __wcpp_4_throw__
0001:00056324* __wcpp_4_throw_zero__
0002:0005be90+ W?$Wva0Io0:exception$:std$$nx[]uc
Module: /mnt/sda5/.user/root/src/openwatcom-1.9/rel2/lib386/dos/clib3r.lib(atoi.c)
0001:00056490  atoi_
Module: /mnt/sda5/.user/root/src/openwatcom-1.9/rel2/lib386/dos/clib3r.lib(exit.c)
0001:000564d9+ __null_int23_exit_
0001:000564da  exit_
0001:00056506* _exit_
0002:0005cc78+ ___int23_exit
0002:0005cc7c+ ___FPE_handler_exit
Module: /mnt/sda5/.user/root/src/openwatcom-1.9/rel2/lib386/dos/clib3r.lib(memmove.c)
0001:00056520  memmove_
Module: /mnt/sda5/.user/root/src/openwatcom-1.9/rel2/lib386/dos/clib3r.lib(ustrlen.c)
0001:00056573  wcslen_
Module: /mnt/sda5/.user/root/src/openwatcom-1.9/rel2/lib386/plbx3r.lib(opnewp.cpp)
0001:00056590  W?$nwn(uipnv)pnv
Module: /mnt/sda5/.user/root/src/openwatcom-1.9/rel2/lib386/plbx3r.lib(opnew.cpp)
0001:000565a0  W?$nwn(ui)pnv
Module: /mnt/sda5/.user/root/src/openwatcom-1.9/rel2/lib386/dos/clib3r.lib(memset.c)
0001:000565f0  memset_
Module: /mnt/sda5/.user/root/src/openwatcom-1.9/rel2/lib386/plbx3r.lib(undefed.cpp)
0001:00056610  __wcpp_4_undefed_cdtor__
Module: /mnt/sda5/.user/root/src/openwatcom-1.9/rel2/lib386/dos/clib3r.lib(cstart)
0001:00000003* ___begtext
0002:00000000* __nullarea
0002:0005cc80* __D16Infoseg
0002:0005cc82  __x386_zero_base_selector
0001:00056624  _cstart_
0001:00056872  __exit_
0001:00056874  __do_exit_with_msg__
0001:000568bc* __GETDS
0001:000568bc  ___GETDSStart_
0001:000568c7  ___GETDSEnd_
Module: /mnt/sda5/.user/root/src/openwatcom-1.9/rel2/lib386/dos/clib3r.lib(argcv.c)
0002:0005e1e4  __argc
0002:0005e1e8  __argv
0002:0005e1ec  ___argc
0002:0005e1f0  ___argv
Module: /mnt/sda5/.user/root/src/openwatcom-1.9/rel2/lib386/plbx3r.lib(moddtorr.cpp)
0002:0005e0f0  ___wcpp_4_data_module_dtor_ref_
Module: /mnt/sda5/.user/root/src/openwatcom-1.9/rel2/lib386/plbx3r.lib(fsroot.cpp)
0002:0005e0c0  ___wcpp_4_data_init_fs_root_
Module: /mnt/sda5/.user/root/src/openwatcom-1.9/rel2/lib386/dos/clib3r.lib(fopen.c)
0001:000568e0+ __open_flags_
0001:00056ae0+ _fsopen_
0001:00056b30  fopen_
0001:00056bb0* freopen_
Module: /mnt/sda5/.user/root/src/openwatcom-1.9/rel2/lib386/dos/clib3r.lib(fclose.c)
0001:00056c10  __doclose_
0001:00056c90  __shutdown_stream_
0001:00056cb0  fclose_
0002:0005e1f4+ ___RmTmpFileFn
Module: /mnt/sda5/.user/root/src/openwatcom-1.9/rel2/lib386/dos/clib3r.lib(fprintf.c)
0001:00056ce0  fprintf_
Module: /mnt/sda5/.user/root/src/openwatcom-1.9/rel2/lib386/dos/clib3r.lib(iob.c)
0002:0005cc84  ___iob
0002:0005ce8c  __fmode
0002:0005e1f8  ___OpenStreams
0002:0005e1fc  ___ClosedStreams
Module: /mnt/sda5/.user/root/src/openwatcom-1.9/rel2/lib386/dos/clib3r.lib(wcstombs.c)
0001:00056d10  wcstombs_
Module: /mnt/sda5/.user/root/src/openwatcom-1.9/rel2/lib386/dos/clib3r.lib(strncpy.c)
0001:00056dc0  strncpy_
Module: /mnt/sda5/.user/root/src/openwatcom-1.9/rel2/lib386/dos/clib3r.lib(tmpnm.c)
0001:00056e80  tmpnam_
Module: /mnt/sda5/.user/root/src/openwatcom-1.9/rel2/lib386/dos/clib3r.lib(remove.c)
0001:00056f50  remove_
Module: /mnt/sda5/.user/root/src/openwatcom-1.9/rel2/lib386/dos/clib3r.lib(ftell.c)
0001:00056f60  ftell_
Module: /mnt/sda5/.user/root/src/openwatcom-1.9/rel2/lib386/dos/clib3r.lib(fseek.c)
0001:00057000  fseek_
Module: /mnt/sda5/.user/root/src/openwatcom-1.9/rel2/lib386/dos/clib3r.lib(fwrite.c)
0001:00057100  fwrite_
Module: /mnt/sda5/.user/root/src/openwatcom-1.9/rel2/lib386/dos/clib3r.lib(fread.c)
0001:000572e0  fread_
Module: /mnt/sda5/.user/root/src/openwatcom-1.9/rel2/lib386/plbx3r.lib(stabadt.cpp)
0001:000574b0+ W?dtor_the_array$n(pn$_RTARCTOR$$)pnv
0001:000574f4  W?$dt:_RTARCTOR$n()_
0001:0005750c  __wcpp_4_dtor_array__
0002:0005beb0  W?$Wts0Dn$_RTARCTOR$$$nx[]uc
0002:0005ce90  W?$Wti0C$_RTARCTOR$$$n[]uc
Module: /mnt/sda5/.user/root/src/openwatcom-1.9/rel2/lib386/plbx3r.lib(pure_err.cpp)
0001:00057580  __wcpp_4_pure_error__
Module: /mnt/sda5/.user/root/src/openwatcom-1.9/rel2/lib386/dos/clib3r.lib(getenv.c)
0001:000575b0  getenv_
Module: /mnt/sda5/.user/root/src/openwatcom-1.9/rel2/lib386/dos/clib3r.lib(rewind.c)
0001:00057640  rewind_
Module: /mnt/sda5/.user/root/src/openwatcom-1.9/rel2/lib386/dos/clib3r.lib(feof.c)
0001:00057660  feof_
Module: /mnt/sda5/.user/root/src/openwatcom-1.9/rel2/lib386/dos/clib3r.lib(mbisdbcs.c)
0002:0005e210  ___IsDBCS
Module: /mnt/sda5/.user/root/src/openwatcom-1.9/rel2/lib386/dos/clib3r.lib(mbislead.c)
0001:00057670* _ismbblead_
0002:0005e214  ___MBCSIsTable
Module: /mnt/sda5/.user/root/src/openwatcom-1.9/rel2/lib386/dos/clib3r.lib(mbtowc.c)
0001:00057690  mbtowc_
Module: /mnt/sda5/.user/root/src/openwatcom-1.9/rel2/lib386/dos/clib3r.lib(uisspace.c)
0001:0005774c  iswspace_
Module: /mnt/sda5/.user/root/src/openwatcom-1.9/rel2/lib386/dos/clib3r.lib(uisalpha.c)
0001:00057766  iswalpha_
Module: /mnt/sda5/.user/root/src/openwatcom-1.9/rel2/lib386/dos/clib3r.lib(uisalnum.c)
0001:00057782  iswalnum_
Module: /mnt/sda5/.user/root/src/openwatcom-1.9/rel2/lib386/dos/clib3r.lib(uispunct.c)
0001:0005779e  iswpunct_
Module: /mnt/sda5/.user/root/src/openwatcom-1.9/rel2/lib386/dos/clib3r.lib(fputc.c)
0001:000577c0  fputc_
Module: /mnt/sda5/.user/root/src/openwatcom-1.9/rel2/lib386/dos/clib3r.lib(strncmp.c)
0001:00057880  strncmp_
Module: /mnt/sda5/.user/root/src/openwatcom-1.9/rel2/lib386/dos/clib3r.lib(utoupper.c)
0001:000578a9  towupper_
Module: /mnt/sda5/.user/root/src/openwatcom-1.9/rel2/lib386/dos/clib3r.lib(ustrcmp.c)
0001:000578b9  wcscmp_
Module: /mnt/sda5/.user/root/src/openwatcom-1.9/rel2/lib386/plbx3r.lib(stabact.cpp)
0001:000578e0  __wcpp_4_ctor_array__
Module: /mnt/sda5/.user/root/src/openwatcom-1.9/rel2/lib386/dos/clib3r.lib(setmbcp.c)
0001:00057970  _setmbcp_
Module: /mnt/sda5/.user/root/src/openwatcom-1.9/rel2/lib386/dos/clib3r.lib(snprintf.c)
0001:00057a00+ vsnprintf_
0001:00057a60  snprintf_
Module: /mnt/sda5/.user/root/src/openwatcom-1.9/rel2/lib386/dos/clib3r.lib(fgets.c)
0001:00057a90  fgets_
Module: /mnt/sda5/.user/root/src/openwatcom-1.9/rel2/lib386/dos/clib3r.lib(mbstowcs.c)
0001:00057b00  mbstowcs_
Module: /mnt/sda5/.user/root/src/openwatcom-1.9/rel2/lib386/dos/clib3r.lib(ufgets.c)
0001:00057b73  fgetws_
Module: /mnt/sda5/.user/root/src/openwatcom-1.9/rel2/lib386/dos/clib3r.lib(ustrchr.c)
0001:00057bd2  wcschr_
Module: /mnt/sda5/.user/root/src/openwatcom-1.9/rel2/lib386/dos/clib3r.lib(ustrtol.c)
0001:00057e40  wcstoul_
0001:00057e50  wcstol_
Module: /mnt/sda5/.user/root/src/openwatcom-1.9/rel2/lib386/dos/clib3r.lib(ustrtok.c)
0001:00057e5d* _ustrtok_
0001:00057e67  wcstok_
Module: /mnt/sda5/.user/root/src/openwatcom-1.9/rel2/lib386/dos/clib3r.lib(strrchr.c)
0001:00057f20  strrchr_
Module: /mnt/sda5/.user/root/src/openwatcom-1.9/rel2/lib386/dos/clib3r.lib(ustrrchr.c)
0001:00057f39  wcsrchr_
Module: /mnt/sda5/.user/root/src/openwatcom-1.9/rel2/lib386/dos/clib3r.lib(gtcwd.c)
0001:00057f60  getcwd_
Module: /mnt/sda5/.user/root/src/openwatcom-1.9/rel2/lib386/dos/clib3r.lib(wctomb.c)
0001:00058000  wctomb_
Module: /mnt/sda5/.user/root/src/openwatcom-1.9/rel2/lib386/dos/clib3r.lib(usprintf.c)
0001:0005802e  swprintf_
0001:00058051* _swprintf_
Module: /mnt/sda5/.user/root/src/openwatcom-1.9/rel2/lib386/plbx3r.lib(stabmod.cpp)
0001:00058070  __wcpp_4_module_dtor__
0001:0005809c  __wcpp_4_mod_register__
Module: /mnt/sda5/.user/root/src/openwatcom-1.9/rel2/lib386/plbx3r.lib(stabdisp.cpp)
0001:000582ac  __wcpp_4_dispatchable__
Module: /mnt/sda5/.user/root/src/openwatcom-1.9/rel2/lib386/dos/clib3r.lib(nfree.c)
0001:00058300  _nfree_
0001:00058300  free_
0002:0005e318  ___MiniHeapFreeRover
Module: /mnt/sda5/.user/root/src/openwatcom-1.9/rel2/lib386/dos/clib3r.lib(iobaddr.c)
0001:00058400  __get_std_stream_
0001:00058400* __get_std_file_
Module: /mnt/sda5/.user/root/src/openwatcom-1.9/rel2/lib386/plbx3r.lib(sdfconfp.cpp)
0002:0005bedc  W?$Wvf0Do19:stdiobuf$$nx[]pn()v
0002:0005cf34  W?$Wti0H$streambuf$:std$$$n[]uc
0001:00058420  W?$ct:stdiobuf$n(pn$__iobuf$$)_
0002:0005bf0c  W?$Wva0Co0:stdiobuf$$nx[]uc
Module: /mnt/sda5/.user/root/src/openwatcom-1.9/rel2/lib386/plbx3r.lib(ostconsf.cpp)
0002:0005bf44+ W?$Wvb0Go0:ostream$:std$$nx[]ui
0002:0005bf4c  W?$Wvf0Go4:ostream$:std$$nx[]pn()v
0002:0005bf54  W?$Wvf0Ho1l:ostream$:std$$nx[]pn()v
0002:0005cf4a  W?$Wti0B$ios$:std$$$n[]uc
0001:000584c0  W?$Wvt0V.@dt:ostream$:std$c$:0:1$dtn()_$:ios$:std$n()pnv
0001:000584d0  W?.tdtor$:ios$:std$n()pnv
0001:00058430  W?$ct:ostream$:std$n(pn$streambuf$:1$)_
0002:0005bf5c  W?$Wva0Go0:ostream$:std$$nx[]uc
Module: /mnt/sda5/.user/root/src/openwatcom-1.9/rel2/lib386/plbx3r.lib(ostflush.cpp)
0001:000584e0  W?flush$:ostream$:std$n()rn$1:2$
Module: /mnt/sda5/.user/root/src/openwatcom-1.9/rel2/lib386/plbx3r.lib(ostdestr.cpp)
0001:00058520  W?$dt:ostream$:std$n()_
Module: /mnt/sda5/.user/root/src/openwatcom-1.9/rel2/lib386/plbx3r.lib(sdfdestr.cpp)
0001:000586c0+ W?.tdtor$:streambuf$:std$n()pnv
0001:000585f0  W?$dt:stdiobuf$n()_
Module: /mnt/sda5/.user/root/src/openwatcom-1.9/rel2/lib386/plbx3r.lib(ostopfx.cpp)
0001:000586d0  W?do_opfx$:ostream$:std$n()i
Module: /mnt/sda5/.user/root/src/openwatcom-1.9/rel2/lib386/plbx3r.lib(iouwrtit.cpp)
0001:00058740  W?writeitem$:__WATCOM_ios$n(rn$ostream$:std$$pnxaii)i
Module: /mnt/sda5/.user/root/src/openwatcom-1.9/rel2/lib386/plbx3r.lib(iossetst.cpp)
0001:00058ac0+ W?$ct:failure$:ios$:std$n(rnx$0:1:2$)_
0001:00058ad0+ W?$dt:failure$:ios$:std$n()_
0002:0005c000+ W?$Wth0Nnrn$failure$:ios$:std$$$nx[]uc
0002:0005c020+ W?$Wts0Ln$failure$:ios$:std$$$nx[]uc
0002:0005cf5a+ W?$Wti0L$__WATCOM_exception$$$n[]uc
0001:00058ae0+ W?$ct:__WATCOM_exception$n(rnx$0$)_
0001:00058af0+ W?$dt:__WATCOM_exception$n()_
0001:00058a90  W?setstate$:ios$:std$n(i)v
0002:0005c040+ W?$Wts0Mn$__WATCOM_exception$$$nx[]uc
0002:0005cf74+ W?$Wti0K$failure$:ios$:std$$$n[]uc
Module: /mnt/sda5/.user/root/src/openwatcom-1.9/rel2/lib386/plbx3r.lib(ostput.cpp)
0001:00058b00  W?put$:ostream$:std$n(a)rn$1:2$
Module: /mnt/sda5/.user/root/src/openwatcom-1.9/rel2/lib386/plbx3r.lib(stabtrav.cpp)
0001:00058ba0  __wcpp_4_stab_entry__
0001:00058bb8* __wcpp_4_stab_trav_comp__
0001:00058c9c  __wcpp_4_stab_trav_init__
0001:00058cc0  __wcpp_4_stab_trav_next__
0001:00058d18  __wcpp_4_stab_trav_move__
Module: /mnt/sda5/.user/root/src/openwatcom-1.9/rel2/lib386/plbx3r.lib(callterm.cpp)
0001:00058d30  __wcpp_4_corrupted_stack__
0001:00058d44  __wcpp_4_call_terminate__
Module: /mnt/sda5/.user/root/src/openwatcom-1.9/rel2/lib386/plbx3r.lib(allocexc.cpp)
0001:00058d94  __wcpp_4_alloc_exc__
0001:00058fe4  __wcpp_4_free_exc__
0001:0005901c  __wcpp_4_find_active__
0001:00059038  __wcpp_4_dtor_free_exc__
Module: /mnt/sda5/.user/root/src/openwatcom-1.9/rel2/lib386/dos/clib3r.lib(ljmphdl.c)
0002:0005cf90  ___longjmp_handler
Module: /mnt/sda5/.user/root/src/openwatcom-1.9/rel2/lib386/plbx3r.lib(exc_pr.cpp)
0001:00059110  W?$ct:_EXC_PR$n(pn$_RTCTL$$pn$RW_DTREG$$$EXCSTATE$$)_
0001:00059138  W?$dt:_EXC_PR$n()_
0001:00059148  W?$ct:_EXC_PR_FREE$n(pn$_RTCTL$$pn$RW_DTREG$$$EXCSTATE$$pn$ACTIVE_EXC$$)_
0001:0005915c  W?$dt:_EXC_PR_FREE$n()_
0001:00059194  W?$ct:_EXC_PR_DTOR$n(pn$_RTCTL$$pn$RW_DTREG$$$EXCSTATE$$pn$ACTIVE_EXC$$)_
0001:000591a4  W?$ct:_EXC_PR_FNEXC$n(pn$_RTCTL$$pn$RW_DTREG$$pn$2$pn$ACTIVE_EXC$$)_
0001:000591c4  W?$dt:_EXC_PR_FNEXC$n()_
0001:000591cc  W?$dt:_EXC_PR_DTOR$n()_
Module: /mnt/sda5/.user/root/src/openwatcom-1.9/rel2/lib386/plbx3r.lib(vfun_err.cpp)
0001:000591f0  __wcpp_4_undef_vfun__
Module: /mnt/sda5/.user/root/src/openwatcom-1.9/rel2/lib386/plbx3r.lib(unexpect.cpp)
0001:00059220  W?unexpected$:std$n()v
Module: /mnt/sda5/.user/root/src/openwatcom-1.9/rel2/lib386/plbx3r.lib(tsequiv.cpp)
0001:000592c0  __wcpp_4_ts_refed__
0001:000592d8+ __wcpp_4_ts_pnted__
0001:0005930c  __wcpp_4_ts_equiv__
Module: /mnt/sda5/.user/root/src/openwatcom-1.9/rel2/lib386/plbx3r.lib(stabinit.cpp)
0001:000593f0  __wcpp_4_exc_setup__
Module: /mnt/sda5/.user/root/src/openwatcom-1.9/rel2/lib386/dos/clib3r.lib(stack386.c)
0001:00059490  stackavail_
Module: /mnt/sda5/.user/root/src/openwatcom-1.9/rel2/lib386/plbx3r.lib(fatalerr.cpp)
0001:000594a0  __wcpp_4_fatal_runtime_error__
Module: /mnt/sda5/.user/root/src/openwatcom-1.9/rel2/lib386/dos/clib3r.lib(stk)
0001:000594e3* __STK
0001:000594d0* __CHK
0001:000594e0  __GRO
0001:00059501* __STKOVERFLOW_
Module: /mnt/sda5/.user/root/src/openwatcom-1.9/rel2/lib386/plbx3r.lib(ljmpinit.cpp)
0002:0005e0d8  ___wcpp_4_data_init_longjmp_
Module: /mnt/sda5/.user/root/src/openwatcom-1.9/rel2/lib386/dos/clib3r.lib(istable.c)
0002:0005c09c  __IsTable
Module: /mnt/sda5/.user/root/src/openwatcom-1.9/rel2/lib386/dos/clib3r.lib(initrtns.c)
0001:00059530  __InitRtns
0001:00059580  __FiniRtns
Module: /mnt/sda5/.user/root/src/openwatcom-1.9/rel2/lib386/dos/clib3r.lib(nmalloc.c)
0001:000595e0  _nmalloc_
0001:000595e0  malloc_
0002:0005cfa8  ___nheapbeg
0002:0005cfac  ___MiniHeapRover
0002:0005cfb0  ___LargestSizeB4MiniHeapRover
Module: /mnt/sda5/.user/root/src/openwatcom-1.9/rel2/lib386/dos/clib3r.lib(__stos)
0001:000596e0  __STOSB
0001:00059717* __STOSD
Module: /mnt/sda5/.user/root/src/openwatcom-1.9/rel2/lib386/dos/clib3r.lib(cmain386.c)
0001:00059790  __CMain
Module: /mnt/sda5/.user/root/src/openwatcom-1.9/rel2/lib386/dos/clib3r.lib(dosseg)
0000:00001234  __DOSseg__
Module: /mnt/sda5/.user/root/src/openwatcom-1.9/rel2/lib386/dos/clib3r.lib(crwdata)
0002:0005cfef  __osmajor
0002:0005cff0  __osminor
0002:0005cfc4  __psp
0002:0005cfe6  __Extender
0002:0005cfe7  __ExtenderSubtype
0002:0005cfe8  __X32VM
0002:0005cfc8* __x386_stacklow
0002:0005cfbc  __LpCmdLine
0002:0005cfc0  __LpPgmName
0002:0005cfb4  __dynend
0002:0005cfb8  __curbrk
0002:0005cfc8  __STACKLOW
0002:0005cfcc  __STACKTOP
0002:0005cfd0  __ASTACKSIZ
0002:0005cfd4  __ASTACKPTR
0002:0005cfd8  __cbyte
0002:0005cfdc* __cbyte2
0002:0005cfe0  __child
0002:0005cfe9  __Envptr
0002:0005cfed  __Envseg
0002:0005cfe4  __no87
0002:0005cff1  ___FPE_handler
Module: /mnt/sda5/.user/root/src/openwatcom-1.9/rel2/lib386/dos/clib3r.lib(uselfn.c)
0002:0005cff8  ___uselfn
Module: /mnt/sda5/.user/root/src/openwatcom-1.9/rel2/lib386/dos/clib3r.lib(initargv.c)
0001:000597d0  __Init_Argv_
0001:00059820+ _getargv_
0001:000599c0  __Fini_Argv_
Module: /mnt/sda5/.user/root/src/openwatcom-1.9/rel2/lib386/dos/clib3r.lib(comtflag.c)
0002:0005cffc  __commode
Module: /mnt/sda5/.user/root/src/openwatcom-1.9/rel2/lib386/dos/clib3r.lib(seterrno.c)
0001:000599ce  __set_errno_
0001:000599da* __set_EDOM_
0001:000599e6* __set_ERANGE_
0001:000599f2* __set_EINVAL_
0001:00059a03  __set_doserrno_
Module: /mnt/sda5/.user/root/src/openwatcom-1.9/rel2/lib386/dos/clib3r.lib(tolower.c)
0001:00059a10  tolower_
Module: /mnt/sda5/.user/root/src/openwatcom-1.9/rel2/lib386/dos/clib3r.lib(open.c)
0001:00059c60* open_
0001:00059c80  sopen_
Module: /mnt/sda5/.user/root/src/openwatcom-1.9/rel2/lib386/dos/clib3r.lib(chktty.c)
0001:00059cb0  __chktty_
Module: /mnt/sda5/.user/root/src/openwatcom-1.9/rel2/lib386/dos/clib3r.lib(freefp.c)
0001:00059cf0  __freefp_
0001:00059d30  __purgefp_
Module: /mnt/sda5/.user/root/src/openwatcom-1.9/rel2/lib386/dos/clib3r.lib(allocfp.c)
0001:00059d60  __allocfp_
Module: /mnt/sda5/.user/root/src/openwatcom-1.9/rel2/lib386/dos/clib3r.lib(__lseek.c)
0001:00059e20  __lseek_
Module: /mnt/sda5/.user/root/src/openwatcom-1.9/rel2/lib386/dos/clib3r.lib(_clse.c)
0001:00059e70  __close_
Module: /mnt/sda5/.user/root/src/openwatcom-1.9/rel2/lib386/dos/clib3r.lib(flush.c)
0001:00059ec0  __flush_
Module: /mnt/sda5/.user/root/src/openwatcom-1.9/rel2/lib386/dos/clib3r.lib(fprtf.c)
0001:00059fd0  __fprtf_
Module: /mnt/sda5/.user/root/src/openwatcom-1.9/rel2/lib386/dos/clib3r.lib(initfile.c)
0001:0005a070  __InitFiles_
Module: /mnt/sda5/.user/root/src/openwatcom-1.9/rel2/lib386/dos/clib3r.lib(ioexit.c)
0001:0005a170* fcloseall_
0001:0005a180  __full_io_exit_
Module: /mnt/sda5/.user/root/src/openwatcom-1.9/rel2/lib386/dos/clib3r.lib(gtpid.c)
0001:0005a190  getpid_
Module: /mnt/sda5/.user/root/src/openwatcom-1.9/rel2/lib386/dos/clib3r.lib(errno.c)
0001:0005a1a0  __get_errno_ptr_
0001:0005a1b0  __get_doserrno_ptr_
0002:0005e320+ _errno
0002:0005e324+ __doserrno
Module: /mnt/sda5/.user/root/src/openwatcom-1.9/rel2/lib386/dos/clib3r.lib(accss.c)
0001:0005a1c0  access_
Module: /mnt/sda5/.user/root/src/openwatcom-1.9/rel2/lib386/dos/clib3r.lib(unlnk.c)
0001:0005a200  unlink_
Module: /mnt/sda5/.user/root/src/openwatcom-1.9/rel2/lib386/dos/clib3r.lib(fflush.c)
0001:0005a220  fflush_
Module: /mnt/sda5/.user/root/src/openwatcom-1.9/rel2/lib386/dos/clib3r.lib(tell.c)
0001:0005a230  tell_
Module: /mnt/sda5/.user/root/src/openwatcom-1.9/rel2/lib386/dos/clib3r.lib(lseek.c)
0001:0005a250  lseek_
Module: /mnt/sda5/.user/root/src/openwatcom-1.9/rel2/lib386/dos/clib3r.lib(qwrit.c)
0001:0005a280  __qwrite_
Module: /mnt/sda5/.user/root/src/openwatcom-1.9/rel2/lib386/dos/clib3r.lib(ioalloc.c)
0001:0005a300  __ioalloc_
Module: /mnt/sda5/.user/root/src/openwatcom-1.9/rel2/lib386/dos/clib3r.lib(qread.c)
0001:0005a3a0  __qread_
Module: /mnt/sda5/.user/root/src/openwatcom-1.9/rel2/lib386/dos/clib3r.lib(fgetc.c)
0001:0005a3d0  __fill_buffer_
0001:0005a4d0  fgetc_
Module: /mnt/sda5/.user/root/src/openwatcom-1.9/rel2/lib386/plbx3r.lib(prwdata.cpp)
0002:0005e328  __wint_pure_error_flag
0002:0005e32a  __wint_undef_vfun_flag
0002:0005e32c  __wint_module_init
Module: /mnt/sda5/.user/root/src/openwatcom-1.9/rel2/lib386/dos/clib3r.lib(environ.c)
0002:0005e330  ___env_mask
0002:0005e334  _environ
0002:0005e338* __wenviron
Module: /mnt/sda5/.user/root/src/openwatcom-1.9/rel2/lib386/dos/clib3r.lib(mbterm.c)
0001:0005a570  _mbterm_
Module: /mnt/sda5/.user/root/src/openwatcom-1.9/rel2/lib386/dos/clib3r.lib(mbsnextc.c)
0001:0005a5b0  _mbsnextc_
Module: /mnt/sda5/.user/root/src/openwatcom-1.9/rel2/lib386/dos/clib3r.lib(mbcupper.c)
0001:0005a5f0  _mbctoupper_
Module: /mnt/sda5/.user/root/src/openwatcom-1.9/rel2/lib386/dos/clib3r.lib(mbsinc.c)
0001:0005a610  _mbsinc_
Module: /mnt/sda5/.user/root/src/openwatcom-1.9/rel2/lib386/dos/clib3r.lib(mbinit.c)
0001:0005a677  __mbinit_
0001:0005a748+ dos_get_dbcs_lead_table_
0001:0005a83c+ dos_get_code_page_
0002:0005d000  ___MBCodePage
Module: /mnt/sda5/.user/root/src/openwatcom-1.9/rel2/lib386/dos/clib3r.lib(prtf.c)
0001:0005a9e0  __prtf_
Module: /mnt/sda5/.user/root/src/openwatcom-1.9/rel2/lib386/dos/clib3r.lib(ufgetc.c)
0001:0005b8f0  fgetwc_
Module: /mnt/sda5/.user/root/src/openwatcom-1.9/rel2/lib386/dos/clib3r.lib(utolower.c)
0001:0005b947  towlower_
Module: /mnt/sda5/.user/root/src/openwatcom-1.9/rel2/lib386/dos/clib3r.lib(doserror)
0001:0005b95c  __doserror_
Module: /mnt/sda5/.user/root/src/openwatcom-1.9/rel2/lib386/dos/clib3r.lib(uvsprint.c)
0001:0005b995  vswprintf_
0001:0005b9d0  _vswprintf_
Module: /mnt/sda5/.user/root/src/openwatcom-1.9/rel2/lib386/dos/clib3r.lib(mem.c)
0001:0005ba10  __MemAllocator
0001:0005bac0  __MemFree
Module: /mnt/sda5/.user/root/src/openwatcom-1.9/rel2/lib386/plbx3r.lib(stfdsgtn.cpp)
0001:0005bc00  W?do_sgetn$:streambuf$:std$n(pnai)i
Module: /mnt/sda5/.user/root/src/openwatcom-1.9/rel2/lib386/plbx3r.lib(stfdspun.cpp)
0001:0005bc80  W?do_sputn$:streambuf$:std$n(pnxai)i
Module: /mnt/sda5/.user/root/src/openwatcom-1.9/rel2/lib386/plbx3r.lib(stfpbfai.cpp)
0001:0005bd20  W?pbackfail$:streambuf$:std$n(i)i
Module: /mnt/sda5/.user/root/src/openwatcom-1.9/rel2/lib386/plbx3r.lib(sdfoverf.cpp)
0001:0005bd30  W?overflow$:stdiobuf$n(i)i
Module: /mnt/sda5/.user/root/src/openwatcom-1.9/rel2/lib386/plbx3r.lib(sdfundrf.cpp)
0001:0005be90  W?underflow$:stdiobuf$n()i
Module: /mnt/sda5/.user/root/src/openwatcom-1.9/rel2/lib386/plbx3r.lib(stfsbuf.cpp)
0001:0005bfb0  W?setbuf$:streambuf$:std$n(pnai)pn$1:2$
Module: /mnt/sda5/.user/root/src/openwatcom-1.9/rel2/lib386/plbx3r.lib(stfseeko.cpp)
0001:0005c000  W?seekoff$:streambuf$:std$n(lii)l
Module: /mnt/sda5/.user/root/src/openwatcom-1.9/rel2/lib386/plbx3r.lib(stfseekp.cpp)
0001:0005c010  W?seekpos$:streambuf$:std$n(li)l
Module: /mnt/sda5/.user/root/src/openwatcom-1.9/rel2/lib386/plbx3r.lib(sdfsync.cpp)
0001:0005c020  W?sync$:stdiobuf$n()i
Module: /mnt/sda5/.user/root/src/openwatcom-1.9/rel2/lib386/plbx3r.lib(stfdoall.cpp)
0001:0005c050  W?doallocate$:streambuf$:std$n()i
Module: /mnt/sda5/.user/root/src/openwatcom-1.9/rel2/lib386/plbx3r.lib(stfconde.cpp)
0002:0005c1a0  W?$Wvf0Jo19:streambuf$:std$$nx[]pn()v
0001:0005c090  W?$ct:streambuf$:std$n()_
0002:0005c1d0  W?$Wva0Io0:streambuf$:std$$nx[]uc
Module: /mnt/sda5/.user/root/src/openwatcom-1.9/rel2/lib386/plbx3r.lib(iosinit.cpp)
0001:0005c0e0  W?init$:ios$:std$n(pn$streambuf$:2$)v
Module: /mnt/sda5/.user/root/src/openwatcom-1.9/rel2/lib386/plbx3r.lib(iosconde.cpp)
0002:0005c1e0  W?$Wvf0Do19:ios$:std$$nx[]pn()v
0001:0005c130  W?$ct:ios$:std$n()_
0002:0005c1e8  W?$Wva0Co0:ios$:std$$nx[]uc
Module: /mnt/sda5/.user/root/src/openwatcom-1.9/rel2/lib386/plbx3r.lib(iosdestr.cpp)
0002:0005c220+ W?$Wts0Cn$ios$:std$$$nx[]uc
0001:0005c140  W?$dt:ios$:std$n()_
Module: /mnt/sda5/.user/root/src/openwatcom-1.9/rel2/lib386/plbx3r.lib(stfsync.cpp)
0001:0005c1d0  W?sync$:streambuf$:std$n()i
Module: /mnt/sda5/.user/root/src/openwatcom-1.9/rel2/lib386/plbx3r.lib(stfdestr.cpp)
0001:0005c210  W?$dt:streambuf$:std$n()_
Module: /mnt/sda5/.user/root/src/openwatcom-1.9/rel2/lib386/plbx3r.lib(opnewarr.cpp)
0001:0005c230  W?$nan(ui)pnv
Module: /mnt/sda5/.user/root/src/openwatcom-1.9/rel2/lib386/plbx3r.lib(iosfail.cpp)
0001:0005c240  W?$ct:failure$:ios$:std$n(i)_
Module: /mnt/sda5/.user/root/src/openwatcom-1.9/rel2/lib386/plbx3r.lib(bittest.cpp)
0001:0005c250  __wcpp_4_bit_test__
0001:0005c270  __wcpp_4_bit_off__
Module: /mnt/sda5/.user/root/src/openwatcom-1.9/rel2/lib386/plbx3r.lib(termnate.cpp)
0001:0005c290  W?terminate$:std$n()v
Module: /mnt/sda5/.user/root/src/openwatcom-1.9/rel2/lib386/plbx3r.lib(areaexc.cpp)
0002:0005d020  ___EXC_AREA
Module: /mnt/sda5/.user/root/src/openwatcom-1.9/rel2/lib386/plbx3r.lib(tssize.cpp)
0001:0005c2e4  __wcpp_4_ts_size__
Module: /mnt/sda5/.user/root/src/openwatcom-1.9/rel2/lib386/dos/clib3r.lib(_strcmp)
0001:0005c320  strcmp_
Module: /mnt/sda5/.user/root/src/openwatcom-1.9/rel2/lib386/dos/clib3r.lib(enterdb.c)
0001:0005c460  __EnterWVIDEO_
0002:0005e020+ ___WD_Present
Module: /mnt/sda5/.user/root/src/openwatcom-1.9/rel2/lib386/dos/clib3r.lib(xmsg.c)
0001:0005c490  __exit_with_msg_
0001:0005c4a0  __fatal_runtime_error_
Module: /mnt/sda5/.user/root/src/openwatcom-1.9/rel2/lib386/plbx3r.lib(ljmpdtor.cpp)
0001:0005c528  __wcpp_4_lj_handler__
Module: /mnt/sda5/.user/root/src/openwatcom-1.9/rel2/lib386/dos/clib3r.lib(sgdef086)
0002:0005e0a8  __Start_XI
0002:0005e0ea  __End_XI
0002:0005e0ea  __Start_YI
0002:0005e10e  __End_YI
Module: /mnt/sda5/.user/root/src/openwatcom-1.9/rel2/lib386/dos/clib3r.lib(nmemneed.c)
0001:0005c530  __nmemneed_
Module: /mnt/sda5/.user/root/src/openwatcom-1.9/rel2/lib386/dos/clib3r.lib(grownear.c)
0001:0005c5c0+ __FreeDPMIBlocks_
0001:0005c630  __ReAllocDPMIBlock_
0001:0005c7c0+ __LastFree_
0001:0005ca30  __ExpandDGROUP_
Module: /mnt/sda5/.user/root/src/openwatcom-1.9/rel2/lib386/dos/clib3r.lib(cinit.c)
0001:0005cb80  __CommonInit_
Module: /mnt/sda5/.user/root/src/openwatcom-1.9/rel2/lib386/dos/clib3r.lib(___argc.c)
0002:0005e33c  ____Argc
0002:0005e340  ____Argv
Module: /mnt/sda5/.user/root/src/openwatcom-1.9/rel2/lib386/dos/clib3r.lib(histsplt.c)
0002:0005e344  ___historical_splitparms
Module: /mnt/sda5/.user/root/src/openwatcom-1.9/rel2/lib386/dos/clib3r.lib(opendos.c)
0001:0005cbe0  _dos_open_
Module: /mnt/sda5/.user/root/src/openwatcom-1.9/rel2/lib386/dos/clib3r.lib(iomode.c)
0001:0005cc00  __GetIOMode_
0001:0005cc20  __SetIOMode_nogrow_
0002:0005e024  ___NFiles
0002:0005e028  ___init_mode
0002:0005e078  ___io_mode
Module: /mnt/sda5/.user/root/src/openwatcom-1.9/rel2/lib386/dos/clib3r.lib(isatt.c)
0001:0005cc40  isatty_
Module: /mnt/sda5/.user/root/src/openwatcom-1.9/rel2/lib386/dos/clib3r.lib(dosret.c)
0001:0005cc60  _dosretax_
0001:0005cc70* _dosret0_
0001:0005cc80  __set_errno_dos_
0001:0005cd00* __set_errno_dos_reterr_
Module: /mnt/sda5/.user/root/src/openwatcom-1.9/rel2/lib386/dos/clib3r.lib(umaskval.c)
0002:0005e090  ___umaskval
Module: /mnt/sda5/.user/root/src/openwatcom-1.9/rel2/lib386/dos/clib3r.lib(creatdos.c)
0001:0005cd10  _dos_creat_
0001:0005cd30* _dos_creatnew_
Module: /mnt/sda5/.user/root/src/openwatcom-1.9/rel2/lib386/dos/clib3r.lib(stiomode.c)
0001:0005cd50+ __grow_iomode_
0001:0005ce10+ __shrink_iomode_
0001:0005ce40  __SetIOMode_
Module: /mnt/sda5/.user/root/src/openwatcom-1.9/rel2/lib386/dos/clib3r.lib(fsync.c)
0001:0005ceb0  fsync_
Module: /mnt/sda5/.user/root/src/openwatcom-1.9/rel2/lib386/dos/clib3r.lib(gfattdos.c)
0001:0005cec0  _dos_getfileattr_
Module: /mnt/sda5/.user/root/src/openwatcom-1.9/rel2/lib386/dos/clib3r.lib(flushall.c)
0001:0005cee0  __flushall_
0001:0005cf20  flushall_
Module: /mnt/sda5/.user/root/src/openwatcom-1.9/rel2/lib386/dos/clib3r.lib(gtche.c)
0001:0005cf30  getche_
Module: /mnt/sda5/.user/root/src/openwatcom-1.9/rel2/lib386/dos/clib3r.lib(setenvp.c)
0001:0005cf50  __setenvp_
0001:0005d030  __freeenvp_
Module: /mnt/sda5/.user/root/src/openwatcom-1.9/rel2/lib386/dos/clib3r.lib(toupper.c)
0001:0005d080  toupper_
Module: /mnt/sda5/.user/root/src/openwatcom-1.9/rel2/lib386/dos/clib3r.lib(mbdtoupp.c)
0001:0005d090  _mbdtoupper_
Module: /mnt/sda5/.user/root/src/openwatcom-1.9/rel2/lib386/dos/clib3r.lib(intdx386.c)
0001:0005d0b0  intdosx_
Module: /mnt/sda5/.user/root/src/openwatcom-1.9/rel2/lib386/dos/clib3r.lib(inirmsel.c)
0002:0005e350  __ExtenderRealModeSelector
Module: /mnt/sda5/.user/root/src/openwatcom-1.9/rel2/lib386/dos/clib3r.lib(itoa.c)
0001:0005d230+ utoa_
0001:0005d280  itoa_
Module: /mnt/sda5/.user/root/src/openwatcom-1.9/rel2/lib386/dos/clib3r.lib(strupr.c)
0001:0005d2b0  strupr_
Module: /mnt/sda5/.user/root/src/openwatcom-1.9/rel2/lib386/dos/clib3r.lib(noefgfmt.c)
0002:0005e094  ___EFG_printf
0002:0005e098* ___EFG_scanf
Module: /mnt/sda5/.user/root/src/openwatcom-1.9/rel2/lib386/dos/clib3r.lib(lltoa.c)
0001:0005d2f0  ulltoa_
0001:0005d360* lltoa_
Module: /mnt/sda5/.user/root/src/openwatcom-1.9/rel2/lib386/dos/clib3r.lib(ltoa.c)
0001:0005d390  ultoa_
0001:0005d3e0* ltoa_
Module: /mnt/sda5/.user/root/src/openwatcom-1.9/rel2/lib386/dos/clib3r.lib(uprtf.c)
0001:0005d404  __wprtf_
Module: /mnt/sda5/.user/root/src/openwatcom-1.9/rel2/lib386/plbx3r.lib(stfsetb.cpp)
0001:0005e0b0  W?setb$:streambuf$:std$n(pnapnai)v
Module: /mnt/sda5/.user/root/src/openwatcom-1.9/rel2/lib386/dos/clib3r.lib(liballoc.c)
0001:0005e110  _plib_malloc_
0001:0005e120  _plib_free_
Module: /mnt/sda5/.user/root/src/openwatcom-1.9/rel2/lib386/plbx3r.lib(ioufrxal.cpp)
0001:0005e130  W?free_xalloc_storage$:__WATCOM_ios$n(pn$ios$:std$$)v
Module: /mnt/sda5/.user/root/src/openwatcom-1.9/rel2/lib386/dos/clib3r.lib(heapen.c)
0002:0005e09c  ___heap_enabled
Module: /mnt/sda5/.user/root/src/openwatcom-1.9/rel2/lib386/dos/clib3r.lib(minreal.c)
0002:0005e354  ___minreal
Module: /mnt/sda5/.user/root/src/openwatcom-1.9/rel2/lib386/dos/clib3r.lib(amblksiz.c)
0002:0005e0a0  __amblksiz
Module: /mnt/sda5/.user/root/src/openwatcom-1.9/rel2/lib386/dos/clib3r.lib(sbrk386.c)
0001:0005e150* sbrk_
0001:0005e230  __brk_
Module: /mnt/sda5/.user/root/src/openwatcom-1.9/rel2/lib386/dos/clib3r.lib(dpmihost.c)
0001:0005e350  __DPMI_hosted_
Module: /mnt/sda5/.user/root/src/openwatcom-1.9/rel2/lib386/dos/clib3r.lib(nrealloc.c)
0001:0005e3f0* _nrealloc_
0001:0005e3f0  realloc_
Module: /mnt/sda5/.user/root/src/openwatcom-1.9/rel2/lib386/dos/clib3r.lib(iomodtty.c)
0001:0005e490  __ChkTTYIOMode_
0001:0005e4d0* __IOMode_
Module: /mnt/sda5/.user/root/src/openwatcom-1.9/rel2/lib386/dos/clib3r.lib(filedos.c)
0001:0005e4f0* _dos_close_
0001:0005e500  _dos_commit_
Module: /mnt/sda5/.user/root/src/openwatcom-1.9/rel2/lib386/dos/clib3r.lib(clearenv.c)
0001:0005e510  clearenv_
Module: /mnt/sda5/.user/root/src/openwatcom-1.9/rel2/lib386/dos/clib3r.lib(alphabet.c)
0002:000054f8  ___Alphabet
Module: /mnt/sda5/.user/root/src/openwatcom-1.9/rel2/lib386/dos/clib3r.lib(uitoa.c)
0001:0005e5a0+ _utow_
0001:0005e5f0  _itow_
Module: /mnt/sda5/.user/root/src/openwatcom-1.9/rel2/lib386/dos/clib3r.lib(ulltoa.c)
0001:0005e620  _ulltow_
0001:0005e690* _lltow_
Module: /mnt/sda5/.user/root/src/openwatcom-1.9/rel2/lib386/dos/clib3r.lib(ustrupr.c)
0001:0005e6bd  _wcsupr_
Module: /mnt/sda5/.user/root/src/openwatcom-1.9/rel2/lib386/dos/clib3r.lib(ultoa.c)
0001:0005e6f0  _ultow_
0001:0005e750* _ltow_
Module: /mnt/sda5/.user/root/src/openwatcom-1.9/rel2/lib386/dos/clib3r.lib(nmsize.c)
0001:0005e780  _nmsize_
0001:0005e780* _msize_
Module: /mnt/sda5/.user/root/src/openwatcom-1.9/rel2/lib386/dos/clib3r.lib(nexpand.c)
0001:0005e790  _nexpand_
0001:0005e790* _expand_
0001:0005e800+ __HeapManager_expand_


                        +----------------------+
                        |   Imported Symbols   |
                        +----------------------+

Symbol                              Module
======                              ======



                        +--------------------+
                        |   Libraries Used   |
                        +--------------------+

/mnt/sda5/.user/root/src/openwatcom-1.9/rel2/lib386/dos/clib3r.lib
/mnt/sda5/.user/root/src/openwatcom-1.9/rel2/lib386/plbx3r.lib


                        +-----------------------+
                        |   Linker Statistics   |
                        +-----------------------+

Stack size:  00010000 (65536.)
Memory size:  000ccd60 (839008.)
Entry point address: 0001:00056624
Link time: 00:00.64
