Open Watcom Linker Version 1.9
Portions Copyright (c) 1985-2002 Sybase, Inc. All Rights Reserved.
Created on:       12/12/16 02:22:40
Executable Image: mt7r19d.dll
creating an OS/2 32-bit dynamic link library


                        +------------+
                        |   Groups   |
                        +------------+

Group                           Address              Size
=====                           =======              ====

DGROUP                          0002:00000000        00000920



                        +--------------+
                        |   Segments   |
                        +--------------+

Segment                Class          Group          Address         Size
=======                =====          =====          =======         ====

BEGTEXT                CODE           AUTO           0001:00000000   00000007
_TEXT                  CODE           AUTO           0001:00000010   00006a1e
_NULL                  BEGDATA        DGROUP         0002:00000000   00000004
_AFTERNULL             BEGDATA        DGROUP         0002:00000004   00000000
CONST                  DATA           DGROUP         0002:00000004   0000013c
CONST2                 DATA           DGROUP         0002:00000140   00000000
_DATA                  DATA           DGROUP         0002:00000140   000001f8
TIB                    DATA           DGROUP         0002:00000338   00000000
TI                     DATA           DGROUP         0002:00000338   00000000
TIE                    DATA           DGROUP         0002:00000338   00000000
XIB                    DATA           DGROUP         0002:00000338   00000000
XI                     DATA           DGROUP         0002:00000338   00000000
XIE                    DATA           DGROUP         0002:00000338   00000000
YIB                    DATA           DGROUP         0002:00000338   00000000
YI                     DATA           DGROUP         0002:00000338   00000000
YIE                    DATA           DGROUP         0002:00000338   00000000
DATA                   DATA           DGROUP         0002:00000338   00000000
_BSS                   BSS            DGROUP         0002:00000338   000005dc
STACK                  STACK          DGROUP         0002:00000920   00000000


                        +----------------+
                        |   Memory Map   |
                        +----------------+

* = unreferenced symbol
+ = symbol only referenced locally

Address        Symbol
=======        ======

Module: /mnt/sda5/.user/root/src/openwatcom-1.9/bld/clib/startup/library/os2.386/mf_rd/clibdo32.obj(/mnt/sda5/.user/root/src/openwatcom-1.9/bld/clib/startup/c/clibdo32.c)
0001:00000010  __dll_initialize_
0001:00000040  __dll_terminate_
Module: ../../../clib/os2.386/mf_rd/clbrdlld.lib(dstrt386)
0001:00000062  __DLLstart_
0001:00000062* __DLLstartw_
Module: /mnt/sda5/.user/root/src/openwatcom-1.9/bld/mathlib/library/os2.387/mf_rd.dll/math387r.lib(/mnt/sda5/.user/root/src/openwatcom-1.9/bld/mathlib/a/__87ldi2.asm)
0001:000000c0  __87LDI2
0001:000000c0  __87LDI2_
Module: /mnt/sda5/.user/root/src/openwatcom-1.9/bld/mathlib/library/os2.387/mf_rd.dll/math387r.lib(/mnt/sda5/.user/root/src/openwatcom-1.9/bld/mathlib/a/__87ldi4.asm)
0001:000000e0  __87LDI4
0001:000000e0  __87LDI4_
Module: /mnt/sda5/.user/root/src/openwatcom-1.9/bld/mathlib/library/os2.387/mf_rd.dll/math387r.lib(/mnt/sda5/.user/root/src/openwatcom-1.9/bld/mathlib/a/acosl87.asm)
0001:00000100  acosl_
Module: /mnt/sda5/.user/root/src/openwatcom-1.9/bld/mathlib/library/os2.387/mf_rd.dll/math387r.lib(/mnt/sda5/.user/root/src/openwatcom-1.9/bld/mathlib/a/asinl87.asm)
0001:0000010c  asinl_
Module: /mnt/sda5/.user/root/src/openwatcom-1.9/bld/mathlib/library/os2.387/mf_rd.dll/math387r.lib(/mnt/sda5/.user/root/src/openwatcom-1.9/bld/mathlib/a/atanl87.asm)
0001:00000118  atanl_
0001:00000124  atan2l_
Module: /mnt/sda5/.user/root/src/openwatcom-1.9/bld/mathlib/library/os2.387/mf_rd.dll/math387r.lib(/mnt/sda5/.user/root/src/openwatcom-1.9/bld/mathlib/c/atof.c)
0001:00000134  atof_
Module: /mnt/sda5/.user/root/src/openwatcom-1.9/bld/mathlib/library/os2.387/mf_rd.dll/math387r.lib(/mnt/sda5/.user/root/src/openwatcom-1.9/bld/mathlib/c/cabs.c)
0001:0000015f  cabs_
Module: /mnt/sda5/.user/root/src/openwatcom-1.9/bld/mathlib/library/os2.387/mf_rd.dll/math387r.lib(/mnt/sda5/.user/root/src/openwatcom-1.9/bld/mathlib/c/ceil.c)
0001:0000019a  ceil_
Module: /mnt/sda5/.user/root/src/openwatcom-1.9/bld/mathlib/library/os2.387/mf_rd.dll/math387r.lib(/mnt/sda5/.user/root/src/openwatcom-1.9/bld/mathlib/a/fchop87.asm)
0001:000001d0  __CHP
Module: /mnt/sda5/.user/root/src/openwatcom-1.9/bld/mathlib/library/os2.387/mf_rd.dll/math387r.lib(/mnt/sda5/.user/root/src/openwatcom-1.9/bld/mathlib/c/clear87.c)
0001:000001e7  _status87_
0001:0000021b  _clear87_
Module: /mnt/sda5/.user/root/src/openwatcom-1.9/bld/mathlib/library/os2.387/mf_rd.dll/math387r.lib(/mnt/sda5/.user/root/src/openwatcom-1.9/bld/mathlib/c/cnvd2f.c)
0001:00000255  __cnvd2f_
Module: /mnt/sda5/.user/root/src/openwatcom-1.9/bld/mathlib/library/os2.387/mf_rd.dll/math387r.lib(/mnt/sda5/.user/root/src/openwatcom-1.9/bld/mathlib/c/cnvd2ld.c)
0001:00000319  __cnvd2ld_
0001:0000033f  __get__cnvd2ld_
Module: /mnt/sda5/.user/root/src/openwatcom-1.9/bld/mathlib/library/os2.387/mf_rd.dll/math387r.lib(/mnt/sda5/.user/root/src/openwatcom-1.9/bld/mathlib/c/cnvs2d.c)
0001:00000361  __cnvs2d_
0001:0000038c  __get__cnvs2d_
Module: /mnt/sda5/.user/root/src/openwatcom-1.9/bld/mathlib/library/os2.387/mf_rd.dll/math387r.lib(/mnt/sda5/.user/root/src/openwatcom-1.9/bld/mathlib/a/exp87.asm)
0001:00000417  exp_
0001:000003b0  __@DEXP1
0001:000003b8  IF@EXP
0001:000003b8  IF@DEXP
0001:000003ba  __@DEXP
Module: /mnt/sda5/.user/root/src/openwatcom-1.9/bld/mathlib/library/os2.387/mf_rd.dll/math387r.lib(/mnt/sda5/.user/root/src/openwatcom-1.9/bld/mathlib/c/difftime.c)
0001:00000423  difftime_
Module: /mnt/sda5/.user/root/src/openwatcom-1.9/bld/mathlib/library/os2.387/mf_rd.dll/math387r.lib(/mnt/sda5/.user/root/src/openwatcom-1.9/bld/mathlib/c/inf_nan.c)
0001:00000467  ___f_infinity
0001:0000046b  ___f_posqnan
0001:0000046f  ___d_infinity
0001:00000477  ___d_posqnan
0001:0000047f  ___ld_infinity
0001:00000487  ___ld_posqnan
Module: /mnt/sda5/.user/root/src/openwatcom-1.9/bld/mathlib/library/os2.387/mf_rd.dll/math387r.lib(/mnt/sda5/.user/root/src/openwatcom-1.9/bld/mathlib/a/sqrt87.asm)
0001:00000490  sqrt_
0001:000004c0  IF@SQRT
0001:000004c0  IF@DSQRT
0001:000004c2  __@DSQRT
Module: /mnt/sda5/.user/root/src/openwatcom-1.9/bld/mathlib/library/os2.387/mf_rd.dll/math387r.lib(/mnt/sda5/.user/root/src/openwatcom-1.9/bld/mathlib/alias/a/_i__ecvt.asm)
0001:000004f4  __ecvt_
Module: /mnt/sda5/.user/root/src/openwatcom-1.9/bld/mathlib/library/os2.387/mf_rd.dll/math387r.lib(/mnt/sda5/.user/root/src/openwatcom-1.9/bld/mathlib/alias/a/_i_ecvt_.asm)
0001:000004fc  _ecvt_
Module: /mnt/sda5/.user/root/src/openwatcom-1.9/bld/mathlib/library/os2.387/mf_rd.dll/math387r.lib(/mnt/sda5/.user/root/src/openwatcom-1.9/bld/mathlib/c/efcvt.c)
0001:00000578  ecvt_
0001:000005ce  fcvt_
Module: /mnt/sda5/.user/root/src/openwatcom-1.9/bld/mathlib/library/os2.387/mf_rd.dll/math387r.lib(/mnt/sda5/.user/root/src/openwatcom-1.9/bld/mathlib/c/efgfmt.c)
0001:00000629  _EFG_Format_
0001:000007dc  __get_EFG_Format_
Module: /mnt/sda5/.user/root/src/openwatcom-1.9/bld/mathlib/library/os2.387/mf_rd.dll/math387r.lib(/mnt/sda5/.user/root/src/openwatcom-1.9/bld/mathlib/c/evalpoly.c)
0001:000007fe  _EvalPoly_
0001:00000857  _OddPoly_
Module: /mnt/sda5/.user/root/src/openwatcom-1.9/bld/mathlib/library/os2.387/mf_rd.dll/math387r.lib(/mnt/sda5/.user/root/src/openwatcom-1.9/bld/mathlib/alias/a/_i__fcvt.asm)
0001:00000898  __fcvt_
Module: /mnt/sda5/.user/root/src/openwatcom-1.9/bld/mathlib/library/os2.387/mf_rd.dll/math387r.lib(/mnt/sda5/.user/root/src/openwatcom-1.9/bld/mathlib/alias/a/_i_fcvt_.asm)
0001:000008a0  _fcvt_
Module: /mnt/sda5/.user/root/src/openwatcom-1.9/bld/mathlib/library/os2.387/mf_rd.dll/math387r.lib(/mnt/sda5/.user/root/src/openwatcom-1.9/bld/mathlib/c/fdclass.c)
0001:000008a5  _FDClass_
Module: /mnt/sda5/.user/root/src/openwatcom-1.9/bld/mathlib/library/os2.387/mf_rd.dll/math387r.lib(/mnt/sda5/.user/root/src/openwatcom-1.9/bld/mathlib/c/fdsign.c)
0001:00000939  _FDSign_
Module: /mnt/sda5/.user/root/src/openwatcom-1.9/bld/mathlib/library/os2.387/mf_rd.dll/math387r.lib(/mnt/sda5/.user/root/src/openwatcom-1.9/bld/mathlib/c/finite.c)
0001:0000096b  _finite_
Module: /mnt/sda5/.user/root/src/openwatcom-1.9/bld/mathlib/library/os2.387/mf_rd.dll/math387r.lib(/mnt/sda5/.user/root/src/openwatcom-1.9/bld/mathlib/alias/a/_i_finit.asm)
0001:000009ac  finite_
Module: /mnt/sda5/.user/root/src/openwatcom-1.9/bld/mathlib/library/os2.387/mf_rd.dll/math387r.lib(/mnt/sda5/.user/root/src/openwatcom-1.9/bld/mathlib/c/ldclass.c)
0001:000009b1  __LDClass_
0001:00000a3e  _FLClass_
Module: /mnt/sda5/.user/root/src/openwatcom-1.9/bld/mathlib/library/os2.387/mf_rd.dll/math387r.lib(/mnt/sda5/.user/root/src/openwatcom-1.9/bld/mathlib/c/floor.c)
0001:00000a66  floor_
Module: /mnt/sda5/.user/root/src/openwatcom-1.9/bld/mathlib/library/os2.387/mf_rd.dll/math387r.lib(/mnt/sda5/.user/root/src/openwatcom-1.9/bld/mathlib/c/flsign.c)
0001:00000abc* __LDSign_
0001:00000ae7  _FLSign_
Module: /mnt/sda5/.user/root/src/openwatcom-1.9/bld/mathlib/library/os2.387/mf_rd.dll/math387r.lib(/mnt/sda5/.user/root/src/openwatcom-1.9/bld/mathlib/c/frexp.c)
0001:00000b1d  frexp_
Module: /mnt/sda5/.user/root/src/openwatcom-1.9/bld/mathlib/library/os2.387/mf_rd.dll/math387r.lib(/mnt/sda5/.user/root/src/openwatcom-1.9/bld/mathlib/c/fsclass.c)
0001:00000b96  _FSClass_
Module: /mnt/sda5/.user/root/src/openwatcom-1.9/bld/mathlib/library/os2.387/mf_rd.dll/math387r.lib(/mnt/sda5/.user/root/src/openwatcom-1.9/bld/mathlib/c/fssign.c)
0001:00000c14  _FSSign_
Module: /mnt/sda5/.user/root/src/openwatcom-1.9/bld/mathlib/library/os2.387/mf_rd.dll/math387r.lib(/mnt/sda5/.user/root/src/openwatcom-1.9/bld/mathlib/alias/a/_i__gcvt.asm)
0001:00000c40  __gcvt_
Module: /mnt/sda5/.user/root/src/openwatcom-1.9/bld/mathlib/library/os2.387/mf_rd.dll/math387r.lib(/mnt/sda5/.user/root/src/openwatcom-1.9/bld/mathlib/alias/a/_i_gcvt_.asm)
0001:00000c48  _gcvt_
Module: /mnt/sda5/.user/root/src/openwatcom-1.9/bld/mathlib/library/os2.387/mf_rd.dll/math387r.lib(/mnt/sda5/.user/root/src/openwatcom-1.9/bld/mathlib/c/gcvt.c)
0001:00000c4d  gcvt_
Module: /mnt/sda5/.user/root/src/openwatcom-1.9/bld/mathlib/library/os2.387/mf_rd.dll/math387r.lib(/mnt/sda5/.user/root/src/openwatcom-1.9/bld/mathlib/c/hypot.c)
0001:00000d37  hypot_
Module: /mnt/sda5/.user/root/src/openwatcom-1.9/bld/mathlib/library/os2.387/mf_rd.dll/math387r.lib(/mnt/sda5/.user/root/src/openwatcom-1.9/bld/mathlib/a/fabs87.asm)
0001:00000d74  fabs_
0001:00000d81  IF@DABS
0001:00000d81  IF@ABS
Module: /mnt/sda5/.user/root/src/openwatcom-1.9/bld/mathlib/library/os2.387/mf_rd.dll/math387r.lib(/mnt/sda5/.user/root/src/openwatcom-1.9/bld/mathlib/a/acos87.asm)
0001:00000dc3  acos_
0001:00000d84  IF@DACOS
0001:00000d84  IF@ACOS
Module: /mnt/sda5/.user/root/src/openwatcom-1.9/bld/mathlib/library/os2.387/mf_rd.dll/math387r.lib(/mnt/sda5/.user/root/src/openwatcom-1.9/bld/mathlib/a/acosh87.asm)
0001:00000e0a  acosh_
0001:00000dd0  IF@DACOSH
0001:00000dd0  IF@ACOSH
Module: /mnt/sda5/.user/root/src/openwatcom-1.9/bld/mathlib/library/os2.387/mf_rd.dll/math387r.lib(/mnt/sda5/.user/root/src/openwatcom-1.9/bld/mathlib/a/asin87.asm)
0001:00000e33  asin_
0001:00000e18  IF@DASIN
0001:00000e18  IF@ASIN
Module: /mnt/sda5/.user/root/src/openwatcom-1.9/bld/mathlib/library/os2.387/mf_rd.dll/math387r.lib(/mnt/sda5/.user/root/src/openwatcom-1.9/bld/mathlib/a/asinh87.asm)
0001:00000e71  asinh_
0001:00000e40  IF@DASINH
0001:00000e40  IF@ASINH
Module: /mnt/sda5/.user/root/src/openwatcom-1.9/bld/mathlib/library/os2.387/mf_rd.dll/math387r.lib(/mnt/sda5/.user/root/src/openwatcom-1.9/bld/mathlib/a/atan87.asm)
0001:00000eaa  atan_
0001:00000eb6  atan2_
0001:00000e80  IF@ATAN
0001:00000e80  IF@DATAN
0001:00000e95  IF@ATAN2
0001:00000e95  IF@DATAN2
Module: /mnt/sda5/.user/root/src/openwatcom-1.9/bld/mathlib/library/os2.387/mf_rd.dll/math387r.lib(/mnt/sda5/.user/root/src/openwatcom-1.9/bld/mathlib/a/atanh87.asm)
0001:00000f1f  atanh_
0001:00000ec8  IF@DATANH
0001:00000ec8  IF@ATANH
Module: /mnt/sda5/.user/root/src/openwatcom-1.9/bld/mathlib/library/os2.387/mf_rd.dll/math387r.lib(/mnt/sda5/.user/root/src/openwatcom-1.9/bld/mathlib/c/divc16.c)
0001:00000f2b  IF@C16Div
Module: /mnt/sda5/.user/root/src/openwatcom-1.9/bld/mathlib/library/os2.387/mf_rd.dll/math387r.lib(/mnt/sda5/.user/root/src/openwatcom-1.9/bld/mathlib/c/mulc16.c)
0001:0000104f  IF@C16Mul
Module: /mnt/sda5/.user/root/src/openwatcom-1.9/bld/mathlib/library/os2.387/mf_rd.dll/math387r.lib(/mnt/sda5/.user/root/src/openwatcom-1.9/bld/mathlib/c/powc16.c)
0001:000010ad  IF@C16Pow
Module: /mnt/sda5/.user/root/src/openwatcom-1.9/bld/mathlib/library/os2.387/mf_rd.dll/math387r.lib(/mnt/sda5/.user/root/src/openwatcom-1.9/bld/mathlib/c/powic16.c)
0001:00001251  IF@C16PowI
Module: /mnt/sda5/.user/root/src/openwatcom-1.9/bld/mathlib/library/os2.387/mf_rd.dll/math387r.lib(/mnt/sda5/.user/root/src/openwatcom-1.9/bld/mathlib/c/divc20.c)
0001:0000142f  IF@C32Div
Module: /mnt/sda5/.user/root/src/openwatcom-1.9/bld/mathlib/library/os2.387/mf_rd.dll/math387r.lib(/mnt/sda5/.user/root/src/openwatcom-1.9/bld/mathlib/c/mulc20.c)
0001:00001553  IF@C32Mul
Module: /mnt/sda5/.user/root/src/openwatcom-1.9/bld/mathlib/library/os2.387/mf_rd.dll/math387r.lib(/mnt/sda5/.user/root/src/openwatcom-1.9/bld/mathlib/c/powc20.c)
0001:000015b1  IF@C32Pow
Module: /mnt/sda5/.user/root/src/openwatcom-1.9/bld/mathlib/library/os2.387/mf_rd.dll/math387r.lib(/mnt/sda5/.user/root/src/openwatcom-1.9/bld/mathlib/c/powic32.c)
0001:00001623  IF@C32PowI
Module: /mnt/sda5/.user/root/src/openwatcom-1.9/bld/mathlib/library/os2.387/mf_rd.dll/math387r.lib(/mnt/sda5/.user/root/src/openwatcom-1.9/bld/mathlib/c/divc8.c)
0001:0000168f  IF@C8Div
Module: /mnt/sda5/.user/root/src/openwatcom-1.9/bld/mathlib/library/os2.387/mf_rd.dll/math387r.lib(/mnt/sda5/.user/root/src/openwatcom-1.9/bld/mathlib/c/mulc8.c)
0001:00001788  IF@C8Mul
Module: /mnt/sda5/.user/root/src/openwatcom-1.9/bld/mathlib/library/os2.387/mf_rd.dll/math387r.lib(/mnt/sda5/.user/root/src/openwatcom-1.9/bld/mathlib/c/powc8.c)
0001:000017e2  IF@C8Pow
Module: /mnt/sda5/.user/root/src/openwatcom-1.9/bld/mathlib/library/os2.387/mf_rd.dll/math387r.lib(/mnt/sda5/.user/root/src/openwatcom-1.9/bld/mathlib/c/powic8.c)
0001:00001943  IF@C8PowI
Module: /mnt/sda5/.user/root/src/openwatcom-1.9/bld/mathlib/library/os2.387/mf_rd.dll/math387r.lib(/mnt/sda5/.user/root/src/openwatcom-1.9/bld/mathlib/c/ifcdabs.c)
0001:00001ac2  IF@CDABS
Module: /mnt/sda5/.user/root/src/openwatcom-1.9/bld/mathlib/library/os2.387/mf_rd.dll/math387r.lib(/mnt/sda5/.user/root/src/openwatcom-1.9/bld/mathlib/c/ifcdcos.c)
0001:00001b97  IF@CDCOS
Module: /mnt/sda5/.user/root/src/openwatcom-1.9/bld/mathlib/library/os2.387/mf_rd.dll/math387r.lib(/mnt/sda5/.user/root/src/openwatcom-1.9/bld/mathlib/c/ifcdexp.c)
0001:00001c19  IF@CDEXP
Module: /mnt/sda5/.user/root/src/openwatcom-1.9/bld/mathlib/library/os2.387/mf_rd.dll/math387r.lib(/mnt/sda5/.user/root/src/openwatcom-1.9/bld/mathlib/c/ifcdlog.c)
0001:00001c94  IF@CDLOG
Module: /mnt/sda5/.user/root/src/openwatcom-1.9/bld/mathlib/library/os2.387/mf_rd.dll/math387r.lib(/mnt/sda5/.user/root/src/openwatcom-1.9/bld/mathlib/c/ifcdsin.c)
0001:00001d06  IF@CDSIN
Module: /mnt/sda5/.user/root/src/openwatcom-1.9/bld/mathlib/library/os2.387/mf_rd.dll/math387r.lib(/mnt/sda5/.user/root/src/openwatcom-1.9/bld/mathlib/c/ifcdsqrt.c)
0001:00001d86  IF@CDSQRT
Module: /mnt/sda5/.user/root/src/openwatcom-1.9/bld/mathlib/library/os2.387/mf_rd.dll/math387r.lib(/mnt/sda5/.user/root/src/openwatcom-1.9/bld/mathlib/a/trig87.asm)
0001:00002041  sin_
0001:00002035  cos_
0001:00002062  tan_
0001:00001ff4  IF@COS
0001:00001ff4  IF@DCOS
0001:00001ffe  IF@SIN
0001:00001ffe  IF@DSIN
0001:0000204d  IF@TAN
0001:0000204d  IF@DTAN
Module: /mnt/sda5/.user/root/src/openwatcom-1.9/bld/mathlib/library/os2.387/mf_rd.dll/math387r.lib(/mnt/sda5/.user/root/src/openwatcom-1.9/bld/mathlib/a/trigh87.asm)
0001:0000216e  sinh_
0001:00002162  cosh_
0001:0000217a  tanh_
0001:00002070  IF@DSINH
0001:00002070  IF@SINH
0001:000020a4  IF@DCOSH
0001:000020a4  IF@COSH
0001:000020de  IF@DTANH
0001:000020de  IF@TANH
Module: /mnt/sda5/.user/root/src/openwatcom-1.9/bld/mathlib/library/os2.387/mf_rd.dll/math387r.lib(/mnt/sda5/.user/root/src/openwatcom-1.9/bld/mathlib/a/cotan87.asm)
0001:00002188  IF@DCOTAN
0001:00002188  IF@COTAN
Module: /mnt/sda5/.user/root/src/openwatcom-1.9/bld/mathlib/library/os2.387/mf_rd.dll/math387r.lib(/mnt/sda5/.user/root/src/openwatcom-1.9/bld/mathlib/a/fmod87.asm)
0001:000021cf  fmod_
0001:000021b4  IF@DFMOD
0001:000021b4  IF@FMOD
Module: /mnt/sda5/.user/root/src/openwatcom-1.9/bld/mathlib/library/os2.387/mf_rd.dll/math387r.lib(/mnt/sda5/.user/root/src/openwatcom-1.9/bld/mathlib/a/log87.asm)
0001:00002234  log_
0001:0000224c  log2_
0001:00002240  log10_
0001:000021e0  IF@LOG
0001:000021e0  IF@DLOG
0001:00002220  IF@LOG2
0001:00002220  IF@DLOG2
0001:0000222a  IF@LOG10
0001:0000222a  IF@DLOG10
Module: /mnt/sda5/.user/root/src/openwatcom-1.9/bld/mathlib/library/os2.387/mf_rd.dll/math387r.lib(/mnt/sda5/.user/root/src/openwatcom-1.9/bld/mathlib/a/pow87.asm)
0001:000023b1  pow_
0001:00002258  IF@DPOW
0001:00002258  IF@POW
Module: /mnt/sda5/.user/root/src/openwatcom-1.9/bld/mathlib/library/os2.387/mf_rd.dll/math387r.lib(/mnt/sda5/.user/root/src/openwatcom-1.9/bld/mathlib/c/powri.c)
0001:000023c1  IF@POWI
0001:000023f0  IF@DPOWI
0001:000024f9  IF@PowRI
Module: /mnt/sda5/.user/root/src/openwatcom-1.9/bld/mathlib/library/os2.387/mf_rd.dll/math387r.lib(/mnt/sda5/.user/root/src/openwatcom-1.9/bld/mathlib/c/powii.c)
0001:00002528  IF@IPOW
0001:00002606  IF@PowII
Module: /mnt/sda5/.user/root/src/openwatcom-1.9/bld/mathlib/library/os2.387/mf_rd.dll/math387r.lib(/mnt/sda5/.user/root/src/openwatcom-1.9/bld/mathlib/c/powrr.c)
0001:00002633  IF@PowRR
Module: /mnt/sda5/.user/root/src/openwatcom-1.9/bld/mathlib/library/os2.387/mf_rd.dll/math387r.lib(/mnt/sda5/.user/root/src/openwatcom-1.9/bld/mathlib/c/powxi.c)
0001:000026bd  IF@PowXI
Module: /mnt/sda5/.user/root/src/openwatcom-1.9/bld/mathlib/library/os2.387/mf_rd.dll/math387r.lib(/mnt/sda5/.user/root/src/openwatcom-1.9/bld/mathlib/c/j0.c)
0001:00002821  __P0P
0001:00002849  __P0Q
0001:00002879  __Q0P
0001:000028a1  __Q0Q
0001:000028d1  j0_
Module: /mnt/sda5/.user/root/src/openwatcom-1.9/bld/mathlib/library/os2.387/mf_rd.dll/math387r.lib(/mnt/sda5/.user/root/src/openwatcom-1.9/bld/mathlib/c/j1.c)
0001:00002b20  __P1P
0001:00002b48  __P1Q
0001:00002b78  __Q1P
0001:00002ba0  __Q1Q
0001:00002bc8  j1_
Module: /mnt/sda5/.user/root/src/openwatcom-1.9/bld/mathlib/library/os2.387/mf_rd.dll/math387r.lib(/mnt/sda5/.user/root/src/openwatcom-1.9/bld/mathlib/c/jn.c)
0001:00002da8  jn_
Module: /mnt/sda5/.user/root/src/openwatcom-1.9/bld/mathlib/library/os2.387/mf_rd.dll/math387r.lib(/mnt/sda5/.user/root/src/openwatcom-1.9/bld/mathlib/c/ldcvt.c)
0001:00003133  _LDScale10x_
0001:00003705  __LDcvt_
Module: /mnt/sda5/.user/root/src/openwatcom-1.9/bld/mathlib/library/os2.387/mf_rd.dll/math387r.lib(/mnt/sda5/.user/root/src/openwatcom-1.9/bld/mathlib/c/ldexp.c)
0001:00003d1b  ldexp_
Module: /mnt/sda5/.user/root/src/openwatcom-1.9/bld/mathlib/library/os2.387/mf_rd.dll/math387r.lib(/mnt/sda5/.user/root/src/openwatcom-1.9/bld/mathlib/c/math2err.c)
0001:00003e61  __math1err_
0001:00003e91  __math2err_
Module: /mnt/sda5/.user/root/src/openwatcom-1.9/bld/mathlib/library/os2.387/mf_rd.dll/math387r.lib(/mnt/sda5/.user/root/src/openwatcom-1.9/bld/mathlib/a/__mtherr.asm)
0001:00003fd4  __matherr
Module: /mnt/sda5/.user/root/src/openwatcom-1.9/bld/mathlib/library/os2.387/mf_rd.dll/math387r.lib(/mnt/sda5/.user/root/src/openwatcom-1.9/bld/mathlib/c/_matherr.c)
0001:0000407f  _set_matherr_
0001:000040a2  __rterrmsg_
0001:00004104  _matherr_
0002:00000278+ ___matherr_handler
Module: /mnt/sda5/.user/root/src/openwatcom-1.9/bld/mathlib/library/os2.387/mf_rd.dll/math387r.lib(/mnt/sda5/.user/root/src/openwatcom-1.9/bld/mathlib/c/matherr.c)
0001:0000416b  matherr_
Module: /mnt/sda5/.user/root/src/openwatcom-1.9/bld/mathlib/library/os2.387/mf_rd.dll/math387r.lib(/mnt/sda5/.user/root/src/openwatcom-1.9/bld/mathlib/c/qmatherr.c)
0001:000041fc  __qmath1err_
0001:00004241  __qmath2err_
Module: /mnt/sda5/.user/root/src/openwatcom-1.9/bld/mathlib/library/os2.387/mf_rd.dll/math387r.lib(/mnt/sda5/.user/root/src/openwatcom-1.9/bld/mathlib/c/strtod.c)
0001:00004987  __Strtold_
0001:00004b52  strtod_
Module: /mnt/sda5/.user/root/src/openwatcom-1.9/bld/mathlib/library/os2.387/mf_rd.dll/math387r.lib(/mnt/sda5/.user/root/src/openwatcom-1.9/bld/mathlib/alias/a/_iwtof__.asm)
0001:00004ce0  _watof_
Module: /mnt/sda5/.user/root/src/openwatcom-1.9/bld/mathlib/library/os2.387/mf_rd.dll/math387r.lib(/mnt/sda5/.user/root/src/openwatcom-1.9/bld/mathlib/c/_ustrtod.c)
0001:00005410  __wStrtold_
0001:00005601  wcstod_
Module: /mnt/sda5/.user/root/src/openwatcom-1.9/bld/mathlib/library/os2.387/mf_rd.dll/math387r.lib(/mnt/sda5/.user/root/src/openwatcom-1.9/bld/mathlib/c/_uefcvt.c)
0001:00005803  _wecvt_
0001:00005865  _wfcvt_
Module: /mnt/sda5/.user/root/src/openwatcom-1.9/bld/mathlib/library/os2.387/mf_rd.dll/math387r.lib(/mnt/sda5/.user/root/src/openwatcom-1.9/bld/mathlib/c/_ugcvt.c)
0001:000058cc  _wgcvt_
Module: /mnt/sda5/.user/root/src/openwatcom-1.9/bld/mathlib/library/os2.387/mf_rd.dll/math387r.lib(/mnt/sda5/.user/root/src/openwatcom-1.9/bld/mathlib/c/_uatof.c)
0001:0000590d  _wtof_
Module: /mnt/sda5/.user/root/src/openwatcom-1.9/bld/mathlib/library/os2.387/mf_rd.dll/math387r.lib(/mnt/sda5/.user/root/src/openwatcom-1.9/bld/mathlib/c/y0.c)
0001:000059c0  y0_
Module: /mnt/sda5/.user/root/src/openwatcom-1.9/bld/mathlib/library/os2.387/mf_rd.dll/math387r.lib(/mnt/sda5/.user/root/src/openwatcom-1.9/bld/mathlib/c/y1.c)
0001:00005c58  y1_
Module: /mnt/sda5/.user/root/src/openwatcom-1.9/bld/mathlib/library/os2.387/mf_rd.dll/math387r.lib(/mnt/sda5/.user/root/src/openwatcom-1.9/bld/mathlib/c/yn.c)
0001:00005e92  yn_
Module: /mnt/sda5/.user/root/src/openwatcom-1.9/bld/mathlib/library/os2.387/mf_rd.dll/math387r.lib(/mnt/sda5/.user/root/src/openwatcom-1.9/bld/mathlib/a/bufld386.asm)
0001:00005f78  __ZBuf2LD
Module: /mnt/sda5/.user/root/src/openwatcom-1.9/bld/mathlib/library/os2.387/mf_rd.dll/math387r.lib(/mnt/sda5/.user/root/src/openwatcom-1.9/bld/mathlib/c/zmatherr.c)
0001:00006087  __zmath1err_
0001:000060c8  __zmath2err_
Module: /mnt/sda5/.user/root/src/openwatcom-1.9/bld/mathlib/library/os2.387/mf_rd.dll/math387r.lib(/mnt/sda5/.user/root/src/openwatcom-1.9/bld/mathlib/a/modf87.asm)
0001:00006138  modf_
Module: /mnt/sda5/.user/root/src/openwatcom-1.9/bld/mathlib/library/os2.387/mf_rd.dll/math387r.lib(/mnt/sda5/.user/root/src/openwatcom-1.9/bld/mathlib/a/trigl87.asm)
0001:00006154  _cosl_
0001:00006160  _sinl_
0001:0000616c  _tanl_
Module: ../../../clib/os2.386/mf_rd/clbrdlld.lib(/mnt/sda5/.user/root/src/openwatcom-1.9/bld/clib/startup/c/dmndo32.c)
0001:00006180  __LibMain
0002:00000338+ ___Is_DLL
0002:0000033c+ __LpwDllName
0002:00000340+ __LpDllName
Module: ../../../clib/os2.386/mf_rd/clbrdlld.lib(segdefns)
0001:00000003  ___begtext
0002:00000000* __nullarea
0002:00000338  __Start_XI
0002:00000338  __End_XI
0002:00000338  __Start_YI
0002:00000338  __End_YI
Module: /mnt/sda5/.user/root/src/openwatcom-1.9/bld/mathlib/library/os2.387/mf_rd.dll/math387r.lib(/mnt/sda5/.user/root/src/openwatcom-1.9/bld/mathlib/c/math87e.c)
0001:0000627e  __math87_err_
Module: /mnt/sda5/.user/root/src/openwatcom-1.9/bld/mathlib/library/os2.387/mf_rd.dll/math387r.lib(/mnt/sda5/.user/root/src/openwatcom-1.9/bld/mathlib/c/cvt.c)
0001:0000631d  __cvt_
Module: /mnt/sda5/.user/root/src/openwatcom-1.9/bld/mathlib/library/os2.387/mf_rd.dll/math387r.lib(/mnt/sda5/.user/root/src/openwatcom-1.9/bld/mathlib/c/log87e.c)
0001:000063ab  __log87_err_
Module: /mnt/sda5/.user/root/src/openwatcom-1.9/bld/mathlib/library/os2.387/mf_rd.dll/math387r.lib(/mnt/sda5/.user/root/src/openwatcom-1.9/bld/mathlib/c/pow87e.c)
0001:0000640d  __pow87_err_
Module: ../../../clib/os2.386/mf_rd/clbrdlld.lib(/mnt/sda5/.user/root/src/openwatcom-1.9/bld/clib/startup/c/lmaino32.c)
0001:000064c0  LibMain
Module: ../../../clib/os2.386/mf_rd/clbrdlld.lib(/mnt/sda5/.user/root/src/openwatcom-1.9/bld/clib/startup/c/initrtns.c)
0001:00006520  __InitRtns
0001:000065b0  __FiniRtns
Module: ../../../clib/os2.386/mf_rd/clbrdlld.lib(/mnt/sda5/.user/root/src/openwatcom-1.9/bld/clib/startup/c/ddgrpo32.c)
0001:00006750  __disallow_single_dgroup_
Module: ../../../clib/os2.386/mf_rd/clbrdlld.lib(/mnt/sda5/.user/root/src/openwatcom-1.9/bld/clib/startup/c/dcinit.c)
0001:000069d0  __CommonInit_
0002:00000910  ___hmodule
Module: ../../../clib/os2.386/mf_rd/clbrdlld.lib(dosseg)
0000:00001234  __DOSseg__
Module: ../../../clib/os2.386/mf_rd/clbrdlld.lib(/mnt/sda5/.user/root/src/openwatcom-1.9/bld/clib/startup/c/dllmno32.c)
0001:00006a00  DllMain


                        +---------------------+
                        |   Module Segments   |
                        +---------------------+

! = 32-bit segment
c = initialized communal data

Module          Segment               Class           Address         Size
======          =======               =====           =======         ====

/mnt/sda5/.user/root/src/openwatcom-1.9/bld/clib/startup/c/clibdo32.c
                _TEXT                 CODE           0001:00000010  ! 00000051
                CONST                 DATA           0002:00000004  ! 00000000
                CONST2                DATA           0002:00000140  ! 00000000
                _DATA                 DATA           0002:00000140  ! 00000000
dstrt386        _TEXT                 CODE           0001:00000062  ! 0000005c
                _DATA                 DATA           0002:00000140  ! 00000000
/mnt/sda5/.user/root/src/openwatcom-1.9/bld/mathlib/a/__87ldi2.asm
                _TEXT                 CODE           0001:000000c0  ! 0000001e
                _DATA                 DATA           0002:00000140  ! 00000000
/mnt/sda5/.user/root/src/openwatcom-1.9/bld/mathlib/a/__87ldi4.asm
                _TEXT                 CODE           0001:000000e0  ! 0000001d
                _DATA                 DATA           0002:00000140  ! 00000000
/mnt/sda5/.user/root/src/openwatcom-1.9/bld/mathlib/a/acosl87.asm
                _TEXT                 CODE           0001:00000100  ! 0000000c
                _DATA                 DATA           0002:00000140  ! 00000000
/mnt/sda5/.user/root/src/openwatcom-1.9/bld/mathlib/a/asinl87.asm
                _TEXT                 CODE           0001:0000010c  ! 0000000c
                _DATA                 DATA           0002:00000140  ! 00000000
/mnt/sda5/.user/root/src/openwatcom-1.9/bld/mathlib/a/atanl87.asm
                _TEXT                 CODE           0001:00000118  ! 0000001c
                _DATA                 DATA           0002:00000140  ! 00000000
/mnt/sda5/.user/root/src/openwatcom-1.9/bld/mathlib/c/atof.c
                _TEXT                 CODE           0001:00000134  ! 0000002b
                CONST                 DATA           0002:00000004  ! 00000000
                CONST2                DATA           0002:00000140  ! 00000000
                _DATA                 DATA           0002:00000140  ! 00000000
/mnt/sda5/.user/root/src/openwatcom-1.9/bld/mathlib/c/cabs.c
                _TEXT                 CODE           0001:0000015f  ! 0000003b
                CONST                 DATA           0002:00000004  ! 00000000
                CONST2                DATA           0002:00000140  ! 00000000
                _DATA                 DATA           0002:00000140  ! 00000000
/mnt/sda5/.user/root/src/openwatcom-1.9/bld/mathlib/c/ceil.c
                _TEXT                 CODE           0001:0000019a  ! 00000034
                CONST                 DATA           0002:00000004  ! 00000000
                CONST2                DATA           0002:00000140  ! 00000000
                _DATA                 DATA           0002:00000140  ! 00000000
/mnt/sda5/.user/root/src/openwatcom-1.9/bld/mathlib/a/fchop87.asm
                _TEXT                 CODE           0001:000001d0  ! 00000017
                _DATA                 DATA           0002:00000140  ! 00000000
/mnt/sda5/.user/root/src/openwatcom-1.9/bld/mathlib/c/clear87.c
                _TEXT                 CODE           0001:000001e7  ! 0000006e
                CONST                 DATA           0002:00000004  ! 00000000
                CONST2                DATA           0002:00000140  ! 00000000
                _DATA                 DATA           0002:00000140  ! 00000000
/mnt/sda5/.user/root/src/openwatcom-1.9/bld/mathlib/c/cnvd2f.c
                _TEXT                 CODE           0001:00000255  ! 000000c4
                CONST                 DATA           0002:00000004  ! 00000020
                CONST2                DATA           0002:00000140  ! 00000000
                _DATA                 DATA           0002:00000140  ! 00000000
/mnt/sda5/.user/root/src/openwatcom-1.9/bld/mathlib/c/cnvd2ld.c
                _TEXT                 CODE           0001:00000319  ! 00000048
                CONST                 DATA           0002:00000024  ! 00000000
                CONST2                DATA           0002:00000140  ! 00000000
                _DATA                 DATA           0002:00000140  ! 00000000
/mnt/sda5/.user/root/src/openwatcom-1.9/bld/mathlib/c/cnvs2d.c
                _TEXT                 CODE           0001:00000361  ! 0000004d
                CONST                 DATA           0002:00000024  ! 00000000
                CONST2                DATA           0002:00000140  ! 00000000
                _DATA                 DATA           0002:00000140  ! 00000000
/mnt/sda5/.user/root/src/openwatcom-1.9/bld/mathlib/a/exp87.asm
                _TEXT                 CODE           0001:000003b0  ! 00000073
                _DATA                 DATA           0002:00000140  ! 00000010
/mnt/sda5/.user/root/src/openwatcom-1.9/bld/mathlib/c/difftime.c
                _TEXT                 CODE           0001:00000423  ! 00000044
                CONST                 DATA           0002:00000024  ! 00000000
                CONST2                DATA           0002:00000140  ! 00000000
                _DATA                 DATA           0002:00000150  ! 00000000
/mnt/sda5/.user/root/src/openwatcom-1.9/bld/mathlib/c/inf_nan.c
                _TEXT                 CODE           0001:00000467  ! 00000028
                CONST                 DATA           0002:00000024  ! 00000000
                CONST2                DATA           0002:00000140  ! 00000000
                _DATA                 DATA           0002:00000150  ! 00000000
/mnt/sda5/.user/root/src/openwatcom-1.9/bld/mathlib/a/sqrt87.asm
                _TEXT                 CODE           0001:00000490  ! 00000063
                _DATA                 DATA           0002:00000150  ! 00000000
/mnt/sda5/.user/root/src/openwatcom-1.9/bld/mathlib/alias/a/_i__ecvt.asm
                _TEXT                 CODE           0001:000004f4  ! 00000005
                _DATA                 DATA           0002:00000150  ! 00000000
/mnt/sda5/.user/root/src/openwatcom-1.9/bld/mathlib/alias/a/_i_ecvt_.asm
                _TEXT                 CODE           0001:000004fc  ! 00000005
                _DATA                 DATA           0002:00000150  ! 00000000
/mnt/sda5/.user/root/src/openwatcom-1.9/bld/mathlib/c/efcvt.c
                _TEXT                 CODE           0001:00000501  ! 00000128
                CONST                 DATA           0002:00000024  ! 00000000
                CONST2                DATA           0002:00000140  ! 00000000
                _DATA                 DATA           0002:00000150  ! 00000000
/mnt/sda5/.user/root/src/openwatcom-1.9/bld/mathlib/c/efgfmt.c
                _TEXT                 CODE           0001:00000629  ! 000001d5
                CONST                 DATA           0002:00000024  ! 00000000
                CONST2                DATA           0002:00000140  ! 00000000
                _DATA                 DATA           0002:00000150  ! 00000000
/mnt/sda5/.user/root/src/openwatcom-1.9/bld/mathlib/c/evalpoly.c
                _TEXT                 CODE           0001:000007fe  ! 00000097
                CONST                 DATA           0002:00000024  ! 00000000
                CONST2                DATA           0002:00000140  ! 00000000
                _DATA                 DATA           0002:00000150  ! 00000000
/mnt/sda5/.user/root/src/openwatcom-1.9/bld/mathlib/alias/a/_i__fcvt.asm
                _TEXT                 CODE           0001:00000898  ! 00000005
                _DATA                 DATA           0002:00000150  ! 00000000
/mnt/sda5/.user/root/src/openwatcom-1.9/bld/mathlib/alias/a/_i_fcvt_.asm
                _TEXT                 CODE           0001:000008a0  ! 00000005
                _DATA                 DATA           0002:00000150  ! 00000000
/mnt/sda5/.user/root/src/openwatcom-1.9/bld/mathlib/c/fdclass.c
                _TEXT                 CODE           0001:000008a5  ! 00000094
                CONST                 DATA           0002:00000024  ! 00000000
                CONST2                DATA           0002:00000140  ! 00000000
                _DATA                 DATA           0002:00000150  ! 00000000
/mnt/sda5/.user/root/src/openwatcom-1.9/bld/mathlib/c/fdsign.c
                _TEXT                 CODE           0001:00000939  ! 00000032
                CONST                 DATA           0002:00000024  ! 00000000
                CONST2                DATA           0002:00000140  ! 00000000
                _DATA                 DATA           0002:00000150  ! 00000000
/mnt/sda5/.user/root/src/openwatcom-1.9/bld/mathlib/c/finite.c
                _TEXT                 CODE           0001:0000096b  ! 00000041
                CONST                 DATA           0002:00000024  ! 00000000
                CONST2                DATA           0002:00000140  ! 00000000
                _DATA                 DATA           0002:00000150  ! 00000000
/mnt/sda5/.user/root/src/openwatcom-1.9/bld/mathlib/alias/a/_i_finit.asm
                _TEXT                 CODE           0001:000009ac  ! 00000005
                _DATA                 DATA           0002:00000150  ! 00000000
/mnt/sda5/.user/root/src/openwatcom-1.9/bld/mathlib/c/ldclass.c
                _TEXT                 CODE           0001:000009b1  ! 000000b5
                CONST                 DATA           0002:00000024  ! 00000000
                CONST2                DATA           0002:00000140  ! 00000000
                _DATA                 DATA           0002:00000150  ! 00000000
/mnt/sda5/.user/root/src/openwatcom-1.9/bld/mathlib/c/floor.c
                _TEXT                 CODE           0001:00000a66  ! 00000056
                CONST                 DATA           0002:00000024  ! 00000008
                CONST2                DATA           0002:00000140  ! 00000000
                _DATA                 DATA           0002:00000150  ! 00000000
/mnt/sda5/.user/root/src/openwatcom-1.9/bld/mathlib/c/flsign.c
                _TEXT                 CODE           0001:00000abc  ! 00000061
                CONST                 DATA           0002:0000002c  ! 00000000
                CONST2                DATA           0002:00000140  ! 00000000
                _DATA                 DATA           0002:00000150  ! 00000000
/mnt/sda5/.user/root/src/openwatcom-1.9/bld/mathlib/c/frexp.c
                _TEXT                 CODE           0001:00000b1d  ! 00000079
                CONST                 DATA           0002:0000002c  ! 00000000
                CONST2                DATA           0002:00000140  ! 00000000
                _DATA                 DATA           0002:00000150  ! 00000000
/mnt/sda5/.user/root/src/openwatcom-1.9/bld/mathlib/c/fsclass.c
                _TEXT                 CODE           0001:00000b96  ! 0000007e
                CONST                 DATA           0002:0000002c  ! 00000000
                CONST2                DATA           0002:00000140  ! 00000000
                _DATA                 DATA           0002:00000150  ! 00000000
/mnt/sda5/.user/root/src/openwatcom-1.9/bld/mathlib/c/fssign.c
                _TEXT                 CODE           0001:00000c14  ! 0000002c
                CONST                 DATA           0002:0000002c  ! 00000000
                CONST2                DATA           0002:00000140  ! 00000000
                _DATA                 DATA           0002:00000150  ! 00000000
/mnt/sda5/.user/root/src/openwatcom-1.9/bld/mathlib/alias/a/_i__gcvt.asm
                _TEXT                 CODE           0001:00000c40  ! 00000005
                _DATA                 DATA           0002:00000150  ! 00000000
/mnt/sda5/.user/root/src/openwatcom-1.9/bld/mathlib/alias/a/_i_gcvt_.asm
                _TEXT                 CODE           0001:00000c48  ! 00000005
                _DATA                 DATA           0002:00000150  ! 00000000
/mnt/sda5/.user/root/src/openwatcom-1.9/bld/mathlib/c/gcvt.c
                _TEXT                 CODE           0001:00000c4d  ! 000000ea
                CONST                 DATA           0002:0000002c  ! 00000000
                CONST2                DATA           0002:00000140  ! 00000000
                _DATA                 DATA           0002:00000150  ! 00000000
/mnt/sda5/.user/root/src/openwatcom-1.9/bld/mathlib/c/hypot.c
                _TEXT                 CODE           0001:00000d37  ! 0000003b
                CONST                 DATA           0002:0000002c  ! 00000000
                CONST2                DATA           0002:00000140  ! 00000000
                _DATA                 DATA           0002:00000150  ! 00000000
/mnt/sda5/.user/root/src/openwatcom-1.9/bld/mathlib/a/fabs87.asm
                _TEXT                 CODE           0001:00000d74  ! 00000010
                _DATA                 DATA           0002:00000150  ! 00000000
/mnt/sda5/.user/root/src/openwatcom-1.9/bld/mathlib/a/acos87.asm
                _TEXT                 CODE           0001:00000d84  ! 0000004b
                _DATA                 DATA           0002:00000150  ! 0000000a
/mnt/sda5/.user/root/src/openwatcom-1.9/bld/mathlib/a/acosh87.asm
                _TEXT                 CODE           0001:00000dd0  ! 00000046
                _DATA                 DATA           0002:0000015c  ! 00000000
/mnt/sda5/.user/root/src/openwatcom-1.9/bld/mathlib/a/asin87.asm
                _TEXT                 CODE           0001:00000e18  ! 00000027
                _DATA                 DATA           0002:0000015c  ! 00000000
/mnt/sda5/.user/root/src/openwatcom-1.9/bld/mathlib/a/asinh87.asm
                _TEXT                 CODE           0001:00000e40  ! 0000003d
                _DATA                 DATA           0002:0000015c  ! 00000000
/mnt/sda5/.user/root/src/openwatcom-1.9/bld/mathlib/a/atan87.asm
                _TEXT                 CODE           0001:00000e80  ! 00000046
                _DATA                 DATA           0002:0000015c  ! 00000000
/mnt/sda5/.user/root/src/openwatcom-1.9/bld/mathlib/a/atanh87.asm
                _TEXT                 CODE           0001:00000ec8  ! 00000063
                _DATA                 DATA           0002:0000015c  ! 00000002
/mnt/sda5/.user/root/src/openwatcom-1.9/bld/mathlib/c/divc16.c
                _TEXT                 CODE           0001:00000f2b  ! 00000124
                CONST                 DATA           0002:0000002c  ! 00000000
                CONST2                DATA           0002:00000140  ! 00000000
                _DATA                 DATA           0002:00000160  ! 00000000
/mnt/sda5/.user/root/src/openwatcom-1.9/bld/mathlib/c/mulc16.c
                _TEXT                 CODE           0001:0000104f  ! 0000005e
                CONST                 DATA           0002:0000002c  ! 00000000
                CONST2                DATA           0002:00000140  ! 00000000
                _DATA                 DATA           0002:00000160  ! 00000000
/mnt/sda5/.user/root/src/openwatcom-1.9/bld/mathlib/c/powc16.c
                _TEXT                 CODE           0001:000010ad  ! 000001a4
                CONST                 DATA           0002:0000002c  ! 00000008
                CONST2                DATA           0002:00000140  ! 00000000
                _DATA                 DATA           0002:00000160  ! 00000000
/mnt/sda5/.user/root/src/openwatcom-1.9/bld/mathlib/c/powic16.c
                _TEXT                 CODE           0001:00001251  ! 000001de
                CONST                 DATA           0002:00000034  ! 00000008
                CONST2                DATA           0002:00000140  ! 00000000
                _DATA                 DATA           0002:00000160  ! 00000000
/mnt/sda5/.user/root/src/openwatcom-1.9/bld/mathlib/c/divc20.c
                _TEXT                 CODE           0001:0000142f  ! 00000124
                CONST                 DATA           0002:0000003c  ! 00000000
                CONST2                DATA           0002:00000140  ! 00000000
                _DATA                 DATA           0002:00000160  ! 00000000
/mnt/sda5/.user/root/src/openwatcom-1.9/bld/mathlib/c/mulc20.c
                _TEXT                 CODE           0001:00001553  ! 0000005e
                CONST                 DATA           0002:0000003c  ! 00000000
                CONST2                DATA           0002:00000140  ! 00000000
                _DATA                 DATA           0002:00000160  ! 00000000
/mnt/sda5/.user/root/src/openwatcom-1.9/bld/mathlib/c/powc20.c
                _TEXT                 CODE           0001:000015b1  ! 00000072
                CONST                 DATA           0002:0000003c  ! 00000000
                CONST2                DATA           0002:00000140  ! 00000000
                _DATA                 DATA           0002:00000160  ! 00000000
/mnt/sda5/.user/root/src/openwatcom-1.9/bld/mathlib/c/powic32.c
                _TEXT                 CODE           0001:00001623  ! 0000006c
                CONST                 DATA           0002:0000003c  ! 00000000
                CONST2                DATA           0002:00000140  ! 00000000
                _DATA                 DATA           0002:00000160  ! 00000000
/mnt/sda5/.user/root/src/openwatcom-1.9/bld/mathlib/c/divc8.c
                _TEXT                 CODE           0001:0000168f  ! 000000f9
                CONST                 DATA           0002:0000003c  ! 00000000
                CONST2                DATA           0002:00000140  ! 00000000
                _DATA                 DATA           0002:00000160  ! 00000000
/mnt/sda5/.user/root/src/openwatcom-1.9/bld/mathlib/c/mulc8.c
                _TEXT                 CODE           0001:00001788  ! 0000005a
                CONST                 DATA           0002:0000003c  ! 00000000
                CONST2                DATA           0002:00000140  ! 00000000
                _DATA                 DATA           0002:00000160  ! 00000000
/mnt/sda5/.user/root/src/openwatcom-1.9/bld/mathlib/c/powc8.c
                _TEXT                 CODE           0001:000017e2  ! 00000161
                CONST                 DATA           0002:0000003c  ! 00000008
                CONST2                DATA           0002:00000140  ! 00000000
                _DATA                 DATA           0002:00000160  ! 00000000
/mnt/sda5/.user/root/src/openwatcom-1.9/bld/mathlib/c/powic8.c
                _TEXT                 CODE           0001:00001943  ! 0000017f
                CONST                 DATA           0002:00000044  ! 00000004
                CONST2                DATA           0002:00000140  ! 00000000
                _DATA                 DATA           0002:00000160  ! 00000000
/mnt/sda5/.user/root/src/openwatcom-1.9/bld/mathlib/c/ifcdabs.c
                _TEXT                 CODE           0001:00001ac2  ! 000000d5
                CONST                 DATA           0002:00000048  ! 00000000
                CONST2                DATA           0002:00000140  ! 00000000
                _DATA                 DATA           0002:00000160  ! 00000000
/mnt/sda5/.user/root/src/openwatcom-1.9/bld/mathlib/c/ifcdcos.c
                _TEXT                 CODE           0001:00001b97  ! 00000082
                CONST                 DATA           0002:00000048  ! 00000000
                CONST2                DATA           0002:00000140  ! 00000000
                _DATA                 DATA           0002:00000160  ! 00000000
/mnt/sda5/.user/root/src/openwatcom-1.9/bld/mathlib/c/ifcdexp.c
                _TEXT                 CODE           0001:00001c19  ! 0000007b
                CONST                 DATA           0002:00000048  ! 00000000
                CONST2                DATA           0002:00000140  ! 00000000
                _DATA                 DATA           0002:00000160  ! 00000000
/mnt/sda5/.user/root/src/openwatcom-1.9/bld/mathlib/c/ifcdlog.c
                _TEXT                 CODE           0001:00001c94  ! 00000072
                CONST                 DATA           0002:00000048  ! 00000008
                CONST2                DATA           0002:00000140  ! 00000000
                _DATA                 DATA           0002:00000160  ! 00000000
/mnt/sda5/.user/root/src/openwatcom-1.9/bld/mathlib/c/ifcdsin.c
                _TEXT                 CODE           0001:00001d06  ! 00000080
                CONST                 DATA           0002:00000050  ! 00000000
                CONST2                DATA           0002:00000140  ! 00000000
                _DATA                 DATA           0002:00000160  ! 00000000
/mnt/sda5/.user/root/src/openwatcom-1.9/bld/mathlib/c/ifcdsqrt.c
                _TEXT                 CODE           0001:00001d86  ! 0000026c
                CONST                 DATA           0002:00000050  ! 00000030
                CONST2                DATA           0002:00000140  ! 00000000
                _DATA                 DATA           0002:00000160  ! 00000000
/mnt/sda5/.user/root/src/openwatcom-1.9/bld/mathlib/a/trig87.asm
                _TEXT                 CODE           0001:00001ff4  ! 0000007a
                _DATA                 DATA           0002:00000160  ! 0000000a
/mnt/sda5/.user/root/src/openwatcom-1.9/bld/mathlib/a/trigh87.asm
                _TEXT                 CODE           0001:00002070  ! 00000116
                _DATA                 DATA           0002:0000016c  ! 00000008
/mnt/sda5/.user/root/src/openwatcom-1.9/bld/mathlib/a/cotan87.asm
                _TEXT                 CODE           0001:00002188  ! 0000002a
                _DATA                 DATA           0002:00000174  ! 00000000
/mnt/sda5/.user/root/src/openwatcom-1.9/bld/mathlib/a/fmod87.asm
                _TEXT                 CODE           0001:000021b4  ! 0000002b
                _DATA                 DATA           0002:00000174  ! 00000000
/mnt/sda5/.user/root/src/openwatcom-1.9/bld/mathlib/a/log87.asm
                _TEXT                 CODE           0001:000021e0  ! 00000078
                _DATA                 DATA           0002:00000174  ! 00000000
/mnt/sda5/.user/root/src/openwatcom-1.9/bld/mathlib/a/pow87.asm
                _TEXT                 CODE           0001:00002258  ! 00000169
                _DATA                 DATA           0002:00000174  ! 00000000
/mnt/sda5/.user/root/src/openwatcom-1.9/bld/mathlib/c/powri.c
                _TEXT                 CODE           0001:000023c1  ! 00000167
                CONST                 DATA           0002:00000080  ! 00000000
                CONST2                DATA           0002:00000140  ! 00000000
                _DATA                 DATA           0002:00000174  ! 00000000
/mnt/sda5/.user/root/src/openwatcom-1.9/bld/mathlib/c/powii.c
                _TEXT                 CODE           0001:00002528  ! 0000010b
                CONST                 DATA           0002:00000080  ! 00000000
                CONST2                DATA           0002:00000140  ! 00000000
                _DATA                 DATA           0002:00000174  ! 00000000
/mnt/sda5/.user/root/src/openwatcom-1.9/bld/mathlib/c/powrr.c
                _TEXT                 CODE           0001:00002633  ! 0000008a
                CONST                 DATA           0002:00000080  ! 00000000
                CONST2                DATA           0002:00000140  ! 00000000
                _DATA                 DATA           0002:00000174  ! 00000000
/mnt/sda5/.user/root/src/openwatcom-1.9/bld/mathlib/c/powxi.c
                _TEXT                 CODE           0001:000026bd  ! 000000e4
                CONST                 DATA           0002:00000080  ! 00000000
                CONST2                DATA           0002:00000140  ! 00000000
                _DATA                 DATA           0002:00000174  ! 00000000
/mnt/sda5/.user/root/src/openwatcom-1.9/bld/mathlib/c/j0.c
                _TEXT                 CODE           0001:000027a1  ! 000002ff
                CONST                 DATA           0002:00000080  ! 00000020
                CONST2                DATA           0002:00000140  ! 00000000
                _DATA                 DATA           0002:00000174  ! 00000000
/mnt/sda5/.user/root/src/openwatcom-1.9/bld/mathlib/c/j1.c
                _TEXT                 CODE           0001:00002aa0  ! 00000308
                CONST                 DATA           0002:000000a0  ! 00000020
                CONST2                DATA           0002:00000140  ! 00000000
                _DATA                 DATA           0002:00000174  ! 00000000
/mnt/sda5/.user/root/src/openwatcom-1.9/bld/mathlib/c/jn.c
                _TEXT                 CODE           0001:00002da8  ! 00000273
                CONST                 DATA           0002:000000c0  ! 00000028
                CONST2                DATA           0002:00000140  ! 00000000
                _DATA                 DATA           0002:00000174  ! 00000000
/mnt/sda5/.user/root/src/openwatcom-1.9/bld/mathlib/c/ldcvt.c
                _TEXT                 CODE           0001:0000301b  ! 00000d00
                CONST                 DATA           0002:000000e8  ! 00000000
                CONST2                DATA           0002:00000140  ! 00000000
                _DATA                 DATA           0002:00000174  ! 000000a8
/mnt/sda5/.user/root/src/openwatcom-1.9/bld/mathlib/c/ldexp.c
                _TEXT                 CODE           0001:00003d1b  ! 000000da
                CONST                 DATA           0002:000000e8  ! 00000000
                CONST2                DATA           0002:00000140  ! 00000000
                _DATA                 DATA           0002:0000021c  ! 00000000
/mnt/sda5/.user/root/src/openwatcom-1.9/bld/mathlib/c/math2err.c
                _TEXT                 CODE           0001:00003df5  ! 000001df
                CONST                 DATA           0002:000000e8  ! 00000000
                CONST2                DATA           0002:00000140  ! 00000000
                _DATA                 DATA           0002:0000021c  ! 0000005c
/mnt/sda5/.user/root/src/openwatcom-1.9/bld/mathlib/a/__mtherr.asm
                _TEXT                 CODE           0001:00003fd4  ! 00000005
                _DATA                 DATA           0002:00000278  ! 00000000
/mnt/sda5/.user/root/src/openwatcom-1.9/bld/mathlib/c/_matherr.c
                _TEXT                 CODE           0001:00003fd9  ! 00000192
                CONST                 DATA           0002:000000e8  ! 00000000
                CONST2                DATA           0002:00000140  ! 00000000
                _DATA                 DATA           0002:00000278  ! 00000004
/mnt/sda5/.user/root/src/openwatcom-1.9/bld/mathlib/c/matherr.c
                _TEXT                 CODE           0001:0000416b  ! 00000025
                CONST                 DATA           0002:000000e8  ! 00000000
                CONST2                DATA           0002:00000140  ! 00000000
                _DATA                 DATA           0002:0000027c  ! 00000000
/mnt/sda5/.user/root/src/openwatcom-1.9/bld/mathlib/c/qmatherr.c
                _TEXT                 CODE           0001:00004190  ! 00000132
                CONST                 DATA           0002:000000e8  ! 00000000
                CONST2                DATA           0002:00000140  ! 00000000
                _DATA                 DATA           0002:0000027c  ! 0000005c
/mnt/sda5/.user/root/src/openwatcom-1.9/bld/mathlib/c/strtod.c
                _TEXT                 CODE           0001:000042c2  ! 00000a1b
                CONST                 DATA           0002:000000e8  ! 00000000
                CONST2                DATA           0002:00000140  ! 00000000
                _DATA                 DATA           0002:000002d8  ! 00000000
/mnt/sda5/.user/root/src/openwatcom-1.9/bld/mathlib/alias/a/_iwtof__.asm
                _TEXT                 CODE           0001:00004ce0  ! 00000005
                _DATA                 DATA           0002:000002d8  ! 00000000
/mnt/sda5/.user/root/src/openwatcom-1.9/bld/mathlib/c/_ustrtod.c
                _TEXT                 CODE           0001:00004ce5  ! 00000aa7
                CONST                 DATA           0002:000000e8  ! 00000000
                CONST2                DATA           0002:00000140  ! 00000000
                _DATA                 DATA           0002:000002d8  ! 00000000
/mnt/sda5/.user/root/src/openwatcom-1.9/bld/mathlib/c/_uefcvt.c
                _TEXT                 CODE           0001:0000578c  ! 00000140
                CONST                 DATA           0002:000000e8  ! 00000000
                CONST2                DATA           0002:00000140  ! 00000000
                _DATA                 DATA           0002:000002d8  ! 00000000
/mnt/sda5/.user/root/src/openwatcom-1.9/bld/mathlib/c/_ugcvt.c
                _TEXT                 CODE           0001:000058cc  ! 00000041
                CONST                 DATA           0002:000000e8  ! 00000000
                CONST2                DATA           0002:00000140  ! 00000000
                _DATA                 DATA           0002:000002d8  ! 00000000
/mnt/sda5/.user/root/src/openwatcom-1.9/bld/mathlib/c/_uatof.c
                _TEXT                 CODE           0001:0000590d  ! 0000002b
                CONST                 DATA           0002:000000e8  ! 00000000
                CONST2                DATA           0002:00000140  ! 00000000
                _DATA                 DATA           0002:000002d8  ! 00000000
/mnt/sda5/.user/root/src/openwatcom-1.9/bld/mathlib/c/y0.c
                _TEXT                 CODE           0001:00005938  ! 000002a0
                CONST                 DATA           0002:000000e8  ! 00000028
                CONST2                DATA           0002:00000140  ! 00000000
                _DATA                 DATA           0002:000002d8  ! 00000000
/mnt/sda5/.user/root/src/openwatcom-1.9/bld/mathlib/c/y1.c
                _TEXT                 CODE           0001:00005bd8  ! 000002ba
                CONST                 DATA           0002:00000110  ! 00000028
                CONST2                DATA           0002:00000140  ! 00000000
                _DATA                 DATA           0002:000002d8  ! 00000000
/mnt/sda5/.user/root/src/openwatcom-1.9/bld/mathlib/c/yn.c
                _TEXT                 CODE           0001:00005e92  ! 000000e6
                CONST                 DATA           0002:00000138  ! 00000008
                CONST2                DATA           0002:00000140  ! 00000000
                _DATA                 DATA           0002:000002d8  ! 00000000
/mnt/sda5/.user/root/src/openwatcom-1.9/bld/mathlib/a/bufld386.asm
                _TEXT                 CODE           0001:00005f78  ! 000000a3
                _DATA                 DATA           0002:000002d8  ! 00000000
/mnt/sda5/.user/root/src/openwatcom-1.9/bld/mathlib/c/zmatherr.c
                _TEXT                 CODE           0001:0000601b  ! 0000011c
                CONST                 DATA           0002:00000140  ! 00000000
                CONST2                DATA           0002:00000140  ! 00000000
                _DATA                 DATA           0002:000002d8  ! 0000005c
/mnt/sda5/.user/root/src/openwatcom-1.9/bld/mathlib/a/modf87.asm
                _TEXT                 CODE           0001:00006138  ! 00000019
                _DATA                 DATA           0002:00000334  ! 00000000
/mnt/sda5/.user/root/src/openwatcom-1.9/bld/mathlib/a/trigl87.asm
                _TEXT                 CODE           0001:00006154  ! 00000024
                _DATA                 DATA           0002:00000334  ! 00000000
/mnt/sda5/.user/root/src/openwatcom-1.9/bld/clib/startup/c/dmndo32.c
                _TEXT                 CODE           0001:00006180  ! 000000fe
                CONST                 DATA           0002:00000140  ! 00000000
                CONST2                DATA           0002:00000140  ! 00000000
                _DATA                 DATA           0002:00000334  ! 00000000
                _BSS                  BSS            0002:00000338  ! 0000031c
segdefns        _TEXT                 CODE           0001:0000627e  ! 00000000
                _DATA                 DATA           0002:00000334  ! 00000000
                BEGTEXT               CODE           0001:00000000  ! 00000007
                _NULL                 BEGDATA        0002:00000000  ! 00000004
                _AFTERNULL            BEGDATA        0002:00000004  ! 00000000
                CONST                 DATA           0002:00000140  ! 00000000
                TIB                   DATA           0002:00000338  ! 00000000
                TI                    DATA           0002:00000338  ! 00000000
                TIE                   DATA           0002:00000338  ! 00000000
                XIB                   DATA           0002:00000338  ! 00000000
                XI                    DATA           0002:00000338  ! 00000000
                XIE                   DATA           0002:00000338  ! 00000000
                YIB                   DATA           0002:00000338  ! 00000000
                YI                    DATA           0002:00000338  ! 00000000
                YIE                   DATA           0002:00000338  ! 00000000
                DATA                  DATA           0002:00000338  ! 00000000
                _BSS                  BSS            0002:00000654  ! 00000000
                STACK                 STACK          0002:00000920  ! 00010000
/mnt/sda5/.user/root/src/openwatcom-1.9/bld/mathlib/c/math87e.c
                _TEXT                 CODE           0001:0000627e  ! 0000009f
                CONST                 DATA           0002:00000140  ! 00000000
                CONST2                DATA           0002:00000140  ! 00000000
                _DATA                 DATA           0002:00000334  ! 00000000
/mnt/sda5/.user/root/src/openwatcom-1.9/bld/mathlib/c/cvt.c
                _TEXT                 CODE           0001:0000631d  ! 0000008e
                CONST                 DATA           0002:00000140  ! 00000000
                CONST2                DATA           0002:00000140  ! 00000000
                _DATA                 DATA           0002:00000334  ! 00000000
/mnt/sda5/.user/root/src/openwatcom-1.9/bld/mathlib/c/log87e.c
                _TEXT                 CODE           0001:000063ab  ! 00000062
                CONST                 DATA           0002:00000140  ! 00000000
                CONST2                DATA           0002:00000140  ! 00000000
                _DATA                 DATA           0002:00000334  ! 00000000
/mnt/sda5/.user/root/src/openwatcom-1.9/bld/mathlib/c/pow87e.c
                _TEXT                 CODE           0001:0000640d  ! 000000b2
                CONST                 DATA           0002:00000140  ! 00000000
                CONST2                DATA           0002:00000140  ! 00000000
                _DATA                 DATA           0002:00000334  ! 00000000
/mnt/sda5/.user/root/src/openwatcom-1.9/bld/clib/startup/c/lmaino32.c
                _TEXT                 CODE           0001:000064c0  ! 00000029
                CONST                 DATA           0002:00000140  ! 00000000
                CONST2                DATA           0002:00000140  ! 00000000
                _DATA                 DATA           0002:00000334  ! 00000000
/mnt/sda5/.user/root/src/openwatcom-1.9/bld/clib/startup/c/initrtns.c
                _TEXT                 CODE           0001:000064f0  ! 0000015a
                CONST                 DATA           0002:00000140  ! 00000000
                CONST2                DATA           0002:00000140  ! 00000000
                _DATA                 DATA           0002:00000334  ! 00000000
/mnt/sda5/.user/root/src/openwatcom-1.9/bld/clib/startup/c/ddgrpo32.c
                _TEXT                 CODE           0001:00006650  ! 0000037a
                CONST                 DATA           0002:00000140  ! 00000000
                CONST2                DATA           0002:00000140  ! 00000000
                _DATA                 DATA           0002:00000334  ! 00000000
                _BSS                  BSS            0002:00000654  ! 000002ba
/mnt/sda5/.user/root/src/openwatcom-1.9/bld/clib/startup/c/dcinit.c
                _TEXT                 CODE           0001:000069d0  ! 00000021
                CONST                 DATA           0002:00000140  ! 00000000
                CONST2                DATA           0002:00000140  ! 00000000
                _DATA                 DATA           0002:00000334  ! 00000000
                _BSS                  BSS            0002:00000910  ! 00000004
dosseg          _TEXT                 CODE           0001:000069f4  ! 00000000
                _DATA                 DATA           0002:00000334  ! 00000000
/mnt/sda5/.user/root/src/openwatcom-1.9/bld/clib/startup/c/dllmno32.c
                _TEXT                 CODE           0001:00006a00  ! 0000002e
                CONST                 DATA           0002:00000140  ! 00000000
                CONST2                DATA           0002:00000140  ! 00000000
                _DATA                 DATA           0002:00000334  ! 00000004


                        +----------------------+
                        |   Imported Symbols   |
                        +----------------------+

Symbol                              Module
======                              ======

__8087                              clbr19d
__IsTable_br                        clbr19d
__CVTBuffer_                        clbr19d
_LDisDouble_                        clbr19d
memcpy_                             clbr19d
memset_                             clbr19d
__chipbug                           clbr19d
__fpatan_wrap                       clbr19d
__fdiv_fpr                          clbr19d
__fdiv_m64                          clbr19d
__fdiv_m32                          clbr19d
__fdiv_m64r                         clbr19d
__fptan_chk                         clbr19d
__fprem_chk                         clbr19d
__real87                            clbr19d
__set_ERANGE_                       clbr19d
__HugeValue_br                      clbr19d
__get_std_stream_                   clbr19d
fputs_                              clbr19d
fputc_                              clbr19d
__set_EDOM_                         clbr19d
strlen_                             clbr19d
tolower_                            clbr19d
wcstombs_                           clbr19d
_atouni_                            clbr19d
DosQueryModuleName                  DOSCALLS
DosGetInfoBlocks                    DOSCALLS
DosLoadModule                       DOSCALLS
DosQueryProcAddr                    DOSCALLS
DosOpen                             DOSCALLS
DosWrite                            DOSCALLS
DosClose                            DOSCALLS
__amblksiz_br                       clbr19d


                        +--------------------+
                        |   Libraries Used   |
                        +--------------------+

/mnt/sda5/.user/root/src/openwatcom-1.9/bld/mathlib/library/os2.387/mf_rd.dll/math387r.lib
../../../clib/os2.386/mf_rd/clbrdlld.lib
/mnt/sda5/.user/root/src/openwatcom-1.9/rel2/lib386/os2/os2386.lib


                        +-----------------------+
                        |   Linker Statistics   |
                        +-----------------------+

Stack size:  0000 (0.)
Memory size:  734e (29518.)
Link time: 00:00.00
