Open Watcom Linker Version 1.9
Portions Copyright (c) 1985-2002 Sybase, Inc. All Rights Reserved.
Created on:       12/12/16 02:42:17
Executable Image: wprof.exe
creating a DOS/4G executable


                        +------------+
                        |   Groups   |
                        +------------+

Group                           Address              Size
=====                           =======              ====

DGROUP                          0002:00000000        0000bfc0



                        +--------------+
                        |   Segments   |
                        +--------------+

Segment                Class          Group          Address         Size
=======                =====          =====          =======         ====

BEGTEXT                CODE           AUTO           0001:00000000   00000010
_TEXT                  CODE           AUTO           0001:00000010   000443cb
_NULL                  BEGDATA        DGROUP         0002:00000000   00000004
_AFTERNULL             BEGDATA        DGROUP         0002:00000004   00000000
CONST                  DATA           DGROUP         0002:00000004   0000152c
CONST2                 DATA           DGROUP         0002:00001530   00000918
_DATA                  DATA           DGROUP         0002:00001e50   00002930
XIB                    DATA           DGROUP         0002:00004780   00000000
XI                     DATA           DGROUP         0002:00004780   00000042
XIE                    DATA           DGROUP         0002:000047c2   00000000
YIB                    DATA           DGROUP         0002:000047c2   00000000
YI                     DATA           DGROUP         0002:000047c2   00000024
YIE                    DATA           DGROUP         0002:000047e6   00000000
TIB                    DATA           DGROUP         0002:000047e6   00000000
TI                     DATA           DGROUP         0002:000047e6   00000000
TIE                    DATA           DGROUP         0002:000047e6   00000000
DATA                   DATA           DGROUP         0002:000047e6   00000000
_BSS                   BSS            DGROUP         0002:000047e8   000027d8
STACK                  STACK          DGROUP         0002:00006fc0   00005000


                        +----------------+
                        |   Memory Map   |
                        +----------------+

* = unreferenced symbol
+ = symbol only referenced locally

Address        Symbol
=======        ======

Module: srcmgt.obj(/mnt/sda5/.user/root/src/openwatcom-1.9/bld/watcom/c/srcmgt.c)
0001:000000a0* FClearOpenSourceCache_
0001:000000c0  FOpenSource_
0001:00000150* FSize_
0001:00000180* FLastOffset_
0001:000001a0* FileIsRemote_
0001:000001b0* FGetName_
0001:000001c0  FDoneSource_
0001:000003d0* FCurrLine_
0001:000003e0  FReadLine_
0002:00001e50+ _FileList
Module: aboutmsg.obj(/mnt/sda5/.user/root/src/openwatcom-1.9/bld/wprof/c/aboutmsg.c)
0001:00000530  AboutOpen_
0001:00000580* AboutClose_
0001:00000620  AboutSetOff_
0001:00000640  DlgAbout_
0002:00001e5c+ _AboutInfo
Module: clrsamps.obj(/mnt/sda5/.user/root/src/openwatcom-1.9/bld/wprof/c/clrsamps.c)
0001:00000720  ClearMassaged_
0001:00000780  ClearRoutineInfo_
0001:000007e0  ClearFileInfo_
0001:00000840  ClearModuleInfo_
0001:000008a0  ClearSample_
0001:00000aa0* ClearAllSamples_
Module: dipinter.obj(/mnt/sda5/.user/root/src/openwatcom-1.9/bld/wprof/c/dipinter.c)
0001:00000ac0  DIPCliImageUnload_
0001:00000ad0  DIPCliMapAddr_
0001:00000ae0  DIPCliSymCreate_
0001:00000af0  DIPCliItemLocation_
0001:00000b00  DIPCliAssignLocation_
0001:00000b10  DIPCliSameAddrSpace_
0001:00000ba0  DIPCliAddrSection_
0001:00000bb0  DIPCliStatus_
0001:00000bc0  DIPCliCurrMAD_
0001:00000bd0  WPDipInit_
0001:00000c50  WPDipProc_
0001:00000c60  WPDipDestroyProc_
0001:00000c70  WPDipSetProc_
0001:00000c80  WPDipLoadInfo_
0001:00000d20  WPDipFini_
Module: diginter.obj(/mnt/sda5/.user/root/src/openwatcom-1.9/bld/wprof/c/diginter.c)
0001:00000db0  DIGCliAlloc_
0001:00000dc0  DIGCliRealloc_
0001:00000dd0  DIGCliFree_
0001:00000de0  DIGCliOpen_
0001:00000e20  DIGCliSeek_
0001:00000e30  DIGCliRead_
0001:00000e40  DIGCliWrite_
0001:00000e50  DIGCliClose_
0001:00000e60  DIGCliRemove_
0001:00000e70  DIGCliMachineData_
Module: dlgcnvt.obj(/mnt/sda5/.user/root/src/openwatcom-1.9/bld/wprof/c/dlgcnvt.c)
0001:00000ee0  DlgGetConvert_
0002:00002064  _OptDIFFormat
0002:00002065+ _OptCommaFormat
0002:0000487c  _ConvertFile
Module: dlgoptn.obj(/mnt/sda5/.user/root/src/openwatcom-1.9/bld/wprof/c/dlgoptn.c)
0001:000011a0  DlgGetOptions_
0002:00002298+ _OptStretchGlobal
0002:00002299+ _OptAbsBarGlobal
0002:0000229a+ _OptRelBarGlobal
0002:0000229b+ _OptSortCountGlobal
0002:0000229c+ _OptSortNameGlobal
0002:0000229d+ _OptGatherGlobal
0002:000022a0  _OptGatherCut
Module: dlgsamp.obj(/mnt/sda5/.user/root/src/openwatcom-1.9/bld/wprof/c/dlgsamp.c)
0001:000014e0  WPSampFound_
0001:00001580  DlgOpenSample_
Module: getsamps.obj(/mnt/sda5/.user/root/src/openwatcom-1.9/bld/wprof/c/getsamps.c)
0001:00001f20  GetSampleInfo_
0002:00004880  _SIOData
0002:00004884  _CurrSIOData
Module: madinter.obj(/mnt/sda5/.user/root/src/openwatcom-1.9/bld/wprof/c/madinter.c)
0001:00001fa0  MADCliAddrSection_
0001:00001fb0  MADCliAddString_
0001:00001fb0  MADCliMemExpr_
0001:00001fb0  MADCliAddrOvlReturn_
0001:00001fc0  MADCliAddrToString_
0001:00002060  MADCliReadMem_
0001:000020a0  MADCliWriteMem_
0001:000020b0  MADCliString_
0001:00002110  MADCliRadixPrefix_
0001:00002130  MADCliNotify_
0001:00002150  MADCliSystemConfig_
0001:00002160  InitMADInfo_
0001:00002180  FiniMADInfo_
0001:000021b0+ ReportMADFailure_
0001:000022f0  SetCurrentMAD_
0002:000022a8  _DefSysConfig
0002:00004888+ _MADStatus
Module: memutil.obj(/mnt/sda5/.user/root/src/openwatcom-1.9/bld/wprof/c/memutil.c)
0001:00002390  ProfAlloc_
0001:00002390  WndAlloc_
0001:000023a0  WndNoMemory_
0001:000023b0  WndFree_
0001:000023b0  ProfFree_
0001:000023c0  ProfRealloc_
0001:000023c0  WndRealloc_
0001:000023e0  ProfCAlloc_
0001:00002400* WndMemFini_
0001:00002400* WndMemInit_
Module: msg.obj(/mnt/sda5/.user/root/src/openwatcom-1.9/bld/wprof/c/msg.c)
0001:00002600  ErrorMsg_
0001:00002620  fatal_
Module: msgstr.obj(/mnt/sda5/.user/root/src/openwatcom-1.9/bld/wprof/c/msgstr.c)
0002:00001530  __Literal_Assertion_Failed
0002:00001543  __Literal_Cannot_Open_Smp_File
0002:0000155f  __Literal_Cannot_Process_Ovly
0002:0000158b  __Literal_Dip_Find_Failed
0002:000015b1  __Literal_Dip_Info_Failed
0002:000015e3  __Literal_Dip_Init_Failed
0002:00001616  __Literal_Dip_Load_Failed
0002:0000163f  __Literal_Exe_Has_Changed
0002:0000166b  __Literal_Exe_Not_Found
0002:00001686  __Literal_Incompat_Smp_File
0002:000016aa  __Literal_Incompat_Ver_Ovly
0002:000016e9  __Literal_Invalid_Smp_File
0002:00001709  __Literal_Memfull
0002:00001717  __Literal_Memfull_Realloc
0002:00001733  __Literal_Smp_File_IO_Err
0002:00001759* __Literal_Usage
0002:0000177e  __Literal_Usage1
0002:000017a3  __Literal_Usage2
0002:000017c4  __Literal_Usage3
0002:000017d6  __Literal_Usage4
0002:000017dd  __Literal_Usage5
0002:000017e7  __Literal_Usage6
0002:000017fe  __Literal_Usage7
0002:00001813  __Literal_Usage8
0002:00001824  __Literal_Empty_Str
0002:00001825  __Literal_File_Does_Not_Exist
0002:0000183e  __Literal_Bad_System_Load
0002:00001864  __Literal_About_WPROF
0002:00001870  __Literal_WPROF_TITLE
0002:00001885  __Literal_Enter_Sample
0002:0000189c* __Literal_OK_Str
0002:0000189f* __Literal_Cancel_Str
0002:000018a6  __Literal_Unknown_Image
0002:000018b7  __Literal_Unknown_Module
0002:000018c9  __Literal_Unknown_File
0002:000018d9  __Literal_Unknown_Routine
0002:000018ec  __Literal_Gathered_Images
0002:000018ff  __Literal_Gathered_Modules
0002:00001913  __Literal_Gathered_Files
0002:00001925  __Literal_Gathered_Routines
0002:0000193a  __Literal_No_Symbol_Info
0002:00001960  __Literal_No_Routine_Names
0002:00001980  __Literal_Src_File_Not_Found
0002:0000199b  __Literal_Src_File_Not_Known
0002:000019b4  __Literal_Rel_Header
0002:000019b9  __Literal_Abs_Header
0002:000019be  __Literal_Sample_Data
0002:000019c9* __Literal_Smp_File_Raw_Err
0002:000019fd  __Literal_Sample_Header
0002:00001a07  __Literal_Image_Header
0002:00001a10  __Literal_Module_Header
0002:00001a1a  __Literal_File_Header
0002:00001a22  __Literal_Routine_Header
0002:00001a2d  __Literal_Source_Header
0002:00001a3a  __Literal_Image_Names
0002:00001a46  __Literal_Module_Names
0002:00001a53  __Literal_File_Names
0002:00001a5e  __Literal_Routine_Names
0002:00001a6c  __Literal_Source_Line
0002:00001a78  __Literal_Assembler_Instructions
0002:00001a8f  __Literal_Options
0002:00001a97  __Literal_Cmd_Option_Not_Valid
0002:00001abd  __Literal_Unable_To_Open_Src
0002:00001ad8  __Literal_Unable_To_Open_Help
0002:00001af6  __Literal_Convert_Data
0002:00001b0d  __Literal_Convert_File_Name
0002:00001b25  __Literal_Mad_Init_Failed
0002:00001b56  __Literal_LDS_FSEEK_FAILED
0002:00001b67  __Literal_LDS_FREAD_FAILED
0002:00001b78  __Literal_LDS_FOPEN_FAILED
0002:00001b89  __Literal_LMS_INVALID_MAD_VERSION
0002:00001bae  __Literal_LMS_INVALID_MAD
0002:00001bd0  __Literal_LMS_UNREGISTERED_MAD
0002:00001bed  __Literal_LMS_RECURSIVE_MAD_FAILURE
Module: rptsamps.obj(/mnt/sda5/.user/root/src/openwatcom-1.9/bld/wprof/c/rptsamps.c)
0001:00003120  ReportSampleInfo_
Module: setsamps.obj(/mnt/sda5/.user/root/src/openwatcom-1.9/bld/wprof/c/setsamps.c)
0001:000037b0  AddrCmp_
0001:000037d0  GatherSetAll_
0001:000038d0  AbsSetAll_
0001:00003a40  RelSetAll_
0001:00003bb0  StretchSetAll_
0001:00003d10  SortSetAll_
0001:00004710  SetSampleInfo_
Module: support.obj(/mnt/sda5/.user/root/src/openwatcom-1.9/bld/wprof/c/support.c)
0001:000047b0  AsmSize_
0001:000047e0  AsmFini_
0001:000047f0  ExeOpen_
0001:00004800  ExeClose_
0001:000048e0  SetExeOffset_
0001:00004ec0  SetExeImage_
0001:00004f10  SetExeFile_
0001:00005810  AddrImage_
0001:000058f0  MapAddressToActual_
0001:00005970+ MapAddressToMap_
0001:00005a00  MapAddressIntoSection_
0001:00006050  LoadImageOverlays_
0001:00006130  SetNumBytes_
0001:00006140  CodeAdvance_
0001:00006250  FormatAddr_
0001:000062d0  GetFullInstruct_
0001:00006420  CnvAddr_
0001:000064d0  IsX86BigAddr_
0001:000064e0  IsX86RealAddr_
0001:00006500  GetDataByte_
0001:00006520  EndOfSegment_
Module: utils.obj(/mnt/sda5/.user/root/src/openwatcom-1.9/bld/wprof/c/utils.c)
0001:00006540  ReplaceExt_
0001:000065a0  FindFile_
0001:00006680  FullPathOpen_
0001:00006740  PathOpen_
0001:00006760  InitPaths_
0001:000067c0+ AddPath_
0001:000068b0  BigRead_
0001:000068c0  Ring_
0002:000023f0  _HelpPathList
0002:000023f4+ _FilePathList
0002:000023f8+ _DipExePathList
Module: wndimain.obj(/mnt/sda5/.user/root/src/openwatcom-1.9/bld/wprof/c/wndimain.c)
0001:000068d0  WndInitWndMain_
Module: wpasmfil.obj(/mnt/sda5/.user/root/src/openwatcom-1.9/bld/wprof/c/wpasmfil.c)
0001:000068f0  WPGetAsmLoc_
0001:00006970  WPAsmOpen_
0001:00006d30  WPAsmClose_
0001:00006dd0  WPAsmGetLine_
0001:00006ee0  WPAsmFindSrcLine_
Module: wpavals.obj(/mnt/sda5/.user/root/src/openwatcom-1.9/bld/wprof/c/wpavals.c)
0002:000023fc  _WndColours
0002:00002430* _NecColours
0002:00002464  _WndNumColours
0002:00002468  _WndPlainAttr
0002:00002469  _WndTabStopAttr
0002:0000246a  _WndSelectedAttr
0002:0000246b  _WndCursorAttr
0002:0000246c* _WndStatusColour
0002:00002470  _WndFlags
0002:00002474  _WndStyle
Module: wpbar.obj(/mnt/sda5/.user/root/src/openwatcom-1.9/bld/wprof/c/wpbar.c)
0001:00006f20  GetCurrentAbsBar_
0001:00006f90  GetCurrentRelBar_
0001:00007000  GetCurrentMaxBar_
0001:00007080  FlipCurrentAbsBar_
0001:00007140  FlipCurrentRelBar_
0001:00007200  FlipCurrentMaxBar_
Module: wpcnvt.obj(/mnt/sda5/.user/root/src/openwatcom-1.9/bld/wprof/c/wpcnvt.c)
0001:00007790  WPConvert_
Module: wpdriver.obj(/mnt/sda5/.user/root/src/openwatcom-1.9/bld/wprof/c/wpdriver.c)
0001:00007810  WndMainMenuProc_
0001:00007920  OpenSample_
0002:000025b0  _WndMainMenu
0002:00002628  _WndNumMenus
Module: wpgather.obj(/mnt/sda5/.user/root/src/openwatcom-1.9/bld/wprof/c/wpgather.c)
0001:00007950  GetCurrentGather_
0001:000079a0  FlipCurrentGather_
0001:00007a30  GatherCurrent_
0001:00007a90+ GatherImage_
0001:00007b70+ GatherMod_
0001:00007c40+ GatherFile_
0001:00007d10+ GatherRtn_
Module: wpgetrow.obj(/mnt/sda5/.user/root/src/openwatcom-1.9/bld/wprof/c/wpgetrow.c)
0001:00007de0  SImageGetImage_
0001:00007e30  SModGetModule_
0001:00007e80  SFileGetFile_
0001:00007ed0  SRtnGetRoutine_
0001:00007f20  WPGetRow_
Module: wphelp.obj(/mnt/sda5/.user/root/src/openwatcom-1.9/bld/wprof/c/wphelp.c)
0001:000080e0  WPInitHelp_
0001:00008100  WPFiniHelp_
0001:00008120  WPProcHelp_
Module: wpmain.obj(/mnt/sda5/.user/root/src/openwatcom-1.9/bld/wprof/c/wpmain.c)
0001:00008190  GUImain_
0001:000081d0  WndProcMacro_
Module: wpnumrow.obj(/mnt/sda5/.user/root/src/openwatcom-1.9/bld/wprof/c/wpnumrow.c)
0001:00008220  SampleNumRows_
Module: wppushin.obj(/mnt/sda5/.user/root/src/openwatcom-1.9/bld/wprof/c/wppushin.c)
0001:000082e0* WPPopPtr_
0001:00008300  WndDoInput_
0001:00008320+ WPPushEvent_
0001:00008350* WPPushPtrEvent_
0001:00008390+ WPPopEvent_
Module: wpsamp.obj(/mnt/sda5/.user/root/src/openwatcom-1.9/bld/wprof/c/wpsamp.c)
0001:000083c0  WPSampleOpen_
0001:00009aa0+ WPZoomIn_
0001:00009c10+ WPBackOut_
0001:00009c30  WPDoPopUp_
0001:00009c60  WPFindDoPopUp_
0002:000027b0+ _WPSampleInfo
Module: wpsort.obj(/mnt/sda5/.user/root/src/openwatcom-1.9/bld/wprof/c/wpsort.c)
0001:00009fc0  GetCurrentSort_
0001:0000a000  SetCurrentSort_
0001:0000a060  SortCurrent_
0001:0000a0a0+ SortImage_
0001:0000a0d0+ SortMod_
0001:0000a100+ SortFile_
0001:0000a130+ SortRtn_
Module: wpstart.obj(/mnt/sda5/.user/root/src/openwatcom-1.9/bld/wprof/c/wpstart.c)
0002:00002860  _WPWndInitDone
0002:00002864  _WProfDips
0001:0000a260  WPInit_
0001:0000a2e0  WPFini_
0002:00004c10  _SamplePath
Module: wpsrcfil.obj(/mnt/sda5/.user/root/src/openwatcom-1.9/bld/wprof/c/wpsrcfil.c)
0001:0000a5f0  WPSourceGetLine_
0001:0000a670  WPSourceOpen_
0001:0000a7d0  WPSourceClose_
0001:0000a800  WPGetMassgdSampData_
Module: wpwind.obj(/mnt/sda5/.user/root/src/openwatcom-1.9/bld/wprof/c/wpwind.c)
0001:0000aa20  WPGetClientHeight_
0001:0000aa40  WPGetClientWidth_
0001:0000aa70  WPAdjustRowHeight_
0001:0000ab20  WPSetRowHeight_
0001:0000ab30  WPPixelTruncWidth_
0001:0000ab50  WPPixelWidth_
Module: dipman.obj(/mnt/sda5/.user/root/src/openwatcom-1.9/bld/dig/c/dipman.c)
0001:0000ab80* DCSymCreate_
0001:0000ab80+ XDIPCliSymCreate_
0001:0000aba0  DIPInit_
0001:0000abf0  DIPLoad_
0001:0000ac80* DIPRegister_
0001:0000ace0* DIPFiniLatest_
0001:0000ad40  DIPFini_
0001:0000ad90  DIPHandleSize_
0001:0000adb0  DIPMoreMem_
0001:0000adf0* DIPCancel_
0001:0000ae70+ FindImageMapSlot_
0001:0000afa0  DIPCreateProcess_
0001:0000b0f0  DIPSetProcess_
0001:0000b100  DIPDestroyProcess_
0001:0000b130  DIPPriority_
0001:0000b180  DIPLoadInfo_
0001:0000b290  DIPMapInfo_
0001:0000b2f0* DIPUnloadInfo_
0001:0000b340* DIPImagePriority_
0001:0000b390+ WalkImageList_
0001:0000b450  WalkModList_
0001:0000b4b0* WalkTypeList_
0001:0000b740+ WalkSymListEx_
0001:0000b770  WalkSymList_
0001:0000b790* WalkFileList_
0001:0000b840  ImageExtra_
0001:0000b890  ImageDIP_
0001:0000b8e0  ModName_
0001:0000b940  ModSrcLang_
0001:0000b9a0* ModHasInfo_
0001:0000ba10* ModDefault_
0001:0000ba80  ModAddr_
0001:0000bb00* TypeMod_
0001:0000bb50* TypeInfo_
0001:0000bbf0* TypeCreate_
0001:0000bc10* TypePointer_
0001:0000bca0* TypeBase_
0001:0000bd60* TypeAddRef_
0001:0000bdb0* TypeRelease_
0001:0000be00* TypeFreeAll_
0001:0000be40* TypeArrayInfo_
0001:0000bec0* TypeProcInfo_
0001:0000bf20* TypePtrAddrSpace_
0001:0000bf80* TypeThunkAdjust_
0001:0000bfe0* TypeCmp_
0001:0000c040* TypeName_
0001:0000c090* SymMod_
0001:0000c0d0  SymName_
0001:0000c120* SymType_
0001:0000c170  SymLocation_
0001:0000c1b0* SymValue_
0001:0000c1f0  SymInfo_
0001:0000c240* SymParmLocation_
0001:0000c290* SymObjType_
0001:0000c2e0* SymObjLocation_
0001:0000c330  SymCmp_
0001:0000c390* SymAddRef_
0001:0000c3e0* SymRelease_
0001:0000c430* SymFreeAll_
0001:0000c470* CueMod_
0001:0000c4c0  CueFile_
0001:0000c500  CueFileId_
0001:0000c540* CueAdjust_
0001:0000c5a0  CueLine_
0001:0000c5e0* CueColumn_
0001:0000c620  CueAddr_
0001:0000c6a0  LineCue_
0001:0000c730  AddrCue_
0001:0000c7e0  CueCmp_
0001:0000c840  AddrMod_
0001:0000c900  AddrSym_
0001:0000c9c0+ LookupSymEx_
0001:0000cc10* LookupSym_
0001:0000cc20* AddrScope_
0001:0000ccc0* ScopeOuter_
0002:00002870  _DIPDefaults
0002:00002896+ _DIPClientInterface
Module: dipld.obj(/mnt/sda5/.user/root/src/openwatcom-1.9/bld/dig/c/dsx/dipld.c)
0001:0000cf40  DIPSysUnload_
0001:0000cf50  DIPSysLoad_
Module: madman.obj(/mnt/sda5/.user/root/src/openwatcom-1.9/bld/dig/c/madman.c)
0002:000028e4+ _MADClientInterface
0001:0000d030  MADTypeInfoForHost_
0001:0000d0c0  MADInit_
0001:0000d110  MADRegister_
0001:0000d2a0  MADLoad_
0001:0000d430+ MADUnload_
0001:0000d480  MADLoaded_
0001:0000d4c0  MADActiveSet_
0001:0000d4f0* MADStateCreate_
0001:0000d550* MADStateSet_
0001:0000d5c0* MADStateCopy_
0001:0000d5e0+ MADStateDestroy_
0001:0000d630  MADFini_
0001:0000d660* MADWalk_
0001:0000d690  MADNameFile_
0001:0000d710* MADNameDescription_
0001:0000d7a0  MADAddrAdd_
0001:0000d7e0  MADAddrComp_
0001:0000d810* MADAddrDiff_
0001:0000d840* MADAddrMap_
0001:0000d850* MADAddrFlat_
0001:0000d860* MADAddrInterrupt_
0001:0000d890* MADTypeWalk_
0001:0000d8c0* MADTypeName_
0001:0000d8e0* MADTypePreferredRadix_
0001:0000d910* MADTypeForDIPType_
0001:0000d930  MADTypeInfo_
0001:0000da40  MADTypeDefault_
0001:0000e3d0  MADTypeConvert_
0001:0000e8e0  MADTypeToString_
0001:0000e970* MADTypeHandleToString_
0001:0000e9a0* MADRegistersSize_
0001:0000e9b0* MADRegistersHost_
0001:0000e9c0* MADRegistersTarget_
0001:0000e9e0* MADRegSetWalk_
0001:0000ea10* MADRegSetName_
0001:0000ea40* MADRegSetLevel_
0001:0000ea50* MADRegSetDisplayGrouping_
0001:0000ea70* MADRegSetDisplayGetPiece_
0001:0000eac0* MADRegSetDisplayModify_
0001:0000eae0* MADRegSetDisplayToggleList_
0001:0000eaf0* MADRegSetDisplayToggle_
0001:0000eb00* MADRegModified_
0001:0000eb20* MADRegInspectAddr_
0001:0000eb70+ MADRegWalk_
0001:0000ed20* MADRegFullName_
0001:0000ed80* MADRegSpecialGet_
0001:0000edb0* MADRegSpecialSet_
0001:0000ede0* MADRegSpecialName_
0001:0000ee10* MADRegFromContextItem_
0001:0000ee40* MADRegUpdateStart_
0001:0000ee70* MADRegUpdateEnd_
0001:0000ee90* MADCallStackGrowsUp_
0001:0000eeb0* MADCallTypeList_
0001:0000eed0* MADCallBuildFrame_
0001:0000ef20* MADCallReturnReg_
0001:0000ef60* MADCallParmRegList_
0001:0000ef90* MADCallUpStackSize_
0001:0000efa0* MADCallUpStackInit_
0001:0000efd0* MADCallUpStackLevel_
0001:0000f010  MADDisasmDataSize_
0001:0000f030* MADDisasmNameMax_
0001:0000f050  MADDisasm_
0001:0000f0d0  MADDisasmFormat_
0001:0000f0f0  MADDisasmInsSize_
0001:0000f110* MADDisasmInsUndoable_
0001:0000f140* MADDisasmControl_
0001:0000f160* MADDisasmInsNext_
0001:0000f190* MADDisasmInspectAddr_
0001:0000f1e0* MADDisasmMemRefWalk_
0001:0000f210* MADDisasmToggleList_
0001:0000f220* MADDisasmToggle_
0001:0000f240* MADTraceSize_
0001:0000f260* MADTraceInit_
0001:0000f290* MADTraceOne_
0001:0000f2c0* MADTraceHaveRecursed_
0001:0000f2f0* MADTraceSimulate_
0001:0000f320* MADTraceFini_
0001:0000f360* MADUnexpectedBreak_
Module: madld.obj(/mnt/sda5/.user/root/src/openwatcom-1.9/bld/dig/c/dsx/madld.c)
0001:0000f510  MADSysUnload_
0001:0000f520  MADSysLoad_
Module: i64.obj(/mnt/sda5/.user/root/src/openwatcom-1.9/bld/watcom/c/i64.c)
0001:0000f5c0* I32ToI64_
0001:0000f5d0  U32ToU64_
0001:0000f5e0  U64Neg_
0001:0000f610+ U64Add_
0001:0000f630* U64IncDec_
0001:0000f660+ U64Sub_
0001:0000f680* U64Mul_
0001:0000f6f0  U64Div_
0001:0000f7f0* I64Div_
0001:0000f8a0+ U64Cmp_
0001:0000f8e0* U64Test_
0001:0000f900* I64Cmp_
0001:0000f930* I64Test_
0001:0000f960* I64ShiftR_
0001:0000f9b0+ U64ShiftR_
0001:0000fa10* U64Shift_
0001:0000fa20+ U64ShiftL_
Module: finger.obj(/mnt/sda5/.user/root/src/openwatcom-1.9/bld/wprof/c/finger.c)
0002:00002a74  _AboutMessage
0002:00002a8c  _AboutSize
0002:00002a90* _DOS4GOPTIONS
Module: /mnt/sda5/.user/root/src/openwatcom-1.9/bld/aui/dos386/aui.lib(/mnt/sda5/.user/root/src/openwatcom-1.9/bld/aui/c/wndmeth.c)
0001:0000fa50  NoScroll_
0001:0000fa50* WndNoOpen_
0001:0000fa60+ NoGetLine_
0001:0000fa70  NoEndPaint_
0001:0000fa70  NoBegPaint_
0001:0000fa70  NoNotify_
0001:0000fa70  NoModify_
0001:0000fa80  NoRefresh_
0001:0000fa90  NoMenuItem_
0001:0000faa0  NoNumRows_
0001:0000fab0  NoNextRow_
0001:0000fac0+ NoEventProc_
0001:0000fae0  WndMenuItem_
0001:0000fb00  WndFiniCacheLines_
0001:0000fb30  WndKillCacheEntries_
0001:0000fb90  WndKillCacheLines_
0001:0000fd50  WndSetCache_
0001:0000fda0* WndGetLineAbs_
0001:0000fdb0  WndGetLine_
0001:0000fed0  WndFirstMenuItem_
0001:0000fef0* WndNoRow_
0001:0000ff00  WndModify_
0001:0000ff20  WndNotify_
0001:0000ff40  WndBegPaint_
0001:0000ff60  WndEndPaint_
0001:0000ff80  WndRefresh_
0001:0000ffa0  WndEvent_
0001:0000ffb0  WndNumRows_
0001:0000ffc0  WndNextRow_
0002:00002ad8  _NoInfo
0002:00004dc8+ _CacheLine
0002:00005ef8+ _CacheCurr
Module: /mnt/sda5/.user/root/src/openwatcom-1.9/bld/aui/dos386/aui.lib(/mnt/sda5/.user/root/src/openwatcom-1.9/bld/aui/c/wndcreat.c)
0001:0000ffd0* WndSetTitleSize_
0001:0000ffe0* WndSetTitle_
0001:0000fff0* WndGetTitle_
0001:00010240  WndCreateWithStruct_
0001:00010270  WndCreateWithStructAndMenuRes_
0001:000102a0  WndInitCreateStruct_
0001:000102e0  WndCreate_
0001:00010310  WndDestroy_
0001:00010390  WndClose_
0001:000103b0* WndSetMainMenuText_
0001:000103e0* WndSetIcon_
0002:00002b10  _WndMainMenuPtr
0002:00005f00  _WndPopupMenuPtr
Module: /mnt/sda5/.user/root/src/openwatcom-1.9/bld/aui/dos386/aui.lib(/mnt/sda5/.user/root/src/openwatcom-1.9/bld/aui/c/wndshrnk.c)
0001:000103f0* WndShrinkToMouse_
0001:00010580* WndMinimizeWindow_
0001:00010590* WndMaximizeWindow_
0001:000105a0  WndIsMinimized_
0001:000105e0* WndIsMaximized_
0001:000105f0* WndRestoreWindow_
0001:00010600* WndGetRect_
0001:00010610  WndShowWindow_
0001:00010620  WndResizeWindow_
0001:00010630  WndShowAll_
Module: /mnt/sda5/.user/root/src/openwatcom-1.9/bld/aui/dos386/aui.lib(/mnt/sda5/.user/root/src/openwatcom-1.9/bld/aui/c/wndutil.c)
0001:000106b0  WndCharCol_
0001:000106e0  WndLastCharCol_
0001:00010700  WndPrevCharCol_
0001:00010710* WndPrevChar_
0001:00010720  WndCurrToGUIPoint_
0001:00010740  WndCoordToGUIPoint_
0001:000107b0  WndPieceIsTab_
0001:000107e0* WndPieceIsHot_
0001:00010810  WndFindActive_
0001:00010840  WndValid_
0001:00010870  WndDirty_
0001:00010880  WndZapped_
0001:000108a0  WndExtentX_
0001:000108d0* WndFindClass_
0001:000108f0  WndSetWndMax_
0001:00010940  WndNext_
0001:00010970* WndForAllClass_
Module: /mnt/sda5/.user/root/src/openwatcom-1.9/bld/aui/dos386/aui.lib(/mnt/sda5/.user/root/src/openwatcom-1.9/bld/aui/c/wndmsg.c)
0001:000109b0  WndDisplayMessage_
Module: /mnt/sda5/.user/root/src/openwatcom-1.9/bld/aui/dos386/aui.lib(/mnt/sda5/.user/root/src/openwatcom-1.9/bld/aui/c/guimain.c)
0002:00005f04+ _WndScale
0002:00005f0c  _WndMax
0002:00005f14+ _WndScreen
0002:00005f1c+ _WndClickHook
0002:00005f24  _WndMain
0002:00005f28* _WndSwitches
0002:00002b14  _WndMaxDirtyRects
0002:00002b18+ _WndDClick
0002:00002b1c+ _WndIgnoreAllEvents
0001:000109e0* WndGetDClick_
0001:000109f0* WndSetDClick_
0001:00010a70* WndInitWithMenuRes_
0001:00010b30  WndInit_
0001:00010b40  WndShowWndMain_
0001:00010b50  WndFini_
0001:00010b80* WndInitNumRows_
0001:00010d00* WndInstallClickHook_
0001:00011540* WndArrowCursor_
0001:00011570* WndSetCursor_
0001:000115a0  WndHourGlass_
0001:000115b0* WndHourCursor_
0001:000115f0  WndMainEventProc_
Module: /mnt/sda5/.user/root/src/openwatcom-1.9/bld/aui/dos386/aui.lib(/mnt/sda5/.user/root/src/openwatcom-1.9/bld/aui/c/wnddlg.c)
0001:000116a0  DlgGetParent_
0001:000116d0  DlgOpen_
0001:00011710* ResDlgOpen_
Module: /mnt/sda5/.user/root/src/openwatcom-1.9/bld/gui/ui/dos386/gui.lib(/mnt/sda5/.user/root/src/openwatcom-1.9/bld/gui/ui/c/guicheck.c)
0001:00011750  GUIIsChecked_
0001:000117a0  GUISetChecked_
Module: /mnt/sda5/.user/root/src/openwatcom-1.9/bld/gui/ui/dos386/gui.lib(/mnt/sda5/.user/root/src/openwatcom-1.9/bld/gui/c/guindlg.c)
0001:00011810  GUIDlgBuffGetText_
0001:00011b80* GUISetModalDlgs_
0001:00011b90  GUIDlgOpen_
0001:00011bc0  GUIModalDlgOpen_
0001:00011bf0* GUISysModalDlgOpen_
Module: /mnt/sda5/.user/root/src/openwatcom-1.9/bld/gui/ui/dos386/gui.lib(/mnt/sda5/.user/root/src/openwatcom-1.9/bld/gui/ui/c/guixedit.c)
0001:00011c20  GUISetEditText_
0001:00011ce0  GUISetText_
0001:00011e00* GUIClearText_
0001:00011e10* GUISelectAll_
Module: /mnt/sda5/.user/root/src/openwatcom-1.9/bld/aui/dos386/aui.lib(/mnt/sda5/.user/root/src/openwatcom-1.9/bld/aui/c/wndfdlg.c)
0001:00011e20+ DlgGetFileName_
0001:00011e50  DlgFileBrowse_
Module: /mnt/sda5/.user/root/src/openwatcom-1.9/bld/gui/ui/dos386/gui.lib(/mnt/sda5/.user/root/src/openwatcom-1.9/bld/gui/ui/c/guifocus.c)
0001:00011f80  GUISetFocus_
Module: /mnt/sda5/.user/root/src/openwatcom-1.9/bld/gui/ui/dos386/gui.lib(/mnt/sda5/.user/root/src/openwatcom-1.9/bld/gui/ui/c/guixdlg.c)
0001:00011fb0* GUISetJapanese_
0001:00012000  GUIDeleteDialog_
0001:00012040  GUIGetDlgByWnd_
0001:000120b0+ GUIGetControlId_
0001:00012110  GUIGetDialog_
0001:00012120  GUIGetField_
0001:00012160  GUIPushControlEvents_
0001:00012170  GUIPopControlEvents_
0001:000121c0  GUIInsertDialog_
0001:00012250  GUIRefreshControl_
0001:000122b0  GUIGetList_
0001:00012300  GUIGetFocus_
0001:00012370+ GUIDoFreeField_
0001:000124d0+ GUIDoAddControl_
0001:000127c0  GUIDeleteField_
0001:00012930  GUIAddAControl_
0001:00012a10  GUIResizeDialog_
0001:00012b10  GUIFocusChangeNotify_
0001:00012b70  GUIProcessControlNotify_
0001:00012c00  GUIXCreateDialog_
0001:00012ed0  GUIFreeDialog_
0001:00012f20  GUICloseDialog_
0001:00012f50  GUIGetDlgRect_
Module: /mnt/sda5/.user/root/src/openwatcom-1.9/rel2/lib386/dos/math387r.lib(strtod.c)
0001:000134c2+ __Strtold_
0001:00013629  strtod_
Module: /mnt/sda5/.user/root/src/openwatcom-1.9/rel2/lib386/dos/math387r.lib(fchop87)
0001:00013770  __CHP
Module: /mnt/sda5/.user/root/src/openwatcom-1.9/rel2/lib386/dos/emu387.lib(386)
0001:00013788  __init_387_emulator
0001:0001378d* __fini_387_emulator
Module: /mnt/sda5/.user/root/src/openwatcom-1.9/bld/gui/ui/dos386/gui.lib(/mnt/sda5/.user/root/src/openwatcom-1.9/bld/gui/ui/c/guixsys.c)
0001:000137a0+ GUIWndGetEvent_
0001:000137c0  uistartevent_
0001:000137d0  uidoneevent_
0001:00013840  GUICleanup_
0001:00013900  GUIXMain_
0001:00013940  GUIXSetupWnd_
0001:00013970  GUISetBackgroundChar_
0001:00013980+ GUISetupStruct1_
0001:000139a0+ GUISetupStruct2_
0001:00013a70  GUISetupStruct_
0001:00013aa0  GUIXCreateWindow_
0002:00002c38  _GUICurrWnd
0002:00002c3c  _GUIAllEvents
Module: /mnt/sda5/.user/root/src/openwatcom-1.9/bld/gui/ui/dos386/gui.lib(/mnt/sda5/.user/root/src/openwatcom-1.9/bld/gui/c/guimem.c)
0001:00013bd0* GUIMemPrintLine_
0001:00013bd0* GUIMemPrtUsage_
0001:00013bd0  GUIMemClose_
0001:00013bd0  GUIMemOpen_
0001:00013bd0* GUIMemRedirect_
0001:00013be0  GUIMemAlloc_
0001:00013bf0  GUIMemFree_
0001:00013c00  GUIMemRealloc_
Module: /mnt/sda5/.user/root/src/openwatcom-1.9/bld/gui/ui/dos386/gui.lib(/mnt/sda5/.user/root/src/openwatcom-1.9/bld/gui/c/guiisgui.c)
0001:00013c10  GUIIsGUI_
Module: /mnt/sda5/.user/root/src/openwatcom-1.9/bld/gui/ui/dos386/gui.lib(/mnt/sda5/.user/root/src/openwatcom-1.9/bld/gui/ui/c/guispawn.c)
0001:00013c20  GUISpawnStart_
0001:00013c30  GUISpawnEnd_
Module: /mnt/sda5/.user/root/src/openwatcom-1.9/bld/gui/ui/dos386/gui.lib(/mnt/sda5/.user/root/src/openwatcom-1.9/bld/gui/ui/c/guihelp.c)
0001:00013c70  GUIHelpInit_
0001:00013c80  GUIHelpFini_
0001:00013ca0  GUIShowHelp_
0001:00013cf0* GUIShowHtmlHelp_
0001:00013d00+ GUIDisplayHelp_
0001:00013d50* GUIDisplayHelpId_
Module: /mnt/sda5/.user/root/src/openwatcom-1.9/bld/aui/dos386/aui.lib(/mnt/sda5/.user/root/src/openwatcom-1.9/bld/aui/c/wndstat.c)
0001:00013d60  WndCreateStatusWindow_
0001:00013d90* WndHaveStatusWindow_
0001:00013db0* WndCloseStatusWindow_
0001:00013df0  WndStatusText_
0001:00013e40  GUIClearStatusText_
0001:00013e60  WndResetStatusText_
0001:00013e70  WndInternalStatusText_
0002:00005f58+ _WndStatusString
Module: /mnt/sda5/.user/root/src/openwatcom-1.9/bld/aui/dos386/aui.lib(/mnt/sda5/.user/root/src/openwatcom-1.9/bld/aui/c/wndscrol.c)
0001:00013ec0* WndFixedThumb_
0001:00013ef0* WndSetThumbPercent_
0001:00013f00* WndSetThumbPos_
0001:00013f10* WndSetVScrollRange_
0001:00013f20  WndResetScroll_
0001:00013f30* WndVScrollWidth_
0001:00013f50* WndHasNumRows_
0001:00013f60  WndSetThumb_
0001:000140d0  WndScrollAbs_
0001:000140e0  WndScroll_
0001:00014100  WndSetHScroll_
0001:00014150+ WndCurrHScrollPos_
0001:000141d0  WndHScrollToCurr_
0001:000141f0  WndHScrollNotify_
Module: /mnt/sda5/.user/root/src/openwatcom-1.9/bld/aui/dos386/aui.lib(/mnt/sda5/.user/root/src/openwatcom-1.9/bld/aui/c/wndfront.c)
0001:00014230  WndToFront_
0001:00014240* WndRestoreToFront_
0001:00014270  WndNextNonIconToFront_
0001:00014290* WndChooseNew_
Module: /mnt/sda5/.user/root/src/openwatcom-1.9/bld/aui/dos386/aui.lib(/mnt/sda5/.user/root/src/openwatcom-1.9/bld/aui/c/wndcurr.c)
0001:000142d0  WndSetPoint_
0001:00014570  WndGetCurrent_
0001:000145a0  WndNewCurrent_
0001:000145d0* WndMoveCurrent_
0001:00014630  WndHasCurrent_
0001:00014640  WndNoCurrent_
0001:00014660* WndCurrRow_
0001:00014690  WndNextCurrent_
0001:00014770  WndPrevCurrent_
0001:00014890  WndFirstCurrent_
0001:000148b0  WndLastCurrent_
0001:000148f0  WndCheckCurrentValid_
0001:00014990  WndCurrVisible_
0001:00014a40  WndDirtyCurr_
0001:00014a90  WndDirtyCurrChar_
0001:00014ac0  WndSetCurrCol_
Module: /mnt/sda5/.user/root/src/openwatcom-1.9/bld/gui/ui/dos386/gui.lib(/mnt/sda5/.user/root/src/openwatcom-1.9/bld/gui/ui/c/guidrawr.c)
0001:00014d50* GUIDrawRect_
0001:00014d70* GUIFillRect_
0001:00014d90  GUIFillBar_
0001:00014db0  GUIDrawLine_
0001:00014e70* GUIDrawRectRGB_
0001:00014e70* GUIFillRectRGB_
0001:00014e80* GUIDrawLineRGB_
Module: /mnt/sda5/.user/root/src/openwatcom-1.9/bld/aui/dos386/aui.lib(/mnt/sda5/.user/root/src/openwatcom-1.9/bld/aui/c/wnddirt.c)
0001:00014fe0  WndDirtyScreenRange_
0001:00015000  WndDirtyScreenChar_
0001:00015020  WndDirtyScreenPiece_
0001:00015040  WndAdjustDirt_
0001:00015070  WndDirtyScreenRow_
0001:00015090* WndDirtyRect_
0001:000150d0  WndRowDirty_
0001:00015110* WndRowDirtyImmed_
0001:00015150* WndPieceDirty_
0001:00015190* WndStopRefresh_
0001:000151a0+ WndPaintDirt_
0001:00015510  WndFreshAll_
0002:00002c5c  _WndDoingRefresh
Module: /mnt/sda5/.user/root/src/openwatcom-1.9/bld/aui/dos386/aui.lib(/mnt/sda5/.user/root/src/openwatcom-1.9/bld/aui/c/wndpop.c)
0001:00015580+ CalcMaxId_
0001:000155d0* NullPopupMenu_
0001:00015660  WndAddPopupMenu_
0001:00015760  WndNullPopItem_
0001:00015870+ WndSelPopPiece_
0001:00015ab0  WndSelPopItem_
0001:00015b00+ WndKeyPopItem_
0001:00015b70  WndPopUp_
0001:00015c00+ WndChangeMenuAll_
0001:00015c80  WndMenuEnableAll_
0001:00015ca0  WndMenuGrayAll_
0001:00015cd0* WndMenuIgnoreAll_
0001:00015d00* WndMenuRespectAll_
0001:00015d20+ DoMenuBitOn_
0001:00015db0  WndMenuCheck_
0001:00015dc0  WndMenuEnable_
0001:00015de0* WndMenuIgnore_
0001:00015df0+ WndCreateFloatingPopup_
0001:00015e40  WndInvokePopUp_
0001:00015f70* WndKeyPopUp_
0001:00015fa0  WndRowPopUp_
0001:00015fe0* WndSetMainMenu_
0001:00016010  WndClick_
0001:000160e0  WndSetPopup_
0001:00016170* WndEnableMainMenu_
0001:000161d0* WndCheckMainMenu_
Module: /mnt/sda5/.user/root/src/openwatcom-1.9/bld/aui/dos386/aui.lib(/mnt/sda5/.user/root/src/openwatcom-1.9/bld/aui/c/wndsel.c)
0001:00016220  WndSelectEvent_
0001:000162a0  WndSelEnds_
0001:000162e0  WndSelected_
0001:00016420  WndSelSetStart_
0001:00016450  WndSelGetEndPiece_
0001:00016490* WndSelSetEnd_
0001:000164b0  WndSelPieceChange_
0001:000165a0  WndSelChange_
0001:000165c0  WndNoSelect_
0001:00016650* WndSelRow_
0001:00016680  SetWndMenuRow_
0001:000166d0  WndToSelectMode_
0001:00016720  WndEndSelectEvent_
0002:00005fac  _WndMenuRow
0002:00005fb0  _WndMenuPiece
Module: /mnt/sda5/.user/root/src/openwatcom-1.9/bld/gui/ui/dos386/gui.lib(/mnt/sda5/.user/root/src/openwatcom-1.9/bld/gui/ui/c/guicrect.c)
0001:00016730  GUIGetClientRect_
0001:00016750* GUIGetPaintRect_
Module: /mnt/sda5/.user/root/src/openwatcom-1.9/bld/gui/ui/dos386/gui.lib(/mnt/sda5/.user/root/src/openwatcom-1.9/bld/gui/ui/c/guigscrl.c)
0001:00016780* GUIGetHScrollCol_
0001:000167a0* GUIGetVScrollRow_
0001:000167c0  GUIGetHScroll_
0001:000167f0* GUIGetVScroll_
Module: /mnt/sda5/.user/root/src/openwatcom-1.9/bld/gui/ui/dos386/gui.lib(/mnt/sda5/.user/root/src/openwatcom-1.9/bld/gui/ui/c/guirect.c)
0001:00016820  GUIGetRect_
Module: /mnt/sda5/.user/root/src/openwatcom-1.9/bld/gui/ui/dos386/gui.lib(/mnt/sda5/.user/root/src/openwatcom-1.9/bld/gui/c/guipixel.c)
0001:000168a0  GUITruncToPixel_
Module: /mnt/sda5/.user/root/src/openwatcom-1.9/rel2/lib386/dos/math387r.lib(ldcvt.c)
0001:00016996  _LDScale10x_
0001:00016f62  __LDcvt_
Module: /mnt/sda5/.user/root/src/openwatcom-1.9/bld/gui/ui/dos386/gui.lib(/mnt/sda5/.user/root/src/openwatcom-1.9/bld/gui/ui/c/guistext.c)
0001:000173b0  GUISetWindowText_
0001:000173d0* GUIGetWindowTextLength_
0001:00017400  GUIGetWindowText_
Module: /mnt/sda5/.user/root/src/openwatcom-1.9/bld/gui/ui/dos386/gui.lib(/mnt/sda5/.user/root/src/openwatcom-1.9/bld/gui/c/guicreat.c)
0001:00017450  GUICreateWindow_
0002:00002d08  _GUIMDI
Module: /mnt/sda5/.user/root/src/openwatcom-1.9/bld/gui/ui/dos386/gui.lib(/mnt/sda5/.user/root/src/openwatcom-1.9/bld/gui/c/guiextra.c)
0001:000174b0  GUISetExtra_
0001:000174c0  GUIGetExtra_
Module: /mnt/sda5/.user/root/src/openwatcom-1.9/bld/aui/dos386/aui.lib(/mnt/sda5/.user/root/src/openwatcom-1.9/bld/aui/c/wndclean.c)
0001:000174d0  WndCleanUp_
Module: /mnt/sda5/.user/root/src/openwatcom-1.9/bld/gui/ui/dos386/gui.lib(/mnt/sda5/.user/root/src/openwatcom-1.9/bld/gui/ui/c/guixwind.c)
0001:00017510* GUIWantPartialRows_
0001:00017530  GUIFreeWindowMemory_
0001:000176e0  GUIDestroyDialog_
0001:000176f0  GUICloseWnd_
0001:00017720  GUIDestroyWnd_
0001:00017730  GUIGetRow_
0001:00017760* GUIGetCol_
0001:00017790* GUIShowWindowNA_
0001:00017790  GUIShowWindow_
0001:000177a0* GUIHideWindow_
0001:000177b0* GUIIsWindowVisible_
0001:000177c0* GUIIsFirstInstance_
Module: /mnt/sda5/.user/root/src/openwatcom-1.9/bld/gui/ui/dos386/gui.lib(/mnt/sda5/.user/root/src/openwatcom-1.9/bld/gui/ui/c/guimenu.c)
0001:00017930  GUIFreeMenuItems_
0001:00017970+ GUIAllocMenuItems_
0001:00017b30  GUIGetMenuPopupCount_
0001:00017b70  GUIEnableMenuItem_
0001:00017be0  GUISetMenuText_
0001:00017c70  GUICheckMenuItem_
0001:00017cd0  GUIChangeMenu_
0001:00017d50+ GUIGetNumIgnore_
0001:00017d80  GUICreateMenuItems_
0001:00017e10+ GUIAllocVBarMenu_
0001:00018150  GUICreateMenus_
0001:000181d0+ GUIFreeVBarMenu_
0001:00018200  GUIFreeMenus_
0001:00018240  GUISetBetweenTitles_
0001:00018250* GUIAppendMenuByOffset_
0001:00018390  GUIDeleteMenuItem_
0001:00018420  GUIDeleteToolbarMenuItem_
0001:00018490  GUIResetMenus_
0001:00018530* GUIEnableMenus_
0001:000185c0+ GUIInsertMenu_
0001:00018640* GUIInsertMenuByID_
0001:000186c0* GUIAppendMenu_
0001:00018710  GUIAppendToolbarMenu_
0001:00018760+ AddMenuItemToPopup_
0001:000187f0  GUIAppendMenuToPopup_
0001:00018810  GUIInsertMenuToPopup_
Module: /mnt/sda5/.user/root/src/openwatcom-1.9/bld/gui/ui/dos386/gui.lib(/mnt/sda5/.user/root/src/openwatcom-1.9/bld/gui/ui/c/guisicon.c)
0001:00018830  GUISetIcon_
Module: /mnt/sda5/.user/root/src/openwatcom-1.9/bld/gui/ui/dos386/gui.lib(/mnt/sda5/.user/root/src/openwatcom-1.9/bld/gui/ui/c/guimouse.c)
0001:00018880  GUIGetMousePosn_
Module: /mnt/sda5/.user/root/src/openwatcom-1.9/bld/gui/ui/dos386/gui.lib(/mnt/sda5/.user/root/src/openwatcom-1.9/bld/gui/ui/c/guisize.c)
0001:00018a80* GUISetCheckResizeAreaForChildren_
0001:00018aa0  GUICheckResizeAreaForChildren_
0001:00018b60  GUICheckResizeAreaForParent_
0001:00018e80  GUICheckMove_
0001:00019010  GUICheckArea_
0001:00019160  GUIWndMoveSize_
0001:00019290+ GUICalcIconArea_
0001:00019460  GUIZoomWnd_
0001:000195b0  GUIResizeWindow_
0001:00019650  GUISetRestoredSize_
0001:000196a0* GUIGetRestoredSize_
0001:000196f0  GUIMinimizeWindow_
0001:00019710  GUIMaximizeWindow_
0001:00019730  GUIRestoreWindow_
0001:00019750  GUIIsMaximized_
0001:00019760  GUIIsMinimized_
Module: /mnt/sda5/.user/root/src/openwatcom-1.9/bld/gui/ui/dos386/gui.lib(/mnt/sda5/.user/root/src/openwatcom-1.9/bld/gui/c/guizlist.c)
0001:000197a0  GUIDeleteFromList_
0001:000197f0  GUIFrontOfList_
0001:00019810  GUIGetFront_
0001:00019820  GUIGetNextWindow_
0001:00019840  GUIIsValidWindow_
Module: /mnt/sda5/.user/root/src/openwatcom-1.9/bld/gui/ui/dos386/gui.lib(/mnt/sda5/.user/root/src/openwatcom-1.9/bld/gui/ui/c/guiclen.c)
0001:00019870  GUICharLen_
0001:00019880* GUIIsDBCS_
Module: /mnt/sda5/.user/root/src/openwatcom-1.9/bld/gui/ui/dos386/gui.lib(/mnt/sda5/.user/root/src/openwatcom-1.9/bld/gui/ui/c/guixtent.c)
0001:00019890  GUIGetExtentX_
0001:000198f0* GUIGetControlExtentX_
0001:00019900* GUIGetControlExtentY_
0001:00019910* GUIGetExtentY_
Module: /mnt/sda5/.user/root/src/openwatcom-1.9/bld/gui/ui/dos386/gui.lib(/mnt/sda5/.user/root/src/openwatcom-1.9/bld/gui/ui/c/guidirty.c)
0001:00019930  GUIWndDirty_
Module: /mnt/sda5/.user/root/src/openwatcom-1.9/bld/aui/dos386/aui.lib(/mnt/sda5/.user/root/src/openwatcom-1.9/bld/aui/c/wndresiz.c)
0001:000199c0  WndMainResized_
Module: /mnt/sda5/.user/root/src/openwatcom-1.9/bld/gui/ui/dos386/gui.lib(/mnt/sda5/.user/root/src/openwatcom-1.9/bld/gui/ui/c/guixdisp.c)
0001:00019ae0+ DisplayMessage_
0001:00019b10+ GUIStrnDup_
0001:00019b80+ TabFilter_
0001:00019df0+ AdjustVert_
0001:00019f60  GUIDisplayMessage_
Module: /mnt/sda5/.user/root/src/openwatcom-1.9/bld/gui/ui/dos386/gui.lib(/mnt/sda5/.user/root/src/openwatcom-1.9/bld/gui/ui/c/guidbclk.c)
0001:0001a160  GUISetDClickRate_
Module: /mnt/sda5/.user/root/src/openwatcom-1.9/bld/gui/ui/dos386/gui.lib(/mnt/sda5/.user/root/src/openwatcom-1.9/bld/gui/c/guirscal.c)
0001:0001a180  GUIGetRoundScale_
Module: /mnt/sda5/.user/root/src/openwatcom-1.9/bld/gui/ui/dos386/gui.lib(/mnt/sda5/.user/root/src/openwatcom-1.9/bld/gui/c/guiscale.c)
0001:0001a1e0  GUISetScale_
0001:0001a210  GUIGetScale_
0001:0001a240  GUISetScreen_
0001:0001a260  GUIGetScreen_
0001:0001a290+ GUIConvert_
0001:0001a320  GUIConvertRect_
0001:0001a360+ GUIConvertPoint_
0001:0001a3b0* GUIScaleToScreen_
0001:0001a3d0  GUIScaleToScreenR_
0001:0001a3f0* GUIScreenToScale_
0001:0001a410  GUIScreenToScaleR_
0001:0001a430  GUIScaleToScreenRPt_
0001:0001a450* GUIScreenToScaleRPt_
Module: /mnt/sda5/.user/root/src/openwatcom-1.9/bld/gui/ui/dos386/gui.lib(/mnt/sda5/.user/root/src/openwatcom-1.9/bld/gui/ui/c/guixinit.c)
0001:0001a470  GUIGetWindowStyles_
0001:0001a480  GUIWndInit_
0001:0001a5a0* GUISetF10Menus_
0001:0001a5c0  GUIIsInit_
Module: /mnt/sda5/.user/root/src/openwatcom-1.9/bld/gui/ui/dos386/gui.lib(/mnt/sda5/.user/root/src/openwatcom-1.9/bld/gui/c/guiimmdi.c)
0001:0001a5d0  GUIMDIInitMenuOnly_
Module: /mnt/sda5/.user/root/src/openwatcom-1.9/bld/gui/ui/dos386/gui.lib(/mnt/sda5/.user/root/src/openwatcom-1.9/bld/gui/ui/c/guistub.c)
0001:0001a620* GUIGetEditSelect_
0001:0001a620* GUISetEditSelect_
0001:0001a620* GUIIsControlEnabled_
0001:0001a620* GUIEnableControl_
0001:0001a620* GUISetHorizontalExtent_
0001:0001a620  GUI3DDialogInit_
0001:0001a620* GUIFontsSupported_
0001:0001a620* GUISetSystemFont_
0001:0001a620* GUISetFontInfo_
0001:0001a620* GUIChangeFont_
0001:0001a630  GUISetMouseCursor_
0001:0001a630* GUIGetFontFromUser_
0001:0001a630* GUIGetFontInfo_
0001:0001a640* GUIScrollCaret_
0001:0001a640* GUIShowControl_
0001:0001a640* GUIHideControl_
0001:0001a640  GUIResetMouseCursor_
Module: /mnt/sda5/.user/root/src/openwatcom-1.9/bld/gui/ui/dos386/gui.lib(/mnt/sda5/.user/root/src/openwatcom-1.9/bld/gui/ui/c/guicolor.c)
0001:0001a670  GUIXSetColours_
0001:0001a730* GUIGetBack_
0001:0001a740* GUIGetFore_
0001:0001a750  GUIMakeColour_
0001:0001a760* GUISetWindowColours_
0001:0001a7a0  GUISetDialColours_
0001:0001aae0  GUIResetDialColours_
0001:0001ab10  GUISetBackgroundColour_
0001:0001ab30* GUIGetDialogColours_
0001:0001ab70* GUISetDialogColours_
0001:0001abb0+ GetColour_
0001:0001abd0  GUIXGetWindowColours_
0001:0001ac20* GUIGetRGBFromUser_
0001:0001ac20* GUIGetRGB_
0001:0001ac20* GUISetRGB_
0001:0001ac30* GUIGetWndColour_
0001:0001ac70* GUISetWndColour_
Module: /mnt/sda5/.user/root/src/openwatcom-1.9/bld/aui/dos386/aui.lib(/mnt/sda5/.user/root/src/openwatcom-1.9/bld/aui/c/wndsysin.c)
0001:0001aca0  WndSysInit_
Module: /mnt/sda5/.user/root/src/openwatcom-1.9/bld/aui/dos386/aui.lib(/mnt/sda5/.user/root/src/openwatcom-1.9/bld/aui/c/wndmnsz.c)
0001:0001acb0  WndSetWndMainSize_
Module: /mnt/sda5/.user/root/src/openwatcom-1.9/bld/aui/dos386/aui.lib(/mnt/sda5/.user/root/src/openwatcom-1.9/bld/aui/c/wndbgch.c)
0002:00002ffc  _WndBackgroundChar
Module: /mnt/sda5/.user/root/src/openwatcom-1.9/bld/gui/ui/dos386/gui.lib(/mnt/sda5/.user/root/src/openwatcom-1.9/bld/gui/ui/c/guixdraw.c)
0001:0001ace0  GUIInitDrawingChars_
0001:0001aea0  GUIGetCharacter_
0001:0001aec0* GUISetCharacter_
0001:0001b670  GUIWndRfrshArea_
0001:0001b820  GUIWndUpdate_
0002:00005fd4  _DrawingChars
Module: /mnt/sda5/.user/root/src/openwatcom-1.9/bld/aui/dos386/aui.lib(/mnt/sda5/.user/root/src/openwatcom-1.9/bld/aui/c/wndshthk.c)
0001:0001b890  WndShutDownHook_
Module: /mnt/sda5/.user/root/src/openwatcom-1.9/bld/gui/ui/dos386/gui.lib(/mnt/sda5/.user/root/src/openwatcom-1.9/bld/gui/ui/c/guigetnr.c)
0001:0001b8a0  GUIGetNumRows_
Module: /mnt/sda5/.user/root/src/openwatcom-1.9/bld/gui/ui/dos386/gui.lib(/mnt/sda5/.user/root/src/openwatcom-1.9/bld/gui/ui/c/guitextm.c)
0001:0001b8b0  GUIGetTextMetrics_
0001:0001b8e0  GUIGetDlgTextMetrics_
0001:0001b8f0* GUIGetMaxDialogSize_
Module: /mnt/sda5/.user/root/src/openwatcom-1.9/bld/gui/ui/dos386/gui.lib(/mnt/sda5/.user/root/src/openwatcom-1.9/bld/gui/ui/c/guirange.c)
0001:0001b950  GUISetHScrollRange_
0001:0001b980* GUISetVScrollRange_
0001:0001b9c0* GUISetHScrollRangeCols_
0001:0001b9e0  GUISetVScrollRangeRows_
0001:0001ba00+ GUIGetVScrollRangeRows_
0001:0001ba20* GUIGetVScrollRange_
0001:0001ba50+ GUIGetHScrollRangeCols_
0001:0001ba70* GUIGetHScrollRange_
Module: /mnt/sda5/.user/root/src/openwatcom-1.9/bld/aui/dos386/aui.lib(/mnt/sda5/.user/root/src/openwatcom-1.9/bld/aui/c/wndrszhk.c)
0001:0001baa0  WndResizeHook_
Module: /mnt/sda5/.user/root/src/openwatcom-1.9/bld/aui/dos386/aui.lib(/mnt/sda5/.user/root/src/openwatcom-1.9/bld/aui/c/wndchoos.c)
0001:0001bab0  WndChooseEvent_
0001:0001bb10* WndDoneChoose_
0001:0001bb20  WndKeyEscape_
0001:0001bb40* WndStartChoose_
0001:0001bb50  WndSayMatchMode_
0001:0001bca0  WndKeyChoose_
0001:0001bea0  WndKeyRubOut_
Module: /mnt/sda5/.user/root/src/openwatcom-1.9/bld/aui/dos386/aui.lib(/mnt/sda5/.user/root/src/openwatcom-1.9/bld/aui/c/wndmouse.c)
0001:0001bf40* WndGetMouseRow_
0001:0001c000  WndLButtonDown_
0001:0001c0e0  WndLButtonUp_
0001:0001c1b0  WndLDblClk_
0001:0001c230  WndRButtonDown_
0001:0001c330  WndRButtonUp_
0001:0001c3c0  WndMouseButtonIsDown_
0001:0001c3e0  WndIgnoreMouseMove_
0001:0001c400  WndMouseMove_
Module: /mnt/sda5/.user/root/src/openwatcom-1.9/bld/aui/dos386/aui.lib(/mnt/sda5/.user/root/src/openwatcom-1.9/bld/aui/c/wndcrsr.c)
0001:0001c480+ WndAtTop_
0001:0001c620  WndScrollUp_
0001:0001c670  WndScrollDown_
0001:0001c6c0  WndCursorUp_
0001:0001c6e0  WndCursorDown_
0001:0001c720  WndPageUp_
0001:0001c740  WndPageDown_
0001:0001c760  WndTabLeft_
0001:0001c7d0  WndCursorLeft_
0001:0001c870  WndTabRight_
0001:0001c8d0  WndCursorRight_
0001:0001c960  WndScrollTop_
0001:0001c980  WndScrollBottom_
0001:0001c9a0  WndCursorStart_
0001:0001c9b0  WndCursorEnd_
Module: /mnt/sda5/.user/root/src/openwatcom-1.9/bld/aui/dos386/aui.lib(/mnt/sda5/.user/root/src/openwatcom-1.9/bld/aui/c/wndfonhk.c)
0001:0001c9c0  WndFontHook_
Module: /mnt/sda5/.user/root/src/openwatcom-1.9/bld/gui/ui/dos386/gui.lib(/mnt/sda5/.user/root/src/openwatcom-1.9/bld/gui/ui/c/guistat.c)
0001:0001ca30  GUICreateStatusWindow_
0001:0001cac0  GUIResizeStatusWindow_
0001:0001cb40  GUIDrawStatus_
0001:0001cbd0  GUIDrawStatusText_
0001:0001cc30  GUIHasStatus_
0001:0001cc40  GUIFreeStatus_
0001:0001cc80  GUIResizeStatus_
0001:0001ccb0  GUICloseStatusWindow_
Module: /mnt/sda5/.user/root/src/openwatcom-1.9/bld/aui/dos386/aui.lib(/mnt/sda5/.user/root/src/openwatcom-1.9/bld/aui/c/wndpaint.c)
0001:0001d120+ WndPaintRows_
0001:0001d280  WndProcPaint_
0001:0001d2a0* WndForcePaint_
Module: /mnt/sda5/.user/root/src/openwatcom-1.9/bld/gui/ui/dos386/gui.lib(/mnt/sda5/.user/root/src/openwatcom-1.9/bld/gui/ui/c/guiflush.c)
0001:0001d2d0  GUIFlushKeys_
Module: /mnt/sda5/.user/root/src/openwatcom-1.9/bld/aui/dos386/aui.lib(/mnt/sda5/.user/root/src/openwatcom-1.9/bld/aui/c/wndchar.c)
0001:0001d2e0* WndSetIDChars_
0001:0001d2f0  WndIDChar_
0001:0001d340  WndKeyChar_
Module: /mnt/sda5/.user/root/src/openwatcom-1.9/bld/aui/dos386/aui.lib(/mnt/sda5/.user/root/src/openwatcom-1.9/bld/aui/c/wndqryhk.c)
0001:0001d350  WndQueryEndSessionHook_
Module: /mnt/sda5/.user/root/src/openwatcom-1.9/bld/aui/dos386/aui.lib(/mnt/sda5/.user/root/src/openwatcom-1.9/bld/aui/c/wndendhk.c)
0001:0001d360  WndEndSessionHook_
Module: /mnt/sda5/.user/root/src/openwatcom-1.9/bld/aui/dos386/aui.lib(/mnt/sda5/.user/root/src/openwatcom-1.9/bld/aui/c/wndtool.c)
0001:0001d370* WndCreateToolBar_
0001:0001d3e0* WndCreateToolBarWithTips_
0001:0001d450* WndHaveToolBar_
0001:0001d460* WndCloseToolBar_
0001:0001d480* WndToolHeight_
0001:0001d490* WndToolFixed_
0001:0001d4a0  WndSetToolBar_
0002:00006030+ _ToolHeight
Module: /mnt/sda5/.user/root/src/openwatcom-1.9/bld/aui/dos386/aui.lib(/mnt/sda5/.user/root/src/openwatcom-1.9/bld/aui/c/wndldstr.c)
0001:0001d4c0  WndLoadString_
Module: /mnt/sda5/.user/root/src/openwatcom-1.9/bld/aui/dos386/aui.lib(/mnt/sda5/.user/root/src/openwatcom-1.9/bld/aui/c/wndspawn.c)
0001:0001d530* Spawn_
0001:0001d570  SpawnP_
0001:0001d5b0* Suicide_
Module: /mnt/sda5/.user/root/src/openwatcom-1.9/bld/gui/ui/dos386/gui.lib(/mnt/sda5/.user/root/src/openwatcom-1.9/bld/gui/c/guidlg.c)
0001:0001d610  GUICreateDialog_
0001:0001d620  GUICreateResDialog_
0001:0001d640  GUICreateSysModalDialog_
Module: /mnt/sda5/.user/root/src/openwatcom-1.9/bld/gui/ui/dos386/gui.lib(/mnt/sda5/.user/root/src/openwatcom-1.9/bld/gui/ui/c/guigtext.c)
0001:0001d720  GUIGetText_
0001:0001d740  GUIGetListItem_
Module: /mnt/sda5/.user/root/src/openwatcom-1.9/bld/gui/ui/dos386/gui.lib(/mnt/sda5/.user/root/src/openwatcom-1.9/bld/gui/ui/c/guismetr.c)
0001:0001d750  GUIGetSystemMetrics_
Module: /mnt/sda5/.user/root/src/openwatcom-1.9/bld/gui/ui/dos386/gui.lib(/mnt/sda5/.user/root/src/openwatcom-1.9/bld/gui/c/guisdef.c)
0002:00006038  ___LITApplIcon
0002:0000603c  ___LITEmpty
0002:00006040  ___LITBrightGreen
0002:00006044  ___LITOS2_Dialog_Font
0002:00006048  ___LITBrightCyan
0002:0000604c  ___LITBrightBlue
0002:00006050  ___LITBrightRed
0002:00006054  ___LITBlank
0002:00006058  ___LITBrightYellow
0002:0000605c  ___LITTable_of_Contents
0002:00006060  ___LITInternal_Last_Message
0002:00006064  ___LITBrightWhite
0002:00006068  ___LITBrightMagenta
0002:0000606c  ___LITWhite
0002:00006070  ___LITWindows_Dialog_Font
0002:00006074  ___LITGrey
0002:00006078  ___LITXNo
0002:0000607c  ___LITXIgnore
0002:00006080  ___LITBlack
0002:00006084  ___LITFix_Toolbar_Hint
0002:00006088  ___LITCyan
0002:0000608c  ___LITBrown
0002:00006090  ___LITBlue
0002:00006094  ___LITGreen
0002:00006098  ___LITExclamation
0002:0000609c  ___LITXAbort
0002:000060a0  ___LITWindow_Name_Hint
0002:000060a4  ___LITColour
0002:000060a8  ___LITXFix_Toolbar
0002:000060ac  ___LITStop_Bang
0002:000060b0  ___LITMagenta
0002:000060b4  ___LITRed
0002:000060b8  ___LITXRetry
0002:000060bc  ___LITSelect_Window
0002:000060c0  ___LITXYes
0002:000060c4  ___LITNexXt
0002:000060c8  ___LITArrange_Icons_Hint
0002:000060cc  ___LITClose
0002:000060d0  ___LITFDlg_Open_Text
0002:000060d4  ___LITTile_Horz_Hint
0002:000060d8  ___LITCascade_Hint
0002:000060dc  ___LITTile_XVert
0002:000060e0  ___LITTile_Vert_Hint
0002:000060e4  ___LITTile_XHorz
0002:000060e8  ___LITRestore
0002:000060ec  ___LITMove
0002:000060f0  ___LITMore_Windows_Hint
0002:000060f4  ___LITXMore_Windows
0002:000060f8  ___LITXClose
0002:000060fc  ___LITSize
0002:00006100  ___LITXCascade
0002:00006104  ___LITMinimize
0002:00006108  ___LITXArrange_Icons
0002:0000610c  ___LITMaximize
0002:00006110  ___LITXFix_Tool_Bar
0002:00006114  ___LITFile_Exists_Replace
0002:00006118  ___LITChange_XFont_
0002:0000611c  ___LITCancel
0002:00006120  ___LITOpen_Failed
0002:00006124  ___LITDrives_Colon
0002:00006128  ___LITFDlg_Save_Text
0002:0000612c  ___LITList_Files_of_Type_Colon
0002:00006130  ___LITPen_Failed
0002:00006134  ___LITFile_Name_Colon
0002:00006138  ___LITChange_Font_for_this_window
0002:0000613c  ___LITMake_Tool_Bar_Fixed
0002:00006140  ___LITFloating_Toolbar
0002:00006144  ___LITInternal_First_Message
0002:00006148  ___LITDirectories_Colon
0002:0000614c  ___LITOK
Module: /mnt/sda5/.user/root/src/openwatcom-1.9/bld/ui/dos/dos386/ui.lib(/mnt/sda5/.user/root/src/openwatcom-1.9/bld/ui/c/uialloc.c)
0001:0001d7f0* UIMemPrintLine_
0001:0001d7f0* UIMemPrtUsage_
0001:0001d7f0  UIMemClose_
0001:0001d7f0  UIMemOpen_
0001:0001d7f0* UIMemRedirect_
0001:0001d7f1  uicalloc_
0001:0001d7f6  uimalloc_
0001:0001d7fb  uifree_
0001:0001d800  uirealloc_
Module: /mnt/sda5/.user/root/src/openwatcom-1.9/bld/gui/ui/dos386/gui.lib(/mnt/sda5/.user/root/src/openwatcom-1.9/bld/gui/c/guiutil.c)
0001:0001d810* GUIStripTrailingBlanks_
0001:0001d890  GUIStrDup_
0001:0001d910  GUIStoreArgs_
0001:0001d930* GUIGetArgs_
0001:0001d960* GUIIsRootWindow_
0001:0001d980  GUIGetRootWindow_
Module: /mnt/sda5/.user/root/src/openwatcom-1.9/bld/ui/dos/dos386/ui.lib(/mnt/sda5/.user/root/src/openwatcom-1.9/bld/ui/c/uidialog.c)
0001:0001dfa5  uiprintfield_
0001:0001dfe9+ ui_split_line_
0001:0001e08b+ uiinitdialog_
0001:0001e1ad* uifinidialog_
0001:0001e26b  uireinitdialog_
0001:0001e2fd  uigetdialogarea_
0001:0001e312  uibegdialog_
0001:0001e3d6  uiupdatecombobox_
0001:0001e449  uiupdateedit_
0001:0001e4e5+ pulldownfilter_
0001:0001e6e3+ uidialogexitcurr_
0001:0001e6fa  uidialogsetcurr_
0001:0001e74c  uimovefield_
0001:0001e7a8  uiredrawdialog_
0001:0001e7e4  uiresizedialog_
0001:0001ebf6+ uihotkeyfilter_
0001:0001ecf3  uiprocessdialogevent_
0001:0001eecf  uidialog_
0001:0001efdb  uifreedialog_
0001:0001f027  uienddialog_
0001:0001f03f* uidialogisdirty_
0001:0001f04f* uidialogsetdirty_
Module: /mnt/sda5/.user/root/src/openwatcom-1.9/bld/gui/ui/dos386/gui.lib(/mnt/sda5/.user/root/src/openwatcom-1.9/bld/gui/ui/c/guihotsp.c)
0001:0001f060  GUICreateHot_
0001:0001f0e0  GUIFreeHotSpot_
0001:0001f100  GUISetHotSpotText_
Module: /mnt/sda5/.user/root/src/openwatcom-1.9/bld/gui/ui/dos386/gui.lib(/mnt/sda5/.user/root/src/openwatcom-1.9/bld/gui/ui/c/guifdlg.c)
0001:0001f5b0+ Compare_
0001:00020230+ ProcessOKorDClick_
0001:00020550+ GetFileNameEvent_
0001:00020720  GUIGetFileName_
0001:00020780* GUIHookFileDlg_
Module: /mnt/sda5/.user/root/src/openwatcom-1.9/bld/gui/ui/dos386/gui.lib(/mnt/sda5/.user/root/src/openwatcom-1.9/bld/gui/ui/c/guicontr.c)
0001:00020850  GUIAddControl_
0001:000208f0  GUIGetControl_
0001:00020910  GUIGetControlByIndex_
0001:00020970  GUIInsertControl_
0001:000209c0* GUIDeleteControl_
0001:00020a30  GUIFreeAllControls_
0001:00020aa0* GUILimitEditText_
0001:00020ab0  GUIResizeControls_
0001:00020b00  GUIProcessControlEvent_
0001:00020b70* GUIEnumControls_
0001:00020ba0* GUIGetControlClass_
0001:00020bc0+ GUIGetControlRect_
0001:00020c10* GUIResizeControl_
0001:00020cd0* GUIIsControlVisible_
Module: /mnt/sda5/.user/root/src/openwatcom-1.9/bld/ui/dos/dos386/ui.lib(/mnt/sda5/.user/root/src/openwatcom-1.9/bld/ui/c/uilist.c)
0001:00020cdb* uigetlist_
0001:00020ce4* uiputlist_
0001:00020cf1  uipushlist_
0001:00020d2d* uichecklist_
0001:00020d4f  uipoplist_
0001:00020d73  uiinlist_
0001:00020dcb* uiintoplist_
Module: /mnt/sda5/.user/root/src/openwatcom-1.9/bld/gui/ui/dos386/gui.lib(/mnt/sda5/.user/root/src/openwatcom-1.9/bld/gui/ui/c/guilistb.c)
0001:00020e20  GUIClearListBox_
0001:00020e40  GUIListBoxDeleteItem_
0001:00020f00  GUIFreeList_
0001:00020f70  GUIFillInListBox_
0001:00020f90  GUICreateListBox_
0001:00020fc0  GUICreateEditMLE_
0001:00021090  GUIListSize_
0001:000211e0  GUIListBoxAddText_
0001:00021240  GUIListBoxAddTextList_
0001:000212c0  GUIGetListBoxText_
0001:000212f0  GUIListCurr_
0001:00021330  GUIListBoxTopIndex_
0001:00021360* GUISetListItemData_
0001:00021360* GUIDropDown_
0001:00021370* GUIGetListItemData_
Module: /mnt/sda5/.user/root/src/openwatcom-1.9/bld/gui/ui/dos386/gui.lib(/mnt/sda5/.user/root/src/openwatcom-1.9/bld/gui/ui/c/guixutil.c)
0001:00021380* GUISetRedraw_
0001:00021390  GUIIsOpen_
0001:000213a0  GUISetUseArea_
0001:000213f0  GUISetUseWnd_
0001:00021400  GUIPtInRect_
0001:000214c0  GUIOverlap_
0001:000214e0  GUISetDialogArea_
0001:00021530  GUIAdjustDialogArea_
0001:00021540  GUIGetSAREA_
0001:00021570  GUIGetClientSAREA_
0001:000215a0  GUISetArea_
0001:000217b0  GUIMakeEditCopy_
0001:00021800  GUIRedrawTitle_
0001:00021810  GUIMakeRelative_
0001:00021880  GUIJustSetWindowText_
0001:000218b0* GUIInArea_
0001:000218f0  GUIDirtyArea_
0001:00021900  GUIGetTopWnd_
0001:00021920  GUIGetFirstSibling_
0001:00021940  GUIGetParentWindow_
0001:00021950  GUIXGetRootWindow_
0001:00021970  GUISetCursor_
0001:00021990* GUIUnHookF1_
0001:00021990* GUIHookF1_
Module: /mnt/sda5/.user/root/src/openwatcom-1.9/bld/gui/ui/dos386/gui.lib(/mnt/sda5/.user/root/src/openwatcom-1.9/bld/gui/c/guimkey.c)
0001:000219b0  GUIMapKey_
0001:00021e10  GUIGetKeyState_
0002:00003308  _KeyState
Module: /mnt/sda5/.user/root/src/openwatcom-1.9/bld/gui/ui/dos386/gui.lib(/mnt/sda5/.user/root/src/openwatcom-1.9/bld/gui/ui/c/guirdlg.c)
0001:00021e30+ GUIFreeDialogBoxControlPtrs_
0001:00021e80+ GUIFreeDialogBoxHeader_
0001:00022800  GUICreateDialogFromRes_
Module: /mnt/sda5/.user/root/src/openwatcom-1.9/bld/ui/dos/dos386/ui.lib(/mnt/sda5/.user/root/src/openwatcom-1.9/bld/ui/c/uiyield.c)
0001:00022a45  uiyield_
Module: /mnt/sda5/.user/root/src/openwatcom-1.9/bld/gui/ui/dos386/gui.lib(/mnt/sda5/.user/root/src/openwatcom-1.9/bld/gui/ui/c/guixloop.c)
0002:00003314  _GUIUserEvents
0001:00022d60  GUICreatePopup_
0001:000233d0  GUIGetMenuWindow_
0001:00023540  GUIProcessEvent_
Module: /mnt/sda5/.user/root/src/openwatcom-1.9/bld/ui/dos/dos386/ui.lib(/mnt/sda5/.user/root/src/openwatcom-1.9/bld/ui/c/uiforce.c)
0001:00023adf  forceevfini_
0001:00023adf  forceevinit_
0001:00023ae0  uiforceevadd_
0001:00023b22* uiforceevflush_
0001:00023b60  forcedevent_
Module: /mnt/sda5/.user/root/src/openwatcom-1.9/rel2/lib386/dos/math387r.lib(bufld386)
0001:00023b90  __ZBuf2LD
Module: /mnt/sda5/.user/root/src/openwatcom-1.9/rel2/lib386/dos/math387r.lib(inf_nan.c)
0002:00001d0c* ___f_infinity
0002:00001d10* ___f_posqnan
0002:00001d14  ___d_infinity
0002:00001d1c  ___d_posqnan
0002:00001d24* ___ld_infinity
0002:00001d2c* ___ld_posqnan
Module: /mnt/sda5/.user/root/src/openwatcom-1.9/bld/ui/dos/dos386/ui.lib(/mnt/sda5/.user/root/src/openwatcom-1.9/bld/ui/c/uimget.c)
0001:00023c33  uivgetevent_
0001:00023c33  uivget_
0001:00023c3d* uiungetevent_
0001:00023c4d* uiflushevent_
Module: /mnt/sda5/.user/root/src/openwatcom-1.9/bld/gui/ui/dos386/gui.lib(/mnt/sda5/.user/root/src/openwatcom-1.9/bld/gui/ui/c/guiuiev.c)
0001:00023c60  GUIUIProcessEvent_
Module: /mnt/sda5/.user/root/src/openwatcom-1.9/bld/gui/ui/dos386/gui.lib(/mnt/sda5/.user/root/src/openwatcom-1.9/bld/gui/c/guiev.c)
0001:00023c70  GUIDoneEventProcessing_
0001:00023c70  GUIStartEventProcessing_
Module: /mnt/sda5/.user/root/src/openwatcom-1.9/bld/gui/ui/dos386/gui.lib(/mnt/sda5/.user/root/src/openwatcom-1.9/bld/gui/ui/c/guildstr.c)
0001:00023ca0  GUIIsLoadStrInitialized_
0001:00023cb0  GUILoadStrInit_
0001:00023d80  GUILoadStrFini_
0001:00023db0  GUILoadString_
0001:00023df0  GUILoadDialogTemplate_
0001:00023e40  GUILoadMenuTemplate_
0002:00003368  _WResRtns
Module: /mnt/sda5/.user/root/src/openwatcom-1.9/bld/gui/ui/dos386/gui.lib(/mnt/sda5/.user/root/src/openwatcom-1.9/bld/gui/c/guistr.c)
0001:00023ee0  GUIInitInternalStringTable_
0001:00024300  GUIFiniInternalStringTable_
Module: /mnt/sda5/.user/root/src/openwatcom-1.9/bld/gui/ui/dos386/gui.lib(/mnt/sda5/.user/root/src/openwatcom-1.9/bld/gui/c/guideath.c)
0001:000245c0  GUIDeath_
Module: /mnt/sda5/.user/root/src/openwatcom-1.9/bld/ui/dos/dos386/ui.lib(/mnt/sda5/.user/root/src/openwatcom-1.9/bld/ui/c/uirefer.c)
0001:000245c6  uirefresh_
Module: /mnt/sda5/.user/root/src/openwatcom-1.9/bld/ui/dos/dos386/ui.lib(/mnt/sda5/.user/root/src/openwatcom-1.9/bld/ui/c/uiinit.c)
0001:000245cb  uistart_
0001:00024601* uiinit_
0001:0002461d  uistop_
0001:0002462c* uifini_
0001:00024645  uiswap_
Module: /mnt/sda5/.user/root/src/openwatcom-1.9/bld/ui/dos/dos386/ui.lib(/mnt/sda5/.user/root/src/openwatcom-1.9/bld/ui/c/uiback.c)
0001:000246dd  uirestorebackground_
0001:0002470a  openbackground_
0001:0002473f  closebackground_
0001:0002474c+ uibackgroundbuffer_
0001:00024791* uiremovebackground_
0001:000247d7* uikeepbackground_
Module: /mnt/sda5/.user/root/src/openwatcom-1.9/bld/gui/ui/dos386/gui.lib(/mnt/sda5/.user/root/src/openwatcom-1.9/bld/gui/c/guihook.c)
0001:00024830  GUISetHotSpotCleanup_
0001:00024840  GUICleanupHotSpots_
0001:00024860* GUISetXChangeTitle_
0001:00024870  GUIXChangeTitle_
0001:00024890  GUISetXInitMDI_
0001:000248a0  GUIXInitMDI_
0001:000248c0  GUISetInitMDI_
0001:000248d0  GUIInitMDI_
0001:000248f0  GUIChangeMDITitle_
0001:00024910  GUISetMDIChangeTitle_
0001:00024920  GUISetMDIBroughtToFront_
0001:00024930  GUIMDIBroughtToFront_
0001:00024950  GUISetMDIDelete_
0001:00024960  GUIMDIDelete_
0001:00024980  GUISetMDIResetMenus_
0001:00024990  GUIMDIResetMenus_
0001:000249b0  GUISetMDIDeleteMenuItem_
0001:000249c0  GUIMDIDeleteMenuItem_
0001:000249e0* GUISetEnableMDIActions_
0001:000249f0  GUIEnableMDIActions_
0001:00024a10* GUISetAddMDIActions_
0001:00024a20  GUIAddMDIActions_
Module: /mnt/sda5/.user/root/src/openwatcom-1.9/bld/gui/ui/dos386/gui.lib(/mnt/sda5/.user/root/src/openwatcom-1.9/bld/gui/ui/c/guisysfi.c)
0001:00024a40  GUISysFini_
Module: /mnt/sda5/.user/root/src/openwatcom-1.9/bld/gui/ui/dos386/gui.lib(/mnt/sda5/.user/root/src/openwatcom-1.9/bld/gui/c/guiextnm.c)
0001:00024a50  GUIGetExtName_
0001:00024a70* GUISetExtName_
Module: /mnt/sda5/.user/root/src/openwatcom-1.9/bld/gui/ui/dos386/gui.lib(/mnt/sda5/.user/root/src/openwatcom-1.9/bld/gui/c/guidead.c)
0001:00024ac0  GUIDead_
Module: /mnt/sda5/.user/root/src/openwatcom-1.9/bld/gui/ui/dos386/gui.lib(/mnt/sda5/.user/root/src/openwatcom-1.9/bld/gui/ui/c/guixmain.c)
0001:00024ad0  main_
0002:00003444  _GUIMainTouched
Module: /mnt/sda5/.user/root/src/openwatcom-1.9/bld/gui/ui/dos386/gui.lib(/mnt/sda5/.user/root/src/openwatcom-1.9/bld/gui/c/guifcrck.c)
0001:00024ae0  GUIFirstCrack_
Module: /mnt/sda5/.user/root/src/openwatcom-1.9/bld/gui/ui/dos386/gui.lib(/mnt/sda5/.user/root/src/openwatcom-1.9/bld/gui/ui/c/guigadgt.c)
0001:00024af0  GUIUseGadget_
0001:00024b50  GUIDrawGadgetLine_
0001:00024ce0  GUISetShowGadget_
0001:00024d80  GUIGadgetFilter_
0001:00024e50  GUIInitGadget_
0001:00024e90  GUICreateGadget_
0001:00024fa0  GUIGetScrollOffset_
Module: /mnt/sda5/.user/root/src/openwatcom-1.9/bld/gui/ui/dos386/gui.lib(/mnt/sda5/.user/root/src/openwatcom-1.9/bld/gui/c/guiwnclr.c)
0001:00024fb0  GUISetColours_
0001:00024fd0  GUIFreeColours_
0001:00024ff0  GUIGetNumWindowColours_
0001:00025000  GUIGetWindowColours_
Module: /mnt/sda5/.user/root/src/openwatcom-1.9/bld/ui/dos/dos386/ui.lib(/mnt/sda5/.user/root/src/openwatcom-1.9/bld/ui/c/uimenu.c)
0001:0002502a  uisetbetweentitles_
0001:00025030  uialtchar_
0001:000251e4  uidisplayitem_
0001:000254e5  uidrawmenu_
0001:0002554a  uiclosepopup_
0001:0002555b  uiopenpopup_
0001:0002570c+ process_menuevent_
0001:00025c62* uigeteventfrompos_
0001:00025cce  menuevent_
0001:00025de5  uidescmenu_
0001:00026019  uimenutitlebar_
0001:00026088* uienablemenuitem_
0001:000260bf* uimenuindicators_
0001:000260d9  uisetmenudesc_
0001:00026165  uimenuson_
0001:00026170  uimenuheight_
0001:00026188  uimenudisable_
0001:000261a6  uimenuisdisabled_
0001:000261bb* uimenugetaltpressed_
0001:000261d0  uimenusetaltpressed_
0001:000261ee  uinomenus_
0001:000261f0  uimenubar_
0001:0002624e* uimenus_
0001:0002628b* uiactivatemenus_
0001:000262ad* uiignorealt_
0001:000262bb  uigetcurrentmenu_
Module: /mnt/sda5/.user/root/src/openwatcom-1.9/bld/ui/dos/dos386/ui.lib(/mnt/sda5/.user/root/src/openwatcom-1.9/bld/ui/c/uidata.c)
0002:000034c4  _UIData
Module: /mnt/sda5/.user/root/src/openwatcom-1.9/bld/ui/dos/dos386/ui.lib(/mnt/sda5/.user/root/src/openwatcom-1.9/bld/ui/c/uivopen.c)
0001:0002634d  uivopen_
0001:00026526  uivclose_
0001:0002655b  uivresize_
0001:00026676  uivmove_
Module: /mnt/sda5/.user/root/src/openwatcom-1.9/bld/ui/dos/dos386/ui.lib(/mnt/sda5/.user/root/src/openwatcom-1.9/bld/ui/c/uivhide.c)
0001:000266c1  uivhide_
0001:000266e7  uivshow_
Module: /mnt/sda5/.user/root/src/openwatcom-1.9/bld/ui/dos/dos386/ui.lib(/mnt/sda5/.user/root/src/openwatcom-1.9/bld/ui/c/uigadget.c)
0002:000034c8  _VertScrollFrame
0002:000034ca  _HorzScrollFrame
0002:000034cc  _SliderChar
0002:000034ce  _LeftPoint
0002:000034d0  _RightPoint
0002:000034d2  _UpPoint
0002:000034d4  _DownPoint
0001:00026707  uishowgadget_
0001:00026929  uiinitgadget_
0001:0002693a  uidrawgadget_
0001:0002695c  uisetgadget_
0001:00026968  uifinigadget_
0001:00026969  uisetgadgetnodraw_
0001:0002696e  uigadgetfilter_
Module: /mnt/sda5/.user/root/src/openwatcom-1.9/bld/gui/ui/dos386/gui.lib(/mnt/sda5/.user/root/src/openwatcom-1.9/bld/gui/ui/c/guifront.c)
0001:00026c40  GUIBringToFront_
0001:00026cf0* GUIActivateNC_
Module: /mnt/sda5/.user/root/src/openwatcom-1.9/bld/gui/ui/dos386/gui.lib(/mnt/sda5/.user/root/src/openwatcom-1.9/bld/gui/ui/c/guiwhole.c)
0001:00026d40  GUIWholeWndDirty_
Module: /mnt/sda5/.user/root/src/openwatcom-1.9/bld/ui/dos/dos386/ui.lib(/mnt/sda5/.user/root/src/openwatcom-1.9/bld/ui/dos/c/uibmous.c)
0002:000034e4  _DrawCursor
0002:000034e8  _EraseCursor
0001:00026f2f  uimousealign_
0001:00026f35  uisetmouse_
0001:00026f5c  uimouse_
Module: /mnt/sda5/.user/root/src/openwatcom-1.9/bld/ui/dos/dos386/ui.lib(/mnt/sda5/.user/root/src/openwatcom-1.9/bld/ui/dos/c/uispawn.c)
0001:00026f8c  uispawnstart_
0001:00026fab  uispawnend_
Module: /mnt/sda5/.user/root/src/openwatcom-1.9/bld/ui/dos/dos386/ui.lib(/mnt/sda5/.user/root/src/openwatcom-1.9/bld/ui/c/uiblank.c)
0001:00027018* uiblankattr_
0001:0002702b* uiblankarea_
0001:00027045  uiblankscreen_
Module: /mnt/sda5/.user/root/src/openwatcom-1.9/bld/ui/dos/dos386/ui.lib(/mnt/sda5/.user/root/src/openwatcom-1.9/bld/ui/c/uidirty.c)
0001:00027052  dirtyarea_
0001:000270d4  dirtynext_
0001:00027124  uidirty_
Module: /mnt/sda5/.user/root/src/openwatcom-1.9/bld/gui/ui/dos386/gui.lib(/mnt/sda5/.user/root/src/openwatcom-1.9/bld/help/c/helpopen.c)
0001:000272f0+ do_init_
0001:00027410  helpinit_
0001:000274e0  help_reinit_
0001:00027550  helpfini_
0002:000034f0  _HelpFiles
Module: /mnt/sda5/.user/root/src/openwatcom-1.9/bld/gui/ui/dos386/gui.lib(/mnt/sda5/.user/root/src/openwatcom-1.9/bld/help/c/help.c)
0001:000275e0+ hlp_ut_screen_area_
0001:00027630+ hlp_ut_position_
0001:00027c90+ help_next_field_
0001:00027e30* Free_Stack_
0001:00027e50+ help_in_tab_
0001:00029310  showhelp_
0001:000295a0+ do_showhelp_
Module: /mnt/sda5/.user/root/src/openwatcom-1.9/rel2/lib386/dos/clib3r.lib(_strcmp)
0001:000297b0  strcmp_
Module: /mnt/sda5/.user/root/src/openwatcom-1.9/bld/aui/dos386/aui.lib(/mnt/sda5/.user/root/src/openwatcom-1.9/bld/aui/c/wndfref.c)
0001:000298f0  WndForceRefresh_
Module: /mnt/sda5/.user/root/src/openwatcom-1.9/bld/gui/ui/dos386/gui.lib(/mnt/sda5/.user/root/src/openwatcom-1.9/bld/gui/ui/c/guithumb.c)
0001:00029980* GUISetHScrollThumb_
0001:000299c0  GUISetVScrollThumb_
Module: /mnt/sda5/.user/root/src/openwatcom-1.9/bld/gui/ui/dos386/gui.lib(/mnt/sda5/.user/root/src/openwatcom-1.9/bld/gui/ui/c/guiscrol.c)
0001:00029a00  GUIScroll_
0001:00029b40+ SetScroll_
0001:00029b60  GUIInitHScroll_
0001:00029b80* GUIInitHScrollCol_
0001:00029ba0* GUIInitVScroll_
0001:00029bc0  GUIInitVScrollRow_
0001:00029be0  GUISetHScroll_
0001:00029c00* GUISetHScrollCol_
0001:00029c20* GUISetVScroll_
0001:00029c40* GUISetVScrollRow_
Module: /mnt/sda5/.user/root/src/openwatcom-1.9/bld/gui/ui/dos386/gui.lib(/mnt/sda5/.user/root/src/openwatcom-1.9/bld/gui/ui/c/guidoscr.c)
0001:00029dd0  GUIDoHScroll_
0001:00029df0  GUIDoVScroll_
0001:00029e10* GUIDoHScrollClip_
0001:00029e20  GUIDoVScrollClip_
Module: /mnt/sda5/.user/root/src/openwatcom-1.9/bld/gui/ui/dos386/gui.lib(/mnt/sda5/.user/root/src/openwatcom-1.9/bld/gui/ui/c/guistrin.c)
0001:00029e30  GUIGetStringPos_
Module: /mnt/sda5/.user/root/src/openwatcom-1.9/bld/ui/dos/dos386/ui.lib(/mnt/sda5/.user/root/src/openwatcom-1.9/bld/ui/c/uivfill.c)
0001:00029e7f  uivfill_
Module: /mnt/sda5/.user/root/src/openwatcom-1.9/bld/ui/dos/dos386/ui.lib(/mnt/sda5/.user/root/src/openwatcom-1.9/bld/ui/c/uibox.c)
0001:00029ee7  drawbox_
0001:0002a02d  blowup_
0001:0002a105  uidrawbox_
Module: /mnt/sda5/.user/root/src/openwatcom-1.9/bld/gui/ui/dos386/gui.lib(/mnt/sda5/.user/root/src/openwatcom-1.9/bld/gui/ui/c/guidrect.c)
0001:0002a180  GUIWndDirtyRect_
Module: /mnt/sda5/.user/root/src/openwatcom-1.9/bld/gui/ui/dos386/gui.lib(/mnt/sda5/.user/root/src/openwatcom-1.9/bld/gui/ui/c/guidrow.c)
0001:0002a2d0  GUIWndDirtyRow_
Module: /mnt/sda5/.user/root/src/openwatcom-1.9/bld/gui/ui/dos386/gui.lib(/mnt/sda5/.user/root/src/openwatcom-1.9/bld/gui/c/guidraw.c)
0001:0002a320  GUIDrawText_
0001:0002a370* GUIDrawTextPos_
0001:0002a390  GUIDrawTextExtent_
0001:0002a3e0* GUIDrawTextExtentPos_
0001:0002a400* GUIDrawTextRGB_
0001:0002a450* GUIDrawTextPosRGB_
0001:0002a470* GUIDrawTextExtentRGB_
0001:0002a4c0* GUIDrawTextExtentPosRGB_
Module: /mnt/sda5/.user/root/src/openwatcom-1.9/bld/gui/ui/dos386/gui.lib(/mnt/sda5/.user/root/src/openwatcom-1.9/bld/gui/c/guihot.c)
0001:0002a500* GUIInitHotSpots_
0001:0002a560* GUIGetNumHotSpots_
0001:0002a570  GUIGetHotSpotSize_
0002:000063a0  _GUINumHotSpots
Module: /mnt/sda5/.user/root/src/openwatcom-1.9/bld/aui/dos386/aui.lib(/mnt/sda5/.user/root/src/openwatcom-1.9/bld/aui/c/wndsfra.c)
0001:0002a5b0  WndStartFreshAll_
Module: /mnt/sda5/.user/root/src/openwatcom-1.9/bld/aui/dos386/aui.lib(/mnt/sda5/.user/root/src/openwatcom-1.9/bld/aui/c/wndefra.c)
0001:0002a5c0  WndEndFreshAll_
Module: /mnt/sda5/.user/root/src/openwatcom-1.9/bld/aui/dos386/aui.lib(/mnt/sda5/.user/root/src/openwatcom-1.9/bld/aui/c/wndmem.c)
0001:0002a5d0  WndMustAlloc_
0001:0002a5f0* WndMustRealloc_
Module: /mnt/sda5/.user/root/src/openwatcom-1.9/bld/gui/ui/dos386/gui.lib(/mnt/sda5/.user/root/src/openwatcom-1.9/bld/gui/c/guihflt.c)
0001:0002a610  GUICreateFloatingPopup_
Module: /mnt/sda5/.user/root/src/openwatcom-1.9/bld/gui/ui/dos386/gui.lib(/mnt/sda5/.user/root/src/openwatcom-1.9/bld/gui/ui/c/guixscal.c)
0001:0002a680  GUIGetScreenArea_
0001:0002a6b0  GUIMulDiv_
0001:0002a750  GUIScreenToScaleRect_
0001:0002a770  GUIScreenToScaleRectR_
0001:0002a790  GUIScaleToScreenRect_
0001:0002a7b0  GUIScaleToScreenRectR_
Module: /mnt/sda5/.user/root/src/openwatcom-1.9/rel2/lib386/dos/math387r.lib(ldclass.c)
0001:0002a7cb  __LDClass_
0001:0002a81b* _FLClass_
Module: /mnt/sda5/.user/root/src/openwatcom-1.9/bld/gui/ui/dos386/gui.lib(/mnt/sda5/.user/root/src/openwatcom-1.9/bld/gui/c/guisetup.c)
0001:0002a830  GUISetupWnd_
Module: /mnt/sda5/.user/root/src/openwatcom-1.9/bld/gui/ui/dos386/gui.lib(/mnt/sda5/.user/root/src/openwatcom-1.9/bld/gui/ui/c/guitool.c)
0001:0002a880  GUIXCreateFixedToolbar_
0001:0002ad10  GUIXCreateToolBar_
0001:0002aee0  GUIXCreateToolBarWithTips_
0001:0002af10  GUIXCloseToolBar_
0001:0002aff0  GUIHasToolBar_
0001:0002b000  GUIToolBarFixed_
0001:0002b050* GUIChangeToolBar_
Module: /mnt/sda5/.user/root/src/openwatcom-1.9/bld/gui/ui/dos386/gui.lib(/mnt/sda5/.user/root/src/openwatcom-1.9/bld/gui/c/guihint.c)
0001:0002b1e0+ GUIHasHintType_
0001:0002b210  GUIDisplayHintText_
0001:0002b280* GUISetHintText_
0001:0002b2a0  GUIHasHintText_
0001:0002b2c0  GUIDeleteHintText_
0001:0002b3c0+ CountMenus_
0001:0002b400+ InsertHint_
0001:0002b460  GUIAppendHintText_
0001:0002b4e0  GUIInitHint_
0001:0002b5b0  GUIInitToolbarHint_
0001:0002b650  GUIFreeHint_
Module: /mnt/sda5/.user/root/src/openwatcom-1.9/bld/gui/ui/dos386/gui.lib(/mnt/sda5/.user/root/src/openwatcom-1.9/bld/gui/c/guihtool.c)
0001:0002b690* GUICreateFloatToolBar_
0001:0002b6f0  GUICreateToolBar_
0001:0002b750  GUICreateToolBarWithTips_
0001:0002b7b0  GUICloseToolBar_
Module: /mnt/sda5/.user/root/src/openwatcom-1.9/bld/gui/ui/dos386/gui.lib(/mnt/sda5/.user/root/src/openwatcom-1.9/bld/gui/ui/c/guifloat.c)
0001:0002b850  GUIProcessMenuCurr_
0001:0002b940  GUICreateMenuPopup_
0001:0002bbc0  GUIXCreateFloatingPopup_
0001:0002bc10* GUITrackFloatingPopup_
0002:000037c8  _GUIPopupMenu
Module: /mnt/sda5/.user/root/src/openwatcom-1.9/bld/gui/ui/dos386/gui.lib(/mnt/sda5/.user/root/src/openwatcom-1.9/bld/gui/ui/c/guisysme.c)
0001:0002bc60  GUISetSystemMenuFlags_
0001:0002bd20  GUISetSystemMenu_
0001:0002be20  GUIProcessSysMenuEvent_
Module: /mnt/sda5/.user/root/src/openwatcom-1.9/bld/gui/ui/dos386/gui.lib(/mnt/sda5/.user/root/src/openwatcom-1.9/bld/gui/ui/c/guirmenu.c)
0001:0002c250  GUIFreeGUIMenuStruct_
0001:0002c400  GUICreateMenuStructFromRes_
Module: /mnt/sda5/.user/root/src/openwatcom-1.9/bld/ui/dos/dos386/ui.lib(/mnt/sda5/.user/root/src/openwatcom-1.9/bld/ui/c/uimousev.c)
0002:000063a4  _MouseCol
0002:000063a6  _MouseRow
0002:000063a8  _MouseStatus
0002:000063aa  _MouseOn
0001:0002c4b1* uivmouseinstalled_
0001:0002c4b1  uimouseinstalled_
0001:0002c4b9* uimouseforceoff_
0001:0002c4ca* uimouseforceon_
0001:0002c4d1  uionmouse_
0001:0002c509  uioffmouse_
0001:0002c510  uihidemouse_
0001:0002c537  mouseevent_
0001:0002c725  uimousepos_
0001:0002c820  uivmousepos_
0001:0002c87f  uiswapmouse_
0001:0002c8b6* uigetmrow_
0001:0002c8bd* uigetmcol_
0001:0002c8c4  uigetmouse_
0002:000063ac  _MouseInstalled
Module: /mnt/sda5/.user/root/src/openwatcom-1.9/bld/ui/dos/dos386/ui.lib(/mnt/sda5/.user/root/src/openwatcom-1.9/bld/ui/c/uivscrn.c)
0001:0002c90d  findvscreen_
0001:0002c963  uivdirty_
0001:0002c971  uivsetactive_
0001:0002c989  uivsetcursor_
Module: /mnt/sda5/.user/root/src/openwatcom-1.9/bld/ui/dos/dos386/ui.lib(/mnt/sda5/.user/root/src/openwatcom-1.9/bld/ui/dos/c/uibios.c)
0002:000063b4+ _BIOSVidPage
0001:0002c9bc  firstmeg_
0001:0002c9c9  IdleInterrupt_
0001:0002c9d9* setvideomode_
0001:0002c9e0* uiset80col_
0001:0002ca25+ video_buffer_
0001:0002cadb+ dbcs_vector_table_
0001:0002cbc8+ initdbcs_
0001:0002cc04  uiisdbcs_
0001:0002cc20  uionnec_
0001:0002cc23  uicharlen_
0001:0002cc62+ IsTextMode_
0001:0002cd1d+ initmonitor_
0001:0002ce28  initbios_
0001:0002cf6a  uiclockdelay_
0001:0002cf7b  finibios_
0001:0002cf80  physupdate_
Module: /mnt/sda5/.user/root/src/openwatcom-1.9/rel2/lib386/dos/clib3r.lib(strcspn.c)
0001:0002d0c0  strcspn_
Module: /mnt/sda5/.user/root/src/openwatcom-1.9/rel2/lib386/dos/clib3r.lib(strnset.c)
0001:0002d110  strnset_
Module: /mnt/sda5/.user/root/src/openwatcom-1.9/bld/gui/ui/dos386/gui.lib(/mnt/sda5/.user/root/src/openwatcom-1.9/bld/gui/ui/c/guigmous.c)
0001:0002d130  GUIInitGraphicsMouse_
0001:0002d150  GUIInitMouse_
0001:0002d1a0  GUIFiniMouse_
0001:0002d1e0* GUIGMouseOn_
0001:0002d230* GUIGMouseOff_
0001:0002d250  GUIHasCharRemap_
Module: /mnt/sda5/.user/root/src/openwatcom-1.9/bld/gui/ui/dos386/gui.lib(/mnt/sda5/.user/root/src/openwatcom-1.9/bld/gui/ui/c/guisysin.c)
0001:0002d260  GUISysInit_
Module: /mnt/sda5/.user/root/src/openwatcom-1.9/bld/ui/dos/dos386/ui.lib(/mnt/sda5/.user/root/src/openwatcom-1.9/bld/ui/c/uiattr.c)
0002:00003929+ _VGAcolours
0002:00003969+ _ui_vga_colour_attrs
0002:0000398e+ _ui_colour_attrs
0002:000039b3+ _ui_bw_attrs
0002:000039d8+ _ui_mono_attrs
0001:0002d281  uiattrs_
0001:0002d319* uivgaattrs_
0001:0002d358+ uisetblinkattr_
0001:0002d391* uigetblinkattr_
Module: /mnt/sda5/.user/root/src/openwatcom-1.9/bld/ui/dos/dos386/ui.lib(/mnt/sda5/.user/root/src/openwatcom-1.9/bld/ui/c/uigchar.c)
0001:0002d397  DBCSCharacterMap_
0002:00003a24  _UiGChar
0002:00003a46+ _UiDBCSChar
0002:00003a68+ _UiNECChar
Module: /mnt/sda5/.user/root/src/openwatcom-1.9/bld/gui/ui/dos386/gui.lib(/mnt/sda5/.user/root/src/openwatcom-1.9/bld/gui/ui/c/guiximdi.c)
0001:0002d4b0  XFakeInitMDI_
Module: /mnt/sda5/.user/root/src/openwatcom-1.9/bld/gui/ui/dos386/gui.lib(/mnt/sda5/.user/root/src/openwatcom-1.9/bld/gui/c/guimdi.c)
0002:00003abc+ _GUIMDIMenuID
0002:00003ac0+ _Root
0001:0002d4d0* GUIGetRoot_
0001:0002d760  MDIDeleteMenu_
0001:0002d780  MDIResetMenus_
0001:0002d800* GUIEnableMDIMenus_
0001:0002d890  InitMDI_
0001:0002d9e0  ChangeTitle_
0001:0002da20  BroughtToFront_
0001:0002da90+ FindNextMDIMenuWindowNotInArray_
0001:0002db00  MDIDelete_
0001:0002ddb0+ GUIGetNumChildWindows_
0001:0002dde0* GUIGetNumIconicWindows_
0001:0002de60  GUIMDIMoreWindows_
0001:0002dec0  GUIMDIGetWindow_
Module: /mnt/sda5/.user/root/src/openwatcom-1.9/bld/ui/dos/dos386/ui.lib(/mnt/sda5/.user/root/src/openwatcom-1.9/bld/ui/c/uivstr.c)
0001:0002ded5  uitextfield_
0001:0002dfae  uivtextput_
0001:0002dfff* uivrawput_
Module: /mnt/sda5/.user/root/src/openwatcom-1.9/bld/gui/ui/dos386/gui.lib(/mnt/sda5/.user/root/src/openwatcom-1.9/bld/gui/ui/c/guiicon.c)
0001:0002e070  GUIDrawIcon_
Module: /mnt/sda5/.user/root/src/openwatcom-1.9/rel2/lib386/dos/clib3r.lib(strnicmp.c)
0001:0002e150  strnicmp_
Module: /mnt/sda5/.user/root/src/openwatcom-1.9/bld/gui/ui/dos386/gui.lib(/mnt/sda5/.user/root/src/openwatcom-1.9/bld/gui/ui/c/guixbar.c)
0001:0002e1a0  GUIDrawBar_
0001:0002e210  GUIDrawBarGroup_
Module: /mnt/sda5/.user/root/src/openwatcom-1.9/bld/gui/ui/dos386/gui.lib(/mnt/sda5/.user/root/src/openwatcom-1.9/bld/gui/ui/c/guixhot.c)
0001:0002e290  GUIXInitHotSpots_
0001:0002e330  GUIDrawHotSpot_
0001:0002e370  GUIXCleanupHotSpots_
0002:00003ad4  _GUIHotSpots
Module: /mnt/sda5/.user/root/src/openwatcom-1.9/bld/aui/dos386/aui.lib(/mnt/sda5/.user/root/src/openwatcom-1.9/bld/aui/c/wndtbatr.c)
0001:0002e3a0  WndMapTabAttr_
Module: /mnt/sda5/.user/root/src/openwatcom-1.9/bld/ui/dos/dos386/ui.lib(/mnt/sda5/.user/root/src/openwatcom-1.9/bld/ui/dos/c/uiget.c)
0001:0002e3a6  uiflush_
0001:0002e3b2  uiclock_
0001:0002e464  uiget_
0001:0002e469* uieventsource_
Module: /mnt/sda5/.user/root/src/openwatcom-1.9/rel2/lib386/dos/clib3r.lib(setjmp)
0001:0002e4b0  _setjmp_
0001:0002e4df  longjmp_
Module: /mnt/sda5/.user/root/src/openwatcom-1.9/rel2/lib386/dos/clib3r.lib(calloc.c)
0001:0002e550  calloc_
Module: /mnt/sda5/.user/root/src/openwatcom-1.9/bld/ui/dos/dos386/ui.lib(/mnt/sda5/.user/root/src/openwatcom-1.9/bld/ui/c/uiledit.c)
0001:0002e5c9  uiedittrim_
0001:0002e5db* uieditmarking_
0001:0002e60f  uibegedit_
0001:0002e723  uieditpushlist_
0001:0002e737  uieditpoplist_
0001:0002e78d  uiledit_
0001:0002e881* uieditinsert_
0001:0002e901  uiendedit_
0001:0002e949  uieditisdirty_
0001:0002e970* uieditautoclear_
0001:0002e985* uieditcursor_
0001:0002e996* uieditdirty_
0001:0002e9a0* uieditclean_
0002:00003adc+ _UIEdit
Module: /mnt/sda5/.user/root/src/openwatcom-1.9/bld/ui/dos/dos386/ui.lib(/mnt/sda5/.user/root/src/openwatcom-1.9/bld/ui/c/uimisc.c)
0001:0002e9aa  uisetscreenarea_
0001:0002e9e6  uisetarea_
0001:0002ea32  uiposition_
0001:0002ea8c  uiopen_
0001:0002eac9  uiclose_
0001:0002eada  uicntrtext_
0001:0002eb1e  uinocursor_
0001:0002eb26  uicursor_
Module: /mnt/sda5/.user/root/src/openwatcom-1.9/bld/ui/dos/dos386/ui.lib(/mnt/sda5/.user/root/src/openwatcom-1.9/bld/ui/c/uilstbox.c)
0001:0002eb30  uigetlistelement_
0001:0002eb68  uipaintlistbox_
0001:0002ecbd+ checkitem_
0001:0002ed2e  uiupdatelistbox_
0001:0002eda1  uiboxpushlist_
0001:0002edab  uiboxpoplist_
0001:0002edd9  uilistsize_
0001:0002edf1  uimovelistbox_
0001:0002ee0f  uibeglistbox_
0001:0002eeda  uiendlistbox_
0001:0002ef83+ charselect_
0001:0002eff0  uilistbox_
Module: /mnt/sda5/.user/root/src/openwatcom-1.9/bld/ui/dos/dos386/ui.lib(/mnt/sda5/.user/root/src/openwatcom-1.9/bld/ui/c/uihotspt.c)
0001:0002f3e3  uidrawhottext_
0001:0002f4f5  uihotspot_
0001:0002f69f  uiposnhotspots_
0001:0002f740  uiprinthotspots_
0001:0002f764* uioffhotspots_
0001:0002f79f  uihotspotfilter_
0001:0002f90e  uiisdefaulthotspot_
Module: /mnt/sda5/.user/root/src/openwatcom-1.9/rel2/lib386/dos/clib3r.lib(strncat.c)
0001:0002f940  strncat_
Module: /mnt/sda5/.user/root/src/openwatcom-1.9/bld/gui/ui/dos386/gui.lib(/mnt/sda5/.user/root/src/openwatcom-1.9/bld/gui/ui/c/uidchfld.c)
0001:0002f980  uidialogchangefield_
Module: /mnt/sda5/.user/root/src/openwatcom-1.9/bld/ui/dos/dos386/ui.lib(/mnt/sda5/.user/root/src/openwatcom-1.9/bld/ui/c/uidevent.c)
0001:0002f985  uidialogevent_
Module: /mnt/sda5/.user/root/src/openwatcom-1.9/bld/gui/ui/dos386/gui.lib(/mnt/sda5/.user/root/src/openwatcom-1.9/bld/help/c/dialcb.c)
0001:0002f990  uidialogcallback_
Module: /mnt/sda5/.user/root/src/openwatcom-1.9/rel2/lib386/dos/clib3r.lib(dosdrive)
0001:0002f998* _dos_getdrive_
0001:0002f9ac  _dos_setdrive_
Module: /mnt/sda5/.user/root/src/openwatcom-1.9/rel2/lib386/dos/clib3r.lib(chdir.c)
0001:0002f9c0  chdir_
Module: /mnt/sda5/.user/root/src/openwatcom-1.9/rel2/lib386/dos/clib3r.lib(_istrcc_.asm)
0001:0002f9dc  strcasecmp_
Module: /mnt/sda5/.user/root/src/openwatcom-1.9/rel2/lib386/dos/clib3r.lib(strtok.c)
0001:0002f9f0  strtok_
Module: /mnt/sda5/.user/root/src/openwatcom-1.9/rel2/lib386/dos/clib3r.lib(gtcwd.c)
0001:0002faa0  getcwd_
Module: /mnt/sda5/.user/root/src/openwatcom-1.9/bld/gui/ui/dos386/gui.lib(/mnt/sda5/.user/root/src/openwatcom-1.9/bld/gui/ui/c/guixaddt.c)
0001:0002fb40* GUIControlSetRedraw_
0001:0002fbb0  GUIAddText_
0001:0002fbf0* GUIAddTextList_
0001:0002fc30* GUIDeleteItem_
0001:0002fc60  GUIClearList_
0001:0002fcc0  GUIGetCurrSelect_
0001:0002fd10  GUISetCurrSelect_
0001:0002fd60* GUIGetListSize_
0001:0002fd90* GUIInsertText_
0001:0002fdd0* GUISetTopIndex_
0001:0002fe20* GUIGetTopIndex_
Module: /mnt/sda5/.user/root/src/openwatcom-1.9/rel2/lib386/dos/clib3r.lib(dir.c)
0001:0002feb0+ _opendir_
0001:000300b0  opendir_
0001:000300d0  readdir_
0001:00030100  closedir_
0001:00030140* rewinddir_
Module: /mnt/sda5/.user/root/src/openwatcom-1.9/rel2/lib386/dos/clib3r.lib(strstr.c)
0001:00030170  strstr_
Module: /mnt/sda5/.user/root/src/openwatcom-1.9/bld/gui/ui/dos386/gui.lib(/mnt/sda5/.user/root/src/openwatcom-1.9/bld/gui/ui/c/guimapky.c)
0001:00030240  GUISetKeyState_
0001:00030270  GUIMapKeys_
Module: /mnt/sda5/.user/root/src/openwatcom-1.9/rel2/lib386/dos/clib3r.lib(itoa.c)
0001:00030750  utoa_
0001:000307a0  itoa_
Module: /mnt/sda5/.user/root/src/openwatcom-1.9/bld/gui/ui/dos386/gui.lib(/mnt/sda5/.user/root/src/openwatcom-1.9/bld/gui/ui/c/guismove.c)
0001:00030810  GUIStartMoveResize_
0001:00030840  GUIStartKeyboardMoveResize_
0001:00030b10* MoveResizeCancel_
0001:00030b20  GUIDoKeyboardMoveResize_
0001:00030c00  GUIDoMoveResize_
0001:00030c60  GUIDoMoveResizeCheck_
Module: /mnt/sda5/.user/root/src/openwatcom-1.9/bld/gui/ui/dos386/gui.lib(/mnt/sda5/.user/root/src/openwatcom-1.9/bld/gui/ui/c/guikey.c)
0001:00030cb0  GUIProcessAltMenuEvent_
Module: /mnt/sda5/.user/root/src/openwatcom-1.9/bld/gui/ui/dos386/gui.lib(/mnt/sda5/.user/root/src/openwatcom-1.9/bld/gui/ui/c/guixhook.c)
0001:00030d50  GUISetMDIProcessEvent_
0001:00030d60  GUIMDIProcessEvent_
Module: /mnt/sda5/.user/root/src/openwatcom-1.9/bld/ui/dos/dos386/ui.lib(/mnt/sda5/.user/root/src/openwatcom-1.9/bld/ui/c/uipget.c)
0001:00030d73  saveevent_
0001:00030d99  getprime_
0001:00030dc1* uivgetprimevent_
0001:00030dc1* uivgetprime_
0002:000066bc  _Event
Module: /mnt/sda5/.user/root/src/openwatcom-1.9/bld/sdk/rc/wres/small386/ms_r/wres.lib(loadfind.c)
0001:00030dd0  FindResources_
0002:00003b68  _FileShift
Module: /mnt/sda5/.user/root/src/openwatcom-1.9/bld/sdk/rc/wres/small386/ms_r/wres.lib(loadstr.c)
0001:00031018+ WResLoadString2_
0001:000310c8  WResLoadString_
0001:000310e0  OpenResFile_
0001:000310f0+ InitResources2_
0001:00031118  InitResources_
0001:00031128* CloseResFile2_
0001:00031134  CloseResFile_
0001:0003114c* LoadstrInitStatics_
0002:000066c0  _MainDir
Module: /mnt/sda5/.user/root/src/openwatcom-1.9/rel2/lib386/dos/clib3r.lib(iob.c)
0002:00003b6c  ___iob
0002:00003d74  __fmode
0002:000066c4  ___OpenStreams
0002:000066c8  ___ClosedStreams
Module: /mnt/sda5/.user/root/src/openwatcom-1.9/bld/sdk/rc/wres/small386/ms_r/wres.lib(loadres.c)
0001:00031194+ WResLoadResource2_
0001:00031254  WResLoadResource_
Module: /mnt/sda5/.user/root/src/openwatcom-1.9/bld/ui/dos/dos386/ui.lib(/mnt/sda5/.user/root/src/openwatcom-1.9/bld/ui/c/uirfrsh.c)
0001:00031311  uidorefresh_
Module: /mnt/sda5/.user/root/src/openwatcom-1.9/bld/ui/dos/dos386/ui.lib(/mnt/sda5/.user/root/src/openwatcom-1.9/bld/ui/dos/c/uimous.c)
0001:00031397  checkmouse_
0001:000314d7+ uimousespeed_
0001:00031509  setupmouse_
0001:000315ff  initmouse_
0001:00031654  finimouse_
0001:00031662  uisetmouseposn_
0002:00003d78+ _MouseTime
0002:000066d4  _Points
Module: /mnt/sda5/.user/root/src/openwatcom-1.9/bld/ui/dos/dos386/ui.lib(/mnt/sda5/.user/root/src/openwatcom-1.9/bld/ui/dos/c/uicurshk.c)
0001:000316f7  uioffcursor_
0001:000316fc* uioncursor_
0001:00031701* uigetcursor_
0001:00031706  uisetcursor_
0001:00031711  uiswapcursor_
0001:00031716  uiinitcursor_
0001:0003171b  uifinicursor_
Module: /mnt/sda5/.user/root/src/openwatcom-1.9/bld/ui/dos/dos386/ui.lib(/mnt/sda5/.user/root/src/openwatcom-1.9/bld/ui/c/uibfill.c)
0001:00031720  bfill_
Module: /mnt/sda5/.user/root/src/openwatcom-1.9/bld/ui/dos/dos386/ui.lib(/mnt/sda5/.user/root/src/openwatcom-1.9/bld/ui/c/uibcopy.c)
0001:00031761  uibcopy_
Module: /mnt/sda5/.user/root/src/openwatcom-1.9/bld/ui/dos/dos386/ui.lib(/mnt/sda5/.user/root/src/openwatcom-1.9/bld/ui/c/uiwin.c)
0001:0003180c+ findspot_
0001:00031871  closewindow_
0001:000318bb  openwindow_
0001:000318e6  movewindow_
0001:00031910  frontwindow_
Module: /mnt/sda5/.user/root/src/openwatcom-1.9/bld/ui/dos/dos386/ui.lib(/mnt/sda5/.user/root/src/openwatcom-1.9/bld/ui/c/uiballoc.c)
0001:0003193e  bframe_
0001:00031953  balloc_
0001:00031985  bunframe_
0001:0003199a  bfree_
Module: /mnt/sda5/.user/root/src/openwatcom-1.9/rel2/lib386/dos/clib3r.lib(cstart)
0001:00000003* ___begtext
0002:00000000* __nullarea
0002:00003d7c  __D16Infoseg
0002:00003d7e  __x386_zero_base_selector
0001:000319a8  _cstart_
0001:00031bf6  __exit_
0001:00031bf8  __do_exit_with_msg__
0001:00031c40  __GETDS
0001:00031c40  ___GETDSStart_
0001:00031c4b  ___GETDSEnd_
Module: /mnt/sda5/.user/root/src/openwatcom-1.9/rel2/lib386/dos/clib3r.lib(argcv.c)
0002:000066d8  __argc
0002:000066dc  __argv
0002:000066e0  ___argc
0002:000066e4  ___argv
Module: /mnt/sda5/.user/root/src/openwatcom-1.9/bld/ui/dos/dos386/ui.lib(/mnt/sda5/.user/root/src/openwatcom-1.9/bld/ui/c/uibstr.c)
0001:00031c50  bstring_
0001:00031c95  braw_
Module: /mnt/sda5/.user/root/src/openwatcom-1.9/bld/ui/dos/dos386/ui.lib(/mnt/sda5/.user/root/src/openwatcom-1.9/bld/ui/c/uipopup.c)
0001:00031f9c+ uicreatepopupdesc_
0001:00032187  uiposfloatingpopup_
0001:000326d6  uicreatepopupinarea_
0001:000326f9+ uicreatesubpopup_
0001:0003273f  uicreatesubpopupinarea_
0001:0003275f* uicreatepopup_
Module: /mnt/sda5/.user/root/src/openwatcom-1.9/bld/ui/dos/dos386/ui.lib(/mnt/sda5/.user/root/src/openwatcom-1.9/bld/ui/c/uivutil.c)
0001:000327c5  isdialogue_
0001:000327d5  isscreen_
0001:000327f4* uisetsnow_
Module: /mnt/sda5/.user/root/src/openwatcom-1.9/bld/gui/ui/dos386/gui.lib(/mnt/sda5/.user/root/src/openwatcom-1.9/bld/gui/ui/c/uimenucr.c)
0001:00032810  uimenucurr_
Module: /mnt/sda5/.user/root/src/openwatcom-1.9/bld/ui/dos/dos386/ui.lib(/mnt/sda5/.user/root/src/openwatcom-1.9/bld/ui/c/uicheck.c)
0001:0003284a  okarea_
0001:00032878  oksubarea_
0001:0003288b  okline_
0001:000328b1  okopen_
Module: /mnt/sda5/.user/root/src/openwatcom-1.9/bld/ui/dos/dos386/ui.lib(/mnt/sda5/.user/root/src/openwatcom-1.9/bld/ui/c/uibfake.c)
0001:000328bc  bfake_
Module: /mnt/sda5/.user/root/src/openwatcom-1.9/bld/ui/dos/dos386/ui.lib(/mnt/sda5/.user/root/src/openwatcom-1.9/bld/ui/c/uiprot.c)
0001:000328f0  uiunprotect_
0001:00032917  uiprotect_
Module: /mnt/sda5/.user/root/src/openwatcom-1.9/bld/ui/dos/dos386/ui.lib(/mnt/sda5/.user/root/src/openwatcom-1.9/bld/ui/dos/c/uisnow.c)
0001:00032937  vertretrace_
0001:00032938  issnow_
Module: /mnt/sda5/.user/root/src/openwatcom-1.9/bld/ui/dos/dos386/ui.lib(/mnt/sda5/.user/root/src/openwatcom-1.9/bld/ui/c/uiarea.c)
0001:00032960  dividearea_
Module: /mnt/sda5/.user/root/src/openwatcom-1.9/bld/gui/ui/dos386/gui.lib(/mnt/sda5/.user/root/src/openwatcom-1.9/bld/gui/ui/c/helpmem.c)
0001:00032b20  HelpMemFree_
0001:00032b30  HelpMemAlloc_
0001:00032b40  HelpMemRealloc_
Module: /mnt/sda5/.user/root/src/openwatcom-1.9/bld/gui/ui/dos386/gui.lib(/mnt/sda5/.user/root/src/openwatcom-1.9/bld/help/c/helpio.c)
0001:00032b50  HelpFileLen_
0001:00032b60  HelpRead_
0001:00032b70* HelpWrite_
0001:00032b80  HelpSeek_
0001:00032b90  HelpTell_
0001:00032ba0  HelpOpen_
0001:00032c00  HelpClose_
0001:00032c10  HelpAccess_
0001:00032c40  HelpGetCWD_
0001:00032c50  HelpSearchEnv_
Module: /mnt/sda5/.user/root/src/openwatcom-1.9/rel2/lib386/dos/clib3r.lib(splitpat.c)
0001:00032ca0  _splitpath_
Module: /mnt/sda5/.user/root/src/openwatcom-1.9/bld/gui/ui/dos386/gui.lib(/mnt/sda5/.user/root/src/openwatcom-1.9/bld/help/c/search.c)
0001:00032fd0  HelpFindFirst_
0001:00033060  HelpGetIndexedTopic_
0001:000330d0  HelpFindTopicOffset_
0001:00033140  InitHelpSearch_
0001:000333a0  GetDefTopic_
0001:000333b0* GetDescrip_
0001:000333c0  FiniHelpSearch_
0002:00003e04+ _curFile
0002:000066e8+ _curPage
0002:00006ae8+ _pageIndex
0002:00006aec+ _pageHeader
0002:00006af0+ _stringBlock
Module: /mnt/sda5/.user/root/src/openwatcom-1.9/bld/ui/dos/dos386/ui.lib(/mnt/sda5/.user/root/src/openwatcom-1.9/bld/ui/c/uivattr.c)
0001:00033400  uivattribute_
0001:00033446* uivattrflip_
Module: /mnt/sda5/.user/root/src/openwatcom-1.9/bld/ui/dos/dos386/ui.lib(/mnt/sda5/.user/root/src/openwatcom-1.9/bld/ui/c/uitab.c)
0001:0003352f  uitabfilter_
Module: /mnt/sda5/.user/root/src/openwatcom-1.9/bld/gui/ui/dos386/gui.lib(/mnt/sda5/.user/root/src/openwatcom-1.9/bld/help/c/dlg.c)
0001:00033850+ GetListBoxItem_
0001:00033980  HelpDialogCallBack_
0001:00033a10  SearchDlgFini_
0001:00033a40  HelpSearch_
Module: /mnt/sda5/.user/root/src/openwatcom-1.9/bld/gui/ui/dos386/gui.lib(/mnt/sda5/.user/root/src/openwatcom-1.9/bld/help/c/helpscan.c)
0001:00033d30+ freeHyperlinkInfo_
0001:00033d50  ScanLine_
Module: /mnt/sda5/.user/root/src/openwatcom-1.9/rel2/lib386/dos/clib3r.lib(atoi.c)
0001:00033ee0  atoi_
Module: /mnt/sda5/.user/root/src/openwatcom-1.9/bld/gui/ui/dos386/gui.lib(/mnt/sda5/.user/root/src/openwatcom-1.9/bld/help/c/vvscroll.c)
0001:00033f30  vvscroll_
Module: /mnt/sda5/.user/root/src/openwatcom-1.9/rel2/lib386/dos/clib3r.lib(strncmp.c)
0001:00034020  strncmp_
Module: /mnt/sda5/.user/root/src/openwatcom-1.9/bld/gui/ui/dos386/gui.lib(/mnt/sda5/.user/root/src/openwatcom-1.9/bld/help/c/msgbox.c)
0001:00034050  ShowMsgBox_
0002:00003ecc+ _helpMsgBox
Module: /mnt/sda5/.user/root/src/openwatcom-1.9/bld/ui/dos/dos386/ui.lib(/mnt/sda5/.user/root/src/openwatcom-1.9/bld/ui/c/uivmove.c)
0001:000340ab  uivmoveblock_
Module: /mnt/sda5/.user/root/src/openwatcom-1.9/bld/ui/dos/dos386/ui.lib(/mnt/sda5/.user/root/src/openwatcom-1.9/bld/ui/c/uibpix.c)
0001:000341e1  bpixel_
Module: /mnt/sda5/.user/root/src/openwatcom-1.9/bld/gui/ui/dos386/gui.lib(/mnt/sda5/.user/root/src/openwatcom-1.9/bld/gui/ui/c/guidrawt.c)
0001:00034230  GUIXDrawText_
0001:00034560  GUIXDrawTextRGB_
Module: /mnt/sda5/.user/root/src/openwatcom-1.9/bld/sdk/rc/wres/small386/ms_r/wres.lib(resmenu.c)
0001:00034570* ResWriteMenuHeader_
0001:000345a0* ResWriteMenuExHeader_
0001:00034604+ ResWriteMenuItemPopup_
0001:00034654* ResWriteMenuExItemPopup_
0001:000346ec+ ResWriteMenuItemNormal_
0001:00034750* ResWriteMenuExItemNormal_
0001:000347d8* ResWriteMenuItem_
0001:000347fc+ ResReadMenuHeader_
0001:0003483c* ResReadMenuExtraBytes_
0001:00034878* ResIsMenuEx_
0001:000348a4* ResIsHeaderMenuEx_
0001:000348b0* ResReadMenuExItem_
0001:00034990* ResReadMenuItem_
0001:00034a10* ResReadMenuItem32_
0001:00034a90  ResNewMenuItem_
0001:00034acc  ResFreeMenuItem_
Module: /mnt/sda5/.user/root/src/openwatcom-1.9/bld/ui/dos/dos386/ui.lib(/mnt/sda5/.user/root/src/openwatcom-1.9/bld/ui/dos/c/uikeyb.c)
0001:00034b04* uiextkeyboard_
0001:00034b12* getkey_
0001:00034b1e* checkkey_
0001:00034b38  flushkey_
0001:00034b5f* checkshift_
0001:00034b6b  uicheckshift_
0001:00034b77  initkeyboard_
0001:00034be5  keyboardevent_
0001:00034be5* uikeyboardevent_
Module: /mnt/sda5/.user/root/src/openwatcom-1.9/rel2/lib386/dos/clib3r.lib(inirmsel.c)
0002:00006b10  __ExtenderRealModeSelector
Module: /mnt/sda5/.user/root/src/openwatcom-1.9/rel2/lib386/dos/clib3r.lib(crwdata)
0002:00003f83  __osmajor
0002:00003f84  __osminor
0002:00003f58  __psp
0002:00003f7a  __Extender
0002:00003f7b  __ExtenderSubtype
0002:00003f7c  __X32VM
0002:00003f5c* __x386_stacklow
0002:00003f50  __LpCmdLine
0002:00003f54  __LpPgmName
0002:00003f48  __dynend
0002:00003f4c  __curbrk
0002:00003f5c  __STACKLOW
0002:00003f60  __STACKTOP
0002:00003f64  __ASTACKSIZ
0002:00003f68  __ASTACKPTR
0002:00003f6c* __cbyte
0002:00003f70* __cbyte2
0002:00003f74  __child
0002:00003f7d  __Envptr
0002:00003f81  __Envseg
0002:00003f78  __no87
0002:00003f85  ___FPE_handler
Module: /mnt/sda5/.user/root/src/openwatcom-1.9/rel2/lib386/dos/clib3r.lib(intr.c)
0001:00034e30  intr_
Module: /mnt/sda5/.user/root/src/openwatcom-1.9/rel2/lib386/dos/clib3r.lib(setbits.c)
0001:00034e40  __setbits_
Module: /mnt/sda5/.user/root/src/openwatcom-1.9/rel2/lib386/dos/clib3r.lib(bits.c)
0002:00001d34  __Bits
Module: /mnt/sda5/.user/root/src/openwatcom-1.9/bld/ui/dos/dos386/ui.lib(/mnt/sda5/.user/root/src/openwatcom-1.9/bld/ui/dos/c/gmouse.c)
0001:00034ffe+ DrawEgaVgaCursor_
0001:00035365+ EraseEgaVgaCursor_
0001:0003536c  uifinigmouse_
0001:000353b1  uiinitgmouse_
Module: /mnt/sda5/.user/root/src/openwatcom-1.9/bld/ui/dos/dos386/ui.lib(/mnt/sda5/.user/root/src/openwatcom-1.9/bld/ui/dos/c/uimapch.c)
0001:000354ea+ UIMapCharacters_
0001:0003554c  FlipCharacterMap_
Module: /mnt/sda5/.user/root/src/openwatcom-1.9/bld/gui/ui/dos386/gui.lib(/mnt/sda5/.user/root/src/openwatcom-1.9/bld/gui/ui/c/guienum.c)
0001:000355b0  GUIEnumChildWindows_
Module: /mnt/sda5/.user/root/src/openwatcom-1.9/bld/gui/ui/dos386/gui.lib(/mnt/sda5/.user/root/src/openwatcom-1.9/bld/gui/c/guipick.c)
0001:000355e0+ GUIPickEvent_
0001:00035680+ GUIDlgPickWithRtn_
0001:00035700  GUIDlgPick_
Module: /mnt/sda5/.user/root/src/openwatcom-1.9/bld/ui/dos/dos386/ui.lib(/mnt/sda5/.user/root/src/openwatcom-1.9/bld/ui/dos/c/uihook.c)
0001:0003570d  uieventsourcehook_
Module: /mnt/sda5/.user/root/src/openwatcom-1.9/rel2/lib386/dos/clib3r.lib(ljmphdl.c)
0002:000041a0  ___longjmp_handler
Module: /mnt/sda5/.user/root/src/openwatcom-1.9/bld/ui/dos/dos386/ui.lib(/mnt/sda5/.user/root/src/openwatcom-1.9/bld/ui/c/uivline.c)
0001:00035845  uiveditevent_
0001:000359d1* uiveditline_
0001:000359f7  uiveditinit_
0001:00035a43  uiveditfini_
0002:000041a4  _LineEvents
Module: /mnt/sda5/.user/root/src/openwatcom-1.9/rel2/lib386/dos/clib3r.lib(doserror)
0001:00035a48  __doserror_
Module: /mnt/sda5/.user/root/src/openwatcom-1.9/rel2/lib386/dos/clib3r.lib(seterrno.c)
0001:00035a5b  __set_errno_
0001:00035a67* __set_EDOM_
0001:00035a73  __set_ERANGE_
0001:00035a7f* __set_EINVAL_
0001:00035a90  __set_doserrno_
Module: /mnt/sda5/.user/root/src/openwatcom-1.9/rel2/lib386/dos/clib3r.lib(mbsnextc.c)
0001:00035aa0  _mbsnextc_
Module: /mnt/sda5/.user/root/src/openwatcom-1.9/rel2/lib386/dos/clib3r.lib(mbsinc.c)
0001:00035ae0  _mbsinc_
Module: /mnt/sda5/.user/root/src/openwatcom-1.9/rel2/lib386/dos/clib3r.lib(finddos.c)
0001:00035b10  _dos_findfirst_
0001:00035b60  _dos_findnext_
0001:00035bc0  _dos_findclose_
Module: /mnt/sda5/.user/root/src/openwatcom-1.9/rel2/lib386/dos/clib3r.lib(dosret.c)
0001:00035bd0  _dosretax_
0001:00035be0* _dosret0_
0001:00035bf0  __set_errno_dos_
0001:00035c70* __set_errno_dos_reterr_
Module: /mnt/sda5/.user/root/src/openwatcom-1.9/rel2/lib386/dos/clib3r.lib(strdup.c)
0001:00035c80  __clib_strdup_
Module: /mnt/sda5/.user/root/src/openwatcom-1.9/rel2/lib386/dos/clib3r.lib(alphabet.c)
0002:00001418  ___Alphabet
Module: /mnt/sda5/.user/root/src/openwatcom-1.9/bld/ui/dos/dos386/ui.lib(/mnt/sda5/.user/root/src/openwatcom-1.9/bld/ui/c/uiband.c)
0001:00035cf6  uibandinit_
0001:00035d4a  uibandmove_
0001:00035d6d  uibandfini_
Module: /mnt/sda5/.user/root/src/openwatcom-1.9/bld/sdk/rc/wres/small386/ms_r/wres.lib(wriidfn.c)
0001:00035d90  WResInitIDFromNum_
Module: /mnt/sda5/.user/root/src/openwatcom-1.9/bld/sdk/rc/wres/small386/ms_r/wres.lib(wrfindrs.c)
0001:00035da0  __FindType_
0001:00035dc4  __FindRes_
0001:00035de8  __FindLang_
0001:00035e24  WResFindResource_
Module: /mnt/sda5/.user/root/src/openwatcom-1.9/bld/sdk/rc/wres/small386/ms_r/wres.lib(wrgetli.c)
0001:00035ea0  WResGetLangInfo_
0001:00035eb4* WResGetFileInfo_
Module: /mnt/sda5/.user/root/src/openwatcom-1.9/bld/sdk/rc/wres/small386/ms_r/wres.lib(ropenfro.c)
0001:00035ed0  ResOpenFileRO_
Module: /mnt/sda5/.user/root/src/openwatcom-1.9/bld/sdk/rc/wres/small386/ms_r/wres.lib(wrinitdi.c)
0001:00035f20  WResInitDir_
Module: /mnt/sda5/.user/root/src/openwatcom-1.9/bld/sdk/rc/wres/small386/ms_r/wres.lib(wrreaddi.c)
0001:000366ac  WResReadDir_
0001:000366b8+ WResReadDir2_
Module: /mnt/sda5/.user/root/src/openwatcom-1.9/bld/sdk/rc/wres/small386/ms_r/wres.lib(wrfreedi.c)
0001:00036770+ __FreeLangList_
0001:0003679c+ __FreeResList_
0001:000367d4  __FreeTypeList_
0001:0003680c  WResFreeDir_
Module: /mnt/sda5/.user/root/src/openwatcom-1.9/bld/sdk/rc/wres/small386/ms_r/wres.lib(rclosef.c)
0001:00036830  ResCloseFile_
Module: /mnt/sda5/.user/root/src/openwatcom-1.9/rel2/lib386/dos/clib3r.lib(initfile.c)
0001:00036850  __InitFiles_
Module: /mnt/sda5/.user/root/src/openwatcom-1.9/rel2/lib386/dos/clib3r.lib(ioexit.c)
0001:00036950* fcloseall_
0001:00036960  __full_io_exit_
Module: /mnt/sda5/.user/root/src/openwatcom-1.9/bld/ui/dos/dos386/ui.lib(/mnt/sda5/.user/root/src/openwatcom-1.9/bld/ui/dos/c/uiutil.c)
0001:0003696c  installed_
Module: /mnt/sda5/.user/root/src/openwatcom-1.9/bld/ui/dos/dos386/ui.lib(/mnt/sda5/.user/root/src/openwatcom-1.9/bld/ui/dos/c/uicurs.c)
0001:000369a2  _uioffcursor_
0001:000369eb  _uioncursor_
0001:000369eb  _uifinicursor_
0001:00036bd2  _uigetcursor_
0001:00036c57  _uisetcursor_
0001:00036c9a  _uiswapcursor_
0001:00036cb3  _uiinitcursor_
Module: /mnt/sda5/.user/root/src/openwatcom-1.9/bld/ui/dos/dos386/ui.lib(/mnt/sda5/.user/root/src/openwatcom-1.9/bld/ui/c/uifar.c)
0001:00036ce3  _farfill
0001:00036d03  _farcopy
0001:00036d21  _farstring
0001:00036d7b  _farattrib
0001:00036d9c  _farattrflip
Module: /mnt/sda5/.user/root/src/openwatcom-1.9/bld/ui/dos/dos386/ui.lib(/mnt/sda5/.user/root/src/openwatcom-1.9/bld/ui/c/uimem.c)
0001:00036dc1  faralloc_
0001:00036dc6  farfree_
Module: /mnt/sda5/.user/root/src/openwatcom-1.9/rel2/lib386/dos/clib3r.lib(cmain386.c)
0001:00036dd0  __CMain
Module: /mnt/sda5/.user/root/src/openwatcom-1.9/rel2/lib386/dos/clib3r.lib(initrtns.c)
0001:00036e20  __InitRtns
0001:00036e70  __FiniRtns
Module: /mnt/sda5/.user/root/src/openwatcom-1.9/rel2/lib386/dos/clib3r.lib(dosseg)
0000:00001234  __DOSseg__
Module: /mnt/sda5/.user/root/src/openwatcom-1.9/rel2/lib386/dos/clib3r.lib(uselfn.c)
0002:000041e4  ___uselfn
Module: /mnt/sda5/.user/root/src/openwatcom-1.9/rel2/lib386/dos/clib3r.lib(initargv.c)
0001:00036ed0  __Init_Argv_
0001:00036f20+ _getargv_
0001:000370c0  __Fini_Argv_
Module: /mnt/sda5/.user/root/src/openwatcom-1.9/rel2/lib386/dos/clib3r.lib(toupper.c)
0001:000370d0  toupper_
Module: /mnt/sda5/.user/root/src/openwatcom-1.9/bld/ui/dos/dos386/ui.lib(/mnt/sda5/.user/root/src/openwatcom-1.9/bld/ui/c/uibarf.c)
0001:000370de  uibarf_
Module: /mnt/sda5/.user/root/src/openwatcom-1.9/rel2/lib386/dos/clib3r.lib(filelen.c)
0001:000370e0  filelength_
Module: /mnt/sda5/.user/root/src/openwatcom-1.9/rel2/lib386/dos/clib3r.lib(mbsnccnt.c)
0001:00037130  _mbsnccnt_
Module: /mnt/sda5/.user/root/src/openwatcom-1.9/rel2/lib386/dos/clib3r.lib(mbsncpy.c)
0001:00037160  _mbsncpy_
Module: /mnt/sda5/.user/root/src/openwatcom-1.9/rel2/lib386/dos/clib3r.lib(mbsnbcnt.c)
0001:00037180  _mbsnbcnt_
Module: /mnt/sda5/.user/root/src/openwatcom-1.9/bld/ui/dos/dos386/ui.lib(/mnt/sda5/.user/root/src/openwatcom-1.9/bld/ui/c/uibattr.c)
0001:000371e1  battribute_
0001:0003723f  battrflip_
Module: /mnt/sda5/.user/root/src/openwatcom-1.9/bld/sdk/rc/wres/small386/ms_r/wres.lib(wrerror.c)
0001:000372a0  WresRecordError_
Module: /mnt/sda5/.user/root/src/openwatcom-1.9/bld/sdk/rc/wres/small386/ms_r/wres.lib(write.c)
0001:000372d8  ResWriteUint8_
0001:00037308  ResWriteUint16_
0001:00037338  ResWriteUint32_
0001:00037368+ WResWriteWResIDNameUni_
0001:00037450* WResWriteWResIDName_
0001:0003745c* WResWriteWResID_
0001:000374a4* WResWriteTypeRecord_
0001:000374e8* WResWriteResRecord_
0001:0003752c* WResWriteLangRecord_
0001:0003755c* WResWriteHeaderRecord_
0001:000375cc* WResWriteExtHeader_
0001:000375fc+ ResWriteStringLen_
0001:00037680  ResWriteString_
0001:000376b4+ ResWriteNameOrOrdinal_
0001:000377b4* MResWriteResourceHeader_
0001:000378e8* WriteInitStatics_
0002:000041e8+ _ConvToUnicode
Module: /mnt/sda5/.user/root/src/openwatcom-1.9/bld/sdk/rc/wres/small386/ms_r/wres.lib(resseek.c)
0001:00037900* ResSeek_
0001:00037920  ResPadDWord_
Module: /mnt/sda5/.user/root/src/openwatcom-1.9/bld/sdk/rc/wres/small386/ms_r/wres.lib(rduint32.c)
0001:00037980  ResReadUint32_
Module: /mnt/sda5/.user/root/src/openwatcom-1.9/bld/sdk/rc/wres/small386/ms_r/wres.lib(rduint16.c)
0001:000379d0  ResReadUint16_
Module: /mnt/sda5/.user/root/src/openwatcom-1.9/bld/sdk/rc/wres/small386/ms_r/wres.lib(rrdstr.c)
0001:00037a20  ResReadString_
0001:00037a90  ResRead32String_
Module: /mnt/sda5/.user/root/src/openwatcom-1.9/rel2/lib386/dos/clib3r.lib(xmsg.c)
0001:00037b10* __exit_with_msg_
0001:00037b20  __fatal_runtime_error_
Module: /mnt/sda5/.user/root/src/openwatcom-1.9/rel2/lib386/dos/clib3r.lib(int386xa)
0001:00037b40  __int386x_
0001:00037b9c  _DoINTR_
Module: /mnt/sda5/.user/root/src/openwatcom-1.9/bld/ui/dos/dos386/ui.lib(/mnt/sda5/.user/root/src/openwatcom-1.9/bld/ui/dos/c/charmap.c)
0001:00037f19  SetSequencer_
0001:00037f6f  ResetSequencer_
0001:00037fd8  SetWriteMap_
0001:00037fe3* CallVid_
Module: /mnt/sda5/.user/root/src/openwatcom-1.9/bld/ui/dos/dos386/ui.lib(/mnt/sda5/.user/root/src/openwatcom-1.9/bld/ui/c/uipad.c)
0001:00037ff4  uipadblanks_
Module: /mnt/sda5/.user/root/src/openwatcom-1.9/bld/ui/dos/dos386/ui.lib(/mnt/sda5/.user/root/src/openwatcom-1.9/bld/ui/c/uivedit.c)
0001:00038061+ secondbyte_
0001:0003807c  uieditevent_
Module: /mnt/sda5/.user/root/src/openwatcom-1.9/rel2/lib386/dos/clib3r.lib(errno.c)
0001:00038440  __get_errno_ptr_
0001:00038450  __get_doserrno_ptr_
0002:00006de0  _errno
0002:00006de4+ __doserrno
Module: /mnt/sda5/.user/root/src/openwatcom-1.9/rel2/lib386/dos/clib3r.lib(mbisdbcs.c)
0002:00006de8  ___IsDBCS
Module: /mnt/sda5/.user/root/src/openwatcom-1.9/rel2/lib386/dos/clib3r.lib(mbislead.c)
0001:00038460* _ismbblead_
0002:00006dec  ___MBCSIsTable
Module: /mnt/sda5/.user/root/src/openwatcom-1.9/bld/sdk/rc/wres/small386/ms_r/wres.lib(wridcmp.c)
0001:00038480  WResIDCmp_
Module: /mnt/sda5/.user/root/src/openwatcom-1.9/rel2/lib386/dos/clib3r.lib(setmd.c)
0001:000384c0  setmode_
Module: /mnt/sda5/.user/root/src/openwatcom-1.9/bld/sdk/rc/wres/small386/ms_r/wres.lib(ralliae.c)
0001:00038580  ResAddLLItemAtEnd_
Module: /mnt/sda5/.user/root/src/openwatcom-1.9/bld/sdk/rc/wres/small386/ms_r/wres.lib(wrrfrr.c)
0001:000385b0  WResReadFixedResRecord_
0001:000385f0  WResReadFixedResRecord1_
0001:00038630  WResReadFixedResRecord2_
Module: /mnt/sda5/.user/root/src/openwatcom-1.9/bld/sdk/rc/wres/small386/ms_r/wres.lib(wridexby.c)
0001:000386b0  WResIDExtraBytes_
Module: /mnt/sda5/.user/root/src/openwatcom-1.9/bld/sdk/rc/wres/small386/ms_r/wres.lib(wrrewrid.c)
0001:000386c0  WResReadExtraWResID_
Module: /mnt/sda5/.user/root/src/openwatcom-1.9/bld/sdk/rc/wres/small386/ms_r/wres.lib(wrrftr.c)
0001:00038720  WResReadFixedTypeRecord_
0001:00038768  WResReadFixedTypeRecord2_
Module: /mnt/sda5/.user/root/src/openwatcom-1.9/bld/sdk/rc/wres/small386/ms_r/wres.lib(wrrhr.c)
0001:000387e0  WResReadHeaderRecord_
0001:00038858  WResReadExtHeader_
Module: /mnt/sda5/.user/root/src/openwatcom-1.9/bld/sdk/rc/wres/small386/ms_r/wres.lib(mrrdrh.c)
0001:000388a0  M32ResReadResourceHeader_
0001:00038a0c  MResReadResourceHeader_
Module: /mnt/sda5/.user/root/src/openwatcom-1.9/bld/sdk/rc/wres/small386/ms_r/wres.lib(wrfree.c)
0001:00038ab0  MResFreeResourceHeader_
Module: /mnt/sda5/.user/root/src/openwatcom-1.9/bld/sdk/rc/wres/small386/ms_r/wres.lib(wridfnoo.c)
0001:00038af0  WResIDFromNameOrOrd_
Module: /mnt/sda5/.user/root/src/openwatcom-1.9/bld/sdk/rc/wres/small386/ms_r/wres.lib(wraddres.c)
0001:00038c6c* WResAddResource_
0001:00038cc8  WResAddResource2_
Module: /mnt/sda5/.user/root/src/openwatcom-1.9/bld/sdk/rc/wres/small386/ms_r/wres.lib(wriswrf.c)
0001:00038df0  WResFindResType_
0001:00038e88* WResIsWResFile_
Module: /mnt/sda5/.user/root/src/openwatcom-1.9/rel2/lib386/dos/clib3r.lib(nmalloc.c)
0001:00038ea0  _nmalloc_
0001:00038ea0  malloc_
0002:000041ec  ___nheapbeg
0002:000041f0  ___MiniHeapRover
0002:000041f4  ___LargestSizeB4MiniHeapRover
Module: /mnt/sda5/.user/root/src/openwatcom-1.9/rel2/lib386/dos/clib3r.lib(fclose.c)
0001:00038fa0  __doclose_
0001:00039020  __shutdown_stream_
0001:00039040  fclose_
0002:00006ef0+ ___RmTmpFileFn
Module: /mnt/sda5/.user/root/src/openwatcom-1.9/rel2/lib386/dos/clib3r.lib(freefp.c)
0001:00039070  __freefp_
0001:000390b0  __purgefp_
Module: /mnt/sda5/.user/root/src/openwatcom-1.9/rel2/lib386/dos/clib3r.lib(int386.c)
0001:000390e0  int386_
Module: /mnt/sda5/.user/root/src/openwatcom-1.9/rel2/lib386/dos/clib3r.lib(fmemmove.c)
0001:00039100  _fmemmove_
Module: /mnt/sda5/.user/root/src/openwatcom-1.9/bld/ui/dos/dos386/ui.lib(/mnt/sda5/.user/root/src/openwatcom-1.9/bld/ui/c/uifmem.c)
0001:00039187  uifaralloc_
0001:00039196  uifarfree_
Module: /mnt/sda5/.user/root/src/openwatcom-1.9/rel2/lib386/dos/clib3r.lib(cinit.c)
0001:000391a0  __CommonInit_
Module: /mnt/sda5/.user/root/src/openwatcom-1.9/rel2/lib386/dos/clib3r.lib(___argc.c)
0002:00006ef4  ____Argc
0002:00006ef8  ____Argv
Module: /mnt/sda5/.user/root/src/openwatcom-1.9/rel2/lib386/dos/clib3r.lib(sgdef086)
0002:00004780  __Start_XI
0002:000047c2  __End_XI
0002:000047c2  __Start_YI
0002:000047e6  __End_YI
Module: /mnt/sda5/.user/root/src/openwatcom-1.9/rel2/lib386/dos/clib3r.lib(histsplt.c)
0002:00006efc  ___historical_splitparms
Module: /mnt/sda5/.user/root/src/openwatcom-1.9/rel2/lib386/dos/clib3r.lib(__lseek.c)
0001:00039200  __lseek_
Module: /mnt/sda5/.user/root/src/openwatcom-1.9/rel2/lib386/dos/clib3r.lib(mbterm.c)
0001:00039250  _mbterm_
Module: /mnt/sda5/.user/root/src/openwatcom-1.9/rel2/lib386/dos/clib3r.lib(mbclen.c)
0001:00039290  _mbclen_
Module: /mnt/sda5/.user/root/src/openwatcom-1.9/rel2/lib386/dos/clib3r.lib(mbsnbcpy.c)
0001:000392c0  _mbsnbcpy_
Module: /mnt/sda5/.user/root/src/openwatcom-1.9/bld/sdk/rc/wres/small386/ms_r/wres.lib(varstr.c)
0001:00039320  VarStringStart_
0001:00039354  VarStringAddChar_
0001:000393ac  VarStringEnd_
Module: /mnt/sda5/.user/root/src/openwatcom-1.9/bld/sdk/rc/wres/small386/ms_r/wres.lib(rduint8.c)
0001:00039450  ResReadUint8_
Module: /mnt/sda5/.user/root/src/openwatcom-1.9/rel2/lib386/dos/clib3r.lib(enterdb.c)
0001:000394a0  __EnterWVIDEO_
0002:000041f8+ ___WD_Present
Module: /mnt/sda5/.user/root/src/openwatcom-1.9/rel2/lib386/dos/clib3r.lib(mbinit.c)
0001:00039500  __mbinit_
0001:000395d1+ dos_get_dbcs_lead_table_
0001:000396c5+ dos_get_code_page_
0002:000041fc  ___MBCodePage
Module: /mnt/sda5/.user/root/src/openwatcom-1.9/bld/sdk/rc/wres/small386/ms_r/wres.lib(wridnacm.c)
0001:000398a0  WResIDNameCmp_
Module: /mnt/sda5/.user/root/src/openwatcom-1.9/rel2/lib386/dos/clib3r.lib(iomode.c)
0001:000398f0  __GetIOMode_
0001:00039910  __SetIOMode_nogrow_
0002:00004200  ___NFiles
0002:00004204  ___init_mode
0002:00004254  ___io_mode
Module: /mnt/sda5/.user/root/src/openwatcom-1.9/rel2/lib386/dos/clib3r.lib(stiomode.c)
0001:00039930+ __grow_iomode_
0001:000399f0+ __shrink_iomode_
0001:00039a20  __SetIOMode_
Module: /mnt/sda5/.user/root/src/openwatcom-1.9/bld/sdk/rc/wres/small386/ms_r/wres.lib(rrnamoor.c)
0001:00039a90  ResReadNameOrOrdinal_
0001:00039b80  ResRead32NameOrOrdinal_
Module: /mnt/sda5/.user/root/src/openwatcom-1.9/bld/sdk/rc/wres/small386/ms_r/wres.lib(wridfrst.c)
0001:00039c70  WResIDFromStr_
Module: /mnt/sda5/.user/root/src/openwatcom-1.9/bld/sdk/rc/wres/small386/ms_r/wres.lib(wridfrnu.c)
0001:00039cf0  WResIDFromNum_
Module: /mnt/sda5/.user/root/src/openwatcom-1.9/bld/sdk/rc/wres/small386/ms_r/wres.lib(wrfirres.c)
0001:00039d50* WResFirstResource_
0001:00039d80  WResSetEmptyWindow_
0001:00039d9c  WResMakeWindow_
Module: /mnt/sda5/.user/root/src/openwatcom-1.9/rel2/lib386/dos/clib3r.lib(nmemneed.c)
0001:00039db0  __nmemneed_
Module: /mnt/sda5/.user/root/src/openwatcom-1.9/rel2/lib386/dos/clib3r.lib(mem.c)
0001:00039dc0  __MemAllocator
0001:00039e70  __MemFree
Module: /mnt/sda5/.user/root/src/openwatcom-1.9/rel2/lib386/dos/clib3r.lib(grownear.c)
0001:0003a030+ __FreeDPMIBlocks_
0001:0003a0a0  __ReAllocDPMIBlock_
0001:0003a230+ __LastFree_
0001:0003a4a0  __ExpandDGROUP_
Module: /mnt/sda5/.user/root/src/openwatcom-1.9/rel2/lib386/dos/clib3r.lib(_clse.c)
0001:0003a5f0  __close_
Module: /mnt/sda5/.user/root/src/openwatcom-1.9/rel2/lib386/dos/clib3r.lib(flush.c)
0001:0003a640  __flush_
Module: /mnt/sda5/.user/root/src/openwatcom-1.9/rel2/lib386/dos/clib3r.lib(segread.c)
0001:0003a730  segread_
Module: /mnt/sda5/.user/root/src/openwatcom-1.9/rel2/lib386/dos/clib3r.lib(intx386.c)
0001:0003a760  int386x_
Module: /mnt/sda5/.user/root/src/openwatcom-1.9/rel2/lib386/dos/clib3r.lib(amblksiz.c)
0002:00004258  __amblksiz
Module: /mnt/sda5/.user/root/src/openwatcom-1.9/rel2/lib386/dos/clib3r.lib(dpmihost.c)
0001:0003a780  __DPMI_hosted_
Module: /mnt/sda5/.user/root/src/openwatcom-1.9/rel2/lib386/dos/clib3r.lib(intdx386.c)
0001:0003a820  intdosx_
Module: /mnt/sda5/.user/root/src/openwatcom-1.9/rel2/lib386/dos/clib3r.lib(iomodtty.c)
0001:0003a890  __ChkTTYIOMode_
0001:0003a8d0* __IOMode_
Module: /mnt/sda5/.user/root/src/openwatcom-1.9/rel2/lib386/dos/clib3r.lib(nfree.c)
0001:0003a8f0  _nfree_
0001:0003a8f0  free_
0002:00006f04  ___MiniHeapFreeRover
Module: /mnt/sda5/.user/root/src/openwatcom-1.9/rel2/lib386/dos/clib3r.lib(heapen.c)
0001:0003a9f0* _heapenable_
0002:00004260  ___heap_enabled
Module: /mnt/sda5/.user/root/src/openwatcom-1.9/rel2/lib386/dos/clib3r.lib(minreal.c)
0002:00006f08  ___minreal
Module: /mnt/sda5/.user/root/src/openwatcom-1.9/rel2/lib386/dos/clib3r.lib(sbrk386.c)
0001:0003aa00* sbrk_
0001:0003aae0  __brk_
Module: /mnt/sda5/.user/root/src/openwatcom-1.9/rel2/lib386/dos/clib3r.lib(qwrit.c)
0001:0003ac00  __qwrite_
Module: /mnt/sda5/.user/root/src/openwatcom-1.9/rel2/lib386/dos/clib3r.lib(fsync.c)
0001:0003ac80  fsync_
Module: /mnt/sda5/.user/root/src/openwatcom-1.9/rel2/lib386/dos/clib3r.lib(isatt.c)
0001:0003ac90  isatty_
Module: /mnt/sda5/.user/root/src/openwatcom-1.9/rel2/lib386/dos/clib3r.lib(filedos.c)
0001:0003acb0* _dos_close_
0001:0003acc0  _dos_commit_
Module: /mnt/sda5/.user/root/src/openwatcom-1.9/rel2/lib386/dos/clib3r.lib(lseek.c)
0001:0003acd0  lseek_
Module: /mnt/sda5/.user/root/src/openwatcom-1.9/rel2/lib386/dos/clib3r.lib(open.c)
0001:0003af40  open_
0001:0003af60  sopen_
Module: /mnt/sda5/.user/root/src/openwatcom-1.9/rel2/lib386/dos/clib3r.lib(close.c)
0001:0003af90  close_
Module: /mnt/sda5/.user/root/src/openwatcom-1.9/rel2/lib386/dos/clib3r.lib(read.c)
0001:0003afa0  read_
Module: /mnt/sda5/.user/root/src/openwatcom-1.9/rel2/lib386/dos/clib3r.lib(nrealloc.c)
0001:0003b0d0* _nrealloc_
0001:0003b0d0  realloc_
Module: /mnt/sda5/.user/root/src/openwatcom-1.9/rel2/lib386/dos/clib3r.lib(write.c)
0001:0003b280  write_
Module: /mnt/sda5/.user/root/src/openwatcom-1.9/rel2/lib386/dos/clib3r.lib(remove.c)
0001:0003b4c0  remove_
Module: /mnt/sda5/.user/root/src/openwatcom-1.9/rel2/lib386/dos/clib3r.lib(fopen.c)
0001:0003b4d0+ __open_flags_
0001:0003b6d0+ _fsopen_
0001:0003b720  fopen_
0001:0003b7a0* freopen_
Module: /mnt/sda5/.user/root/src/openwatcom-1.9/rel2/lib386/dos/clib3r.lib(sprintf.c)
0001:0003b800  sprintf_
Module: /mnt/sda5/.user/root/src/openwatcom-1.9/rel2/lib386/dos/clib3r.lib(fltused.c)
0002:00004264  _fltused_
Module: /mnt/sda5/.user/root/src/openwatcom-1.9/rel2/lib386/dos/clib3r.lib(_8087)
0002:00004268  __8087
0002:00004269  __real87
Module: /mnt/sda5/.user/root/src/openwatcom-1.9/rel2/lib386/dos/clib3r.lib(stat.c)
0001:0003b8a0  stat_
Module: /mnt/sda5/.user/root/src/openwatcom-1.9/rel2/lib386/dos/clib3r.lib(split2.c)
0001:0003bb50  _splitpath2_
Module: /mnt/sda5/.user/root/src/openwatcom-1.9/rel2/lib386/dos/clib3r.lib(memset.c)
0001:0003bca0  memset_
Module: /mnt/sda5/.user/root/src/openwatcom-1.9/rel2/lib386/dos/clib3r.lib(exit.c)
0001:0003bcb8+ __null_int23_exit_
0001:0003bcb9  exit_
0001:0003bce5* _exit_
0002:0000426c+ ___int23_exit
0002:00004270  ___FPE_handler_exit
Module: /mnt/sda5/.user/root/src/openwatcom-1.9/rel2/lib386/dos/clib3r.lib(fprintf.c)
0001:0003bd00  fprintf_
Module: /mnt/sda5/.user/root/src/openwatcom-1.9/rel2/lib386/dos/clib3r.lib(stack386.c)
0001:0003bd30  stackavail_
Module: /mnt/sda5/.user/root/src/openwatcom-1.9/rel2/lib386/dos/clib3r.lib(stk)
0001:0003bd57* __STK
0001:0003bd44  __CHK
0001:0003bd54  __GRO
0001:0003bd75  __STKOVERFLOW_
Module: /mnt/sda5/.user/root/src/openwatcom-1.9/rel2/lib386/dos/clib3r.lib(fstat.c)
0001:0003bd90  fstat_
Module: /mnt/sda5/.user/root/src/openwatcom-1.9/rel2/lib386/dos/clib3r.lib(qsort.c)
0001:0003bf10  qsort_
Module: /mnt/sda5/.user/root/src/openwatcom-1.9/rel2/lib386/dos/clib3r.lib(tell.c)
0001:0003c5d0  tell_
Module: /mnt/sda5/.user/root/src/openwatcom-1.9/rel2/lib386/dos/clib3r.lib(accss.c)
0001:0003c5f0  access_
Module: /mnt/sda5/.user/root/src/openwatcom-1.9/rel2/lib386/dos/clib3r.lib(searchen.c)
0001:0003c630  _searchenv_
Module: /mnt/sda5/.user/root/src/openwatcom-1.9/rel2/lib386/dos/clib3r.lib(makepath.c)
0001:0003c780  _makepath_
Module: /mnt/sda5/.user/root/src/openwatcom-1.9/rel2/lib386/dos/clib3r.lib(getenv.c)
0001:0003c930  getenv_
Module: /mnt/sda5/.user/root/src/openwatcom-1.9/rel2/lib386/dos/clib3r.lib(spl.c)
0001:0003c9c0  spawnl_
Module: /mnt/sda5/.user/root/src/openwatcom-1.9/rel2/lib386/dos/clib3r.lib(snprintf.c)
0001:0003ca20+ vsnprintf_
0001:0003ca80  snprintf_
Module: /mnt/sda5/.user/root/src/openwatcom-1.9/rel2/lib386/dos/clib3r.lib(stricmp.c)
0001:0003cab0  stricmp_
Module: /mnt/sda5/.user/root/src/openwatcom-1.9/rel2/lib386/dos/clib3r.lib(gtcmddos.c)
0001:0003caf0+ _bgetcmd_
0001:0003cb70  getcmd_
Module: /mnt/sda5/.user/root/src/openwatcom-1.9/rel2/lib386/dos/clib3r.lib(istable.c)
0002:00001d3c  __IsTable
Module: /mnt/sda5/.user/root/src/openwatcom-1.9/rel2/lib386/dos/clib3r.lib(tolower.c)
0001:0003cb90  tolower_
Module: /mnt/sda5/.user/root/src/openwatcom-1.9/rel2/lib386/dos/clib3r.lib(memmove.c)
0001:0003cba0  memmove_
Module: /mnt/sda5/.user/root/src/openwatcom-1.9/rel2/lib386/dos/clib3r.lib(strncpy.c)
0001:0003cc00  strncpy_
Module: /mnt/sda5/.user/root/src/openwatcom-1.9/rel2/lib386/dos/clib3r.lib(hugeval.c)
0002:00001e40  __HugeValue
Module: /mnt/sda5/.user/root/src/openwatcom-1.9/rel2/lib386/dos/clib3r.lib(dosinite.asm)
0001:0003cc40  __sys_init_387_emulator
0001:0003cd70  __sys_fini_387_emulator
Module: /mnt/sda5/.user/root/src/openwatcom-1.9/rel2/lib386/dos/clib3r.lib(cmdname.c)
0001:0003ce20  _cmdname_
Module: /mnt/sda5/.user/root/src/openwatcom-1.9/rel2/lib386/dos/clib3r.lib(opendos.c)
0001:0003ce50  _dos_open_
Module: /mnt/sda5/.user/root/src/openwatcom-1.9/rel2/lib386/dos/clib3r.lib(umaskval.c)
0002:000042d4  ___umaskval
Module: /mnt/sda5/.user/root/src/openwatcom-1.9/rel2/lib386/dos/clib3r.lib(creatdos.c)
0001:0003ce70  _dos_creat_
0001:0003ce90* _dos_creatnew_
Module: /mnt/sda5/.user/root/src/openwatcom-1.9/rel2/lib386/dos/clib3r.lib(nmsize.c)
0001:0003ceb0  _nmsize_
0001:0003ceb0* _msize_
Module: /mnt/sda5/.user/root/src/openwatcom-1.9/rel2/lib386/dos/clib3r.lib(nexpand.c)
0001:0003cec0  _nexpand_
0001:0003cec0* _expand_
0001:0003cf30+ __HeapManager_expand_
Module: /mnt/sda5/.user/root/src/openwatcom-1.9/rel2/lib386/dos/clib3r.lib(unlnk.c)
0001:0003d100  unlink_
Module: /mnt/sda5/.user/root/src/openwatcom-1.9/rel2/lib386/dos/clib3r.lib(comtflag.c)
0001:0003d120* __set_commode_
0002:000042d8  __commode
Module: /mnt/sda5/.user/root/src/openwatcom-1.9/rel2/lib386/dos/clib3r.lib(fseek.c)
0001:0003d180  fseek_
Module: /mnt/sda5/.user/root/src/openwatcom-1.9/rel2/lib386/dos/clib3r.lib(chktty.c)
0001:0003d280  __chktty_
Module: /mnt/sda5/.user/root/src/openwatcom-1.9/rel2/lib386/dos/clib3r.lib(allocfp.c)
0001:0003d2c0  __allocfp_
Module: /mnt/sda5/.user/root/src/openwatcom-1.9/rel2/lib386/dos/clib3r.lib(vsprintf.c)
0001:0003d3a0  vsprintf_
Module: /mnt/sda5/.user/root/src/openwatcom-1.9/rel2/lib386/dos/clib3r.lib(setefg.c)
0001:0003d3c0  __setEFGfmt_
Module: /mnt/sda5/.user/root/src/openwatcom-1.9/rel2/lib386/dos/clib3r.lib(chk8087.c)
0001:0003d400* _fpreset_
0001:0003d420+ __init_8087_
0001:0003d460+ __default_sigfpe_handler_
0001:0003d480  __chk8087_
Module: /mnt/sda5/.user/root/src/openwatcom-1.9/rel2/lib386/dos/clib3r.lib(mbschr.c)
0001:0003d4f0  _mbschr_
Module: /mnt/sda5/.user/root/src/openwatcom-1.9/rel2/lib386/dos/clib3r.lib(mbscmp.c)
0001:0003d550  _mbscmp_
Module: /mnt/sda5/.user/root/src/openwatcom-1.9/rel2/lib386/dos/clib3r.lib(mbspbrk.c)
0001:0003d5c0  _mbspbrk_
Module: /mnt/sda5/.user/root/src/openwatcom-1.9/rel2/lib386/dos/clib3r.lib(fullpath.c)
0001:0003d610+ _sys_fullpath_
0001:0003d930  _fullpath_
Module: /mnt/sda5/.user/root/src/openwatcom-1.9/rel2/lib386/dos/clib3r.lib(d2ttime.c)
0001:0003d9b0  _d2ttime_
Module: /mnt/sda5/.user/root/src/openwatcom-1.9/rel2/lib386/dos/clib3r.lib(__stos)
0001:0003da30  __STOSB
0001:0003da67* __STOSD
Module: /mnt/sda5/.user/root/src/openwatcom-1.9/rel2/lib386/dos/clib3r.lib(fprtf.c)
0001:0003db00  __fprtf_
Module: /mnt/sda5/.user/root/src/openwatcom-1.9/rel2/lib386/dos/clib3r.lib(gfattdos.c)
0001:0003dba0  _dos_getfileattr_
Module: /mnt/sda5/.user/root/src/openwatcom-1.9/rel2/lib386/dos/clib3r.lib(strlen.c)
0001:0003dbc0  strlen_
Module: /mnt/sda5/.user/root/src/openwatcom-1.9/rel2/lib386/dos/clib3r.lib(strcat.c)
0001:0003dbe0  strcat_
Module: /mnt/sda5/.user/root/src/openwatcom-1.9/rel2/lib386/dos/clib3r.lib(mbconv.c)
0001:0003dc20  _mbvtop_
Module: /mnt/sda5/.user/root/src/openwatcom-1.9/rel2/lib386/dos/clib3r.lib(mbsdec.c)
0001:0003dc40  _mbsdec_
Module: /mnt/sda5/.user/root/src/openwatcom-1.9/rel2/lib386/dos/clib3r.lib(environ.c)
0002:00006f0c  ___env_mask
0002:00006f10  _environ
0002:00006f14* __wenviron
Module: /mnt/sda5/.user/root/src/openwatcom-1.9/rel2/lib386/dos/clib3r.lib(mbcupper.c)
0001:0003dcc0  _mbctoupper_
Module: /mnt/sda5/.user/root/src/openwatcom-1.9/rel2/lib386/dos/clib3r.lib(spve.c)
0001:0003dd50  spawnve_
Module: /mnt/sda5/.user/root/src/openwatcom-1.9/rel2/lib386/dos/clib3r.lib(prtf.c)
0001:0003e0c0  __prtf_
Module: /mnt/sda5/.user/root/src/openwatcom-1.9/rel2/lib386/dos/emu387.lib(emu387)
0001:0003f2f0  __int7_pl3
0001:0003f314* __int7_X32VM
0001:0003f360  __int7
Module: /mnt/sda5/.user/root/src/openwatcom-1.9/rel2/lib386/dos/clib3r.lib(hook387.c)
0001:000424a0  __hook387
0001:00042550  __unhook387
Module: /mnt/sda5/.user/root/src/openwatcom-1.9/rel2/lib386/dos/clib3r.lib(8087cw.c)
0002:00004360  __8087cw
Module: /mnt/sda5/.user/root/src/openwatcom-1.9/rel2/lib386/dos/clib3r.lib(noefgfmt.c)
0002:00004364  ___EFG_printf
0002:00004368  ___EFG_scanf
Module: /mnt/sda5/.user/root/src/openwatcom-1.9/rel2/lib386/dos/math387r.lib(efgfmt.c)
0001:000425a2  _EFG_Format_
Module: /mnt/sda5/.user/root/src/openwatcom-1.9/rel2/lib386/dos/math387r.lib(cnvs2d.c)
0001:00042712  __cnvs2d_
Module: /mnt/sda5/.user/root/src/openwatcom-1.9/rel2/lib386/dos/clib3r.lib(save8087.c)
0002:0000436c  ___Save8087
0002:00004370  ___Rest8087
Module: /mnt/sda5/.user/root/src/openwatcom-1.9/rel2/lib386/dos/clib3r.lib(init8087)
0001:00042724  __x87id
Module: /mnt/sda5/.user/root/src/openwatcom-1.9/rel2/lib386/dos/clib3r.lib(grabfp87.c)
0001:00042760  __GrabFP87_
Module: /mnt/sda5/.user/root/src/openwatcom-1.9/rel2/lib386/dos/clib3r.lib(mbccmp.c)
0001:000427d0  _mbccmp_
Module: /mnt/sda5/.user/root/src/openwatcom-1.9/rel2/lib386/dos/clib3r.lib(mktime.c)
0001:00042810  mktime_
Module: /mnt/sda5/.user/root/src/openwatcom-1.9/rel2/lib386/dos/clib3r.lib(fputc.c)
0001:000428a0  fputc_
Module: /mnt/sda5/.user/root/src/openwatcom-1.9/rel2/lib386/dos/clib3r.lib(ioalloc.c)
0001:00042960  __ioalloc_
Module: /mnt/sda5/.user/root/src/openwatcom-1.9/rel2/lib386/dos/clib3r.lib(setenvp.c)
0001:00042a00  __setenvp_
0001:00042ae0  __freeenvp_
Module: /mnt/sda5/.user/root/src/openwatcom-1.9/rel2/lib386/dos/clib3r.lib(mbdtoupp.c)
0001:00042b30  _mbdtoupper_
Module: /mnt/sda5/.user/root/src/openwatcom-1.9/rel2/lib386/dos/clib3r.lib(cenvarg.c)
0001:00042b51  __cenvarg_
0001:00042c86  __ccmdline_
Module: /mnt/sda5/.user/root/src/openwatcom-1.9/rel2/lib386/dos/clib3r.lib(dospawn)
0001:00042cd5  __dospawn
Module: /mnt/sda5/.user/root/src/openwatcom-1.9/rel2/lib386/dos/clib3r.lib(strcpy.c)
0001:00042db0  strcpy_
Module: /mnt/sda5/.user/root/src/openwatcom-1.9/rel2/lib386/dos/clib3r.lib(_slashc.c)
0001:00042de0  __Slash_C_
Module: /mnt/sda5/.user/root/src/openwatcom-1.9/rel2/lib386/dos/clib3r.lib(wctomb.c)
0001:00042e10  wctomb_
Module: /mnt/sda5/.user/root/src/openwatcom-1.9/rel2/lib386/dos/clib3r.lib(strupr.c)
0001:00042e40  strupr_
Module: /mnt/sda5/.user/root/src/openwatcom-1.9/rel2/lib386/dos/clib3r.lib(lltoa.c)
0001:00042e60  ulltoa_
0001:00042ed0* lltoa_
Module: /mnt/sda5/.user/root/src/openwatcom-1.9/rel2/lib386/dos/clib3r.lib(ltoa.c)
0001:00042f00  ultoa_
0001:00042f50* ltoa_
Module: /mnt/sda5/.user/root/src/openwatcom-1.9/rel2/lib386/dos/clib3r.lib(fpexcept.c)
0001:00042f80  __FPE_exception_
Module: /mnt/sda5/.user/root/src/openwatcom-1.9/rel2/lib386/dos/clib3r.lib(rtcntrl.c)
0001:00042f90* _SetLD64bit_
0001:00042fa0* _SetLD80bit_
0001:00042fb0  _LDisDouble_
Module: /mnt/sda5/.user/root/src/openwatcom-1.9/rel2/lib386/dos/clib3r.lib(fpe387)
0002:000043a0  ___PMSeg
0002:000043a2  ___PMAddr
0002:000043a6  ___RMAddr
0001:00042fc0  __Init_FPE_handler_
0001:00042ff8  __Fini_FPE_handler_
Module: /mnt/sda5/.user/root/src/openwatcom-1.9/rel2/lib386/dos/clib3r.lib(fpeinth)
0001:00043034  __FPEHandler_
0001:00043034  ___FPEHandlerStart_
0001:00043041  __FPE2Handler_
0001:00043143  ___FPEHandlerEnd_
Module: /mnt/sda5/.user/root/src/openwatcom-1.9/rel2/lib386/dos/clib3r.lib(locmktim.c)
0001:00043280  __local_mktime_
Module: /mnt/sda5/.user/root/src/openwatcom-1.9/rel2/lib386/dos/clib3r.lib(gmtime.c)
0001:00043400  __brktime_
0001:00043500+ _gmtime_
0001:00043520* gmtime_
Module: /mnt/sda5/.user/root/src/openwatcom-1.9/rel2/lib386/dos/clib3r.lib(tzset.c)
0002:000045c8  ___start_dst
0002:000045ec  ___end_dst
0002:00004714* _tzname
0002:0000471c  _timezone
0002:00004720  _daylight
0002:00004724  ___dst_adjust
0001:00043530* __DontCacheOSTZ_
0001:00043540* __CacheOSTZ_
0001:00043a50+ __parse_tz_
0001:00043c80  tzset_
Module: /mnt/sda5/.user/root/src/openwatcom-1.9/rel2/lib386/dos/clib3r.lib(timeutil.c)
0001:00043df0  __isindst_
Module: /mnt/sda5/.user/root/src/openwatcom-1.9/rel2/lib386/dos/clib3r.lib(clearenv.c)
0001:00044120  clearenv_
Module: /mnt/sda5/.user/root/src/openwatcom-1.9/rel2/lib386/dos/clib3r.lib(fpephar)
0001:000441b0  __Phar_hook_init_
0001:00044276  __Phar_hook_fini_
Module: /mnt/sda5/.user/root/src/openwatcom-1.9/rel2/lib386/dos/clib3r.lib(fpedos4g)
0001:000442a4  __DOS4G_hook_init_
0001:000442d2  __DOS4G_hook_fini_
Module: /mnt/sda5/.user/root/src/openwatcom-1.9/rel2/lib386/dos/clib3r.lib(leapyear.c)
0001:000442f0  __leapyear_
0002:000014fc  ___diyr
0002:00001516  ___dilyr
Module: /mnt/sda5/.user/root/src/openwatcom-1.9/rel2/lib386/dos/clib3r.lib(fpeint.c)
0002:00004774  ___FPE_int
0002:00004775  ___IRQ_num
0002:00004776+ ___IRQ_int
0002:00004777  ___MST_pic
0002:00004778+ ___SLV_pic
Module: /mnt/sda5/.user/root/src/openwatcom-1.9/rel2/lib386/dos/clib3r.lib(nonibm.c)
0001:00044380+ __is_nonIBM_
0002:0000477c  ___NonIBM


                        +----------------------+
                        |   Imported Symbols   |
                        +----------------------+

Symbol                              Module
======                              ======



                        +--------------------+
                        |   Libraries Used   |
                        +--------------------+

/mnt/sda5/.user/root/src/openwatcom-1.9/bld/aui/dos386/aui.lib
/mnt/sda5/.user/root/src/openwatcom-1.9/bld/gui/ui/dos386/gui.lib
/mnt/sda5/.user/root/src/openwatcom-1.9/bld/ui/dos/dos386/ui.lib
/mnt/sda5/.user/root/src/openwatcom-1.9/bld/sdk/rc/wres/small386/ms_r/wres.lib
/mnt/sda5/.user/root/src/openwatcom-1.9/rel2/lib386/dos/math387r.lib
/mnt/sda5/.user/root/src/openwatcom-1.9/rel2/lib386/dos/emu387.lib
/mnt/sda5/.user/root/src/openwatcom-1.9/rel2/lib386/dos/clib3r.lib


                        +-----------------------+
                        |   Linker Statistics   |
                        +-----------------------+

Stack size:  5000 (20480.)
Memory size:  0005039b (328603.)
Entry point address: 0001:000319a8
Link time: 00:00.00
