Open Watcom Linker Version 1.9
Portions Copyright (c) 1985-2002 Sybase, Inc. All Rights Reserved.
Created on:       12/12/16 02:42:30
Executable Image: wprof.exe
creating a Windows 16-bit executable


                        +------------+
                        |   Groups   |
                        +------------+

Group                           Address              Size
=====                           =======              ====

DGROUP                          0006:0000            00006e90



                        +--------------+
                        |   Segments   |
                        +--------------+

Segment                Class          Group          Address         Size
=======                =====          =====          =======         ====

srcmgt_TEXT            CODE           AUTO           0001:0000       000006f2
aboutmsg_TEXT          CODE           AUTO           0001:0700       0000023e
clrsamps_TEXT          CODE           AUTO           0001:0940       00000702
dipinter_TEXT          CODE           AUTO           0001:1050       000002f8
diginter_TEXT          CODE           AUTO           0001:1350       00000174
dlgcnvt_TEXT           CODE           AUTO           0001:14d0       000002cf
dlgoptn_TEXT           CODE           AUTO           0001:17a0       0000033b
dlgsamp_TEXT           CODE           AUTO           0001:1ae0       000000ed
getsamps_TEXT          CODE           AUTO           0001:1bd0       00000d15
madinter_TEXT          CODE           AUTO           0001:28f0       000003d9
memutil_TEXT           CODE           AUTO           0001:2cd0       00000135
msg_TEXT               CODE           AUTO           0001:2e10       0000021b
msgstr_TEXT            CODE           AUTO           0001:3030       00000000
rptsamps_TEXT          CODE           AUTO           0001:3030       00000e5f
setsamps_TEXT          CODE           AUTO           0001:3e90       00001e56
support_TEXT           CODE           AUTO           0001:5cf0       00001e6d
utils_TEXT             CODE           AUTO           0001:7b60       00000357
wndimain_TEXT          CODE           AUTO           0001:7ec0       00000029
wpasmfil_TEXT          CODE           AUTO           0001:7ef0       000008e9
wpavals_TEXT           CODE           AUTO           0001:87e0       00000000
wpbar_TEXT             CODE           AUTO           0001:87e0       00000498
wpcnvt_TEXT            CODE           AUTO           0001:8c80       000005f4
wpdriver_TEXT          CODE           AUTO           0001:9280       00000120
wpgather_TEXT          CODE           AUTO           0001:93a0       000006dd
wpgetrow_TEXT          CODE           AUTO           0001:9a80       00000495
wphelp_TEXT            CODE           AUTO           0001:9f20       000000d8
wpmain_TEXT            CODE           AUTO           0001:a000       0000009a
wpnumrow_TEXT          CODE           AUTO           0001:a0a0       0000010f
wppushin_TEXT          CODE           AUTO           0001:a1b0       000000e7
wpsamp_TEXT            CODE           AUTO           0001:a2a0       0000250c
wpsort_TEXT            CODE           AUTO           0001:c7b0       000004c8
wpstart_TEXT           CODE           AUTO           0001:cc80       000003c6
wpsrcfil_TEXT          CODE           AUTO           0001:d050       000005eb
wpwind_TEXT            CODE           AUTO           0001:d640       000001a3
dipman_TEXT            CODE           AUTO           0002:0000       000030d0
dipld_TEXT             CODE           AUTO           0002:30d0       000001b9
madman_TEXT            CODE           AUTO           0002:3290       00002e6e
madld_TEXT             CODE           AUTO           0002:6100       000001b9
i64_TEXT               CODE           AUTO           0002:62c0       00000a83
finger_TEXT            CODE           AUTO           0002:6d50       00000000
wndmeth_TEXT           CODE           AUTO           0002:6d50       000006ab
wndcreat_TEXT          CODE           AUTO           0002:7400       00000621
wndshrnk_TEXT          CODE           AUTO           0002:7a30       00000363
wndutil_TEXT           CODE           AUTO           0002:7da0       000003d4
wndmsg_TEXT            CODE           AUTO           0002:8180       00000045
guimain_TEXT           CODE           AUTO           0002:81d0       00000d69
wnddlg_TEXT            CODE           AUTO           0002:8f40       00000184
guicheck_TEXT          CODE           AUTO           0002:90d0       00000080
guindlg_TEXT           CODE           AUTO           0002:9150       00000497
guixtext_TEXT          CODE           AUTO           0002:95f0       0000040c
wndfdlg_TEXT           CODE           AUTO           0002:9a00       00000166
guifocus_TEXT          CODE           AUTO           0002:9b70       0000012c
guixdlg_TEXT           CODE           AUTO           0002:9ca0       00000f7c
_TEXT                  CODE           AUTO           0003:0000       0000a803
guixwind_TEXT          CODE           AUTO           0003:a810       00001704
guimem_TEXT            CODE           AUTO           0003:bf20       0000002d
guiisgui_TEXT          CODE           AUTO           0003:bf50       00000003
guihelp_TEXT           CODE           AUTO           0003:bf60       00000310
wndstat_TEXT           CODE           AUTO           0003:c270       000001cf
wndscrol_TEXT          CODE           AUTO           0003:c440       000004fc
wndfront_TEXT          CODE           AUTO           0003:c940       0000011f
wndcurr_TEXT           CODE           AUTO           0003:ca60       000008a3
guidrawr_TEXT          CODE           AUTO           0003:d310       000004b5
wnddirt_TEXT           CODE           AUTO           0003:d7d0       000007e6
wndpop_TEXT            CODE           AUTO           0003:dfc0       0000103e
wndsel_TEXT            CODE           AUTO           0003:f000       000005ac
guicrect_TEXT          CODE           AUTO           0003:f5b0       0000013a
guigscrl_TEXT          CODE           AUTO           0003:f6f0       000000b9
guirect_TEXT           CODE           AUTO           0003:f7b0       00000171
guipixel_TEXT          CODE           AUTO           0003:f930       0000002a
guistext_TEXT          CODE           AUTO           0003:f960       00000058
guicreat_TEXT          CODE           AUTO           0003:f9c0       00000081
guiextra_TEXT          CODE           AUTO           0003:fa50       0000001f
wndclean_TEXT          CODE           AUTO           0003:fa70       00000001
guimenus_TEXT          CODE           AUTO           0004:0000       000014a3
guisicon_TEXT          CODE           AUTO           0004:14b0       0000009e
guimouse_TEXT          CODE           AUTO           0004:1550       00000052
guisize_TEXT           CODE           AUTO           0004:15b0       00000384
guizlist_TEXT          CODE           AUTO           0004:1940       0000017c
guiclen_TEXT           CODE           AUTO           0004:1ac0       000000ab
guixtent_TEXT          CODE           AUTO           0004:1b70       00000281
guidirty_TEXT          CODE           AUTO           0004:1e00       000000b5
wndresiz_TEXT          CODE           AUTO           0004:1ec0       00000001
guixdisp_TEXT          CODE           AUTO           0004:1ed0       000000c7
guidbclk_TEXT          CODE           AUTO           0004:1fa0       00000013
guirscal_TEXT          CODE           AUTO           0004:1fc0       00000065
guiscale_TEXT          CODE           AUTO           0004:2030       000002d4
guiimmdi_TEXT          CODE           AUTO           0004:2310       0000005b
gui3ddlg_TEXT          CODE           AUTO           0004:2370       000001a9
guistub_TEXT           CODE           AUTO           0004:2520       0000000a
wndsysin_TEXT          CODE           AUTO           0004:2530       00000001
wndmnsz_TEXT           CODE           AUTO           0004:2540       00000021
wndbgch_TEXT           CODE           AUTO           0004:2570       00000000
wndshthk_TEXT          CODE           AUTO           0004:2570       00000003
guigetnr_TEXT          CODE           AUTO           0004:2580       0000000b
guitextm_TEXT          CODE           AUTO           0004:2590       0000008e
guirange_TEXT          CODE           AUTO           0004:2620       00000206
wndrszhk_TEXT          CODE           AUTO           0004:2830       00000001
guicursr_TEXT          CODE           AUTO           0004:2840       0000006a
wndchoos_TEXT          CODE           AUTO           0004:28b0       00000554
wndmouse_TEXT          CODE           AUTO           0004:2e10       00000568
wndcrsr_TEXT           CODE           AUTO           0004:3380       00000652
wndfonhk_TEXT          CODE           AUTO           0004:39e0       00000001
guistat_TEXT           CODE           AUTO           0004:39f0       000003e2
wndpaint_TEXT          CODE           AUTO           0004:3de0       0000071c
guiflush_TEXT          CODE           AUTO           0004:4500       00000055
wndchar_TEXT           CODE           AUTO           0004:4560       00000085
wndqryhk_TEXT          CODE           AUTO           0004:45f0       00000003
wndendhk_TEXT          CODE           AUTO           0004:4600       00000001
wndtool_TEXT           CODE           AUTO           0004:4610       00000190
wndldstr_TEXT          CODE           AUTO           0004:47a0       00000075
wndspawn_TEXT          CODE           AUTO           0004:4820       000000ad
guidlg_TEXT            CODE           AUTO           0004:48d0       000000bd
guixutil_TEXT          CODE           AUTO           0004:4990       00000de4
guismetr_TEXT          CODE           AUTO           0004:5780       000001ab
guicutil_TEXT          CODE           AUTO           0004:5930       00000123
guifdlg_TEXT           CODE           AUTO           0004:5a60       000002cd
guissel_TEXT           CODE           AUTO           0004:5d30       00000162
guicontr_TEXT          CODE           AUTO           0004:5ea0       00000d54
guiutil_TEXT           CODE           AUTO           0004:6c00       00000212
guixhook_TEXT          CODE           AUTO           0004:6e20       000002a6
guirdlg_TEXT           CODE           AUTO           0004:70d0       0000026f
guimkey_TEXT           CODE           AUTO           0004:7340       0000032e
guimapky_TEXT          CODE           AUTO           0004:7670       00000810
guipaint_TEXT          CODE           AUTO           0004:7e80       00000126
guisdef_TEXT           CODE           AUTO           0004:7fb0       00000000
windlg_TEXT            CODE           AUTO           0004:7fb0       0000033e
guiclass_TEXT          CODE           AUTO           0004:82f0       00000007
guideath_TEXT          CODE           AUTO           0004:8300       00000004
guihook_TEXT           CODE           AUTO           0004:8310       000001f4
guistr_TEXT            CODE           AUTO           0004:8510       00000743
guildstr_TEXT          CODE           AUTO           0004:8c60       000000ee
guisysfi_TEXT          CODE           AUTO           0004:8d50       00000001
guixmain_TEXT          CODE           AUTO           0004:8d60       00000028
guifcrck_TEXT          CODE           AUTO           0004:8d90       00000003
guidead_TEXT           CODE           AUTO           0004:8da0       00000004
guiwinlp_TEXT          CODE           AUTO           0004:8db0       00000070
guisysin_TEXT          CODE           AUTO           0004:8e20       00000004
wpi_win_TEXT           CODE           AUTO           0004:8e30       000009b2
guihint_TEXT           CODE           AUTO           0004:97f0       00000814
guitool_TEXT           CODE           AUTO           0004:a010       00000b4e
guiscrol_TEXT          CODE           AUTO           0004:ab60       000007fa
guifont_TEXT           CODE           AUTO           0004:b360       00000305
guifront_TEXT          CODE           AUTO           0004:b670       000001bf
guihtool_TEXT          CODE           AUTO           0004:b830       00000181
guicolor_TEXT          CODE           AUTO           0004:b9c0       00000555
guisystr_TEXT          CODE           AUTO           0004:bf20       00000001
wwinhelp_TEXT          CODE           AUTO           0004:bf30       00000173
wndfref_TEXT           CODE           AUTO           0004:c0b0       0000001b
guithumb_TEXT          CODE           AUTO           0004:c0d0       00000108
guiiscrl_TEXT          CODE           AUTO           0004:c1e0       00000127
guidoscr_TEXT          CODE           AUTO           0004:c310       00000202
guigetrc_TEXT          CODE           AUTO           0004:c520       000000dc
guistrin_TEXT          CODE           AUTO           0004:c600       00000186
guidrect_TEXT          CODE           AUTO           0004:c790       000000b6
guidrow_TEXT           CODE           AUTO           0004:c850       000000db
guidraw_TEXT           CODE           AUTO           0004:c930       00000220
guihot_TEXT            CODE           AUTO           0004:cb50       00000101
wndsfra_TEXT           CODE           AUTO           0004:cc60       00000001
wndefra_TEXT           CODE           AUTO           0004:cc70       00000001
wndmem_TEXT            CODE           AUTO           0004:cc80       00000055
guihflt_TEXT           CODE           AUTO           0004:cce0       00000083
guireset_TEXT          CODE           AUTO           0004:cd70       0000017b
guixscal_TEXT          CODE           AUTO           0004:cef0       00000356
guisetup_TEXT          CODE           AUTO           0004:d250       00000087
guifloat_TEXT          CODE           AUTO           0004:d2e0       0000022a
guigetx_TEXT           CODE           AUTO           0004:d510       00000083
guiximdi_TEXT          CODE           AUTO           0004:d5a0       000000aa
guimdi_TEXT            CODE           AUTO           0004:d650       00000b23
wstatus_TEXT           CODE           AUTO           0004:e180       00000a38
guixbar_TEXT           CODE           AUTO           0004:ebc0       00000514
guixhot_TEXT           CODE           AUTO           0004:f0e0       0000020b
wndtbatr_TEXT          CODE           AUTO           0004:f2f0       00000004
guienum_TEXT           CODE           AUTO           0004:f300       00000108
guiwnclr_TEXT          CODE           AUTO           0004:f410       000000bb
guicombo_TEXT          CODE           AUTO           0004:f4d0       000000f1
guiextnm_TEXT          CODE           AUTO           0004:f5d0       0000006e
wptoolbr_TEXT          CODE           AUTO           0005:0000       0000197f
fontstr_TEXT           CODE           AUTO           0005:1980       00000169
guixdraw_TEXT          CODE           AUTO           0005:1af0       000004f2
guipick_TEXT           CODE           AUTO           0005:1ff0       0000015b
mem_TEXT               CODE           AUTO           0005:2150       00000042
FAR_DATA               FAR_DATA       AUTO           0006:0000       00000000
_NULL                  BEGDATA        DGROUP         0006:0000       00000010
AFX_NULL               BEGDATA        DGROUP         0006:0010       00000000
CONST                  DATA           DGROUP         0006:0010       0000143e
CONST2                 DATA           DGROUP         0006:144e       000008ea
_DATA                  DATA           DGROUP         0006:1d40       00001576
XIB                    DATA           DGROUP         0006:32b6       00000000
XI                     DATA           DGROUP         0006:32b6       00000030
XIE                    DATA           DGROUP         0006:32e6       00000000
YIB                    DATA           DGROUP         0006:32e6       00000000
YI                     DATA           DGROUP         0006:32e6       0000001e
YIE                    DATA           DGROUP         0006:3304       00000000
STRINGS                DATA           DGROUP         0006:3304       00000000
DATA                   DATA           DGROUP         0006:3304       00000000
BCSD                   DATA           DGROUP         0006:3304       00000000
_BSS                   BSS            DGROUP         0006:3310       00001b80
STACK                  STACK          DGROUP         0006:4e90       00002000


                        +----------------+
                        |   Memory Map   |
                        +----------------+

* = unreferenced symbol
+ = symbol only referenced locally

Address        Symbol
=======        ======

Module: srcmgt.obj(/mnt/sda5/.user/root/src/openwatcom-1.9/bld/watcom/c/srcmgt.c)
0001:00ec*     FClearOpenSourceCache_
0001:011a      FOpenSource_
0001:01f6*     FSize_
0001:022e*     FLastOffset_
0001:024a*     FileIsRemote_
0001:024e*     FGetName_
0001:025e      FDoneSource_
0001:056c*     FCurrLine_
0001:0578      FReadLine_
0006:1d40+     _FileList
Module: aboutmsg.obj(/mnt/sda5/.user/root/src/openwatcom-1.9/bld/wprof/c/aboutmsg.c)
0001:0700      AboutOpen_
0001:0758      AboutClose_
0001:0828*     AboutSetOff_
0001:084e      DlgAbout_
0006:1d56+     _AboutInfo
Module: clrsamps.obj(/mnt/sda5/.user/root/src/openwatcom-1.9/bld/wprof/c/clrsamps.c)
0001:0940      ClearMassaged_
0001:09e0      ClearRoutineInfo_
0001:0a8a      ClearFileInfo_
0001:0b24      ClearModuleInfo_
0001:0bbe      ClearSample_
0001:100a*     ClearAllSamples_
Module: dipinter.obj(/mnt/sda5/.user/root/src/openwatcom-1.9/bld/wprof/c/dipinter.c)
0001:1050      DIPCliImageUnload_
0001:105a      DIPCliMapAddr_
0001:1080      DIPCliSymCreate_
0001:108e      DIPCliItemLocation_
0001:10a2      DIPCliAssignLocation_
0001:10b6      DIPCliSameAddrSpace_
0001:1118      DIPCliAddrSection_
0001:112e      DIPCliStatus_
0001:113c      DIPCliCurrMAD_
0001:114e      WPDipInit_
0001:11ea      WPDipProc_
0001:11f6      WPDipDestroyProc_
0001:120e      WPDipSetProc_
0001:121a      WPDipLoadInfo_
0001:12c6      WPDipFini_
Module: diginter.obj(/mnt/sda5/.user/root/src/openwatcom-1.9/bld/wprof/c/diginter.c)
0001:1350      DIGCliAlloc_
0001:1366      DIGCliRealloc_
0001:137c      DIGCliFree_
0001:1392      DIGCliOpen_
0001:13da      DIGCliSeek_
0001:13f2      DIGCliRead_
0001:1408      DIGCliWrite_
0001:141e      DIGCliClose_
0001:1434      DIGCliRemove_
0001:144a      DIGCliMachineData_
Module: dlgcnvt.obj(/mnt/sda5/.user/root/src/openwatcom-1.9/bld/wprof/c/dlgcnvt.c)
0001:14d0      DlgGetConvert_
0006:1ef0      _OptDIFFormat
0006:1ef1+     _OptCommaFormat
0006:33b0      _ConvertFile
Module: dlgoptn.obj(/mnt/sda5/.user/root/src/openwatcom-1.9/bld/wprof/c/dlgoptn.c)
0001:17a0      DlgGetOptions_
0006:205e+     _OptStretchGlobal
0006:205f+     _OptAbsBarGlobal
0006:2060+     _OptRelBarGlobal
0006:2061+     _OptSortCountGlobal
0006:2062+     _OptSortNameGlobal
0006:2063+     _OptGatherGlobal
0006:2064      _OptGatherCut
Module: dlgsamp.obj(/mnt/sda5/.user/root/src/openwatcom-1.9/bld/wprof/c/dlgsamp.c)
0001:1ae0      WPSampFound_
0001:1b72      DlgOpenSample_
Module: getsamps.obj(/mnt/sda5/.user/root/src/openwatcom-1.9/bld/wprof/c/getsamps.c)
0001:282a      GetSampleInfo_
0006:33c0      _SIOData
0006:33c4      _CurrSIOData
Module: madinter.obj(/mnt/sda5/.user/root/src/openwatcom-1.9/bld/wprof/c/madinter.c)
0001:28f0      MADCliAddrSection_
0001:2906      MADCliAddrOvlReturn_
0001:2914      MADCliAddrToString_
0001:29bc      MADCliMemExpr_
0001:29d0      MADCliReadMem_
0001:2a1c      MADCliWriteMem_
0001:2a2c      MADCliString_
0001:2a9e      MADCliAddString_
0001:2aac      MADCliRadixPrefix_
0001:2ac6      MADCliNotify_
0001:2aea      MADCliSystemConfig_
0001:2afc      InitMADInfo_
0001:2b1a      FiniMADInfo_
0001:2b3c+     ReportMADFailure_
0001:2c92      SetCurrentMAD_
0006:2080      _DefSysConfig
0006:33c8+     _MADStatus
Module: memutil.obj(/mnt/sda5/.user/root/src/openwatcom-1.9/bld/wprof/c/memutil.c)
0001:2d42      ProfAlloc_
0001:2d6e      ProfFree_
0001:2d7a      ProfRealloc_
0001:2da4      ProfCAlloc_
0001:2dce      WndAlloc_
0001:2dda      WndRealloc_
0001:2de6      WndFree_
0001:2df2*     WndMemFini_
0001:2df2*     WndMemInit_
0001:2df4      WndNoMemory_
Module: msg.obj(/mnt/sda5/.user/root/src/openwatcom-1.9/bld/wprof/c/msg.c)
0001:2fb6      ErrorMsg_
0001:2fe8      fatal_
Module: msgstr.obj(/mnt/sda5/.user/root/src/openwatcom-1.9/bld/wprof/c/msgstr.c)
0006:144e      __Literal_Assertion_Failed
0006:1461      __Literal_Cannot_Open_Smp_File
0006:147d      __Literal_Cannot_Process_Ovly
0006:14a9      __Literal_Dip_Find_Failed
0006:14cf      __Literal_Dip_Info_Failed
0006:1501      __Literal_Dip_Init_Failed
0006:1534      __Literal_Dip_Load_Failed
0006:155d      __Literal_Exe_Has_Changed
0006:1589      __Literal_Exe_Not_Found
0006:15a4      __Literal_Incompat_Smp_File
0006:15c8      __Literal_Incompat_Ver_Ovly
0006:1607      __Literal_Invalid_Smp_File
0006:1627      __Literal_Memfull
0006:1635      __Literal_Memfull_Realloc
0006:1651      __Literal_Smp_File_IO_Err
0006:1677      __Literal_Usage
0006:169c      __Literal_Usage1
0006:16c1      __Literal_Usage2
0006:16e2      __Literal_Usage3
0006:16f4      __Literal_Usage4
0006:16fb      __Literal_Usage5
0006:1705*     __Literal_Usage6
0006:171c*     __Literal_Usage7
0006:1731*     __Literal_Usage8
0006:1742      __Literal_Empty_Str
0006:1743      __Literal_File_Does_Not_Exist
0006:175c*     __Literal_Bad_System_Load
0006:1782      __Literal_About_WPROF
0006:178e      __Literal_WPROF_TITLE
0006:17a3      __Literal_Enter_Sample
0006:17ba*     __Literal_OK_Str
0006:17bd*     __Literal_Cancel_Str
0006:17c4      __Literal_Unknown_Image
0006:17d5      __Literal_Unknown_Module
0006:17e7      __Literal_Unknown_File
0006:17f7      __Literal_Unknown_Routine
0006:180a      __Literal_Gathered_Images
0006:181d      __Literal_Gathered_Modules
0006:1831      __Literal_Gathered_Files
0006:1843      __Literal_Gathered_Routines
0006:1858      __Literal_No_Symbol_Info
0006:187e      __Literal_No_Routine_Names
0006:189e      __Literal_Src_File_Not_Found
0006:18b9      __Literal_Src_File_Not_Known
0006:18d2      __Literal_Rel_Header
0006:18d7      __Literal_Abs_Header
0006:18dc      __Literal_Sample_Data
0006:18e7*     __Literal_Smp_File_Raw_Err
0006:191b      __Literal_Sample_Header
0006:1925      __Literal_Image_Header
0006:192e      __Literal_Module_Header
0006:1938      __Literal_File_Header
0006:1940      __Literal_Routine_Header
0006:194b      __Literal_Source_Header
0006:1958      __Literal_Image_Names
0006:1964      __Literal_Module_Names
0006:1971      __Literal_File_Names
0006:197c      __Literal_Routine_Names
0006:198a      __Literal_Source_Line
0006:1996      __Literal_Assembler_Instructions
0006:19ad      __Literal_Options
0006:19b5      __Literal_Cmd_Option_Not_Valid
0006:19db      __Literal_Unable_To_Open_Src
0006:19f6*     __Literal_Unable_To_Open_Help
0006:1a14      __Literal_Convert_Data
0006:1a2b      __Literal_Convert_File_Name
0006:1a43      __Literal_Mad_Init_Failed
0006:1a74      __Literal_LDS_FSEEK_FAILED
0006:1a85      __Literal_LDS_FREAD_FAILED
0006:1a96      __Literal_LDS_FOPEN_FAILED
0006:1aa7      __Literal_LMS_INVALID_MAD_VERSION
0006:1acc      __Literal_LMS_INVALID_MAD
0006:1aee      __Literal_LMS_UNREGISTERED_MAD
0006:1b0b      __Literal_LMS_RECURSIVE_MAD_FAILURE
Module: rptsamps.obj(/mnt/sda5/.user/root/src/openwatcom-1.9/bld/wprof/c/rptsamps.c)
0001:3dea      ReportSampleInfo_
Module: setsamps.obj(/mnt/sda5/.user/root/src/openwatcom-1.9/bld/wprof/c/setsamps.c)
0001:468c      AddrCmp_
0001:46f2      GatherSetAll_
0001:4824      AbsSetAll_
0001:49ca      RelSetAll_
0001:4b6a      StretchSetAll_
0001:4d14      SortSetAll_
0001:5c12      SetSampleInfo_
Module: support.obj(/mnt/sda5/.user/root/src/openwatcom-1.9/bld/wprof/c/support.c)
0001:5cf0      AsmSize_
0001:5d2a      AsmFini_
0001:5d40      ExeOpen_
0001:5d58      ExeClose_
0001:5e30      SetExeOffset_
0001:6362      SetExeImage_
0001:638c      SetExeFile_
0001:6d22      AddrImage_
0001:6e8a      MapAddressToActual_
0001:6f4c+     MapAddressToMap_
0001:702a      MapAddressIntoSection_
0001:768c      LoadImageOverlays_
0001:7794      SetNumBytes_
0001:7798      CodeAdvance_
0001:7878      FormatAddr_
0001:78f8      GetFullInstruct_
0001:7a64      CnvAddr_
0001:7b04      IsX86BigAddr_
0001:7b14      IsX86RealAddr_
0001:7b2e      GetDataByte_
0001:7b4c      EndOfSegment_
Module: utils.obj(/mnt/sda5/.user/root/src/openwatcom-1.9/bld/wprof/c/utils.c)
0001:7b60      ReplaceExt_
0001:7bbc*     FindFile_
0001:7cda      InitPaths_
0001:7d52+     AddPath_
0001:7e96      BigRead_
0001:7ea2      Ring_
0006:21d0+     _HelpPathList
0006:21d4+     _FilePathList
0006:21d8*     _DipExePathList
Module: wndimain.obj(/mnt/sda5/.user/root/src/openwatcom-1.9/bld/wprof/c/wndimain.c)
0001:7ec0      WndInitWndMain_
Module: wpasmfil.obj(/mnt/sda5/.user/root/src/openwatcom-1.9/bld/wprof/c/wpasmfil.c)
0001:7ef0      WPGetAsmLoc_
0001:7fba      WPAsmOpen_
0001:850a      WPAsmClose_
0001:85fc      WPAsmGetLine_
0001:8782      WPAsmFindSrcLine_
Module: wpavals.obj(/mnt/sda5/.user/root/src/openwatcom-1.9/bld/wprof/c/wpavals.c)
0006:21e0      _WndColours
0006:2214      _WndNumColours
0006:2216      _WndPlainAttr
0006:2217      _WndTabStopAttr
0006:2218      _WndSelectedAttr
0006:2219      _WndCursorAttr
0006:221a*     _WndStatusColour
0006:221c      _WndFlags
0006:2220      _WndStyle
Module: wpbar.obj(/mnt/sda5/.user/root/src/openwatcom-1.9/bld/wprof/c/wpbar.c)
0001:87e0      GetCurrentAbsBar_
0001:8854      GetCurrentRelBar_
0001:88c0      GetCurrentMaxBar_
0001:8932      FlipCurrentAbsBar_
0001:8a48      FlipCurrentRelBar_
0001:8b64      FlipCurrentMaxBar_
Module: wpcnvt.obj(/mnt/sda5/.user/root/src/openwatcom-1.9/bld/wprof/c/wpcnvt.c)
0001:91de      WPConvert_
Module: wpdriver.obj(/mnt/sda5/.user/root/src/openwatcom-1.9/bld/wprof/c/wpdriver.c)
0001:9280      WndMainMenuProc_
0001:9364      OpenSample_
0006:2330      _WndMainMenu
0006:238a      _WndNumMenus
Module: wpgather.obj(/mnt/sda5/.user/root/src/openwatcom-1.9/bld/wprof/c/wpgather.c)
0001:93a0      GetCurrentGather_
0001:9402      FlipCurrentGather_
0001:94e4      GatherCurrent_
0001:9550+     GatherImage_
0001:968e+     GatherMod_
0001:97de+     GatherFile_
0001:992e+     GatherRtn_
Module: wpgetrow.obj(/mnt/sda5/.user/root/src/openwatcom-1.9/bld/wprof/c/wpgetrow.c)
0001:9a80      SImageGetImage_
0001:9b02      SModGetModule_
0001:9b8e      SFileGetFile_
0001:9c1a      SRtnGetRoutine_
0001:9ca6      WPGetRow_
Module: wphelp.obj(/mnt/sda5/.user/root/src/openwatcom-1.9/bld/wprof/c/wphelp.c)
0001:9f20      WPInitHelp_
0001:9f52      WPFiniHelp_
0001:9f86      WPProcHelp_
Module: wpmain.obj(/mnt/sda5/.user/root/src/openwatcom-1.9/bld/wprof/c/wpmain.c)
0001:a000      GUImain_
0001:a04e      WndProcMacro_
Module: wpnumrow.obj(/mnt/sda5/.user/root/src/openwatcom-1.9/bld/wprof/c/wpnumrow.c)
0001:a0a0      SampleNumRows_
Module: wppushin.obj(/mnt/sda5/.user/root/src/openwatcom-1.9/bld/wprof/c/wppushin.c)
0001:a1b0+     WPPopPtr_
0001:a1ce      WndDoInput_
0001:a1ee+     WPPushEvent_
0001:a228*     WPPushPtrEvent_
0001:a268+     WPPopEvent_
Module: wpsamp.obj(/mnt/sda5/.user/root/src/openwatcom-1.9/bld/wprof/c/wpsamp.c)
0001:a2a0      WPSampleOpen_
0001:c144+     WPZoomIn_
0001:c324+     WPBackOut_
0001:c35a      WPDoPopUp_
0001:c38a      WPFindDoPopUp_
0006:24de+     _WPSampleInfo
Module: wpsort.obj(/mnt/sda5/.user/root/src/openwatcom-1.9/bld/wprof/c/wpsort.c)
0001:c7b0      GetCurrentSort_
0001:c802      SetCurrentSort_
0001:c870      SortCurrent_
0001:c8b6+     SortImage_
0001:c8fa+     SortMod_
0001:c948+     SortFile_
0001:c996+     SortRtn_
Module: wpstart.obj(/mnt/sda5/.user/root/src/openwatcom-1.9/bld/wprof/c/wpstart.c)
0006:2574      _WPWndInitDone
0006:2578      _WProfDips
0001:cc80      WPInit_
0001:cd02      WPFini_
0006:374e      _SamplePath
Module: wpsrcfil.obj(/mnt/sda5/.user/root/src/openwatcom-1.9/bld/wprof/c/wpsrcfil.c)
0001:d050      WPSourceGetLine_
0001:d118      WPSourceOpen_
0001:d2e8      WPSourceClose_
0001:d332      WPGetMassgdSampData_
Module: wpwind.obj(/mnt/sda5/.user/root/src/openwatcom-1.9/bld/wprof/c/wpwind.c)
0001:d640      WPGetClientHeight_
0001:d66a      WPGetClientWidth_
0001:d6a8      WPAdjustRowHeight_
0001:d778      WPSetRowHeight_
0001:d788      WPPixelTruncWidth_
0001:d7a8      WPPixelWidth_
Module: dipman.obj(/mnt/sda5/.user/root/src/openwatcom-1.9/bld/dig/c/dipman.c)
0002:0000+     DCSymCreate_
0002:002a+     XDIPCliSymCreate_
0002:003e      DIPInit_
0002:008a      DIPLoad_
0002:013a*     DIPRegister_
0002:01b0*     DIPFiniLatest_
0002:021a      DIPFini_
0002:027a      DIPHandleSize_
0002:0292      DIPMoreMem_
0002:02e0*     DIPCancel_
0002:036c+     FindImageMapSlot_
0002:058a      DIPCreateProcess_
0002:0784      DIPSetProcess_
0002:079c      DIPDestroyProcess_
0002:07d0      DIPPriority_
0002:081a      DIPLoadInfo_
0002:099c      DIPMapInfo_
0002:0a12*     DIPUnloadInfo_
0002:0a74*     DIPImagePriority_
0002:0ad0+     WalkImageList_
0002:0bfe      WalkModList_
0002:0ca2*     WalkTypeList_
0002:0fae+     WalkSymListEx_
0002:0ff4      WalkSymList_
0002:1046*     WalkFileList_
0002:111e      ImageExtra_
0002:1178      ImageDIP_
0002:11d6      ModName_
0002:1254      ModSrcLang_
0002:12c4*     ModHasInfo_
0002:1338*     ModDefault_
0002:13b6      ModAddr_
0002:1452*     TypeMod_
0002:14d0*     TypeInfo_
0002:15e4*     TypeCreate_
0002:15f6*     TypePointer_
0002:168e*     TypeBase_
0002:1794*     TypeAddRef_
0002:181e*     TypeRelease_
0002:18a8*     TypeFreeAll_
0002:1912*     TypeArrayInfo_
0002:19e8*     TypeProcInfo_
0002:1a96*     TypePtrAddrSpace_
0002:1b2e*     TypeThunkAdjust_
0002:1be6*     TypeCmp_
0002:1c86*     TypeName_
0002:1d18*     SymMod_
0002:1d8e      SymName_
0002:1e26*     SymType_
0002:1ecc      SymLocation_
0002:1f56*     SymValue_
0002:1fe0      SymInfo_
0002:206a*     SymParmLocation_
0002:20f6*     SymObjType_
0002:2198*     SymObjLocation_
0002:2222      SymCmp_
0002:22c2*     SymAddRef_
0002:234c*     SymRelease_
0002:23d6*     SymFreeAll_
0002:2440*     CueMod_
0002:24b8      CueFile_
0002:253e      CueFileId_
0002:25ac*     CueAdjust_
0002:2648      CueLine_
0002:26c6*     CueColumn_
0002:2742      CueAddr_
0002:27e0      LineCue_
0002:28a0      AddrCue_
0002:2972      CueCmp_
0002:2a12      AddrMod_
0002:2b40      AddrSym_
0002:2c1c+     LookupSymEx_
0002:2f3e*     LookupSym_
0002:2f60*     AddrScope_
0002:301c*     ScopeOuter_
0006:2580      _DIPDefaults
0006:25a6+     _DIPClientInterface
Module: dipld.obj(/mnt/sda5/.user/root/src/openwatcom-1.9/bld/dig/c/win/dipld.c)
0002:30d0      DIPSysUnload_
0002:30fa      DIPSysLoad_
0006:38f4+     _DIPLastHandle
Module: madman.obj(/mnt/sda5/.user/root/src/openwatcom-1.9/bld/dig/c/madman.c)
0006:2600+     _MADClientInterface
0002:3344      MADInit_
0002:338e      MADRegister_
0002:35c4      MADLoad_
0002:37b8+     MADUnload_
0002:3834      MADLoaded_
0002:388a      MADActiveSet_
0002:38d0*     MADStateCreate_
0002:3970*     MADStateSet_
0002:3a4c*     MADStateCopy_
0002:3a7c+     MADStateDestroy_
0002:3af2      MADFini_
0002:3b3a*     MADWalk_
0002:3b8e      MADNameFile_
0002:3c22*     MADNameDescription_
0002:3cce      MADAddrAdd_
0002:3d52      MADAddrComp_
0002:3da8*     MADAddrDiff_
0002:3de4*     MADAddrMap_
0002:3e26*     MADAddrFlat_
0002:3e50*     MADAddrInterrupt_
0002:3eac*     MADTypeWalk_
0002:3efa*     MADTypeName_
0002:3f20*     MADTypePreferredRadix_
0002:3f46*     MADTypeForDIPType_
0002:3f7a      MADTypeInfo_
0002:3f9c      MADTypeInfoForHost_
0002:40b4      MADTypeDefault_
0002:4bfc      MADTypeConvert_
0002:51d2      MADTypeToString_
0002:5286*     MADTypeHandleToString_
0002:52d8*     MADRegistersSize_
0002:52fe*     MADRegistersHost_
0002:5328*     MADRegistersTarget_
0002:5378*     MADRegSetWalk_
0002:53c6*     MADRegSetName_
0002:540a*     MADRegSetLevel_
0002:5440*     MADRegSetDisplayGrouping_
0002:546a*     MADRegSetDisplayGetPiece_
0002:54d6*     MADRegSetDisplayModify_
0002:551a*     MADRegSetDisplayToggleList_
0002:5544*     MADRegSetDisplayToggle_
0002:5578*     MADRegModified_
0002:55ba*     MADRegInspectAddr_
0002:565c+     MADRegWalk_
0002:58f2*     MADRegFullName_
0002:5980*     MADRegSpecialGet_
0002:59b4*     MADRegSpecialSet_
0002:59ea*     MADRegSpecialName_
0002:5a2e*     MADRegFromContextItem_
0002:5a52*     MADRegUpdateStart_
0002:5a8a*     MADRegUpdateEnd_
0002:5aba*     MADCallStackGrowsUp_
0002:5adc*     MADCallTypeList_
0002:5b00*     MADCallBuildFrame_
0002:5b58*     MADCallReturnReg_
0002:5b96*     MADCallParmRegList_
0002:5bc8*     MADCallUpStackSize_
0002:5bee*     MADCallUpStackInit_
0002:5c22*     MADCallUpStackLevel_
0002:5c76      MADDisasmDataSize_
0002:5c96*     MADDisasmNameMax_
0002:5cca      MADDisasm_
0002:5d4e      MADDisasmFormat_
0002:5d90      MADDisasmInsSize_
0002:5dba*     MADDisasmInsUndoable_
0002:5de4*     MADDisasmControl_
0002:5e18*     MADDisasmInsNext_
0002:5e54*     MADDisasmInspectAddr_
0002:5ece*     MADDisasmMemRefWalk_
0002:5f22*     MADDisasmToggleList_
0002:5f46*     MADDisasmToggle_
0002:5f66*     MADTraceSize_
0002:5f8a*     MADTraceInit_
0002:5fbe*     MADTraceOne_
0002:6002*     MADTraceHaveRecursed_
0002:6044*     MADTraceSimulate_
0002:6084*     MADTraceFini_
0002:60cc*     MADUnexpectedBreak_
Module: madld.obj(/mnt/sda5/.user/root/src/openwatcom-1.9/bld/dig/c/win/madld.c)
0002:6100      MADSysUnload_
0002:612a      MADSysLoad_
0006:3908+     _MADLastHandle
Module: i64.obj(/mnt/sda5/.user/root/src/openwatcom-1.9/bld/watcom/c/i64.c)
0002:62c0*     I32ToI64_
0002:62e8      U32ToU64_
0002:62fe      U64Neg_
0002:635a+     U64Add_
0002:63d4*     U64IncDec_
0002:642c+     U64Sub_
0002:6464*     U64Mul_
0002:650c      U64Div_
0002:66aa*     I64Div_
0002:6788+     U64Cmp_
0002:6804*     U64Test_
0002:682a*     I64Cmp_
0002:68ae*     I64Test_
0002:68e8*     I64ShiftR_
0002:69b4+     U64ShiftR_
0002:6a7a+     U64ShiftL_
0002:6b40+     U64Shift_
0002:6b68*     U64Cnv10_
0002:6c74*     U64Cnv8_
0002:6cdc*     U64Cnv16_
Module: finger.obj(/mnt/sda5/.user/root/src/openwatcom-1.9/bld/wprof/c/finger.c)
0006:2790      _AboutMessage
0006:27a8      _AboutSize
Module: /mnt/sda5/.user/root/src/openwatcom-1.9/bld/aui/wini86/aui.lib(/mnt/sda5/.user/root/src/openwatcom-1.9/bld/aui/c/wndmeth.c)
0002:6d52*     WndNoOpen_
0002:6d56      NoEndPaint_
0002:6d56      NoBegPaint_
0002:6d56      NoNotify_
0002:6d56      NoModify_
0002:6d58+     NoGetLine_
0002:6d62      NoRefresh_
0002:6d6e      NoMenuItem_
0002:6d76      NoScroll_
0002:6d7a      NoNumRows_
0002:6d7e      NoNextRow_
0002:6d84+     NoEventProc_
0002:6daa      WndMenuItem_
0002:6dea      WndFiniCacheLines_
0002:6e18      WndKillCacheEntries_
0002:6e6e      WndKillCacheLines_
0002:7064      WndSetCache_
0002:7088      WndGetLine_
0002:721c*     WndGetLineAbs_
0002:724a      WndFirstMenuItem_
0002:7266*     WndNoRow_
0002:726a      WndModify_
0002:72a6      WndNotify_
0002:72e2      WndBegPaint_
0002:731e      WndEndPaint_
0002:735a      WndRefresh_
0002:7386      WndEvent_
0002:73b0      WndNumRows_
0002:73d2      WndNextRow_
0006:27aa      _NoInfo
0006:390a+     _CacheLine
0006:44c2+     _CacheCurr
Module: /mnt/sda5/.user/root/src/openwatcom-1.9/bld/aui/wini86/aui.lib(/mnt/sda5/.user/root/src/openwatcom-1.9/bld/aui/c/wndcreat.c)
0006:44d0      _WndPopupMenuPtr
0002:7402*     WndSetTitleSize_
0002:7412*     WndSetTitle_
0002:742c*     WndGetTitle_
0002:77ec      WndCreateWithStruct_
0002:782c      WndCreateWithStructAndMenuRes_
0002:7866      WndInitCreateStruct_
0002:78b6      WndCreate_
0002:78fe      WndDestroy_
0002:79a0      WndClose_
0002:79c8*     WndSetMainMenuText_
0002:7a08*     WndSetIcon_
0006:27e0      _WndMainMenuPtr
Module: /mnt/sda5/.user/root/src/openwatcom-1.9/bld/aui/wini86/aui.lib(/mnt/sda5/.user/root/src/openwatcom-1.9/bld/aui/c/wndshrnk.c)
0002:7a30*     WndShrinkToMouse_
0002:7bd2*     WndMinimizeWindow_
0002:7bec*     WndMaximizeWindow_
0002:7c06      WndIsMinimized_
0002:7c58*     WndIsMaximized_
0002:7c72*     WndRestoreWindow_
0002:7c8c*     WndGetRect_
0002:7ca6      WndShowWindow_
0002:7cc0      WndResizeWindow_
0002:7cda      WndShowAll_
Module: /mnt/sda5/.user/root/src/openwatcom-1.9/bld/aui/wini86/aui.lib(/mnt/sda5/.user/root/src/openwatcom-1.9/bld/aui/c/wndutil.c)
0002:7da0      WndCharCol_
0002:7dd2      WndLastCharCol_
0002:7e00      WndPrevCharCol_
0002:7e16*     WndPrevChar_
0002:7e2e      WndCurrToGUIPoint_
0002:7e42      WndCoordToGUIPoint_
0002:7ed6      WndPieceIsTab_
0002:7f04*     WndPieceIsHot_
0002:7f32      WndFindActive_
0002:7f7a      WndValid_
0002:7fbe      WndDirty_
0002:7fec      WndZapped_
0002:8010      WndExtentX_
0002:804a*     WndFindClass_
0002:808c      WndSetWndMax_
0002:80de      WndNext_
0002:811c*     WndForAllClass_
Module: /mnt/sda5/.user/root/src/openwatcom-1.9/bld/aui/wini86/aui.lib(/mnt/sda5/.user/root/src/openwatcom-1.9/bld/aui/c/wndmsg.c)
0002:8180      WndDisplayMessage_
Module: /mnt/sda5/.user/root/src/openwatcom-1.9/bld/aui/wini86/aui.lib(/mnt/sda5/.user/root/src/openwatcom-1.9/bld/aui/c/guimain.c)
0006:44e0+     _WndClickHook
0006:44e4+     _WndScale
0006:44ec      _WndMain
0006:44f0      _WndMax
0006:44f4*     _WndSwitches
0006:44f8+     _WndScreen
0006:27e4      _WndMaxDirtyRects
0006:27e6+     _WndDClick
0006:27e8+     _WndIgnoreAllEvents
0002:81d2*     WndGetDClick_
0002:81d6*     WndSetDClick_
0002:8304      WndInit_
0002:8312*     WndInitWithMenuRes_
0002:831c      WndShowWndMain_
0002:8332      WndFini_
0002:8370*     WndInitNumRows_
0002:8582*     WndInstallClickHook_
0002:8e32+     WndHourCursor_
0002:8e82*     WndArrowCursor_
0002:8eac+     WndSetCursor_
0002:8ede      WndHourGlass_
0002:8ef8      WndMainEventProc_
Module: /mnt/sda5/.user/root/src/openwatcom-1.9/bld/aui/wini86/aui.lib(/mnt/sda5/.user/root/src/openwatcom-1.9/bld/aui/c/wnddlg.c)
0002:8fe2      DlgGetParent_
0002:9014      DlgOpen_
0002:9072*     ResDlgOpen_
Module: /mnt/sda5/.user/root/src/openwatcom-1.9/bld/gui/win/wini86/gui.lib(/mnt/sda5/.user/root/src/openwatcom-1.9/bld/gui/win/c/guicheck.c)
0002:90d0      GUIIsChecked_
0002:90f6      GUISetChecked_
Module: /mnt/sda5/.user/root/src/openwatcom-1.9/bld/gui/win/wini86/gui.lib(/mnt/sda5/.user/root/src/openwatcom-1.9/bld/gui/c/guindlg.c)
0002:9150      GUIDlgBuffGetText_
0002:9556*     GUISetModalDlgs_
0002:955a      GUIDlgOpen_
0002:958a      GUIModalDlgOpen_
0002:95b6*     GUISysModalDlgOpen_
Module: /mnt/sda5/.user/root/src/openwatcom-1.9/bld/gui/win/wini86/gui.lib(/mnt/sda5/.user/root/src/openwatcom-1.9/bld/gui/win/c/guixtext.c)
0002:95f0+     GUIControlSetRedraw_
0002:9626      GUIAddText_
0002:965e*     GUIAddTextList_
0002:96c4*     GUIInsertText_
0002:96fc*     GUISetTopIndex_
0002:9718*     GUIGetTopIndex_
0002:9734*     GUISetHorizontalExtent_
0002:9770+     GUIGetListSize_
0002:978c*     GUIDeleteItem_
0002:97d2      GUIClearList_
0002:97f0      GUISetText_
0002:9832      GUIGetText_
0002:98dc      GUIGetCurrSelect_
0002:990a      GUISetCurrSelect_
0002:992c+     GUIGetListItem_
0002:99a0*     GUISetListItemData_
0002:99e0*     GUIGetListItemData_
Module: /mnt/sda5/.user/root/src/openwatcom-1.9/bld/aui/wini86/aui.lib(/mnt/sda5/.user/root/src/openwatcom-1.9/bld/aui/c/wndfdlg.c)
0002:9a02+     DlgGetFileName_
0002:9a46      DlgFileBrowse_
Module: /mnt/sda5/.user/root/src/openwatcom-1.9/bld/gui/win/wini86/gui.lib(/mnt/sda5/.user/root/src/openwatcom-1.9/bld/gui/win/c/guifocus.c)
0002:9b70      GUISetFocus_
0002:9bf8*     GUIGetFocus_
Module: /mnt/sda5/.user/root/src/openwatcom-1.9/bld/gui/win/wini86/gui.lib(/mnt/sda5/.user/root/src/openwatcom-1.9/bld/gui/win/c/guixdlg.c)
0002:9ca0*     GUISetJapanese_
0002:9ce8      GUIInitControl_
0002:9e7a      GUIProcessControlNotification_
0002:a08e      GUIProcessControlMsg_
0002:a0e0      GUIDIALOGFUNC
0002:a70e+     GUIDlgCalcLocation_
0002:a762      GUIXCreateDialog_
0002:aa2a      GUICloseDialog_
0002:aa48+     GUIINITDIALOGFUNC
0002:aada      GUIFiniDialog_
0002:ab04      GUIInitDialog_
0002:abfa      GUIGetDlgTextMetrics_
Module: /mnt/sda5/.user/root/src/openwatcom-1.9/rel2/lib286/win/math87l.lib(strtod.c)
0003:059e+     __Strtold_
0003:0765      strtod_
Module: /mnt/sda5/.user/root/src/openwatcom-1.9/rel2/lib286/win/emu87.lib(initemuw.asm)
0000:8000*     FJSRQQ
0000:0632*     FISRQQ
0000:1632      FIERQQ
0000:5c32      FIDRQQ
0000:a23d      FIWRQQ
0000:c000      FJCRQQ
0000:4000*     FJARQQ
0000:0e32      FICRQQ
0000:fe32*     FIARQQ
0003:08f2      __init_87_emulator
0003:0931*     __fini_87_emulator
0003:0940*     _userfpe
Module: /mnt/sda5/.user/root/src/openwatcom-1.9/rel2/lib286/win/math87l.lib(fchop87)
0003:0950      __CHP
Module: /mnt/sda5/.user/root/src/openwatcom-1.9/bld/gui/win/wini86/gui.lib(/mnt/sda5/.user/root/src/openwatcom-1.9/bld/gui/win/c/guixwind.c)
0006:454a      _GUIClass
0006:458a      _GUIMainHInst
0006:2880      _EditControlHasFocus
0006:2888      _GUICurrWnd
0006:288c+     _GUIDialogClass
0006:28cc      _GUIDefaultClassName
0003:a810      GUIXSetupWnd_
0003:a864*     GUIWantPartialRows_
0003:a87c*     GUISetCheckResizeAreaForChildren_
0003:a886      GUIDestroyWnd_
0003:aa20      GUICleanup_
0003:aa50      GUIXMain_
0003:ab82      GUIShowWindow_
0003:abbc      GUIShowWindowNA_
0003:ac14      GUIWndInit_
0003:ad68      GUIXCreateWindow_
0003:b00c      SendPointEvent_
0003:b080      GUIResizeBackground_
0003:b1e0+     SetFocusToParent_
0003:b210*     GUISetF10Menus_
0003:b250      GUIDoResize_
0003:b3bc+     GUIWINDOWPROC
0003:bf10*     GUIIsFirstInstance_
Module: /mnt/sda5/.user/root/src/openwatcom-1.9/bld/gui/win/wini86/gui.lib(/mnt/sda5/.user/root/src/openwatcom-1.9/bld/gui/c/guimem.c)
0003:bf20*     GUIMemPrtUsage_
0003:bf20      GUIMemClose_
0003:bf20      GUIMemOpen_
0003:bf20*     GUIMemRedirect_
0003:bf22      GUIMemAlloc_
0003:bf2e      GUIMemFree_
0003:bf3a      GUIMemRealloc_
0003:bf46*     GUIMemPrintLine_
Module: /mnt/sda5/.user/root/src/openwatcom-1.9/bld/gui/win/wini86/gui.lib(/mnt/sda5/.user/root/src/openwatcom-1.9/bld/gui/c/guiisgui.c)
0003:bf50      GUIIsGUI_
Module: /mnt/sda5/.user/root/src/openwatcom-1.9/bld/gui/win/wini86/gui.lib(/mnt/sda5/.user/root/src/openwatcom-1.9/bld/gui/win/c/guihelp.c)
0003:bf6e+     DisplayContents_
0003:bf8e+     DisplayContentsHH_
0003:bfae+     DisplayHelpOnHelp_
0003:bfce+     DisplayHelpSearch_
0003:bffe+     DisplayHelpSearchHH_
0003:c02e+     DisplayHelpContext_
0003:c050+     DisplayHelpKey_
0003:c072+     DisplayHelpKeyHH_
0003:c094      GUIHelpInit_
0003:c0b6      GUIHelpFini_
0003:c0e0      GUIShowHelp_
0003:c16a*     GUIShowHtmlHelp_
0003:c1d0*     GUIDisplayHelp_
0003:c210*     GUIDisplayHelpWin4_
0003:c250*     GUIDisplayHelpId_
Module: /mnt/sda5/.user/root/src/openwatcom-1.9/bld/aui/wini86/aui.lib(/mnt/sda5/.user/root/src/openwatcom-1.9/bld/aui/c/wndstat.c)
0003:c270      WndCreateStatusWindow_
0003:c29a*     WndHaveStatusWindow_
0003:c2cc*     WndCloseStatusWindow_
0003:c320      WndStatusText_
0003:c392      GUIClearStatusText_
0003:c3c2      WndResetStatusText_
0003:c3d4      WndInternalStatusText_
0006:458e+     _WndStatusString
Module: /mnt/sda5/.user/root/src/openwatcom-1.9/bld/aui/wini86/aui.lib(/mnt/sda5/.user/root/src/openwatcom-1.9/bld/aui/c/wndscrol.c)
0003:c440*     WndFixedThumb_
0003:c472*     WndSetThumbPercent_
0003:c48c*     WndSetThumbPos_
0003:c4a6+     WndSetVScrollRange_
0003:c4ca      WndResetScroll_
0003:c4de*     WndVScrollWidth_
0003:c4f8*     WndHasNumRows_
0003:c520      WndSetThumb_
0003:c624      WndScroll_
0003:c782      WndScrollAbs_
0003:c7b2      WndSetHScroll_
0003:c804+     WndCurrHScrollPos_
0003:c8bc      WndHScrollToCurr_
0003:c8e8      WndHScrollNotify_
Module: /mnt/sda5/.user/root/src/openwatcom-1.9/bld/aui/wini86/aui.lib(/mnt/sda5/.user/root/src/openwatcom-1.9/bld/aui/c/wndfront.c)
0003:c940      WndToFront_
0003:c95a*     WndRestoreToFront_
0003:c98e      WndNextNonIconToFront_
0003:c9e4*     WndChooseNew_
Module: /mnt/sda5/.user/root/src/openwatcom-1.9/bld/aui/wini86/aui.lib(/mnt/sda5/.user/root/src/openwatcom-1.9/bld/aui/c/wndcurr.c)
0003:ca60      WndSetPoint_
0003:ccb4      WndGetCurrent_
0003:ccf2      WndNewCurrent_
0003:cd2e*     WndMoveCurrent_
0003:cd94      WndHasCurrent_
0003:cdaa      WndNoCurrent_
0003:cdcc*     WndCurrRow_
0003:cde8      WndNextCurrent_
0003:cef2      WndPrevCurrent_
0003:d02e      WndFirstCurrent_
0003:d04e      WndLastCurrent_
0003:d092      WndCheckCurrentValid_
0003:d150      WndCurrVisible_
0003:d230      WndDirtyCurr_
0003:d2a0      WndDirtyCurrChar_
0003:d2f4      WndSetCurrCol_
Module: /mnt/sda5/.user/root/src/openwatcom-1.9/bld/gui/win/wini86/gui.lib(/mnt/sda5/.user/root/src/openwatcom-1.9/bld/gui/win/c/guidrawr.c)
0003:d47e*     GUIFillRect_
0003:d4bc*     GUIDrawRect_
0003:d4fa*     GUIFillRectRGB_
0003:d546*     GUIDrawRectRGB_
0003:d730      GUIDrawLine_
0003:d772*     GUIDrawLineRGB_
Module: /mnt/sda5/.user/root/src/openwatcom-1.9/bld/aui/wini86/aui.lib(/mnt/sda5/.user/root/src/openwatcom-1.9/bld/aui/c/wnddirt.c)
0003:d90e      WndDirtyScreenRange_
0003:d92a      WndDirtyScreenChar_
0003:d946      WndDirtyScreenPiece_
0003:d95e      WndAdjustDirt_
0003:d994      WndDirtyScreenRow_
0003:d9b4*     WndDirtyRect_
0003:da08      WndRowDirty_
0003:da48*     WndRowDirtyImmed_
0003:daaa*     WndPieceDirty_
0003:daf4*     WndStopRefresh_
0003:dafe+     WndPaintDirt_
0003:df28      WndFreshAll_
0006:28da      _WndDoingRefresh
Module: /mnt/sda5/.user/root/src/openwatcom-1.9/bld/aui/wini86/aui.lib(/mnt/sda5/.user/root/src/openwatcom-1.9/bld/aui/c/wndpop.c)
0003:dfc0+     CalcMaxId_
0003:e022*     NullPopupMenu_
0003:e0e6      WndAddPopupMenu_
0003:e26c      WndNullPopItem_
0003:e40a+     WndSelPopPiece_
0003:e6ac      WndSelPopItem_
0003:e704+     WndKeyPopItem_
0003:e782      WndPopUp_
0003:e84a+     WndChangeMenuAll_
0003:e8be      WndMenuEnableAll_
0003:e8ee      WndMenuGrayAll_
0003:e91e*     WndMenuIgnoreAll_
0003:e94e*     WndMenuRespectAll_
0003:e97e+     DoMenuBitOn_
0003:ea22      WndMenuCheck_
0003:ea34      WndMenuEnable_
0003:ea58*     WndMenuIgnore_
0003:ea6a+     WndCreateFloatingPopup_
0003:eae4      WndInvokePopUp_
0003:ec60*     WndKeyPopUp_
0003:eca0      WndRowPopUp_
0003:ecfc*     WndSetMainMenu_
0003:ed38      WndClick_
0003:ee6c      WndSetPopup_
0003:ef14*     WndEnableMainMenu_
0003:ef8c*     WndCheckMainMenu_
Module: /mnt/sda5/.user/root/src/openwatcom-1.9/bld/aui/wini86/aui.lib(/mnt/sda5/.user/root/src/openwatcom-1.9/bld/aui/c/wndsel.c)
0003:f000      WndSelectEvent_
0003:f090      WndSelEnds_
0003:f0f6      WndSelected_
0003:f274      WndSelSetStart_
0003:f2a2      WndSelGetEndPiece_
0003:f2ea*     WndSelSetEnd_
0003:f310      WndSelPieceChange_
0003:f422      WndSelChange_
0003:f450      WndNoSelect_
0003:f4f4*     WndSelRow_
0003:f510      SetWndMenuRow_
0003:f54e      WndToSelectMode_
0003:f5a0      WndEndSelectEvent_
0006:45e0      _WndMenuRow
0006:45e2      _WndMenuPiece
Module: /mnt/sda5/.user/root/src/openwatcom-1.9/bld/gui/win/wini86/gui.lib(/mnt/sda5/.user/root/src/openwatcom-1.9/bld/gui/win/c/guicrect.c)
0003:f5b0      GUIGetClientRect_
0003:f64c*     GUIGetPaintRect_
Module: /mnt/sda5/.user/root/src/openwatcom-1.9/bld/gui/win/wini86/gui.lib(/mnt/sda5/.user/root/src/openwatcom-1.9/bld/gui/win/c/guigscrl.c)
0003:f718*     GUIGetHScrollCol_
0003:f738      GUIGetVScrollRow_
0003:f78c      GUIGetHScroll_
0003:f79a*     GUIGetVScroll_
Module: /mnt/sda5/.user/root/src/openwatcom-1.9/bld/gui/win/wini86/gui.lib(/mnt/sda5/.user/root/src/openwatcom-1.9/bld/gui/win/c/guirect.c)
0003:f7b0      DoGetRelRect_
0003:f8b4+     GUIGetRelRect_
0003:f8f0      GUIGetRect_
Module: /mnt/sda5/.user/root/src/openwatcom-1.9/bld/gui/win/wini86/gui.lib(/mnt/sda5/.user/root/src/openwatcom-1.9/bld/gui/c/guipixel.c)
0003:f930      GUITruncToPixel_
Module: /mnt/sda5/.user/root/src/openwatcom-1.9/rel2/lib286/win/math87l.lib(ldcvt.c)
0003:0a93      _LDScale10x_
0003:1081      __LDcvt_
Module: /mnt/sda5/.user/root/src/openwatcom-1.9/bld/gui/win/wini86/gui.lib(/mnt/sda5/.user/root/src/openwatcom-1.9/bld/gui/win/c/guistext.c)
0003:f960      GUISetWindowText_
0003:f988      GUIGetWindowText_
0003:f9a2*     GUIGetWindowTextLength_
Module: /mnt/sda5/.user/root/src/openwatcom-1.9/bld/gui/win/wini86/gui.lib(/mnt/sda5/.user/root/src/openwatcom-1.9/bld/gui/c/guicreat.c)
0003:f9c0      GUICreateWindow_
0006:2968      _GUIMDI
Module: /mnt/sda5/.user/root/src/openwatcom-1.9/bld/gui/win/wini86/gui.lib(/mnt/sda5/.user/root/src/openwatcom-1.9/bld/gui/c/guiextra.c)
0003:fa50      GUISetExtra_
0003:fa60      GUIGetExtra_
Module: /mnt/sda5/.user/root/src/openwatcom-1.9/bld/aui/wini86/aui.lib(/mnt/sda5/.user/root/src/openwatcom-1.9/bld/aui/c/wndclean.c)
0003:fa70      WndCleanUp_
Module: /mnt/sda5/.user/root/src/openwatcom-1.9/bld/gui/win/wini86/gui.lib(/mnt/sda5/.user/root/src/openwatcom-1.9/bld/gui/win/c/guimenus.c)
0004:0000      GUIInitGUIMenuHint_
0004:01e8+     GetStateForMenu_
0004:0268*     GUIIsMenuItemChecked_
0004:0286*     GUIIsMenuItemEnabled_
0004:02b0      GUISetMenu_
0004:0500      GUIDeleteFloatingPopups_
0004:05ac      GUIFreePopupList_
0004:0604      GUISetGUIHint_
0004:061e+     GUIGetHMENU_
0004:06a4      GUIGetMenuPopupCount_
0004:075e      GUIDeleteMenuItem_
0004:07fe+     CheckItem_
0004:0822+     CheckPopup_
0004:0842      GUICheckMenuItem_
0004:08d2+     EnableItem_
0004:08f6+     EnablePopup_
0004:0916      GUIEnableSysMenuItem_
0004:0952      GUIEnableMenuItem_
0004:09e2      GUISetMenuText_
0004:0a78+     GUICreateMenuFlags_
0004:0abc      GUICreateSubMenu_
0004:0c24      GUICreateMenus_
0004:0c9a      GUIAddToSystemMenu_
0004:0ec2      GUIProcessMenuSelect_
0004:0f32      GUIProcessInitMenuPopup_
0004:10fe*     GUIInsertMenu_
0004:116c*     GUIInsertMenuByID_
0004:1226*     GUIAppendMenu_
0004:129c*     GUIAppendMenuByOffset_
0004:144a      GUIInsertMenuToPopup_
0004:1478      GUIAppendMenuToPopup_
0006:296a      _GUIHint
0006:298e      _GUIHFloatingPopup
Module: /mnt/sda5/.user/root/src/openwatcom-1.9/bld/gui/win/wini86/gui.lib(/mnt/sda5/.user/root/src/openwatcom-1.9/bld/gui/win/c/guisicon.c)
0004:14b0      GUISetIcon_
Module: /mnt/sda5/.user/root/src/openwatcom-1.9/bld/gui/win/wini86/gui.lib(/mnt/sda5/.user/root/src/openwatcom-1.9/bld/gui/win/c/guimouse.c)
0004:1550      GUIGetMousePosn_
Module: /mnt/sda5/.user/root/src/openwatcom-1.9/bld/gui/win/wini86/gui.lib(/mnt/sda5/.user/root/src/openwatcom-1.9/bld/gui/win/c/guisize.c)
0004:15b0+     GUIResizeWindow_
0004:168e      GUISetRestoredSize_
0004:1770*     GUIGetRestoredSize_
0004:17ec      GUIMinimizeWindow_
0004:1816      GUIMaximizeWindow_
0004:1866*     GUIHideWindow_
0004:1880*     GUIIsWindowVisible_
0004:18a8      GUIRestoreWindow_
0004:18f6      GUIIsMaximized_
0004:191e      GUIIsMinimized_
Module: /mnt/sda5/.user/root/src/openwatcom-1.9/bld/gui/win/wini86/gui.lib(/mnt/sda5/.user/root/src/openwatcom-1.9/bld/gui/c/guizlist.c)
0004:1980      GUIDeleteFromList_
0004:1a10      GUIFrontOfList_
0004:1a3c      GUIGetFront_
0004:1a44      GUIGetNextWindow_
0004:1a6e      GUIIsValidWindow_
Module: /mnt/sda5/.user/root/src/openwatcom-1.9/bld/gui/win/wini86/gui.lib(/mnt/sda5/.user/root/src/openwatcom-1.9/bld/gui/win/c/guiclen.c)
0006:45e4+     ___CharLenTable
0004:1b22      GUICharLen_
0004:1b4c      GUIIsDBCS_
Module: /mnt/sda5/.user/root/src/openwatcom-1.9/bld/gui/win/wini86/gui.lib(/mnt/sda5/.user/root/src/openwatcom-1.9/bld/gui/win/c/guixtent.c)
0004:1b70+     GetExtent_
0004:1c0c      GUIGetExtentX_
0004:1c3c*     GUIGetExtentY_
0004:1c6c+     GetControlInfo_
0004:1cbe+     GetControlExtent_
0004:1d82*     GUIGetControlExtentX_
0004:1db8*     GUIGetControlExtentY_
Module: /mnt/sda5/.user/root/src/openwatcom-1.9/bld/gui/win/wini86/gui.lib(/mnt/sda5/.user/root/src/openwatcom-1.9/bld/gui/win/c/guidirty.c)
0004:1e00      GUIWndDirty_
0004:1e7e      GUIControlDirty_
Module: /mnt/sda5/.user/root/src/openwatcom-1.9/bld/aui/wini86/aui.lib(/mnt/sda5/.user/root/src/openwatcom-1.9/bld/aui/c/wndresiz.c)
0004:1ec0      WndMainResized_
Module: /mnt/sda5/.user/root/src/openwatcom-1.9/bld/gui/win/wini86/gui.lib(/mnt/sda5/.user/root/src/openwatcom-1.9/bld/gui/win/c/guixdisp.c)
0004:1ede      GUIDisplayMessage_
Module: /mnt/sda5/.user/root/src/openwatcom-1.9/bld/gui/win/wini86/gui.lib(/mnt/sda5/.user/root/src/openwatcom-1.9/bld/gui/win/c/guidbclk.c)
0004:1fa0      GUISetDClickRate_
Module: /mnt/sda5/.user/root/src/openwatcom-1.9/bld/gui/win/wini86/gui.lib(/mnt/sda5/.user/root/src/openwatcom-1.9/bld/gui/c/guirscal.c)
0004:1fc0      GUIGetRoundScale_
Module: /mnt/sda5/.user/root/src/openwatcom-1.9/bld/gui/win/wini86/gui.lib(/mnt/sda5/.user/root/src/openwatcom-1.9/bld/gui/c/guiscale.c)
0004:2030      GUISetScale_
0004:2052      GUIGetScale_
0004:2074      GUISetScreen_
0004:2084      GUIGetScreen_
0004:20a6+     GUIConvert_
0004:2176      GUIConvertRect_
0004:21ce+     GUIConvertPoint_
0004:2264      GUIScaleToScreen_
0004:2280      GUIScaleToScreenR_
0004:229c      GUIScreenToScale_
0004:22b8      GUIScreenToScaleR_
0004:22d4      GUIScaleToScreenRPt_
0004:22ec      GUIScreenToScaleRPt_
Module: /mnt/sda5/.user/root/src/openwatcom-1.9/bld/gui/win/wini86/gui.lib(/mnt/sda5/.user/root/src/openwatcom-1.9/bld/gui/c/guiimmdi.c)
0004:2310      GUIMDIInitMenuOnly_
Module: /mnt/sda5/.user/root/src/openwatcom-1.9/bld/gui/win/wini86/gui.lib(/mnt/sda5/.user/root/src/openwatcom-1.9/bld/gui/win/c/gui3ddlg.c)
0004:2370      GUI3DDialogInit_
Module: /mnt/sda5/.user/root/src/openwatcom-1.9/bld/gui/win/wini86/gui.lib(/mnt/sda5/.user/root/src/openwatcom-1.9/bld/gui/win/c/guistub.c)
0004:2520      GUISetBetweenTitles_
0004:2522      GUISetBackgroundChar_
0004:2522*     GUISetCursorType_
0004:2522*     GUIGetCursorType_
0004:2522*     GUISetCursorPos_
0004:2522*     GUIGetCursorPos_
0004:2524*     GUISetCharacter_
0004:2524*     GUIGetDialogColours_
0004:2524*     GUISetDialogColours_
0004:2524      GUISetBackgroundColour_
0004:2524*     GUIGMouseOff_
0004:2524*     GUIGMouseOn_
0004:2526      GUIGetCharacter_
Module: /mnt/sda5/.user/root/src/openwatcom-1.9/bld/aui/wini86/aui.lib(/mnt/sda5/.user/root/src/openwatcom-1.9/bld/aui/c/wndsysin.c)
0004:2530      WndSysInit_
Module: /mnt/sda5/.user/root/src/openwatcom-1.9/bld/aui/wini86/aui.lib(/mnt/sda5/.user/root/src/openwatcom-1.9/bld/aui/c/wndmnsz.c)
0004:2540      WndSetWndMainSize_
Module: /mnt/sda5/.user/root/src/openwatcom-1.9/bld/aui/wini86/aui.lib(/mnt/sda5/.user/root/src/openwatcom-1.9/bld/aui/c/wndbgch.c)
0006:29c2      _WndBackgroundChar
Module: /mnt/sda5/.user/root/src/openwatcom-1.9/bld/aui/wini86/aui.lib(/mnt/sda5/.user/root/src/openwatcom-1.9/bld/aui/c/wndshthk.c)
0004:2570      WndShutDownHook_
Module: /mnt/sda5/.user/root/src/openwatcom-1.9/bld/gui/win/wini86/gui.lib(/mnt/sda5/.user/root/src/openwatcom-1.9/bld/gui/win/c/guigetnr.c)
0004:2580      GUIGetNumRows_
Module: /mnt/sda5/.user/root/src/openwatcom-1.9/bld/gui/win/wini86/gui.lib(/mnt/sda5/.user/root/src/openwatcom-1.9/bld/gui/win/c/guitextm.c)
0004:2590      GUISetMetrics_
0004:25f0      GUIGetTextMetrics_
Module: /mnt/sda5/.user/root/src/openwatcom-1.9/bld/gui/win/wini86/gui.lib(/mnt/sda5/.user/root/src/openwatcom-1.9/bld/gui/win/c/guirange.c)
0004:26c4*     GUISetHScrollRangeCols_
0004:26e6      GUISetVScrollRangeRows_
0004:2708      GUISetHScrollRange_
0004:2742*     GUISetVScrollRange_
0004:277e*     GUIGetHScrollRange_
0004:27a4*     GUIGetVScrollRange_
0004:27cc*     GUIGetVScrollRangeRows_
0004:27fa*     GUIGetHScrollRangeCols_
Module: /mnt/sda5/.user/root/src/openwatcom-1.9/bld/aui/wini86/aui.lib(/mnt/sda5/.user/root/src/openwatcom-1.9/bld/aui/c/wndrszhk.c)
0004:2830      WndResizeHook_
Module: /mnt/sda5/.user/root/src/openwatcom-1.9/bld/gui/win/wini86/gui.lib(/mnt/sda5/.user/root/src/openwatcom-1.9/bld/gui/win/c/guicursr.c)
0004:2840      GUISetMouseCursor_
0004:288c      GUIResetMouseCursor_
Module: /mnt/sda5/.user/root/src/openwatcom-1.9/bld/aui/wini86/aui.lib(/mnt/sda5/.user/root/src/openwatcom-1.9/bld/aui/c/wndchoos.c)
0004:28b0      WndChooseEvent_
0004:2918*     WndDoneChoose_
0004:292a      WndKeyEscape_
0004:2958*     WndStartChoose_
0004:2964      WndSayMatchMode_
0004:2d40      WndKeyChoose_
0004:2d4a      WndKeyRubOut_
Module: /mnt/sda5/.user/root/src/openwatcom-1.9/bld/aui/wini86/aui.lib(/mnt/sda5/.user/root/src/openwatcom-1.9/bld/aui/c/wndmouse.c)
0004:2e10*     WndGetMouseRow_
0004:2f06      WndLButtonDown_
0004:2fe8      WndLButtonUp_
0004:30c0      WndLDblClk_
0004:313e      WndRButtonDown_
0004:3232      WndRButtonUp_
0004:32ca      WndMouseButtonIsDown_
0004:32dc      WndIgnoreMouseMove_
0004:32fe      WndMouseMove_
Module: /mnt/sda5/.user/root/src/openwatcom-1.9/bld/aui/wini86/aui.lib(/mnt/sda5/.user/root/src/openwatcom-1.9/bld/aui/c/wndcrsr.c)
0004:3380+     WndAtTop_
0004:35d4      WndScrollUp_
0004:35de      WndCursorUp_
0004:35fa      WndScrollDown_
0004:3604      WndCursorDown_
0004:3642      WndPageUp_
0004:3664      WndPageDown_
0004:3684      WndTabLeft_
0004:37f0      WndCursorLeft_
0004:37fa      WndTabRight_
0004:3938      WndCursorRight_
0004:3942      WndScrollTop_
0004:3972      WndScrollBottom_
0004:399e      WndCursorStart_
0004:39b8      WndCursorEnd_
Module: /mnt/sda5/.user/root/src/openwatcom-1.9/bld/aui/wini86/aui.lib(/mnt/sda5/.user/root/src/openwatcom-1.9/bld/aui/c/wndfonhk.c)
0004:39e0      WndFontHook_
Module: /mnt/sda5/.user/root/src/openwatcom-1.9/bld/gui/win/wini86/gui.lib(/mnt/sda5/.user/root/src/openwatcom-1.9/bld/gui/win/c/guistat.c)
0004:3ba2      GUICreateStatusWindow_
0004:3c4a      GUIDrawStatusText_
0004:3cf6      GUIHasStatus_
0004:3d0a      GUICloseStatusWindow_
0004:3d4a      GUIResizeStatusWindow_
Module: /mnt/sda5/.user/root/src/openwatcom-1.9/bld/aui/wini86/aui.lib(/mnt/sda5/.user/root/src/openwatcom-1.9/bld/aui/c/wndpaint.c)
0004:4336+     WndPaintRows_
0004:44b0      WndProcPaint_
0004:44c8*     WndForcePaint_
Module: /mnt/sda5/.user/root/src/openwatcom-1.9/bld/gui/win/wini86/gui.lib(/mnt/sda5/.user/root/src/openwatcom-1.9/bld/gui/win/c/guiflush.c)
0004:4500      GUIFlushKeys_
Module: /mnt/sda5/.user/root/src/openwatcom-1.9/bld/aui/wini86/aui.lib(/mnt/sda5/.user/root/src/openwatcom-1.9/bld/aui/c/wndchar.c)
0004:4564*     WndSetIDChars_
0004:457c      WndIDChar_
0004:45d8      WndKeyChar_
Module: /mnt/sda5/.user/root/src/openwatcom-1.9/bld/aui/wini86/aui.lib(/mnt/sda5/.user/root/src/openwatcom-1.9/bld/aui/c/wndqryhk.c)
0004:45f0      WndQueryEndSessionHook_
Module: /mnt/sda5/.user/root/src/openwatcom-1.9/bld/aui/wini86/aui.lib(/mnt/sda5/.user/root/src/openwatcom-1.9/bld/aui/c/wndendhk.c)
0004:4600      WndEndSessionHook_
Module: /mnt/sda5/.user/root/src/openwatcom-1.9/bld/aui/wini86/aui.lib(/mnt/sda5/.user/root/src/openwatcom-1.9/bld/aui/c/wndtool.c)
0004:4610*     WndCreateToolBar_
0004:469a*     WndCreateToolBarWithTips_
0004:4724*     WndHaveToolBar_
0004:4740*     WndCloseToolBar_
0004:4774*     WndToolHeight_
0004:4778*     WndToolFixed_
0004:4786      WndSetToolBar_
0006:471a+     _ToolHeight
Module: /mnt/sda5/.user/root/src/openwatcom-1.9/bld/aui/wini86/aui.lib(/mnt/sda5/.user/root/src/openwatcom-1.9/bld/aui/c/wndldstr.c)
0004:47a0      WndLoadString_
Module: /mnt/sda5/.user/root/src/openwatcom-1.9/bld/aui/wini86/aui.lib(/mnt/sda5/.user/root/src/openwatcom-1.9/bld/aui/c/wndspawn.c)
0004:4820*     Spawn_
0004:486a      SpawnP_
0004:48b8*     Suicide_
Module: /mnt/sda5/.user/root/src/openwatcom-1.9/bld/gui/win/wini86/gui.lib(/mnt/sda5/.user/root/src/openwatcom-1.9/bld/gui/c/guidlg.c)
0004:4942      GUICreateDialog_
0004:495e      GUICreateResDialog_
0004:4970      GUICreateSysModalDialog_
Module: /mnt/sda5/.user/root/src/openwatcom-1.9/bld/gui/win/wini86/gui.lib(/mnt/sda5/.user/root/src/openwatcom-1.9/bld/gui/win/c/guixutil.c)
0004:49e4      GUIMaximizeZoomedChildren_
0004:49fe      GUIIsOpen_
0004:4a22+     GUIIsParentADialog_
0004:4a62      GUIIsRectInUpdateRect_
0004:4ada      GUICalcLocation_
0004:4b90      GUISetupStruct_
0004:4c80      GUIError_
0004:4cb4*     GUIFindWindowFromHWND_
0004:4d0c*     GUIIsGUIChild_
0004:4d42      GUISetRedraw_
0004:4d6a      GUIBringNewToFront_
0004:4dee      GUIXGetRootWindow_
0004:4e30+     GUIFindFirstChild_
0004:4e8c+     GUIFindFirstPopupWithNoParent_
0004:4f32      GUIDestroyAllChildren_
0004:4f80      GUIDestroyAllPopupsWithNoParent_
0004:4fa6      GUIFreeWindowMemory_
0004:5104      GUIScrollOn_
0004:5128      GUISetRowCol_
0004:519a      GUIInvalidateResize_
0004:5258      GUISendMessage_
0004:527e      GUISendDlgItemMessage_
0004:52b2      GUIMakeRelative_
0004:53c4      GUIGetScrollHWND_
0004:53e4      GUISetScrollPos_
0004:5426      GUIGetScrollPos_
0004:543c      GUISetScrollRange_
0004:54ce      GUIGetScrollRange_
0004:54e4*     GUISetRangePos_
0004:5540      GUIRedrawScroll_
0004:563c      GUIGetParentHWND_
0004:565c      GUIGetParentFrameHWND_
0004:567e      GUIGetTopParentHWND_
0004:569c      GUIGetTopGUIWindow_
0004:56a8      GUIGetWindow_
0004:56cc      GUIGetParentWindow_
0004:56ea      GUIParentHasFlags_
0004:571e      GUIGetFirstSibling_
0004:575e      GUIGetSystemFont_
Module: /mnt/sda5/.user/root/src/openwatcom-1.9/bld/gui/win/wini86/gui.lib(/mnt/sda5/.user/root/src/openwatcom-1.9/bld/gui/win/c/guismetr.c)
0004:5780      GUIGetSystemMetrics_
Module: /mnt/sda5/.user/root/src/openwatcom-1.9/bld/gui/win/wini86/gui.lib(/mnt/sda5/.user/root/src/openwatcom-1.9/bld/gui/win/c/guicutil.c)
0004:5930      GUIToControl_
0004:599c      GUIToComboList_
0004:5a1a      GUIGetControlClass_
Module: /mnt/sda5/.user/root/src/openwatcom-1.9/bld/gui/win/wini86/gui.lib(/mnt/sda5/.user/root/src/openwatcom-1.9/bld/gui/win/c/guifdlg.c)
0004:5a60*     GUIHookFileDlg_
0004:5a64+     OPENHOOK
0004:5a94      GUIGetFileName_
Module: /mnt/sda5/.user/root/src/openwatcom-1.9/bld/gui/win/wini86/gui.lib(/mnt/sda5/.user/root/src/openwatcom-1.9/bld/gui/win/c/guissel.c)
0004:5da6      GUISelectAll_
0004:5dce*     GUISetEditSelect_
0004:5de8*     GUIGetEditSelect_
0004:5e44*     GUIScrollCaret_
Module: /mnt/sda5/.user/root/src/openwatcom-1.9/bld/gui/win/wini86/gui.lib(/mnt/sda5/.user/root/src/openwatcom-1.9/bld/gui/win/c/guicontr.c)
0006:29e0      _GUIControls
0004:5ea0      GUIInsertCtrlWnd_
0004:5eee      GUIGetCtrlWnd_
0004:6010      GUIGetControlByID_
0004:6054      GUIGetControlByHwnd_
0004:6098      GUIControlInsert_
0004:6174      GUIControlInsertByHWND_
0004:6264+     GUIControlDelete_
0004:6316      GUIControlDeleteAll_
0004:6376+     GUIEDITFUNC
0004:653c+     GUIGROUPBOXFUNC
0004:65fc      GUIDoSubClass_
0004:6668      GUISetControlStyle_
0004:682e*     GUIAddControl_
0004:6948*     GUIEnumControls_
0004:69a6      GUICheckRadioButton_
0004:6adc*     GUIDeleteControl_
0004:6b28*     GUILimitEditText_
0004:6ba8*     GUIHideControl_
0004:6bb6*     GUIShowControl_
0004:6bc6*     GUIIsControlVisible_
Module: /mnt/sda5/.user/root/src/openwatcom-1.9/bld/gui/win/wini86/gui.lib(/mnt/sda5/.user/root/src/openwatcom-1.9/bld/gui/c/guiutil.c)
0004:6c00*     GUIStripTrailingBlanks_
0004:6cce      GUIStrDup_
0004:6d90      GUIStoreArgs_
0004:6da2*     GUIGetArgs_
0004:6de2*     GUIIsRootWindow_
0004:6e06      GUIGetRootWindow_
Module: /mnt/sda5/.user/root/src/openwatcom-1.9/bld/gui/win/wini86/gui.lib(/mnt/sda5/.user/root/src/openwatcom-1.9/bld/gui/win/c/guixhook.c)
0004:6e20      GUISetMDIProcessMessage_
0004:6e28      GUIMDIProcessMessage_
0004:6e62      GUIMDIMaximized_
0004:6e92*     GUISetMDIMaximized_
0004:6e9a      GUIMDIUpdatedMenu_
0004:6ebc*     GUISetMDIUpdatedMenu_
0004:6ec4*     GUISetIsMDIChildWindow_
0004:6ecc      GUIIsMDIChildWindow_
0004:6ef2      GUIResizeStatus_
0004:6f16      GUISetResizeStatus_
0004:6f1e      GUIFreeStatus_
0004:6f3e      GUISetFreeStatus_
0004:6f46*     GUISetMDINewWindow_
0004:6f4e      GUIMDINewWindow_
0004:6f74*     GUISetMDIMaximize_
0004:6f7c      GUIMDIMaximize_
0004:6fa2*     GUISetSetMDIRestoredSize_
0004:6faa      GUISetMDIRestoredSize_
0004:6fce      GUISetCtl3dUnregister_
0004:6fd6      GUICtl3dUnregister_
0004:7002      GUISetCtl3dSubclassDlg_
0004:700a      GUICtl3dSubclassDlg_
0004:7032      GUISetCtl3dColorChange_
0004:703a      GUISetCtl3dSubclassCtl_
0004:7042      GUISetCtl3dCtlColorEx_
0004:704a      GUICtl3dSubclassCtl_
0004:7074      GUICtl3dColorChange_
0004:709c      GUICtl3dCtlColorEx_
Module: /mnt/sda5/.user/root/src/openwatcom-1.9/bld/gui/win/wini86/gui.lib(/mnt/sda5/.user/root/src/openwatcom-1.9/bld/gui/win/c/guirdlg.c)
0004:70d0      GUIGetControlClassFromHWND_
0004:7194      GUIGetControlStylesFromHWND_
0004:725a+     INSERTRESDLGCNTLFUNC
0004:727c      GUIInsertResDialogControls_
0004:72c6      GUIDoCreateResDialog_
0004:7336*     GUICreateDialogFromRes_
0006:4734      _GUIResHInst
Module: /mnt/sda5/.user/root/src/openwatcom-1.9/bld/gui/win/wini86/gui.lib(/mnt/sda5/.user/root/src/openwatcom-1.9/bld/gui/c/guimkey.c)
0004:7340      GUIMapKey_
0004:764a      GUIGetKeyState_
0006:2b7e      _KeyState
Module: /mnt/sda5/.user/root/src/openwatcom-1.9/bld/gui/win/wini86/gui.lib(/mnt/sda5/.user/root/src/openwatcom-1.9/bld/gui/win/c/guimapky.c)
0004:7c02      GUISetKeyState_
0004:7c9e      GUIWindowsMapKey_
0004:7cd2      GUIProcesskey_
Module: /mnt/sda5/.user/root/src/openwatcom-1.9/bld/gui/win/wini86/gui.lib(/mnt/sda5/.user/root/src/openwatcom-1.9/bld/gui/win/c/guipaint.c)
0004:7e80      GUIPaint_
0004:7f78      GUIInvalidatePaintHandles_
0004:7f82*     GUIFreeWndPaintHandles_
0004:7f84*     GUIFreePaintHandles_
Module: /mnt/sda5/.user/root/src/openwatcom-1.9/bld/gui/win/wini86/gui.lib(/mnt/sda5/.user/root/src/openwatcom-1.9/bld/gui/c/guisdef.c)
0006:4740      ___LITApplIcon
0006:4744      ___LITEmpty
0006:4748      ___LITOS2_Dialog_Font
0006:474c      ___LITBlank
0006:4750      ___LITTable_of_Contents
0006:4754      ___LITInternal_Last_Message
0006:4758      ___LITWindows_Dialog_Font
0006:475c      ___LITBrightGreen
0006:4760      ___LITBlack
0006:4764      ___LITBrightCyan
0006:4768      ___LITCyan
0006:476c      ___LITBrightBlue
0006:4770      ___LITBrown
0006:4774      ___LITBlue
0006:4778      ___LITBrightRed
0006:477c      ___LITGreen
0006:4780      ___LITBrightYellow
0006:4784      ___LITExclamation
0006:4788      ___LITBrightWhite
0006:478c      ___LITColour
0006:4790      ___LITStop_Bang
0006:4794      ___LITBrightMagenta
0006:4798      ___LITWhite
0006:479c      ___LITMagenta
0006:47a0      ___LITRed
0006:47a4      ___LITGrey
0006:47a8      ___LITArrange_Icons_Hint
0006:47ac      ___LITXNo
0006:47b0      ___LITXIgnore
0006:47b4      ___LITFix_Toolbar_Hint
0006:47b8      ___LITTile_Horz_Hint
0006:47bc      ___LITCascade_Hint
0006:47c0      ___LITXAbort
0006:47c4      ___LITTile_XVert
0006:47c8      ___LITWindow_Name_Hint
0006:47cc      ___LITTile_Vert_Hint
0006:47d0      ___LITTile_XHorz
0006:47d4      ___LITMore_Windows_Hint
0006:47d8      ___LITXMore_Windows
0006:47dc      ___LITXFix_Toolbar
0006:47e0      ___LITXCascade
0006:47e4      ___LITXArrange_Icons
0006:47e8      ___LITXRetry
0006:47ec      ___LITSelect_Window
0006:47f0      ___LITXYes
0006:47f4      ___LITFile_Exists_Replace
0006:47f8      ___LITNexXt
0006:47fc      ___LITClose
0006:4800      ___LITCancel
0006:4804      ___LITFDlg_Open_Text
0006:4808      ___LITOpen_Failed
0006:480c      ___LITDrives_Colon
0006:4810      ___LITFDlg_Save_Text
0006:4814      ___LITList_Files_of_Type_Colon
0006:4818      ___LITPen_Failed
0006:481c      ___LITFile_Name_Colon
0006:4820      ___LITRestore
0006:4824      ___LITMove
0006:4828      ___LITXClose
0006:482c      ___LITSize
0006:4830      ___LITMinimize
0006:4834      ___LITDirectories_Colon
0006:4838      ___LITMaximize
0006:483c      ___LITOK
0006:4840      ___LITXFix_Tool_Bar
0006:4844      ___LITChange_XFont_
0006:4848      ___LITChange_Font_for_this_window
0006:484c      ___LITMake_Tool_Bar_Fixed
0006:4850      ___LITFloating_Toolbar
0006:4854      ___LITInternal_First_Message
Module: /mnt/sda5/.user/root/src/openwatcom-1.9/bld/gui/win/wini86/gui.lib(/mnt/sda5/.user/root/src/openwatcom-1.9/bld/gui/win/c/windlg.c)
0004:7fde      DialogTemplate_
0004:8104      AddControl_
0004:825c      DoneAddingControls_
0004:82a2      DynamicDialogBox_
Module: /mnt/sda5/.user/root/src/openwatcom-1.9/rel2/lib286/win/math87l.lib(bufld086)
0003:15de      __ZBuf2LD
Module: /mnt/sda5/.user/root/src/openwatcom-1.9/rel2/lib286/win/math87l.lib(inf_nan.c)
0006:1bfe*     ___f_infinity
0006:1c02*     ___f_posqnan
0006:1c06      ___d_infinity
0006:1c0e      ___d_posqnan
0006:1c16*     ___ld_infinity
0006:1c1e*     ___ld_posqnan
Module: /mnt/sda5/.user/root/src/openwatcom-1.9/bld/gui/win/wini86/gui.lib(/mnt/sda5/.user/root/src/openwatcom-1.9/bld/gui/win/c/guiclass.c)
0004:82f0      GUIGetWindowClassName_
Module: /mnt/sda5/.user/root/src/openwatcom-1.9/bld/gui/win/wini86/gui.lib(/mnt/sda5/.user/root/src/openwatcom-1.9/bld/gui/c/guideath.c)
0004:8300      GUIDeath_
Module: /mnt/sda5/.user/root/src/openwatcom-1.9/bld/gui/win/wini86/gui.lib(/mnt/sda5/.user/root/src/openwatcom-1.9/bld/gui/c/guihook.c)
0004:8310      GUISetHotSpotCleanup_
0004:8318      GUICleanupHotSpots_
0004:8338*     GUISetXChangeTitle_
0004:8340      GUIXChangeTitle_
0004:8364      GUISetXInitMDI_
0004:836c      GUIXInitMDI_
0004:8392      GUISetInitMDI_
0004:839a      GUIInitMDI_
0004:83be      GUIChangeMDITitle_
0004:83e2      GUISetMDIChangeTitle_
0004:83ea      GUISetMDIBroughtToFront_
0004:83f2      GUIMDIBroughtToFront_
0004:8416      GUISetMDIDelete_
0004:841e      GUIMDIDelete_
0004:8442      GUISetMDIResetMenus_
0004:844a      GUIMDIResetMenus_
0004:847c      GUISetMDIDeleteMenuItem_
0004:8484      GUIMDIDeleteMenuItem_
0004:84a8*     GUISetEnableMDIActions_
0004:84b0      GUIEnableMDIActions_
0004:84d6*     GUISetAddMDIActions_
0004:84de      GUIAddMDIActions_
Module: /mnt/sda5/.user/root/src/openwatcom-1.9/bld/gui/win/wini86/gui.lib(/mnt/sda5/.user/root/src/openwatcom-1.9/bld/gui/c/guistr.c)
0004:8566      GUIInitInternalStringTable_
0004:8900      GUIFiniInternalStringTable_
Module: /mnt/sda5/.user/root/src/openwatcom-1.9/bld/gui/win/wini86/gui.lib(/mnt/sda5/.user/root/src/openwatcom-1.9/bld/gui/win/c/guildstr.c)
0004:8c60      GUIIsLoadStrInitialized_
0004:8c64      GUILoadStrInit_
0004:8cde      GUILoadStrFini_
0004:8d0c      GUILoadString_
Module: /mnt/sda5/.user/root/src/openwatcom-1.9/bld/gui/win/wini86/gui.lib(/mnt/sda5/.user/root/src/openwatcom-1.9/bld/gui/win/c/guisysfi.c)
0004:8d50      GUISysFini_
Module: /mnt/sda5/.user/root/src/openwatcom-1.9/bld/gui/win/wini86/gui.lib(/mnt/sda5/.user/root/src/openwatcom-1.9/bld/gui/win/c/guixmain.c)
0004:8d60      WINMAIN
0006:2c7e      _GUIMainTouched
Module: /mnt/sda5/.user/root/src/openwatcom-1.9/bld/gui/win/wini86/gui.lib(/mnt/sda5/.user/root/src/openwatcom-1.9/bld/gui/c/guifcrck.c)
0004:8d90      GUIFirstCrack_
Module: /mnt/sda5/.user/root/src/openwatcom-1.9/bld/gui/win/wini86/gui.lib(/mnt/sda5/.user/root/src/openwatcom-1.9/bld/gui/c/guidead.c)
0004:8da0      GUIDead_
Module: /mnt/sda5/.user/root/src/openwatcom-1.9/bld/gui/win/wini86/gui.lib(/mnt/sda5/.user/root/src/openwatcom-1.9/bld/gui/win/c/guiwinlp.c)
0004:8db0      GUIWinMessageLoop_
Module: /mnt/sda5/.user/root/src/openwatcom-1.9/bld/gui/win/wini86/gui.lib(/mnt/sda5/.user/root/src/openwatcom-1.9/bld/gui/win/c/guisysin.c)
0004:8e20      GUISysInit_
Module: /mnt/sda5/.user/root/src/openwatcom-1.9/bld/gui/win/wini86/gui.lib(/mnt/sda5/.user/root/src/openwatcom-1.9/bld/wpi/c/wpi_win.c)
0004:8e30      _wpi_getbitmapdim_
0004:8e6a      _wpi_getpaintrect_
0004:8e9e*     _wpi_preparemono_
0004:8ed0      _wpi_setpoint_
0004:8ede      _wpi_subclasswindow_
0004:8f1c      _wpi_insertmenu_
0004:8f5a      _wpi_appendmenu_
0004:8f84      _wpi_getmenustate_
0004:8fca      _wpi_getmenuflagsfromstate_
0004:8fe8      _wpi_modifymenu_
0004:9026      _wpi_setmenutext_
0004:909c      _wpi_getmenutext_
0004:90bc      _wpi_setmenu_
0004:90ce      _wpi_createcompatiblepres_
0004:90dc*     _wpi_getbitmapparms_
0004:917a*     _wpi_setqmsgvalues_
0004:91c0      _wpi_getqmsgvalues_
0004:9278      _wpi_setrectvalues_
0004:929a      _wpi_setwrectvalues_
0004:92bc      _wpi_getrectvalues_
0004:9322      _wpi_getwrectvalues_
0004:9388*     _wpi_setintrectvalues_
0004:93aa*     _wpi_setintwrectvalues_
0004:93cc*     _wpi_getintwrectvalues_
0004:9432*     _wpi_getintrectvalues_
0004:9498*     _wpi_getcurrpos_
0004:94ca*     _wpi_suspendthread_
0004:94f0      _wpi_setmaxtracksize_
0004:9500      _wpi_setmintracksize_
0004:9510*     _wpi_getbmphdrvalues_
0004:9616*     _wpi_setbmphdrvalues_
0004:9698      _wpi_gettextextent_
0004:96c6      _wpi_getrestoredrect_
0004:96fa      _wpi_setrestoredrect_
0004:972e*     _wpi_setrgbquadvalues_
0004:9750*     _wpi_dlg_command_
0004:9780*     _wpi_getmetricpointsize_
Module: /mnt/sda5/.user/root/src/openwatcom-1.9/bld/gui/win/wini86/gui.lib(/mnt/sda5/.user/root/src/openwatcom-1.9/bld/gui/c/guihint.c)
0004:99d8+     GUIHasHintType_
0004:9a18      GUIDisplayHintText_
0004:9aa8*     GUISetHintText_
0004:9ac2*     GUIHasHintText_
0004:9aea      GUIDeleteHintText_
0004:9c36+     CountMenus_
0004:9c9a+     InsertHint_
0004:9d44      GUIAppendHintText_
0004:9df4      GUIInitHint_
0004:9ef4      GUIInitToolbarHint_
0004:9fd6      GUIFreeHint_
Module: /mnt/sda5/.user/root/src/openwatcom-1.9/bld/gui/win/wini86/gui.lib(/mnt/sda5/.user/root/src/openwatcom-1.9/bld/gui/win/c/guitool.c)
0004:a010      GUIXCloseToolBar_
0004:a110+     GUIToolBarHelp_
0004:a148+     GUIToolBarProc_
0004:a32e      GUIXCreateToolBarWithTips_
0004:a844      GUIXCreateToolBar_
0004:a886      GUIResizeToolBar_
0004:a9b2      GUIHasToolBar_
0004:a9d0+     GUIChangeToolBar_
0004:ab38*     GUIToolBarFixed_
Module: /mnt/sda5/.user/root/src/openwatcom-1.9/bld/gui/win/wini86/gui.lib(/mnt/sda5/.user/root/src/openwatcom-1.9/bld/gui/win/c/guiscrol.c)
0004:ab60      GUIGetScrollScreenSize_
0004:abea+     GUIGetScrollInc_
0004:ac2e+     GUIScroll_
0004:ad5e*     GUISetVScrollRow_
0004:ad80*     GUISetHScrollCol_
0004:ada2*     GUISetVScroll_
0004:ade0      GUISetHScroll_
0004:af3c      GUIProcessScrollMsg_
0004:b2ca      GUISetScroll_
Module: /mnt/sda5/.user/root/src/openwatcom-1.9/bld/gui/win/wini86/gui.lib(/mnt/sda5/.user/root/src/openwatcom-1.9/bld/gui/win/c/guifont.c)
0004:b394+     GUIChooseFont_
0004:b448      GUIChangeFont_
0004:b500*     GUIGetFontInfo_
0004:b53e*     GUIGetFontFromUser_
0004:b5b6*     GUISetFontInfo_
0004:b616*     GUIFontsSupported_
0004:b61a*     GUISetSystemFont_
Module: /mnt/sda5/.user/root/src/openwatcom-1.9/bld/gui/win/wini86/gui.lib(/mnt/sda5/.user/root/src/openwatcom-1.9/bld/gui/win/c/guifront.c)
0004:b670      ActivateNC_
0004:b6ce      GUIBringToFront_
0004:b822*     GUIActivateNC_
Module: /mnt/sda5/.user/root/src/openwatcom-1.9/bld/gui/win/wini86/gui.lib(/mnt/sda5/.user/root/src/openwatcom-1.9/bld/gui/c/guihtool.c)
0004:b830*     GUICreateFloatToolBar_
0004:b8a0      GUICreateToolBar_
0004:b90e      GUICreateToolBarWithTips_
0004:b980      GUICloseToolBar_
Module: /mnt/sda5/.user/root/src/openwatcom-1.9/bld/gui/win/wini86/gui.lib(/mnt/sda5/.user/root/src/openwatcom-1.9/bld/gui/win/c/guicolor.c)
0004:b9c0+     InitSystemRGB_
0004:ba0e*     GUISetRGB_
0004:ba7c+     GUIGetRGB_
0004:baae+     GUIGetWndColour_
0004:bb0c+     SetBKBrush_
0004:bbc8*     GUICheckBKBrush_
0004:bc20*     GUISetWndColour_
0004:bca6*     GUIGetRGBFromUser_
0004:bd8c      GUIXSetColours_
0004:be08      GUIXGetWindowColours_
0004:be3e      GUIFreeBKBrush_
0004:be8e*     GUISetWindowColours_
0004:bec4      GUIGetFore_
0004:beec      GUIGetBack_
0006:2c84+     _GUIColours
Module: /mnt/sda5/.user/root/src/openwatcom-1.9/bld/gui/win/wini86/gui.lib(/mnt/sda5/.user/root/src/openwatcom-1.9/bld/gui/win/c/guisystr.c)
0004:bf20      WndSizeChange_
0004:bf20      TrayCallBack_
Module: /mnt/sda5/.user/root/src/openwatcom-1.9/rel2/lib286/win/clibl.lib(fmalloc.c)
0003:16a6      malloc_
0003:16b1      _fmalloc_
0006:2cd4+     ___fheap
0006:2cd6      ___fheapRover
0006:2cd8      ___LargestSizeB4Rover
Module: /mnt/sda5/.user/root/src/openwatcom-1.9/rel2/lib286/win/clibl.lib(ffree.c)
0003:17a9      free_
0003:17b4      _ffree_
Module: /mnt/sda5/.user/root/src/openwatcom-1.9/rel2/lib286/win/clibl.lib(frealloc.c)
0003:17f2      realloc_
0003:17fd      _frealloc_
Module: /mnt/sda5/.user/root/src/openwatcom-1.9/bld/gui/win/wini86/gui.lib(/mnt/sda5/.user/root/src/openwatcom-1.9/bld/sdk/misc/wwinhelp.c)
0004:bf30      WWinHelp_
0004:c09a      WHtmlHelp_
Module: /mnt/sda5/.user/root/src/openwatcom-1.9/bld/aui/wini86/aui.lib(/mnt/sda5/.user/root/src/openwatcom-1.9/bld/aui/c/wndfref.c)
0004:c0b0      WndForceRefresh_
Module: /mnt/sda5/.user/root/src/openwatcom-1.9/bld/gui/win/wini86/gui.lib(/mnt/sda5/.user/root/src/openwatcom-1.9/bld/gui/win/c/guithumb.c)
0004:c1ba      GUISetVScrollThumb_
0004:c1ca*     GUISetHScrollThumb_
Module: /mnt/sda5/.user/root/src/openwatcom-1.9/bld/gui/win/wini86/gui.lib(/mnt/sda5/.user/root/src/openwatcom-1.9/bld/gui/win/c/guiiscrl.c)
0004:c248      GUIInitVScrollRow_
0004:c26a*     GUIInitHScrollCol_
0004:c28c*     GUIInitVScroll_
0004:c2ca      GUIInitHScroll_
Module: /mnt/sda5/.user/root/src/openwatcom-1.9/bld/gui/win/wini86/gui.lib(/mnt/sda5/.user/root/src/openwatcom-1.9/bld/gui/win/c/guidoscr.c)
0004:c482*     GUIDoVScroll_
0004:c49a*     GUIDoHScroll_
0004:c4b4      GUIDoVScrollClip_
0004:c4cc*     GUIDoHScrollClip_
0004:c4e6      GUIDoScroll_
Module: /mnt/sda5/.user/root/src/openwatcom-1.9/bld/gui/win/wini86/gui.lib(/mnt/sda5/.user/root/src/openwatcom-1.9/bld/gui/win/c/guigetrc.c)
0004:c520      GUIGetRow_
0004:c560*     GUIGetCol_
Module: /mnt/sda5/.user/root/src/openwatcom-1.9/bld/gui/win/wini86/gui.lib(/mnt/sda5/.user/root/src/openwatcom-1.9/bld/gui/win/c/guistrin.c)
0004:c618      GUIGetStringPos_
Module: /mnt/sda5/.user/root/src/openwatcom-1.9/bld/gui/win/wini86/gui.lib(/mnt/sda5/.user/root/src/openwatcom-1.9/bld/gui/win/c/guidrect.c)
0004:c790      GUIWndDirtyRect_
Module: /mnt/sda5/.user/root/src/openwatcom-1.9/bld/gui/win/wini86/gui.lib(/mnt/sda5/.user/root/src/openwatcom-1.9/bld/gui/win/c/guidrow.c)
0004:c850      GUIWndDirtyRow_
Module: /mnt/sda5/.user/root/src/openwatcom-1.9/bld/gui/win/wini86/gui.lib(/mnt/sda5/.user/root/src/openwatcom-1.9/bld/gui/c/guidraw.c)
0004:c930      GUIDrawText_
0004:c98a*     GUIDrawTextPos_
0004:c9b4      GUIDrawTextExtent_
0004:ca0e*     GUIDrawTextExtentPos_
0004:ca38*     GUIDrawTextRGB_
0004:ca98*     GUIDrawTextPosRGB_
0004:cac4*     GUIDrawTextExtentRGB_
0004:cb24*     GUIDrawTextExtentPosRGB_
Module: /mnt/sda5/.user/root/src/openwatcom-1.9/bld/gui/win/wini86/gui.lib(/mnt/sda5/.user/root/src/openwatcom-1.9/bld/gui/c/guihot.c)
0004:cb76*     GUIInitHotSpots_
0004:cbee*     GUIGetNumHotSpots_
0004:cbf2      GUIGetHotSpotSize_
0006:48d8      _GUINumHotSpots
Module: /mnt/sda5/.user/root/src/openwatcom-1.9/bld/aui/wini86/aui.lib(/mnt/sda5/.user/root/src/openwatcom-1.9/bld/aui/c/wndsfra.c)
0004:cc60      WndStartFreshAll_
Module: /mnt/sda5/.user/root/src/openwatcom-1.9/bld/aui/wini86/aui.lib(/mnt/sda5/.user/root/src/openwatcom-1.9/bld/aui/c/wndefra.c)
0004:cc70      WndEndFreshAll_
Module: /mnt/sda5/.user/root/src/openwatcom-1.9/bld/aui/wini86/aui.lib(/mnt/sda5/.user/root/src/openwatcom-1.9/bld/aui/c/wndmem.c)
0004:cc80      WndMustAlloc_
0004:ccae*     WndMustRealloc_
Module: /mnt/sda5/.user/root/src/openwatcom-1.9/bld/gui/win/wini86/gui.lib(/mnt/sda5/.user/root/src/openwatcom-1.9/bld/gui/c/guihflt.c)
0004:cce0      GUICreateFloatingPopup_
Module: /mnt/sda5/.user/root/src/openwatcom-1.9/bld/gui/win/wini86/gui.lib(/mnt/sda5/.user/root/src/openwatcom-1.9/bld/gui/win/c/guireset.c)
0004:cdda      GUIResetMenus_
Module: /mnt/sda5/.user/root/src/openwatcom-1.9/bld/gui/win/wini86/gui.lib(/mnt/sda5/.user/root/src/openwatcom-1.9/bld/gui/win/c/guixscal.c)
0004:cef0      GUIScaleToScreenRect_
0004:cf0c*     GUIScreenToScaleRect_
0004:cf28      GUIClientToScaleRect_
0004:cf44      GUIToText_
0004:cf90      GUIToTextX_
0004:cfba      GUIToTextY_
0004:cfe4*     GUIFromText_
0004:d020      GUIFromTextX_
0004:d042      GUIFromTextY_
0004:d064      GUIGetTheDC_
0004:d0b2      GUIReleaseTheDC_
0004:d0f6      GUIGetMetrics_
0004:d13e      GUIGetUpdateRows_
0006:48da      _GUItm
Module: /mnt/sda5/.user/root/src/openwatcom-1.9/rel2/lib286/win/math87l.lib(ldclass.c)
0003:18d2      __LDClass_
0003:192a*     _FLClass_
Module: /mnt/sda5/.user/root/src/openwatcom-1.9/bld/gui/win/wini86/gui.lib(/mnt/sda5/.user/root/src/openwatcom-1.9/bld/gui/c/guisetup.c)
0004:d250      GUISetupWnd_
Module: /mnt/sda5/.user/root/src/openwatcom-1.9/bld/gui/win/wini86/gui.lib(/mnt/sda5/.user/root/src/openwatcom-1.9/bld/gui/win/c/guifloat.c)
0006:2cdc+     _CurrItem
0004:d2e0+     GUITrackFloatingPopup_
0004:d44e      GUIXCreateFloatingPopup_
0004:d4cc      GUIPopupMenuSelect_
Module: /mnt/sda5/.user/root/src/openwatcom-1.9/bld/gui/win/wini86/gui.lib(/mnt/sda5/.user/root/src/openwatcom-1.9/bld/gui/win/c/guigetx.c)
0004:d510      GUIGetTextExtentX_
0004:d53e*     GUIGetTextExtentY_
0004:d56c      GUIGetTextExtent_
Module: /mnt/sda5/.user/root/src/openwatcom-1.9/bld/gui/win/wini86/gui.lib(/mnt/sda5/.user/root/src/openwatcom-1.9/bld/gui/win/c/guiximdi.c)
0004:d61e      XFakeInitMDI_
Module: /mnt/sda5/.user/root/src/openwatcom-1.9/bld/gui/win/wini86/gui.lib(/mnt/sda5/.user/root/src/openwatcom-1.9/bld/gui/c/guimdi.c)
0006:2d04+     _GUIMDIMenuID
0006:2d08+     _Root
0004:d650*     GUIGetRoot_
0004:d92a      MDIDeleteMenu_
0004:d938      MDIResetMenus_
0004:d9d4*     GUIEnableMDIMenus_
0004:da64      InitMDI_
0004:dbf0      ChangeTitle_
0004:dc30      BroughtToFront_
0004:dcc0+     FindNextMDIMenuWindowNotInArray_
0004:dd58      MDIDelete_
0004:e038+     GUIGetNumChildWindows_
0004:e060*     GUIGetNumIconicWindows_
0004:e0e0      GUIMDIMoreWindows_
0004:e154      GUIMDIGetWindow_
Module: /mnt/sda5/.user/root/src/openwatcom-1.9/rel2/lib286/win/clibl.lib(strnicmp.c)
0003:193e      strnicmp_
Module: /mnt/sda5/.user/root/src/openwatcom-1.9/bld/gui/win/wini86/gui.lib(/mnt/sda5/.user/root/src/openwatcom-1.9/bld/sdk/misc/wstatus.c)
0004:e450+     STATUSWNDCALLBACK
0004:e5b4      StatusWndInit_
0004:e6b0      StatusWndCreate_
0004:e73a+     StatusWndDraw3DBox_
0004:e78e+     outputText_
0004:e9c0      StatusWndDrawLine_
0004:ead6*     StatusWndSetSeparators_
0004:eb2e      StatusWndFini_
Module: /mnt/sda5/.user/root/src/openwatcom-1.9/bld/gui/win/wini86/gui.lib(/mnt/sda5/.user/root/src/openwatcom-1.9/bld/gui/win/c/guixbar.c)
0004:ebc0+     DrawSimpleBar_
0004:ed20+     DrawShadowBar_
0004:eefa      GUIDrawBar_
0004:f028      GUIDrawBarGroup_
Module: /mnt/sda5/.user/root/src/openwatcom-1.9/bld/gui/win/wini86/gui.lib(/mnt/sda5/.user/root/src/openwatcom-1.9/bld/gui/win/c/guixhot.c)
0004:f0e0      GUIXInitHotSpots_
0004:f156      GUIXCleanupHotSpots_
0004:f18a      GUIDrawHotSpot_
0004:f216      GUIDrawBitmap_
0006:4d20      _GUIHotSpots
Module: /mnt/sda5/.user/root/src/openwatcom-1.9/bld/aui/wini86/aui.lib(/mnt/sda5/.user/root/src/openwatcom-1.9/bld/aui/c/wndtbatr.c)
0004:f2f0      WndMapTabAttr_
Module: /mnt/sda5/.user/root/src/openwatcom-1.9/rel2/lib286/win/clibl.lib(setjmp)
0003:1992      _setjmp_
0003:19c8      longjmp_
Module: /mnt/sda5/.user/root/src/openwatcom-1.9/bld/gui/win/wini86/gui.lib(/mnt/sda5/.user/root/src/openwatcom-1.9/bld/gui/win/c/guienum.c)
0004:f300+     ENUMFUNC
0004:f396      GUIEnumChildWindows_
Module: /mnt/sda5/.user/root/src/openwatcom-1.9/bld/gui/win/wini86/gui.lib(/mnt/sda5/.user/root/src/openwatcom-1.9/bld/gui/c/guiwnclr.c)
0004:f410      GUISetColours_
0004:f444      GUIFreeColours_
0004:f476*     GUIGetNumWindowColours_
0004:f482*     GUIGetWindowColours_
Module: /mnt/sda5/.user/root/src/openwatcom-1.9/rel2/lib286/win/clibl.lib(dosdrive)
0003:1a0c      _dos_getdrive_
0003:1a20      _dos_setdrive_
Module: /mnt/sda5/.user/root/src/openwatcom-1.9/bld/gui/win/wini86/gui.lib(/mnt/sda5/.user/root/src/openwatcom-1.9/bld/gui/win/c/guicombo.c)
0004:f4d0+     GUIENUMFUNC
0004:f570      GUISubClassEditCombobox_
Module: /mnt/sda5/.user/root/src/openwatcom-1.9/rel2/lib286/win/clibl.lib(toupper.c)
0003:1a36      toupper_
Module: /mnt/sda5/.user/root/src/openwatcom-1.9/bld/gui/win/wini86/gui.lib(/mnt/sda5/.user/root/src/openwatcom-1.9/bld/gui/c/guiextnm.c)
0004:f5d0      GUIGetExtName_
0004:f5e2*     GUISetExtName_
Module: /mnt/sda5/.user/root/src/openwatcom-1.9/rel2/lib286/win/clibl.lib(argcv.c)
0006:4d24      __argv
0006:4d28      ___argv
0006:4d2c      __argc
0006:4d2e      ___argc
Module: /mnt/sda5/.user/root/src/openwatcom-1.9/rel2/lib286/win/clibl.lib(wstart)
0000:0006*     pLocalHeap
0000:0008*     pAtomTable
0000:000a*     pStackTop
0000:000c*     pStackMin
0000:000e*     pStackBot
0006:0000*     __nullarea
0006:2dd6      __curbrk
0006:2dd8      __psp
0006:2dda      __osmajor
0006:2ddb*     __osminor
0006:2ddc      __osmode
0006:000a      __STACKLOW
0006:000c*     __STACKTOP
0006:2dde*     __cbyte
0006:2de0*     __child
0006:2de2      __no87
0006:2ddd*     __HShift
0006:2de4*     __get_ovl_stack
0006:2de8*     __restore_ovl_stack
0006:2dec*     ___FPE_handler
0006:2df0      __LpCmdLine
0006:2df4      __LpPgmName
0003:1a44      _wstart_
0003:1a44*     _cstart_
0003:1b25      __exit_
0003:1b36      __GETDS
Module: /mnt/sda5/.user/root/src/openwatcom-1.9/bld/gui/win/wini86/gui.lib(/mnt/sda5/.user/root/src/openwatcom-1.9/bld/sdk/misc/wptoolbr.c)
0005:0282      ToolBarRedrawButtons_
0005:02ae      ToolBarInit_
0005:0440+     ToolBarDestroy_
0005:04c2      ToolBarFini_
0005:0518      ToolBarAddItem_
0005:05c4*     ToolBarSetState_
0005:05fa*     ToolBarGetState_
0005:061a*     ToolBarDeleteItem_
0005:0682      ToolBarDisplay_
0005:0824      ToolBarWindow_
0005:083a*     UpdateToolBar_
0005:1044*     isPointInToolbar_
0005:10ee      HasToolAtPoint_
0005:1112+     TOOLBARWNDPROC
0005:178e*     ChangeToolButtonBitmap_
0005:17dc+     WPTB_TransparentBlt_
Module: /mnt/sda5/.user/root/src/openwatcom-1.9/bld/gui/win/wini86/gui.lib(/mnt/sda5/.user/root/src/openwatcom-1.9/bld/sdk/misc/fontstr.c)
0005:1980      GetLogFontFromString_
0005:1a88      GetFontFormatString_
Module: /mnt/sda5/.user/root/src/openwatcom-1.9/rel2/lib286/win/clibl.lib(mem.c)
0003:1b40      __MemAllocator
0003:1c0e      __MemFree
Module: /mnt/sda5/.user/root/src/openwatcom-1.9/rel2/lib286/win/clibl.lib(growseg.c)
0003:1d6d      __GrowSeg_
Module: /mnt/sda5/.user/root/src/openwatcom-1.9/rel2/lib286/win/clibl.lib(allocseg.c)
0003:1ea7      __AllocSeg_
Module: /mnt/sda5/.user/root/src/openwatcom-1.9/rel2/lib286/win/clibl.lib(fmemneed.c)
0003:1f81      __fmemneed_
Module: /mnt/sda5/.user/root/src/openwatcom-1.9/rel2/lib286/win/clibl.lib(nmalloc.c)
0003:1f84      _nmalloc_
0006:2ea8      ___nheapbeg
0006:2eaa      ___MiniHeapRover
0006:2eac      ___LargestSizeB4MiniHeapRover
Module: /mnt/sda5/.user/root/src/openwatcom-1.9/rel2/lib286/win/clibl.lib(nfree.c)
0003:2048      _nfree_
0006:4d4a      ___MiniHeapFreeRover
Module: /mnt/sda5/.user/root/src/openwatcom-1.9/rel2/lib286/win/clibl.lib(fmsize.c)
0003:2113*     _msize_
0003:2113      _fmsize_
Module: /mnt/sda5/.user/root/src/openwatcom-1.9/rel2/lib286/win/clibl.lib(nexpand.c)
0003:2125      __HeapManager_expand_
0003:22c2      _nexpand_
Module: /mnt/sda5/.user/root/src/openwatcom-1.9/rel2/lib286/win/clibl.lib(fexpand.c)
0003:22ee*     _expand_
0003:22f9      _fexpand_
Module: /mnt/sda5/.user/root/src/openwatcom-1.9/rel2/lib286/win/clibl.lib(mbisdbcs.c)
0006:4d4c      ___IsDBCS
Module: /mnt/sda5/.user/root/src/openwatcom-1.9/rel2/lib286/win/clibl.lib(splitpat.c)
0003:238f      _splitpath_
Module: /mnt/sda5/.user/root/src/openwatcom-1.9/bld/gui/win/wini86/gui.lib(/mnt/sda5/.user/root/src/openwatcom-1.9/bld/gui/win/c/guixdraw.c)
0005:1b34+     GUIDrawTextBitmapRGB_
0005:1ebe      GUIDrawTextBitmapAttr_
0005:1f2a      GUIXDrawText_
0005:1f68      GUIXDrawTextRGB_
Module: /mnt/sda5/.user/root/src/openwatcom-1.9/bld/gui/win/wini86/gui.lib(/mnt/sda5/.user/root/src/openwatcom-1.9/bld/gui/c/guipick.c)
0005:1ff0+     GUIPickEvent_
0005:20b0+     GUIDlgPickWithRtn_
0005:2136      GUIDlgPick_
Module: /mnt/sda5/.user/root/src/openwatcom-1.9/bld/gui/win/wini86/gui.lib(/mnt/sda5/.user/root/src/openwatcom-1.9/bld/gui/win/c/mem.c)
0005:2150      MemFree_
0005:215c      MemAlloc_
0005:2186*     MemReAlloc_
Module: /mnt/sda5/.user/root/src/openwatcom-1.9/rel2/lib286/win/clibl.lib(ljmphdl.c)
0006:2efc      ___longjmp_handler
Module: /mnt/sda5/.user/root/src/openwatcom-1.9/rel2/lib286/win/clibl.lib(strncmp.c)
0003:249e      strncmp_
Module: /mnt/sda5/.user/root/src/openwatcom-1.9/rel2/lib286/win/clibl.lib(initargv.c)
0003:24e0      __Init_Argv_
0003:2536+     _getargv_
0003:275d      __Fini_Argv_
Module: /mnt/sda5/.user/root/src/openwatcom-1.9/rel2/lib286/win/clibl.lib(initrtns.c)
0003:27b9      __FInitRtns
0003:27c4+     __InitRtns
0003:2822      __FFiniRtns
0003:282d      __FiniRtns
Module: /mnt/sda5/.user/root/src/openwatcom-1.9/rel2/lib286/win/clibl.lib(dosseg)
0003:2892      __DOSseg__
Module: /mnt/sda5/.user/root/src/openwatcom-1.9/rel2/lib286/win/clibl.lib(sscanf.c)
0003:28d5+     vsscanf_
0003:290d      sscanf_
Module: /mnt/sda5/.user/root/src/openwatcom-1.9/rel2/lib286/win/clibl.lib(heapen.c)
0003:293e*     _heapenable_
0006:2f00      ___heap_enabled
Module: /mnt/sda5/.user/root/src/openwatcom-1.9/rel2/lib286/win/clibl.lib(amblksiz.c)
0006:2f02      __amblksiz
Module: /mnt/sda5/.user/root/src/openwatcom-1.9/rel2/lib286/win/clibl.lib(wallflgs.c)
0006:2f04      ___win_alloc_flags
0006:2f08      ___win_realloc_flags
Module: /mnt/sda5/.user/root/src/openwatcom-1.9/rel2/lib286/win/clibl.lib(nmemneed.c)
0003:294a      __nmemneed_
Module: /mnt/sda5/.user/root/src/openwatcom-1.9/rel2/lib286/win/clibl.lib(grownear.c)
0003:2a6a      __ExpandDGROUP_
Module: /mnt/sda5/.user/root/src/openwatcom-1.9/rel2/lib286/win/clibl.lib(bfree.c)
0003:2a7f      _bfree_
Module: /mnt/sda5/.user/root/src/openwatcom-1.9/rel2/lib286/win/clibl.lib(bexpand.c)
0003:2aa9      _bexpand_
Module: /mnt/sda5/.user/root/src/openwatcom-1.9/rel2/lib286/win/clibl.lib(mbsnccnt.c)
0003:2b05      _mbsnccnt_
Module: /mnt/sda5/.user/root/src/openwatcom-1.9/rel2/lib286/win/clibl.lib(mbsncpy.c)
0003:2b3f      _mbsncpy_
Module: /mnt/sda5/.user/root/src/openwatcom-1.9/rel2/lib286/win/clibl.lib(mbsnbcnt.c)
0003:2b78      _mbsnbcnt_
Module: /mnt/sda5/.user/root/src/openwatcom-1.9/rel2/lib286/win/clibl.lib(mbsnextc.c)
0003:2bea      _mbsnextc_
Module: /mnt/sda5/.user/root/src/openwatcom-1.9/rel2/lib286/win/clibl.lib(mbsinc.c)
0003:2c16      _mbsinc_
Module: /mnt/sda5/.user/root/src/openwatcom-1.9/rel2/lib286/win/clibl.lib(histsplt.c)
0006:4d52      ___historical_splitparms
Module: /mnt/sda5/.user/root/src/openwatcom-1.9/rel2/lib286/win/clibl.lib(___argc.c)
0006:4d54      ____Argv
0006:4d58      ____Argc
Module: /mnt/sda5/.user/root/src/openwatcom-1.9/rel2/lib286/win/clibl.lib(sgdef086)
0006:32b6      __Start_XI
0006:32e6      __End_XI
0006:32e6      __Start_YI
0006:3304      __End_YI
Module: /mnt/sda5/.user/root/src/openwatcom-1.9/rel2/lib286/win/clibl.lib(scnf.c)
0003:3b97      __scnf_
Module: /mnt/sda5/.user/root/src/openwatcom-1.9/rel2/lib286/win/clibl.lib(nheapmin.c)
0003:3e34*     _nheapmin_
0003:3ebc      _nheapshrink_
Module: /mnt/sda5/.user/root/src/openwatcom-1.9/rel2/lib286/win/clibl.lib(mbterm.c)
0003:3eed      _mbterm_
Module: /mnt/sda5/.user/root/src/openwatcom-1.9/rel2/lib286/win/clibl.lib(mbclen.c)
0003:3f29      _mbclen_
Module: /mnt/sda5/.user/root/src/openwatcom-1.9/rel2/lib286/win/clibl.lib(mbsnbcpy.c)
0003:3f50      _mbsnbcpy_
Module: /mnt/sda5/.user/root/src/openwatcom-1.9/rel2/lib286/win/clibl.lib(mbislead.c)
0003:3fce*     _ismbblead_
0006:4d5a      ___MBCSIsTable
Module: /mnt/sda5/.user/root/src/openwatcom-1.9/rel2/lib286/win/clibl.lib(mbtowc.c)
0003:3fec      mbtowc_
Module: /mnt/sda5/.user/root/src/openwatcom-1.9/rel2/lib286/win/clibl.lib(bits.c)
0006:1c26      __Bits
Module: /mnt/sda5/.user/root/src/openwatcom-1.9/rel2/lib286/win/clibl.lib(fdfs086)
0003:40d6      __FDFS
Module: /mnt/sda5/.user/root/src/openwatcom-1.9/rel2/lib286/win/clibl.lib(noefgfmt.c)
0006:2f0c      ___EFG_printf
0006:2f10      ___EFG_scanf
Module: /mnt/sda5/.user/root/src/openwatcom-1.9/rel2/lib286/win/clibl.lib(i8m086)
0003:4151*     __I8M
0003:4151      __U8M
0003:4136*     __I8ME
0003:4136*     __U8ME
Module: /mnt/sda5/.user/root/src/openwatcom-1.9/rel2/lib286/win/clibl.lib(mbinit.c)
0003:42cf      __mbinit_
0006:2f14      ___MBCodePage
Module: /mnt/sda5/.user/root/src/openwatcom-1.9/rel2/lib286/win/clibl.lib(xmsgwin.c)
0003:436d+     __exit_with_msg_
0003:43ce      __fatal_runtime_error_
Module: /mnt/sda5/.user/root/src/openwatcom-1.9/rel2/lib286/win/clibl.lib(exit.c)
0003:43eb+     __null_int23_exit_
0003:43ec      exit_
0003:4425      _exit_
0006:2f16+     ___int23_exit
0006:2f1a+     ___FPE_handler_exit
Module: /mnt/sda5/.user/root/src/openwatcom-1.9/rel2/lib286/win/clibl.lib(enterdb.c)
0003:4438      __EnterWVIDEO_
0006:2f1e+     ___WD_Present
Module: /mnt/sda5/.user/root/src/openwatcom-1.9/rel2/lib286/win/clibl.lib(winrtns.c)
0006:2f20      __WindowsIsWindowedHandle
0006:2f24      __WindowsRemoveWindowedHandle
0006:2f28      __WindowsNewWindow
0006:2f2c      __WindowsCloseWindow
0006:2f30*     __WindowsSetAbout
0006:2f34*     __WindowsSetAppTitle
0006:2f38*     __WindowsSetConTitle
0006:2f3c*     __WindowsDestroyOnClose
0006:2f40*     __WindowsYieldControl
0006:2f44*     __WindowsShutDown
0006:2f48      __WindowsStdin
0006:2f4c      __WindowsStdout
0006:2f50*     __WindowsKbhit
0006:2f54*     __WindowsGetch
0006:2f58*     __WindowsGetche
0006:2f5c*     __WindowsPutch
0006:2f60      __WindowsExitRtn
Module: /mnt/sda5/.user/root/src/openwatcom-1.9/rel2/lib286/win/clibl.lib(lseek.c)
0003:445c      lseek_
Module: /mnt/sda5/.user/root/src/openwatcom-1.9/rel2/lib286/win/clibl.lib(open.c)
0003:46c0      open_
0003:46fb      sopen_
Module: /mnt/sda5/.user/root/src/openwatcom-1.9/rel2/lib286/win/clibl.lib(close.c)
0003:4729      close_
Module: /mnt/sda5/.user/root/src/openwatcom-1.9/rel2/lib286/win/clibl.lib(read.c)
0003:4735      read_
Module: /mnt/sda5/.user/root/src/openwatcom-1.9/rel2/lib286/win/clibl.lib(cmodel)
0003:48b6      _big_code_
0003:48b6*     CodeModelMismatch
Module: /mnt/sda5/.user/root/src/openwatcom-1.9/rel2/lib286/win/clibl.lib(i4d)
0003:48b6      __I4D
0003:4905      __U4D
Module: /mnt/sda5/.user/root/src/openwatcom-1.9/rel2/lib286/win/clibl.lib(write.c)
0003:4b0a      write_
Module: /mnt/sda5/.user/root/src/openwatcom-1.9/rel2/lib286/win/clibl.lib(remove.c)
0003:4d00      remove_
Module: /mnt/sda5/.user/root/src/openwatcom-1.9/rel2/lib286/win/clibl.lib(fopen.c)
0003:4d0c+     __open_flags_
0003:4f1c+     _fsopen_
0003:4f87      fopen_
0003:5064*     freopen_
Module: /mnt/sda5/.user/root/src/openwatcom-1.9/rel2/lib286/win/clibl.lib(fclose.c)
0003:5102      __doclose_
0003:51be      __shutdown_stream_
0003:51db      fclose_
0006:4e5c+     ___RmTmpFileFn
Module: /mnt/sda5/.user/root/src/openwatcom-1.9/rel2/lib286/win/clibl.lib(sprintf.c)
0003:522b      sprintf_
Module: /mnt/sda5/.user/root/src/openwatcom-1.9/rel2/lib286/win/clibl.lib(fltused.c)
0006:2f64      _fltused_
Module: /mnt/sda5/.user/root/src/openwatcom-1.9/rel2/lib286/win/clibl.lib(_8087)
0006:2f66      __8087
0006:2f67      __real87
Module: /mnt/sda5/.user/root/src/openwatcom-1.9/rel2/lib286/win/clibl.lib(stat.c)
0003:52de      stat_
Module: /mnt/sda5/.user/root/src/openwatcom-1.9/rel2/lib286/win/clibl.lib(split2.c)
0003:5657      _splitpath2_
Module: /mnt/sda5/.user/root/src/openwatcom-1.9/rel2/lib286/win/clibl.lib(ldiv086)
0003:5818      ldiv_
Module: /mnt/sda5/.user/root/src/openwatcom-1.9/rel2/lib286/win/clibl.lib(itoa.c)
0003:582d      utoa_
0003:5890      itoa_
Module: /mnt/sda5/.user/root/src/openwatcom-1.9/rel2/lib286/win/clibl.lib(fprintf.c)
0003:58b8      fprintf_
Module: /mnt/sda5/.user/root/src/openwatcom-1.9/rel2/lib286/win/clibl.lib(stack086.c)
0003:58ea      stackavail_
Module: /mnt/sda5/.user/root/src/openwatcom-1.9/rel2/lib286/win/clibl.lib(fstat.c)
0003:58f7      fstat_
Module: /mnt/sda5/.user/root/src/openwatcom-1.9/rel2/lib286/win/clibl.lib(qsort.c)
0003:5aea      qsort_
Module: /mnt/sda5/.user/root/src/openwatcom-1.9/rel2/lib286/win/clibl.lib(i4m)
0003:6074      __I4M
0003:6074      __U4M
Module: /mnt/sda5/.user/root/src/openwatcom-1.9/rel2/lib286/win/clibl.lib(tell.c)
0003:608c      tell_
Module: /mnt/sda5/.user/root/src/openwatcom-1.9/rel2/lib286/win/clibl.lib(accss.c)
0003:60a3      access_
Module: /mnt/sda5/.user/root/src/openwatcom-1.9/rel2/lib286/win/clibl.lib(searchen.c)
0003:60e0      _searchenv_
Module: /mnt/sda5/.user/root/src/openwatcom-1.9/rel2/lib286/win/clibl.lib(makepath.c)
0003:6289      _makepath_
Module: /mnt/sda5/.user/root/src/openwatcom-1.9/rel2/lib286/win/clibl.lib(getenv.c)
0003:64f4      getenv_
Module: /mnt/sda5/.user/root/src/openwatcom-1.9/rel2/lib286/win/clibl.lib(snprintf.c)
0003:660f+     vsnprintf_
0003:6697      snprintf_
Module: /mnt/sda5/.user/root/src/openwatcom-1.9/rel2/lib286/win/clibl.lib(stricmp.c)
0003:66c9      stricmp_
Module: /mnt/sda5/.user/root/src/openwatcom-1.9/rel2/lib286/win/clibl.lib(gtcmddos.c)
0003:6707+     _bgetcmd_
0003:6793      getcmd_
Module: /mnt/sda5/.user/root/src/openwatcom-1.9/rel2/lib286/win/clibl.lib(istable.c)
0006:1c2e      __IsTable
Module: /mnt/sda5/.user/root/src/openwatcom-1.9/rel2/lib286/win/clibl.lib(tolower.c)
0003:67af      tolower_
Module: /mnt/sda5/.user/root/src/openwatcom-1.9/rel2/lib286/win/clibl.lib(memmove.c)
0003:67bd      memmove_
Module: /mnt/sda5/.user/root/src/openwatcom-1.9/rel2/lib286/win/clibl.lib(strncpy.c)
0003:6836      strncpy_
Module: /mnt/sda5/.user/root/src/openwatcom-1.9/rel2/lib286/win/clibl.lib(strrchr.c)
0003:6874      strrchr_
Module: /mnt/sda5/.user/root/src/openwatcom-1.9/rel2/lib286/win/clibl.lib(atoi.c)
0003:689f      atoi_
Module: /mnt/sda5/.user/root/src/openwatcom-1.9/rel2/lib286/win/clibl.lib(seterrno.c)
0003:68fb      __set_errno_
0003:6916*     __set_EDOM_
0003:692d      __set_ERANGE_
0003:6943*     __set_EINVAL_
0003:695c      __set_doserrno_
Module: /mnt/sda5/.user/root/src/openwatcom-1.9/rel2/lib286/win/clibl.lib(hugeval.c)
0006:1d30      __HugeValue
Module: /mnt/sda5/.user/root/src/openwatcom-1.9/rel2/lib286/win/clibl.lib(init8087)
0003:696c      __init_8087_emu
0003:6972      __x87id
Module: /mnt/sda5/.user/root/src/openwatcom-1.9/rel2/lib286/win/clibl.lib(sigfpe.c)
0003:69b1      __raise_fpe_
0003:69b9+     __sigfpe_handler_
Module: /mnt/sda5/.user/root/src/openwatcom-1.9/rel2/lib286/win/clibl.lib(iomode.c)
0003:6a45      __GetIOMode_
0003:6a61      __SetIOMode_nogrow_
0006:2f68      ___NFiles
0006:2f6a      ___init_mode
0006:2f92      ___io_mode
Module: /mnt/sda5/.user/root/src/openwatcom-1.9/rel2/lib286/win/clibl.lib(stiomode.c)
0003:6a7b+     __grow_iomode_
0003:6b36+     __shrink_iomode_
0003:6b69      __SetIOMode_
Module: /mnt/sda5/.user/root/src/openwatcom-1.9/rel2/lib286/win/clibl.lib(__lseek.c)
0003:6bc2      __lseek_
Module: /mnt/sda5/.user/root/src/openwatcom-1.9/rel2/lib286/win/clibl.lib(opendos.c)
0003:6bff      _dos_open_
Module: /mnt/sda5/.user/root/src/openwatcom-1.9/rel2/lib286/win/clibl.lib(isatt.c)
0003:6c27      isatty_
Module: /mnt/sda5/.user/root/src/openwatcom-1.9/rel2/lib286/win/clibl.lib(dosret.c)
0003:6c68*     _dosretax_
0003:6c7a*     _dosret0_
0003:6c8e      __set_errno_dos_
0003:6ce8*     __set_errno_dos_reterr_
Module: /mnt/sda5/.user/root/src/openwatcom-1.9/rel2/lib286/win/clibl.lib(errno.c)
0003:6cf9      __get_errno_ptr_
0003:6cff      __get_doserrno_ptr_
0006:4e62+     _errno
0006:4e64+     __doserrno
Module: /mnt/sda5/.user/root/src/openwatcom-1.9/rel2/lib286/win/clibl.lib(umaskval.c)
0006:2faa      ___umaskval
Module: /mnt/sda5/.user/root/src/openwatcom-1.9/rel2/lib286/win/clibl.lib(creatdos.c)
0003:6d05      _dos_creat_
0003:6d2b*     _dos_creatnew_
Module: /mnt/sda5/.user/root/src/openwatcom-1.9/rel2/lib286/win/clibl.lib(iob.c)
0006:2fac      ___iob
0006:3114      __fmode
0006:4e66      ___OpenStreams
0006:4e6a      ___ClosedStreams
Module: /mnt/sda5/.user/root/src/openwatcom-1.9/rel2/lib286/win/clibl.lib(_clse.c)
0003:6d4e      __close_
Module: /mnt/sda5/.user/root/src/openwatcom-1.9/rel2/lib286/win/clibl.lib(iomodtty.c)
0003:6db4      __ChkTTYIOMode_
0003:6df4*     __IOMode_
Module: /mnt/sda5/.user/root/src/openwatcom-1.9/rel2/lib286/win/clibl.lib(stk)
0003:6e0f      __STK
0003:6e26      __STKOVERFLOW_
Module: /mnt/sda5/.user/root/src/openwatcom-1.9/rel2/lib286/win/clibl.lib(unlnk.c)
0003:6e43      unlink_
Module: /mnt/sda5/.user/root/src/openwatcom-1.9/rel2/lib286/win/clibl.lib(comtflag.c)
0003:6e5f*     __set_commode_
0006:3118      __commode
Module: /mnt/sda5/.user/root/src/openwatcom-1.9/rel2/lib286/win/clibl.lib(fseek.c)
0003:6ee0      fseek_
Module: /mnt/sda5/.user/root/src/openwatcom-1.9/rel2/lib286/win/clibl.lib(chktty.c)
0003:7041      __chktty_
Module: /mnt/sda5/.user/root/src/openwatcom-1.9/rel2/lib286/win/clibl.lib(freefp.c)
0003:7077      __freefp_
0003:70f3      __purgefp_
Module: /mnt/sda5/.user/root/src/openwatcom-1.9/rel2/lib286/win/clibl.lib(allocfp.c)
0003:712c      __allocfp_
Module: /mnt/sda5/.user/root/src/openwatcom-1.9/rel2/lib286/win/clibl.lib(flush.c)
0003:7244      __flush_
Module: /mnt/sda5/.user/root/src/openwatcom-1.9/rel2/lib286/win/clibl.lib(vsprintf.c)
0003:73be      vsprintf_
Module: /mnt/sda5/.user/root/src/openwatcom-1.9/rel2/lib286/win/clibl.lib(setefg.c)
0003:73ec      __setEFGfmt_
Module: /mnt/sda5/.user/root/src/openwatcom-1.9/rel2/lib286/win/clibl.lib(chk8087.c)
0003:742d*     _fpreset_
0003:7447      __init_8087_
0003:7482      __chk8087_
Module: /mnt/sda5/.user/root/src/openwatcom-1.9/rel2/lib286/win/clibl.lib(mbschr.c)
0003:74be      _mbschr_
Module: /mnt/sda5/.user/root/src/openwatcom-1.9/rel2/lib286/win/clibl.lib(mbscmp.c)
0003:7547      _mbscmp_
Module: /mnt/sda5/.user/root/src/openwatcom-1.9/rel2/lib286/win/clibl.lib(mbspbrk.c)
0003:75e5      _mbspbrk_
Module: /mnt/sda5/.user/root/src/openwatcom-1.9/rel2/lib286/win/clibl.lib(fullpath.c)
0003:7640+     _sys_fullpath_
0003:78f6      _fullpath_
Module: /mnt/sda5/.user/root/src/openwatcom-1.9/rel2/lib286/win/clibl.lib(gtcwd.c)
0003:79b5      getcwd_
Module: /mnt/sda5/.user/root/src/openwatcom-1.9/rel2/lib286/win/clibl.lib(chdir.c)
0003:7a69      chdir_
Module: /mnt/sda5/.user/root/src/openwatcom-1.9/rel2/lib286/win/clibl.lib(finddos.c)
0003:7a85      _dos_findfirst_
0003:7aba*     _dos_findnext_
0003:7ad3      _dos_findclose_
Module: /mnt/sda5/.user/root/src/openwatcom-1.9/rel2/lib286/win/clibl.lib(d2ttime.c)
0003:7ad6      _d2ttime_
Module: /mnt/sda5/.user/root/src/openwatcom-1.9/rel2/lib286/win/clibl.lib(alphabet.c)
0006:13c2      ___Alphabet
Module: /mnt/sda5/.user/root/src/openwatcom-1.9/rel2/lib286/win/clibl.lib(fprtf.c)
0003:7b69      __fprtf_
Module: /mnt/sda5/.user/root/src/openwatcom-1.9/rel2/lib286/win/clibl.lib(doserror)
0003:7c4e      __doserror_
Module: /mnt/sda5/.user/root/src/openwatcom-1.9/rel2/lib286/win/clibl.lib(filelen.c)
0003:7c5c      filelength_
Module: /mnt/sda5/.user/root/src/openwatcom-1.9/rel2/lib286/win/clibl.lib(gfattdos.c)
0003:7cbd      _dos_getfileattr_
Module: /mnt/sda5/.user/root/src/openwatcom-1.9/rel2/lib286/win/clibl.lib(strlen.c)
0003:7cda      strlen_
Module: /mnt/sda5/.user/root/src/openwatcom-1.9/rel2/lib286/win/clibl.lib(strncat.c)
0003:7cf5      strncat_
Module: /mnt/sda5/.user/root/src/openwatcom-1.9/rel2/lib286/win/clibl.lib(strcat.c)
0003:7d36      strcat_
Module: /mnt/sda5/.user/root/src/openwatcom-1.9/rel2/lib286/win/clibl.lib(mbconv.c)
0003:7d6c      _mbvtop_
Module: /mnt/sda5/.user/root/src/openwatcom-1.9/rel2/lib286/win/clibl.lib(mbsdec.c)
0003:7d84      _mbsdec_
Module: /mnt/sda5/.user/root/src/openwatcom-1.9/rel2/lib286/win/clibl.lib(environ.c)
0006:4e6e      ___env_mask
0006:4e72      _environ
0006:4e76*     __wenviron
Module: /mnt/sda5/.user/root/src/openwatcom-1.9/rel2/lib286/win/clibl.lib(mbcupper.c)
0003:7e0a      _mbctoupper_
Module: /mnt/sda5/.user/root/src/openwatcom-1.9/rel2/lib286/win/clibl.lib(prtf.c)
0003:7e2e      __prtf_
Module: /mnt/sda5/.user/root/src/openwatcom-1.9/rel2/lib286/win/clibl.lib(8087cw.c)
0006:311a      __8087cw
Module: /mnt/sda5/.user/root/src/openwatcom-1.9/rel2/lib286/win/clibl.lib(sigtab.c)
0006:311c      __SignalTable
Module: /mnt/sda5/.user/root/src/openwatcom-1.9/rel2/lib286/win/clibl.lib(initfile.c)
0003:8d0b      __InitFiles_
Module: /mnt/sda5/.user/root/src/openwatcom-1.9/rel2/lib286/win/clibl.lib(ioexit.c)
0003:8e53*     fcloseall_
0003:8e60      __full_io_exit_
Module: /mnt/sda5/.user/root/src/openwatcom-1.9/rel2/lib286/win/clibl.lib(fsync.c)
0003:8e71      fsync_
Module: /mnt/sda5/.user/root/src/openwatcom-1.9/rel2/lib286/win/clibl.lib(qwrit.c)
0003:8e7d      __qwrite_
Module: /mnt/sda5/.user/root/src/openwatcom-1.9/rel2/lib286/win/math87l.lib(efgfmt.c)
0003:8f12      _EFG_Format_
Module: /mnt/sda5/.user/root/src/openwatcom-1.9/rel2/lib286/win/math87l.lib(cnvs2d.c)
0003:90cb      __cnvs2d_
Module: /mnt/sda5/.user/root/src/openwatcom-1.9/rel2/lib286/win/clibl.lib(save8087.c)
0006:3150      ___Save8087
0006:3154      ___Rest8087
Module: /mnt/sda5/.user/root/src/openwatcom-1.9/rel2/lib286/win/clibl.lib(mbccmp.c)
0003:90ec      _mbccmp_
Module: /mnt/sda5/.user/root/src/openwatcom-1.9/rel2/lib286/win/clibl.lib(mktime.c)
0003:9140      mktime_
Module: /mnt/sda5/.user/root/src/openwatcom-1.9/rel2/lib286/win/clibl.lib(fputc.c)
0003:91f3      fputc_
Module: /mnt/sda5/.user/root/src/openwatcom-1.9/rel2/lib286/win/clibl.lib(ioalloc.c)
0003:92e5      __ioalloc_
Module: /mnt/sda5/.user/root/src/openwatcom-1.9/rel2/lib286/win/clibl.lib(setenvp.c)
0003:93a3      __setenvp_
0003:94a3      __freeenvp_
Module: /mnt/sda5/.user/root/src/openwatcom-1.9/rel2/lib286/win/clibl.lib(mbdtoupp.c)
0003:94ed      _mbdtoupper_
Module: /mnt/sda5/.user/root/src/openwatcom-1.9/rel2/lib286/win/clibl.lib(wctomb.c)
0003:94fb      wctomb_
Module: /mnt/sda5/.user/root/src/openwatcom-1.9/rel2/lib286/win/clibl.lib(strupr.c)
0003:9527      strupr_
Module: /mnt/sda5/.user/root/src/openwatcom-1.9/rel2/lib286/win/clibl.lib(lltoa.c)
0003:954b      ulltoa_
0003:9634*     lltoa_
Module: /mnt/sda5/.user/root/src/openwatcom-1.9/rel2/lib286/win/clibl.lib(ltoa.c)
0003:9698      ultoa_
0003:970b*     ltoa_
Module: /mnt/sda5/.user/root/src/openwatcom-1.9/rel2/lib286/win/clibl.lib(filedos.c)
0003:973c*     _dos_close_
0003:9750      _dos_commit_
Module: /mnt/sda5/.user/root/src/openwatcom-1.9/rel2/lib286/win/clibl.lib(rtcntrl.c)
0003:9764*     _SetLD64bit_
0003:976a*     _SetLD80bit_
0003:9770      _LDisDouble_
Module: /mnt/sda5/.user/root/src/openwatcom-1.9/rel2/lib286/win/clibl.lib(locmktim.c)
0003:977e      __local_mktime_
Module: /mnt/sda5/.user/root/src/openwatcom-1.9/rel2/lib286/win/clibl.lib(gmtime.c)
0003:9995      __brktime_
0003:9b03+     _gmtime_
0003:9b2e*     gmtime_
Module: /mnt/sda5/.user/root/src/openwatcom-1.9/rel2/lib286/win/clibl.lib(tzset.c)
0006:315a      ___start_dst
0006:316c      ___end_dst
0006:3280*     _tzname
0006:3288      _timezone
0006:328c      _daylight
0006:328e      ___dst_adjust
0003:9b42*     __DontCacheOSTZ_
0003:9b56*     __CacheOSTZ_
0003:a0e4+     __parse_tz_
0003:a27f      tzset_
Module: /mnt/sda5/.user/root/src/openwatcom-1.9/rel2/lib286/win/clibl.lib(timeutil.c)
0003:a3f4      __isindst_
Module: /mnt/sda5/.user/root/src/openwatcom-1.9/rel2/lib286/win/clibl.lib(clearenv.c)
0003:a707      clearenv_
Module: /mnt/sda5/.user/root/src/openwatcom-1.9/rel2/lib286/win/clibl.lib(leapyear.c)
0003:a7d9      __leapyear_
0006:141a      ___diyr
0006:1434      ___dilyr


                        +----------------------+
                        |   Imported Symbols   |
                        +----------------------+

Symbol                              Module
======                              ======

MESSAGEBEEP                         USER
SETERRORMODE                        KERNEL
LOADMODULE                          KERNEL
GETDLGITEM                          USER
SENDMESSAGE                         USER
SETDLGITEMTEXT                      USER
GETWINDOWTEXTLENGTH                 USER
GETWINDOWTEXT                       USER
SETFOCUS                            USER
GETFOCUS                            USER
GETPARENT                           USER
GETDLGCTRLID                        USER
GETCLIENTRECT                       USER
MAPWINDOWPOINTS                     USER
WINDOWFROMPOINT                     USER
ISICONIC                            USER
ENDDIALOG                           USER
GETSYSTEMMETRICS                    USER
GLOBALFREE                          KERNEL
GETDC                               USER
SELECTOBJECT                        GDI
GETTEXTMETRICS                      GDI
RELEASEDC                           USER
__FPMATH                            WIN87EM
GETWINFLAGS                         KERNEL
DESTROYWINDOW                       USER
LOADICON                            USER
LOADCURSOR                          USER
REGISTERCLASS                       USER
POSTQUITMESSAGE                     USER
SHOWWINDOW                          USER
UPDATEWINDOW                        USER
SETDOUBLECLICKTIME                  USER
CREATEWINDOW                        USER
SETWINDOWLONG                       USER
CREATEWINDOWEX                      USER
CLIENTTOSCREEN                      USER
GETWINDOWRECT                       USER
MOVEWINDOW                          USER
ISWINDOW                            USER
SETACTIVEWINDOW                     USER
GETNEXTWINDOW                       USER
DEFWINDOWPROC                       USER
RELEASECAPTURE                      USER
GETNEARESTCOLOR                     GDI
SETBKCOLOR                          GDI
SETCLASSWORD                        USER
FILLRECT                            USER
SETCAPTURE                          USER
CREATESOLIDBRUSH                    GDI
FRAMERECT                           USER
DELETEOBJECT                        GDI
CREATEPEN                           GDI
MOVETOEX                            GDI
LINETO                              GDI
SETWINDOWTEXT                       USER
GETMENUITEMCOUNT                    USER
GETSUBMENU                          USER
DESTROYMENU                         USER
GETSYSTEMMENU                       USER
GETMENU                             USER
DRAWMENUBAR                         USER
CREATEPOPUPMENU                     USER
CREATEMENU                          USER
DELETEMENU                          USER
CHECKMENUITEM                       USER
ENABLEMENUITEM                      USER
MODIFYMENU                          USER
SHOWOWNEDPOPUPS                     USER
DESTROYICON                         USER
GETCURSORPOS                        USER
SETWINDOWPOS                        USER
ISWINDOWVISIBLE                     USER
ISZOOMED                            USER
GETVERSION                          KERNEL
ISDBCSLEADBYTE                      KERNEL
INVALIDATERECT                      USER
MESSAGEBOX                          USER
LOADLIBRARY                         KERNEL
GETPROCADDRESS                      KERNEL
FREELIBRARY                         KERNEL
SETCURSOR                           USER
PEEKMESSAGE                         USER
INTERSECTRECT                       USER
ISRECTEMPTY                         USER
LOADMENU                            USER
ISCHILD                             USER
GETCAPTURE                          USER
SETSCROLLPOS                        USER
SETSCROLLRANGE                      USER
GETWINDOWLONG                       USER
GETSTOCKOBJECT                      GDI
GETDEVICECAPS                       GDI
MAKEPROCINSTANCE                    KERNEL
GETSAVEFILENAME                     COMMDLG
FREEPROCINSTANCE                    KERNEL
GETOPENFILENAME                     COMMDLG
COMMDLGEXTENDEDERROR                COMMDLG
CALLWINDOWPROC                      USER
GETUPDATERECT                       USER
GETCLASSNAME                        USER
ENUMCHILDWINDOWS                    USER
DIALOGBOXPARAM                      USER
GETKEYSTATE                         USER
POSTMESSAGE                         USER
BEGINPAINT                          USER
ENDPAINT                            USER
GLOBALALLOC                         KERNEL
GLOBALLOCK                          KERNEL
GLOBALUNLOCK                        KERNEL
GLOBALREALLOC                       KERNEL
DIALOGBOXINDIRECTPARAM              USER
LOADSTRING                          USER
GETMESSAGE                          USER
TRANSLATEMESSAGE                    USER
DISPATCHMESSAGE                     USER
GETOBJECT                           GDI
SETTEXTCOLOR                        GDI
INSERTMENU                          USER
APPENDMENU                          USER
GETMENUSTATE                        USER
GETMENUSTRING                       USER
SETMENU                             USER
CREATECOMPATIBLEDC                  GDI
GETCURRENTPOSITIONEX                GDI
GETTEXTEXTENTPOINT                  GDI
GETWINDOWPLACEMENT                  USER
COPYRECT                            USER
SETWINDOWPLACEMENT                  USER
LOADBITMAP                          USER
CREATEFONTINDIRECT                  GDI
BRINGWINDOWTOTOP                    USER
GETSYSCOLOR                         USER
WINHELP                             USER
SCROLLWINDOW                        USER
TRACKPOPUPMENU                      USER
GETBKCOLOR                          GDI
DRAWTEXT                            USER
INFLATERECT                         USER
UNREALIZEOBJECT                     GDI
UNREGISTERCLASS                     USER
DPTOLP                              GDI
BITBLT                              GDI
DELETEDC                            GDI
INITTASK                            KERNEL
GETMODULEFILENAME                   KERNEL
INITAPP                             USER
WAITEVENT                           KERNEL
__AHSHIFT                           KERNEL
GETWINDOWWORD                       USER
CREATEPATTERNBRUSH                  GDI
SETSTRETCHBLTMODE                   GDI
STRETCHBLT                          GDI
CREATECOMPATIBLEBITMAP              GDI
GETPIXEL                            GDI
PTINRECT                            USER
_wsprintf                           USER
GLOBALHANDLE                        KERNEL
RECTANGLE                           GDI
SETROP2                             GDI
TEXTOUT                             GDI
LOCALALLOC                          KERNEL
LOCALFREE                           KERNEL
GETKBCODEPAGE                       KEYBOARD
_LREAD                              KERNEL
_LWRITE                             KERNEL
GETDOSENVIRONMENT                   KERNEL


                        +--------------------+
                        |   Libraries Used   |
                        +--------------------+

/mnt/sda5/.user/root/src/openwatcom-1.9/rel2/lib286/win/windows.lib
/mnt/sda5/.user/root/src/openwatcom-1.9/bld/aui/wini86/aui.lib
/mnt/sda5/.user/root/src/openwatcom-1.9/bld/gui/win/wini86/gui.lib
/mnt/sda5/.user/root/src/openwatcom-1.9/rel2/lib286/win/math87l.lib
/mnt/sda5/.user/root/src/openwatcom-1.9/rel2/lib286/win/emu87.lib
/mnt/sda5/.user/root/src/openwatcom-1.9/rel2/lib286/win/commdlg.lib
/mnt/sda5/.user/root/src/openwatcom-1.9/rel2/lib286/win/clibl.lib


                        +-----------------------+
                        |   Linker Statistics   |
                        +-----------------------+

Stack size:  2000 (8192.)
Memory size:  00040502 (263426.)
Entry point address: 0003:1a44
Link time: 00:00.00
