Open Watcom Linker Version 1.9
Portions Copyright (c) 1985-2002 Sybase, Inc. All Rights Reserved.
Created on:       12/12/16 02:40:13
Executable Image: serserv.exe
creating a DOS executable


                        +------------+
                        |   Groups   |
                        +------------+

Group                           Address              Size
=====                           =======              ====

DGROUP                          04f2:0000            00001f60



                        +--------------+
                        |   Segments   |
                        +--------------+

Segment                Class          Group          Address         Size
=======                =====          =====          =======         ====

BEGTEXT                CODE           AUTO           0000:0000       00000007
_TEXT                  CODE           AUTO           0000:0010       00004f0b
FAR_DATA               FAR_DATA       AUTO           04f1:000b       00000000
_NULL                  BEGDATA        DGROUP         04f2:0000       00000020
_AFTERNULL             BEGDATA        DGROUP         04f4:0000       00000002
CONST                  DATA           DGROUP         04f4:0002       00000363
CONST2                 DATA           DGROUP         052a:0006       00000102
_DATA                  DATA           DGROUP         053a:0008       00000126
XIB                    DATA           DGROUP         054c:000e       00000000
XI                     DATA           DGROUP         054c:000e       00000018
XIE                    DATA           DGROUP         054e:0006       00000000
YIB                    DATA           DGROUP         054e:0006       00000000
YI                     DATA           DGROUP         054e:0006       0000000c
YIE                    DATA           DGROUP         054f:0002       00000000
STRINGS                DATA           DGROUP         054f:0002       00000000
DATA                   DATA           DGROUP         054f:0002       00000000
_BSS                   BSS            DGROUP         0550:0000       0000097b
STACK                  STACK          DGROUP         05e8:0000       00001000


                        +----------------+
                        |   Memory Map   |
                        +----------------+

* = unreferenced symbol
+ = symbol only referenced locally

Address        Symbol
=======        ======

Module: mxutil.obj(/mnt/sda5/.user/root/src/openwatcom-1.9/bld/trap/common/mxutil.c)
0000:0010      GetInPtr_
0000:003a      GetOutPtr_
0000:0064*     GetTotalSize_
04f2:05e0      _In_Mx_Ptr
04f2:05e4      _Out_Mx_Ptr
04f2:05e8      _Out_Mx_Num
04f2:05e9      _In_Mx_Num
Module: serv.obj(/mnt/sda5/.user/root/src/openwatcom-1.9/bld/trap/common/serv.c)
0000:00a0      ServError_
0000:00a0      ServMessage_
0000:00ac+     Initialize_
0000:0122+     OpeningStatement_
0000:0156      main_
Module: dostrio.obj(/mnt/sda5/.user/root/src/openwatcom-1.9/bld/trap/common/dos/dostrio.c)
0000:01f0      Output_
0000:0218      SayGNiteGracey_
0000:021e      StartupErr_
0000:026e      KeyPress_
0000:027e      KeyGet_
0000:0284      PathOpen_
0000:0394      GetSystemHandle_
0000:0398      FileClose_
0000:03a8      WantUsage_
Module: servacc.obj(/mnt/sda5/.user/root/src/openwatcom-1.9/bld/trap/common/servacc.c)
04f2:05ec      _RWBuff
0000:04d6      Session_
0000:05be      TrapClientString_
04f2:09f8      _TrapVersion
Module: servcmd.obj(/mnt/sda5/.user/root/src/openwatcom-1.9/bld/trap/common/servcmd.c)
0000:06be      ParseCommandLine_
Module: servname.obj(/mnt/sda5/.user/root/src/openwatcom-1.9/bld/trap/ser/c/servname.c)
04f2:0488      _ServName
04f2:049c      _ServUsage
Module: trpsupp.obj(/mnt/sda5/.user/root/src/openwatcom-1.9/bld/dig/c/trpsupp.c)
0000:0840*     TrapSetFailCallBack_
0000:0846*     TrapSetAccessCallBack_
0000:084c*     TrapFailAllRequests_
0000:0858*     TrapSimpAccess_
0000:08ac      TrapAccess_
0000:08fe+     ReqFuncProxy_
04f2:0a00      _ReqFunc
04f2:0a04      _TrapVer
Module: trpld.obj(/mnt/sda5/.user/root/src/openwatcom-1.9/bld/dig/c/dos/trpld.c)
0000:0930      KillTrap_
0000:0964      LoadTrap_
Module: dosnoth.obj(/mnt/sda5/.user/root/src/openwatcom-1.9/bld/trap/common/dos/dosnoth.c)
0000:0c20      NothingToDo_
Module: packet.obj(/mnt/sda5/.user/root/src/openwatcom-1.9/bld/trap/common/packet.c)
0000:0c40*     StartPacket_
0000:0c48*     PutPacket_
0000:0c62      PutBuffPacket_
0000:0c78*     AddPacket_
0000:0cc2      GetPacket_
0000:0cd8*     RemovePacket_
0000:0d16      GetPacketBuffPtr_
0000:0d22      MaxPacketSize_
Module: serlink.obj(/mnt/sda5/.user/root/src/openwatcom-1.9/bld/trap/ser/c/serlink.c)
04f2:0e16+     _MaxBaud
0000:0d30*     SyncPoint_
0000:0f32*     MarchToTheSameDrummer_
0000:0f52+     SetSyncTime_
0000:1392+     SetMaxBaud_
0000:1694      RemoteLink_
0000:16fe      RemoteUnLink_
0000:1704      RemoteConnect_
0000:1828      RemoteDisco_
0000:182e      RemoteGet_
0000:1866      RemotePut_
04f2:04f8+     _BaudTable
Module: serint.obj(SERINT)
0000:1a9d      InitInts_
0000:1aff      FiniInts_
0000:1b38      GetBufferByte_
0000:1b5d      ClearBuffer_
0000:1b80*     com_int
0000:1bee*     timer_int
Module: serdos.obj(/mnt/sda5/.user/root/src/openwatcom-1.9/bld/trap/ser/c/serdos.c)
04f2:0e1c      _BreakFlag
04f2:0e1e      _ErrorFlag
04f2:0e20      _Ticks
04f2:0e22      _IOBase
04f2:0e26      _IntVector
0000:1c00      ZeroWaitCount_
0000:1c08      WaitCount_
0000:1c0e      InitSys_
0000:1c92      ResetSys_
0000:1cbc      SendByte_
0000:1cf0      StartBlockTrans_
0000:1cf2      StopBlockTrans_
0000:1d0c      GetByte_
0000:1d10      ClearCom_
0000:1d14*     SendABreak_
0000:1d4a*     TestForBreak_
0000:1d76      Baud_
0000:1e06      ParsePortSpec_
0000:1e80      DonePort_
0000:1ebc      CheckPendingError_
0000:1ed4      ClearLastChar_
04f2:0540+     _Divisor
Module: busywait.obj(/mnt/sda5/.user/root/src/openwatcom-1.9/bld/trap/ser/c/busywait.c)
0000:1ef0      WaitByte_
0000:1f14      Wait_
Module: /mnt/sda5/.user/root/src/openwatcom-1.9/rel2/lib286/dos/clibc.lib(cmodel)
0000:1f26      _small_code_
0000:1f26*     CodeModelMismatch
Module: /mnt/sda5/.user/root/src/openwatcom-1.9/rel2/lib286/dos/clibc.lib(gtcmddos.c)
0000:1f26+     _bgetcmd_
0000:1fa5      getcmd_
Module: /mnt/sda5/.user/root/src/openwatcom-1.9/rel2/lib286/dos/clibc.lib(cstart)
0000:0003*     ___begtext
04f2:0000*     __nullarea
0000:1fba      _cstart_
0000:208f*     _Not_Enough_Memory_
0000:21ba      __exit_
0000:21d9      __do_exit_with_msg__
0000:221c      __GETDS
Module: /mnt/sda5/.user/root/src/openwatcom-1.9/rel2/lib286/dos/clibc.lib(argcv.c)
04f2:0e2a      __argv
04f2:0e2e      ___argv
04f2:0e32      __argc
04f2:0e34      ___argc
Module: /mnt/sda5/.user/root/src/openwatcom-1.9/rel2/lib286/dos/clibc.lib(searchen.c)
0000:2226      _searchenv_
Module: /mnt/sda5/.user/root/src/openwatcom-1.9/rel2/lib286/dos/clibc.lib(isalpha.c)
0000:2390      isalpha_
Module: /mnt/sda5/.user/root/src/openwatcom-1.9/rel2/lib286/dos/clibc.lib(strnicmp.c)
0000:23a6      strnicmp_
Module: /mnt/sda5/.user/root/src/openwatcom-1.9/rel2/lib286/dos/clibc.lib(sprintf.c)
0000:23f5      sprintf_
Module: /mnt/sda5/.user/root/src/openwatcom-1.9/rel2/lib286/dos/clibc.lib(intx086.c)
0000:2422+     int86x_
0000:24b9      int86_
Module: /mnt/sda5/.user/root/src/openwatcom-1.9/rel2/lib286/dos/clibc.lib(d_setvec.c)
0000:24e3      _dos_setvect_
Module: /mnt/sda5/.user/root/src/openwatcom-1.9/rel2/lib286/dos/clibc.lib(d_getvec.c)
0000:24f0      _dos_getvect_
Module: /mnt/sda5/.user/root/src/openwatcom-1.9/rel2/lib286/dos/clibc.lib(crwdata)
04f2:0552      __curbrk
04f2:055a      __STACKLOW
04f2:055c      __STACKTOP
04f2:055e      __cbyte
04f2:0560      __child
04f2:0562      __no87
04f2:0570      ___FPE_handler
04f2:0554      __psp
04f2:0564      __get_ovl_stack
04f2:0568      __restore_ovl_stack
04f2:056c      __close_ovl_file
04f2:0574      __LpCmdLine
04f2:0578      __LpPgmName
04f2:0556      __osmajor
04f2:0557      __osminor
04f2:0558      __osmode
04f2:0559      __HShift
Module: /mnt/sda5/.user/root/src/openwatcom-1.9/rel2/lib286/dos/clibc.lib(xmsg.c)
0000:24fc*     __exit_with_msg_
0000:24ff      __fatal_runtime_error_
Module: /mnt/sda5/.user/root/src/openwatcom-1.9/rel2/lib286/dos/clibc.lib(cmain086.c)
0000:2519      __CMain
Module: /mnt/sda5/.user/root/src/openwatcom-1.9/rel2/lib286/dos/clibc.lib(initrtns.c)
0000:2575*     __FInitRtns
0000:2579      __InitRtns
0000:25d4*     __FFiniRtns
0000:25d8      __FiniRtns
Module: /mnt/sda5/.user/root/src/openwatcom-1.9/rel2/lib286/dos/clibc.lib(uselfn.c)
04f2:057c      ___uselfn
Module: /mnt/sda5/.user/root/src/openwatcom-1.9/rel2/lib286/dos/clibc.lib(dosseg)
0000:263c      __DOSseg__
Module: /mnt/sda5/.user/root/src/openwatcom-1.9/rel2/lib286/dos/clibc.lib(initargv.c)
0000:263d      __Init_Argv_
0000:2699+     _getargv_
0000:2892      __Fini_Argv_
Module: /mnt/sda5/.user/root/src/openwatcom-1.9/rel2/lib286/dos/clibc.lib(errno.c)
0000:28b4      __get_errno_ptr_
0000:28bb      __get_doserrno_ptr_
04f2:0e3a+     _errno
04f2:0e3c+     __doserrno
Module: /mnt/sda5/.user/root/src/openwatcom-1.9/rel2/lib286/dos/clibc.lib(accss.c)
0000:28c2      access_
Module: /mnt/sda5/.user/root/src/openwatcom-1.9/rel2/lib286/dos/clibc.lib(gtcwd.c)
0000:28f8      getcwd_
Module: /mnt/sda5/.user/root/src/openwatcom-1.9/rel2/lib286/dos/clibc.lib(strlen.c)
0000:2999      strlen_
Module: /mnt/sda5/.user/root/src/openwatcom-1.9/rel2/lib286/dos/clibc.lib(strncat.c)
0000:29ae      strncat_
Module: /mnt/sda5/.user/root/src/openwatcom-1.9/rel2/lib286/dos/clibc.lib(getenv.c)
0000:29ed      getenv_
Module: /mnt/sda5/.user/root/src/openwatcom-1.9/rel2/lib286/dos/clibc.lib(strcat.c)
0000:2aa4      strcat_
Module: /mnt/sda5/.user/root/src/openwatcom-1.9/rel2/lib286/dos/clibc.lib(seterrno.c)
0000:2acf      __set_errno_
0000:2ae1*     __set_EDOM_
0000:2af1*     __set_ERANGE_
0000:2b01*     __set_EINVAL_
0000:2b14      __set_doserrno_
Module: /mnt/sda5/.user/root/src/openwatcom-1.9/rel2/lib286/dos/clibc.lib(istable.c)
04f2:0386      __IsTable
Module: /mnt/sda5/.user/root/src/openwatcom-1.9/rel2/lib286/dos/clibc.lib(vsprintf.c)
0000:2b37      vsprintf_
Module: /mnt/sda5/.user/root/src/openwatcom-1.9/rel2/lib286/dos/clibc.lib(intr.c)
0000:2b5c      intr_
Module: /mnt/sda5/.user/root/src/openwatcom-1.9/rel2/lib286/dos/clibc.lib(segread.c)
0000:2b6e      segread_
Module: /mnt/sda5/.user/root/src/openwatcom-1.9/rel2/lib286/dos/clibc.lib(enterdb.c)
0000:2b8e      __EnterWVIDEO_
04f2:057e+     ___WD_Present
Module: /mnt/sda5/.user/root/src/openwatcom-1.9/rel2/lib286/dos/clibc.lib(___argc.c)
04f2:0e3e      ____Argv
04f2:0e42      ____Argc
Module: /mnt/sda5/.user/root/src/openwatcom-1.9/rel2/lib286/dos/clibc.lib(amblksiz.c)
04f2:0580      __amblksiz
Module: /mnt/sda5/.user/root/src/openwatcom-1.9/rel2/lib286/dos/clibc.lib(exit.c)
0000:2bb2+     __null_int23_exit_
0000:2bb3      exit_
0000:2be0*     _exit_
04f2:0582+     ___int23_exit
04f2:0584+     ___FPE_handler_exit
Module: /mnt/sda5/.user/root/src/openwatcom-1.9/rel2/lib286/dos/clibc.lib(sgdef086)
04f2:05ae      __Start_XI
04f2:05c6      __End_XI
04f2:05c6      __Start_YI
04f2:05d2      __End_YI
Module: /mnt/sda5/.user/root/src/openwatcom-1.9/rel2/lib286/dos/clibc.lib(histsplt.c)
04f2:0e44      ___historical_splitparms
Module: /mnt/sda5/.user/root/src/openwatcom-1.9/rel2/lib286/dos/clibc.lib(nmalloc.c)
0000:2bfa      _nmalloc_
04f2:0586      ___nheapbeg
04f2:0588      ___MiniHeapRover
04f2:058a      ___LargestSizeB4MiniHeapRover
Module: /mnt/sda5/.user/root/src/openwatcom-1.9/rel2/lib286/dos/clibc.lib(fmalloc.c)
0000:2ccb*     _fmalloc_
0000:2ccb      malloc_
04f2:058c+     ___fheap
04f2:058e      ___fheapRover
04f2:0590      ___LargestSizeB4Rover
Module: /mnt/sda5/.user/root/src/openwatcom-1.9/rel2/lib286/dos/clibc.lib(ffree.c)
0000:2dce*     _ffree_
0000:2dce      free_
Module: /mnt/sda5/.user/root/src/openwatcom-1.9/rel2/lib286/dos/clibc.lib(gfattdos.c)
0000:2e10      _dos_getfileattr_
Module: /mnt/sda5/.user/root/src/openwatcom-1.9/rel2/lib286/dos/clibc.lib(dosret.c)
0000:2e25*     _dosretax_
0000:2e2a*     _dosret0_
0000:2e31      __set_errno_dos_
0000:2e8b*     __set_errno_dos_reterr_
Module: /mnt/sda5/.user/root/src/openwatcom-1.9/rel2/lib286/dos/clibc.lib(doserror)
0000:2e96      __doserror_
Module: /mnt/sda5/.user/root/src/openwatcom-1.9/rel2/lib286/dos/clibc.lib(strncpy.c)
0000:2ea2      strncpy_
Module: /mnt/sda5/.user/root/src/openwatcom-1.9/rel2/lib286/dos/clibc.lib(environ.c)
04f2:0e46      ___env_mask
04f2:0e4a      _environ
04f2:0e4e*     __wenviron
Module: /mnt/sda5/.user/root/src/openwatcom-1.9/rel2/lib286/dos/clibc.lib(mbterm.c)
0000:2ede      _mbterm_
Module: /mnt/sda5/.user/root/src/openwatcom-1.9/rel2/lib286/dos/clibc.lib(mbsnextc.c)
0000:2f20      _mbsnextc_
Module: /mnt/sda5/.user/root/src/openwatcom-1.9/rel2/lib286/dos/clibc.lib(mbcupper.c)
0000:2f51      _mbctoupper_
Module: /mnt/sda5/.user/root/src/openwatcom-1.9/rel2/lib286/dos/clibc.lib(mbsinc.c)
0000:2f70      _mbsinc_
Module: /mnt/sda5/.user/root/src/openwatcom-1.9/rel2/lib286/dos/clibc.lib(prtf.c)
0000:2fac      __prtf_
Module: /mnt/sda5/.user/root/src/openwatcom-1.9/rel2/lib286/dos/clibc.lib(dointr)
0000:3d66      _DoINTR_
Module: /mnt/sda5/.user/root/src/openwatcom-1.9/rel2/lib286/dos/clibc.lib(nmemneed.c)
0000:40df      __nmemneed_
Module: /mnt/sda5/.user/root/src/openwatcom-1.9/rel2/lib286/dos/clibc.lib(mem.c)
0000:40f0      __MemAllocator
0000:41ba      __MemFree
Module: /mnt/sda5/.user/root/src/openwatcom-1.9/rel2/lib286/dos/clibc.lib(grownear.c)
0000:439c      __LastFree_
0000:4415      __ExpandDGROUP_
Module: /mnt/sda5/.user/root/src/openwatcom-1.9/rel2/lib286/dos/clibc.lib(hpgrw086.c)
0000:4522      __CMain_nheapgrow_
Module: /mnt/sda5/.user/root/src/openwatcom-1.9/rel2/lib286/dos/clibc.lib(growseg.c)
0000:4525      __GrowSeg_
Module: /mnt/sda5/.user/root/src/openwatcom-1.9/rel2/lib286/dos/clibc.lib(allocseg.c)
0000:4617      __AllocSeg_
Module: /mnt/sda5/.user/root/src/openwatcom-1.9/rel2/lib286/dos/clibc.lib(fmemneed.c)
0000:46ae      __fmemneed_
Module: /mnt/sda5/.user/root/src/openwatcom-1.9/rel2/lib286/dos/clibc.lib(nfree.c)
0000:46b1      _nfree_
04f2:0e52+     ___MiniHeapFreeRover
Module: /mnt/sda5/.user/root/src/openwatcom-1.9/rel2/lib286/dos/clibc.lib(setenvp.c)
0000:47c3      __setenvp_
0000:48c4      __freeenvp_
Module: /mnt/sda5/.user/root/src/openwatcom-1.9/rel2/lib286/dos/clibc.lib(mbisdbcs.c)
04f2:0e58      ___IsDBCS
Module: /mnt/sda5/.user/root/src/openwatcom-1.9/rel2/lib286/dos/clibc.lib(mbislead.c)
0000:491c*     _ismbblead_
04f2:0e5a      ___MBCSIsTable
Module: /mnt/sda5/.user/root/src/openwatcom-1.9/rel2/lib286/dos/clibc.lib(mbinit.c)
0000:4974      __mbinit_
04f2:05a6      ___MBCodePage
Module: /mnt/sda5/.user/root/src/openwatcom-1.9/rel2/lib286/dos/clibc.lib(mbdtoupp.c)
0000:4a4f      _mbdtoupper_
Module: /mnt/sda5/.user/root/src/openwatcom-1.9/rel2/lib286/dos/clibc.lib(toupper.c)
0000:4a5d      toupper_
Module: /mnt/sda5/.user/root/src/openwatcom-1.9/rel2/lib286/dos/clibc.lib(wctomb.c)
0000:4a6b      wctomb_
Module: /mnt/sda5/.user/root/src/openwatcom-1.9/rel2/lib286/dos/clibc.lib(itoa.c)
0000:4a94+     utoa_
0000:4af1      itoa_
Module: /mnt/sda5/.user/root/src/openwatcom-1.9/rel2/lib286/dos/clibc.lib(i4m)
0000:4b14*     __I4M
0000:4b14      __U4M
Module: /mnt/sda5/.user/root/src/openwatcom-1.9/rel2/lib286/dos/clibc.lib(strupr.c)
0000:4b2c      strupr_
Module: /mnt/sda5/.user/root/src/openwatcom-1.9/rel2/lib286/dos/clibc.lib(noefgfmt.c)
04f2:05a8      ___EFG_printf
04f2:05aa*     ___EFG_scanf
Module: /mnt/sda5/.user/root/src/openwatcom-1.9/rel2/lib286/dos/clibc.lib(lltoa.c)
0000:4b5f      ulltoa_
0000:4c44*     lltoa_
Module: /mnt/sda5/.user/root/src/openwatcom-1.9/rel2/lib286/dos/clibc.lib(ltoa.c)
0000:4ca5      ultoa_
0000:4d14*     ltoa_
Module: /mnt/sda5/.user/root/src/openwatcom-1.9/rel2/lib286/dos/clibc.lib(heapen.c)
0000:4d42*     _heapenable_
04f2:05ac      ___heap_enabled
Module: /mnt/sda5/.user/root/src/openwatcom-1.9/rel2/lib286/dos/clibc.lib(sbrk.c)
0000:4d53*     sbrk_
0000:4d62      __brk_
Module: /mnt/sda5/.user/root/src/openwatcom-1.9/rel2/lib286/dos/clibc.lib(heapgrow.c)
0000:4dca*     _heapgrow_
0000:4dca*     _fheapgrow_
0000:4dcb      _nheapgrow_
Module: /mnt/sda5/.user/root/src/openwatcom-1.9/rel2/lib286/dos/clibc.lib(clearenv.c)
0000:4e3f      clearenv_
Module: /mnt/sda5/.user/root/src/openwatcom-1.9/rel2/lib286/dos/clibc.lib(alphabet.c)
04f2:0360      ___Alphabet


                        +--------------------+
                        |   Libraries Used   |
                        +--------------------+

/mnt/sda5/.user/root/src/openwatcom-1.9/rel2/lib286/dos/clibc.lib


                        +-----------------------+
                        |   Linker Statistics   |
                        +-----------------------+

Stack size:  1000 (4096.)
Memory size:  6e80 (28288.)
Entry point address: 0000:1fba
Link time: 00:00.00
