Open Watcom Linker Version 1.9
Portions Copyright (c) 1985-2002 Sybase, Inc. All Rights Reserved.
Created on:       12/12/16 02:39:28
Executable Image: wdis.exe
creating a DOS/4G executable


                        +------------+
                        |   Groups   |
                        +------------+

Group                           Address              Size
=====                           =======              ====

DGROUP                          0002:00000000        0002e8c0



                        +--------------+
                        |   Segments   |
                        +--------------+

Segment                Class          Group          Address         Size
=======                =====          =====          =======         ====

BEGTEXT                CODE           AUTO           0001:00000000   00000010
_TEXT                  CODE           AUTO           0001:00000010   00028c41
_NULL                  BEGDATA        DGROUP         0002:00000000   00000004
_AFTERNULL             BEGDATA        DGROUP         0002:00000004   00000000
CONST                  DATA           DGROUP         0002:00000004   00001118
CONST2                 DATA           DGROUP         0002:0000111c   0001b6cc
_DATA                  DATA           DGROUP         0002:0001c7e8   00000538
XIB                    DATA           DGROUP         0002:0001cd20   00000000
XI                     DATA           DGROUP         0002:0001cd20   00000024
XIE                    DATA           DGROUP         0002:0001cd44   00000000
YIB                    DATA           DGROUP         0002:0001cd44   00000000
YI                     DATA           DGROUP         0002:0001cd44   0000001e
YIE                    DATA           DGROUP         0002:0001cd62   00000000
TIB                    DATA           DGROUP         0002:0001cd62   00000000
TI                     DATA           DGROUP         0002:0001cd62   00000000
TIE                    DATA           DGROUP         0002:0001cd62   00000000
DATA                   DATA           DGROUP         0002:0001cd62   00000000
_BSS                   BSS            DGROUP         0002:0001cd64   00001b56
STACK                  STACK          DGROUP         0002:0001e8c0   00010000


                        +----------------+
                        |   Memory Map   |
                        +----------------+

* = unreferenced symbol
+ = symbol only referenced locally

Address        Symbol
=======        ======

Module: args.obj(/mnt/sda5/.user/root/src/openwatcom-1.9/bld/ndisasm/stand/c/args.c)
0001:00000440  HandleArgs_
Module: buffer.obj(/mnt/sda5/.user/root/src/openwatcom-1.9/bld/ndisasm/stand/c/buffer.c)
0001:000007b0  FmtHexNum_
0001:00000890  BufferAlignToTab_
0001:00000970  BufferConcat_
0001:000009b0  BufferConcatNL_
0001:000009f0  BufferStore_
0001:00000a60  BufferMsg_
0001:00000ae0  BufferPrint_
0001:00000b00  BufferHex_
0001:00000b60  BufferQuoteName_
0002:0001cd64+ _Buffer
0002:0001d964+ _IntermedBuffer
Module: dwarf.obj(/mnt/sda5/.user/root/src/openwatcom-1.9/bld/ndisasm/stand/c/dwarf.c)
0001:00000cd0  GetDwarfLines_
Module: externs.obj(/mnt/sda5/.user/root/src/openwatcom-1.9/bld/ndisasm/stand/c/externs.c)
0001:000013c0  CreateExterns_
0001:00001480  FreeExterns_
0001:000014a0  PrintExterns_
Module: formasm.obj(/mnt/sda5/.user/root/src/openwatcom-1.9/bld/ndisasm/stand/c/formasm.c)
0001:00001550  IsMasmOutput_
0001:00001ab0  HandleAddend_
0001:00001b20  IsDataReloc_
0001:00001c30  RelocSize_
0001:00001c80  HandleRefInData_
0001:00002170  DumpASMDataFromSection_
0001:00002310  DumpASMSection_
0001:000026a0  BssASMSection_
0001:00002700  SkipRef_
Module: fini.obj(/mnt/sda5/.user/root/src/openwatcom-1.9/bld/ndisasm/stand/c/fini.c)
0001:00002830+ SectionFini_
0001:00002890  FreeHashTables_
0001:000028d0+ FreeServicesUsed_
0001:00002900  CloseFiles_
0001:00002950  Fini_
Module: groups.obj(/mnt/sda5/.user/root/src/openwatcom-1.9/bld/ndisasm/stand/c/groups.c)
0001:000029b0  DumpASMGroupName_
0001:000029f0  DumpASMGroupMember_
0001:00002a20  DumpASMGroupFini_
Module: identsec.obj(/mnt/sda5/.user/root/src/openwatcom-1.9/bld/ndisasm/stand/c/identsec.c)
0001:00002a40  IdentifySec_
Module: init.obj(/mnt/sda5/.user/root/src/openwatcom-1.9/bld/ndisasm/stand/c/init.c)
0002:0001c7ec  _CommentString
0002:0001c7f0+ _RecognizedName
0001:00002af0  IsIntelx86_
0001:00002b10  GetFormat_
0001:00003160  CloseObjFile_
0001:00003310  GetMachineType_
0001:00003320* FileU16toHostU16_
0001:00003350* FileU32toHostU32_
0001:000033a0* FileU64toHostU64_
0001:00003820  PrintErrorMsg_
0001:00003870* LeaveProgram_
0001:00003890  Init_
Module: hashtabl.obj(/mnt/sda5/.user/root/src/openwatcom-1.9/bld/ndisasm/stand/c/hashtabl.c)
0001:00003a00  NumberCmp_
0001:00003a50  HashTableInsert_
0001:00003ad0  HashTableQuery_
0001:00003b20  HashTableCreate_
0001:00003b90  HashTableFree_
Module: labproc.obj(/mnt/sda5/.user/root/src/openwatcom-1.9/bld/ndisasm/stand/c/labproc.c)
0001:00003d50  NeedsQuoting_
0001:00003db0+ CreateNamedLabel_
0001:00004000  DealWithSymbolSection_
0001:00004010  CreateUnnamedLabel_
0001:00004070  CreateAbsoluteLabel_
Module: main.obj(/mnt/sda5/.user/root/src/openwatcom-1.9/bld/ndisasm/stand/c/main.c)
0002:0001e59c  _Sections
0002:0001e5a4  _NameRecognitionTable
0002:0001e5a8  _ORLHnd
0002:0001e5ac  _HandleToSectionTable
0002:0001e5b0  _ObjFileHnd
0002:0001e5b4  _OutputDest
0002:0001e5b8  _HandleToRefListTable
0002:0001e5bc  _HandleToLabelListTable
0002:0001e5c0  _debugHnd
0002:0001e5c4  _SymbolToLabelTable
0002:0001c850  _LabelChar
0002:0001c851  _QuoteChar
0002:0001c854  _ObjFileName
0002:0001c858  _ListFileName
0002:0001c85c  _SkipRefTable
0001:000046a0  PrintAssumeHeader_
0001:000046f0  PrintHeader_
0001:00004710  PrintTail_
0001:00004800  PrintLinePrefix_
0001:00004b70  DumpDataFromSection_
0001:000052a0  UseFlatModel_
0001:000053b0  main_
0002:0001e5c8  _Publics
0002:0001e5d4  _DHnd
0002:0001e5e0  _DFormat
0002:0001e5e1  _Options
Module: memfuncs.obj(/mnt/sda5/.user/root/src/openwatcom-1.9/bld/ndisasm/stand/c/memfuncs.c)
0001:00005460  MemClose_
0001:00005460  MemPrtList_
0001:00005460  MemOpen_
0001:00005470  MemAlloc_
0001:00005480  MemRealloc_
0001:00005490  MemFree_
Module: msg.obj(/mnt/sda5/.user/root/src/openwatcom-1.9/bld/ndisasm/stand/c/msg.c)
0001:000054c0  MsgInit_
0001:00005580  MsgGet_
0001:000055c0  MsgFini_
0002:0001c870  _WResRtns
Module: pass1.obj(/mnt/sda5/.user/root/src/openwatcom-1.9/bld/ndisasm/stand/c/pass1.c)
0001:00005600  DoPass1Relocs_
0001:00005710  DoPass1_
Module: pass2.obj(/mnt/sda5/.user/root/src/openwatcom-1.9/bld/ndisasm/stand/c/pass2.c)
0001:00005b70  DisCliGetData_
0001:00006020  HandleAReference_
0001:000065a0  DisCliValueString_
0001:00006740  DoPass2_
Module: pdata.obj(/mnt/sda5/.user/root/src/openwatcom-1.9/bld/ndisasm/stand/c/pdata.c)
0001:00006eb0* StoreReloc_
0001:00006ec0  DumpPDataSection_
Module: print.obj(/mnt/sda5/.user/root/src/openwatcom-1.9/bld/ndisasm/stand/c/print.c)
0001:00007080  ChangePrintDest_
0001:00007090  Print_
0002:0001c898+ _CurrentDest
Module: publics.obj(/mnt/sda5/.user/root/src/openwatcom-1.9/bld/ndisasm/stand/c/publics.c)
0001:000070d0  CreatePublicsArray_
0001:00007160  PrintPublics_
Module: srcmix.obj(/mnt/sda5/.user/root/src/openwatcom-1.9/bld/ndisasm/stand/c/srcmix.c)
0002:0001e5ec+ _numlines
0002:0001e5f0+ _SourceFile
0002:0001e5f4+ _lineInFile
0002:0001e5f8+ _currline
0002:0001e5fc  _lines
0001:000072f0  GetSourceFile_
0001:00007890  MixSource_
0001:00007920  EndSourceMix_
0002:0001c89c  _SourceFileName
0002:0001c8a0  _SourceFileInObject
0002:0001c8a4  _SourceFileInDwarf
0002:0001c8a8  _source_mix
Module: refproc.obj(/mnt/sda5/.user/root/src/openwatcom-1.9/bld/ndisasm/stand/c/refproc.c)
0001:00007a50+ CreateNamedLabelRef_
0001:00007b00  DealWithRelocSection_
0001:00007b10  CreateUnnamedLabelRef_
0001:00007b80  CreateAbsoluteLabelRef_
Module: cmdlhelp.obj(/mnt/sda5/.user/root/src/openwatcom-1.9/bld/watcom/c/cmdlhelp.c)
0001:00007bf0* BuildQuotedFName_
0001:00007cc0  UnquoteFName_
0001:00007d50  FindNextWS_
Module: disentry.obj(/mnt/sda5/.user/root/src/openwatcom-1.9/bld/ndisasm/core/c/disentry.c)
0002:0000118c  _AXPMaxInsName
0002:0000118d  _PPCMaxInsName
0002:0000118e  _X86MaxInsName
0002:0000118f  _X64MaxInsName
0002:00001190  _SPARCMaxInsName
0002:00001191  _MIPSMaxInsName
0002:00001192+ _DisStringTable
0002:00002eb4  _DisInstructionTable
0002:0000a374+ _DisRegisterTable
0002:0000aa00  _DisRefTypeTable
0002:0000aaa6  _AXPRangeTable
0002:0000aad8  _AXPRangeTablePos
0002:0000aae0  _PPCRangeTable
0002:0000abbc  _PPCRangeTablePos
0002:0000abc4  _X86RangeTable
0002:0000adec  _X86RangeTablePos
0002:0000ae04  _X64RangeTable
0002:0000aeb4  _X64RangeTablePos
0001:00007db0  SEX_
0001:00007dd0  DisGetString_
0001:00007e20* DisDummyHandler_
0001:00007e30  DisInit_
0001:00007ea0  DisFini_
0001:00007eb0  DisDecodeInit_
0001:00007f20  DisDecode_
0001:00008070  DisAddReg_
0001:000080b0+ DisOpFormat_
0001:000082a0  DisFormat_
0001:00008430  DisInsNameMax_
0001:00008440  DisInsSizeInc_
0002:0000aebc  _SPARCRangeTable
0002:0000aed4  _SPARCRangeTablePos
0002:0000aedc  _MIPSRangeTable
0002:0000af0c  _MIPSRangeTablePos
0002:0000af14+ _DisSelectorTable
Module: disaxp.obj(/mnt/sda5/.user/root/src/openwatcom-1.9/bld/ndisasm/core/c/disaxp.c)
0001:00008450  AXPPal_
0001:000084a0  AXPMemory_
0001:00008530  AXPFPMemory_
0001:00008550  AXPMemoryLA_
0001:00008570  AXPMemoryFC_
0001:000085c0  AXPJump_
0001:00008610  AXPBranch_
0001:00008650  AXPFPBranch_
0001:00008670  AXPOperate_
0001:000086c0  AXPOperateV_
0001:000086e0  AXPFPOperate_
0001:00008720  AXPFPConvert_
0001:00008820  AXPIEEEOperate_
0001:00008840  AXPIEEECompare_
0001:00008860  AXPIEEEConvert_
0001:00008890  AXPVAXOperate_
0001:000088c0  AXPVAXConvert_
0002:0001c348  _AXPData
Module: disppc.obj(/mnt/sda5/.user/root/src/openwatcom-1.9/bld/ndisasm/core/c/disppc.c)
0001:00008ea0  PPCMath_
0001:00008f30  PPCMathb_
0001:00008f50  PPCMathd_
0001:00008f60  PPCMathab_
0001:00008f90  PPCMathda_
0001:00008fb0  PPCMathdb_
0001:00008fe0  PPCMath2_
0001:00009020  PPCMathsa_
0001:00009030  PPCImmediate_
0001:000090e0  PPCImmed2_
0001:000091e0  PPCFloat_
0001:00009210  PPCFloatdab_
0001:00009240  PPCFloatdac_
0001:00009270  PPCFloatCmpab_
0001:000092c0  PPCFloatdb_
0001:000092f0  PPCFloato_
0001:00009370  PPCMem1_
0001:00009420  PPCMemD1_
0001:000094a0  PPCMem2_
0001:000095e0  PPCMemD2_
0001:00009650  PPCMem3_
0001:000096b0  PPCFloatMem1_
0001:000096d0  PPCFloatMem2_
0001:000096f0  PPCBranch_
0001:000097f0  PPCCompare_
0001:000098b0  PPCCondition_
0001:00009940  PPCConditionField_
0001:000099d0  PPCSpecial_
0001:00009ae0  PPCShiftImmed_
0001:00009b10  PPCShiftImmedD_
0001:00009b50  PPCRotate_
0001:00009bc0  PPCRotateD_
0001:00009c00  PPCRotateImmD_
0001:00009c80  PPCTrap_
0001:00009d10  PPCNull_
0002:0001c37c  _PPCData
Module: disx86.obj(/mnt/sda5/.user/root/src/openwatcom-1.9/bld/ndisasm/core/c/disx86.c)
0001:0000a920  X86PrefixFwait_
0001:0000a9a0  X86PrefixOpnd_
0001:0000a9c0  X86PrefixAddr_
0001:0000a9e0  X86PrefixRepe_
0001:0000a9f0  X86PrefixRepne_
0001:0000aa00  X86PrefixLock_
0001:0000aa10  X86PrefixCS_
0001:0000aa20  X86PrefixSS_
0001:0000aa30  X86PrefixDS_
0001:0000aa40  X86PrefixES_
0001:0000aa50  X86PrefixFS_
0001:0000aa60  X86PrefixGS_
0001:0000aa90+ X86GetRegister_D_
0001:0000ab00+ X86GetRegister_W_
0001:0000ab60+ X86GetRegister_B_
0001:0000abd0+ X86FGetSTReg_
0001:0000ac40+ X86GetMMReg_
0001:0000acb0+ X86GetXMMReg_
0001:0000ad10+ X86GetCRegister_
0001:0000ad60+ X86GetDRegister_
0001:0000adb0+ X86GetTRegister_
0001:0000ae00+ X86GetSRegister_
0001:0000ae40+ X86GetRegister_
0001:0000aed0+ X86GetRegisterAddr_
0001:0000b940+ X86GetRefType_
0001:0000bac0+ X86FGetRefType_
0001:0000bae0+ X86FGetRefTypeEnv_
0001:0000bd00+ X86GetRegModRM_B_
0001:0000bdb0  X86SReg_8_
0001:0000be80  X86NoOp_8_
0001:0000bff0  X86String_8_
0001:0000c200  X86ImmAcc_8_
0001:0000c2a0  X86MemAbsAcc_8_
0001:0000c380  X86Abs_8_
0001:0000c3a0  X86Rel_8_
0001:0000c3c0  X86Imm_8_
0001:0000c540  X86ImmReg_8_
0001:0000c580  X86ImmImm_8_
0001:0000c5d0  X86Reg_8_
0001:0000c700  X86AccAcc_8_
0001:0000c760  X86JmpCC_8_
0001:0000c7f0  X86Shift_16_
0001:0000c8a0  X86SReg_16_
0001:0000c980  X86NoOp_16_
0001:0000c990  X86ModRM_16_
0001:0000ca80  X86ModRMImm_16_
0001:0000cb70* X86ModRMAcc_16_
0001:0000cbd0  X86RegModRM_16_
0001:0000cc30  X86RegModRM_test_
0001:0000cc90  X86RegModRM_bound_
0001:0000ccf0  X86RegModRM_16B_
0001:0000cde0  X86Reg_16_
0001:0000ce00  X86JmpCC_16_
0001:0000ce20  X86SRegModRM_16_
0001:0000cf00  X86SetCC_
0001:0000cf50  X86MovCC_24_
0001:0000cfc0  X86CRegReg_24_
0001:0000d070  X86DRegReg_24_
0001:0000d120  X86TRegReg_24_
0001:0000d1d0  X86ModRMImm_24_
0001:0000d240  X86NoOp_24_
0001:0000d250  X86ModRM_24_
0001:0000d2d0  X86RegModRM_24_
0001:0000d330  X86RegModRM_24B_
0001:0000d550  X86RegModRM_24C_
0001:0000d620  X86FTypeCond_
0001:0000d650  X86FType3_
0001:0000d710  X86FType3B_
0001:0000d740  X86FType3C_
0001:0000d770  X86FType2_
0001:0000d7e0  X86FTypeFSTSWAX_
0001:0000d820  X86FType4_
0001:0000d880  X86FType1_
0001:0000d9a0  X86FTypeEnv_
0001:0000db60  X86MMRegModRM_
0001:0000dbb0  X86MMRegModRMImm_
0001:0000dc10  X86MMRegModRM_Rev_
0001:0000dc60  X86MMRegImm_
0001:0000dc90  X86XMMRegModRM_
0001:0000dce0  X86XMMRegModRMImm_
0001:0000dd40  X86XMMRegModRM_Rev_
0001:0000dd90  X86XMMRegImm_
0001:0000ddd0  X86XMMRegModRM64_
0001:0000de20  X86XMMRegModRM64Imm_
0001:0000de80  X86XMMRegModRM64_Rev_
0001:0000ded0  X86XMMRegModRM32_
0001:0000df20  X86XMMRegModRM32Imm_
0001:0000df80  X86XMMRegModRM32_Rev_
0001:0000dfd0  X86RegModRM32_Rev_
0001:0000e030  X86MMRegModRMMixed_
0001:0000e120  X86MMRegModRMMixedImm_
0001:0000e1b0  X86MMRegModRMMixed_Rev_
0001:0000e210  X86XMMRegModRMMixed_
0001:0000e2d0  X86XMMRegModRMMixedImm_
0001:0000e360  X86XMMRegModRMMixed_Rev_
0001:0000e3c0  X86RegModRMMixed_
0001:0000e4c0  X86RegModRMMixedImm_
0001:0000e550  X86_3DNow_
0001:0000ede0* DisAddUnixReg_
0002:0001c3a4  _X86Data
Module: dissparc.obj(/mnt/sda5/.user/root/src/openwatcom-1.9/bld/ndisasm/core/c/dissparc.c)
0001:0000f4b0  SPARCSetHi_
0001:0000f4f0  SPARCBranch_
0001:0000f530  SPARCCall_
0001:0000f560  SPARCOp3_
0001:0000f660  SPARCMem_
0001:0000f6f0  SPARCFPop2_
0001:0000f760  SPARCFPop3_
0001:0000f7c0  SPARCMemF_
0001:0000f8a0  SPARCMemC_
0002:0001c3d8  _SPARCData
Module: dismips.obj(/mnt/sda5/.user/root/src/openwatcom-1.9/bld/ndisasm/core/c/dismips.c)
0001:0000fce0  MIPSNull_
0001:0000fcf0  MIPSJType_
0001:0000fd20  MIPSCode_
0001:0000fd40  MIPSImmed1_
0001:0000fd70  MIPSImmed2_
0001:0000fdc0  MIPSImmed2U_
0001:0000fe10  MIPSShift_
0001:0000fe60  MIPSTrap1_
0001:0000fea0  MIPSMulDiv_
0001:0000fea0  MIPSTrap2_
0001:0000fee0  MIPSRegD_
0001:0000ff00  MIPSJump1_
0001:0000ff00  MIPSRegS_
0001:0000ff20  MIPSReg2_
0001:0000ff60  MIPSReg3_
0001:0000ffb0  MIPSCache_
0001:00010020  MIPSMemory_
0001:000100a0  MIPSJump2_
0001:000100e0  MIPSBranch1_
0001:00010160  MIPSBranch2_
0001:000101d0  MIPSBranch3_
0001:00010230  MIPSFGMove_
0001:00010270  MIPSFPUOp2_
0001:000102c0  MIPSFPUOp3_
0001:00010320  MIPSFPUCmp_
0001:00010380  MIPSFPUMemory_
0001:000103f0  MIPSBranchCop_
0002:0001c400  _MIPSData
Module: disx64.obj(/mnt/sda5/.user/root/src/openwatcom-1.9/bld/ndisasm/core/c/disx64.c)
0001:00010780  X64PrefixOpnd_
0001:000107a0  X64PrefixRex_
0001:00010800  X64PrefixCS_
0001:00010810  X64PrefixFS_
0001:00010820  X64PrefixGS_
0001:00010830  X64PrefixAddr_
0001:00010850  X64PrefixRepe_
0001:00010860  X64PrefixRepne_
0001:00010870  X64PrefixLock_
0001:00010880  X64PrefixSS_
0001:00010890  X64PrefixDS_
0001:000108a0  X64PrefixES_
0001:000108f0+ X64GetRegister_Q_
0001:000109b0+ X64GetRegister_D_
0001:00010a70* X64GetRegister_W_
0001:00010b40+ X64GetRegister_B_
0001:00010bf0+ X64GetCRegister_
0001:00010c50+ X64GetDRegister_
0001:00010ca0+ X64GetSRegister_
0001:00010cf0+ X64GetRegister_
0001:00011330+ X64GetRefType_
0001:000114e0+ X64GetRegModRM_B_
0001:000115b0  X64SReg_8_
0001:00011630  X64NoOp_8_
0001:00011790  X64String_8_
0001:000119b0  X64ImmAcc_8_
0001:00011a50  X64MemAbsAcc_8_
0001:00011b90* X64Abs_8_
0001:00011bb0  X64Rel_8_
0001:00011bd0  X64Imm_8_
0001:00011cb0  X64ImmReg_8_
0001:00011d40  X64ImmImm_8_
0001:00011d90  X64Reg_8_
0001:00011eb0  X64AccAcc_8_
0001:00011f20  X64JmpCC_8_
0001:00011fd0  X64Shift_16_
0001:00012090  X64SReg_16_
0001:00012170  X64NoOp_16_
0001:00012180  X64ModRM_16_
0001:000122c0  X64RegModRM_16_
0001:00012320  X64RegModRM_test_
0001:00012380  X64RegModRM_16B_
0001:00012440  X64RegModRM_16C_
0001:000124d0  X64ModRMImm_16_
0001:000125d0  X64Reg_16_
0001:00012610  X64JmpCC_16_
0001:00012630  X64SRegModRM_16_
0001:00012720  X64NoOp_24_
0001:00012730  X64SetCC_
0001:00012780  X64MovCC_24_
0001:000127c0  X64CRegReg_24_
0001:00012870  X64DRegReg_24_
0001:00012920  X64ModRM_24_
0001:000129c0  X64RegModRM_24_
0001:00012a20  X64RegModRM_24B_
0001:00012bd0  X64RegModRM_24C_
0001:00012c70  X64ModRMImm_24_
0001:00013290* DisAddUnixRegX64_
0002:0001c428  _X64Data
Module: demangle.obj(/mnt/sda5/.user/root/src/openwatcom-1.9/bld/lib_misc/c/demangle.c)
0001:000157f0* __demangle_t_
0001:00015850  __demangle_l_
0001:000158c0* __demangle_r_
0001:00015950* __scope_name_
0001:000159f0+ __is_mangled_
0001:00015ad0* __is_mangled_internal_
0001:00015b10* __unmangled_name_
0001:00015b90* __demangled_basename_
Module: /mnt/sda5/.user/root/src/openwatcom-1.9/rel2/lib386/dos/clib3r.lib(exit.c)
0001:00015bff+ __null_int23_exit_
0001:00015c00  exit_
0001:00015c2c* _exit_
0002:0001c8fc+ ___int23_exit
0002:0001c900+ ___FPE_handler_exit
Module: /mnt/sda5/.user/root/src/openwatcom-1.9/rel2/lib386/dos/clib3r.lib(istable.c)
0002:0001c6e4  __IsTable
Module: /mnt/sda5/.user/root/src/openwatcom-1.9/rel2/lib386/dos/clib3r.lib(split2.c)
0001:00015ca0  _splitpath2_
Module: /mnt/sda5/.user/root/src/openwatcom-1.9/rel2/lib386/dos/clib3r.lib(makepath.c)
0001:00015e10  _makepath_
Module: /mnt/sda5/.user/root/src/openwatcom-1.9/rel2/lib386/dos/clib3r.lib(tolower.c)
0001:00015fc0  tolower_
Module: /mnt/sda5/.user/root/src/openwatcom-1.9/rel2/lib386/dos/clib3r.lib(toupper.c)
0001:00015fd0  toupper_
Module: /mnt/sda5/.user/root/src/openwatcom-1.9/rel2/lib386/dos/clib3r.lib(sprintf.c)
0001:00015fe0  sprintf_
Module: /mnt/sda5/.user/root/src/openwatcom-1.9/rel2/lib386/dos/clib3r.lib(vsprintf.c)
0001:00016030  vsprintf_
Module: /mnt/sda5/.user/root/src/openwatcom-1.9/bld/orl/osi386/orl.lib(/mnt/sda5/.user/root/src/openwatcom-1.9/bld/orl/c/orlentry.c)
0001:00016050  ORLInit_
0001:000160b0  ORLGetError_
0001:000160c0  ORLFini_
0001:00016110  ORLFileIdentify_
0001:00016400  ORLFileInit_
0001:000164d0* ORLFileFini_
0001:00016520* ORLExportTableRVA_
0001:00016540  ORLFileScan_
0001:00016580  ORLFileGetMachineType_
0001:000165c0  ORLFileGetFlags_
0001:00016600* ORLFileGetSize_
0001:00016640* ORLFileGetType_
0001:00016680  ORLFileGetFormat_
0001:00016690* ORLFileGetSymbolTable_
0001:000166d0  ORLSecGetName_
0001:00016700* ORLSecGetBase_
0001:00016730  ORLSecGetSize_
0001:00016760  ORLSecGetType_
0001:00016790  ORLSecGetAlignment_
0001:000167c0  ORLSecGetFlags_
0001:000167f0* ORLSecGetStringTable_
0001:00016820* ORLSecGetSymbolTable_
0001:00016850  ORLSecGetRelocTable_
0001:00016880  ORLSecGetLines_
0001:000168b0  ORLSecGetNumLines_
0001:000168e0* ORLSecGetOffset_
0001:000168f0  ORLSecGetClassName_
0001:00016900  ORLSecGetCombine_
0001:00016910  ORLSecGetAbsFrame_
0001:00016920  ORLSecGetAssociated_
0001:00016930  ORLSecGetGroup_
0001:00016940  ORLSecGetContents_
0001:00016970* ORLSecQueryReloc_
0001:000169a0* ORLSecScanReloc_
0001:000169d0* ORLCvtSecHdlToIdx_
0001:00016a00* ORLCvtIdxToSecHdl_
0001:00016a40  ORLRelocSecScan_
0001:00016a70  ORLSymbolSecScan_
0001:00016aa0  ORLNoteSecScan_
0001:00016ad0  ORLSymbolGetName_
0001:00016b00  ORLSymbolGetValue_
0001:00016b30  ORLSymbolGetBinding_
0001:00016b60  ORLSymbolGetType_
0001:00016b90* ORLSymbolGetRawInfo_
0001:00016bc0  ORLSymbolGetSecHandle_
0001:00016bf0* ORLSymbolGetAssociated_
0001:00016c20  ORLGroupsScan_
0001:00016c40  ORLGroupName_
0001:00016c50  ORLGroupSize_
0001:00016c60  ORLGroupMember_
Module: /mnt/sda5/.user/root/src/openwatcom-1.9/rel2/lib386/dos/clib3r.lib(stricmp.c)
0001:00016c70  stricmp_
Module: /mnt/sda5/.user/root/src/openwatcom-1.9/rel2/lib386/dos/clib3r.lib(memset.c)
0001:00016cb0  memset_
Module: /mnt/sda5/.user/root/src/openwatcom-1.9/rel2/lib386/dos/clib3r.lib(qsort.c)
0001:00016d30  qsort_
Module: /mnt/sda5/.user/root/src/openwatcom-1.9/rel2/lib386/dos/clib3r.lib(_strcmp)
0001:000173f0  strcmp_
Module: /mnt/sda5/.user/root/src/openwatcom-1.9/rel2/lib386/dos/clib3r.lib(strncpy.c)
0001:00017530  strncpy_
Module: /mnt/sda5/.user/root/src/openwatcom-1.9/rel2/lib386/dos/clib3r.lib(close.c)
0001:00017570  close_
Module: /mnt/sda5/.user/root/src/openwatcom-1.9/rel2/lib386/dos/clib3r.lib(open.c)
0001:000177c0  open_
0001:000177e0  sopen_
Module: /mnt/sda5/.user/root/src/openwatcom-1.9/rel2/lib386/dos/clib3r.lib(filelen.c)
0001:00017810  filelength_
Module: /mnt/sda5/.user/root/src/openwatcom-1.9/rel2/lib386/dos/clib3r.lib(read.c)
0001:00017860  read_
Module: /mnt/sda5/.user/root/src/openwatcom-1.9/rel2/lib386/dos/clib3r.lib(perror.c)
0001:00017990  perror_
Module: /mnt/sda5/.user/root/src/openwatcom-1.9/rel2/lib386/dos/clib3r.lib(i8s)
0001:000179dc  __U8RS
0001:000179f6* __I8RS
0001:00017a11* __I8LS
0001:00017a11  __U8LS
Module: /mnt/sda5/.user/root/src/openwatcom-1.9/rel2/lib386/dos/clib3r.lib(gtcmddos.c)
0001:00017a30+ _bgetcmd_
0001:00017ab0  getcmd_
Module: /mnt/sda5/.user/root/src/openwatcom-1.9/rel2/lib386/dos/clib3r.lib(cstart)
0001:00000003* ___begtext
0002:00000000* __nullarea
0002:0001c904* __D16Infoseg
0002:0001c906  __x386_zero_base_selector
0001:00017ac4  _cstart_
0001:00017d12  __exit_
0001:00017d14  __do_exit_with_msg__
0001:00017d5c* __GETDS
0001:00017d5c  ___GETDSStart_
0001:00017d67  ___GETDSEnd_
Module: /mnt/sda5/.user/root/src/openwatcom-1.9/rel2/lib386/dos/clib3r.lib(argcv.c)
0002:0001e65c  __argc
0002:0001e660  __argv
0002:0001e664  ___argc
0002:0001e668  ___argv
Module: /mnt/sda5/.user/root/src/openwatcom-1.9/rel2/lib386/dos/clib3r.lib(nmalloc.c)
0001:00017d70  _nmalloc_
0001:00017d70  malloc_
0002:0001c908  ___nheapbeg
0002:0001c90c  ___MiniHeapRover
0002:0001c910  ___LargestSizeB4MiniHeapRover
Module: /mnt/sda5/.user/root/src/openwatcom-1.9/rel2/lib386/dos/clib3r.lib(nrealloc.c)
0001:00017e70* _nrealloc_
0001:00017e70  realloc_
Module: /mnt/sda5/.user/root/src/openwatcom-1.9/rel2/lib386/dos/clib3r.lib(nfree.c)
0001:00017f10  _nfree_
0001:00017f10  free_
0002:0001e66c  ___MiniHeapFreeRover
Module: /mnt/sda5/.user/root/src/openwatcom-1.9/rel2/lib386/dos/clib3r.lib(write.c)
0001:00018120  write_
Module: /mnt/sda5/.user/root/src/openwatcom-1.9/rel2/lib386/dos/clib3r.lib(tell.c)
0001:00018360  tell_
Module: /mnt/sda5/.user/root/src/openwatcom-1.9/rel2/lib386/dos/clib3r.lib(lseek.c)
0001:00018380  lseek_
Module: /mnt/sda5/.user/root/src/openwatcom-1.9/bld/sdk/rc/wres/small386/ms_r/wres.lib(loadfind.c)
0001:000183b0  FindResources_
0002:0001c914  _FileShift
Module: /mnt/sda5/.user/root/src/openwatcom-1.9/rel2/lib386/dos/clib3r.lib(cmdname.c)
0001:000184c0  _cmdname_
Module: /mnt/sda5/.user/root/src/openwatcom-1.9/rel2/lib386/dos/clib3r.lib(wrlang.c)
0001:000184f0  _WResLanguage_
Module: /mnt/sda5/.user/root/src/openwatcom-1.9/bld/sdk/rc/wres/small386/ms_r/wres.lib(loadstr.c)
0001:00018758+ WResLoadString2_
0001:00018808  WResLoadString_
0001:00018820  OpenResFile_
0001:00018830+ InitResources2_
0001:00018858  InitResources_
0001:00018868* CloseResFile2_
0001:00018874  CloseResFile_
0001:0001888c* LoadstrInitStatics_
0002:0001e670+ _MainDir
Module: /mnt/sda5/.user/root/src/openwatcom-1.9/rel2/lib386/dos/clib3r.lib(fopen.c)
0001:000188a0+ __open_flags_
0001:00018aa0+ _fsopen_
0001:00018af0  fopen_
0001:00018b70* freopen_
Module: /mnt/sda5/.user/root/src/openwatcom-1.9/rel2/lib386/dos/clib3r.lib(ftell.c)
0001:00018bd0  ftell_
Module: /mnt/sda5/.user/root/src/openwatcom-1.9/rel2/lib386/dos/clib3r.lib(fgetc.c)
0001:00018c20+ __fill_buffer_
0001:00018d20  fgetc_
Module: /mnt/sda5/.user/root/src/openwatcom-1.9/rel2/lib386/dos/clib3r.lib(fseek.c)
0001:00018e10  fseek_
Module: /mnt/sda5/.user/root/src/openwatcom-1.9/rel2/lib386/dos/clib3r.lib(fgets.c)
0001:00018f10  fgets_
Module: /mnt/sda5/.user/root/src/openwatcom-1.9/rel2/lib386/dos/clib3r.lib(fclose.c)
0001:00018f80  __doclose_
0001:00019000  __shutdown_stream_
0001:00019020  fclose_
0002:0001e674+ ___RmTmpFileFn
Module: /mnt/sda5/.user/root/src/openwatcom-1.9/rel2/lib386/dos/clib3r.lib(strlcpy.c)
0001:00019050  strlcpy_
Module: /mnt/sda5/.user/root/src/openwatcom-1.9/rel2/lib386/dos/clib3r.lib(strlcat.c)
0001:000190a0  strlcat_
Module: /mnt/sda5/.user/root/src/openwatcom-1.9/rel2/lib386/dos/clib3r.lib(strupr.c)
0001:000190f0  strupr_
Module: /mnt/sda5/.user/root/src/openwatcom-1.9/rel2/lib386/dos/clib3r.lib(memmove.c)
0001:00019110  memmove_
Module: /mnt/sda5/.user/root/src/openwatcom-1.9/rel2/lib386/dos/clib3r.lib(itoa.c)
0001:00019170+ utoa_
0001:000191c0  itoa_
Module: /mnt/sda5/.user/root/src/openwatcom-1.9/rel2/lib386/dos/clib3r.lib(stack386.c)
0001:000191f0  stackavail_
Module: /mnt/sda5/.user/root/src/openwatcom-1.9/rel2/lib386/dos/clib3r.lib(stk)
0001:00019217* __STK
0001:00019204* __CHK
0001:00019214  __GRO
0001:00019235  __STKOVERFLOW_
Module: /mnt/sda5/.user/root/src/openwatcom-1.9/rel2/lib386/dos/clib3r.lib(memicmp.c)
0001:00019250  memicmp_
Module: /mnt/sda5/.user/root/src/openwatcom-1.9/rel2/lib386/dos/clib3r.lib(initrtns.c)
0001:000192a0  __InitRtns
0001:000192f0  __FiniRtns
Module: /mnt/sda5/.user/root/src/openwatcom-1.9/rel2/lib386/dos/clib3r.lib(mbsnccnt.c)
0001:00019350  _mbsnccnt_
Module: /mnt/sda5/.user/root/src/openwatcom-1.9/rel2/lib386/dos/clib3r.lib(mbsncpy.c)
0001:00019380  _mbsncpy_
Module: /mnt/sda5/.user/root/src/openwatcom-1.9/rel2/lib386/dos/clib3r.lib(mbsnbcnt.c)
0001:000193a0  _mbsnbcnt_
Module: /mnt/sda5/.user/root/src/openwatcom-1.9/rel2/lib386/dos/clib3r.lib(mbsnextc.c)
0001:00019410  _mbsnextc_
Module: /mnt/sda5/.user/root/src/openwatcom-1.9/rel2/lib386/dos/clib3r.lib(mbsinc.c)
0001:00019450  _mbsinc_
Module: /mnt/sda5/.user/root/src/openwatcom-1.9/rel2/lib386/dos/clib3r.lib(mbconv.c)
0001:00019480  _mbvtop_
Module: /mnt/sda5/.user/root/src/openwatcom-1.9/rel2/lib386/dos/clib3r.lib(mbclen.c)
0001:000194a0  _mbclen_
Module: /mnt/sda5/.user/root/src/openwatcom-1.9/rel2/lib386/dos/clib3r.lib(mbsdec.c)
0001:000194d0  _mbsdec_
Module: /mnt/sda5/.user/root/src/openwatcom-1.9/rel2/lib386/dos/clib3r.lib(prtf.c)
0001:00019550  __prtf_
Module: /mnt/sda5/.user/root/src/openwatcom-1.9/bld/orl/osi386/orl.lib(/mnt/sda5/.user/root/src/openwatcom-1.9/bld/orl/elf/c/elfentr.c)
0001:0001a3c0  ElfInit_
0001:0001a3e0  ElfFini_
0001:0001a410  ElfFileInit_
0001:0001a460  ElfFileFini_
0001:0001a470  ElfFileScan_
0001:0001a4d0  ElfFileGetMachineType_
0001:0001a4e0  ElfFileGetFlags_
0001:0001a4f0  ElfFileGetType_
0001:0001a500  ElfFileGetSize_
0001:0001a510  ElfFileGetSymbolTable_
0001:0001a520  ElfSymbolGetName_
0001:0001a520  ElfSecGetName_
0001:0001a530  ElfSecGetBase_
0001:0001a540  ElfSymbolGetValue_
0001:0001a540  ElfSecGetSize_
0001:0001a550  ElfSecGetType_
0001:0001a560  ElfSecGetFlags_
0001:0001a570  ElfSecGetAlignment_
0001:0001a580  ElfSecGetStringTable_
0001:0001a5a0  ElfSecGetSymbolTable_
0001:0001a5d0  ElfSecGetRelocTable_
0001:0001a600  ElfSecGetContents_
0001:0001a620  ElfSecQueryReloc_
0001:0001a6a0  ElfSecScanReloc_
0001:0001a700  ElfCvtSecHdlToIdx_
0001:0001a740  ElfCvtIdxToSecHdl_
0001:0001a770  ElfRelocSecScan_
0001:0001a7d0  ElfSymbolSecScan_
0001:0001a830  ElfNoteSecScan_
0001:0001a870  ElfSymbolGetBinding_
0001:0001a880  ElfSymbolGetType_
0001:0001a890  ElfSymbolGetRawInfo_
0001:0001a8a0  ElfSymbolGetSecHandle_
0001:0001a8c0  ElfSymbolGetAssociated_
Module: /mnt/sda5/.user/root/src/openwatcom-1.9/bld/orl/osi386/orl.lib(/mnt/sda5/.user/root/src/openwatcom-1.9/bld/orl/coff/c/coffentr.c)
0001:0001a8e0  CoffInit_
0001:0001a900  CoffFini_
0001:0001a930  CoffFileInit_
0001:0001a9a0  CoffFileFini_
0001:0001a9b0  CoffFileScan_
0001:0001aa10  CoffExportTableRVA_
0001:0001aa20  CoffFileGetMachineType_
0001:0001aa30  CoffFileGetFlags_
0001:0001aa40  CoffFileGetType_
0001:0001aa50  CoffSecGetBase_
0001:0001aa50  CoffFileGetSize_
0001:0001aa60  CoffFileGetSymbolTable_
0001:0001aa70  CoffSecGetStringTable_
0001:0001aa80  CoffSecGetSymbolTable_
0001:0001aa90  CoffSecGetName_
0001:0001aaa0  CoffSecGetSize_
0001:0001aab0  CoffSecGetType_
0001:0001aac0  CoffSecGetFlags_
0001:0001aad0  CoffSecGetAlignment_
0001:0001aae0  CoffSecGetRelocTable_
0001:0001aaf0  CoffSecGetNumLines_
0001:0001ab10  CoffSecGetLines_
0001:0001ab30  CoffSecGetOffset_
0001:0001ab50  CoffSecGetContents_
0001:0001ab70  CoffSecQueryReloc_
0001:0001abd0  CoffCvtSecHdlToIdx_
0001:0001ac00  CoffCvtIdxToSecHdl_
0001:0001ac10  CoffSecScanReloc_
0001:0001ac70  CoffRelocSecScan_
0001:0001acc0  CoffSymbolSecScan_
0001:0001ad30  CoffNoteSecScan_
0001:0001ad70  CoffSymbolGetName_
0001:0001ad90  CoffSymbolGetValue_
0001:0001ada0  CoffSymbolGetBinding_
0001:0001adb0  CoffSymbolGetType_
0001:0001adc0  CoffSymbolGetSecHandle_
0001:0001adf0  CoffSymbolGetAssociated_
Module: /mnt/sda5/.user/root/src/openwatcom-1.9/bld/orl/osi386/orl.lib(/mnt/sda5/.user/root/src/openwatcom-1.9/bld/orl/omf/c/omfentr.c)
0001:0001ae10  OmfInit_
0001:0001ae30  OmfFini_
0001:0001ae60  OmfFileInit_
0001:0001aec0  OmfFileFini_
0001:0001aed0  OmfFileScan_
0001:0001af30  OmfFileGetMachineType_
0001:0001af40  OmfFileGetFlags_
0001:0001af50  OmfFileGetType_
0001:0001af60  OmfFileGetSize_
0001:0001af70  OmfFileGetSymbolTable_
0001:0001af80  OmfSecGetName_
0001:0001afa0  OmfSecGetBase_
0001:0001afb0  OmfGroupSize_
0001:0001afb0  OmfSecGetSize_
0001:0001afc0  OmfSecGetType_
0001:0001afd0  OmfSecGetFlags_
0001:0001afe0  OmfSecGetAlignment_
0001:0001b000  OmfSecGetClassName_
0001:0001b020  OmfSecGetCombine_
0001:0001b040  OmfSecGetAbsFrame_
0001:0001b060  OmfSecGetAssociated_
0001:0001b080  OmfSecGetGroup_
0001:0001b0b0  OmfSecGetStringTable_
0001:0001b0d0  OmfSecGetSymbolTable_
0001:0001b0e0  OmfSecGetRelocTable_
0001:0001b0f0  OmfSymbolGetSecHandle_
0001:0001b100  OmfSecGetContents_
0001:0001b1c0  OmfSecQueryReloc_
0001:0001b1e0  OmfSecScanReloc_
0001:0001b200  OmfSymbolGetValue_
0001:0001b200  OmfCvtSecHdlToIdx_
0001:0001b210  OmfCvtIdxToSecHdl_
0001:0001b230  OmfRelocSecScan_
0001:0001b250  OmfSymbolSecScan_
0001:0001b290  OmfSecGetNumLines_
0001:0001b2a0  OmfSecGetLines_
0001:0001b2b0  OmfSymbolGetName_
0001:0001b2c0  OmfSymbolGetBinding_
0001:0001b2d0  OmfSymbolGetType_
0001:0001b2e0  OmfSymbolGetRawInfo_
0001:0001b2f0  OmfNoteSecScan_
0001:0001b300  OmfGroupsScan_
0001:0001b340  OmfGroupName_
0001:0001b350  OmfGroupMember_
Module: /mnt/sda5/.user/root/src/openwatcom-1.9/bld/orl/osi386/orl.lib(/mnt/sda5/.user/root/src/openwatcom-1.9/bld/orl/c/orlflhnd.c)
0001:0001b390  ORLAddFileLinks_
0001:0001b3a0  ORLRemoveFileLinks_
Module: /mnt/sda5/.user/root/src/openwatcom-1.9/rel2/lib386/dos/clib3r.lib(__stos)
0001:0001b400  __STOSB
0001:0001b437* __STOSD
Module: /mnt/sda5/.user/root/src/openwatcom-1.9/rel2/lib386/dos/clib3r.lib(_clse.c)
0001:0001b4b0  __close_
Module: /mnt/sda5/.user/root/src/openwatcom-1.9/rel2/lib386/dos/clib3r.lib(opendos.c)
0001:0001b500  _dos_open_
Module: /mnt/sda5/.user/root/src/openwatcom-1.9/rel2/lib386/dos/clib3r.lib(iomode.c)
0001:0001b520  __GetIOMode_
0001:0001b540  __SetIOMode_nogrow_
0002:0001c92c  ___NFiles
0002:0001c930  ___init_mode
0002:0001c980  ___io_mode
Module: /mnt/sda5/.user/root/src/openwatcom-1.9/rel2/lib386/dos/clib3r.lib(isatt.c)
0001:0001b560  isatty_
Module: /mnt/sda5/.user/root/src/openwatcom-1.9/rel2/lib386/dos/clib3r.lib(seterrno.c)
0001:0001b57e  __set_errno_
0001:0001b58a* __set_EDOM_
0001:0001b596* __set_ERANGE_
0001:0001b5a2* __set_EINVAL_
0001:0001b5b3  __set_doserrno_
Module: /mnt/sda5/.user/root/src/openwatcom-1.9/rel2/lib386/dos/clib3r.lib(dosret.c)
0001:0001b5c0  _dosretax_
0001:0001b5d0* _dosret0_
0001:0001b5e0  __set_errno_dos_
0001:0001b660* __set_errno_dos_reterr_
Module: /mnt/sda5/.user/root/src/openwatcom-1.9/rel2/lib386/dos/clib3r.lib(errno.c)
0001:0001b670  __get_errno_ptr_
0001:0001b680  __get_doserrno_ptr_
0002:0001e678+ _errno
0002:0001e67c+ __doserrno
Module: /mnt/sda5/.user/root/src/openwatcom-1.9/rel2/lib386/dos/clib3r.lib(umaskval.c)
0002:0001c998  ___umaskval
Module: /mnt/sda5/.user/root/src/openwatcom-1.9/rel2/lib386/dos/clib3r.lib(creatdos.c)
0001:0001b690  _dos_creat_
0001:0001b6b0* _dos_creatnew_
Module: /mnt/sda5/.user/root/src/openwatcom-1.9/rel2/lib386/dos/clib3r.lib(stiomode.c)
0001:0001b6d0+ __grow_iomode_
0001:0001b790+ __shrink_iomode_
0001:0001b7c0  __SetIOMode_
Module: /mnt/sda5/.user/root/src/openwatcom-1.9/rel2/lib386/dos/clib3r.lib(iob.c)
0002:0001c99c  ___iob
0002:0001cba4  __fmode
0002:0001e684  ___OpenStreams
0002:0001e688  ___ClosedStreams
Module: /mnt/sda5/.user/root/src/openwatcom-1.9/rel2/lib386/dos/clib3r.lib(__lseek.c)
0001:0001b830  __lseek_
Module: /mnt/sda5/.user/root/src/openwatcom-1.9/rel2/lib386/dos/clib3r.lib(iomodtty.c)
0001:0001b880  __ChkTTYIOMode_
0001:0001b8c0* __IOMode_
Module: /mnt/sda5/.user/root/src/openwatcom-1.9/rel2/lib386/dos/clib3r.lib(fputs.c)
0001:0001b8e0  fputs_
Module: /mnt/sda5/.user/root/src/openwatcom-1.9/rel2/lib386/dos/clib3r.lib(strerror.c)
0001:0001b970  strerror_
0001:0001b990* _strerror_
0002:0001cba8+ __sys_errlist
0002:0001cc4c+ __sys_nerr
Module: /mnt/sda5/.user/root/src/openwatcom-1.9/rel2/lib386/dos/clib3r.lib(fputc.c)
0001:0001ba60  fputc_
Module: /mnt/sda5/.user/root/src/openwatcom-1.9/rel2/lib386/dos/clib3r.lib(crwdata)
0002:0001cc8b  __osmajor
0002:0001cc8c  __osminor
0002:0001cc60  __psp
0002:0001cc82  __Extender
0002:0001cc83  __ExtenderSubtype
0002:0001cc84  __X32VM
0002:0001cc64* __x386_stacklow
0002:0001cc58  __LpCmdLine
0002:0001cc5c  __LpPgmName
0002:0001cc50  __dynend
0002:0001cc54  __curbrk
0002:0001cc64  __STACKLOW
0002:0001cc68  __STACKTOP
0002:0001cc6c  __ASTACKSIZ
0002:0001cc70  __ASTACKPTR
0002:0001cc74  __cbyte
0002:0001cc78* __cbyte2
0002:0001cc7c  __child
0002:0001cc85  __Envptr
0002:0001cc89  __Envseg
0002:0001cc80  __no87
0002:0001cc8d  ___FPE_handler
Module: /mnt/sda5/.user/root/src/openwatcom-1.9/rel2/lib386/dos/clib3r.lib(cmain386.c)
0001:0001bb20  __CMain
Module: /mnt/sda5/.user/root/src/openwatcom-1.9/rel2/lib386/dos/clib3r.lib(dosseg)
0000:00001234  __DOSseg__
Module: /mnt/sda5/.user/root/src/openwatcom-1.9/rel2/lib386/dos/clib3r.lib(uselfn.c)
0002:0001cc94  ___uselfn
Module: /mnt/sda5/.user/root/src/openwatcom-1.9/rel2/lib386/dos/clib3r.lib(initargv.c)
0001:0001bb60  __Init_Argv_
0001:0001bbb0+ _getargv_
0001:0001bd50  __Fini_Argv_
Module: /mnt/sda5/.user/root/src/openwatcom-1.9/rel2/lib386/dos/clib3r.lib(nmemneed.c)
0001:0001bd60  __nmemneed_
Module: /mnt/sda5/.user/root/src/openwatcom-1.9/rel2/lib386/dos/clib3r.lib(mem.c)
0001:0001bd70  __MemAllocator
0001:0001be20  __MemFree
Module: /mnt/sda5/.user/root/src/openwatcom-1.9/rel2/lib386/dos/clib3r.lib(grownear.c)
0001:0001bfe0+ __FreeDPMIBlocks_
0001:0001c050  __ReAllocDPMIBlock_
0001:0001c1e0+ __LastFree_
0001:0001c450  __ExpandDGROUP_
Module: /mnt/sda5/.user/root/src/openwatcom-1.9/rel2/lib386/dos/clib3r.lib(nmsize.c)
0001:0001c5a0  _nmsize_
0001:0001c5a0* _msize_
Module: /mnt/sda5/.user/root/src/openwatcom-1.9/rel2/lib386/dos/clib3r.lib(nexpand.c)
0001:0001c5b0  _nexpand_
0001:0001c5b0* _expand_
0001:0001c620+ __HeapManager_expand_
Module: /mnt/sda5/.user/root/src/openwatcom-1.9/rel2/lib386/dos/clib3r.lib(getenv.c)
0001:0001c7f0  getenv_
Module: /mnt/sda5/.user/root/src/openwatcom-1.9/rel2/lib386/dos/clib3r.lib(intr.c)
0001:0001c880  intr_
Module: /mnt/sda5/.user/root/src/openwatcom-1.9/bld/sdk/rc/wres/small386/ms_r/wres.lib(wriidfn.c)
0001:0001c890  WResInitIDFromNum_
Module: /mnt/sda5/.user/root/src/openwatcom-1.9/bld/sdk/rc/wres/small386/ms_r/wres.lib(wrfindrs.c)
0001:0001c8a0  __FindType_
0001:0001c8c4  __FindRes_
0001:0001c8e8  __FindLang_
0001:0001c924  WResFindResource_
Module: /mnt/sda5/.user/root/src/openwatcom-1.9/bld/sdk/rc/wres/small386/ms_r/wres.lib(wrgetli.c)
0001:0001c9a0  WResGetLangInfo_
0001:0001c9b4* WResGetFileInfo_
Module: /mnt/sda5/.user/root/src/openwatcom-1.9/bld/sdk/rc/wres/small386/ms_r/wres.lib(ropenfro.c)
0001:0001c9d0  ResOpenFileRO_
Module: /mnt/sda5/.user/root/src/openwatcom-1.9/bld/sdk/rc/wres/small386/ms_r/wres.lib(wrinitdi.c)
0001:0001ca20  WResInitDir_
Module: /mnt/sda5/.user/root/src/openwatcom-1.9/bld/sdk/rc/wres/small386/ms_r/wres.lib(wrreaddi.c)
0001:0001d1ac  WResReadDir_
0001:0001d1b8+ WResReadDir2_
Module: /mnt/sda5/.user/root/src/openwatcom-1.9/bld/sdk/rc/wres/small386/ms_r/wres.lib(wrfreedi.c)
0001:0001d270+ __FreeLangList_
0001:0001d29c+ __FreeResList_
0001:0001d2d4  __FreeTypeList_
0001:0001d30c  WResFreeDir_
Module: /mnt/sda5/.user/root/src/openwatcom-1.9/bld/sdk/rc/wres/small386/ms_r/wres.lib(rclosef.c)
0001:0001d330  ResCloseFile_
Module: /mnt/sda5/.user/root/src/openwatcom-1.9/rel2/lib386/dos/clib3r.lib(comtflag.c)
0001:0001d350* __set_commode_
0002:0001cc98  __commode
Module: /mnt/sda5/.user/root/src/openwatcom-1.9/rel2/lib386/dos/clib3r.lib(chktty.c)
0001:0001d360  __chktty_
Module: /mnt/sda5/.user/root/src/openwatcom-1.9/rel2/lib386/dos/clib3r.lib(freefp.c)
0001:0001d3a0  __freefp_
0001:0001d3e0  __purgefp_
Module: /mnt/sda5/.user/root/src/openwatcom-1.9/rel2/lib386/dos/clib3r.lib(allocfp.c)
0001:0001d410  __allocfp_
Module: /mnt/sda5/.user/root/src/openwatcom-1.9/rel2/lib386/dos/clib3r.lib(fflush.c)
0001:0001d4d0  fflush_
Module: /mnt/sda5/.user/root/src/openwatcom-1.9/rel2/lib386/dos/clib3r.lib(flushall.c)
0001:0001d4e0  __flushall_
0001:0001d520  flushall_
Module: /mnt/sda5/.user/root/src/openwatcom-1.9/rel2/lib386/dos/clib3r.lib(gtche.c)
0001:0001d530  getche_
Module: /mnt/sda5/.user/root/src/openwatcom-1.9/rel2/lib386/dos/clib3r.lib(ioalloc.c)
0001:0001d550  __ioalloc_
Module: /mnt/sda5/.user/root/src/openwatcom-1.9/rel2/lib386/dos/clib3r.lib(qread.c)
0001:0001d5f0  __qread_
Module: /mnt/sda5/.user/root/src/openwatcom-1.9/rel2/lib386/dos/clib3r.lib(flush.c)
0001:0001d620  __flush_
Module: /mnt/sda5/.user/root/src/openwatcom-1.9/rel2/lib386/dos/clib3r.lib(alphabet.c)
0002:00000f80  ___Alphabet
Module: /mnt/sda5/.user/root/src/openwatcom-1.9/rel2/lib386/dos/clib3r.lib(xmsg.c)
0001:0001d710* __exit_with_msg_
0001:0001d720  __fatal_runtime_error_
Module: /mnt/sda5/.user/root/src/openwatcom-1.9/rel2/lib386/dos/clib3r.lib(sgdef086)
0002:0001cd20  __Start_XI
0002:0001cd44  __End_XI
0002:0001cd44  __Start_YI
0002:0001cd62  __End_YI
Module: /mnt/sda5/.user/root/src/openwatcom-1.9/rel2/lib386/dos/clib3r.lib(mbterm.c)
0001:0001d740  _mbterm_
Module: /mnt/sda5/.user/root/src/openwatcom-1.9/rel2/lib386/dos/clib3r.lib(mbsnbcpy.c)
0001:0001d780  _mbsnbcpy_
Module: /mnt/sda5/.user/root/src/openwatcom-1.9/rel2/lib386/dos/clib3r.lib(mbisdbcs.c)
0002:0001e790  ___IsDBCS
Module: /mnt/sda5/.user/root/src/openwatcom-1.9/rel2/lib386/dos/clib3r.lib(mbislead.c)
0001:0001d7e0* _ismbblead_
0002:0001e794  ___MBCSIsTable
Module: /mnt/sda5/.user/root/src/openwatcom-1.9/rel2/lib386/dos/clib3r.lib(wctomb.c)
0001:0001d800  wctomb_
Module: /mnt/sda5/.user/root/src/openwatcom-1.9/rel2/lib386/dos/clib3r.lib(noefgfmt.c)
0002:0001cc9c  ___EFG_printf
0002:0001cca0* ___EFG_scanf
Module: /mnt/sda5/.user/root/src/openwatcom-1.9/rel2/lib386/dos/clib3r.lib(lltoa.c)
0001:0001d850  ulltoa_
0001:0001d8c0* lltoa_
Module: /mnt/sda5/.user/root/src/openwatcom-1.9/rel2/lib386/dos/clib3r.lib(ltoa.c)
0001:0001d8f0  ultoa_
0001:0001d940* ltoa_
Module: /mnt/sda5/.user/root/src/openwatcom-1.9/bld/orl/osi386/orl.lib(/mnt/sda5/.user/root/src/openwatcom-1.9/bld/orl/elf/c/elfflhn.c)
0001:0001da20  ElfAddFileLinks_
0001:0001da30  ElfRemoveFileLinks_
Module: /mnt/sda5/.user/root/src/openwatcom-1.9/bld/orl/osi386/orl.lib(/mnt/sda5/.user/root/src/openwatcom-1.9/bld/orl/elf/c/elfload.c)
0001:0001f100  ElfLoadFileStructure_
Module: /mnt/sda5/.user/root/src/openwatcom-1.9/bld/orl/osi386/orl.lib(/mnt/sda5/.user/root/src/openwatcom-1.9/bld/orl/elf/c/elflwlv.c)
0001:0001fcc0  ElfCreateSymbolHandles_
0001:0001fe70  ElfBuildSecNameHashTable_
0001:000200d0+ ElfConvertRelocType_
0001:000201b0  ElfCreateRelocs_
0001:00020610  ElfParseDrectve_
Module: /mnt/sda5/.user/root/src/openwatcom-1.9/bld/orl/osi386/orl.lib(/mnt/sda5/.user/root/src/openwatcom-1.9/bld/orl/c/orlhash.c)
0001:00020700* ORLNumberCmp_
0001:00020750  ORLHashTableInsert_
0001:00020810  ORLHashTableQuery_
0001:00020870  ORLHashTableCreate_
0001:000208e0  ORLHashTableFree_
Module: /mnt/sda5/.user/root/src/openwatcom-1.9/bld/orl/osi386/orl.lib(/mnt/sda5/.user/root/src/openwatcom-1.9/bld/orl/coff/c/coffflhn.c)
0001:00020a50  CoffAddFileLinks_
0001:00020a60  CoffRemoveFileLinks_
Module: /mnt/sda5/.user/root/src/openwatcom-1.9/bld/orl/osi386/orl.lib(/mnt/sda5/.user/root/src/openwatcom-1.9/bld/orl/coff/c/coffload.c)
0001:000212a0  CoffLoadFileStructure_
Module: /mnt/sda5/.user/root/src/openwatcom-1.9/bld/orl/osi386/orl.lib(/mnt/sda5/.user/root/src/openwatcom-1.9/bld/orl/coff/c/cofflwlv.c)
0001:000217f0  CoffCreateSymbolHandles_
0001:00021c00  CoffBuildSecNameHashTable_
0001:00021cc0+ CoffConvertRelocType_
0001:00021e90  CoffCreateRelocs_
0001:00021f90  CoffConvertLines_
0001:000222b0  CoffParseDrectve_
Module: /mnt/sda5/.user/root/src/openwatcom-1.9/bld/orl/osi386/orl.lib(/mnt/sda5/.user/root/src/openwatcom-1.9/bld/orl/omf/c/omfflhn.c)
0001:00022660  OmfAddFileLinks_
0001:00022670  OmfRemoveFileLinks_
Module: /mnt/sda5/.user/root/src/openwatcom-1.9/bld/orl/osi386/orl.lib(/mnt/sda5/.user/root/src/openwatcom-1.9/bld/orl/omf/c/omfload.c)
0001:000226f0  OmfGetWordSize_
0001:00022820+ loadIndex_
0001:000239e0  OmfLoadFileStructure_
0001:00023a60  OmfParseScanTab_
Module: /mnt/sda5/.user/root/src/openwatcom-1.9/bld/orl/osi386/orl.lib(/mnt/sda5/.user/root/src/openwatcom-1.9/bld/orl/omf/c/omfmunge.c)
0001:00024620  OmfModEnd_
0001:00024a00  OmfAddLIData_
0001:00024b50  OmfAddLEData_
0001:00024be0  OmfAddLName_
0001:00024c90  OmfAddFixupp_
0001:00024f80  OmfAddExtDef_
0001:00025070  OmfAddComDat_
0001:00025330  OmfAddLineNum_
0001:00025380  OmfAddSegDef_
0001:000254c0  OmfAddPubDef_
0001:00025580  OmfAddGrpDef_
0001:00025660  OmfAddComment_
0001:00025740  OmfGetLName_
0001:000257a0  OmfGetPtrToLName_
0001:000257d0  OmfFindSegOrComdat_
0001:00025840  OmfExportSegmentContents_
0001:00025860  OmfTheadr_
Module: /mnt/sda5/.user/root/src/openwatcom-1.9/bld/orl/osi386/orl.lib(/mnt/sda5/.user/root/src/openwatcom-1.9/bld/orl/omf/c/omfdrctv.c)
0001:000258d0  OmfParseComments_
Module: /mnt/sda5/.user/root/src/openwatcom-1.9/rel2/lib386/dos/clib3r.lib(doserror)
0001:0002597c  __doserror_
Module: /mnt/sda5/.user/root/src/openwatcom-1.9/rel2/lib386/dos/clib3r.lib(initfile.c)
0001:00025990  __InitFiles_
Module: /mnt/sda5/.user/root/src/openwatcom-1.9/rel2/lib386/dos/clib3r.lib(ioexit.c)
0001:00025a90* fcloseall_
0001:00025aa0  __full_io_exit_
Module: /mnt/sda5/.user/root/src/openwatcom-1.9/rel2/lib386/dos/clib3r.lib(cinit.c)
0001:00025ab0  __CommonInit_
Module: /mnt/sda5/.user/root/src/openwatcom-1.9/rel2/lib386/dos/clib3r.lib(___argc.c)
0002:0001e898  ____Argc
0002:0001e89c  ____Argv
Module: /mnt/sda5/.user/root/src/openwatcom-1.9/rel2/lib386/dos/clib3r.lib(histsplt.c)
0002:0001e8a0  ___historical_splitparms
Module: /mnt/sda5/.user/root/src/openwatcom-1.9/rel2/lib386/dos/clib3r.lib(heapen.c)
0001:00025b10* _heapenable_
0002:0001ccbc  ___heap_enabled
Module: /mnt/sda5/.user/root/src/openwatcom-1.9/rel2/lib386/dos/clib3r.lib(minreal.c)
0002:0001e8a4  ___minreal
Module: /mnt/sda5/.user/root/src/openwatcom-1.9/rel2/lib386/dos/clib3r.lib(amblksiz.c)
0002:0001ccc0  __amblksiz
Module: /mnt/sda5/.user/root/src/openwatcom-1.9/rel2/lib386/dos/clib3r.lib(sbrk386.c)
0001:00025b20* sbrk_
0001:00025c00  __brk_
Module: /mnt/sda5/.user/root/src/openwatcom-1.9/rel2/lib386/dos/clib3r.lib(environ.c)
0002:0001e8a8  ___env_mask
0002:0001e8ac  _environ
0002:0001e8b0* __wenviron
Module: /mnt/sda5/.user/root/src/openwatcom-1.9/rel2/lib386/dos/clib3r.lib(mbcupper.c)
0001:00025d20  _mbctoupper_
Module: /mnt/sda5/.user/root/src/openwatcom-1.9/rel2/lib386/dos/clib3r.lib(int386xa)
0001:00025d3c* __int386x_
0001:00025d98  _DoINTR_
Module: /mnt/sda5/.user/root/src/openwatcom-1.9/bld/sdk/rc/wres/small386/ms_r/wres.lib(wridcmp.c)
0001:00026120  WResIDCmp_
Module: /mnt/sda5/.user/root/src/openwatcom-1.9/rel2/lib386/dos/clib3r.lib(setmd.c)
0001:00026160  setmode_
Module: /mnt/sda5/.user/root/src/openwatcom-1.9/bld/sdk/rc/wres/small386/ms_r/wres.lib(wrerror.c)
0001:00026220  WresRecordError_
Module: /mnt/sda5/.user/root/src/openwatcom-1.9/bld/sdk/rc/wres/small386/ms_r/wres.lib(ralliae.c)
0001:00026230  ResAddLLItemAtEnd_
Module: /mnt/sda5/.user/root/src/openwatcom-1.9/bld/sdk/rc/wres/small386/ms_r/wres.lib(wrrfrr.c)
0001:00026260  WResReadFixedResRecord_
0001:000262a0  WResReadFixedResRecord1_
0001:000262e0  WResReadFixedResRecord2_
Module: /mnt/sda5/.user/root/src/openwatcom-1.9/bld/sdk/rc/wres/small386/ms_r/wres.lib(wridexby.c)
0001:00026360  WResIDExtraBytes_
Module: /mnt/sda5/.user/root/src/openwatcom-1.9/bld/sdk/rc/wres/small386/ms_r/wres.lib(wrrewrid.c)
0001:00026370  WResReadExtraWResID_
Module: /mnt/sda5/.user/root/src/openwatcom-1.9/bld/sdk/rc/wres/small386/ms_r/wres.lib(wrrftr.c)
0001:000263d0  WResReadFixedTypeRecord_
0001:00026418  WResReadFixedTypeRecord2_
Module: /mnt/sda5/.user/root/src/openwatcom-1.9/bld/sdk/rc/wres/small386/ms_r/wres.lib(wrrhr.c)
0001:00026490  WResReadHeaderRecord_
0001:00026508  WResReadExtHeader_
Module: /mnt/sda5/.user/root/src/openwatcom-1.9/bld/sdk/rc/wres/small386/ms_r/wres.lib(mrrdrh.c)
0001:00026550  M32ResReadResourceHeader_
0001:000266bc  MResReadResourceHeader_
Module: /mnt/sda5/.user/root/src/openwatcom-1.9/bld/sdk/rc/wres/small386/ms_r/wres.lib(wrfree.c)
0001:00026760  MResFreeResourceHeader_
Module: /mnt/sda5/.user/root/src/openwatcom-1.9/bld/sdk/rc/wres/small386/ms_r/wres.lib(wridfnoo.c)
0001:000267a0  WResIDFromNameOrOrd_
Module: /mnt/sda5/.user/root/src/openwatcom-1.9/bld/sdk/rc/wres/small386/ms_r/wres.lib(wraddres.c)
0001:0002691c* WResAddResource_
0001:00026978  WResAddResource2_
Module: /mnt/sda5/.user/root/src/openwatcom-1.9/bld/sdk/rc/wres/small386/ms_r/wres.lib(wriswrf.c)
0001:00026aa0  WResFindResType_
0001:00026b38* WResIsWResFile_
Module: /mnt/sda5/.user/root/src/openwatcom-1.9/rel2/lib386/dos/clib3r.lib(qwrit.c)
0001:00026b50  __qwrite_
Module: /mnt/sda5/.user/root/src/openwatcom-1.9/rel2/lib386/dos/clib3r.lib(fsync.c)
0001:00026bd0  fsync_
Module: /mnt/sda5/.user/root/src/openwatcom-1.9/rel2/lib386/dos/clib3r.lib(enterdb.c)
0001:00026be0  __EnterWVIDEO_
0002:0001ccc4+ ___WD_Present
Module: /mnt/sda5/.user/root/src/openwatcom-1.9/rel2/lib386/dos/clib3r.lib(mbinit.c)
0001:00026c40  __mbinit_
0001:00026d11+ dos_get_dbcs_lead_table_
0001:00026e05+ dos_get_code_page_
0002:0001ccc8  ___MBCodePage
Module: /mnt/sda5/.user/root/src/openwatcom-1.9/rel2/lib386/dos/clib3r.lib(i8d)
0001:00026fa0* __I8D
0001:00026ff5  __U8D
Module: /mnt/sda5/.user/root/src/openwatcom-1.9/bld/orl/osi386/orl.lib(/mnt/sda5/.user/root/src/openwatcom-1.9/bld/orl/coff/c/coffimpl.c)
0001:00027670+ getImportName_
0001:00027f50  convert_import_library_
0002:0001cd0c  _ImportLibData
Module: /mnt/sda5/.user/root/src/openwatcom-1.9/rel2/lib386/dos/clib3r.lib(atoi.c)
0001:00027fe0  atoi_
Module: /mnt/sda5/.user/root/src/openwatcom-1.9/rel2/lib386/dos/clib3r.lib(strstr.c)
0001:00028030  strstr_
Module: /mnt/sda5/.user/root/src/openwatcom-1.9/rel2/lib386/dos/clib3r.lib(dpmihost.c)
0001:00028100  __DPMI_hosted_
Module: /mnt/sda5/.user/root/src/openwatcom-1.9/rel2/lib386/dos/clib3r.lib(setenvp.c)
0001:000281a0  __setenvp_
0001:00028280  __freeenvp_
Module: /mnt/sda5/.user/root/src/openwatcom-1.9/rel2/lib386/dos/clib3r.lib(mbdtoupp.c)
0001:000282d0  _mbdtoupper_
Module: /mnt/sda5/.user/root/src/openwatcom-1.9/bld/sdk/rc/wres/small386/ms_r/wres.lib(wridnacm.c)
0001:00028330  WResIDNameCmp_
Module: /mnt/sda5/.user/root/src/openwatcom-1.9/bld/sdk/rc/wres/small386/ms_r/wres.lib(resseek.c)
0001:00028380* ResSeek_
0001:000283a0  ResPadDWord_
Module: /mnt/sda5/.user/root/src/openwatcom-1.9/bld/sdk/rc/wres/small386/ms_r/wres.lib(rduint32.c)
0001:00028400  ResReadUint32_
Module: /mnt/sda5/.user/root/src/openwatcom-1.9/bld/sdk/rc/wres/small386/ms_r/wres.lib(rrnamoor.c)
0001:00028450  ResReadNameOrOrdinal_
0001:00028540  ResRead32NameOrOrdinal_
Module: /mnt/sda5/.user/root/src/openwatcom-1.9/bld/sdk/rc/wres/small386/ms_r/wres.lib(rduint16.c)
0001:00028630  ResReadUint16_
Module: /mnt/sda5/.user/root/src/openwatcom-1.9/bld/sdk/rc/wres/small386/ms_r/wres.lib(wridfrst.c)
0001:00028680  WResIDFromStr_
Module: /mnt/sda5/.user/root/src/openwatcom-1.9/bld/sdk/rc/wres/small386/ms_r/wres.lib(wridfrnu.c)
0001:00028700  WResIDFromNum_
Module: /mnt/sda5/.user/root/src/openwatcom-1.9/bld/sdk/rc/wres/small386/ms_r/wres.lib(wrfirres.c)
0001:00028760* WResFirstResource_
0001:00028790  WResSetEmptyWindow_
0001:000287ac  WResMakeWindow_
Module: /mnt/sda5/.user/root/src/openwatcom-1.9/rel2/lib386/dos/clib3r.lib(filedos.c)
0001:000287c0* _dos_close_
0001:000287d0  _dos_commit_
Module: /mnt/sda5/.user/root/src/openwatcom-1.9/rel2/lib386/dos/clib3r.lib(intdx386.c)
0001:000287e0  intdosx_
Module: /mnt/sda5/.user/root/src/openwatcom-1.9/rel2/lib386/dos/clib3r.lib(inirmsel.c)
0002:0001e8b8  __ExtenderRealModeSelector
Module: /mnt/sda5/.user/root/src/openwatcom-1.9/rel2/lib386/dos/clib3r.lib(clearenv.c)
0001:00028960  clearenv_
Module: /mnt/sda5/.user/root/src/openwatcom-1.9/bld/sdk/rc/wres/small386/ms_r/wres.lib(rduint8.c)
0001:000289f0  ResReadUint8_
Module: /mnt/sda5/.user/root/src/openwatcom-1.9/bld/sdk/rc/wres/small386/ms_r/wres.lib(rrdstr.c)
0001:00028a40  ResReadString_
0001:00028ab0  ResRead32String_
Module: /mnt/sda5/.user/root/src/openwatcom-1.9/bld/sdk/rc/wres/small386/ms_r/wres.lib(varstr.c)
0001:00028b30  VarStringStart_
0001:00028b64  VarStringAddChar_
0001:00028bbc  VarStringEnd_


                        +----------------------+
                        |   Imported Symbols   |
                        +----------------------+

Symbol                              Module
======                              ======



                        +--------------------+
                        |   Libraries Used   |
                        +--------------------+

/mnt/sda5/.user/root/src/openwatcom-1.9/bld/orl/osi386/orl.lib
/mnt/sda5/.user/root/src/openwatcom-1.9/bld/sdk/rc/wres/small386/ms_r/wres.lib
/mnt/sda5/.user/root/src/openwatcom-1.9/rel2/lib386/dos/clib3r.lib


                        +-----------------------+
                        |   Linker Statistics   |
                        +-----------------------+

Stack size:  00010000 (65536.)
Memory size:  00057511 (357649.)
Entry point address: 0001:00017ac4
Link time: 00:00.00
