Open Watcom Linker Version 1.9
Portions Copyright (c) 1985-2002 Sybase, Inc. All Rights Reserved.
Created on:       12/12/16 02:40:58
Executable Image: madx86.dll
creating a Windows NT character-mode dynamic link library


                        +------------+
                        |   Groups   |
                        +------------+

Group                           Address              Size
=====                           =======              ====

DGROUP                          6eb1b000             00000968



                        +--------------+
                        |   Segments   |
                        +--------------+

Segment                Class          Group          Address         Size
=======                =====          =====          =======         ====

_TEXT                  CODE           AUTO           6eb01000        00019c83
CONST                  DATA           DGROUP         6eb1b000        00000000
CONST2                 DATA           DGROUP         6eb1b000        00000000
_DATA                  DATA           DGROUP         6eb1b000        0000084c
_BSS                   BSS            DGROUP         6eb1b84c        0000011c


                        +----------------+
                        |   Memory Map   |
                        +----------------+

* = unreferenced symbol
+ = symbol only referenced locally

Address        Symbol
=======        ======

Module: madimp.obj(/mnt/sda5/.user/root/src/openwatcom-1.9/bld/mad/c/madimp.c)
6eb01000       MADLOAD
6eb01020*      MCAlloc_
6eb01030*      MCRealloc_
6eb01040*      MCFree_
6eb01050*      MCOpen_
6eb01060*      MCSeek_
6eb01070*      MCRead_
6eb01080*      MCClose_
6eb01090       MCReadMem_
6eb010c0       MCWriteMem_
6eb010f0       MCString_
6eb01100*      MCAddString_
6eb01110       MCRadixPrefix_
6eb01120       MCNotify_
6eb01130       MCMachineData_
6eb01170       MCAddrToString_
6eb011b0       MCMemExpr_
6eb011c0       MCAddrSection_
6eb011d0       MCAddrOvlReturn_
6eb011e0       MCSystemConfig_
6eb011f0       MCTypeInfoForHost_
6eb01200*      MCTypeConvert_
6eb01220       MCTypeToString_
6eb01240*      MCStatus_
6eb1b000+      _MadImpInterface
6eb1b84c*      __nullarea
6eb1b850+      _MadClient
Module: disentry.obj(/mnt/sda5/.user/root/src/openwatcom-1.9/bld/ndisasm/core/c/disentry.c)
6eb01260       _X86MaxInsName
6eb01261+      _DisStringTable
6eb01e74       _DisInstructionTable
6eb053c4+      _DisRegisterTable
6eb05450       _DisRefTypeTable
6eb05480       _X86RangeTable
6eb056a8       _X86RangeTablePos
6eb056c0+      _DisSelectorTable
6eb0d390       SEX_
6eb0d3b0       DisGetString_
6eb0d400*      DisDummyHandler_
6eb0d410       DisInit_
6eb0d430       DisFini_
6eb0d440       DisDecodeInit_
6eb0d4b0       DisDecode_
6eb0d600       DisAddReg_
6eb0d640+      DisOpFormat_
6eb0d820       DisFormat_
6eb0d980       DisInsNameMax_
6eb0d990*      DisInsSizeInc_
Module: disx86.obj(/mnt/sda5/.user/root/src/openwatcom-1.9/bld/ndisasm/core/c/disx86.c)
6eb0d9e4       _X86Data
6eb0daa0       X86PrefixFwait_
6eb0db20       X86PrefixOpnd_
6eb0db40       X86PrefixAddr_
6eb0db60       X86PrefixRepe_
6eb0db70       X86PrefixRepne_
6eb0db80       X86PrefixLock_
6eb0db90       X86PrefixCS_
6eb0dba0       X86PrefixSS_
6eb0dbb0       X86PrefixDS_
6eb0dbc0       X86PrefixES_
6eb0dbd0       X86PrefixFS_
6eb0dbe0       X86PrefixGS_
6eb0dc10+      X86GetRegister_D_
6eb0dc60+      X86GetRegister_W_
6eb0dcb0+      X86GetRegister_B_
6eb0dd00+      X86FGetSTReg_
6eb0dd50+      X86GetMMReg_
6eb0dda0+      X86GetXMMReg_
6eb0dde0+      X86GetCRegister_
6eb0de20+      X86GetDRegister_
6eb0de60+      X86GetTRegister_
6eb0dea0+      X86GetSRegister_
6eb0ded0+      X86GetRegister_
6eb0df60+      X86GetRegisterAddr_
6eb0e940+      X86GetRefType_
6eb0eac0+      X86FGetRefType_
6eb0eae0+      X86FGetRefTypeEnv_
6eb0ed10+      X86GetRegModRM_B_
6eb0edc0       X86SReg_8_
6eb0ee90       X86NoOp_8_
6eb0f000       X86String_8_
6eb0f200       X86ImmAcc_8_
6eb0f2a0       X86MemAbsAcc_8_
6eb0f380       X86Abs_8_
6eb0f3a0       X86Rel_8_
6eb0f3c0       X86Imm_8_
6eb0f540       X86ImmReg_8_
6eb0f580       X86ImmImm_8_
6eb0f5d0       X86Reg_8_
6eb0f700       X86AccAcc_8_
6eb0f760       X86JmpCC_8_
6eb0f7f0       X86Shift_16_
6eb0f8a0       X86SReg_16_
6eb0f980       X86NoOp_16_
6eb0f990       X86ModRM_16_
6eb0fa80       X86ModRMImm_16_
6eb0fb70*      X86ModRMAcc_16_
6eb0fbd0       X86RegModRM_16_
6eb0fc30       X86RegModRM_test_
6eb0fc90       X86RegModRM_bound_
6eb0fcf0       X86RegModRM_16B_
6eb0fde0       X86Reg_16_
6eb0fe00       X86JmpCC_16_
6eb0fe20       X86SRegModRM_16_
6eb0ff00       X86SetCC_
6eb0ff50       X86MovCC_24_
6eb0ffc0       X86CRegReg_24_
6eb10070       X86DRegReg_24_
6eb10120       X86TRegReg_24_
6eb101d0       X86ModRMImm_24_
6eb10240       X86NoOp_24_
6eb10250       X86ModRM_24_
6eb102d0       X86RegModRM_24_
6eb10330       X86RegModRM_24B_
6eb10550       X86RegModRM_24C_
6eb10620       X86FTypeCond_
6eb10650       X86FType3_
6eb10710       X86FType3B_
6eb10740       X86FType3C_
6eb10770       X86FType2_
6eb107e0       X86FTypeFSTSWAX_
6eb10820       X86FType4_
6eb10880       X86FType1_
6eb109a0       X86FTypeEnv_
6eb10b60       X86MMRegModRM_
6eb10bb0       X86MMRegModRMImm_
6eb10c10       X86MMRegModRM_Rev_
6eb10c60       X86MMRegImm_
6eb10c90       X86XMMRegModRM_
6eb10ce0       X86XMMRegModRMImm_
6eb10d40       X86XMMRegModRM_Rev_
6eb10d90       X86XMMRegImm_
6eb10dd0       X86XMMRegModRM64_
6eb10e20       X86XMMRegModRM64Imm_
6eb10e80       X86XMMRegModRM64_Rev_
6eb10ed0       X86XMMRegModRM32_
6eb10f20       X86XMMRegModRM32Imm_
6eb10f80       X86XMMRegModRM32_Rev_
6eb10fd0       X86RegModRM32_Rev_
6eb11030       X86MMRegModRMMixed_
6eb11120       X86MMRegModRMMixedImm_
6eb111b0       X86MMRegModRMMixed_Rev_
6eb11210       X86XMMRegModRMMixed_
6eb112d0       X86XMMRegModRMMixedImm_
6eb11360       X86XMMRegModRMMixed_Rev_
6eb113c0       X86RegModRMMixed_
6eb114c0       X86RegModRMMixedImm_
6eb11550       X86_3DNow_
6eb11dc0*      DisAddUnixReg_
Module: x86addr.obj(/mnt/sda5/.user/root/src/openwatcom-1.9/bld/mad/x86/c/x86addr.c)
6eb12460       MIAddrAdd_
6eb124b0       MIAddrComp_
6eb12580       MIAddrDiff_
6eb125f0       MIAddrMap_
6eb12640       MIAddrFlat_
6eb12670       MIAddrInterrupt_
6eb126e0       AddrCharacteristics_
Module: x86ctrl.obj(/mnt/sda5/.user/root/src/openwatcom-1.9/bld/mad/x86/c/x86ctrl.c)
6eb12710       MIInit_
6eb12730       MIFini_
6eb12740       MIStateSize_
6eb12750       MIStateInit_
6eb12780       MIStateSet_
6eb12790       MIStateCopy_
6eb1b854       _MADState
Module: x86types.obj(/mnt/sda5/.user/root/src/openwatcom-1.9/bld/mad/x86/c/x86types.c)
6eb12bf0       MITypeWalk_
6eb12cd0       MITypeName_
6eb12ce0       MITypePreferredRadix_
6eb12d00       MITypeInfo_
6eb12d80       MITypeDefault_
6eb12e50       MITypeToString_
6eb12ef0       MITypeForDIPType_
6eb12ff0       MITypeConvert_
Module: x86reg.obj(/mnt/sda5/.user/root/src/openwatcom-1.9/bld/mad/x86/c/x86reg.c)
6eb13228       _CPU_eax
6eb1323c       _CPU_ebx
6eb13250       _CPU_ecx
6eb13264       _CPU_edx
6eb13278+      _CPU_esi
6eb1328c+      _CPU_edi
6eb132a0+      _CPU_ebp
6eb132b4+      _CPU_esp
6eb132c8+      _CPU_eip
6eb132dc+      _CPU_efl
6eb132f0       _CPU_ax
6eb13304       _CPU_bx
6eb13318       _CPU_cx
6eb1332c       _CPU_dx
6eb13340+      _CPU_si
6eb13354+      _CPU_di
6eb13368+      _CPU_bp
6eb1337c+      _CPU_sp
6eb13390+      _CPU_ip
6eb133a4+      _CPU_fl
6eb133b8+      _CPU_al
6eb133cc+      _CPU_bl
6eb133e0+      _CPU_cl
6eb133f4+      _CPU_dl
6eb13408+      _CPU_ah
6eb1341c+      _CPU_bh
6eb13430+      _CPU_ch
6eb13444+      _CPU_dh
6eb13458+      _CPU_cs
6eb1346c+      _CPU_ds
6eb13480+      _CPU_es
6eb13494+      _CPU_ss
6eb134a8+      _CPU_fs
6eb134bc+      _CPU_gs
6eb134d0+      _CPU_vm
6eb134e4+      _CPU_rf
6eb134f8+      _CPU_nt
6eb1350c+      _CPU_iopl
6eb13520+      _CPU_o
6eb13534+      _CPU_d
6eb13548+      _CPU_i
6eb1355c+      _CPU_s
6eb13570+      _CPU_z
6eb13584+      _CPU_a
6eb13598+      _CPU_p
6eb135ac+      _CPU_c
6eb135c0+      _FPU_st0
6eb135d4+      _FPU_st1
6eb135e8+      _FPU_st2
6eb135fc+      _FPU_st3
6eb13610+      _FPU_st4
6eb13624+      _FPU_st5
6eb13638+      _FPU_st6
6eb1364c+      _FPU_st7
6eb13660+      _FPU_sw
6eb13674+      _FPU_cw
6eb13688+      _FPU_tag
6eb1369c+      _FPU_tag0
6eb136b0+      _FPU_tag1
6eb136c4+      _FPU_tag2
6eb136d8+      _FPU_tag3
6eb136ec+      _FPU_tag4
6eb13700+      _FPU_tag5
6eb13714+      _FPU_tag6
6eb13728+      _FPU_tag7
6eb1373c+      _FPU_iptr
6eb13750+      _FPU_optr
6eb13764+      _FPU_ie
6eb13778+      _FPU_de
6eb1378c+      _FPU_ze
6eb137a0+      _FPU_oe
6eb137b4+      _FPU_ue
6eb137c8+      _FPU_pe
6eb137dc+      _FPU_sf
6eb137f0+      _FPU_c0
6eb13804+      _FPU_es
6eb13818+      _FPU_c1
6eb1382c+      _FPU_c2
6eb13840+      _FPU_st
6eb13854+      _FPU_c3
6eb13868+      _FPU_b
6eb1387c+      _FPU_im
6eb13890+      _FPU_dm
6eb138a4+      _FPU_zm
6eb138b8+      _FPU_om
6eb138cc+      _FPU_um
6eb138e0+      _FPU_pm
6eb138f4+      _FPU_iem
6eb13908+      _FPU_pc
6eb1391c+      _FPU_rc
6eb13930+      _FPU_ic
6eb13a9c+      _MMX0_b0
6eb13ab0+      _MMX0_b1
6eb13ac4+      _MMX0_b2
6eb13ad8+      _MMX0_b3
6eb13aec+      _MMX0_b4
6eb13b00+      _MMX0_b5
6eb13b14+      _MMX0_b6
6eb13b28+      _MMX0_b7
6eb13b3c+      _MMX0_w0
6eb13b50+      _MMX0_w1
6eb13b64+      _MMX0_w2
6eb13b78+      _MMX0_w3
6eb13b8c+      _MMX0_d0
6eb13ba0+      _MMX0_d1
6eb13bb4+      _MMX0_q0
6eb13c08+      _MMX1_b0
6eb13c1c+      _MMX1_b1
6eb13c30+      _MMX1_b2
6eb13c44+      _MMX1_b3
6eb13c58+      _MMX1_b4
6eb13c6c+      _MMX1_b5
6eb13c80+      _MMX1_b6
6eb13c94+      _MMX1_b7
6eb13ca8+      _MMX1_w0
6eb13cbc+      _MMX1_w1
6eb13cd0+      _MMX1_w2
6eb13ce4+      _MMX1_w3
6eb13cf8+      _MMX1_d0
6eb13d0c+      _MMX1_d1
6eb13d20+      _MMX1_q0
6eb13d74+      _MMX2_b0
6eb13d88+      _MMX2_b1
6eb13d9c+      _MMX2_b2
6eb13db0+      _MMX2_b3
6eb13dc4+      _MMX2_b4
6eb13dd8+      _MMX2_b5
6eb13dec+      _MMX2_b6
6eb13e00+      _MMX2_b7
6eb13e14+      _MMX2_w0
6eb13e28+      _MMX2_w1
6eb13e3c+      _MMX2_w2
6eb13e50+      _MMX2_w3
6eb13e64+      _MMX2_d0
6eb13e78+      _MMX2_d1
6eb13e8c+      _MMX2_q0
6eb13ee0+      _MMX3_b0
6eb13ef4+      _MMX3_b1
6eb13f08+      _MMX3_b2
6eb13f1c+      _MMX3_b3
6eb13f30+      _MMX3_b4
6eb13f44+      _MMX3_b5
6eb13f58+      _MMX3_b6
6eb13f6c+      _MMX3_b7
6eb13f80+      _MMX3_w0
6eb13f94+      _MMX3_w1
6eb13fa8+      _MMX3_w2
6eb13fbc+      _MMX3_w3
6eb13fd0+      _MMX3_d0
6eb13fe4+      _MMX3_d1
6eb13ff8+      _MMX3_q0
6eb1404c+      _MMX4_b0
6eb14060+      _MMX4_b1
6eb14074+      _MMX4_b2
6eb14088+      _MMX4_b3
6eb1409c+      _MMX4_b4
6eb140b0+      _MMX4_b5
6eb140c4+      _MMX4_b6
6eb140d8+      _MMX4_b7
6eb140ec+      _MMX4_w0
6eb14100+      _MMX4_w1
6eb14114+      _MMX4_w2
6eb14128+      _MMX4_w3
6eb1413c+      _MMX4_d0
6eb14150+      _MMX4_d1
6eb14164+      _MMX4_q0
6eb141b8+      _MMX5_b0
6eb141cc+      _MMX5_b1
6eb141e0+      _MMX5_b2
6eb141f4+      _MMX5_b3
6eb14208+      _MMX5_b4
6eb1421c+      _MMX5_b5
6eb14230+      _MMX5_b6
6eb14244+      _MMX5_b7
6eb14258+      _MMX5_w0
6eb1426c+      _MMX5_w1
6eb14280+      _MMX5_w2
6eb14294+      _MMX5_w3
6eb142a8+      _MMX5_d0
6eb142bc+      _MMX5_d1
6eb142d0+      _MMX5_q0
6eb14324+      _MMX6_b0
6eb14338+      _MMX6_b1
6eb1434c+      _MMX6_b2
6eb14360+      _MMX6_b3
6eb14374+      _MMX6_b4
6eb14388+      _MMX6_b5
6eb1439c+      _MMX6_b6
6eb143b0+      _MMX6_b7
6eb143c4+      _MMX6_w0
6eb143d8+      _MMX6_w1
6eb143ec+      _MMX6_w2
6eb14400+      _MMX6_w3
6eb14414+      _MMX6_d0
6eb14428+      _MMX6_d1
6eb1443c+      _MMX6_q0
6eb14490+      _MMX7_b0
6eb144a4+      _MMX7_b1
6eb144b8+      _MMX7_b2
6eb144cc+      _MMX7_b3
6eb144e0+      _MMX7_b4
6eb144f4+      _MMX7_b5
6eb14508+      _MMX7_b6
6eb1451c+      _MMX7_b7
6eb14530+      _MMX7_w0
6eb14544+      _MMX7_w1
6eb14558+      _MMX7_w2
6eb1456c+      _MMX7_w3
6eb14580+      _MMX7_d0
6eb14594+      _MMX7_d1
6eb145a8+      _MMX7_q0
6eb145fc+      _MMX_mm0
6eb14610+      _MMX_mm1
6eb14624+      _MMX_mm2
6eb14638+      _MMX_mm3
6eb1464c+      _MMX_mm4
6eb14660+      _MMX_mm5
6eb14674+      _MMX_mm6
6eb14688+      _MMX_mm7
6eb146c0+      _XMM0_b0
6eb146d4+      _XMM0_b1
6eb146e8+      _XMM0_b2
6eb146fc+      _XMM0_b3
6eb14710+      _XMM0_b4
6eb14724+      _XMM0_b5
6eb14738+      _XMM0_b6
6eb1474c+      _XMM0_b7
6eb14760+      _XMM0_b8
6eb14774+      _XMM0_b9
6eb14788+      _XMM0_b10
6eb1479c+      _XMM0_b11
6eb147b0+      _XMM0_b12
6eb147c4+      _XMM0_b13
6eb147d8+      _XMM0_b14
6eb147ec+      _XMM0_b15
6eb14800+      _XMM0_w0
6eb14814+      _XMM0_w1
6eb14828+      _XMM0_w2
6eb1483c+      _XMM0_w3
6eb14850+      _XMM0_w4
6eb14864+      _XMM0_w5
6eb14878+      _XMM0_w6
6eb1488c+      _XMM0_w7
6eb148a0+      _XMM0_d0
6eb148b4+      _XMM0_d1
6eb148c8+      _XMM0_d2
6eb148dc+      _XMM0_d3
6eb148f0+      _XMM0_q0
6eb14904+      _XMM0_q1
6eb14994+      _XMM1_b0
6eb149a8+      _XMM1_b1
6eb149bc+      _XMM1_b2
6eb149d0+      _XMM1_b3
6eb149e4+      _XMM1_b4
6eb149f8+      _XMM1_b5
6eb14a0c+      _XMM1_b6
6eb14a20+      _XMM1_b7
6eb14a34+      _XMM1_b8
6eb14a48+      _XMM1_b9
6eb14a5c+      _XMM1_b10
6eb14a70+      _XMM1_b11
6eb14a84+      _XMM1_b12
6eb14a98+      _XMM1_b13
6eb14aac+      _XMM1_b14
6eb14ac0+      _XMM1_b15
6eb14ad4+      _XMM1_w0
6eb14ae8+      _XMM1_w1
6eb14afc+      _XMM1_w2
6eb14b10+      _XMM1_w3
6eb14b24+      _XMM1_w4
6eb14b38+      _XMM1_w5
6eb14b4c+      _XMM1_w6
6eb14b60+      _XMM1_w7
6eb14b74+      _XMM1_d0
6eb14b88+      _XMM1_d1
6eb14b9c+      _XMM1_d2
6eb14bb0+      _XMM1_d3
6eb14bc4+      _XMM1_q0
6eb14bd8+      _XMM1_q1
6eb14c68+      _XMM2_b0
6eb14c7c+      _XMM2_b1
6eb14c90+      _XMM2_b2
6eb14ca4+      _XMM2_b3
6eb14cb8+      _XMM2_b4
6eb14ccc+      _XMM2_b5
6eb14ce0+      _XMM2_b6
6eb14cf4+      _XMM2_b7
6eb14d08+      _XMM2_b8
6eb14d1c+      _XMM2_b9
6eb14d30+      _XMM2_b10
6eb14d44+      _XMM2_b11
6eb14d58+      _XMM2_b12
6eb14d6c+      _XMM2_b13
6eb14d80+      _XMM2_b14
6eb14d94+      _XMM2_b15
6eb14da8+      _XMM2_w0
6eb14dbc+      _XMM2_w1
6eb14dd0+      _XMM2_w2
6eb14de4+      _XMM2_w3
6eb14df8+      _XMM2_w4
6eb14e0c+      _XMM2_w5
6eb14e20+      _XMM2_w6
6eb14e34+      _XMM2_w7
6eb14e48+      _XMM2_d0
6eb14e5c+      _XMM2_d1
6eb14e70+      _XMM2_d2
6eb14e84+      _XMM2_d3
6eb14e98+      _XMM2_q0
6eb14eac+      _XMM2_q1
6eb14f3c+      _XMM3_b0
6eb14f50+      _XMM3_b1
6eb14f64+      _XMM3_b2
6eb14f78+      _XMM3_b3
6eb14f8c+      _XMM3_b4
6eb14fa0+      _XMM3_b5
6eb14fb4+      _XMM3_b6
6eb14fc8+      _XMM3_b7
6eb14fdc+      _XMM3_b8
6eb14ff0+      _XMM3_b9
6eb15004+      _XMM3_b10
6eb15018+      _XMM3_b11
6eb1502c+      _XMM3_b12
6eb15040+      _XMM3_b13
6eb15054+      _XMM3_b14
6eb15068+      _XMM3_b15
6eb1507c+      _XMM3_w0
6eb15090+      _XMM3_w1
6eb150a4+      _XMM3_w2
6eb150b8+      _XMM3_w3
6eb150cc+      _XMM3_w4
6eb150e0+      _XMM3_w5
6eb150f4+      _XMM3_w6
6eb15108+      _XMM3_w7
6eb1511c+      _XMM3_d0
6eb15130+      _XMM3_d1
6eb15144+      _XMM3_d2
6eb15158+      _XMM3_d3
6eb1516c+      _XMM3_q0
6eb15180+      _XMM3_q1
6eb15210+      _XMM4_b0
6eb15224+      _XMM4_b1
6eb15238+      _XMM4_b2
6eb1524c+      _XMM4_b3
6eb15260+      _XMM4_b4
6eb15274+      _XMM4_b5
6eb15288+      _XMM4_b6
6eb1529c+      _XMM4_b7
6eb152b0+      _XMM4_b8
6eb152c4+      _XMM4_b9
6eb152d8+      _XMM4_b10
6eb152ec+      _XMM4_b11
6eb15300+      _XMM4_b12
6eb15314+      _XMM4_b13
6eb15328+      _XMM4_b14
6eb1533c+      _XMM4_b15
6eb15350+      _XMM4_w0
6eb15364+      _XMM4_w1
6eb15378+      _XMM4_w2
6eb1538c+      _XMM4_w3
6eb153a0+      _XMM4_w4
6eb153b4+      _XMM4_w5
6eb153c8+      _XMM4_w6
6eb153dc+      _XMM4_w7
6eb153f0+      _XMM4_d0
6eb15404+      _XMM4_d1
6eb15418+      _XMM4_d2
6eb1542c+      _XMM4_d3
6eb15440+      _XMM4_q0
6eb15454+      _XMM4_q1
6eb154e4+      _XMM5_b0
6eb154f8+      _XMM5_b1
6eb1550c+      _XMM5_b2
6eb15520+      _XMM5_b3
6eb15534+      _XMM5_b4
6eb15548+      _XMM5_b5
6eb1555c+      _XMM5_b6
6eb15570+      _XMM5_b7
6eb15584+      _XMM5_b8
6eb15598+      _XMM5_b9
6eb155ac+      _XMM5_b10
6eb155c0+      _XMM5_b11
6eb155d4+      _XMM5_b12
6eb155e8+      _XMM5_b13
6eb155fc+      _XMM5_b14
6eb15610+      _XMM5_b15
6eb15624+      _XMM5_w0
6eb15638+      _XMM5_w1
6eb1564c+      _XMM5_w2
6eb15660+      _XMM5_w3
6eb15674+      _XMM5_w4
6eb15688+      _XMM5_w5
6eb1569c+      _XMM5_w6
6eb156b0+      _XMM5_w7
6eb156c4+      _XMM5_d0
6eb156d8+      _XMM5_d1
6eb156ec+      _XMM5_d2
6eb15700+      _XMM5_d3
6eb15714+      _XMM5_q0
6eb15728+      _XMM5_q1
6eb157b8+      _XMM6_b0
6eb157cc+      _XMM6_b1
6eb157e0+      _XMM6_b2
6eb157f4+      _XMM6_b3
6eb15808+      _XMM6_b4
6eb1581c+      _XMM6_b5
6eb15830+      _XMM6_b6
6eb15844+      _XMM6_b7
6eb15858+      _XMM6_b8
6eb1586c+      _XMM6_b9
6eb15880+      _XMM6_b10
6eb15894+      _XMM6_b11
6eb158a8+      _XMM6_b12
6eb158bc+      _XMM6_b13
6eb158d0+      _XMM6_b14
6eb158e4+      _XMM6_b15
6eb158f8+      _XMM6_w0
6eb1590c+      _XMM6_w1
6eb15920+      _XMM6_w2
6eb15934+      _XMM6_w3
6eb15948+      _XMM6_w4
6eb1595c+      _XMM6_w5
6eb15970+      _XMM6_w6
6eb15984+      _XMM6_w7
6eb15998+      _XMM6_d0
6eb159ac+      _XMM6_d1
6eb159c0+      _XMM6_d2
6eb159d4+      _XMM6_d3
6eb159e8+      _XMM6_q0
6eb159fc+      _XMM6_q1
6eb15a8c+      _XMM7_b0
6eb15aa0+      _XMM7_b1
6eb15ab4+      _XMM7_b2
6eb15ac8+      _XMM7_b3
6eb15adc+      _XMM7_b4
6eb15af0+      _XMM7_b5
6eb15b04+      _XMM7_b6
6eb15b18+      _XMM7_b7
6eb15b2c+      _XMM7_b8
6eb15b40+      _XMM7_b9
6eb15b54+      _XMM7_b10
6eb15b68+      _XMM7_b11
6eb15b7c+      _XMM7_b12
6eb15b90+      _XMM7_b13
6eb15ba4+      _XMM7_b14
6eb15bb8+      _XMM7_b15
6eb15bcc+      _XMM7_w0
6eb15be0+      _XMM7_w1
6eb15bf4+      _XMM7_w2
6eb15c08+      _XMM7_w3
6eb15c1c+      _XMM7_w4
6eb15c30+      _XMM7_w5
6eb15c44+      _XMM7_w6
6eb15c58+      _XMM7_w7
6eb15c6c+      _XMM7_d0
6eb15c80+      _XMM7_d1
6eb15c94+      _XMM7_d2
6eb15ca8+      _XMM7_d3
6eb15cbc+      _XMM7_q0
6eb15cd0+      _XMM7_q1
6eb15d60+      _XMM_xmm0
6eb15d74+      _XMM_xmm1
6eb15d88+      _XMM_xmm2
6eb15d9c+      _XMM_xmm3
6eb15db0+      _XMM_xmm4
6eb15dc4+      _XMM_xmm5
6eb15dd8+      _XMM_xmm6
6eb15dec+      _XMM_xmm7
6eb15e00+      _XMM_mxcsr
6eb15e14+      _XMM_mxcsr_ie
6eb15e28+      _XMM_mxcsr_de
6eb15e3c+      _XMM_mxcsr_ze
6eb15e50+      _XMM_mxcsr_oe
6eb15e64+      _XMM_mxcsr_ue
6eb15e78+      _XMM_mxcsr_pe
6eb15e8c+      _XMM_mxcsr_daz
6eb15ea0+      _XMM_mxcsr_im
6eb15eb4+      _XMM_mxcsr_dm
6eb15ec8+      _XMM_mxcsr_zm
6eb15edc+      _XMM_mxcsr_om
6eb15ef0+      _XMM_mxcsr_um
6eb15f04+      _XMM_mxcsr_pm
6eb15f18+      _XMM_mxcsr_rc
6eb15f2c+      _XMM_mxcsr_fz
6eb162a0       MIRegistersSize_
6eb162b0       MIRegistersHost_
6eb162f0       MIRegistersTarget_
6eb16330       MIRegSetWalk_
6eb163c0       MIRegSetName_
6eb163d0       MIRegSetLevel_
6eb16660       MIRegSetDisplayGrouping_
6eb17210       MIRegSetDisplayGetPiece_
6eb17240       MIRegSetDisplayModify_
6eb174e0       RegDispType_
6eb17720       MIRegModified_
6eb17990       MIRegInspectAddr_
6eb17ad0       MIRegSetDisplayToggleList_
6eb17ae0       MIRegSetDisplayToggle_
6eb17bc0       MIRegWalk_
6eb17cb0       GetRegSP_
6eb17ce0+      GetRegFP_
6eb17d10       GetRegIP_
6eb17d40       MIRegSpecialGet_
6eb17d80       MIRegSpecialSet_
6eb17dc0       MIRegSpecialName_
6eb17f60       MIRegFromContextItem_
6eb17f70       MIRegUpdateStart_
6eb17f80       MIRegUpdateEnd_
6eb18160       RegInit_
6eb18170       RegFini_
Module: x86call.obj(/mnt/sda5/.user/root/src/openwatcom-1.9/bld/mad/x86/c/x86call.c)
6eb18200       MICallUpStackSize_
6eb18200       MICallStackGrowsUp_
6eb18210       MICallTypeList_
6eb18220       MICallBuildFrame_
6eb18330       MICallReturnReg_
6eb18360       MICallParmRegList_
6eb18450+      GetFarAddr_
6eb18cd0       MICallUpStackInit_
6eb18ce0       MICallUpStackLevel_
Module: x86disas.obj(/mnt/sda5/.user/root/src/openwatcom-1.9/bld/mad/x86/c/x86disas.c)
6eb1b954       _DbgAddr
6eb18e20       MIDisasmDataSize_
6eb18e30       MIDisasmNameMax_
6eb18e40       DoCode_
6eb18e90       DecodeIns_
6eb18ed0       GetDisasmPrev_
6eb18fb0       MIDisasm_
6eb19010       MIDisasmFormat_
6eb19170       MIDisasmInsSize_
6eb19180       MIDisasmInsUndoable_
6eb19210+      DisasmControl_
6eb19210       MIDisasmControl_
6eb195b0       MIDisasmInsNext_
6eb197b0+      GetSegRegOverride_
6eb19810+      MemReference_
6eb19a30       DoDisasmMemRefWalk_
6eb19bd0       MIDisasmMemRefWalk_
6eb19bf0       MIDisasmToggleList_
6eb19c00       MIDisasmToggle_
6eb19cc0       MIDisasmInspectAddr_
6eb19dc0       CnvRadix_
6eb19e50       JmpLabel_
6eb19ee0       ToSegStr_
6eb19fd0       GetDataWord_
6eb1a000       GetDataLong_
6eb1a030       InitCache_
6eb1a080       DisCliGetData_
6eb1a0f0       DisCliValueString_
6eb1a280       DisasmInit_
6eb1a2b0       DisasmFini_
Module: x86trace.obj(/mnt/sda5/.user/root/src/openwatcom-1.9/bld/mad/x86/c/x86trace.c)
6eb1a2d0       MITraceSize_
6eb1a2e0       MITraceInit_
6eb1a2f0       MITraceHaveRecursed_
6eb1a6c0       MITraceOne_
6eb1a780       MITraceSimulate_
6eb1a7b0       MITraceFini_
6eb1a860       MIUnexpectedBreak_
Module: /mnt/sda5/.user/root/src/openwatcom-1.9/rel2/lib386/nt/clib3r.lib(toupper.c)
6eb1a9a0       toupper_
Module: /mnt/sda5/.user/root/src/openwatcom-1.9/rel2/lib386/nt/clib3r.lib(memset.c)
6eb1a9b0       memset_
Module: /mnt/sda5/.user/root/src/openwatcom-1.9/rel2/lib386/nt/clib3r.lib(strupr.c)
6eb1a9d0       strupr_
Module: /mnt/sda5/.user/root/src/openwatcom-1.9/rel2/lib386/nt/clib3r.lib(memmove.c)
6eb1a9f0       memmove_
Module: /mnt/sda5/.user/root/src/openwatcom-1.9/rel2/lib386/nt/clib3r.lib(strncmp.c)
6eb1aa50       strncmp_
Module: /mnt/sda5/.user/root/src/openwatcom-1.9/rel2/lib386/nt/clib3r.lib(strnicmp.c)
6eb1aa80       strnicmp_
Module: /mnt/sda5/.user/root/src/openwatcom-1.9/rel2/lib386/nt/clib3r.lib(istable.c)
6eb1aad0       __IsTable
Module: /mnt/sda5/.user/root/src/openwatcom-1.9/rel2/lib386/nt/clib3r.lib(__stos)
6eb1abe0       __STOSB
6eb1ac17*      __STOSD


                        +----------------------+
                        |   Imported Symbols   |
                        +----------------------+

Symbol                              Module
======                              ======



                        +--------------------+
                        |   Libraries Used   |
                        +--------------------+

/mnt/sda5/.user/root/src/openwatcom-1.9/rel2/lib386/nt/clib3r.lib


                        +-----------------------+
                        |   Linker Statistics   |
                        +-----------------------+

Stack size:  0000 (0.)
Memory size:  0001a5eb (108011.)
Entry point address: 00000000
Link time: 00:00.00
