Open Watcom Linker Version 1.9
Portions Copyright (c) 1985-2002 Sybase, Inc. All Rights Reserved.
Created on:       12/12/16 02:39:08
Executable Image: vi.exe
creating a Windows NT windowed executable


                        +------------+
                        |   Groups   |
                        +------------+

Group                           Address              Size
=====                           =======              ====

.idata                          00451000             00001b10
DGROUP                          00453000             00023800



                        +--------------+
                        |   Segments   |
                        +--------------+

Segment                Class          Group          Address         Size
=======                =====          =====          =======         ====

BEGTEXT                CODE           AUTO           00401000        00000007
_TEXT                  CODE           AUTO           00401010        0004f7c8
TRANSFER CODE          CODE           AUTO           004507d8        00000636
.idata                 .idata         .idata         00451000        00001b10
_NULL                  BEGDATA        DGROUP         00453000        00000004
_AFTERNULL             BEGDATA        DGROUP         00453004        00000000
CONST                  DATA           DGROUP         00453004        0000005c
CONST2                 DATA           DGROUP         00453060        00000000
_DATA                  DATA           DGROUP         00453060        0000464c
XIB                    DATA           DGROUP         004576ac        00000000
XI                     DATA           DGROUP         004576ac        0000003c
XIE                    DATA           DGROUP         004576e8        00000000
YIB                    DATA           DGROUP         004576e8        00000000
YI                     DATA           DGROUP         004576e8        00000024
YIE                    DATA           DGROUP         0045770c        00000000
TIB                    DATA           DGROUP         0045770c        00000000
TI                     DATA           DGROUP         0045770c        00000000
TIE                    DATA           DGROUP         0045770c        00000000
DATA                   DATA           DGROUP         0045770c        00000000
_BSS                   BSS            DGROUP         00458000        00005800
STACK                  STACK          DGROUP         0045d800        00019000


                        +----------------+
                        |   Memory Map   |
                        +----------------+

* = unreferenced symbol
+ = symbol only referenced locally

Address        Symbol
=======        ======

Module: version.obj(/mnt/sda5/.user/root/src/openwatcom-1.9/bld/vi/c/version.c)
00453060       _DATESTAMP_T
00453069       _DATESTAMP_D
00453075       _AUTHOR
004530b8       _VERSIONT
Module: name.obj(/mnt/sda5/.user/root/src/openwatcom-1.9/bld/vi/c/name.c)
004530bc       _TITLE
Module: key.obj(/mnt/sda5/.user/root/src/openwatcom-1.9/bld/vi/c/key.c)
00401100       GetVIKey_
00401370       GetKey_
00401430       NonKeyboardEventsPending_
00401460       GetNextEvent_
00401620       ClearBreak_
00401640       KeyAddString_
00401680       AddCurrentMouseEvent_
004016c0       KeyAdd_
Module: globals.obj(/mnt/sda5/.user/root/src/openwatcom-1.9/bld/vi/c/globals.c)
00458408       _SpawnPrompt
00458508       _DirFiles
00458f08       _SelRgn
00458f20       _MatchData
00458f68       _CurrentRegularExpression
00458f6c       _CurrentDirectory
00458f70       _TileColors
00458f74       _TmpDir
00458f78       _SwapBlocksInUse
00458f7c       _SourceErrCount
00458f80       _SwapBlockArraySize
00458f84       _ReadBuffer
00458f88       _AltDotCount
00458f8c       _WriteBuffer
00458f90       _SwapBlocks
00458f94       _HomeDirectory
00458f98       _ClockTicks
00458f9c       _RepeatDigits
00458fa0       _DotCmd
00458fa4       _DotBuffer
00458fa8       _AltDotBuffer
00458fac       _AltDotDigits
00458fb0       _DotCmdCount
00458fb4       _RegExpError
00458fb8       _DotDigits
00458fbc       _DotCount
00458fc0       _NumStatusSections
00458fc4       _SystemRC
00458fc8       _MaxMemFree
00458fcc       _WrapMargin
00458fd0       _StatusSections
00458fd4       _MaxMemFreeAfterInit
00458fd8       _UndoStack
00458fdc       _UndoUndoStack
00458fe0       _DirFileCount
00458fe4       _Savebufs
00459050       _Comspec
00459054       _KeyMaps
00459058       _CurrentKeyMap
0045905c       _CurrentKeyMapCount
00459060       _SpecialSavebufs
004591a4       _InputKeyMaps
004591a8       _CurrentLine
004591ac       _FcbThreadHead
004591b0       _InfoHead
004591b4       _CurrentFile
004591b8       _MarkList
004591bc       _WorkLine
004591c0       _InfoTail
004591c4       _CurrentInfo
004591c8       _FcbThreadTail
004591cc       _FcbBlocksInUse
004591d0       _CurrentFcb
004591d4       _HalfPageLines
004591d8       _EXEName
004591dc       _Majick
004591e0       _TagFileName
004591e4       _CurrFIgnore
004591e8       _StaticBuffer
004591ec       _BndMemory
004591f0       _FIgnore
004591f4       _NextAutoSave
004591f8       _GrepDefault
004591fc       _HistoryFile
00459200*      _SpinCount
00459204       _MouseCol
00459208       _WordAltDefn
0045920c       _MouseRow
004530f8       _MSG_CHARACTERS
00453103       _MSG_LINES
00453109       _MSG_PRESSANYKEY
00453117       _MSG_DELETEDINTOBUFFER
0045312d       _MEMORIZE_MODE
0045313c       _CONFIG_FILE
00453148       _SingleBlank
0045314a       _SingleSlash
0045314c       _BoolStr
00453154*      _EditOpts
00453160*      _NumEditOpts
00453164       _EventList
00454f64       _MouseSpeed
00454f68       _MouseDoubleClickSpeed
00454f6c*      _MouseRepeatStartDelay
00454f70       _LastMouseEvent
00454f74       _FileEndString
00454f78       _StatusString
00454f7c       _MaxPush
00454f80       _Radix
00454f84       _AutoSaveInterval
00454f88       _PageLinesExposed
00454f8c       _StackK
00454f90*      _SpinData
00454f94       _ExitAttr
00454f98       _CurrentPos
00454fa0       _LeftTopPos
00454fa8       _VirtualColumnDesired
00454fac       _CurrentWindow
00454fb0       _MessageWindow
00454fb4       _StatusWindow
00454fb8       _MenuWindow
00454fbc       _CurrNumWindow
00454fc0       _CursorBlinkRate
00454fc4       _FilterHist
00454fd0       _CLHist
00454fdc       _FindHist
00454fe8       _LastFilesHist
00454ff4       _SavebufBound
00455008       _CurrentSavebuf
0045500c       _WorkSavebuf
00455010       _SavebufNumber
00455014       _cmdlinew_info
00455026       _statusw_info
00455038       _repcntw_info
0045504a       _editw_info
0045505c       _extraw_info
0045506e       _filecw_info
00455080       _linenumw_info
00455092       _dirw_info
004550a4       _filelistw_info
004550b6       _setw_info
004550c8       _setvalw_info
004550da       _messagew_info
004550ec       _menuw_info
004550fe       _menubarw_info
00455110       _defaultw_info
00455122       _activemenu_info
00455134       _greyedmenu_info
00455146       _activegreyedmenu_info
00455158       _CommandBuffer
0045515c       _SwapFileHandle
00455160       _MaxSwapBlocks
00455164       _MaxLine
00455168       _MaxLinem1
0045516c       _crlf
0045516e       _OverstrikeCursorType
00455170       _InsertCursorType
00455172       _NormalCursorType
00455174       _MatchCount
00455178       _LineNumWinWidth
0045517c       _TabAmount
00455180       _ShiftWidth
00455184       _HardTab
00455188       _maxdotbuffer
0045518c       _CurrentStatusColumn
00455190       _ClockX
00455194       _ClockY
00455198       _SpinX
0045519c       _SpinY
004551a0       _MaxTileColors
004551a4       _MaxWindowTileX
004551a8       _MaxWindowTileY
004551ac       _MoveColor
004551ad       _ResizeColor
004551ae       _InactiveWindowColor
004551b0       _WindMaxWidth
004551b2       _WindMaxHeight
004551b4       _ToolBarButtonHeight
004551b8       _ToolBarButtonWidth
004551bc       _ToolBarColor
004551bd       _EndOfLineChar
004551be       _EditFlags
00459210       _MouseRepeatDelay
00459214       _MouseStatus
00459218       _WordDefn
0045921c       _RepeatString
00459226       _LastError
00459228       _LastRetCode
0045922a       _LastRC
0045922c       _LastEvent
0045922e       _NoRepeatInfo
0045922f       _LastSavebuf
00459230*      _VideoPage
Module: pdata.obj(/mnt/sda5/.user/root/src/openwatcom-1.9/bld/vi/c/pdata.c)
00455240       _ParseClTokens
00455638       _SetTokens1
004558db       _SetTokens2
00455b97       _SetTokens2a
Module: exdata.obj(/mnt/sda5/.user/root/src/openwatcom-1.9/bld/vi/c/exdata.c)
00455c50       _ExTokens
Module: srcdata.obj(/mnt/sda5/.user/root/src/openwatcom-1.9/bld/vi/c/srcdata.c)
00455c98       _SourceTokens
00455d3d       _StrTokens
00459234       _CurrentSrcLine
00459238       _CurrentSrcLabel
0045923c       _CurrentSrcData
00459240       _VarHead
00459244       _ErrorValues
00459248       _VarTail
0045924c       _ErrorTokens
Module: rxwrap.obj(/mnt/sda5/.user/root/src/openwatcom-1.9/bld/vi/c/rxwrap.c)
00401770       RegComp_
004023b0       RegExec_
00402960*      RegAnchor_
00455d54       _META
Module: rxsupp.obj(/mnt/sda5/.user/root/src/openwatcom-1.9/bld/vi/c/rxsupp.c)
00402970       IsMagicCharRegular_
004029b0       CurrentRegComp_
004029d0       GetCurrRegExpColumn_
004029e0       GetCurrRegExpLength_
004029f0       MakeExpressionNonRegular_
00402ac0       RegExpAttrSave_
00402b20       RegExpAttrRestore_
Module: tab_hell.obj(/mnt/sda5/.user/root/src/openwatcom-1.9/bld/vi/c/tab_hell.c)
00402bb0       InsertTabSpace_
00402c60       ExpandTabsInABufferUpToColumn_
00402ce0       ExpandTabsInABuffer_
00402dd0       WinVirtualCursorPosition_
00402e20       WinRealCursorPosition_
00402e80       GetVirtualCursorPosition_
00402f00       VirtualColumnOnCurrentLine_
00402f90       RealColumnOnCurrentLine_
00402fc0       CursorPositionOffRight_
00403030*      RealCursorPositionInString_
00403060       RealCursorPositionOnLine_
004030b0       VirtualLineLen_
00403100       AddLeadingTabSpace_
00403250       ConvertSpacesToTabsUpToColumn_
00459274       _TabCnt
Module: regsub.obj(/mnt/sda5/.user/root/src/openwatcom-1.9/bld/vi/c/regsub.c)
004034a0       RegSub_
Module: findrx.obj(/mnt/sda5/.user/root/src/openwatcom-1.9/bld/vi/c/findrx.c)
00403920       FindRegularExpression_
00403ae0       FindRegularExpressionBackwards_
Module: mem.obj(/mnt/sda5/.user/root/src/openwatcom-1.9/bld/vi/c/mem.c)
00403f20+      doMemAllocUnsafe_
00403f80       MemAlloc_
00403fa0       MemAllocUnsafe_
00403fb0       MemFree_
00403fc0+      doMemReAllocUnsafe_
00404060       MemReAllocUnsafe_
00404070       MemReAlloc_
00404090       StaticAlloc_
004040f0       StaticFree_
00404120       StaticStart_
00404180       StaticFini_
00404190       MemStrDup_
00455d88       _maxStatic
Module: addstr.obj(/mnt/sda5/.user/root/src/openwatcom-1.9/bld/vi/c/addstr.c)
004041e0       AddString2_
00404200       AddString_
00404250       DeleteString_
Module: llrtns.obj(/mnt/sda5/.user/root/src/openwatcom-1.9/bld/vi/c/llrtns.c)
00404270       AddLLItemAtEnd_
004042a0       InsertLLItemAfter_
004042c0       InsertLLItemBefore_
004042e0       DeleteLLItem_
00404320       ReplaceLLItem_
00404350*      ValidateLL_
Module: parse.obj(/mnt/sda5/.user/root/src/openwatcom-1.9/bld/vi/c/parse.c)
00404390       RemoveLeadingSpaces_
004043c0       TranslateTabs_
00404410       GetStringWithPossibleQuote2_
00404470       GetStringWithPossibleQuote_
00404480       NextWord1_
004044f0       NextWordSlash_
00404500       NextWord_
00404640       EliminateFirstN_
00404660       Tokenize_
00404750       GetNumberOfTokens_
00404790*      GetLongestTokenLength_
004047e0       GetTokenString_
00404820       ReplaceSubString_
Module: init.obj(/mnt/sda5/.user/root/src/openwatcom-1.9/bld/vi/c/init.c)
00404a00       SetConfigFileName_
00404a10       GetConfigFileName_
00404a20       FiniCFName_
00405640       InitializeEditor_
00455da4       _WordDefnDefault
Module: getopt.obj(/mnt/sda5/.user/root/src/openwatcom-1.9/bld/posix/misc/getopt.c)
00455da8+      _OptInd
00455dac+      _AltOptChar
00405700       GetOpt_
004592b4       _OptArg
004592b8+      _OptChar
Module: autoenv.obj(/mnt/sda5/.user/root/src/openwatcom-1.9/bld/watcom/c/autoenv.c)
00405ad0       watcom_setup_env_
Module: xmem.obj(/mnt/sda5/.user/root/src/openwatcom-1.9/bld/vi/c/xmem.c)
00405cc0       ExtendedMemoryFini_
00405cc0       ExtendedMemoryInit_
Module: fcbswap.obj(/mnt/sda5/.user/root/src/openwatcom-1.9/bld/vi/c/fcbswap.c)
00405cd0       FetchFcb_
00405d10       SwapFcb_
00405d50       RestoreToNormalMemory_
Module: clset.obj(/mnt/sda5/.user/root/src/openwatcom-1.9/bld/vi/c/clset.c)
004079f0*      SettingSelected_
00407a60       Set_
00407c20       GetASetVal_
Module: hist.obj(/mnt/sda5/.user/root/src/openwatcom-1.9/bld/vi/c/hist.c)
00407cf0       LoadHistory_
00407f20       SaveHistory_
00407f90       FilterHistInit_
00407fc0       CLHistInit_
00407ff0       FindHistInit_
00408020       LastFilesHistInit_
00408050       HistFini_
Module: samefile.obj(/mnt/sda5/.user/root/src/openwatcom-1.9/bld/vi/c/samefile.c)
00408090       SameFile_
Module: dirdisp.obj(/mnt/sda5/.user/root/src/openwatcom-1.9/bld/vi/c/dirdisp.c)
00408130+      FileCompleteMouseHandler_
00408590       FileCompleteMouseClick_
00408700+      displayFiles_
00408a00       StartFileComplete_
00408ad0       ContinueFileComplete_
00408b10       FinishFileComplete_
00408b40       PauseFileComplete_
Module: expandfn.obj(/mnt/sda5/.user/root/src/openwatcom-1.9/bld/vi/c/expandfn.c)
00408b70       ExpandFileNames_
Module: getdir.obj(/mnt/sda5/.user/root/src/openwatcom-1.9/bld/vi/c/getdir.c)
00408fc0       GetSortDir_
00409000       DirFini_
Module: mapkey.obj(/mnt/sda5/.user/root/src/openwatcom-1.9/bld/vi/c/mapkey.c)
004593e0+      _currUndoStack
004090e0       MapKey_
004092e0       DoKeyMap_
004094f0       RunKeyMap_
00409540       StartInputKeyMap_
004095b0       DoneInputKeyMap_
004095d0+      extractViKeyToken_
00409650       AddKeyMap_
00409730       InitKeyMaps_
00409750       FiniKeyMaps_
004097c0       ExecuteBuffer_
00409810       LookUpCharToken_
Module: editmv.obj(/mnt/sda5/.user/root/src/openwatcom-1.9/bld/vi/c/editmv.c)
004098d0       MoveScreenML_
00409920       MoveScreenDown_
00409980       MoveScreenUp_
004099f0       MoveScreenDownPageML_
00409a10       MoveScreenUpPageML_
00409a40       MoveScreenLeftPageML_
00409a70       MoveScreenRightPageML_
00409a90       MovePage_
00409b80       MovePageDown_
00409ba0       MovePageUp_
00409bc0       MovePosition_
00409cd0       MoveHalfPageDown_
00409ce0       MoveHalfPageUp_
00409d30       MoveScreenLeftRightML_
Module: linenum.obj(/mnt/sda5/.user/root/src/openwatcom-1.9/bld/vi/c/linenum.c)
00409d60       LineNumbersSetup_
Module: linework.obj(/mnt/sda5/.user/root/src/openwatcom-1.9/bld/vi/c/linework.c)
00409f10       GetCurrentLine_
00409f60       ReplaceCurrentLine_
0040a000       DisplayWorkLine_
Module: undoclne.obj(/mnt/sda5/.user/root/src/openwatcom-1.9/bld/vi/c/undoclne.c)
0040a020       CurrentLineReplaceUndoStart_
0040a0c0       CurrentLineReplaceUndoCancel_
0040a0e0       CurrentLineReplaceUndoEnd_
0040a280       ConditionalCurrentLineReplaceUndoEnd_
Module: fcbdmp.obj(/mnt/sda5/.user/root/src/openwatcom-1.9/bld/vi/c/fcbdmp.c)
0040a350       WalkUndo_
0040a350       LineInfo_
0040a350       SanityCheck_
0040a350       FcbThreadDump_
0040a350       FcbDump_
0040a350       HeapCheck_
0040a360       DumpMemory_
Module: file.obj(/mnt/sda5/.user/root/src/openwatcom-1.9/bld/vi/c/file.c)
0040a5c0       SaveInfo_
0040a6b0       SaveCurrentInfo_
0040a720       RestoreInfo_
0040ae00       DisplayFileStatus_
0040aff0       CTurnOffFileDisplayBits_
0040b030       CFileReadOnly_
0040b0f0       FileIOMessage_
0040b110       IsTextFile_
0040b170*      GimmeFileCount_
Module: filemove.obj(/mnt/sda5/.user/root/src/openwatcom-1.9/bld/vi/c/filemove.c)
0040b190       NextFileDammit_
0040b350       NextFile_
0040b380       RotateFileForward_
0040b3a0       RotateFileBackwards_
0040b3e0       GotoFile_
0040b410       BringUpFile_
Module: filelast.obj(/mnt/sda5/.user/root/src/openwatcom-1.9/bld/vi/c/filelast.c)
0040b550       UpdateLastFileList_
Module: fini.obj(/mnt/sda5/.user/root/src/openwatcom-1.9/bld/vi/c/fini.c)
0040b9b0       Quit_
0040bae0       QuitEditor_
0040baf0       ExitEditor_
00455df8+      _UsageMsg
00455e40       _OptEnvVar
Module: autosave.obj(/mnt/sda5/.user/root/src/openwatcom-1.9/bld/vi/c/autosave.c)
0040bc60+      GetCurrentFilePath_
0040be10       DoAutoSave_
0040c000       LostFileCheck_
0040c110       AutoSaveInit_
0040c460       AutoSaveFini_
0040c4f0       SetNextAutoSaveTime_
0040c510       RemoveFromAutoSaveList_
Module: srchook.obj(/mnt/sda5/.user/root/src/openwatcom-1.9/bld/vi/c/srchook.c)
0040c7c0       GetHookVar_
0040c8f0       SourceHook_
0040c910       SourceHookData_
0040c950       HookScriptCheck_
0040c970       InvokeColSelHook_
0040ca90       InvokeLineSelHook_
0040cb10       InvokeMenuHook_
Module: srcgoto.obj(/mnt/sda5/.user/root/src/openwatcom-1.9/bld/vi/c/srcgoto.c)
0040cb40       SrcGoTo_
0040cbb0       AddLabel_
Module: srcif.obj(/mnt/sda5/.user/root/src/openwatcom-1.9/bld/vi/c/srcif.c)
0040cca0       SrcIf_
0040cd20       GetErrorTokenValue_
0040cda0       ReadErrorTokens_
Module: srcfile.obj(/mnt/sda5/.user/root/src/openwatcom-1.9/bld/vi/c/srcfile.c)
0040ce00       SrcOpen_
0040cfd0       SrcRead_
0040d150       SrcWrite_
0040d210       SrcClose_
Module: srccs.obj(/mnt/sda5/.user/root/src/openwatcom-1.9/bld/vi/c/srccs.c)
0040d3a0       CSInit_
0040d3c0       CSFini_
0040d440       CSIf_
0040d460       CSElseIf_
0040d4d0       CSElse_
0040d520       CSEndif_
0040d570       CSWhile_
0040d5a0       CSLoop_
0040d5c0       CSEndLoop_
0040d600       CSUntil_
0040d680       CSContinue_
0040d690       CSBreak_
0040d6a0       CSQuif_
Module: srcexpr.obj(/mnt/sda5/.user/root/src/openwatcom-1.9/bld/vi/c/srcexpr.c)
0040d6d0       SrcExpr_
Module: srcvar.obj(/mnt/sda5/.user/root/src/openwatcom-1.9/bld/vi/c/srcvar.c)
0040d830       VarAddGlobalStr_
0040d840       VarAddRandC_
0040d890       SetModifiedVar_
0040d8a0       VarAddGlobalLong_
0040d8d0       VarAddStr_
0040d9e0       VarListDelete_
0040da10       VarName_
0040da90       VarFind_
0040daf0       VarFini_
0040db20*      VarDump_
0040db70*      VarSC_
Module: srcinp.obj(/mnt/sda5/.user/root/src/openwatcom-1.9/bld/vi/c/srcinp.c)
0040dcb0       SrcInput_
0040dcc0       SrcGet_
Module: srcassgn.obj(/mnt/sda5/.user/root/src/openwatcom-1.9/bld/vi/c/srcassgn.c)
0040dce0       SrcAssign_
Module: srcexpnd.obj(/mnt/sda5/.user/root/src/openwatcom-1.9/bld/vi/c/srcexpnd.c)
0040e2f0       Expand_
Module: srcnextw.obj(/mnt/sda5/.user/root/src/openwatcom-1.9/bld/vi/c/srcnextw.c)
0040e520       SrcNextWord_
Module: filestk.obj(/mnt/sda5/.user/root/src/openwatcom-1.9/bld/vi/c/filestk.c)
0040e630       InitFileStack_
0040e660       FiniFileStack_
0040e670       PushFileStack_
0040e740       PushFileStackAndMsg_
0040e770       PopFileStack_
Module: dotmode.obj(/mnt/sda5/.user/root/src/openwatcom-1.9/bld/vi/c/dotmode.c)
0040e810       SaveDotCmd_
0040e850       DoDotMode_
0040e950       DoAltDotMode_
Module: source.obj(/mnt/sda5/.user/root/src/openwatcom-1.9/bld/vi/c/source.c)
0040eae0       Source_
0040f3c0       FileSPVAR_
0040f610       SourceError_
0040faa0       DeleteResidentScripts_
Module: mark.obj(/mnt/sda5/.user/root/src/openwatcom-1.9/bld/vi/c/mark.c)
0040fbc0       SetMark_
0040fc70+      MarkOnLine_
0040fcd0+      RemoveMarkFromLine_
0040fdc0       SetGenericMark_
0040fee0       GoMark_
0040ff10       GoMarkLine_
0040ff20*      GetMarkLine_
0040ff40*      GetMark_
00410010       VerifyMark_
00410180       AllocateMarkList_
004101b0       SetMarkContext_
004101d0       FreeMarkList_
00410250       MemorizeCurrentContext_
Module: move.obj(/mnt/sda5/.user/root/src/openwatcom-1.9/bld/vi/c/move.c)
00410460       GoToLineRelCurs_
00410470       GoToLineNoRelCurs_
00410480       SetCurrentLineNumber_
004104f0       GoToColumnOK_
00410500       GoToColumnOnCurrentLine_
00410550       GoToColumn_
004105f0       SetCurrentLine_
00410690       CheckLeftColumn_
00410700       ValidateCurrentColumn_
00410780       CheckCurrentColumn_
00410830       ShiftTab_
00410860       SetCurrentColumn_
004108f0       LocateCmd_
Module: change.obj(/mnt/sda5/.user/root/src/openwatcom-1.9/bld/vi/c/change.c)
004109d0       DoLineSubstitute_
004109e0       DoSubstitute_
004109f0       DoChangeLineEnd_
Module: delete.obj(/mnt/sda5/.user/root/src/openwatcom-1.9/bld/vi/c/delete.c)
00410a00       DoDeleteRegion_
00410a30       DoDeleteLineEnd_
00410a50       DoDeleteCharAtCursor_
00410aa0       DoDeleteCharBeforeCursor_
00410ae0       DeleteSelectedRegion_
00410b10       YankSelectedRegion_
Module: linefind.obj(/mnt/sda5/.user/root/src/openwatcom-1.9/bld/vi/c/linefind.c)
00410bc0*      FindFirstCharNotInListForward_
00410c10*      FindFirstCharNotInListBackwards_
00410c60*      FindFirstCharInRangeForward_
00410ca0*      FindFirstCharNotInRangeForward_
00410ce0*      FindFirstCharInRangeBackwards_
00410d20*      FindFirstCharNotInRangeBackward_
00410d60       TestIfCharInRange_
00410dc0       FindCharOnCurrentLine_
00410e90       FancyGotoLine_
Module: dat.obj(/mnt/sda5/.user/root/src/openwatcom-1.9/bld/vi/c/dat.c)
00410ed0       ReadDataFile_
Module: parsecl.obj(/mnt/sda5/.user/root/src/openwatcom-1.9/bld/vi/c/parsecl.c)
004110b0       ParseCommandLine_
00411430       GetAddress_
Module: findcmd.obj(/mnt/sda5/.user/root/src/openwatcom-1.9/bld/vi/c/findcmd.c)
00411840       FindCmdFini_
00411860       HilightSearchString_
004118b0       ResetLastFind_
004118e0+      GetFindForward_
00411910+      GetFindBackwards_
00411bc0       DoFindForward_
00411be0       DoFindBackwards_
00411c10+      JumpTo_
00411c60       FancyDoFindMisc_
00411ca0+      FancyDoFind_
00411cd0       DoNextFindForward_
00411d10       DoNextFindBackwards_
00411d50       DoNextFindForwardMisc_
00411da0       DoNextFindBackwardsMisc_
00411e90       GetFind_
00412180*      SaveFindRowColumn_
004121a0       ColorFind_
00412230       SetLastFind_
00412240       FancyDoReplace_
Module: savebuf.obj(/mnt/sda5/.user/root/src/openwatcom-1.9/bld/vi/c/savebuf.c)
004127b0       InsertSavebufBefore_
004127d0       InsertSavebufBefore2_
004127f0       InsertSavebufAfter_
00412820*      InsertSavebufAfter2_
00412850       GetSavebufString_
00412a40       InitSavebufs_
00412a70       FiniSavebufs_
00412aa0       AddLineToSavebuf_
00412b60       AddSelRgnToSavebuf_
00412ba0       AddSelRgnToSavebufAndDelete_
00412bb0       AddFcbsToSavebuf_
00412c60       SwitchSavebuf_
00412d50       DoSavebufNumber_
00412d90       SetSavebufNumber_
00412e30       IsEmptySavebuf_
Module: error.obj(/mnt/sda5/.user/root/src/openwatcom-1.9/bld/vi/c/error.c)
00412ed0       FatalError_
00412f10*      Die_
00412f60       GetErrorMsg_
00413000       Error_
004130e0       ErrorBox_
00413210       ErrorFini_
Module: cmdline.obj(/mnt/sda5/.user/root/src/openwatcom-1.9/bld/vi/c/cmdline.c)
004132d0       InitCommandLine_
004132e0       FiniCommandLine_
00413340       ProcessCommandLine_
00413350       FancyProcessCommandLine_
004133d0       TryCompileableToken_
004137a0       RunCommandLine_
00414b40       ProcessWindow_
004154a0+      _Batcher@8
Module: editdc.obj(/mnt/sda5/.user/root/src/openwatcom-1.9/bld/vi/c/editdc.c)
00415500       DeleteRangeOnCurrentLine_
004155a0       DeleteBlockFromCurrentLine_
Module: word.obj(/mnt/sda5/.user/root/src/openwatcom-1.9/bld/vi/c/word.c)
00415640       InitWordSearch_
00415830       MarkStartOfNextWordForward_
004158e0       MarkEndOfNextWordForward_
004159c0       MarkStartOfNextWordBackward_
00415a70       GimmeCurrentWord_
00415b10       GimmeCurrentEntireWordDim_
Module: hide.obj(/mnt/sda5/.user/root/src/openwatcom-1.9/bld/vi/c/hide.c)
00415c40       HideLineRange_
Module: editins.obj(/mnt/sda5/.user/root/src/openwatcom-1.9/bld/vi/c/editins.c)
00415db0       DoneCurrentInsert_
00415e30       UpdateEditStatus_
004160a0       IMChar_
00416140       IMEsc_
00416150       IMEnter_
00416300       IMBackSpace_
00416480       IMDelete_
00416530       IMDeleteML_
00416540       IMBackSpaceML_
00416550       IMMouseEvent_
00416580       IMCursorKey_
00416700       IMMenuKey_
00416740       IMSpace_
00416770       IMTabs_
00416ad0       IMEscapeNextChar_
00416b00       IMInsert_
00416b70       IMCloseBracket_
00416cd0       IMCloseBrace_
00416ed0       DeleteAndInsertText_
00416fb0       InsertTextOnNextLine_
00416fc0       InsertTextOnPreviousLine_
004170c0       InsertTextAtCursor_
004170d0       InsertTextAfterCursor_
004170e0       InsertTextAtLineStart_
00417100       InsertTextAtLineEnd_
00417130       DoReplaceText_
00417150       InsertLikeLast_
00417170       PushMode_
004171d0       PopMode_
Module: getautoi.obj(/mnt/sda5/.user/root/src/openwatcom-1.9/bld/vi/c/getautoi.c)
004172b0       GetAutoIndentAmount_
Module: replace.obj(/mnt/sda5/.user/root/src/openwatcom-1.9/bld/vi/c/replace.c)
00417440       ReplaceChar_
Module: dir.obj(/mnt/sda5/.user/root/src/openwatcom-1.9/bld/vi/c/dir.c)
004176c0       GetCWD1_
004176f0       GetCWD2_
00417710       ChangeDirectory_
00417760       ConditionalChangeDirectory_
00417790       SetCWD_
00417870       FormatDirToFile_
Module: select.obj(/mnt/sda5/.user/root/src/openwatcom-1.9/bld/vi/c/select.c)
00417ca0*      SelectItem_
00417dd0*      SelectItemAndValue_
Module: io.obj(/mnt/sda5/.user/root/src/openwatcom-1.9/bld/vi/c/io.c)
00417ea0       FileExists_
00417f70       FileOpen_
00418000       FileSeek_
004180a0       GetFromEnvAndOpen_
004180e0       GetFromEnv_
00418110       VerifyTmpDir_
00418210       MakeTmpPath_
00418260       TmpFileOpen_
004182a0       TmpFileClose_
004182d0       FileLower_
004182e0       FileTemplateMatch_
00418360       StripPath_
Module: clread.obj(/mnt/sda5/.user/root/src/openwatcom-1.9/bld/vi/c/clread.c)
004183c0       ReadAFile_
Module: cledit.obj(/mnt/sda5/.user/root/src/openwatcom-1.9/bld/vi/c/cledit.c)
004185d0+      isMultipleFiles_
00418670       EditFile_
00418dd0       OpenWindowOnFile_
Module: misc.obj(/mnt/sda5/.user/root/src/openwatcom-1.9/bld/vi/c/misc.c)
00419000       ExecCmd_
00419020       GetResponse_
00419040       PromptFilesForSave_
004190f0       PromptThisFileForSave_
004191b0       QueryFile_
004191f0       ExitWithPrompt_
00419250       ExitWithVerify_
004192f0       PrintHexValue_
00419330       EnterHexKey_
00419490       DoVersion_
004194d0       StrMerge_
00419530       ModificationTest_
004195a0       CurFileExitOptionSaveChanges_
004195c0       UpdateCurrentDirectory_
004195e0       NextBiggestPrime_
00419630       FancySetFS_
00419640       FancySetScr_
00419650       FancySetGen_
00419660       ToggleToolbar_
004196a0       ToggleStatusbar_
004196e0       ToggleColorbar_
00419720       ToggleSSbar_
00419760       ToggleFontbar_
004197a0       GenericQueryBool_
Module: tags.obj(/mnt/sda5/.user/root/src/openwatcom-1.9/bld/vi/c/tags.c)
004197d0       GetCurrentTag_
00419810       TagHunt_
00419900       FindTag_
00419b50+      SearchForTags_
00419c30       LocateTag_
Module: alias.obj(/mnt/sda5/.user/root/src/openwatcom-1.9/bld/vi/c/alias.c)
00419e60       SetAlias_
00419e80       UnAlias_
00419ea0       CheckAlias_
00419ee0       Abbrev_
00419f00       UnAbbrev_
00419f20       CheckAbbrev_
Module: bnddata.obj(/mnt/sda5/.user/root/src/openwatcom-1.9/bld/vi/c/bnddata.c)
00419fd0       CheckForBoundData_
0041a140       SpecialOpen_
0041a2a0       SpecialFclose_
0041a2d0       SpecialFgets_
Module: abandon.obj(/mnt/sda5/.user/root/src/openwatcom-1.9/bld/vi/c/abandon.c)
0041a440       AbandonHopeAllYeWhoEnterHere_
Module: filter.obj(/mnt/sda5/.user/root/src/openwatcom-1.9/bld/vi/c/filter.c)
0041a4c0       DoGenericFilter_
Module: ex.obj(/mnt/sda5/.user/root/src/openwatcom-1.9/bld/vi/c/ex.c)
0041a6c0*      EnterExMode_
0041a830       ProcessEx_
Module: exappend.obj(/mnt/sda5/.user/root/src/openwatcom-1.9/bld/vi/c/exappend.c)
0041ad80       Append_
0041ade0       AppendAnother_
Module: wingen.obj(/mnt/sda5/.user/root/src/openwatcom-1.9/bld/vi/c/wingen.c)
0041aec0       NewMessageWindow_
0041af00       WPrintfLine_
0041af60       SetWindowCursor_
0041af70       SetWindowCursorForReal_
0041b000*      DisplayExtraInfo_
0041b060       ColumnInWindow_
0041b0a0       SetWindowSizes_
0041b200       CurrentWindowResize_
0041b2e0       SetFileWindowTitle_
0041b350       ResetAllWindows_
Module: printf.obj(/mnt/sda5/.user/root/src/openwatcom-1.9/bld/vi/c/printf.c)
0041b3a0       Lead_
0041b6a0       MyPrintf_
0041b710       MySprintf_
0041b750       MyVSprintf_
0041b770       MyVPrintf_
0041b820       MyFprintf_
Module: getspcmd.obj(/mnt/sda5/.user/root/src/openwatcom-1.9/bld/vi/c/getspcmd.c)
0041b860       GetSpawnCommandLine_
Module: selrgn.obj(/mnt/sda5/.user/root/src/openwatcom-1.9/bld/vi/c/selrgn.c)
0041bb30*      GetFixedSelectedRegion_
0041bbe0       InitSelectedRegion_
0041bc30       SelRgnFini_
0041bc30       SelRgnInit_
0041bcd0       UnselectRegion_
0041bd50       UpdateDrag_
0041bf10       UpdateCursorDrag_
0041bfb0       SetSelRegionCols_
0041c030       ReselectRegion_
0041c060+      startSelectedRegion_
0041c0d0       SelectLeft_
0041c100       SelectRight_
0041c130       SelectUp_
0041c160       SelectDown_
0041c190       SelectHome_
0041c1c0       SelectEnd_
0041c1f0       SelectPageUp_
0041c230       SelectPageDown_
0041c270       SelectBackwardsWord_
0041c2a0       SelectForwardWord_
0041c2d0       SelectStartOfFile_
0041c300       SelectEndOfFile_
0041c330       SelectTopOfPage_
0041c360       SelectBottomOfPage_
0041c480       DoSelectSelectionPopMenu_
0041c490       DoSelectSelection_
0041c560       GetSelectedRegion_
0041c610       SetSelectedRegion_
0041c6d0       SetSelectedRegionFromLine_
0041c720       NormalizeRange_
0041c7a0       SelectAll_
Module: cstatus.obj(/mnt/sda5/.user/root/src/openwatcom-1.9/bld/vi/c/cstatus.c)
0041c860       GetModeString_
0041c890       UpdateCurrentStatus_
Module: help.obj(/mnt/sda5/.user/root/src/openwatcom-1.9/bld/vi/c/help.c)
0041c940       DoHelpOnContext_
0041c950       DoHelp_
00455f4c       _helpFiles
00455f64       _nHelpFiles
Module: readstr.obj(/mnt/sda5/.user/root/src/openwatcom-1.9/bld/vi/c/readstr.c)
00455f68       _ReadingAString
0041d270       GetTextForSpecialKey_
0041d380       InsertTextForSpecialKey_
0041da90       ReadStringInWindow_
0041dae0       PromptForString_
Module: tab_e_c.obj(/mnt/sda5/.user/root/src/openwatcom-1.9/bld/vi/c/tab_e_c.c)
0041ddf0       ExpandWhiteSpace_
0041de00       CompressWhiteSpace_
Module: gencfg.obj(/mnt/sda5/.user/root/src/openwatcom-1.9/bld/vi/c/gencfg.c)
0041e7a0       GenerateConfiguration_
Module: fts.obj(/mnt/sda5/.user/root/src/openwatcom-1.9/bld/vi/c/fts.c)
0041eec0       FTSStart_
0041efb0       FTSAddCmd_
0041f080       FTSAddBoolean_
0041f100       FTSAddInt_
0041f130*      FTSAddChar_
0041f160       FTSAddStr_
0041f190       FTSEnd_
0041f1f0       FTSSearchFTIndex_
0041f2e0       FTSRunCmds_
0041f300       FTSGetFirst_
0041f310       FTSGetNext_
0041f320       FTSGetFirstTemplate_
0041f330       FTSGetNextTemplate_
0041f340       FTSBarfData_
0041f3d0+      FTSMatchTemplate_
0041f430+      deleteTemplateList_
0041f450*      FTSMatchTemplateData_
0041f4f0+      FTSKill_
0041f530       FTSInit_
0041f540       FTSFini_
Module: fcbdisk.obj(/mnt/sda5/.user/root/src/openwatcom-1.9/bld/vi/c/fcbdisk.c)
0041f560       SwapToDisk_
0041f5a0       SwapToMemoryFromDisk_
0041f630       SwapFileClose_
0041f650       GiveBackSwapBlock_
0041f700       SwapBlockInit_
0041f770       SwapBlockFini_
Module: fcbblock.obj(/mnt/sda5/.user/root/src/openwatcom-1.9/bld/vi/c/fcbblock.c)
0041f780       GiveBackBlock_
0041f7d0       GetNewBlock_
0041f820       MakeWriteBlock_
Module: fcb.obj(/mnt/sda5/.user/root/src/openwatcom-1.9/bld/vi/c/fcb.c)
0041f8e0       ReadFcbData_
0041fbb0       FindFcbWithLine_
0041fc50       CreateFcbData_
0041fcc0       FcbSize_
Module: fcbmem.obj(/mnt/sda5/.user/root/src/openwatcom-1.9/bld/vi/c/fcbmem.c)
0041fce0       FcbAlloc_
0041fd40       FcbFree_
0041fdb0       FreeEntireFcb_
0041fde0       FreeFcbList_
Module: fcbsplit.obj(/mnt/sda5/.user/root/src/openwatcom-1.9/bld/vi/c/fcbsplit.c)
0041fe00       SplitFcbAtLine_
0041ff30       CheckCurrentFcbCapacity_
Module: fcbdup.obj(/mnt/sda5/.user/root/src/openwatcom-1.9/bld/vi/c/fcbdup.c)
00420060       CreateDuplicateFcbList_
Module: fcbmerge.obj(/mnt/sda5/.user/root/src/openwatcom-1.9/bld/vi/c/fcbmerge.c)
00420110       MergeFcbs_
00420150       MergeAllFcbs_
Module: linenew.obj(/mnt/sda5/.user/root/src/openwatcom-1.9/bld/vi/c/linenew.c)
004201a0       AddNewLineAroundCurrent_
00420280       InsertNewLine_
004202e0       LineAlloc_
00420330       CreateNullLine_
Module: dc.obj(/mnt/sda5/.user/root/src/openwatcom-1.9/bld/vi/c/dc.c)
004203f0       DCCreate_
00420450       DCResize_
004204f0       DCScroll_
00420600       DCDestroy_
00420650       DCUpdate_
00420850       DCUpdateAll_
004208b0+      shaveRange_
00420910       DCDisplaySomeLines_
004209c0       DCDisplayAllLines_
004209e0       DCInvalidateSomeLines_
00420a50       DCInvalidateAllLines_
00420a80       DCFindLine_
00420aa0       DCValidateLine_
Module: lineptr.obj(/mnt/sda5/.user/root/src/openwatcom-1.9/bld/vi/c/lineptr.c)
00420b20       CGimmeLinePtr_
00420b40       GimmeLinePtr_
00420b80       CGimmeNextLinePtr_
00420ba0       CAdvanceToLine_
00420bc0       GimmeNextLinePtr_
00420c40       GimmePrevLinePtr_
00420c80       GimmeLinePtrFromFcb_
00420cb0       CFindLastLine_
00420d10       IsPastLastLine_
00420d50       ValidateCurrentLine_
Module: linecfb.obj(/mnt/sda5/.user/root/src/openwatcom-1.9/bld/vi/c/linecfb.c)
00420eb0       CreateLinesFromBuffer_
Module: linedisp.obj(/mnt/sda5/.user/root/src/openwatcom-1.9/bld/vi/c/linedisp.c)
00420fe0       ReDisplayScreen_
004210c0       ReDisplayBuffers_
Module: linemisc.obj(/mnt/sda5/.user/root/src/openwatcom-1.9/bld/vi/c/linemisc.c)
00421120       FindStartOfALine_
00421150       FindStartOfCurrentLine_
00421160       GenericJoinCurrentLineToNext_
00421330       JoinCurrentLineToNext_
00421390       SaveCurrentFilePos_
004213e0       RestoreCurrentFilePos_
00421480       SaveAndResetFilePos_
Module: linedel.obj(/mnt/sda5/.user/root/src/openwatcom-1.9/bld/vi/c/linedel.c)
00421500       UpdateLineNumbers_
00421520       DeleteLineRange_
00421820       LineDeleteMessage_
Module: lineins.obj(/mnt/sda5/.user/root/src/openwatcom-1.9/bld/vi/c/lineins.c)
00421870       InsertLinesAtCursor_
00421a40       InsertLines_
Module: lineyank.obj(/mnt/sda5/.user/root/src/openwatcom-1.9/bld/vi/c/lineyank.c)
00421c80       YankLineRange_
00421cc0       GetCopyOfLineRange_
00421eb0       LineYankMessage_
Module: grep.obj(/mnt/sda5/.user/root/src/openwatcom-1.9/bld/vi/c/grep.c)
00421f70       DoFGREP_
00422000       DoEGREP_
00422420+      _GrepListProc@16
004225f0+      _GrepListProc95@16
Module: editmain.obj(/mnt/sda5/.user/root/src/openwatcom-1.9/bld/vi/c/editmain.c)
00423240       DoMove_
00423370       DoLastEvent_
00423580       DoneLastEvent_
004235e0       EditMain_
00423760       AbsoluteNullResponse_
00423770       NullResponse_
004237b0*      DoneRepeat_
004237d0*      KillRepeatWindow_
004237e0       SetRepeatCount_
00423830       GetRepeatCount_
00423870       DoDigit_
00423940       InvalidKey_
00423970       Modified_
004239e0       ResetDisplayLine_
Module: filesave.obj(/mnt/sda5/.user/root/src/openwatcom-1.9/bld/vi/c/filesave.c)
00423c10       SaveFileAs_
00423ca0       SaveFile_
00423fa0       StartSaveExit_
00423fd0       SaveAndExit_
00424020       FilePromptForSaveChanges_
00424130       FileExitOptionSaveChanges_
00424200+      FancyFileSave_
00424250       DoKeyboardSave_
Module: filenew.obj(/mnt/sda5/.user/root/src/openwatcom-1.9/bld/vi/c/filenew.c)
00424650       NewFile_
004247c0       FileAlloc_
00424830       FileFree_
00424850       FreeEntireFile_
Module: undo.obj(/mnt/sda5/.user/root/src/openwatcom-1.9/bld/vi/c/undo.c)
00424870       StartUndoGroupWithPosition_
00424920       UndoReplaceLines_
004249c0       UndoDeleteFcbs_
00424a10       UndoInsert_
00424a70       PatchDeleteUndo_
00424b30       StartUndoGroup_
00424b50       EndUndoGroup_
00424c00       TryEndUndoGroup_
Module: undostks.obj(/mnt/sda5/.user/root/src/openwatcom-1.9/bld/vi/c/undostks.c)
00424cd0       UndoAlloc_
00424d70       UndoFree_
00424da0       PushUndoStack_
00424de0       PopUndoStack_
00424e00       AddUndoToCurrent_
00424e20       AllocateUndoStacks_
00424e70       FreeUndoStacks_
00424f00       TossUndos_
00424f90       FreeAllUndos_
00424fa0       PurgeUndoStack_
Module: undo_do.obj(/mnt/sda5/.user/root/src/openwatcom-1.9/bld/vi/c/undo_do.c)
004252c0       DoUndo_
004252e0       DoUndoUndo_
Module: clglob.obj(/mnt/sda5/.user/root/src/openwatcom-1.9/bld/vi/c/clglob.c)
00425350       Global_
004257d0       ProcessingMessage_
Module: clsubs.obj(/mnt/sda5/.user/root/src/openwatcom-1.9/bld/vi/c/clsubs.c)
00425870+      _MyMessageBoxWndFunc@12
004259a0       TwoPartSubstitute_
00425ae0       Substitute_
00425ff0       SplitUpLine_
00459678+      _LastSubstituteCancelled
0045967c+      _LastLineCount
00459680+      _LastChangeCount
Module: shove.obj(/mnt/sda5/.user/root/src/openwatcom-1.9/bld/vi/c/shove.c)
00426100       Shift_
Module: match.obj(/mnt/sda5/.user/root/src/openwatcom-1.9/bld/vi/c/match.c)
00426260       DoMatching_
00426280       FindMatch_
00426500       AddMatchString_
004265c0       MatchInit_
00426600       MatchFini_
Module: cut.obj(/mnt/sda5/.user/root/src/openwatcom-1.9/bld/vi/c/cut.c)
00426630       Cut_
Module: opmove.obj(/mnt/sda5/.user/root/src/openwatcom-1.9/bld/vi/c/opmove.c)
00426980       MovePageMiddle_
004269e0       MovePageTop_
00426a10       MovePageBottom_
00426aa0       MoveUp_
00426ac0       MoveDown_
00426b20       MoveLineEnd_
00426b60*      LineEndRange_
00426ba0       MoveStartOfLine_
00426bd0       MoveLineBegin_
00426bf0       MoveLeft_
00426c10       MoveRight_
00426c70       MoveToColumn_
00426c90       MoveTab_
00426d60       MoveShiftTab_
00426e60       MoveStartNextLine_
00426e70       MoveStartPrevLine_
00426f10       MoveForwardWord_
00426f20       MoveForwardBigWord_
00426f40       MoveForwardWordEnd_
00426f60       MoveForwardBigWordEnd_
00426ff0       MoveBackwardsWord_
00427000       MoveBackwardsBigWord_
00427080       MoveUpToChar_
004270a0       MoveUpToBeforeChar_
004270c0       MoveBackToChar_
004270d0       MoveBackToAfterChar_
004270f0       DoGo_
00427210       MoveToLastCharFind_
00427220       MoveToLastCharFindRev_
00427230       MoveStartOfFile_
00427260       MoveEndOfFile_
004272c0       MoveTopOfPage_
004272e0       MoveBottomOfPage_
Module: srcgen.obj(/mnt/sda5/.user/root/src/openwatcom-1.9/bld/vi/c/srcgen.c)
00427320       AbortGen_
00427390       GenJmpIf_
004273c0       GenJmp_
004273e0       GenLabel_
00427450       GenTestCond_
00427660       NewLabel_
004276d0       PreProcess_
Module: fmatch.obj(/mnt/sda5/.user/root/src/openwatcom-1.9/bld/vi/c/fmatch.c)
00427ca0       FileMatch_
00427cc0       FileMatchInit_
00427df0       FileMatchFini_
Module: status.obj(/mnt/sda5/.user/root/src/openwatcom-1.9/bld/vi/c/status.c)
00427e00       NewStatusWindow_
00427e50       UpdateStatusWindow_
Module: expr.obj(/mnt/sda5/.user/root/src/openwatcom-1.9/bld/vi/c/expr.c)
004281e0       StartExprParse_
00428950       GetConstExpr_
Module: op.obj(/mnt/sda5/.user/root/src/openwatcom-1.9/bld/vi/c/op.c)
00428ef0       LineLength_
00428f20       GetLineRange_
00428f50       Delete_
00429010       DeleteLines_
00429040       Yank_
004290f0       YankLines_
00429120       Change_
00429350       StartShove_
00429370       StartSuck_
00429420       ChangeCase_
004294c0       Filter_
Module: lang.obj(/mnt/sda5/.user/root/src/openwatcom-1.9/bld/vi/c/lang.c)
00429650       IsKeyword_
004296e0       IsPragma_
00429730       IsDeclspec_
00429880       LangInit_
00429ab0       LangFini_
00429b50       LangFiniAll_
Module: sstyle.obj(/mnt/sda5/.user/root/src/openwatcom-1.9/bld/vi/c/sstyle.c)
00429cc0+      addSelection_
00429fb0+      fixSelection_
00429ff0       SSDifBlock_
0042a1d0       SSNewBlock_
0042a1e0       SSKillBlock_
0042a1f0       SSKillsFlags_
0042a270       SSInitLanguageFlags_
0042a2e0       SSInitLanguageFlagsGivenValues_
0042a350       SSGetLanguageFlags_
0042a3c0       SSGetStyle_
0042a400       SSInitBeforeConfig_
0042a440       SSInitAfterConfig_
0042a490       SSFini_
00459914       _SEType
Module: sstyle_f.obj(/mnt/sda5/.user/root/src/openwatcom-1.9/bld/vi/c/sstyle_f.c)
0042a6c0       InitFORTRANLine_
0042ab10       InitFORTRANFlagsGivenValues_
0042ab20       GetFORTRANFlags_
0042ab30       InitFORTRANFlags_
0042abd0       GetFORTRANBlock_
Module: sstyle_c.obj(/mnt/sda5/.user/root/src/openwatcom-1.9/bld/vi/c/sstyle_c.c)
0042ae30       InitCLine_
0042b700       InitCFlagsGivenValues_
0042b720       GetCFlags_
0042b730       InitCFlags_
0042ba50       GetCBlock_
Module: sstyle_h.obj(/mnt/sda5/.user/root/src/openwatcom-1.9/bld/vi/c/sstyle_h.c)
0042bc50       InitHTMLLine_
0042bd10+      getHTMLComment_
0042bda0       InitHTMLFlagsGivenValues_
0042bdb0       GetHTMLFlags_
0042bdc0       InitHTMLFlags_
0042bdd0       GetHTMLBlock_
Module: sstyle_g.obj(/mnt/sda5/.user/root/src/openwatcom-1.9/bld/vi/c/sstyle_g.c)
0042bf00       InitGMLLine_
0042c060       InitGMLFlagsGivenValues_
0042c070       GetGMLFlags_
0042c080       InitGMLFlags_
0042c090       GetGMLBlock_
Module: sstyle_m.obj(/mnt/sda5/.user/root/src/openwatcom-1.9/bld/vi/c/sstyle_m.c)
0042c150       InitMkLine_
0042c440       InitMkFlagsGivenValues_
0042c450       GetMkFlags_
0042c460       InitMkFlags_
0042c470       GetMkBlock_
Module: sstyle_p.obj(/mnt/sda5/.user/root/src/openwatcom-1.9/bld/vi/c/sstyle_p.c)
0042c660       InitPerlLine_
0042cd30       InitPerlFlagsGivenValues_
0042cd40       GetPerlFlags_
0042cd50       InitPerlFlags_
0042ce70       GetPerlBlock_
Module: rcs.obj(/mnt/sda5/.user/root/src/openwatcom-1.9/bld/vi/c/rcs.c)
00456248+      _RCSGetVersion
0045624c       _RCSInit
00456250       _RCSCheckout
00456254       _RCSCheckin
00456258+      _RCSHasShell
0045625c+      _RCSRunShell
00456260+      _RCSSetSystem
00456264       _RCSQuerySystem
00456268       _RCSRegisterBatchCallback
0045626c+      _RCSRegisterMessageBoxCallback
0042d110       ViRCSInit_
0042d160       ViRCSFini_
00456270       _RCSSetPause
00456274       _RCSFini
Module: main.obj(/mnt/sda5/.user/root/src/openwatcom-1.9/bld/vi/win/main.c)
0042d2c0       StartWindows_
0042d330       FiniInstance_
0042d340       _WinMain@16
0042d400       MessageLoop_
00456278       _EditorName
0045a2f4       _Root
0045a2f8       _InstanceHandle
0045a2fc       _EditContainer
Module: mainwnd.obj(/mnt/sda5/.user/root/src/openwatcom-1.9/bld/vi/win/mainwnd.c)
0045a300       _RootRect
0042d540       RegisterMainWindow_
0042d5b0       CreateMainWindow_
0042d6b0       SetInitialWindowSize_
0042d770       SetInitialWindowRect_
0042d7a0       ResizeRoot_
0042d8b0+      _MainWindowProc@16
0045a320       _RootState
Module: editwnd.obj(/mnt/sda5/.user/root/src/openwatcom-1.9/bld/vi/win/editwnd.c)
0045a328       _MouseY
0045a32c       _MouseX
0042de80*      GetEditStyle_
0042de90*      SetWindowTitle_
0042df10       NewEditWindow_
0042e570       PositionVerticalScrollThumb_
0042e640       PositionHorizontalScrollThumb_
0042e680*      EditDrawScrollBars_
0042e870+      _EditWindowProc@16
0042ee70+      _ResizeExtra@8
0042ef10       ResetExtraRects_
00456294+      _EditWindowClassName
00456298       _EditWindow
004562b4       _VScrollBarScale
004562b8       _HScrollBarScale
Module: dosdir.obj(/mnt/sda5/.user/root/src/openwatcom-1.9/bld/vi/c/dosdir.c)
0042ef80       MyGetFileSize_
0042efa0       IsDirectory_
0042f010       GetFileInfo_
0042f030       FormatFileEntry_
Module: time.obj(/mnt/sda5/.user/root/src/openwatcom-1.9/bld/vi/c/time.c)
0042f180       GetTimeString_
0042f250       GetDateTimeString_
0042f2d0       GetDateString_
Module: stubs.obj(/mnt/sda5/.user/root/src/openwatcom-1.9/bld/vi/win/stubs.c)
0042f310       RedrawMouse_
0042f320       DoGetDriveType_
0042f320       DisplayMouse_
0042f330       TurnOffCapsLock_
0042f340       GetNewValueDialog_
0042f340       ResetWindow_
0042f340       MoveCurrentWindowWithKeys_
0042f340       ResizeCurrentWindowWithKeys_
0042f340       HandleMouseEvent_
0042f350       ClearScreen_
0042f350       ScreenFini_
0042f350       FiniMouse_
0042f350       WindowSwapFileClose_
0042f350       RestoreInterrupts_
0042f350*      WindowBorderData_
0042f350       PopMouseEventHandler_
0042f350       PushMouseEventHandler_
0042f350*      DrawBorder_
0042f350       WindowAuxUpdate_
0042f350       GetSpinStart_
0042f350       GetClockStart_
0042f350       SetMouseSpeed_
0042f350       SwapAllWindows_
0042f360*      DisplayLineWithHilite_
0042f360       ResizeWindow_
0042f360       ResizeWindowRelative_
0042f370       WindowIsVisible_
0042f380       HideCursor_
0042f380       SetPosToMessageLine_
0042f380*      DisplayCrossLineInWindow_
0042f380*      NewWindow_
0042f380       SetBorderGadgets_
0042f380       InitMouse_
0042f380       ChkExtendedKbd_
0042f380       SetInterrupts_
0042f380       ScreenInit_
0042f390*      SetCharInWindowWithColor_
Module: color.obj(/mnt/sda5/.user/root/src/openwatcom-1.9/bld/vi/win/color.c)
0042f3a0       ColorRGB_
0042f3b0       ColorBrush_
0042f3c0*      ColorPen_
0042f460       InitColors_
0042f4e0       GetNumColors_
0042f4f0       GetColorSetting_
0042f530*      GetRGB_
0042f680       SetAColor_
0042f7a0       FiniColors_
Module: wstatus.obj(/mnt/sda5/.user/root/src/openwatcom-1.9/bld/vi/win/wstatus.c)
0042f7e0       StatusWndSetSeparatorsWithArray_
0042f8c0+      setCursor_
0042f920+      processMouseMove_
0042faa0+      processLButtonDown_
0042fb40+      processLButtonUp_
0042fbb0+      StatusWindowProc_
0042fc40       NewStatWindow_
0042fc90       StatusLine_
004562c0       _StatusBar
Module: font.obj(/mnt/sda5/.user/root/src/openwatcom-1.9/bld/vi/win/font.c)
0042fd40*      FontFixed_
0042fd60       FontHandle_
0042fd70       FontHeight_
0042fd80       FontlfHeight_
0042fd90       FontlfFaceName_
0042fda0       FontIsFunnyItalic_
0042fdc0       FontMaxWidth_
0042fdd0       FontAverageWidth_
0042fde0       FontTabWidth_
0042fe00+      GetTextExtentX_
0042fef0       EnsureUniformFonts_
0042ff70       InitFonts_
004301c0       SetUpFont_
00430260*      PickFont_
004302a0       SetFont_
00430330       BarfFontData_
004303c0       FiniFonts_
004562dc+      _Helvetica6
00456318+      _Arial10
00456354+      _ArialBold10
00456390+      _Fixed10
004563cc+      _SansSerif
00456408+      _Courier
00456444+      _CourierBold
0045a644+      _Fonts
Module: window.obj(/mnt/sda5/.user/root/src/openwatcom-1.9/bld/vi/win/window.c)
00430400       DefaultWindows_
00430590       InitWindows_
004305c0+      FiniWindows_
00430620       WindowAuxInfo_
00430760       NewWindow2_
004307e0       CloseAWindow_
00430800       CloseAChildWindow_
00430830       InsideWindow_
00430860       InactiveWindow_
00430870       ActiveWindow_
00430890*      MoveWindowToFront_
004308b0       MoveWindowToFrontDammit_
004308c0       MaximizeCurrentWindow_
004308f0       MinimizeCurrentWindow_
00430920       FinishWindows_
00456480+      _Windows
Module: display.obj(/mnt/sda5/.user/root/src/openwatcom-1.9/bld/vi/win/display.c)
004309e0       ScreenPage_
00430a00       WindowTitleAOI_
00430a20       WindowTitle_
00430a30       ClearWindow_
00430aa0       DisplayLineInWindow_
00430ab0       ShiftWindowUpDown_
00430b60+      SetDrawingObjects_
00430d00+      MyTabbedTextOut_
00430ee0       DisplayLineInWindowWithSyntaxStyle_
00456498       _AllowDisplay
Module: getkey.obj(/mnt/sda5/.user/root/src/openwatcom-1.9/bld/vi/win/getkey.c)
004315f0+      find_key_in_table_
00431610       ShiftDown_
00431630*      CapsDown_
00431650       CtrlDown_
00431670*      AltDown_
004316f0       MapVirtualKeyToVIKey_
004318a0       WindowsKeyPush_
00431920       KeyboardHit_
00431950       GetKeyboard_
004319b0       GetMouseEvent_
004319c0       TestMouseEvent_
Module: cursor.obj(/mnt/sda5/.user/root/src/openwatcom-1.9/bld/vi/win/cursor.c)
004319d0       SetCursorBlinkRate_
004319f0       GoodbyeCursor_
00431a30       NewCursor_
00431e50       PixelFromColumnOnCurrentLine_
00431f40       SetCursorOnLine_
00432000       SetGenericWindowCursor_
00432040       ResetEditWindowCursor_
00432090       MyShowCaret_
004320c0       MyHideCaret_
004320e0       MyKillCaret_
00432110       MyRaiseCaret_
Module: command.obj(/mnt/sda5/.user/root/src/openwatcom-1.9/bld/vi/win/command.c)
004564ac       _CommandWindow
004564c8       _CommandId
004321f0+      _CommandWindowProc@16
00432330       NewCommandWindow_
Module: utils.obj(/mnt/sda5/.user/root/src/openwatcom-1.9/bld/vi/win/utils.c)
0045b01c       _GadgetString
004324b0+      WriteText_
00432520       WriteString_
00432550       TextGetDC_
004325a0       TextReleaseDC_
004325c0       BlankRectIndirect_
00432600*      BlankRect_
00432630       MyTextExtent_
004326c0*      MyStringExtent_
004326e0       ClientToRowCol_
00432a50       ToggleHourglass_
00432ab0       MemSize_
00432ac0       SetGadgetString_
00432ad0       MyDelay_
00432ae0       MyBeep_
00432b00       PushDirectory_
00432b60       PopDirectory_
00432ba0       DoAboutBox_
00432c10       CursorOp_
00432db0       GetOwnedWindow_
00432e90*      GetNumWindowTypes_
00432ea0       MoveWindowTopRight_
00432f90*      SetEditInt_
00432fc0*      UpdateBoolSetting_
00433030+      DoStrSet_
004330d0*      UpdateStrSetting_
00433120*      UpdateIntSetting_
00433170       CenterWindowInRoot_
00433230       DrawRectangleUpDown_
00433270       ChangeDrive_
004564d4+      _windowName
Module: menu.obj(/mnt/sda5/.user/root/src/openwatcom-1.9/bld/vi/win/menu.c)
004334c0       NextMenuId_
00433b10       StartMenu_
00433bd0       MenuItem_
00433c40       AddMenuItem_
00433cc0+      DoMenuChar_
00433d80       ViEndMenu_
00433df0       DoItemDelete_
00433e60       DoMenuDelete_
00433ea0       InitMenu_
00433f40       FiniMenu_
00433fa0       IsMenuHotKey_
00434060       ActivateFloatMenu_
004340f0       MenuCommand_
00434240       BarfMenuData_
004345c0       HandleInitMenu_
004346e0       ResetMenuBits_
00434720       MenuItemFileList_
00434740       MenuItemLastFiles_
00434760       HandleMenuSelect_
00434820       GetMenuHelpString_
00434860       SetMenuHelpString_
00434870       DoWindowGadgetMenu_
00434890*      GetCurrentMenuId_
00434890*      GetMenuIdFromCoord_
Module: filesel.obj(/mnt/sda5/.user/root/src/openwatcom-1.9/bld/vi/win/filesel.c)
00434ba0+      _OpenHook@16
00434c20       SelectFileOpen_
00434d10       SelectFileSave_
00434de0       GetInitialFileName_
00434e60       SelectLineInFile_
Module: flist.obj(/mnt/sda5/.user/root/src/openwatcom-1.9/bld/vi/win/flist.c)
00434fe0+      _FileListProc@16
004350b0       EditFileFromList_
Module: message.obj(/mnt/sda5/.user/root/src/openwatcom-1.9/bld/vi/win/message.c)
00456618       _MessageBar
004351a0+      _MessageWindowProc@16
00435240       NewMsgWindow_
00435390       Message1_
00435410       Message1Box_
00435490       Message2_
Module: windir.obj(/mnt/sda5/.user/root/src/openwatcom-1.9/bld/vi/win/windir.c)
00456638       _FileCompleteWindow
004355c0+      _FileCompleteWindowProc@16
004356d0       NewFileCompleteWindow_
Module: contain.obj(/mnt/sda5/.user/root/src/openwatcom-1.9/bld/vi/win/contain.c)
00435790       CreateContainerWindow_
00435840+      _ContainerWindowProc@16
0045b25c+      _oldContainerProc
Module: bitmap.obj(/mnt/sda5/.user/root/src/openwatcom-1.9/bld/sdk/misc/bitmap.c)
00435ca0       ReadBitmapFile_
Module: palette.obj(/mnt/sda5/.user/root/src/openwatcom-1.9/bld/sdk/misc/palette.c)
00435d60       CreateDIBPalette_
Module: dde.obj(/mnt/sda5/.user/root/src/openwatcom-1.9/bld/vi/win/dde.c)
0045b260       _DDEInstId
0045b268       _ServerCount
0045b26c       _DDERet
00435e10+      _DDECallback@32
00435ee0       CreateStringHandle_
00435fb0       DeleteStringHandle_
00435ff0       DDEInit_
00436030       DDEFini_
0045665c       _ClipboardFormat
0045b274       _UseDDE
Module: srcwin.obj(/mnt/sda5/.user/root/src/openwatcom-1.9/bld/vi/win/srcwin.c)
00436090       GetDWORD_
00436100       RunWindowsCommand_
Module: srcdde.obj(/mnt/sda5/.user/root/src/openwatcom-1.9/bld/vi/win/srcdde.c)
00436750       RunDDECommand_
Module: tool.obj(/mnt/sda5/.user/root/src/openwatcom-1.9/bld/vi/win/tool.c)
0045b278       _ToolBarFloatRect
00436ee0       HandleToolCommand_
00436f70+      ToolBarHelp_
00436fb0+      MyToolBarProc_
00437220       NewToolBar_
004372b0       AddBitmapToToolBar_
004374a0       DeleteFromToolBar_
00437520+      CloseToolBar_
00437550       DestroyToolBar_
004375a0       GetToolbarWindow_
004375b0       BarfToolBarData_
Module: wintica.obj(/mnt/sda5/.user/root/src/openwatcom-1.9/bld/vi/win/wintica.c)
00437610       WindowTile_
004376d0       WindowCascade_
Module: repcnt.obj(/mnt/sda5/.user/root/src/openwatcom-1.9/bld/vi/win/repcnt.c)
004567ac       _RepeatCountWindow
00437850+      _RepeatWindowProc@16
004378e0       NewRepeatCountWindow_
00437990       UpdateRepeatString_
Module: clipbrd.obj(/mnt/sda5/.user/root/src/openwatcom-1.9/bld/vi/win/clipbrd.c)
00437a50       AddLineToClipboard_
00437ae0       AddFcbsToClipboard_
00437c60       GetClipboardSavebuf_
00437dc0       IsClipboardEmpty_
Module: asavedlg.obj(/mnt/sda5/.user/root/src/openwatcom-1.9/bld/vi/win/asavedlg.c)
00437df0+      _ASaveDlgProc@16
00437e70       GetAutosaveResponse_
Module: profile.obj(/mnt/sda5/.user/root/src/openwatcom-1.9/bld/vi/win/profile.c)
00438120+      writeInitialPosition_
00438380       SetSaveConfig_
00438390       ReadProfile_
00438430       WriteProfile_
00438450       FiniProfile_
Module: finddlg.obj(/mnt/sda5/.user/root/src/openwatcom-1.9/bld/vi/win/finddlg.c)
00438480+      _FindDlgProc@16
00438880       GetFindStringDialog_
Module: ectlsub.obj(/mnt/sda5/.user/root/src/openwatcom-1.9/bld/vi/win/ectlsub.c)
00438b80+      _EditSubClassProc@16
00438bf0       EditSubClass_
00438c50       RemoveEditSubClass_
Module: grepdlg.obj(/mnt/sda5/.user/root/src/openwatcom-1.9/bld/vi/win/grepdlg.c)
00438c80+      _GrepDlgProc@16
00438ce0       InitGrepDialog_
00438d20       FiniGrepDialog_
00438d80       SetGrepDialogFile_
Module: cmddlg.obj(/mnt/sda5/.user/root/src/openwatcom-1.9/bld/vi/win/cmddlg.c)
00438dc0+      _CmdDlgProc@16
00439010       GetCmdDialog_
Module: statwnd.obj(/mnt/sda5/.user/root/src/openwatcom-1.9/bld/sdk/misc/statwnd.c)
004392c0+      _StatusWndCallback@16
00439510       StatusWndInit_
00439650       StatusWndChangeSysColors_
004397e0       StatusWndCreate_
004398f0+      StatusWndDraw3DBox_
00439960+      outputText_
00439af0       StatusWndDrawLine_
00439c90       StatusWndSetSeparators_
00439ce0       StatusWndFini_
Module: toolbr.obj(/mnt/sda5/.user/root/src/openwatcom-1.9/bld/sdk/misc/toolbr.c)
00439f30*      ToolBarRedrawButtons_
00439f50       ToolBarInit_
0043a130       ToolBarChangeSysColors_
0043a210+      ToolBarDestroy_
0043a270       ToolBarFini_
0043a2f0       ToolBarAddItem_
0043a4c0*      ToolBarSetState_
0043a510*      ToolBarGetState_
0043a570       ToolBarDeleteItem_
0043a5e0       ToolBarDisplay_
0043a920       ToolBarWindow_
0043a940       UpdateToolBar_
0043b070*      isPointInToolbar_
0043b1b0*      HasToolAtPoint_
0043b200+      FindToolIDAtPoint_
0043b250+      _ToolBarWndProc@16
0043b690+      _WinToolWndProc@16
0043b850+      _ToolContainerWndProc@16
0043b900*      ChangeToolButtonBitmap_
0043b9e0+      TB_TransparentBlt_
0043bba0+      TB_CreateTransparentBitmap_
Module: ftbar.obj(/mnt/sda5/.user/root/src/openwatcom-1.9/bld/vi/win/ftbar.c)
0043bca0+      _EnumFamTypefaces@16
0043bcd0+      _EnumFamInfo@16
0043bd60+      _SetupFontData@16
0043c410+      _FtDlgProc@16
0043c650       RefreshFontbar_
00456840*      _YPIXELS_PER_INCH
0045b554+      _NStyles
0045b558+      _NSizes
0045b55c*      _lpfnOldSize
0045b560+      _hwndTypeface
0045b564+      _hwndSizeEdit
0045b568       _hFontbar
0045b56c+      _hwndPick
0045b570       _CurLogfont
0045b5ac+      _hwndSize
0045b5b0+      _Style
0045b5b4+      _hwndStyle
Module: about.obj(/mnt/sda5/.user/root/src/openwatcom-1.9/bld/sdk/misc/about.c)
0043c780+      _AboutProc@16
0043c9a0       DoAbout_
Module: startdlg.obj(/mnt/sda5/.user/root/src/openwatcom-1.9/bld/vi/win/startdlg.c)
0043c9f0+      _StartupProc@16
0043ca90       ShowStartupDialog_
0043cac0       CloseStartupDialog_
Module: usage.obj(/mnt/sda5/.user/root/src/openwatcom-1.9/bld/vi/win/usage.c)
0043caf0+      _UsageProc@16
0043cba0       UsageDialog_
Module: tagdlg.obj(/mnt/sda5/.user/root/src/openwatcom-1.9/bld/vi/win/tagdlg.c)
0043cc00+      _TagListProc@16
0043cd30       PickATag_
Module: ldstr.obj(/mnt/sda5/.user/root/src/openwatcom-1.9/bld/sdk/misc/ldstr.c)
0043cd60*      GetRCString_
0043cd90+      AllocRCString_
0043cdf0       CopyRCString_
0043ce10*      FreeRCString_
0043ce20       SetInstance_
0043ce30       RCsprintf_
0043ce70*      RCfprintf_
0043ceb0*      RCvfprintf_
0043ced0*      RCMessageBox_
Module: linedlg.obj(/mnt/sda5/.user/root/src/openwatcom-1.9/bld/vi/win/linedlg.c)
0043cf10+      _GotoLineDlgProc@16
0043cfc0       GetLineDialog_
Module: clrbar.obj(/mnt/sda5/.user/root/src/openwatcom-1.9/bld/vi/win/clrbar.c)
0043d060+      _ClrDlgProc@16
0043d0d0       RefreshColorbar_
0045b9dc       _hColorbar
Module: clrpick.obj(/mnt/sda5/.user/root/src/openwatcom-1.9/bld/vi/win/clrpick.c)
0043d3a0+      drawFocus_
0043d850+      _ClrPickProc@16
0043d900       InitClrPick_
0043d980       FiniClrPick_
0045baec+      _Width
0045baf0+      _Height
Module: ftpick.obj(/mnt/sda5/.user/root/src/openwatcom-1.9/bld/vi/win/ftpick.c)
0043dc20+      drawCurLogfont_
0043dd90+      _FtPickProc@16
0043de20       InitFtPick_
0043dea0       FiniFtPick_
Module: repdlg.obj(/mnt/sda5/.user/root/src/openwatcom-1.9/bld/vi/win/repdlg.c)
0043ded0+      _RepDlgProc@16
0043e2e0       GetReplaceStringDialog_
Module: setfs.obj(/mnt/sda5/.user/root/src/openwatcom-1.9/bld/vi/ctl/setfs.c)
0043ef00+      _SetFSProc@16
0043f120       GetSetFSDialog_
004568dc+      _Dyn_setfs
00456904+      _Ctl_setfs
Module: setscr.obj(/mnt/sda5/.user/root/src/openwatcom-1.9/bld/vi/ctl/setscr.c)
0043f2e0+      _SetScrProc@16
0043f3d0       GetSetScrDialog_
00456ad0+      _Ctl_setscr
Module: setgen.obj(/mnt/sda5/.user/root/src/openwatcom-1.9/bld/vi/ctl/setgen.c)
0043f820+      _SetGenProc@16
0043f940       GetSetGenDialog_
00456b64+      _Dyn_setgen
00456b94+      _Ctl_setgen
Module: util.obj(/mnt/sda5/.user/root/src/openwatcom-1.9/bld/vi/ctl/util.c)
0043fba0       UtilUpdateBoolean_
0043fc30       UtilUpdateInt_
0043fc70*      UtilUpdateChar_
0043fcb0       UtilUpdateStr_
Module: hotkey.obj(/mnt/sda5/.user/root/src/openwatcom-1.9/bld/vi/win/hotkey.c)
0043fcf0       _HotkeyProc@16
Module: ssbar.obj(/mnt/sda5/.user/root/src/openwatcom-1.9/bld/vi/win/ssbar.c)
0045cf54       _hSSbar
0043fdf0+      findBlockString_
0043fe20+      totalRedraw_
0043fe60+      destroyBlock_
0043ff50+      splitBlock_
00440100+      buildNewItem_
004402c0+      buildDefaults_
00440330+      buildNewStatusString_
00440570+      _StaticSubclassProc@16
004405e0+      addSubclasses_
00440650+      removeSubclasses_
004406b0+      _SSDlgProc@16
00440710       RefreshSSbar_
Module: subclass.obj(/mnt/sda5/.user/root/src/openwatcom-1.9/bld/vi/win/subclass.c)
00440780       SubclassGenericAdd_
004407d0       SubclassGenericRemove_
00440820       SubclassGenericInit_
00440830       SubclassGenericFini_
00440840       SubclassGenericFindOldProc_
0045cf60+      _procHead
0045cf64+      _procTail
Module: snoop.obj(/mnt/sda5/.user/root/src/openwatcom-1.9/bld/vi/win/snoop.c)
004408b0+      _BrowseCallbackProc@16
004408e0+      _SnoopDlgProc@16
00440bd0       GetSnoopStringDialog_
Module: wwinhelp.obj(/mnt/sda5/.user/root/src/openwatcom-1.9/bld/sdk/misc/wwinhelp.c)
00440cd0       WWinHelp_
00440e90       WHtmlHelp_
Module: hackdctl.obj(/mnt/sda5/.user/root/src/openwatcom-1.9/bld/vi/win/hackdctl.c)
00441030       ctl_dlg_init_
00441090       ctl_dlg_done_
004410f0       ctl_dlg_process_
00441130       ctl_dlg_reset_
00441140       dyn_tpl_init_
004412e0       dyn_tpl_process_
00456d48+      _Ctl_int_actions
Module: filetype.obj(/mnt/sda5/.user/root/src/openwatcom-1.9/bld/vi/win/filetype.c)
00441cf0       UpdateFileTypeIcon_
Module: spawn.obj(/mnt/sda5/.user/root/src/openwatcom-1.9/bld/vi/nt/spawn.c)
00441df0*      ResetSpawnScreen_
00441e00       MySpawn_
Module: ntcmds.obj(/mnt/sda5/.user/root/src/openwatcom-1.9/bld/vi/nt/ntcmds.c)
00456dc0       _ExeExtensions
00456dc8       _ExeExtensionCount
00456dcc       _InternalCommands
00456e48       _InternalCommandCount
Module: /mnt/sda5/.user/root/src/openwatcom-1.9/rel2/lib386/nt/clib3r.lib(tolower.c)
00442020       tolower_
Module: /mnt/sda5/.user/root/src/openwatcom-1.9/rel2/lib386/nt/clib3r.lib(strcspn.c)
00442030       strcspn_
Module: /mnt/sda5/.user/root/src/openwatcom-1.9/rel2/lib386/nt/clib3r.lib(strnicmp.c)
00442080       strnicmp_
Module: /mnt/sda5/.user/root/src/openwatcom-1.9/rel2/lib386/nt/clib3r.lib(strncmp.c)
004420d0       strncmp_
Module: /mnt/sda5/.user/root/src/openwatcom-1.9/rel2/lib386/nt/clib3r.lib(istable.c)
00442100       __IsTable
Module: /mnt/sda5/.user/root/src/openwatcom-1.9/rel2/lib386/nt/clib3r.lib(strupr.c)
00442210       strupr_
Module: /mnt/sda5/.user/root/src/openwatcom-1.9/rel2/lib386/nt/clib3r.lib(strncpy.c)
00442230       strncpy_
Module: /mnt/sda5/.user/root/src/openwatcom-1.9/rel2/lib386/nt/clib3r.lib(ltoa.c)
00442270       ultoa_
004422c0       ltoa_
Module: /mnt/sda5/.user/root/src/openwatcom-1.9/rel2/lib386/nt/clib3r.lib(atoi.c)
004422f0       atoi_
Module: /mnt/sda5/.user/root/src/openwatcom-1.9/rel2/lib386/nt/clib3r.lib(toupper.c)
00442340       toupper_
Module: /mnt/sda5/.user/root/src/openwatcom-1.9/rel2/lib386/nt/clib3r.lib(strlwr.c)
00442350       strlwr_
Module: /mnt/sda5/.user/root/src/openwatcom-1.9/rel2/lib386/nt/clib3r.lib(nmalloc.c)
00442370       _nmalloc_
00442370       malloc_
00456e4c       ___nheapbeg
00456e50       ___MiniHeapRover
00456e54       ___LargestSizeB4MiniHeapRover
Module: /mnt/sda5/.user/root/src/openwatcom-1.9/rel2/lib386/nt/clib3r.lib(nmsize.c)
00442470       _nmsize_
00442470       _msize_
Module: /mnt/sda5/.user/root/src/openwatcom-1.9/rel2/lib386/nt/clib3r.lib(memset.c)
00442480       memset_
Module: /mnt/sda5/.user/root/src/openwatcom-1.9/rel2/lib386/nt/clib3r.lib(nfree.c)
004424a0       _nfree_
004424a0       free_
0045cf68       ___MiniHeapFreeRover
Module: /mnt/sda5/.user/root/src/openwatcom-1.9/rel2/lib386/nt/clib3r.lib(nrealloc.c)
004425b0*      _nrealloc_
004425b0       realloc_
Module: /mnt/sda5/.user/root/src/openwatcom-1.9/rel2/lib386/nt/clib3r.lib(getenv.c)
00442630       getenv_
Module: /mnt/sda5/.user/root/src/openwatcom-1.9/rel2/lib386/nt/clib3r.lib(setenv.c)
004426c0       setenv_
00442970       _setenv_
Module: /mnt/sda5/.user/root/src/openwatcom-1.9/rel2/lib386/nt/clib3r.lib(openwnt.c)
00442d80       open_
00442da0       sopen_
Module: /mnt/sda5/.user/root/src/openwatcom-1.9/rel2/lib386/nt/clib3r.lib(close.c)
00442dd0       close_
Module: /mnt/sda5/.user/root/src/openwatcom-1.9/rel2/lib386/nt/clib3r.lib(argcv.c)
0045cf6c       __argc
0045cf70       __argv
0045cf74       ___argv
0045cf78       ___argc
Module: /mnt/sda5/.user/root/src/openwatcom-1.9/rel2/lib386/nt/clib3r.lib(strstr.c)
00442df0       strstr_
Module: /mnt/sda5/.user/root/src/openwatcom-1.9/rel2/lib386/nt/clib3r.lib(cmdname.c)
00442ea0       _cmdname_
Module: /mnt/sda5/.user/root/src/openwatcom-1.9/rel2/lib386/nt/clib3r.lib(itoa.c)
00442ed0       utoa_
00442f20       itoa_
Module: /mnt/sda5/.user/root/src/openwatcom-1.9/rel2/lib386/nt/clib3r.lib(setjmp)
00442f44       _setjmp_
00442f7d       longjmp_
Module: /mnt/sda5/.user/root/src/openwatcom-1.9/rel2/lib386/nt/clib3r.lib(fopen.c)
00443010       __open_flags_
00443220+      _fsopen_
00443270       fopen_
00443300*      freopen_
Module: /mnt/sda5/.user/root/src/openwatcom-1.9/rel2/lib386/nt/clib3r.lib(fgets.c)
00443370       fgets_
Module: /mnt/sda5/.user/root/src/openwatcom-1.9/rel2/lib386/nt/clib3r.lib(fclose.c)
004433e0       __doclose_
00443480       __shutdown_stream_
004434a0       fclose_
0045cf7c+      ___RmTmpFileFn
Module: /mnt/sda5/.user/root/src/openwatcom-1.9/rel2/lib386/nt/clib3r.lib(stricmp.c)
004434f0       stricmp_
Module: /mnt/sda5/.user/root/src/openwatcom-1.9/rel2/lib386/nt/clib3r.lib(fullpath.c)
00443540+      _sys_fullpath_
004435c0       _fullpath_
Module: /mnt/sda5/.user/root/src/openwatcom-1.9/rel2/lib386/nt/clib3r.lib(splitpat.c)
00443670       _splitpath_
Module: /mnt/sda5/.user/root/src/openwatcom-1.9/rel2/lib386/nt/clib3r.lib(makepath.c)
00443760       _makepath_
Module: /mnt/sda5/.user/root/src/openwatcom-1.9/rel2/lib386/nt/clib3r.lib(_strcmp)
00443910       strcmp_
Module: /mnt/sda5/.user/root/src/openwatcom-1.9/rel2/lib386/nt/clib3r.lib(dirwnt.c)
00443ad0+      __opendir_
00443b50+      _opendir_
00443ce0       opendir_
00443d00       readdir_
00443db0       closedir_
00443e00*      rewinddir_
Module: /mnt/sda5/.user/root/src/openwatcom-1.9/rel2/lib386/nt/clib3r.lib(qsort.c)
00443e90       qsort_
Module: /mnt/sda5/.user/root/src/openwatcom-1.9/rel2/lib386/nt/clib3r.lib(strncat.c)
00444540       strncat_
Module: /mnt/sda5/.user/root/src/openwatcom-1.9/rel2/lib386/nt/clib3r.lib(accsswnt.c)
00444580       access_
Module: /mnt/sda5/.user/root/src/openwatcom-1.9/rel2/lib386/nt/clib3r.lib(errno.c)
004445b0       __get_errno_ptr_
004445c0*      __get_doserrno_ptr_
Module: /mnt/sda5/.user/root/src/openwatcom-1.9/rel2/lib386/nt/clib3r.lib(exit.c)
004445ca+      __null_int23_exit_
004445cb       exit_
0044461b*      _exit_
00456e58+      ___int23_exit
00456e5c+      ___FPE_handler_exit
Module: /mnt/sda5/.user/root/src/openwatcom-1.9/rel2/lib386/nt/clib3r.lib(clockwin.c)
00444640       clock_
Module: /mnt/sda5/.user/root/src/openwatcom-1.9/rel2/lib386/nt/clib3r.lib(remove.c)
00444670       remove_
Module: /mnt/sda5/.user/root/src/openwatcom-1.9/rel2/lib386/nt/clib3r.lib(gtpidwnt.c)
00444680       getpid_
Module: /mnt/sda5/.user/root/src/openwatcom-1.9/rel2/lib386/nt/clib3r.lib(fdopen.c)
004446e0       fdopen_
Module: /mnt/sda5/.user/root/src/openwatcom-1.9/rel2/lib386/nt/clib3r.lib(strerror.c)
00444ae0       strerror_
00444b00*      _strerror_
00444bd0*      _doserror_
00456e60+      __sys_errlist
00456f04+      __sys_nerr
Module: /mnt/sda5/.user/root/src/openwatcom-1.9/rel2/lib386/nt/clib3r.lib(renamwnt.c)
00444c00       rename_
Module: /mnt/sda5/.user/root/src/openwatcom-1.9/rel2/lib386/nt/clib3r.lib(strtol.c)
00444e40       strtoul_
00444e50       strtol_
Module: /mnt/sda5/.user/root/src/openwatcom-1.9/rel2/lib386/nt/clib3r.lib(fprintf.c)
00444e60       fprintf_
Module: /mnt/sda5/.user/root/src/openwatcom-1.9/rel2/lib386/nt/clib3r.lib(printf.c)
00444e90       printf_
Module: /mnt/sda5/.user/root/src/openwatcom-1.9/rel2/lib386/nt/clib3r.lib(time.c)
00444ec0       time_
Module: /mnt/sda5/.user/root/src/openwatcom-1.9/rel2/lib386/nt/clib3r.lib(localtim.c)
00444f00       _localtime_
00444f60       localtime_
Module: /mnt/sda5/.user/root/src/openwatcom-1.9/rel2/lib386/nt/clib3r.lib(strftime.c)
004451dd       strftime_
Module: /mnt/sda5/.user/root/src/openwatcom-1.9/rel2/lib386/nt/clib3r.lib(atol.c)
00445720       atol_
Module: /mnt/sda5/.user/root/src/openwatcom-1.9/rel2/lib386/nt/clib3r.lib(stackwnt.c)
00445770       stackavail_
Module: /mnt/sda5/.user/root/src/openwatcom-1.9/rel2/lib386/nt/clib3r.lib(stk)
00445781*      __CHK
00445791*      __STK
004457b0       __STKOVERFLOW_
004457c0       __GRO
004457e0*      __alloca_probe
Module: /mnt/sda5/.user/root/src/openwatcom-1.9/rel2/lib386/nt/clib3r.lib(gtcwdwnt.c)
00445800       getcwd_
Module: /mnt/sda5/.user/root/src/openwatcom-1.9/rel2/lib386/nt/clib3r.lib(chdirwnt.c)
00445890       chdir_
Module: /mnt/sda5/.user/root/src/openwatcom-1.9/rel2/lib386/nt/clib3r.lib(isattwnt.c)
004458b0       isatty_
Module: /mnt/sda5/.user/root/src/openwatcom-1.9/rel2/lib386/nt/clib3r.lib(tell.c)
004458d0       tell_
Module: /mnt/sda5/.user/root/src/openwatcom-1.9/rel2/lib386/nt/clib3r.lib(lseek.c)
004458f0       lseek_
Module: /mnt/sda5/.user/root/src/openwatcom-1.9/rel2/lib386/nt/clib3r.lib(searchen.c)
00445940       _searchenv_
Module: /mnt/sda5/.user/root/src/openwatcom-1.9/rel2/lib386/nt/clib3r.lib(tmpnm.c)
00445af0       tmpnam_
Module: /mnt/sda5/.user/root/src/openwatcom-1.9/rel2/lib386/nt/clib3r.lib(sprintf.c)
00445bc0       sprintf_
Module: /mnt/sda5/.user/root/src/openwatcom-1.9/rel2/lib386/nt/clib3r.lib(strrchr.c)
00445bf0       strrchr_
Module: /mnt/sda5/.user/root/src/openwatcom-1.9/rel2/lib386/nt/clib3r.lib(read.c)
00445c10       read_
Module: /mnt/sda5/.user/root/src/openwatcom-1.9/rel2/lib386/nt/clib3r.lib(fputc.c)
00445da0       fputc_
Module: /mnt/sda5/.user/root/src/openwatcom-1.9/rel2/lib386/nt/clib3r.lib(iob.c)
00456fa4       ___iob
004571ac       __fmode
0045d094       ___OpenStreams
0045d098       ___ClosedStreams
Module: /mnt/sda5/.user/root/src/openwatcom-1.9/rel2/lib386/nt/clib3r.lib(memmove.c)
00445e80       memmove_
Module: /mnt/sda5/.user/root/src/openwatcom-1.9/rel2/lib386/nt/clib3r.lib(setvbuf.c)
00445ee0       setvbuf_
Module: /mnt/sda5/.user/root/src/openwatcom-1.9/rel2/lib386/nt/clib3r.lib(write.c)
004461b0       write_
Module: /mnt/sda5/.user/root/src/openwatcom-1.9/rel2/lib386/nt/clib3r.lib(fread.c)
00446410       fread_
Module: /mnt/sda5/.user/root/src/openwatcom-1.9/rel2/lib386/nt/clib3r.lib(fwrite.c)
004465f0       fwrite_
Module: /mnt/sda5/.user/root/src/openwatcom-1.9/rel2/lib386/nt/clib3r.lib(chmodwnt.c)
00446800       chmod_
Module: /mnt/sda5/.user/root/src/openwatcom-1.9/rel2/lib386/nt/clib3r.lib(setmd.c)
00446830       setmode_
Module: /mnt/sda5/.user/root/src/openwatcom-1.9/rel2/lib386/nt/clib3r.lib(cstrtwwt)
0044691e       _wstart_
0044691e*      _wstart2_
0044691e*      WinMainCRTStartup
Module: /mnt/sda5/.user/root/src/openwatcom-1.9/rel2/lib386/nt/clib3r.lib(strpbrk.c)
00446980       strpbrk_
Module: /mnt/sda5/.user/root/src/openwatcom-1.9/rel2/lib386/nt/clib3r.lib(findwnt.c)
004469d0       _dos_findfirst_
00446a50*      _dos_findnext_
00446ab0*      _dos_findclose_
Module: /mnt/sda5/.user/root/src/openwatcom-1.9/rel2/lib386/nt/clib3r.lib(asctime.c)
00446b3c+      _asctime_
00446c24*      asctime_
00446c3b*      _ctime_
00446c54       ctime_
Module: /mnt/sda5/.user/root/src/openwatcom-1.9/rel2/lib386/nt/clib3r.lib(bsearch.c)
00446c60       bsearch_
Module: /mnt/sda5/.user/root/src/openwatcom-1.9/rel2/lib386/nt/clib3r.lib(delaywnt.c)
00446ce0       delay_
Module: /mnt/sda5/.user/root/src/openwatcom-1.9/rel2/lib386/nt/clib3r.lib(gdrvewnt.c)
00446cf0       _dos_getdrive_
Module: /mnt/sda5/.user/root/src/openwatcom-1.9/rel2/lib386/nt/clib3r.lib(sdrvewnt.c)
00446d30       _dos_setdrive_
Module: /mnt/sda5/.user/root/src/openwatcom-1.9/rel2/lib386/nt/clib3r.lib(fseek.c)
00446db0       fseek_
Module: /mnt/sda5/.user/root/src/openwatcom-1.9/rel2/lib386/nt/clib3r.lib(mkdirwnt.c)
00446ec0       mkdir_
Module: /mnt/sda5/.user/root/src/openwatcom-1.9/rel2/lib386/nt/clib3r.lib(statwnt.c)
00446fe6       stat_
Module: /mnt/sda5/.user/root/src/openwatcom-1.9/rel2/lib386/nt/clib3r.lib(_istrcmp.asm)
00447218       strcmpi_
Module: /mnt/sda5/.user/root/src/openwatcom-1.9/rel2/lib386/nt/clib3r.lib(vsprintf.c)
00447240       vsprintf_
Module: /mnt/sda5/.user/root/src/openwatcom-1.9/rel2/lib386/nt/clib3r.lib(vfprintf.c)
00447260       vfprintf_
Module: /mnt/sda5/.user/root/src/openwatcom-1.9/rel2/lib386/nt/clib3r.lib(mbisdbcs.c)
0045d09c       ___IsDBCS
Module: /mnt/sda5/.user/root/src/openwatcom-1.9/rel2/lib386/nt/clib3r.lib(sscanf.c)
004472b0+      vsscanf_
004472e0       sscanf_
Module: /mnt/sda5/.user/root/src/openwatcom-1.9/rel2/lib386/nt/clib3r.lib(fltused.c)
004571b0       _fltused_
Module: /mnt/sda5/.user/root/src/openwatcom-1.9/rel2/lib386/nt/emu387.lib(386)
00447310       __init_387_emulator
00447311*      __fini_387_emulator
Module: /mnt/sda5/.user/root/src/openwatcom-1.9/rel2/lib386/nt/clib3r.lib(_8087)
004571b4       __8087
004571b5       __real87
Module: /mnt/sda5/.user/root/src/openwatcom-1.9/rel2/lib386/nt/clib3r.lib(setbits.c)
00447320       __setbits_
Module: /mnt/sda5/.user/root/src/openwatcom-1.9/rel2/lib386/nt/clib3r.lib(bits.c)
00447360       __Bits
Module: /mnt/sda5/.user/root/src/openwatcom-1.9/rel2/lib386/nt/clib3r.lib(alphabet.c)
00453004       ___Alphabet
Module: /mnt/sda5/.user/root/src/openwatcom-1.9/rel2/lib386/nt/clib3r.lib(mainwnt.c)
004571b8*      ___TlsIndex
004571bc+      ___FirstThreadData
004571c0       ___GetThreadPtr
004571c4       __AccessFileH
004571c8       __ReleaseFileH
004571cc       __AccessIOB
004571d0       __ReleaseIOB
004571d4       __AccessNHeap
004571d8*      __AccessFHeap
004571dc       __ReleaseNHeap
00447380*      __threadid_
004473a0+      __sig_null_rtn_
004473b0+      __NTInit_
00447590+      __NTFini_
004475f0       __NTMainInit_
00447650       __exit_
004571e0*      __ReleaseFHeap
004571e4*      __AccessTDList
004571e8*      __ReleaseTDList
004571ec       __AccessFList
004571f0       __ReleaseFList
004571f4+      __ThreadExitRtn
004571f8       ___sig_init_rtn
004571fc       ___sig_fini_rtn
00457200       ___process_fini
0045d0a8       ___Is_DLL
Module: /mnt/sda5/.user/root/src/openwatcom-1.9/rel2/lib386/nt/clib3r.lib(nmemneed.c)
004476a0       __nmemneed_
Module: /mnt/sda5/.user/root/src/openwatcom-1.9/rel2/lib386/nt/clib3r.lib(mem.c)
004476b0       __MemAllocator
00447760       __MemFree
Module: /mnt/sda5/.user/root/src/openwatcom-1.9/rel2/lib386/nt/clib3r.lib(grownear.c)
00447a00       __ExpandDGROUP_
Module: /mnt/sda5/.user/root/src/openwatcom-1.9/rel2/lib386/nt/clib3r.lib(__stos)
00447a20       __STOSB
00447a57*      __STOSD
Module: /mnt/sda5/.user/root/src/openwatcom-1.9/rel2/lib386/nt/clib3r.lib(nexpand.c)
00447ad0       _nexpand_
00447ad0*      _expand_
00447b10+      __HeapManager_expand_
Module: /mnt/sda5/.user/root/src/openwatcom-1.9/rel2/lib386/nt/clib3r.lib(environ.c)
0045d6c4       ___env_mask
0045d6c8       _environ
0045d6cc       __wenviron
Module: /mnt/sda5/.user/root/src/openwatcom-1.9/rel2/lib386/nt/clib3r.lib(mbterm.c)
00447cd0       _mbterm_
Module: /mnt/sda5/.user/root/src/openwatcom-1.9/rel2/lib386/nt/clib3r.lib(mbsnextc.c)
00447d10       _mbsnextc_
Module: /mnt/sda5/.user/root/src/openwatcom-1.9/rel2/lib386/nt/clib3r.lib(mbcupper.c)
00447d50       _mbctoupper_
Module: /mnt/sda5/.user/root/src/openwatcom-1.9/rel2/lib386/nt/clib3r.lib(mbsinc.c)
00447d80       _mbsinc_
Module: /mnt/sda5/.user/root/src/openwatcom-1.9/rel2/lib386/nt/clib3r.lib(mbslen.c)
00447db0       _mbslen_
Module: /mnt/sda5/.user/root/src/openwatcom-1.9/rel2/lib386/nt/clib3r.lib(mbstowcs.c)
00447de0       mbstowcs_
Module: /mnt/sda5/.user/root/src/openwatcom-1.9/rel2/lib386/nt/clib3r.lib(usetenv.c)
00447e60*      _wsetenv_
004480b0       __wsetenv_
Module: /mnt/sda5/.user/root/src/openwatcom-1.9/rel2/lib386/nt/clib3r.lib(seterrno.c)
00448224       __set_errno_
00448232*      __set_EDOM_
00448240       __set_ERANGE_
0044824e*      __set_EINVAL_
00448261       __set_doserrno_
Module: /mnt/sda5/.user/root/src/openwatcom-1.9/rel2/lib386/nt/clib3r.lib(hdlman.c)
00457204+      ___NHandles
00457208+      ___OSHandles
0045720c+      ___FakeHandles
00448270+      __growPOSIXHandles_
00448310       __allocPOSIXHandle_
004483d0       __freePOSIXHandle_
004483f0       __getOSHandle_
00448400       __setOSHandle_
00448450+      __NTGetFakeHandle_
004484c0       __initPOSIXHandles_
004485a0*      __set_handles_
004485b0*      _grow_handles_
Module: /mnt/sda5/.user/root/src/openwatcom-1.9/rel2/lib386/nt/clib3r.lib(ntfio.c)
004485f0*      __GetNTCreateAttr_
00448630       __GetNTAccessAttr_
00448660       __GetNTShareAttr_
Module: /mnt/sda5/.user/root/src/openwatcom-1.9/rel2/lib386/nt/clib3r.lib(umaskval.c)
00457218       ___umaskval
Module: /mnt/sda5/.user/root/src/openwatcom-1.9/rel2/lib386/nt/clib3r.lib(stiomode.c)
004486c0       __grow_iomode_
00448790+      __shrink_iomode_
004487d0       __SetIOMode_
Module: /mnt/sda5/.user/root/src/openwatcom-1.9/rel2/lib386/nt/clib3r.lib(dosret.c)
00448840*      _dosretax_
00448850*      _dosret0_
00448860       __set_errno_dos_
00448890       __set_errno_dos_reterr_
004488a0       __set_errno_nt_
004488b0       __set_errno_nt_reterr_
Module: /mnt/sda5/.user/root/src/openwatcom-1.9/rel2/lib386/nt/clib3r.lib(iomode.c)
004488d0       __GetIOMode_
004488f0       __SetIOMode_nogrow_
00457320       ___NFiles
00457324       ___init_mode
00457374       ___io_mode
Module: /mnt/sda5/.user/root/src/openwatcom-1.9/rel2/lib386/nt/clib3r.lib(_clsewnt.c)
00448910       __close_
Module: /mnt/sda5/.user/root/src/openwatcom-1.9/rel2/lib386/nt/clib3r.lib(initargv.c)
00448970       __Init_Argv_
004489c0+      _getargv_
00448b60       __Fini_Argv_
Module: /mnt/sda5/.user/root/src/openwatcom-1.9/rel2/lib386/nt/clib3r.lib(ljmphdl.c)
00457378       ___longjmp_handler
Module: /mnt/sda5/.user/root/src/openwatcom-1.9/rel2/lib386/nt/clib3r.lib(comtflag.c)
00448b80*      __set_commode_
0045737c       __commode
Module: /mnt/sda5/.user/root/src/openwatcom-1.9/rel2/lib386/nt/clib3r.lib(chktty.c)
00448b90       __chktty_
Module: /mnt/sda5/.user/root/src/openwatcom-1.9/rel2/lib386/nt/clib3r.lib(freefp.c)
00448bd0       __freefp_
00448c20       __purgefp_
Module: /mnt/sda5/.user/root/src/openwatcom-1.9/rel2/lib386/nt/clib3r.lib(allocfp.c)
00448c50       __allocfp_
Module: /mnt/sda5/.user/root/src/openwatcom-1.9/rel2/lib386/nt/clib3r.lib(fgetc.c)
00448d20       __fill_buffer_
00448e20       fgetc_
Module: /mnt/sda5/.user/root/src/openwatcom-1.9/rel2/lib386/nt/clib3r.lib(__lseek.c)
00448ee0       __lseek_
Module: /mnt/sda5/.user/root/src/openwatcom-1.9/rel2/lib386/nt/clib3r.lib(flush.c)
00448f20       __flush_
Module: /mnt/sda5/.user/root/src/openwatcom-1.9/rel2/lib386/nt/clib3r.lib(mbsnccnt.c)
00449020       _mbsnccnt_
Module: /mnt/sda5/.user/root/src/openwatcom-1.9/rel2/lib386/nt/clib3r.lib(mbsncpy.c)
00449050       _mbsncpy_
Module: /mnt/sda5/.user/root/src/openwatcom-1.9/rel2/lib386/nt/clib3r.lib(mbsnbcnt.c)
00449070       _mbsnbcnt_
Module: /mnt/sda5/.user/root/src/openwatcom-1.9/rel2/lib386/nt/clib3r.lib(mbconv.c)
004490e0       _mbvtop_
Module: /mnt/sda5/.user/root/src/openwatcom-1.9/rel2/lib386/nt/clib3r.lib(mbclen.c)
00449100       _mbclen_
Module: /mnt/sda5/.user/root/src/openwatcom-1.9/rel2/lib386/nt/clib3r.lib(mbsdec.c)
00449130       _mbsdec_
Module: /mnt/sda5/.user/root/src/openwatcom-1.9/rel2/lib386/nt/clib3r.lib(ntdirinf.c)
004491b0       __MakeDOSDT_
004491e0*      __FromDOSDT_
00449210       __GetNTDirInfo_
00449250       __NTFindNextFileWithAttr_
Module: /mnt/sda5/.user/root/src/openwatcom-1.9/rel2/lib386/nt/clib3r.lib(strdup.c)
004492b0       __clib_strdup_
Module: /mnt/sda5/.user/root/src/openwatcom-1.9/rel2/lib386/nt/clib3r.lib(fgtattr.c)
004492f0       __fixed_GetFileAttributesA_
Module: /mnt/sda5/.user/root/src/openwatcom-1.9/rel2/lib386/nt/clib3r.lib(initrtns.c)
004493a0       __InitRtns
004493f0       __FiniRtns
Module: /mnt/sda5/.user/root/src/openwatcom-1.9/rel2/lib386/nt/clib3r.lib(unlnkwnt.c)
00449450       unlink_
Module: /mnt/sda5/.user/root/src/openwatcom-1.9/rel2/lib386/nt/clib3r.lib(fprtf.c)
00449490       __fprtf_
Module: /mnt/sda5/.user/root/src/openwatcom-1.9/rel2/lib386/nt/clib3r.lib(gtctmwnt.c)
00449550       __getctime_
Module: /mnt/sda5/.user/root/src/openwatcom-1.9/rel2/lib386/nt/clib3r.lib(mktime.c)
004495c0       mktime_
Module: /mnt/sda5/.user/root/src/openwatcom-1.9/rel2/lib386/nt/clib3r.lib(tzset.c)
00457380       ___start_dst
004573a4       ___end_dst
004574cc       _tzname
004574d4       _timezone
004574d8       _daylight
004574dc       ___dst_adjust
004496a0*      __DontCacheOSTZ_
004496b0*      __CacheOSTZ_
00449b90+      __parse_tz_
00449f80       tzset_
Module: /mnt/sda5/.user/root/src/openwatcom-1.9/rel2/lib386/nt/clib3r.lib(gmtime.c)
00449ff0       __brktime_
0044a0f0+      _gmtime_
0044a110*      gmtime_
Module: /mnt/sda5/.user/root/src/openwatcom-1.9/rel2/lib386/nt/clib3r.lib(timeutil.c)
0044a270       __isindst_
Module: /mnt/sda5/.user/root/src/openwatcom-1.9/rel2/lib386/nt/clib3r.lib(leapyear.c)
0044a5a0       __leapyear_
0045302c       ___diyr
00453046       ___dilyr
Module: /mnt/sda5/.user/root/src/openwatcom-1.9/rel2/lib386/nt/clib3r.lib(xmsgwnt.c)
0044a5e0+      __exit_with_msg_
0044a640       __fatal_runtime_error_
Module: /mnt/sda5/.user/root/src/openwatcom-1.9/rel2/lib386/nt/clib3r.lib(strlen.c)
0044a660       strlen_
Module: /mnt/sda5/.user/root/src/openwatcom-1.9/rel2/lib386/nt/clib3r.lib(strcat.c)
0044a680       strcat_
Module: /mnt/sda5/.user/root/src/openwatcom-1.9/rel2/lib386/nt/clib3r.lib(iomodtty.c)
0044a6b0       __ChkTTYIOMode_
0044a6f0*      __IOMode_
Module: /mnt/sda5/.user/root/src/openwatcom-1.9/rel2/lib386/nt/clib3r.lib(ioalloc.c)
0044a710       __ioalloc_
Module: /mnt/sda5/.user/root/src/openwatcom-1.9/rel2/lib386/nt/clib3r.lib(initfile.c)
0044a7e0       __InitFiles_
Module: /mnt/sda5/.user/root/src/openwatcom-1.9/rel2/lib386/nt/clib3r.lib(ioexit.c)
0044a8e0*      fcloseall_
0044a8f0       __full_io_exit_
Module: /mnt/sda5/.user/root/src/openwatcom-1.9/rel2/lib386/nt/clib3r.lib(qread.c)
0044a900       __qread_
Module: /mnt/sda5/.user/root/src/openwatcom-1.9/rel2/lib386/nt/clib3r.lib(qwrit.c)
0044a970       __qwrite_
Module: /mnt/sda5/.user/root/src/openwatcom-1.9/rel2/lib386/nt/clib3r.lib(wmainwnt.c)
0044aa50       __WinMain
Module: /mnt/sda5/.user/root/src/openwatcom-1.9/rel2/lib386/nt/clib3r.lib(segdefns)
00401003       ___begtext
00453000*      __nullarea
004576ac       __Start_XI
004576e8       __End_XI
004576e8       __Start_YI
0045770c       __End_YI
Module: /mnt/sda5/.user/root/src/openwatcom-1.9/rel2/lib386/nt/clib3r.lib(crwdata)
00457528       __osmajor
00457529       __osminor
0045752a       __osbuild
0045752c       __osver
00457530       __winmajor
00457534       __winminor
00457538       __winver
004574f4       __LpDllName
004574f8       __LpwCmdLine
004574fc       __LpwPgmName
00457500       __LpwDllName
004574ec       __LpCmdLine
004574f0       __LpPgmName
004574e4*      __dynend
004574e8       __curbrk
00457504*      __STACKLOW
00457508       __STACKTOP
0045750c       __ASTACKSIZ
00457510       __ASTACKPTR
00457514       __cbyte
00457518*      __cbyte2
0045751c*      __child
00457522       __Envptr
00457526*      __Envseg
00457520       __no87
0045753c       ___FPE_handler
Module: /mnt/sda5/.user/root/src/openwatcom-1.9/rel2/lib386/nt/clib3r.lib(mbspbrk.c)
0044ab10       _mbspbrk_
Module: /mnt/sda5/.user/root/src/openwatcom-1.9/rel2/lib386/nt/clib3r.lib(d2ttime.c)
0044ab60       _d2ttime_
Module: /mnt/sda5/.user/root/src/openwatcom-1.9/rel2/lib386/nt/clib3r.lib(prtf.c)
0044abe0       __prtf_
Module: /mnt/sda5/.user/root/src/openwatcom-1.9/rel2/lib386/nt/clib3r.lib(scnf.c)
0044c410       __scnf_
Module: /mnt/sda5/.user/root/src/openwatcom-1.9/rel2/lib386/nt/clib3r.lib(setefg.c)
0044c680       __setEFGfmt_
Module: /mnt/sda5/.user/root/src/openwatcom-1.9/rel2/lib386/nt/clib3r.lib(chk8087.c)
0044c6c0*      _fpreset_
0044c700       __chk8087_
0044c710*      __init_8087_
Module: /mnt/sda5/.user/root/src/openwatcom-1.9/rel2/lib386/nt/clib3r.lib(getmodfn.c)
0044c730       __lib_GetModuleFileNameW_
Module: /mnt/sda5/.user/root/src/openwatcom-1.9/rel2/lib386/nt/clib3r.lib(ustrdup.c)
0044c7c1       __clib_wcsdup_
Module: /mnt/sda5/.user/root/src/openwatcom-1.9/rel2/lib386/nt/clib3r.lib(excptwnt.c)
0044ce50+      ___ReportException@4
0044d2a0       __DefaultExceptionHandler_
0044d2e0+      ___ExceptionFilter
0044d4f0       __NewExceptionFilter_
0044d520       __DoneExceptionFilter_
00457540       ___oscode_check_func
00457544       ___raise_func
0045d6d8*      _sw
0045d6dc+      ___ExceptionHandled
0045d6dd+      ___ReportInvoked
Module: /mnt/sda5/.user/root/src/openwatcom-1.9/rel2/lib386/nt/clib3r.lib(stklmwnt.c)
0044d560       __init_stack_limits_
Module: /mnt/sda5/.user/root/src/openwatcom-1.9/rel2/lib386/nt/clib3r.lib(amblksiz.c)
0045755c       __amblksiz
Module: /mnt/sda5/.user/root/src/openwatcom-1.9/rel2/lib386/nt/clib3r.lib(heapen.c)
0044d5d0*      _heapenable_
00457560       ___heap_enabled
Module: /mnt/sda5/.user/root/src/openwatcom-1.9/rel2/lib386/nt/clib3r.lib(nheapmin.c)
0044d600       _nheapshrink_
0044d600*      _nheapmin_
0044d600*      _heapmin_
0044d600*      _heapshrink_
Module: /mnt/sda5/.user/root/src/openwatcom-1.9/rel2/lib386/nt/clib3r.lib(setenvp.c)
0044d6f0       __setenvp_
0044d7b0       __freeenvp_
Module: /mnt/sda5/.user/root/src/openwatcom-1.9/rel2/lib386/nt/clib3r.lib(mbislead.c)
0044d800*      _ismbblead_
0045d6e4       ___MBCSIsTable
Module: /mnt/sda5/.user/root/src/openwatcom-1.9/rel2/lib386/nt/clib3r.lib(mbtowc.c)
0044d820       mbtowc_
Module: /mnt/sda5/.user/root/src/openwatcom-1.9/rel2/lib386/nt/clib3r.lib(ugetenv.c)
0044d8b0       _wgetenv_
Module: /mnt/sda5/.user/root/src/openwatcom-1.9/rel2/lib386/nt/clib3r.lib(setenvar.c)
0044d930       __lib_SetEnvironmentVariableW_
Module: /mnt/sda5/.user/root/src/openwatcom-1.9/rel2/lib386/nt/clib3r.lib(crtwenv.c)
0044da20       __create_wide_environment_
Module: /mnt/sda5/.user/root/src/openwatcom-1.9/rel2/lib386/nt/clib3r.lib(ustrlen.c)
0044da88       wcslen_
Module: /mnt/sda5/.user/root/src/openwatcom-1.9/rel2/lib386/nt/clib3r.lib(wcstombs.c)
0044daa0       wcstombs_
Module: /mnt/sda5/.user/root/src/openwatcom-1.9/rel2/lib386/nt/clib3r.lib(utoupper.c)
0044db3f       towupper_
Module: /mnt/sda5/.user/root/src/openwatcom-1.9/rel2/lib386/nt/clib3r.lib(memcpy.c)
0044db50       memcpy_
Module: /mnt/sda5/.user/root/src/openwatcom-1.9/rel2/lib386/nt/clib3r.lib(ustrcpy.c)
0044db6f       wcscpy_
Module: /mnt/sda5/.user/root/src/openwatcom-1.9/rel2/lib386/nt/clib3r.lib(histsplt.c)
0045d7e8       ___historical_splitparms
Module: /mnt/sda5/.user/root/src/openwatcom-1.9/rel2/lib386/nt/clib3r.lib(___argc.c)
0045d7ec       ____Argc
0045d7f0       ____Argv
Module: /mnt/sda5/.user/root/src/openwatcom-1.9/rel2/lib386/nt/clib3r.lib(flushall.c)
0044db90       __flushall_
0044dbd0*      flushall_
Module: /mnt/sda5/.user/root/src/openwatcom-1.9/rel2/lib386/nt/clib3r.lib(gtchewnt.c)
0044dbe0       getche_
Module: /mnt/sda5/.user/root/src/openwatcom-1.9/rel2/lib386/nt/clib3r.lib(fsync.c)
0044dc10       fsync_
Module: /mnt/sda5/.user/root/src/openwatcom-1.9/rel2/lib386/nt/clib3r.lib(mbsnbcpy.c)
0044dc60       _mbsnbcpy_
Module: /mnt/sda5/.user/root/src/openwatcom-1.9/rel2/lib386/nt/clib3r.lib(locmktim.c)
0044dcc0       __local_mktime_
Module: /mnt/sda5/.user/root/src/openwatcom-1.9/rel2/lib386/nt/clib3r.lib(enterdb.c)
0044de00       __EnterWVIDEO_
00457564+      ___WD_Present
Module: /mnt/sda5/.user/root/src/openwatcom-1.9/rel2/lib386/nt/clib3r.lib(mthrdini.c)
0044de30       __InitThreadData_
00457568       ___ThreadDataSize
Module: /mnt/sda5/.user/root/src/openwatcom-1.9/rel2/lib386/nt/clib3r.lib(cinit.c)
0044de60       __CommonInit_
Module: /mnt/sda5/.user/root/src/openwatcom-1.9/rel2/lib386/nt/clib3r.lib(dosseg)
00001234       __DOSseg__
Module: /mnt/sda5/.user/root/src/openwatcom-1.9/rel2/lib386/nt/clib3r.lib(mbschr.c)
0044de70       _mbschr_
Module: /mnt/sda5/.user/root/src/openwatcom-1.9/rel2/lib386/nt/clib3r.lib(wctomb.c)
0044ded0       wctomb_
Module: /mnt/sda5/.user/root/src/openwatcom-1.9/rel2/lib386/nt/clib3r.lib(noefgfmt.c)
0045756c       ___EFG_printf
00457570       ___EFG_scanf
Module: /mnt/sda5/.user/root/src/openwatcom-1.9/rel2/lib386/nt/clib3r.lib(lltoa.c)
0044df60       ulltoa_
0044dfd0*      lltoa_
Module: /mnt/sda5/.user/root/src/openwatcom-1.9/rel2/lib386/nt/clib3r.lib(fdfs386)
0044dffc       __FDFS
Module: /mnt/sda5/.user/root/src/openwatcom-1.9/rel2/lib386/nt/clib3r.lib(i8m)
0044e048*      __I8M
0044e048       __U8M
Module: /mnt/sda5/.user/root/src/openwatcom-1.9/rel2/lib386/math387r.lib(efgfmt.c)
0044e064       _EFG_Format_
Module: /mnt/sda5/.user/root/src/openwatcom-1.9/rel2/lib386/math387r.lib(cnvs2d.c)
0044e1ce       __cnvs2d_
Module: /mnt/sda5/.user/root/src/openwatcom-1.9/rel2/lib386/nt/clib3r.lib(8087cw.c)
00457574       __8087cw
Module: /mnt/sda5/.user/root/src/openwatcom-1.9/rel2/lib386/nt/clib3r.lib(save8087.c)
00457578       ___Save8087
0045757c       ___Rest8087
Module: /mnt/sda5/.user/root/src/openwatcom-1.9/rel2/lib386/nt/clib3r.lib(init8087)
0044e1e4       __x87id
Module: /mnt/sda5/.user/root/src/openwatcom-1.9/rel2/lib386/nt/clib3r.lib(conutwnt.c)
0044e230       __NTRealKey_
0044e2e0       __NTConsoleInput_
0044e2f0       __NTConsoleOutput_
Module: /mnt/sda5/.user/root/src/openwatcom-1.9/rel2/lib386/nt/clib3r.lib(fclex387.c)
0044e300       _ClearFPE_
Module: /mnt/sda5/.user/root/src/openwatcom-1.9/rel2/lib386/nt/clib3r.lib(signlwnt.c)
00457588+      __SignalTable
0044e310+      __SetSignalFunc_
0044e360+      __GetSignalFunc_
0044e390+      __GetSignalOSCode_
0044e3c0+      __CheckSignalExCode_
0044e500+      __sigabort_
0044e510       __sigfpe_handler_
0044e560*      signal_
0044e5f0+      raise_
0044e660+      __SigInit_
0044e6b0+      __SigFini_
0044e6f0+      __sig_init_
Module: /mnt/sda5/.user/root/src/openwatcom-1.9/rel2/lib386/nt/clib3r.lib(dofilstr.c)
0044e730       __ParsePosixHandleStr_
Module: /mnt/sda5/.user/root/src/openwatcom-1.9/rel2/lib386/nt/clib3r.lib(clearenv.c)
0044e850       clearenv_
Module: /mnt/sda5/.user/root/src/openwatcom-1.9/rel2/lib386/nt/clib3r.lib(mbinit.c)
0044e91a       __mbinit_
004575f4       ___MBCodePage
Module: /mnt/sda5/.user/root/src/openwatcom-1.9/rel2/lib386/nt/clib3r.lib(ustrnicm.c)
0044ea08       _wcsnicmp_
Module: /mnt/sda5/.user/root/src/openwatcom-1.9/rel2/lib386/nt/clib3r.lib(uputenv.c)
0044ea70*      _wputenv_
0044ec90       __wputenv_
Module: /mnt/sda5/.user/root/src/openwatcom-1.9/rel2/lib386/nt/clib3r.lib(getchwnt.c)
0044ee90       getch_
Module: /mnt/sda5/.user/root/src/openwatcom-1.9/rel2/lib386/nt/clib3r.lib(putchwnt.c)
0044ef00       putch_
Module: /mnt/sda5/.user/root/src/openwatcom-1.9/rel2/lib386/nt/clib3r.lib(mbccmp.c)
0044ef50       _mbccmp_
Module: /mnt/sda5/.user/root/src/openwatcom-1.9/rel2/lib386/nt/clib3r.lib(rtcntrl.c)
0044ef90*      _SetLD64bit_
0044efa0*      _SetLD80bit_
0044efb0       _LDisDouble_
Module: /mnt/sda5/.user/root/src/openwatcom-1.9/rel2/lib386/math387r.lib(ldcvt.c)
0044f09f       _LDScale10x_
0044f646       __LDcvt_
Module: /mnt/sda5/.user/root/src/openwatcom-1.9/rel2/lib386/math387r.lib(strtod.c)
0044ffa7+      __Strtold_
0045010e       strtod_
Module: /mnt/sda5/.user/root/src/openwatcom-1.9/rel2/lib386/nt/clib3r.lib(abort.c)
00450267*      abort_
00450279       __terminate_
004576a8       ___abort
Module: /mnt/sda5/.user/root/src/openwatcom-1.9/rel2/lib386/nt/clib3r.lib(putenv.c)
00450290       putenv_
00450520       __putenv_
Module: /mnt/sda5/.user/root/src/openwatcom-1.9/rel2/lib386/nt/clib3r.lib(ustrchr.c)
00450689       wcschr_
Module: /mnt/sda5/.user/root/src/openwatcom-1.9/rel2/lib386/math387r.lib(ldclass.c)
0045069f       __LDClass_
004506ef*      _FLClass_
Module: /mnt/sda5/.user/root/src/openwatcom-1.9/rel2/lib386/math387r.lib(bufld386)
00450700       __ZBuf2LD
Module: /mnt/sda5/.user/root/src/openwatcom-1.9/rel2/lib386/math387r.lib(inf_nan.c)
004507a3*      ___f_infinity
004507a7*      ___f_posqnan
004507ab       ___d_infinity
004507b3       ___d_posqnan
004507bb*      ___ld_infinity
004507c3*      ___ld_posqnan
Module: /mnt/sda5/.user/root/src/openwatcom-1.9/rel2/lib386/nt/clib3r.lib(hugeval.c)
004507d0       __HugeValue


                        +----------------------+
                        |   Imported Symbols   |
                        +----------------------+

Symbol                              Module
======                              ======

_MessageBoxA@16                     USER32.DLL
_RtlUnwind@16                       KERNEL32.DLL
_InvalidateRect@12                  USER32.DLL
_UpdateWindow@4                     USER32.DLL
_GetWindowLongA@8                   USER32.DLL
_GetClientRect@8                    USER32.DLL
_BringWindowToTop@4                 USER32.DLL
_SetFocus@4                         USER32.DLL
_SetWindowPos@28                    USER32.DLL
_SetWindowTextA@8                   USER32.DLL
_GetDC@4                            USER32.DLL
_ReleaseDC@8                        USER32.DLL
_GetDlgItem@8                       USER32.DLL
_SendMessageA@16                    USER32.DLL
_EndDialog@8                        USER32.DLL
_MapDialogRect@8                    USER32.DLL
_DialogBoxParamA@20                 USER32.DLL
_GetModuleHandleA@4                 KERNEL32.DLL
_GetProcAddress@8                   KERNEL32.DLL
_ShowWindow@8                       USER32.DLL
_CallNextHookEx@16                  USER32.DLL
_GetClassNameA@12                   USER32.DLL
_GetCurrentThreadId@0               KERNEL32.DLL
_SetWindowsHookExA@16               USER32.DLL
_UnhookWindowsHookEx@4              USER32.DLL
_SetErrorMode@4                     KERNEL32.DLL
_LoadLibraryA@4                     KERNEL32.DLL
_FreeLibrary@4                      KERNEL32.DLL
_PeekMessageA@20                    USER32.DLL
_GetMessageA@16                     USER32.DLL
_TranslateMessage@4                 USER32.DLL
_DispatchMessageA@4                 USER32.DLL
_TranslateMDISysAccel@8             USER32.DLL
_IsDialogMessageA@8                 USER32.DLL
_LoadIconA@8                        USER32.DLL
_LoadCursorA@8                      USER32.DLL
_RegisterClassA@4                   USER32.DLL
_CreateWindowExA@48                 USER32.DLL
_GetSystemMetrics@4                 USER32.DLL
_MoveWindow@24                      USER32.DLL
_IsWindow@4                         USER32.DLL
_IsZoomed@4                         USER32.DLL
_DragAcceptFiles@8                  SHELL32.DLL
_KillTimer@8                        USER32.DLL
_DefFrameProcA@20                   USER32.DLL
_GetMenu@4                          USER32.DLL
_SystemParametersInfoA@16           USER32.DLL
_IsIconic@4                         USER32.DLL
_SetTimer@16                        USER32.DLL
_DragQueryFileA@16                  SHELL32.DLL
_DragFinish@4                       SHELL32.DLL
_GetWindowRect@8                    USER32.DLL
_ReleaseCapture@0                   USER32.DLL
_GetKeyState@4                      USER32.DLL
_SetCapture@4                       USER32.DLL
_GetScrollRange@16                  USER32.DLL
_GetScrollPos@8                     USER32.DLL
_SetScrollPos@16                    USER32.DLL
_SetScrollRange@20                  USER32.DLL
_SetWindowLongA@12                  USER32.DLL
_DefMDIChildProcA@16                USER32.DLL
_GetUpdateRect@12                   USER32.DLL
_BeginPaint@8                       USER32.DLL
_EndPaint@8                         USER32.DLL
_IntersectRect@12                   USER32.DLL
_IsChild@8                          USER32.DLL
_EnumChildWindows@12                USER32.DLL
_GetNearestColor@8                  GDI32.DLL
_CreatePen@12                       GDI32.DLL
_CreateBrushIndirect@4              GDI32.DLL
_DeleteObject@4                     GDI32.DLL
_GetSystemPaletteEntries@16         GDI32.DLL
_ChooseColorA@4                     COMDLG32.DLL
_GetSysColor@4                      USER32.DLL
_GetTextExtentPointA@16             GDI32.DLL
_CreateFontIndirectA@4              GDI32.DLL
_SelectObject@8                     GDI32.DLL
_GetTextMetricsA@8                  GDI32.DLL
_ChooseFontA@4                      COMDLG32.DLL
_DestroyWindow@4                    USER32.DLL
_PtInRect@12                        USER32.DLL
_SetActiveWindow@4                  USER32.DLL
_FillRect@12                        USER32.DLL
_ScrollWindow@20                    USER32.DLL
_SetBkColor@8                       GDI32.DLL
_SetTextColor@8                     GDI32.DLL
_TextOutA@20                        GDI32.DLL
_GetCurrentPositionEx@8             GDI32.DLL
_MoveToEx@16                        GDI32.DLL
_SetTextAlign@8                     GDI32.DLL
_GetKeyboardState@4                 USER32.DLL
_ToAscii@20                         USER32.DLL
_SetCaretBlinkTime@4                USER32.DLL
_DestroyCaret@0                     USER32.DLL
_GetCaretBlinkTime@0                USER32.DLL
_CreateCaret@16                     USER32.DLL
_SetCaretPos@8                      USER32.DLL
_ShowCaret@4                        USER32.DLL
_HideCaret@4                        USER32.DLL
_DefWindowProcA@16                  USER32.DLL
_GetWindow@8                        USER32.DLL
_ClientToScreen@8                   USER32.DLL
_TabbedTextOutA@32                  USER32.DLL
_RestoreDC@8                        GDI32.DLL
_SaveDC@4                           GDI32.DLL
_GetTabbedTextExtentA@20            USER32.DLL
_SetCursor@4                        USER32.DLL
_MessageBeep@4                      USER32.DLL
_DestroyCursor@4                    USER32.DLL
_WindowFromPoint@8                  USER32.DLL
_ScreenToClient@8                   USER32.DLL
_ChildWindowFromPoint@12            USER32.DLL
_GetParent@4                        USER32.DLL
_SetDlgItemTextA@12                 USER32.DLL
_IsDlgButtonChecked@8               USER32.DLL
_GetDlgItemTextA@16                 USER32.DLL
_AppendMenuA@16                     USER32.DLL
_DeleteMenu@12                      USER32.DLL
_GetSubMenu@8                       USER32.DLL
_DestroyMenu@4                      USER32.DLL
_CreatePopupMenu@0                  USER32.DLL
_CreateMenu@0                       USER32.DLL
_SetMenu@8                          USER32.DLL
_TrackPopupMenu@28                  USER32.DLL
_CheckMenuItem@12                   USER32.DLL
_EnableMenuItem@12                  USER32.DLL
_SendDlgItemMessageA@20             USER32.DLL
_GetVersion@0                       KERNEL32.DLL
_GetOpenFileNameA@4                 COMDLG32.DLL
_CommDlgExtendedError@0             COMDLG32.DLL
_GetSaveFileNameA@4                 COMDLG32.DLL
_CallWindowProcA@20                 USER32.DLL
_CreateBitmap@20                    GDI32.DLL
_SelectPalette@12                   GDI32.DLL
_RealizePalette@4                   GDI32.DLL
_CreateDIBitmap@24                  GDI32.DLL
_CreatePalette@4                    GDI32.DLL
_DdeCreateDataHandle@28             USER32.DLL
_DdeCreateStringHandleA@12          USER32.DLL
_DdeKeepStringHandle@8              USER32.DLL
_DdeFreeStringHandle@8              USER32.DLL
_DdeInitializeA@16                  USER32.DLL
_DdeNameService@16                  USER32.DLL
_DdeUninitialize@4                  USER32.DLL
_SetForegroundWindow@4              USER32.DLL
_DdeQueryStringA@20                 USER32.DLL
_DdeGetData@16                      USER32.DLL
_DdeConnect@16                      USER32.DLL
_DdeDisconnect@4                    USER32.DLL
_DdeClientTransaction@32            USER32.DLL
_DdeFreeDataHandle@4                USER32.DLL
_LoadBitmapA@8                      USER32.DLL
_LoadStringA@16                     USER32.DLL
_OpenClipboard@4                    USER32.DLL
_IsClipboardFormatAvailable@4       USER32.DLL
_CloseClipboard@0                   USER32.DLL
_EmptyClipboard@0                   USER32.DLL
_GlobalAlloc@8                      KERNEL32.DLL
_GlobalLock@4                       KERNEL32.DLL
_GlobalUnlock@4                     KERNEL32.DLL
_SetClipboardData@8                 USER32.DLL
_GetClipboardData@4                 USER32.DLL
_PostMessageA@16                    USER32.DLL
_GetPrivateProfileStringA@24        KERNEL32.DLL
_WritePrivateProfileStringA@16      KERNEL32.DLL
_GetWindowsDirectoryA@8             KERNEL32.DLL
_CheckDlgButton@12                  USER32.DLL
_GetWindowTextA@12                  USER32.DLL
_CreateDialogParamA@20              USER32.DLL
_GetBkColor@4                       GDI32.DLL
_GetTextColor@4                     GDI32.DLL
_LineTo@12                          GDI32.DLL
_InflateRect@12                     USER32.DLL
_CreateSolidBrush@4                 GDI32.DLL
_UnrealizeObject@4                  GDI32.DLL
_DrawTextA@20                       USER32.DLL
_GetClassInfoA@12                   USER32.DLL
_GetStockObject@4                   GDI32.DLL
_GetObjectA@12                      GDI32.DLL
_CreatePatternBrush@4               GDI32.DLL
_SetPropA@12                        USER32.DLL
_DPtoLP@12                          GDI32.DLL
_CreateCompatibleDC@4               GDI32.DLL
_SetStretchBltMode@8                GDI32.DLL
_StretchBlt@44                      GDI32.DLL
_DeleteDC@4                         GDI32.DLL
_CreateCompatibleBitmap@12          GDI32.DLL
_GetPixel@12                        GDI32.DLL
_BitBlt@36                          GDI32.DLL
_GetPropA@8                         USER32.DLL
_GetMessagePos@0                    USER32.DLL
_EnumFontFamiliesA@16               GDI32.DLL
_GetFocus@0                         USER32.DLL
_GetSystemInfo@4                    KERNEL32.DLL
_GlobalMemoryStatus@4               KERNEL32.DLL
_UnregisterClassA@8                 USER32.DLL
_GetWindowTextLengthA@4             USER32.DLL
_GetDlgCtrlID@4                     USER32.DLL
_WinHelpA@16                        USER32.DLL
_EnableWindow@8                     USER32.DLL
_SetDlgItemInt@16                   USER32.DLL
_GetDlgItemInt@16                   USER32.DLL
_CheckRadioButton@16                USER32.DLL
_GetStdHandle@4                     KERNEL32.DLL
_SetConsoleActiveScreenBuffer@4     KERNEL32.DLL
_GetConsoleMode@8                   KERNEL32.DLL
_SetConsoleMode@8                   KERNEL32.DLL
_CreateProcessA@40                  KERNEL32.DLL
_WaitForSingleObject@8              KERNEL32.DLL
_GetExitCodeProcess@8               KERNEL32.DLL
_SetEnvironmentVariableA@8          KERNEL32.DLL
_CreateFileA@28                     KERNEL32.DLL
_GetFullPathNameA@16                KERNEL32.DLL
_FindClose@4                        KERNEL32.DLL
_FindFirstFileA@8                   KERNEL32.DLL
_FindNextFileA@8                    KERNEL32.DLL
_GetLastError@0                     KERNEL32.DLL
_GetTickCount@0                     KERNEL32.DLL
_GetCurrentProcessId@0              KERNEL32.DLL
_FormatMessageA@28                  KERNEL32.DLL
_MoveFileA@8                        KERNEL32.DLL
_GetCurrentDirectoryA@8             KERNEL32.DLL
_SetCurrentDirectoryA@4             KERNEL32.DLL
_GetFileType@4                      KERNEL32.DLL
_ReadFile@20                        KERNEL32.DLL
_SetFilePointer@16                  KERNEL32.DLL
_WriteFile@20                       KERNEL32.DLL
_SetFileAttributesA@8               KERNEL32.DLL
_Sleep@4                            KERNEL32.DLL
_CreateDirectoryA@8                 KERNEL32.DLL
_CloseHandle@4                      KERNEL32.DLL
_GetDriveTypeA@4                    KERNEL32.DLL
_GetEnvironmentStringsA@0           KERNEL32.DLL
_GetModuleFileNameA@12              KERNEL32.DLL
_GetCommandLineA@0                  KERNEL32.DLL
_GetCommandLineW@0                  KERNEL32.DLL
_FreeEnvironmentStringsA@4          KERNEL32.DLL
_ExitProcess@4                      KERNEL32.DLL
_VirtualAlloc@16                    KERNEL32.DLL
_CharUpperA@4                       USER32.DLL
_SetStdHandle@8                     KERNEL32.DLL
_CreateEventA@16                    KERNEL32.DLL
_FileTimeToLocalFileTime@8          KERNEL32.DLL
_FileTimeToDosDateTime@12           KERNEL32.DLL
_DosDateTimeToFileTime@12           KERNEL32.DLL
_LocalFileTimeToFileTime@8          KERNEL32.DLL
_GetFileAttributesA@4               KERNEL32.DLL
_DeleteFileA@4                      KERNEL32.DLL
_GetLocalTime@4                     KERNEL32.DLL
_GetTimeZoneInformation@4           KERNEL32.DLL
_GetModuleFileNameW@12              KERNEL32.DLL
_MultiByteToWideChar@24             KERNEL32.DLL
_SetUnhandledExceptionFilter@4      KERNEL32.DLL
_UnhandledExceptionFilter@4         KERNEL32.DLL
_VirtualQuery@12                    KERNEL32.DLL
_VirtualFree@12                     KERNEL32.DLL
_SetEnvironmentVariableW@8          KERNEL32.DLL
_FlushFileBuffers@4                 KERNEL32.DLL
_WideCharToMultiByte@32             KERNEL32.DLL
_SetConsoleCtrlHandler@8            KERNEL32.DLL
_GetACP@0                           KERNEL32.DLL
_GetOEMCP@0                         KERNEL32.DLL
_GetCPInfo@8                        KERNEL32.DLL
_ReadConsoleInputA@16               KERNEL32.DLL
_WriteConsoleA@20                   KERNEL32.DLL


                        +--------------------+
                        |   Libraries Used   |
                        +--------------------+

/mnt/sda5/.user/root/src/openwatcom-1.9/rel2/lib386/nt/kernel32.lib
/mnt/sda5/.user/root/src/openwatcom-1.9/rel2/lib386/nt/user32.lib
/mnt/sda5/.user/root/src/openwatcom-1.9/rel2/lib386/nt/gdi32.lib
/mnt/sda5/.user/root/src/openwatcom-1.9/rel2/lib386/nt/comdlg32.lib
/mnt/sda5/.user/root/src/openwatcom-1.9/rel2/lib386/nt/shell32.lib
/mnt/sda5/.user/root/src/openwatcom-1.9/rel2/lib386/math387r.lib
/mnt/sda5/.user/root/src/openwatcom-1.9/rel2/lib386/nt/emu387.lib
/mnt/sda5/.user/root/src/openwatcom-1.9/rel2/lib386/nt/clib3r.lib


                        +-----------------------+
                        |   Linker Statistics   |
                        +-----------------------+

Stack size:  00019000 (102400.)
Memory size:  0007511e (479518.)
Entry point address: 0044691e
Link time: 00:00.00
