Open Watcom Linker Version 1.9
Portions Copyright (c) 1985-2002 Sybase, Inc. All Rights Reserved.
Created on:       12/12/16 02:42:42
Executable Image: dmpobj.exe
creating a DOS executable


                        +------------+
                        |   Groups   |
                        +------------+

Group                           Address              Size
=====                           =======              ====

DGROUP                          0a54:0000            00003170



                        +--------------+
                        |   Segments   |
                        +--------------+

Segment                Class          Group          Address         Size
=======                =====          =====          =======         ====

dmpobj_TEXT            CODE           AUTO           0000:0000       000003d0
objread_TEXT           CODE           AUTO           0000:03d0       000015bf
output_TEXT            CODE           AUTO           0000:1990       00000753
process_TEXT           CODE           AUTO           0000:20f0       000022bc
_TEXT                  CODE           AUTO           0000:43b0       00006190
FAR_DATA               FAR_DATA       AUTO           0a54:0000       00000000
_NULL                  BEGDATA        DGROUP         0a54:0000       00000020
_AFTERNULL             BEGDATA        DGROUP         0a56:0000       00000002
CONST                  DATA           DGROUP         0a56:0002       00001c00
CONST2                 DATA           DGROUP         0c16:0002       0000014e
_DATA                  DATA           DGROUP         0c2b:0000       000004b8
XIB                    DATA           DGROUP         0c76:0008       00000000
XI                     DATA           DGROUP         0c76:0008       0000001e
XIE                    DATA           DGROUP         0c78:0006       00000000
YIB                    DATA           DGROUP         0c78:0006       00000000
YI                     DATA           DGROUP         0c78:0006       00000018
YIE                    DATA           DGROUP         0c79:000e       00000000
STRINGS                DATA           DGROUP         0c79:000e       00000000
DATA                   DATA           DGROUP         0c79:000e       00000000
_BSS                   BSS            DGROUP         0c7a:0000       0000070c
STACK                  STACK          DGROUP         0ceb:0000       00000800


                        +----------------+
                        |   Memory Map   |
                        +----------------+

* = unreferenced symbol
+ = symbol only referenced locally

Address        Symbol
=======        ======

Module: dmpobj.obj(/mnt/sda5/.user/root/src/openwatcom-1.9/bld/dmpobj/c/dmpobj.c)
0000:0000      leave_
0000:011a      main_
0a54:2260      _InterpretComent
0a54:2261+     _quiet
0a54:2262      _TranslateIndex
0a54:2263      _Descriptions
Module: objread.obj(/mnt/sda5/.user/root/src/openwatcom-1.9/bld/dmpobj/c/objread.c)
0a54:2270+     _Xnames
0a54:2274+     _lastXname
0a54:2278+     _Grpdefs
0a54:227c+     _Segdefs
0a54:2280+     _Lnames
0a54:2284+     _lastLname
0a54:2288      _NamePtr
0a54:228c      _RecPtr
0a54:2290      _RecBuff
0a54:2294      _BailOutJmp
0a54:22ae+     _RecNum
0a54:22b0+     _RecMaxLen
0a54:22b2      _Grpindex
0a54:22b4      _Importindex
0a54:22b6      _Nameindex
0000:04d6+     RecNumberToName_
0000:0614      RecNameToNumber_
0000:0b00      EndRec_
0000:0b16      RecOffset_
0000:0b20      GetByte_
0000:0b36      BackupByte_
0000:0b3c      GetUInt_
0000:0b54      GetLInt_
0000:0b70      GetEither_
0000:0bb4      GetName_
0000:0bdc      GetIndex_
0000:0c08      GetVariable_
0000:0c94      ResizeBuff_
0000:0cf4      AddLname_
0000:0dc0      GetLname_
0000:0f8a      AddXname_
0000:1056      GetXname_
0000:10f2      AddSegdef_
0000:1196      GetSegdef_
0000:122e      AddGrpdef_
0000:136c      GetGrpdef_
0000:13b6      GetGrpseg_
0000:153e      ProcFile_
0a54:1d70      _rec_type
0a54:1d7a      _rec_count
0a54:22b8      _Libindex
0a54:22ba      _Segindex
0a54:22bc      _RecLen
0a54:22be      _IsPharLap
0a54:22bf      _NameLen
0a54:22c0      _DumpRaw
0a54:22c1      _IsIntel
0a54:22c2      _IsMS386
Module: output.obj(/mnt/sda5/.user/root/src/openwatcom-1.9/bld/dmpobj/c/output.c)
0000:1bc4      Output_
0000:1f68      OutputInit_
0000:1f88      OutputSetFH_
0000:1fbc      OutputFini_
0000:1fc0      OutputData_
0a54:1d7c      _no_disp
Module: process.obj(/mnt/sda5/.user/root/src/openwatcom-1.9/bld/dmpobj/c/process.c)
0a54:1d80+     _DbgStyle
0000:2158      ProcEndRec_
0000:21a0      ProcTHeadr_
0000:21ba      ProcLHeadr_
0000:21ce      ProcRHeadr_
0000:29d0      ProcComent_
0000:2b7a      ProcLNames_
0000:2ba8      ProcNames_
0000:2c00      ProcExtNames_
0000:2c0a      ProcComExtDef_
0000:2c64      ProcSegDefs_
0000:3060      ProcPubDefs_
0000:3060      ProcLocSyms_
0000:3098      ProcComDef_
0000:33c0      ProcLinNums_
0000:33e8      ProcLineSym_
0000:3556      ProcLidata_
0000:3560      ProcLedata_
0000:3b78      ProcFixup_
0000:3bbe      ProcModEnd_
0000:3ce0      ProcGrpDef_
0000:3ee4      ProcLibHeader_
0000:3fa4      ProcLibTrailer_
0000:4194      ProcBackPat_
0000:41b6      ProcNameBackPat_
0000:41d8      ProcComDat_
0000:4352      ProcAlias_
0000:4378      ProcVerNum_
0000:4398      ProcVendExt_
Module: /mnt/sda5/.user/root/src/openwatcom-1.9/rel2/lib286/dos/clibl.lib(iob.c)
0a54:1e1c      ___iob
0a54:1f84      __fmode
0a54:26ee      ___OpenStreams
0a54:26f2      ___ClosedStreams
Module: /mnt/sda5/.user/root/src/openwatcom-1.9/rel2/lib286/dos/clibl.lib(exit.c)
0000:43b0+     __null_int23_exit_
0000:43b1      exit_
0000:43e2*     _exit_
0a54:1f86+     ___int23_exit
0a54:1f8a+     ___FPE_handler_exit
Module: /mnt/sda5/.user/root/src/openwatcom-1.9/rel2/lib286/dos/clibl.lib(tolower.c)
0000:43fb      tolower_
Module: /mnt/sda5/.user/root/src/openwatcom-1.9/rel2/lib286/dos/clibl.lib(splitpat.c)
0000:4461      _splitpath_
Module: /mnt/sda5/.user/root/src/openwatcom-1.9/rel2/lib286/dos/clibl.lib(makepath.c)
0000:457b      _makepath_
Module: /mnt/sda5/.user/root/src/openwatcom-1.9/rel2/lib286/dos/clibl.lib(fopen.c)
0000:47c7+     __open_flags_
0000:49c7+     _fsopen_
0000:4a2e      fopen_
0000:4b09*     freopen_
Module: /mnt/sda5/.user/root/src/openwatcom-1.9/rel2/lib286/dos/clibl.lib(fclose.c)
0000:4b7f      __doclose_
0000:4c30      __shutdown_stream_
0000:4c4a      fclose_
0a54:26f6+     ___RmTmpFileFn
Module: /mnt/sda5/.user/root/src/openwatcom-1.9/rel2/lib286/dos/clibl.lib(strnicmp.c)
0000:4c95      strnicmp_
Module: /mnt/sda5/.user/root/src/openwatcom-1.9/rel2/lib286/dos/clibl.lib(istable.c)
0a54:1c34      __IsTable
Module: /mnt/sda5/.user/root/src/openwatcom-1.9/rel2/lib286/dos/clibl.lib(atoi.c)
0000:4ce4      atoi_
Module: /mnt/sda5/.user/root/src/openwatcom-1.9/rel2/lib286/dos/clibl.lib(cstart)
0a54:0000*     __nullarea
0a54:1f8e*     __ovlflag
0a54:1f8f*     __intno
0a54:1f90*     __ovlvec
0000:4d4c      _cstart_
0000:4e1f*     _Not_Enough_Memory_
0000:4f53      __exit_
0000:4f72      __do_exit_with_msg__
0000:4fd0      __GETDS
Module: /mnt/sda5/.user/root/src/openwatcom-1.9/rel2/lib286/dos/clibl.lib(cmodel)
0000:4fda      _big_code_
0000:4fda*     CodeModelMismatch
Module: /mnt/sda5/.user/root/src/openwatcom-1.9/rel2/lib286/dos/clibl.lib(argcv.c)
0a54:26fa      __argv
0a54:26fe      ___argv
0a54:2702      __argc
0a54:2704      ___argc
Module: /mnt/sda5/.user/root/src/openwatcom-1.9/rel2/lib286/dos/clibl.lib(setjmp)
0000:4fda      _setjmp_
0000:502f      longjmp_
Module: /mnt/sda5/.user/root/src/openwatcom-1.9/rel2/lib286/dos/clibl.lib(ffree.c)
0000:508c      _ffree_
0000:508c      free_
Module: /mnt/sda5/.user/root/src/openwatcom-1.9/rel2/lib286/dos/clibl.lib(fmalloc.c)
0000:50d2      _fmalloc_
0000:50d2      malloc_
0a54:1f94+     ___fheap
0a54:1f96      ___fheapRover
0a54:1f98      ___LargestSizeB4Rover
Module: /mnt/sda5/.user/root/src/openwatcom-1.9/rel2/lib286/dos/clibl.lib(ftell.c)
0000:51df      ftell_
Module: /mnt/sda5/.user/root/src/openwatcom-1.9/rel2/lib286/dos/clibl.lib(fread.c)
0000:523b      fread_
Module: /mnt/sda5/.user/root/src/openwatcom-1.9/rel2/lib286/dos/clibl.lib(i4d)
0000:542e*     __I4D
0000:547d      __U4D
Module: /mnt/sda5/.user/root/src/openwatcom-1.9/rel2/lib286/dos/clibl.lib(fseek.c)
0000:556c      fseek_
Module: /mnt/sda5/.user/root/src/openwatcom-1.9/rel2/lib286/dos/clibl.lib(fwrite.c)
0000:56ba      fwrite_
Module: /mnt/sda5/.user/root/src/openwatcom-1.9/rel2/lib286/dos/clibl.lib(errno.c)
0000:58b5      __get_errno_ptr_
0000:58bc      __get_doserrno_ptr_
0a54:2706+     _errno
0a54:2708+     __doserrno
Module: /mnt/sda5/.user/root/src/openwatcom-1.9/rel2/lib286/dos/clibl.lib(strerror.c)
0000:58c3      strerror_
0000:58eb*     _strerror_
0a54:1f9a+     __sys_errlist
0a54:203e+     __sys_nerr
Module: /mnt/sda5/.user/root/src/openwatcom-1.9/rel2/lib286/dos/clibl.lib(fprintf.c)
0000:59b6      fprintf_
Module: /mnt/sda5/.user/root/src/openwatcom-1.9/rel2/lib286/dos/clibl.lib(strrchr.c)
0000:59e5      strrchr_
Module: /mnt/sda5/.user/root/src/openwatcom-1.9/rel2/lib286/dos/clibl.lib(mktime.c)
0000:5a0a      mktime_
Module: /mnt/sda5/.user/root/src/openwatcom-1.9/rel2/lib286/dos/clibl.lib(asctime.c)
0000:5ade+     _asctime_
0000:5bfa*     asctime_
0000:5c09*     _ctime_
0000:5c29      ctime_
Module: /mnt/sda5/.user/root/src/openwatcom-1.9/rel2/lib286/dos/clibl.lib(strncmp.c)
0000:5c38      strncmp_
Module: /mnt/sda5/.user/root/src/openwatcom-1.9/rel2/lib286/dos/clibl.lib(initfile.c)
0000:5c77      __InitFiles_
Module: /mnt/sda5/.user/root/src/openwatcom-1.9/rel2/lib286/dos/clibl.lib(ioexit.c)
0000:5dc5*     fcloseall_
0000:5dcc      __full_io_exit_
Module: /mnt/sda5/.user/root/src/openwatcom-1.9/rel2/lib286/dos/clibl.lib(initrtns.c)
0000:5e11      __InitRtns
0000:5e11*     __FInitRtns
0000:5e6c      __FiniRtns
0000:5e6c*     __FFiniRtns
Module: /mnt/sda5/.user/root/src/openwatcom-1.9/rel2/lib286/dos/clibl.lib(mbsnccnt.c)
0000:5ed0      _mbsnccnt_
Module: /mnt/sda5/.user/root/src/openwatcom-1.9/rel2/lib286/dos/clibl.lib(mbsncpy.c)
0000:5f04      _mbsncpy_
Module: /mnt/sda5/.user/root/src/openwatcom-1.9/rel2/lib286/dos/clibl.lib(mbsnbcnt.c)
0000:5f3a      _mbsnbcnt_
Module: /mnt/sda5/.user/root/src/openwatcom-1.9/rel2/lib286/dos/clibl.lib(mbsnextc.c)
0000:5fb3      _mbsnextc_
Module: /mnt/sda5/.user/root/src/openwatcom-1.9/rel2/lib286/dos/clibl.lib(mbsinc.c)
0000:5fe4      _mbsinc_
Module: /mnt/sda5/.user/root/src/openwatcom-1.9/rel2/lib286/dos/clibl.lib(mbconv.c)
0000:6020      _mbvtop_
Module: /mnt/sda5/.user/root/src/openwatcom-1.9/rel2/lib286/dos/clibl.lib(mbclen.c)
0000:6035      _mbclen_
Module: /mnt/sda5/.user/root/src/openwatcom-1.9/rel2/lib286/dos/clibl.lib(mbsdec.c)
0000:6063      _mbsdec_
Module: /mnt/sda5/.user/root/src/openwatcom-1.9/rel2/lib286/dos/clibl.lib(comtflag.c)
0000:60f0*     __set_commode_
0a54:2040      __commode
Module: /mnt/sda5/.user/root/src/openwatcom-1.9/rel2/lib286/dos/clibl.lib(seterrno.c)
0000:60fc      __set_errno_
0000:6110*     __set_EDOM_
0000:6122*     __set_ERANGE_
0000:6134*     __set_EINVAL_
0000:6149      __set_doserrno_
Module: /mnt/sda5/.user/root/src/openwatcom-1.9/rel2/lib286/dos/clibl.lib(open.c)
0000:6351*     open_
0000:6388      sopen_
Module: /mnt/sda5/.user/root/src/openwatcom-1.9/rel2/lib286/dos/clibl.lib(chktty.c)
0000:63b5      __chktty_
Module: /mnt/sda5/.user/root/src/openwatcom-1.9/rel2/lib286/dos/clibl.lib(freefp.c)
0000:63e0      __freefp_
0000:645b      __purgefp_
Module: /mnt/sda5/.user/root/src/openwatcom-1.9/rel2/lib286/dos/clibl.lib(allocfp.c)
0000:649c      __allocfp_
Module: /mnt/sda5/.user/root/src/openwatcom-1.9/rel2/lib286/dos/clibl.lib(__lseek.c)
0000:65be      __lseek_
Module: /mnt/sda5/.user/root/src/openwatcom-1.9/rel2/lib286/dos/clibl.lib(_clse.c)
0000:65f8      __close_
Module: /mnt/sda5/.user/root/src/openwatcom-1.9/rel2/lib286/dos/clibl.lib(flush.c)
0000:662b      __flush_
Module: /mnt/sda5/.user/root/src/openwatcom-1.9/rel2/lib286/dos/clibl.lib(xmsg.c)
0000:675e*     __exit_with_msg_
0000:6763      __fatal_runtime_error_
Module: /mnt/sda5/.user/root/src/openwatcom-1.9/rel2/lib286/dos/clibl.lib(cmain086.c)
0000:6781      __CMain
Module: /mnt/sda5/.user/root/src/openwatcom-1.9/rel2/lib286/dos/clibl.lib(crwdata)
0a54:2042      __curbrk
0a54:204a      __STACKLOW
0a54:204c      __STACKTOP
0a54:204e      __cbyte
0a54:2050      __child
0a54:2052      __no87
0a54:2060      ___FPE_handler
0a54:2044      __psp
0a54:2054      __get_ovl_stack
0a54:2058      __restore_ovl_stack
0a54:205c      __close_ovl_file
0a54:2064      __LpCmdLine
0a54:2068      __LpPgmName
0a54:2046      __osmajor
0a54:2047      __osminor
0a54:2048      __osmode
0a54:2049      __HShift
Module: /mnt/sda5/.user/root/src/openwatcom-1.9/rel2/lib286/dos/clibl.lib(uselfn.c)
0a54:206c      ___uselfn
Module: /mnt/sda5/.user/root/src/openwatcom-1.9/rel2/lib286/dos/clibl.lib(dosseg)
0000:67ac      __DOSseg__
Module: /mnt/sda5/.user/root/src/openwatcom-1.9/rel2/lib286/dos/clibl.lib(initargv.c)
0000:67ad      __Init_Argv_
0000:6810+     _getargv_
0000:6a0f      __Fini_Argv_
Module: /mnt/sda5/.user/root/src/openwatcom-1.9/rel2/lib286/dos/clibl.lib(ljmphdl.c)
0a54:206e      ___longjmp_handler
Module: /mnt/sda5/.user/root/src/openwatcom-1.9/rel2/lib286/dos/clibl.lib(nmalloc.c)
0000:6a3a      _nmalloc_
0a54:2072      ___nheapbeg
0a54:2074      ___MiniHeapRover
0a54:2076      ___LargestSizeB4MiniHeapRover
Module: /mnt/sda5/.user/root/src/openwatcom-1.9/rel2/lib286/dos/clibl.lib(mem.c)
0000:6b20      __MemAllocator
0000:6bea      __MemFree
Module: /mnt/sda5/.user/root/src/openwatcom-1.9/rel2/lib286/dos/clibl.lib(nfree.c)
0000:6d47      _nfree_
0a54:2828+     ___MiniHeapFreeRover
Module: /mnt/sda5/.user/root/src/openwatcom-1.9/rel2/lib286/dos/clibl.lib(hpgrw086.c)
0000:6e42      __CMain_nheapgrow_
Module: /mnt/sda5/.user/root/src/openwatcom-1.9/rel2/lib286/dos/clibl.lib(growseg.c)
0000:6e47      __GrowSeg_
Module: /mnt/sda5/.user/root/src/openwatcom-1.9/rel2/lib286/dos/clibl.lib(allocseg.c)
0000:6f39      __AllocSeg_
Module: /mnt/sda5/.user/root/src/openwatcom-1.9/rel2/lib286/dos/clibl.lib(fmemneed.c)
0000:6fd0      __fmemneed_
Module: /mnt/sda5/.user/root/src/openwatcom-1.9/rel2/lib286/dos/clibl.lib(fflush.c)
0000:6fd3      fflush_
Module: /mnt/sda5/.user/root/src/openwatcom-1.9/rel2/lib286/dos/clibl.lib(tell.c)
0000:6fe8      tell_
Module: /mnt/sda5/.user/root/src/openwatcom-1.9/rel2/lib286/dos/clibl.lib(qread.c)
0000:6ff9      __qread_
Module: /mnt/sda5/.user/root/src/openwatcom-1.9/rel2/lib286/dos/clibl.lib(fgetc.c)
0000:7019      __fill_buffer_
0000:710e*     fgetc_
Module: /mnt/sda5/.user/root/src/openwatcom-1.9/rel2/lib286/dos/clibl.lib(ioalloc.c)
0000:71b3      __ioalloc_
Module: /mnt/sda5/.user/root/src/openwatcom-1.9/rel2/lib286/dos/clibl.lib(lseek.c)
0000:724d      lseek_
Module: /mnt/sda5/.user/root/src/openwatcom-1.9/rel2/lib286/dos/clibl.lib(qwrit.c)
0000:727e      __qwrite_
Module: /mnt/sda5/.user/root/src/openwatcom-1.9/rel2/lib286/dos/clibl.lib(fputc.c)
0000:72db      fputc_
Module: /mnt/sda5/.user/root/src/openwatcom-1.9/rel2/lib286/dos/clibl.lib(strncpy.c)
0000:73ab      strncpy_
Module: /mnt/sda5/.user/root/src/openwatcom-1.9/rel2/lib286/dos/clibl.lib(fprtf.c)
0000:7401      __fprtf_
Module: /mnt/sda5/.user/root/src/openwatcom-1.9/rel2/lib286/dos/clibl.lib(locmktim.c)
0000:74cc      __local_mktime_
Module: /mnt/sda5/.user/root/src/openwatcom-1.9/rel2/lib286/dos/clibl.lib(gmtime.c)
0000:76d8      __brktime_
0000:783b+     _gmtime_
0000:785f*     gmtime_
Module: /mnt/sda5/.user/root/src/openwatcom-1.9/rel2/lib286/dos/clibl.lib(tzset.c)
0a54:2078      ___start_dst
0a54:208a      ___end_dst
0a54:219e*     _tzname
0a54:21a6      _timezone
0a54:21aa      _daylight
0a54:21ac      ___dst_adjust
0000:786e*     __DontCacheOSTZ_
0000:7887*     __CacheOSTZ_
0000:7e0f+     __parse_tz_
0000:7fe0      tzset_
Module: /mnt/sda5/.user/root/src/openwatcom-1.9/rel2/lib286/dos/clibl.lib(timeutil.c)
0000:813e      __isindst_
Module: /mnt/sda5/.user/root/src/openwatcom-1.9/rel2/lib286/dos/clibl.lib(localtim.c)
0000:8431      _localtime_
0000:84c0      localtime_
Module: /mnt/sda5/.user/root/src/openwatcom-1.9/rel2/lib286/dos/clibl.lib(sgdef086)
0a54:2228      __Start_XI
0a54:2246      __End_XI
0a54:2246      __Start_YI
0a54:225e      __End_YI
Module: /mnt/sda5/.user/root/src/openwatcom-1.9/rel2/lib286/dos/clibl.lib(mbterm.c)
0000:84d0      _mbterm_
Module: /mnt/sda5/.user/root/src/openwatcom-1.9/rel2/lib286/dos/clibl.lib(mbsnbcpy.c)
0000:8512      _mbsnbcpy_
Module: /mnt/sda5/.user/root/src/openwatcom-1.9/rel2/lib286/dos/clibl.lib(mbisdbcs.c)
0a54:284e      ___IsDBCS
Module: /mnt/sda5/.user/root/src/openwatcom-1.9/rel2/lib286/dos/clibl.lib(mbislead.c)
0000:858a*     _ismbblead_
0a54:2850      ___MBCSIsTable
Module: /mnt/sda5/.user/root/src/openwatcom-1.9/rel2/lib286/dos/clibl.lib(opendos.c)
0000:85a6      _dos_open_
Module: /mnt/sda5/.user/root/src/openwatcom-1.9/rel2/lib286/dos/clibl.lib(iomode.c)
0000:85cc      __GetIOMode_
0000:85f1      __SetIOMode_nogrow_
0a54:21d4      ___NFiles
0a54:21d6      ___init_mode
0a54:21fe      ___io_mode
Module: /mnt/sda5/.user/root/src/openwatcom-1.9/rel2/lib286/dos/clibl.lib(isatt.c)
0000:8614      isatty_
Module: /mnt/sda5/.user/root/src/openwatcom-1.9/rel2/lib286/dos/clibl.lib(dosret.c)
0000:8630*     _dosretax_
0000:8635*     _dosret0_
0000:863c      __set_errno_dos_
0000:869a*     __set_errno_dos_reterr_
Module: /mnt/sda5/.user/root/src/openwatcom-1.9/rel2/lib286/dos/clibl.lib(umaskval.c)
0a54:2216      ___umaskval
Module: /mnt/sda5/.user/root/src/openwatcom-1.9/rel2/lib286/dos/clibl.lib(creatdos.c)
0000:86a5      _dos_creat_
0000:86c9*     _dos_creatnew_
Module: /mnt/sda5/.user/root/src/openwatcom-1.9/rel2/lib286/dos/clibl.lib(stiomode.c)
0000:86eb+     __grow_iomode_
0000:87ae+     __shrink_iomode_
0000:87e9      __SetIOMode_
Module: /mnt/sda5/.user/root/src/openwatcom-1.9/rel2/lib286/dos/clibl.lib(fsync.c)
0000:884c      fsync_
Module: /mnt/sda5/.user/root/src/openwatcom-1.9/rel2/lib286/dos/clibl.lib(enterdb.c)
0000:8851      __EnterWVIDEO_
0a54:2218+     ___WD_Present
Module: /mnt/sda5/.user/root/src/openwatcom-1.9/rel2/lib286/dos/clibl.lib(___argc.c)
0a54:2954      ____Argv
0a54:2958      ____Argc
Module: /mnt/sda5/.user/root/src/openwatcom-1.9/rel2/lib286/dos/clibl.lib(amblksiz.c)
0a54:221a      __amblksiz
Module: /mnt/sda5/.user/root/src/openwatcom-1.9/rel2/lib286/dos/clibl.lib(histsplt.c)
0a54:295a      ___historical_splitparms
Module: /mnt/sda5/.user/root/src/openwatcom-1.9/rel2/lib286/dos/clibl.lib(nmemneed.c)
0000:8875      __nmemneed_
Module: /mnt/sda5/.user/root/src/openwatcom-1.9/rel2/lib286/dos/clibl.lib(grownear.c)
0000:88fd      __LastFree_
0000:8977      __ExpandDGROUP_
Module: /mnt/sda5/.user/root/src/openwatcom-1.9/rel2/lib286/dos/clibl.lib(heapgrow.c)
0000:8a88*     _heapgrow_
0000:8a88*     _fheapgrow_
0000:8a89      _nheapgrow_
Module: /mnt/sda5/.user/root/src/openwatcom-1.9/rel2/lib286/dos/clibl.lib(heapen.c)
0000:8b03*     _heapenable_
0a54:221c      ___heap_enabled
Module: /mnt/sda5/.user/root/src/openwatcom-1.9/rel2/lib286/dos/clibl.lib(flushall.c)
0000:8b14      __flushall_
0000:8b71      flushall_
Module: /mnt/sda5/.user/root/src/openwatcom-1.9/rel2/lib286/dos/clibl.lib(gtche.c)
0000:8b76      getche_
Module: /mnt/sda5/.user/root/src/openwatcom-1.9/rel2/lib286/dos/clibl.lib(prtf.c)
0000:8b90      __prtf_
Module: /mnt/sda5/.user/root/src/openwatcom-1.9/rel2/lib286/dos/clibl.lib(leapyear.c)
0000:995e      __leapyear_
0a54:1ba6      ___diyr
0a54:1bc0      ___dilyr
Module: /mnt/sda5/.user/root/src/openwatcom-1.9/rel2/lib286/dos/clibl.lib(i4m)
0000:9988      __I4M
0000:9988      __U4M
Module: /mnt/sda5/.user/root/src/openwatcom-1.9/rel2/lib286/dos/clibl.lib(getenv.c)
0000:99a0      getenv_
Module: /mnt/sda5/.user/root/src/openwatcom-1.9/rel2/lib286/dos/clibl.lib(mbinit.c)
0000:9aa3      __mbinit_
0a54:221e      ___MBCodePage
Module: /mnt/sda5/.user/root/src/openwatcom-1.9/rel2/lib286/dos/clibl.lib(doserror)
0000:9b7e      __doserror_
Module: /mnt/sda5/.user/root/src/openwatcom-1.9/rel2/lib286/dos/clibl.lib(frealloc.c)
0000:9b8c*     _frealloc_
0000:9b8c      realloc_
Module: /mnt/sda5/.user/root/src/openwatcom-1.9/rel2/lib286/dos/clibl.lib(iomodtty.c)
0000:9c68      __ChkTTYIOMode_
0000:9ca6*     __IOMode_
Module: /mnt/sda5/.user/root/src/openwatcom-1.9/rel2/lib286/dos/clibl.lib(filedos.c)
0000:9cb6*     _dos_close_
0000:9cc4      _dos_commit_
Module: /mnt/sda5/.user/root/src/openwatcom-1.9/rel2/lib286/dos/clibl.lib(sbrk.c)
0000:9cd4*     sbrk_
0000:9ce4      __brk_
Module: /mnt/sda5/.user/root/src/openwatcom-1.9/rel2/lib286/dos/clibl.lib(wctomb.c)
0000:9d4e      wctomb_
Module: /mnt/sda5/.user/root/src/openwatcom-1.9/rel2/lib286/dos/clibl.lib(itoa.c)
0000:9d77+     utoa_
0000:9dd4      itoa_
Module: /mnt/sda5/.user/root/src/openwatcom-1.9/rel2/lib286/dos/clibl.lib(strupr.c)
0000:9df8      strupr_
Module: /mnt/sda5/.user/root/src/openwatcom-1.9/rel2/lib286/dos/clibl.lib(noefgfmt.c)
0a54:2220      ___EFG_printf
0a54:2224*     ___EFG_scanf
Module: /mnt/sda5/.user/root/src/openwatcom-1.9/rel2/lib286/dos/clibl.lib(lltoa.c)
0000:9e2d      ulltoa_
0000:9f12*     lltoa_
Module: /mnt/sda5/.user/root/src/openwatcom-1.9/rel2/lib286/dos/clibl.lib(ltoa.c)
0000:9f74      ultoa_
0000:9fe3*     ltoa_
Module: /mnt/sda5/.user/root/src/openwatcom-1.9/rel2/lib286/dos/clibl.lib(environ.c)
0a54:295c      ___env_mask
0a54:2960      _environ
0a54:2964*     __wenviron
Module: /mnt/sda5/.user/root/src/openwatcom-1.9/rel2/lib286/dos/clibl.lib(mbcupper.c)
0000:a012      _mbctoupper_
Module: /mnt/sda5/.user/root/src/openwatcom-1.9/rel2/lib286/dos/clibl.lib(fmsize.c)
0000:a035*     _msize_
0000:a035      _fmsize_
Module: /mnt/sda5/.user/root/src/openwatcom-1.9/rel2/lib286/dos/clibl.lib(nexpand.c)
0000:a046      __HeapManager_expand_
0000:a1bd      _nexpand_
Module: /mnt/sda5/.user/root/src/openwatcom-1.9/rel2/lib286/dos/clibl.lib(fexpand.c)
0000:a210      _fexpand_
0000:a210*     _expand_
Module: /mnt/sda5/.user/root/src/openwatcom-1.9/rel2/lib286/dos/clibl.lib(alphabet.c)
0a54:1bfc      ___Alphabet
Module: /mnt/sda5/.user/root/src/openwatcom-1.9/rel2/lib286/dos/clibl.lib(setenvp.c)
0000:a263      __setenvp_
0000:a366      __freeenvp_
Module: /mnt/sda5/.user/root/src/openwatcom-1.9/rel2/lib286/dos/clibl.lib(mbdtoupp.c)
0000:a3c4      _mbdtoupper_
Module: /mnt/sda5/.user/root/src/openwatcom-1.9/rel2/lib286/dos/clibl.lib(toupper.c)
0000:a3d2      toupper_
Module: /mnt/sda5/.user/root/src/openwatcom-1.9/rel2/lib286/dos/clibl.lib(bfree.c)
0000:a3e0      _bfree_
Module: /mnt/sda5/.user/root/src/openwatcom-1.9/rel2/lib286/dos/clibl.lib(bexpand.c)
0000:a405      _bexpand_
Module: /mnt/sda5/.user/root/src/openwatcom-1.9/rel2/lib286/dos/clibl.lib(clearenv.c)
0000:a45e      clearenv_


                        +--------------------+
                        |   Libraries Used   |
                        +--------------------+

/mnt/sda5/.user/root/src/openwatcom-1.9/rel2/lib286/dos/clibl.lib


                        +-----------------------+
                        |   Linker Statistics   |
                        +-----------------------+

Stack size:  0800 (2048.)
Memory size:  d6b0 (54960.)
Entry point address: 0000:4d4c
Link time: 00:00.00
