Open Watcom Linker Version 1.9
Portions Copyright (c) 1985-2002 Sybase, Inc. All Rights Reserved.
Created on:       12/12/16 02:40:12
Executable Image: par.dll
creating a Windows 16-bit dynamic link library


                        +------------+
                        |   Groups   |
                        +------------+

Group                           Address              Size
=====                           =======              ====

DGROUP                          0002:0000            000004e4



                        +--------------+
                        |   Segments   |
                        +--------------+

Segment                Class          Group          Address         Size
=======                =====          =====          =======         ====

_TEXT                  CODE           AUTO           0001:0000       0000139c
FAR_DATA               FAR_DATA       AUTO           0002:0000       00000000
_NULL                  BEGDATA        DGROUP         0002:0000       00000010
_DATA                  DATA           DGROUP         0002:0010       0000004a
XIB                    DATA           DGROUP         0002:005a       00000000
XI                     DATA           DGROUP         0002:005a       00000000
XIE                    DATA           DGROUP         0002:005a       00000000
YIB                    DATA           DGROUP         0002:005a       00000000
YI                     DATA           DGROUP         0002:005a       00000000
YIE                    DATA           DGROUP         0002:005a       00000000
DATA                   DATA           DGROUP         0002:005a       00000000
CONST                  DATA           DGROUP         0002:005a       00000056
STRINGS                DATA           DGROUP         0002:00b0       00000000
CONST2                 DATA           DGROUP         0002:00b0       00000000
_BSS                   BSS            DGROUP         0002:00b0       00000434


                        +----------------+
                        |   Memory Map   |
                        +----------------+

* = unreferenced symbol
+ = symbol only referenced locally

Address        Symbol
=======        ======

Module: /mnt/sda5/.user/root/src/openwatcom-1.9/rel2/lib286/win/libentry.obj(/mnt/sda5/.user/root/src/openwatcom-1.9/bld/clib/startup/a/libentry.asm)
0000:0006*     pLocalHeap
0000:0008*     pAtomTable
0000:000a*     pStackTop
0000:000c*     pStackMin
0000:000e*     pStackBot
0002:0000*     __nullarea
0002:0012*     __curbrk
0002:0014*     __psp
0002:0016*     __osmajor
0002:0017*     __osminor
0002:0018*     __osmode
0002:000a*     __STACKLOW
0002:000c*     __STACKTOP
0002:001a*     __cbyte
0002:001c*     __child
0002:001e*     __no87
0002:0019*     __HShift
0002:0020*     __get_ovl_stack
0002:0024*     __restore_ovl_stack
0002:0028*     ___FPE_handler
0002:002c*     __LpCmdLine
0000:0000*     _large_code_
0001:0000*     LibEntry
0001:0000      __DLLstart_
0001:005a*     __exit_
0001:0073      __GETDS
Module: winstrt.obj(/mnt/sda5/.user/root/src/openwatcom-1.9/bld/trap/common/win/winstrt.c)
0001:0080      LIBMAIN
0001:00ae      WEP
0002:00b0+     _WindowsFlags
0002:00b4+     _DesktopWindow
0002:00b6+     _Instance
Module: mxutil.obj(/mnt/sda5/.user/root/src/openwatcom-1.9/bld/trap/common/mxutil.c)
0001:00d0*     GetInPtr_
0001:00fc      GetOutPtr_
0001:0128*     GetTotalSize_
0002:00c0      _In_Mx_Ptr
0002:00c4      _Out_Mx_Ptr
0002:00c8      _Out_Mx_Num
0002:00c9      _In_Mx_Num
Module: remote.obj(/mnt/sda5/.user/root/src/openwatcom-1.9/bld/trap/common/remote.c)
0001:02a2      TRAPINIT
0001:0348      TRAPREQUEST
0001:03c2      TRAPFINI
Module: winstub.obj(/mnt/sda5/.user/root/src/openwatcom-1.9/bld/trap/common/win/winstub.c)
0001:03e0      INFOFUNCTION
0001:03f0      INPUTHOOK
0001:0400      HARDMODECHECK
0001:0410      GETHWNDFUNC
0001:0420      SETHARDMODE
0001:0430      UNLOCKINPUT
Module: packet.obj(/mnt/sda5/.user/root/src/openwatcom-1.9/bld/trap/common/packet.c)
0001:0440      StartPacket_
0001:0446      PutPacket_
0001:045e*     PutBuffPacket_
0001:0472      AddPacket_
0001:04bc      GetPacket_
0001:04d2      RemovePacket_
0001:0512*     GetPacketBuffPtr_
0001:051c      MaxPacketSize_
Module: parlink.obj(/mnt/sda5/.user/root/src/openwatcom-1.9/bld/trap/par/c/parlink.c)
0001:0dd0      RemoteGet_
0001:0e1a      RemotePut_
0001:1044      RemoteConnect_
0001:10ca      RemoteDisco_
0001:1104      RemoteLink_
0001:120c      RemoteUnLink_
Module: pardos.obj(/mnt/sda5/.user/root/src/openwatcom-1.9/bld/trap/par/c/pardos.c)
0001:1230      InitSys_
0001:1240      FiniSys_
0001:1242      Ticks_
0001:1258      NumPrinters_
0001:1262      PrnAddress_
0001:1274      FreePorts_
0001:1276      AccessPorts_
Module: winnoth.obj(/mnt/sda5/.user/root/src/openwatcom-1.9/bld/trap/common/win/winnoth.c)
0001:1280      NothingToDo_
Module: /mnt/sda5/.user/root/src/openwatcom-1.9/rel2/lib286/win/clibc.lib(wallflgs.c)
0002:0052      ___win_alloc_flags
0002:0056      ___win_realloc_flags
Module: /mnt/sda5/.user/root/src/openwatcom-1.9/rel2/lib286/win/clibc.lib(initrtns.c)
0001:12c9      __FInitRtns
0001:12d3+     __InitRtns
0001:132f      __FFiniRtns
0001:1339+     __FiniRtns
Module: /mnt/sda5/.user/root/src/openwatcom-1.9/rel2/lib286/win/clibc.lib(cmodel)
0001:139c      _small_code_
0001:139c*     CodeModelMismatch
Module: /mnt/sda5/.user/root/src/openwatcom-1.9/rel2/lib286/win/clibc.lib(sgdef086)
0002:005a      __Start_XI
0002:005a      __End_XI
0002:005a      __Start_YI
0002:005a      __End_YI


                        +----------------------+
                        |   Imported Symbols   |
                        +----------------------+

Symbol                              Module
======                              ======

__AHSHIFT                           KERNEL
LOCALINIT                           KERNEL
GETDESKTOPWINDOW                    USER
GETWINFLAGS                         KERNEL
YIELD                               KERNEL


                        +--------------------+
                        |   Libraries Used   |
                        +--------------------+

/mnt/sda5/.user/root/src/openwatcom-1.9/rel2/lib286/win/windows.lib
/mnt/sda5/.user/root/src/openwatcom-1.9/rel2/lib286/win/clibc.lib


                        +-----------------------+
                        |   Linker Statistics   |
                        +-----------------------+

Stack size:  0000 (0.)
Memory size:  1880 (6272.)
Link time: 00:00.00
