Open Watcom Linker Version 1.9
Portions Copyright (c) 1985-2002 Sybase, Inc. All Rights Reserved.
Created on:       12/12/16 02:43:59
Executable Image: wipfc.exe
creating a Linux x86 executable


                        +------------+
                        |   Groups   |
                        +------------+

Group                           Address              Size
=====                           =======              ====

DGROUP                          080a9000             0005a339



                        +--------------+
                        |   Segments   |
                        +--------------+

Segment                Class          Group          Address         Size
=======                =====          =====          =======         ====

BEGTEXT                CODE           AUTO           08048100        00000007
_TEXT                  CODE           AUTO           08048110        0005ffe9
_NULL                  BEGDATA        DGROUP         080a9000        00000004
_AFTERNULL             BEGDATA        DGROUP         080a9004        00000000
CONST                  DATA           DGROUP         080a9004        00000d74
CONST2                 DATA           DGROUP         080a9d80        00056c00
_DATA                  DATA           DGROUP         08100980        00001db8
XIB                    DATA           DGROUP         08102738        00000000
XI                     DATA           DGROUP         08102738        00000030
XIE                    DATA           DGROUP         08102768        00000000
YIB                    DATA           DGROUP         08102768        00000000
YI                     DATA           DGROUP         08102768        0000000c
YIE                    DATA           DGROUP         08102774        00000000
TIB                    DATA           DGROUP         08102774        00000000
TI                     DATA           DGROUP         08102774        00000000
TIE                    DATA           DGROUP         08102774        00000000
DATA                   DATA           DGROUP         08102774        00000000
_BSS                   BSS            DGROUP         08103000        00000305
c_common               BSS            DGROUP         08103308        00000031


                        +----------------+
                        |   Memory Map   |
                        +----------------+

* = unreferenced symbol
+ = symbol only referenced locally

Address        Symbol
=======        ======

Module: main.obj(/mnt/sda5/.user/root/src/openwatcom-1.9/bld/wipfc/cpp/main.cpp)
08048a00       W?$dt:exception$:std$n()_
08048a90       W?what$:exception$:std$n.x()pnxa
08048ac0       W?what$:str_exception$:_ow$:std$n.x()pnxa
08048b00+      W?$ct:Env$n()_
080481d0       main_
08049000+      W?$dt:Env$n()_
08049010       T?c8er$dt:Node$:RedBlackTree$::1n$basic_string$::1na1n$char_traits$::1na:std$$1n$allocator$::1na:4$:4$1n$less$::1n$2::1na1n$3::1na:4$1n$5::1na:4$:4$:4$1n$5::1n$pair$::1nx$2::1na1n$3::1na:4$1n$5::1na:4$:4$1n$2::1na1n$3::1na:4$1n$5::1na:4$:4$:4$:4$1n$TreePa
08049080       W?$dt:pair$::1nx$basic_string$::1na1n$char_traits$::1na:std$$1n$allocator$::1na:3$:3$1n$1::1na1n$2::1na:3$1n$4::1na:3$:3$:3n()_
080490f0       W?$dt:out_of_range$:std$n()_
080491b0       W?$dt:length_error$:std$n()_
08049270       W?$dt:logic_error$:std$n()_
08049330       W?$dt:str_exception$:_ow$:std$n()_
080493e0       W?$dt:allocator$::1na:std$n()_
080493f0       W?$dt:allocator$::1nw:std$n()_
08049400       T?1d36$dt:allocator$::1n$Node$:RedBlackTree$::1n$basic_string$::1nw1n$char_traits$::1nw:std$$1n$0::1nw:5$:5$1n$less$::1n$3::1nw1n$4::1nw:5$1n$0::1nw:5$:5$:5$1n$0::1n$pair$::1nx$3::1nw1n$4::1nw:5$1n$0::1nw:5$:5$1n$TagId$:Lexer$$:5$:5$1n$TreePairWrapper$::1
08049410       W?$dt:allocator$::1npn$IpfData$$:std$n()_
08049420       T?cf1z$dt:allocator$::1n$Node$:RedBlackTree$::1npn$basic_string$::1nw1n$char_traits$::1nw:std$$1n$0::1nw:5$:5$1n$ptrLess$::1npn$3::1nw1n$4::1nw:5$1n$0::1nw:5$:5$$1n$0::1npn$3::1nw1n$4::1nw:5$1n$0::1nw:5$:5$:5$1n$TreeKeyWrapper$::1npn$3::1nw1n$4::1nw:5$1n$
08049430       W?$dt:allocator$::1n$pair$::1nx$basic_string$::1na1n$char_traits$::1na:std$$1n$0::1na:4$:4$1n$2::1na1n$3::1na:4$1n$0::1na:4$:4$:4$:4n()_
08049440       T?4knk$dt:allocator$::1n$Node$:RedBlackTree$::1n$basic_string$::1na1n$char_traits$::1na:std$$1n$0::1na:5$:5$1n$less$::1n$3::1na1n$4::1na:5$1n$0::1na:5$:5$:5$1n$0::1n$pair$::1nx$3::1na1n$4::1na:5$1n$0::1na:5$:5$1n$3::1na1n$4::1na:5$1n$0::1na:5$:5$:5$:5$1n$
08049450       T?1zyj$dt:RedBlackTree$::1n$basic_string$::1nw1n$char_traits$::1nw:std$$1n$allocator$::1nw:3$:3$1n$less$::1n$1::1nw1n$2::1nw:3$1n$4::1nw:3$:3$:3$1n$4::1n$pair$::1nx$1::1nw1n$2::1nw:3$1n$4::1nw:3$:3$1n$TagId$:Lexer$$:3$:3$1n$TreePairWrapper$::1n$1::1nw1n$2
080494b0       T?rkltclear$:RedBlackTree$::1n$basic_string$::1nw1n$char_traits$::1nw:std$$1n$allocator$::1nw:4$:4$1n$less$::1n$2::1nw1n$3::1nw:4$1n$5::1nw:4$:4$:4$1n$5::1n$pair$::1nx$2::1nw1n$3::1nw:4$1n$5::1nw:4$:4$1n$TagId$:Lexer$$:4$:4$1n$TreePairWrapper$::1n$2::1nw1
08049550       T?guem$dt:RedBlackTree$::1npn$basic_string$::1nw1n$char_traits$::1nw:std$$1n$allocator$::1nw:3$:3$1n$ptrLess$::1npn$1::1nw1n$2::1nw:3$1n$4::1nw:3$:3$$1n$4::1npn$1::1nw1n$2::1nw:3$1n$4::1nw:3$:3$:3$1n$TreeKeyWrapper$::1npn$1::1nw1n$2::1nw:3$1n$4::1nw:3$:3$
080495b0       T?jqviclear$:RedBlackTree$::1npn$basic_string$::1nw1n$char_traits$::1nw:std$$1n$allocator$::1nw:4$:4$1n$ptrLess$::1npn$2::1nw1n$3::1nw:4$1n$5::1nw:4$:4$$1n$5::1npn$2::1nw1n$3::1nw:4$1n$5::1nw:4$:4$:4$1n$TreeKeyWrapper$::1npn$2::1nw1n$3::1nw:4$1n$5::1nw:4$
08049620       T?1wnmwalkRight$:RedBlackTree$::1npn$basic_string$::1nw1n$char_traits$::1nw:std$$1n$allocator$::1nw:4$:4$1n$ptrLess$::1npn$2::1nw1n$3::1nw:4$1n$5::1nw:4$:4$$1n$5::1npn$2::1nw1n$3::1nw:4$1n$5::1nw:4$:4$:4$1n$TreeKeyWrapper$::1npn$2::1nw1n$3::1nw:4$1n$5::1n
08049660       T?2rqy$dt:RedBlackTree$::1n$basic_string$::1na1n$char_traits$::1na:std$$1n$allocator$::1na:3$:3$1n$less$::1n$1::1na1n$2::1na:3$1n$4::1na:3$:3$:3$1n$4::1n$pair$::1nx$1::1na1n$2::1na:3$1n$4::1na:3$:3$1n$1::1na1n$2::1na:3$1n$4::1na:3$:3$:3$:3$1n$TreePairWrap
080496c0       T?0nygclear$:RedBlackTree$::1n$basic_string$::1na1n$char_traits$::1na:std$$1n$allocator$::1na:4$:4$1n$less$::1n$2::1na1n$3::1na:4$1n$5::1na:4$:4$:4$1n$5::1n$pair$::1nx$2::1na1n$3::1na:4$1n$5::1na:4$:4$1n$2::1na1n$3::1na:4$1n$5::1na:4$:4$:4$:4$1n$TreePairW
080497d0       W?$ct:basic_string$::1na1n$char_traits$::1na:std$$1n$allocator$::1na:2$:2n(rnx$3::1na:2$)_
08049840       W?$ct:basic_string$::1na1n$char_traits$::1na:std$$1n$allocator$::1na:2$:2n(rnx$0::1na1n$1::1na:2$1n$3::1na:2$:2$)_
080498d0       W?$ct:basic_string$::1na1n$char_traits$::1na:std$$1n$allocator$::1na:2$:2n(pnxarnx$3::1na:2$)_
08049960       W?$dt:basic_string$::1na1n$char_traits$::1na:std$$1n$allocator$::1na:2$:2n()_
080499c0       W?$aa:basic_string$::1na1n$char_traits$::1na:std$$1n$allocator$::1na:2$:2n(rnx$0::1na1n$1::1na:2$1n$3::1na:2$:2$)rn$0::1na1n$1::1na:2$1n$3::1na:2$:2$
08049a10       W?erase$:basic_string$::1na1n$char_traits$::1na:std$$1n$allocator$::1na:3$:3n(uiui)rn$1::1na1n$2::1na:3$1n$4::1na:3$:3$
08049b10       W?$ct:basic_string$::1nw1n$char_traits$::1nw:std$$1n$allocator$::1nw:2$:2n(rnx$0::1nw1n$1::1nw:2$1n$3::1nw:2$:2$)_
08049ba0       W?$ct:basic_string$::1nw1n$char_traits$::1nw:std$$1n$allocator$::1nw:2$:2n(pnxwrnx$3::1nw:2$)_
08049c30       W?$dt:basic_string$::1nw1n$char_traits$::1nw:std$$1n$allocator$::1nw:2$:2n()_
08049c90       W?$dt:vector$::1npn$IpfData$$1n$allocator$::1npn$1$:std$$:3n()_
08049d00       W?push_back$:vector$::1npn$IpfData$$1n$allocator$::1npn$2$:std$$:4n(rnxpn$2$)v
08049d50       T?9qzw$ct:map$::1n$basic_string$::1na1n$char_traits$::1na:std$$1n$allocator$::1na:3$:3$1n$1::1na1n$2::1na:3$1n$4::1na:3$:3$1n$less$::1n$1::1na1n$2::1na:3$1n$4::1na:3$:3$:3$1n$4::1n$pair$::1nx$1::1na1n$2::1na:3$1n$4::1na:3$:3$1n$1::1na1n$2::1na:3$1n$4::1na
08049dc0       T?835l$od:map$::1n$basic_string$::1na1n$char_traits$::1na:std$$1n$allocator$::1na:3$:3$1n$1::1na1n$2::1na:3$1n$4::1na:3$:3$1n$less$::1n$1::1na1n$2::1na:3$1n$4::1na:3$:3$:3$1n$4::1n$pair$::1nx$1::1na1n$2::1na:3$1n$4::1na:3$:3$1n$1::1na1n$2::1na:3$1n$4::1na
08049e60       W?$ct:out_of_range$:std$n(rnx$0:1$)_
08049f00       W?$rc::1nw1n$char_traits$::1nw:std$$1n$allocator$::1nw:1$:1n(rnx$basic_string$::1nw1n$0::1nw:1$1n$2::1nw:1$:1$rnx$3::1nw1n$0::1nw:1$1n$2::1nw:1$:1$)q
08049f50       W?$rc::1na1n$char_traits$::1na:std$$1n$allocator$::1na:1$:1n(rnx$basic_string$::1na1n$0::1na:1$1n$2::1na:1$:1$rnx$3::1na1n$0::1na:1$1n$2::1na:1$:1$)q
08049f90       T?y50vinsert$:RedBlackTree$::1n$basic_string$::1na1n$char_traits$::1na:std$$1n$allocator$::1na:4$:4$1n$less$::1n$2::1na1n$3::1na:4$1n$5::1na:4$:4$:4$1n$5::1n$pair$::1nx$2::1na1n$3::1na:4$1n$5::1na:4$:4$1n$2::1na1n$3::1na:4$1n$5::1na:4$:4$:4$:4$1n$TreePair
08049fc0       W?alloc$:basic_string$::1na1n$char_traits$::1na:std$$1n$allocator$::1na:3$:3n(uirnui)pna
08049fe0       W?replace_buffer$:basic_string$::1na1n$char_traits$::1na:std$$1n$allocator$::1na:3$:3n(pnxaui)v
0804a040       W?$ct:basic_string$::1na1n$char_traits$::1na:std$$1n$allocator$::1na:2$:2n(uiarnx$3::1na:2$)_
0804a150       W?append$:basic_string$::1na1n$char_traits$::1na:std$$1n$allocator$::1na:3$:3n(pnxaui)rn$1::1na1n$2::1na:3$1n$4::1na:3$:3$
0804a2d0       W?rfind$:basic_string$::1na1n$char_traits$::1na:std$$1n$allocator$::1na:3$:3n.x(pnxauiui)ui
0804a330       W?alloc$:basic_string$::1nw1n$char_traits$::1nw:std$$1n$allocator$::1nw:3$:3n(uirnui)pnw
0804a350       W?reserve$:vector$::1npn$IpfData$$1n$allocator$::1npn$2$:std$$:4n(ui)v
0804a4f0       W?$ct:length_error$:std$n(rnx$0:1$)_
0804a590       W?uninitialized_copy$::1npnpn$IpfData$$1npnpn$1$:std$n(pnpn$1$pnpn$1$pnpn$1$)pnpn$1$
0804a670       T?yhvt$ct::1n$pair$::1nx$basic_string$::1na1n$char_traits$::1na:std$$1n$allocator$::1na:3$:3$1n$1::1na1n$2::1na:3$1n$4::1na:3$:3$:3$:4::1n$Node$:RedBlackTree$::1n$1::1na1n$2::1na:3$1n$4::1na:3$:3$1n$less$::1n$1::1na1n$2::1na:3$1n$4::1na:3$:3$:3$1n$4::1n$0
0804a680       T?dl96insBalTransform$:RedBlackTree$::1n$basic_string$::1na1n$char_traits$::1na:std$$1n$allocator$::1na:4$:4$1n$less$::1n$2::1na1n$3::1na:4$1n$5::1na:4$:4$:4$1n$5::1n$pair$::1nx$2::1na1n$3::1na:4$1n$5::1na:4$:4$1n$2::1na1n$3::1na:4$1n$5::1na:4$:4$:4$:4$1n
0804a880       T?dio3unbalancedInsert$:RedBlackTree$::1n$basic_string$::1na1n$char_traits$::1na:std$$1n$allocator$::1na:4$:4$1n$less$::1n$2::1na1n$3::1na:4$1n$5::1na:4$:4$:4$1n$5::1n$pair$::1nx$2::1na1n$3::1na:4$1n$5::1na:4$:4$1n$2::1na1n$3::1na:4$1n$5::1na:4$:4$:4$:4$1
080aa700       W?$Wvf0Io4:exception$:std$$nx[]pn()v
080aa710       W?npos$:basic_string$::1na1n$char_traits$::1na:std$$1n$allocator$::1na:3$:3nxui
080aa720       W?$Wvf0Ro4:str_exception$:_ow$:std$$nx[]pn()v
080aa730       W?$Wvf0Ko4:logic_error$:std$$nx[]pn()v
080aa740       W?$Wvf0Lo4:length_error$:std$$nx[]pn()v
080aa750       W?$Wvf0Lo4:out_of_range$:std$$nx[]pn()v
080aa760       W?npos$:basic_string$::1nw1n$char_traits$::1nw:std$$1n$allocator$::1nw:3$:3nxui
080aa770       W?is_specialized$:numeric_limits$::1nui:std$nxq
080aa780       W?digits$:numeric_limits$::1nui:std$nxi
080aa790       W?digits10$:numeric_limits$::1nui:std$nxi
080aa7a0       W?is_integer$:numeric_limits$::1nui:std$nxq
080aa7b0       W?is_exact$:numeric_limits$::1nui:std$nxq
08103308       W?is_signed$:numeric_limits$::1nui:std$nxq
0810330c       W?min_exponent$:numeric_limits$::1nui:std$nxi
08103310       W?min_exponent10$:numeric_limits$::1nui:std$nxi
08103314       W?max_exponent$:numeric_limits$::1nui:std$nxi
08103318       W?max_exponent10$:numeric_limits$::1nui:std$nxi
0810331c       W?has_infinity$:numeric_limits$::1nui:std$nxq
08103320       W?has_quiet_NaN$:numeric_limits$::1nui:std$nxq
080aa7c0       W?radix$:numeric_limits$::1nui:std$nxi
08103324       W?has_signaling_NaN$:numeric_limits$::1nui:std$nxq
08103328       W?has_denorm_loss$:numeric_limits$::1nui:std$nxq
080aa7d0       W?has_denorm$:numeric_limits$::1nui:std$nx$float_denorm_style$:2$
080aa7e0       W?is_bounded$:numeric_limits$::1nui:std$nxq
0810332c       W?is_iec559$:numeric_limits$::1nui:std$nxq
08103330       W?traps$:numeric_limits$::1nui:std$nxq
08103334       W?tinyness_before$:numeric_limits$::1nui:std$nxq
080aa7f0       W?is_modulo$:numeric_limits$::1nui:std$nxq
080aa800       W?$Wcm012$nx[]uc
080aa810+      W?$Wcm0218$nx[]uc
080aa820       W?$Wcm014$nx[]uc
080aa830       W?$Wcm015$nx[]uc
080aa840       W?$Wcm013$nx[]uc
080aa850       W?$Wcm0216$nx[]uc
080aa860       W?$Wth0Nnrn$out_of_range$:std$$$nx[]uc
080aa890       W?$Wth0Nnrn$length_error$:std$$$nx[]uc
080aa8c0       W?$Wts0In$exception$:std$$$nx[]uc
080aa8e0+      W?$Wts07n$Env$$$nx[]uc
080aa900+      W?$Wts0Cn$Compiler$$$nx[]uc
080aa920       W?$Wts0En$FatalError$$$nx[]uc
080aa940       W?$Wts0Gn$FatalIOError$$$nx[]uc
080aa960       W?$Wts18n$basic_string$::1na1n$char_traits$::1na:std$$1n$allocator$::1na:2$:2$$nx[]uc
080aa980       W?$Wts0Ln$out_of_range$:std$$$nx[]uc
080aa9a0       W?$Wts0Ln$length_error$:std$$$nx[]uc
080aa9c0       W?$Wts0Kn$logic_error$:std$$$nx[]uc
08100990       W?$Wti0Q$str_exception$:_ow$:std$$$n[]uc
081009af       W?$Wti0J$logic_error$:std$$$n[]uc
081009c7       W?$Wti0K$length_error$:std$$$n[]uc
081009e0       W?$Wti0K$out_of_range$:std$$$n[]uc
081009f9       W?$Wti17$basic_string$::1na1n$char_traits$::1na:std$$1n$allocator$::1na:2$:2$$n[]uc
08100a43       W?$Wti0F$FatalIOError$$$n[]uc
08100a57       W?$Wti0D$FatalError$$$n[]uc
08100a69+      W?$Wti0B$Compiler$$$n[]uc
08100a79+      W?$Wti06$Env$$$n[]uc
0804ada0       W?alloc$:vector$::1npn$IpfData$$1n$allocator$::1npn$2$:std$$:4n(uirnui)pnpn$2$
0804adc0       W?.tcctor$:length_error$:std$n(rnx$1:2$)rn$1:2$
0804add0       W?.tcctor$:out_of_range$:std$n(rnx$1:2$)rn$1:2$
0804ade0       W?.tdtor$:out_of_range$:std$n()pnv
0804adf0       W?.tdtor$:length_error$:std$n()pnv
0804ae00       W?.tdtor$:logic_error$:std$n()pnv
0804ae10       W?.tdtor$:str_exception$:_ow$:std$n()pnv
0804ae20       W?.tdtor$:exception$:std$n()pnv
080aa9e0       W?$Wts0Rn$str_exception$:_ow$:std$$$nx[]uc
08100a84       W?$Wti0H$exception$:std$$$n[]uc
08103338       W?round_style$:numeric_limits$::1nui:std$nx$float_round_style$:2$
08103000       W?Environment$n$Env$$
Module: compiler.obj(/mnt/sda5/.user/root/src/openwatcom-1.9/bld/wipfc/cpp/compiler.cpp)
0804ae30       W?$ct:Compiler$n()_
0804af20       W?$dt:Compiler$n()_
0804b050       W?setInputFile$:Compiler$n(rn$basic_string$::1na1n$char_traits$::1na:std$$1n$allocator$::1na:4$:4$)v
0804b120       W?addFileName$:Compiler$n(pn$basic_string$::1nw1n$char_traits$::1nw:std$$1n$allocator$::1nw:4$:4$)pn$2::1nw1n$3::1nw:4$1n$5::1nw:4$:4$
0804b1c0       W?compile$:Compiler$n()i
0804b6e0       W?printError$:Compiler$n.x($ErrCode$$)v
0804b790       W?printError$:Compiler$n.x($ErrCode$$rnx$basic_string$::1nw1n$char_traits$::1nw:std$$1n$allocator$::1nw:5$:5$)v
0804b840       W?printError$:Compiler$n.x($ErrCode$$pnx$basic_string$::1nw1n$char_traits$::1nw:std$$1n$allocator$::1nw:5$:5$uiui)v
0804b8c0       W?printError$:Compiler$n.x($ErrCode$$pnx$basic_string$::1nw1n$char_traits$::1nw:std$$1n$allocator$::1nw:5$:5$uiuirnx$3::1nw1n$4::1nw:5$1n$6::1nw:5$:5$)v
0804bc20       T?9gev$dt:Node$:RedBlackTree$::1n$basic_string$::1nw1n$char_traits$::1nw:std$$1n$allocator$::1nw:4$:4$1n$less$::1n$2::1nw1n$3::1nw:4$1n$5::1nw:4$:4$:4$1n$5::1n$pair$::1nx$2::1nw1n$3::1nw:4$1n$5::1nw:4$:4$1nus:4$:4$1n$TreePairWrapper$::1n$2::1nw1n$3::1nw:4
0804bc30       W?$dt:pair$::1nx$basic_string$::1nw1n$char_traits$::1nw:std$$1n$allocator$::1nw:3$:3$1nus:3n()_
0804bc40       W?$ct:FatalIOError$n(rnx$0$)_
0804bc60       W?$dt:FatalIOError$n()_
0804bc70       W?$ra::1nw1n$char_traits$::1nw:std$$1n$allocator$::1nw:1$:1n(rnx$basic_string$::1nw1n$0::1nw:1$1n$2::1nw:1$:1$rnx$3::1nw1n$0::1nw:1$1n$2::1nw:1$:1$)q
0804bcc0+      W?$dt:allocator$::1npn$basic_string$::1nw1n$char_traits$::1nw:std$$1n$0::1nw:3$:3$:3n()_
0804bcd0       W?$dt:allocator$::1nus:std$n()_
0804bce0       W?$dt:allocator$::1n$ControlButton$$:std$n()_
0804bcf0       W?$dt:allocator$::1n$ControlGroup$$:std$n()_
0804bd00       W?$dt:allocator$::1n$pair$::1nx$basic_string$::1nw1n$char_traits$::1nw:std$$1n$0::1nw:4$:4$1nus:4$:4n()_
0804bd10       T?ub39$dt:allocator$::1n$Node$:RedBlackTree$::1n$basic_string$::1nw1n$char_traits$::1nw:std$$1n$0::1nw:5$:5$1n$less$::1n$3::1nw1n$4::1nw:5$1n$0::1nw:5$:5$:5$1n$0::1n$pair$::1nx$3::1nw1n$4::1nw:5$1n$0::1nw:5$:5$1nus:5$:5$1n$TreePairWrapper$::1n$3::1nw1n$4:
0804bd20       W?$dt:allocator$::1nuc:std$n()_
0804bd30       W?$dt:allocator$::1npn$GlobalDictionaryWord$$:std$n()_
0804bd40       W?$dt:allocator$::1n$Node$:RedBlackTree$::1npn$GlobalDictionaryWord$$1n$ptrLess$::1npn$3$$1n$0::1npn$3$:std$$1n$TreeKeyWrapper$::1npn$3$:_ow$:5$:7:5$:5n()_
0804bd50       W?$dt:allocator$::1n$pair$::1nxpn$GlobalDictionaryWord$$1nus:std$$:3n()_
0804bd60       W?$dt:allocator$::1n$Node$:RedBlackTree$::1npn$GlobalDictionaryWord$$1n$ptrLess$::1npn$3$$1n$0::1n$pair$::1nxpn$3$1nus:std$$:6$1n$TreePairWrapper$::1npn$3$1nus:_ow$:6$:8:6$:6n()_
0804bd70       W?$dt:allocator$::1n$basic_string$::1nw1n$char_traits$::1nw:std$$1n$0::1nw:3$:3$:3n()_
0804bd80       W?$dt:allocator$::1n$XRef$$:std$n()_
0804bd90       W?$dt:allocator$::1n$Node$:RedBlackTree$::1n$XRef$$1n$less$::1n$3$:std$$1n$0::1n$3$:5$1n$TreeKeyWrapper$::1n$3$:_ow$:5$:7:5$:5n()_
0804bda0+      W?$dt:auto_ptr$::1n$Lexer$$:std$n()_
0804be30+      W?$dt:auto_ptr$::1n$Document$$:std$n()_
0804beb0       W?$ct:basic_string$::1nw1n$char_traits$::1nw:std$$1n$allocator$::1nw:2$:2n(rnx$3::1nw:2$)_
0804bf20       W?$aa:basic_string$::1nw1n$char_traits$::1nw:std$$1n$allocator$::1nw:2$:2n(rnx$0::1nw1n$1::1nw:2$1n$3::1nw:2$:2$)rn$0::1nw1n$1::1nw:2$1n$3::1nw:2$:2$
0804bf70+      T?5zdminsert$:RedBlackTree$::1npn$basic_string$::1nw1n$char_traits$::1nw:std$$1n$allocator$::1nw:4$:4$1n$ptrLess$::1npn$2::1nw1n$3::1nw:4$1n$5::1nw:4$:4$$1n$5::1npn$2::1nw1n$3::1nw:4$1n$5::1nw:4$:4$:4$1n$TreeKeyWrapper$::1npn$2::1nw1n$3::1nw:4$1n$5::1nw:4
0804bfa0       T?fvku$dt:RedBlackTree$::1n$basic_string$::1nw1n$char_traits$::1nw:std$$1n$allocator$::1nw:3$:3$1n$less$::1n$1::1nw1n$2::1nw:3$1n$4::1nw:3$:3$:3$1n$4::1n$pair$::1nx$1::1nw1n$2::1nw:3$1n$4::1nw:3$:3$1nus:3$:3$1n$TreePairWrapper$::1n$1::1nw1n$2::1nw:3$1n$4:
0804c000       T?bkhrclear$:RedBlackTree$::1n$basic_string$::1nw1n$char_traits$::1nw:std$$1n$allocator$::1nw:4$:4$1n$less$::1n$2::1nw1n$3::1nw:4$1n$5::1nw:4$:4$:4$1n$5::1n$pair$::1nx$2::1nw1n$3::1nw:4$1n$5::1nw:4$:4$1nus:4$:4$1n$TreePairWrapper$::1n$2::1nw1n$3::1nw:4$1n
0804c0a0       T?hknywalkRight$:RedBlackTree$::1n$basic_string$::1nw1n$char_traits$::1nw:std$$1n$allocator$::1nw:4$:4$1n$less$::1n$2::1nw1n$3::1nw:4$1n$5::1nw:4$:4$:4$1n$5::1n$pair$::1nx$2::1nw1n$3::1nw:4$1n$5::1nw:4$:4$1nus:4$:4$1n$TreePairWrapper$::1n$2::1nw1n$3::1nw:
0804c0e0       W?$dt:RedBlackTree$::1npn$GlobalDictionaryWord$$1n$ptrLess$::1npn$1$$1n$allocator$::1npn$1$:std$$1n$TreeKeyWrapper$::1npn$1$:_ow$:4$:6:4n()_
0804c140       W?clear$:RedBlackTree$::1npn$GlobalDictionaryWord$$1n$ptrLess$::1npn$2$$1n$allocator$::1npn$2$:std$$1n$TreeKeyWrapper$::1npn$2$:_ow$:5$:7:5n()v
0804c1b0       W?find$:RedBlackTree$::1npn$GlobalDictionaryWord$$1n$ptrLess$::1npn$2$$1n$allocator$::1npn$2$:std$$1n$TreeKeyWrapper$::1npn$2$:_ow$:5$:7:5n(rnxpn$2$)$iterator$:1::1npn$2$1n$3::1npn$2$$1n$4::1npn$2$:5$1n$6::1npn$2$:7:5$:7:5$
0804c210       T?kfivwalkRight$:RedBlackTree$::1npn$GlobalDictionaryWord$$1n$ptrLess$::1npn$2$$1n$allocator$::1npn$2$:std$$1n$TreeKeyWrapper$::1npn$2$:_ow$:5$:7:5n.x(pn$Node$:1::1npn$2$1n$3::1npn$2$$1n$4::1npn$2$:5$1n$6::1npn$2$:7:5$:7:5$)pn$8:1::1npn$2$1n$3::1npn$2$$1n
0804c250       W?$dt:RedBlackTree$::1npn$GlobalDictionaryWord$$1n$ptrLess$::1npn$1$$1n$allocator$::1n$pair$::1nxpn$1$1nus:std$$:5$1n$TreePairWrapper$::1npn$1$1nus:_ow$:5$:7:5n()_
0804c2b0       W?clear$:RedBlackTree$::1npn$GlobalDictionaryWord$$1n$ptrLess$::1npn$2$$1n$allocator$::1n$pair$::1nxpn$2$1nus:std$$:6$1n$TreePairWrapper$::1npn$2$1nus:_ow$:6$:8:6n()v
0804c320       T?jmvzwalkRight$:RedBlackTree$::1npn$GlobalDictionaryWord$$1n$ptrLess$::1npn$2$$1n$allocator$::1n$pair$::1nxpn$2$1nus:std$$:6$1n$TreePairWrapper$::1npn$2$1nus:_ow$:6$:8:6n.x(pn$Node$:1::1npn$2$1n$3::1npn$2$$1n$4::1n$5::1nxpn$2$1nus:6$:6$1n$7::1npn$2$1nus:
0804c360       T?anqafind$:RedBlackTree$::1n$basic_string$::1nw1n$char_traits$::1nw:std$$1n$allocator$::1nw:4$:4$1n$less$::1n$2::1nw1n$3::1nw:4$1n$5::1nw:4$:4$:4$1n$5::1n$pair$::1nx$2::1nw1n$3::1nw:4$1n$5::1nw:4$:4$1nw:4$:4$1n$TreePairWrapper$::1n$2::1nw1n$3::1nw:4$1n$5
0804c3c0       W?$dt:RedBlackTree$::1n$XRef$$1n$less$::1n$1$:std$$1n$allocator$::1n$1$:3$1n$TreeKeyWrapper$::1n$1$:_ow$:3$:6:3n()_
0804c420       W?clear$:RedBlackTree$::1n$XRef$$1n$less$::1n$2$:std$$1n$allocator$::1n$2$:4$1n$TreeKeyWrapper$::1n$2$:_ow$:4$:7:4n()v
0804c490       W?walkRight$:RedBlackTree$::1n$XRef$$1n$less$::1n$2$:std$$1n$allocator$::1n$2$:4$1n$TreeKeyWrapper$::1n$2$:_ow$:4$:7:4n.x(pn$Node$:1::1n$2$1n$3::1n$2$:4$1n$5::1n$2$:4$1n$6::1n$2$:7:4$:7:4$)pn$8:1::1n$2$1n$3::1n$2$:4$1n$5::1n$2$:4$1n$6::1n$2$:7:4$:7:4$
0804c4d0       W?insert$:RedBlackTree$::1n$XRef$$1n$less$::1n$2$:std$$1n$allocator$::1n$2$:4$1n$TreeKeyWrapper$::1n$2$:_ow$:4$:7:4n(rnx$2$)$pair$::1n$iterator$:1::1n$2$1n$3::1n$2$:4$1n$5::1n$2$:4$1n$6::1n$2$:7:4$:7:4$1nq:4$
0804c500       T?qntewalkRight$:RedBlackTree$::1n$basic_string$::1nw1n$char_traits$::1nw:std$$1n$allocator$::1nw:4$:4$1n$less$::1n$2::1nw1n$3::1nw:4$1n$5::1nw:4$:4$:4$1n$5::1n$pair$::1nx$2::1nw1n$3::1nw:4$1n$5::1nw:4$:4$1nui:4$:4$1n$TreePairWrapper$::1n$2::1nw1n$3::1nw:
0804c540       T?rsqzwalkRight$:RedBlackTree$::1nus1n$less$::1nus:std$$1n$allocator$::1n$pair$::1nxus1n$TocRef$$:3$:3$1n$TreePairWrapper$::1nus1n$6$:_ow$:3$:8:3n.x(pn$Node$:1::1nus1n$2::1nus:3$1n$4::1n$5::1nxus1n$6$:3$:3$1n$7::1nus1n$6$:8:3$:8:3$)pn$9:1::1nus1n$2::1nus:
0804c580       T?oj29walkRight$:RedBlackTree$::1npn$GlobalDictionaryWord$$1n$ptrLess$::1npn$2$$1n$allocator$::1n$pair$::1nxpn$2$1n$TocRef$$:std$$:7$1n$TreePairWrapper$::1npn$2$1n$6$:_ow$:7$:9:7n.x(pn$Node$:1::1npn$2$1n$3::1npn$2$$1n$4::1n$5::1nxpn$2$1n$6$:7$:7$1n$8::1np
0804c5c0       T?8n40walkRight$:RedBlackTree$::1n$basic_string$::1nw1n$char_traits$::1nw:std$$1n$allocator$::1nw:4$:4$1n$less$::1n$2::1nw1n$3::1nw:4$1n$5::1nw:4$:4$:4$1n$5::1n$pair$::1nx$2::1nw1n$3::1nw:4$1n$5::1nw:4$:4$1npn$Synonym$$:4$:4$1n$TreePairWrapper$::1n$2::1nw
0804c600+      T?d7mj$dt:set$::1npn$basic_string$::1nw1n$char_traits$::1nw:std$$1n$allocator$::1nw:3$:3$1n$ptrLess$::1npn$1::1nw1n$2::1nw:3$1n$4::1nw:3$:3$$1n$4::1npn$1::1nw1n$2::1nw:3$1n$4::1nw:3$:3$:3$1n$RedBlackTree$::1npn$1::1nw1n$2::1nw:3$1n$4::1nw:3$:3$1n$5::1npn$
0804c610+      T?qts9$ct:set$::1npn$basic_string$::1nw1n$char_traits$::1nw:std$$1n$allocator$::1nw:3$:3$1n$ptrLess$::1npn$1::1nw1n$2::1nw:3$1n$4::1nw:3$:3$$1n$4::1npn$1::1nw1n$2::1nw:3$1n$4::1nw:3$:3$:3$1n$RedBlackTree$::1npn$1::1nw1n$2::1nw:3$1n$4::1nw:3$:3$1n$5::1npn$
0804c680       W?$ct:set$::1npn$GlobalDictionaryWord$$1n$ptrLess$::1npn$1$$1n$allocator$::1npn$1$:std$$1n$RedBlackTree$::1npn$1$1n$2::1npn$1$$1n$3::1npn$1$:4$1n$TreeKeyWrapper$::1npn$1$:_ow$:4$:7:4$:4n(rnx$2::1npn$1$$rnx$3::1npn$1$:4$)_
0804c6f0       W?$ct:set$::1n$XRef$$1n$less$::1n$1$:std$$1n$allocator$::1n$1$:3$1n$RedBlackTree$::1n$1$1n$2::1n$1$:3$1n$4::1n$1$:3$1n$TreeKeyWrapper$::1n$1$:_ow$:3$:7:3$:3n(rnx$2::1n$1$:3$rnx$4::1n$1$:3$)_
0804c760+      W?$ct:vector$::1npn$IpfData$$1n$allocator$::1npn$1$:std$$:3n(rnx$2::1npn$1$:3$)_
0804c7d0       W?$ct:vector$::1nus1n$allocator$::1nus:std$$:2n(rnx$1::1nus:2$)_
0804c840       W?$dt:vector$::1nus1n$allocator$::1nus:std$$:2n()_
0804c8b0       W?push_back$:vector$::1nus1n$allocator$::1nus:std$$:3n(rnxus)v
0804c900       W?$ct:vector$::1n$ControlButton$$1n$allocator$::1n$1$:std$$:3n(rnx$2::1n$1$:3$)_
0804c970       W?$dt:vector$::1n$ControlButton$$1n$allocator$::1n$1$:std$$:3n()_
0804ca20       W?push_back$:vector$::1n$ControlButton$$1n$allocator$::1n$2$:std$$:4n(rnx$2$)v
0804cae0       W?$ct:vector$::1n$ControlGroup$$1n$allocator$::1n$1$:std$$:3n(rnx$2::1n$1$:3$)_
0804cb50       W?$dt:vector$::1n$ControlGroup$$1n$allocator$::1n$1$:std$$:3n()_
0804cc00       W?push_back$:vector$::1n$ControlGroup$$1n$allocator$::1n$2$:std$$:4n(rnx$2$)v
0804ccc0       W?$ct:vector$::1nuc1n$allocator$::1nuc:std$$:2n(rnx$1::1nuc:2$)_
0804cd30       W?$dt:vector$::1nuc1n$allocator$::1nuc:std$$:2n()_
0804cda0       W?$ct:vector$::1n$basic_string$::1nw1n$char_traits$::1nw:std$$1n$allocator$::1nw:3$:3$1n$4::1n$1::1nw1n$2::1nw:3$1n$4::1nw:3$:3$:3$:3n(rnx$4::1n$1::1nw1n$2::1nw:3$1n$4::1nw:3$:3$:3$)_
0804ce10       W?$dt:vector$::1n$basic_string$::1nw1n$char_traits$::1nw:std$$1n$allocator$::1nw:3$:3$1n$4::1n$1::1nw1n$2::1nw:3$1n$4::1nw:3$:3$:3$:3n()_
0804ce90       W?reserve$:vector$::1n$basic_string$::1nw1n$char_traits$::1nw:std$$1n$allocator$::1nw:4$:4$1n$5::1n$2::1nw1n$3::1nw:4$1n$5::1nw:4$:4$:4$:4n(ui)v
0804d040       W?push_back$:vector$::1n$basic_string$::1nw1n$char_traits$::1nw:std$$1n$allocator$::1nw:4$:4$1n$5::1n$2::1nw1n$3::1nw:4$1n$5::1nw:4$:4$:4$:4n(rnx$2::1nw1n$3::1nw:4$1n$5::1nw:4$:4$)v
0804d090       W?push_back$:vector$::1npn$I1$$1n$allocator$::1npn$2$:std$$:4n(rnxpn$2$)v
0804d0e0       W?push_back$:vector$::1npn$ICmd$$1n$allocator$::1npn$2$:std$$:4n(rnxpn$2$)v
0804d130       W?push_back$:vector$::1nui1n$allocator$::1nui:std$$:3n(rnxui)v
0804d180       T?vvpv$ct:map$::1n$basic_string$::1nw1n$char_traits$::1nw:std$$1n$allocator$::1nw:3$:3$1nus1n$less$::1n$1::1nw1n$2::1nw:3$1n$4::1nw:3$:3$:3$1n$4::1n$pair$::1nx$1::1nw1n$2::1nw:3$1n$4::1nw:3$:3$1nus:3$:3$1n$RedBlackTree$::1n$1::1nw1n$2::1nw:3$1n$4::1nw:3$:
0804d1f0       T?mesp$od:map$::1n$basic_string$::1nw1n$char_traits$::1nw:std$$1n$allocator$::1nw:3$:3$1nus1n$less$::1n$1::1nw1n$2::1nw:3$1n$4::1nw:3$:3$:3$1n$4::1n$pair$::1nx$1::1nw1n$2::1nw:3$1n$4::1nw:3$:3$1nus:3$:3$1n$RedBlackTree$::1n$1::1nw1n$2::1nw:3$1n$4::1nw:3$:
0804d270       T?n9z1$ct:map$::1npn$GlobalDictionaryWord$$1nus1n$ptrLess$::1npn$1$$1n$allocator$::1n$pair$::1nxpn$1$1nus:std$$:5$1n$RedBlackTree$::1npn$1$1n$2::1npn$1$$1n$3::1n$4::1nxpn$1$1nus:5$:5$1n$TreePairWrapper$::1npn$1$1nus:_ow$:5$:8:5$:5n(rnx$2::1npn$1$$rnx$3::1
0804d2e0       T?2f6yuninitialized_copy$::1npn$basic_string$::1nw1n$char_traits$::1nw:std$$1n$allocator$::1nw:3$:3$1npn$1::1nw1n$2::1nw:3$1n$4::1nw:3$:3$:3n(pn$1::1nw1n$2::1nw:3$1n$4::1nw:3$:3$pn$1::1nw1n$2::1nw:3$1n$4::1nw:3$:3$pn$1::1nw1n$2::1nw:3$1n$4::1nw:3$:3$)pn$1
0804d3c0       W?replace_buffer$:basic_string$::1nw1n$char_traits$::1nw:std$$1n$allocator$::1nw:3$:3n(pnxwui)v
0804d420+      T?5yrpinsBalTransform$:RedBlackTree$::1npn$basic_string$::1nw1n$char_traits$::1nw:std$$1n$allocator$::1nw:4$:4$1n$ptrLess$::1npn$2::1nw1n$3::1nw:4$1n$5::1nw:4$:4$$1n$5::1npn$2::1nw1n$3::1nw:4$1n$5::1nw:4$:4$:4$1n$TreeKeyWrapper$::1npn$2::1nw1n$3::1nw:4$1n
0804d620+      T?0evvunbalancedInsert$:RedBlackTree$::1npn$basic_string$::1nw1n$char_traits$::1nw:std$$1n$allocator$::1nw:4$:4$1n$ptrLess$::1npn$2::1nw1n$3::1nw:4$1n$5::1nw:4$:4$$1n$5::1npn$2::1nw1n$3::1nw:4$1n$5::1nw:4$:4$:4$1n$TreeKeyWrapper$::1npn$2::1nw1n$3::1nw:4$1
0804d910       T?d6x7insert$:RedBlackTree$::1n$basic_string$::1nw1n$char_traits$::1nw:std$$1n$allocator$::1nw:4$:4$1n$less$::1n$2::1nw1n$3::1nw:4$1n$5::1nw:4$:4$:4$1n$5::1n$pair$::1nx$2::1nw1n$3::1nw:4$1n$5::1nw:4$:4$1nus:4$:4$1n$TreePairWrapper$::1n$2::1nw1n$3::1nw:4$1
0804d940       W?$ct:RedBlackTree$::1n$XRef$$1n$less$::1n$1$:std$$1n$allocator$::1n$1$:3$1n$TreeKeyWrapper$::1n$1$:_ow$:3$:6:3n(rnx$0::1n$1$1n$2::1n$1$:3$1n$4::1n$1$:3$1n$5::1n$1$:6:3$:6:3$)_
0804de90       W?insBalTransform$:RedBlackTree$::1n$XRef$$1n$less$::1n$2$:std$$1n$allocator$::1n$2$:4$1n$TreeKeyWrapper$::1n$2$:_ow$:4$:7:4n(pn$Node$:1::1n$2$1n$3::1n$2$:4$1n$5::1n$2$:4$1n$6::1n$2$:7:4$:7:4$)v
0804e090       W?unbalancedInsert$:RedBlackTree$::1n$XRef$$1n$less$::1n$2$:std$$1n$allocator$::1n$2$:4$1n$TreeKeyWrapper$::1n$2$:_ow$:4$:7:4n(rnx$2$)$pair$::1n$iterator$:1::1n$2$1n$3::1n$2$:4$1n$5::1n$2$:4$1n$6::1n$2$:7:4$:7:4$1nq:4$
0804e410       W?alloc$:vector$::1nus1n$allocator$::1nus:std$$:3n(uirnui)pnus
0804e430       W?$ct:vector$::1nus1n$allocator$::1nus:std$$:2n(rnx$0::1nus1n$1::1nus:2$:2$)_
0804e500       W?reserve$:vector$::1nus1n$allocator$::1nus:std$$:3n(ui)v
0804e6a0       W?alloc$:vector$::1n$ControlButton$$1n$allocator$::1n$2$:std$$:4n(uirnui)pn$2$
0804e6c0       W?reserve$:vector$::1n$ControlButton$$1n$allocator$::1n$2$:std$$:4n(ui)v
0804e8a0       W?alloc$:vector$::1n$ControlGroup$$1n$allocator$::1n$2$:std$$:4n(uirnui)pn$2$
0804e8c0       W?reserve$:vector$::1n$ControlGroup$$1n$allocator$::1n$2$:std$$:4n(ui)v
0804eaa0       W?alloc$:vector$::1nuc1n$allocator$::1nuc:std$$:3n(uirnui)pnuc
0804eac0       W?alloc$:vector$::1n$basic_string$::1nw1n$char_traits$::1nw:std$$1n$allocator$::1nw:4$:4$1n$5::1n$2::1nw1n$3::1nw:4$1n$5::1nw:4$:4$:4$:4n(uirnui)pn$2::1nw1n$3::1nw:4$1n$5::1nw:4$:4$
0804eae0       W?reserve$:vector$::1npn$I1$$1n$allocator$::1npn$2$:std$$:4n(ui)v
0804ec80       W?reserve$:vector$::1npn$ICmd$$1n$allocator$::1npn$2$:std$$:4n(ui)v
0804ee20       W?reserve$:vector$::1nui1n$allocator$::1nui:std$$:3n(ui)v
0804efc0       W?uninitialized_copy$::1npnus1npnus:std$n(pnuspnuspnus)pnus
0804f0a0       W?uninitialized_copy$::1npn$ControlButton$$1npn$1$:std$n(pn$1$pn$1$pn$1$)pn$1$
0804f1f0       W?uninitialized_copy$::1npn$ControlGroup$$1npn$1$:std$n(pn$1$pn$1$pn$1$)pn$1$
0804f340       W?uninitialized_copy$::1npnpn$I1$$1npnpn$1$:std$n(pnpn$1$pnpn$1$pnpn$1$)pnpn$1$
0804f420       W?uninitialized_copy$::1npnpn$ICmd$$1npnpn$1$:std$n(pnpn$1$pnpn$1$pnpn$1$)pnpn$1$
0804f500       W?uninitialized_copy$::1npnui1npnui:std$n(pnuipnuipnui)pnui
0804f5e0+      T?936v$ct::1npn$basic_string$::1nw1n$char_traits$::1nw:std$$1n$allocator$::1nw:2$:2$:3::1n$Node$:RedBlackTree$::1npn$0::1nw1n$1::1nw:2$1n$3::1nw:2$:2$1n$ptrLess$::1npn$0::1nw1n$1::1nw:2$1n$3::1nw:2$:2$$1n$3::1npn$0::1nw1n$1::1nw:2$1n$3::1nw:2$:2$:2$1n$Tre
0804f5f0       T?w2a3$ct::1n$pair$::1nx$basic_string$::1nw1n$char_traits$::1nw:std$$1n$allocator$::1nw:3$:3$1nus:3$:4::1n$Node$:RedBlackTree$::1n$1::1nw1n$2::1nw:3$1n$4::1nw:3$:3$1n$less$::1n$1::1nw1n$2::1nw:3$1n$4::1nw:3$:3$:3$1n$4::1n$0::1nx$1::1nw1n$2::1nw:3$1n$4::1n
0804f600       W?$ct::1npn$GlobalDictionaryWord$$:allocator$::1n$Node$:RedBlackTree$::1npn$0$1n$ptrLess$::1npn$0$$1n$1::1npn$0$:std$$1n$TreeKeyWrapper$::1npn$0$:_ow$:5$:7:5$:5n(rnx$1::1npn$0$:5$)_
0804f610       W?$ct::1n$pair$::1nxpn$GlobalDictionaryWord$$1nus:std$$:allocator$::1n$Node$:RedBlackTree$::1npn$1$1n$ptrLess$::1npn$1$$1n$3::1n$0::1nxpn$1$1nus:2$:2$1n$TreePairWrapper$::1npn$1$1nus:_ow$:2$:8:2$:2n(rnx$3::1n$0::1nxpn$1$1nus:2$:2$)_
0804f620       W?$ct::1n$XRef$$:allocator$::1n$Node$:RedBlackTree$::1n$0$1n$less$::1n$0$:std$$1n$1::1n$0$:5$1n$TreeKeyWrapper$::1n$0$:_ow$:5$:7:5$:5n(rnx$1::1n$0$:5$)_
0804f630       T?f2p1insBalTransform$:RedBlackTree$::1n$basic_string$::1nw1n$char_traits$::1nw:std$$1n$allocator$::1nw:4$:4$1n$less$::1n$2::1nw1n$3::1nw:4$1n$5::1nw:4$:4$:4$1n$5::1n$pair$::1nx$2::1nw1n$3::1nw:4$1n$5::1nw:4$:4$1nus:4$:4$1n$TreePairWrapper$::1n$2::1nw1n$3
0804f830       T?2vw6unbalancedInsert$:RedBlackTree$::1n$basic_string$::1nw1n$char_traits$::1nw:std$$1n$allocator$::1nw:4$:4$1n$less$::1n$2::1nw1n$3::1nw:4$1n$5::1nw:4$:4$:4$1n$5::1n$pair$::1nx$2::1nw1n$3::1nw:4$1n$5::1nw:4$:4$1nus:4$:4$1n$TreePairWrapper$::1n$2::1nw1n$
0804fc40       W?alloc$:vector$::1npn$I1$$1n$allocator$::1npn$2$:std$$:4n(uirnui)pnpn$2$
080ac080       W?$Wcm017$nx[]uc
080ac090       W?$Wcm0211$nx[]uc
080ac0a0       W?$Wcm0219$nx[]uc
080ac0b0       W?$Wcm018$nx[]uc
080ac0c0       W?$Wcm0215$nx[]uc
080ac0d0       W?$Wth0Inrn$FatalIOError$$$nx[]uc
080ac0f0+      W?$Wts0Wn$auto_ptr$::1n$Document$$:std$$$nx[]uc
08100a9a+      W?$Wti0V$auto_ptr$::1n$Document$$:std$$$n[]uc
0804fc60       W?alloc$:vector$::1npn$ICmd$$1n$allocator$::1npn$2$:std$$:4n(uirnui)pnpn$2$
0804fc80       W?alloc$:vector$::1nui1n$allocator$::1nui:std$$:3n(uirnui)pnui
0804b950       W?getNextToken$:Compiler$n()$Token$:Lexer$$
0804b9b0       W?popInput$:Compiler$n()v
Module: document.obj(/mnt/sda5/.user/root/src/openwatcom-1.9/bld/wipfc/cpp/document.cpp)
08054210+      T?8z2t$ct:iterator_base$:RedBlackTree$::1n$basic_string$::1nw1n$char_traits$::1nw:std$$1n$allocator$::1nw:4$:4$1n$less$::1n$2::1nw1n$3::1nw:4$1n$5::1nw:4$:4$:4$1n$5::1n$pair$::1nx$2::1nw1n$3::1nw:4$1n$5::1nw:4$:4$1nw:4$:4$1n$TreePairWrapper$::1n$2::1nw1n$
08054220+      W?$dt:Bitmap$n()_
08054290       W?$dt:Element$n()_
080542a0       W?buildTOC$:Element$n(pn$Page$$)v
080542b0       W?buildIndex$:Element$n()v
080542c0       W?buildLocalDict$:Element$n(pn$Page$$)$pair$::1nq1nq:std$$
080542d0       W?$dt:BrCmd$n()_
08054360       W?parse$:BrCmd$n(pn$Lexer$$)$Token$:2$
08054370       W?$ct:Node$:list$::1npn$Element$$1n$allocator$::1npn$2$:std$$:4n(rnxpn$2$)_
08054380+      W?$dt:CeCmd$n()_
08054420+      W?$dt:DocProf$n()_
080544a0+      W?$dt:Fn$n()_
08054540+      W?linearize$:Fn$n(pn$Page$$)v
08054550+      W?buildText$:Fn$n(pn$Cell$$)v
08054560+      W?linearize$:Page$n()v
08054580+      W?buildIndex$:Page$n()v
08054590+      W?$dt:Title$n()_
080545a0+      W?$Wmp0Elinearize$n()v$:Page$n()pn()v
080545b0+      W?$Wmp0PbuildLocalDictionary$n()v$:Page$n()pn()v
080545c0+      W?$Wmp0Abuild$n()v$:Cell$n()pn()v
0804fca0       W?$ct:Document$n(rn$Compiler$$pnxa)_
08050290       W?$dt:Document$n()_
080508a0       W?parse$:Document$n(pn$Lexer$$)v
08051450       W?build$:Document$n()v
08051660       W?write$:Document$n(pn$__iobuf$$)v
080518d0       W?summary$:Document$n(pn$__iobuf$$)v
08051a20       W?addBitmap$:Document$n(rn$basic_string$::1nw1n$char_traits$::1nw:std$$1n$allocator$::1nw:4$:4$)v
08051aa0       W?bitmapByName$:Document$n(rn$basic_string$::1nw1n$char_traits$::1nw:std$$1n$allocator$::1nw:4$:4$)ui
08051ad0       W?addRes$:Document$n(usrn$TocRef$$)v
08051bb0       W?addNameOrId$:Document$n(pn$GlobalDictionaryWord$$rn$TocRef$$)v
08051c90       W?addXRef$:Document$n(usrn$XRef$$)v
08051ce0       W?addXRef$:Document$n(pn$GlobalDictionaryWord$$rn$XRef$$)v
08054a40+      W?$Wmp0FbuildIndex$n()v$:Page$n()pn()v
08051d30       W?addPage$:Document$n(pn$Page$$)v
08051d50       W?addCell$:Document$n(pn$Cell$$)v
08051d70+      W?makeIndexes$:Document$n()v
08051e60+      W?makeBitmaps$:Document$n()v
08052590+      W?writeBitmaps$:Document$n(pn$__iobuf$$)ui
080529d0+      W?writeResMap$:Document$n(pn$__iobuf$$)ui
08052b10+      W?writeNameMap$:Document$n(pn$__iobuf$$)ui
08052c70+      W?writeTOCs$:Document$n(pn$__iobuf$$)ui
08052cf0+      W?writeTOCOffsets$:Document$n(pn$__iobuf$$)ui
08052d60+      W?writeCells$:Document$n(pn$__iobuf$$)v
08052dd0+      W?writeCellOffsets$:Document$n(pn$__iobuf$$)ui
08052e40+      W?writeChildWindows$:Document$n(pn$__iobuf$$)ui
08052eb0+      W?writeSynonyms$:Document$n(pn$__iobuf$$)v
08052ef0+      W?writeIndex$:Document$n(pn$__iobuf$$)ui
08052ff0+      W?writeICmd$:Document$n(pn$__iobuf$$)ui
080530a0       W?processCommand$:Document$n(pn$Lexer$$pn$Tag$$)$Token$:2$
08053ec0       W?tocIndexByRes$:Document$n(us)us
08053f10       W?tocIndexById$:Document$n(pn$GlobalDictionaryWord$$)us
08053f60       W?addSynonym$:Document$n(rn$basic_string$::1nw1n$char_traits$::1nw:std$$1n$allocator$::1nw:4$:4$pn$Synonym$$)v
08054020       W?synonym$:Document$n(rnx$basic_string$::1nw1n$char_traits$::1nw:std$$1n$allocator$::1nw:4$:4$)pn$Synonym$$
08054060       W?addIndexId$:Document$n(rn$basic_string$::1nw1n$char_traits$::1nw:std$$1n$allocator$::1nw:4$:4$pn$I1$$)v
08054120       W?indexById$:Document$n(rnx$basic_string$::1nw1n$char_traits$::1nw:std$$1n$allocator$::1nw:4$:4$)pn$I1$$
08054160       W?nameit$:Document$n(rnx$basic_string$::1nw1n$char_traits$::1nw:std$$1n$allocator$::1nw:4$:4$)pnx$2::1nw1n$3::1nw:4$1n$5::1nw:4$:4$
08054190       W?prepNameitName$:Document$n(rnx$basic_string$::1nw1n$char_traits$::1nw:std$$1n$allocator$::1nw:4$:4$)pn$2::1nw1n$3::1nw:4$1n$5::1nw:4$:4$
08054a50+      W?$dt:pair$::1nx$basic_string$::1nw1n$char_traits$::1nw:std$$1n$allocator$::1nw:3$:3$1nul:3n()_
08054a60+      T?t3nw$dt:Node$:RedBlackTree$::1n$basic_string$::1nw1n$char_traits$::1nw:std$$1n$allocator$::1nw:4$:4$1n$less$::1n$2::1nw1n$3::1nw:4$1n$5::1nw:4$:4$:4$1n$5::1n$pair$::1nx$2::1nw1n$3::1nw:4$1n$5::1nw:4$:4$1npn$I1$$:4$:4$1n$TreePairWrapper$::1n$2::1nw1n$3::
08054a70+      W?$dt:pair$::1nx$basic_string$::1nw1n$char_traits$::1nw:std$$1n$allocator$::1nw:3$:3$1npn$I1$$:3n()_
08054a80+      T?de47$dt:Node$:RedBlackTree$::1n$basic_string$::1nw1n$char_traits$::1nw:std$$1n$allocator$::1nw:4$:4$1n$less$::1n$2::1nw1n$3::1nw:4$1n$5::1nw:4$:4$:4$1n$5::1n$pair$::1nx$2::1nw1n$3::1nw:4$1n$5::1nw:4$:4$1n$2::1nw1n$3::1nw:4$1n$5::1nw:4$:4$:4$:4$1n$TreePa
08054af0+      W?$dt:pair$::1nx$basic_string$::1nw1n$char_traits$::1nw:std$$1n$allocator$::1nw:3$:3$1n$1::1nw1n$2::1nw:3$1n$4::1nw:3$:3$:3n()_
08054b60+      T?tidb$dt:Node$:RedBlackTree$::1n$basic_string$::1nw1n$char_traits$::1nw:std$$1n$allocator$::1nw:4$:4$1n$less$::1n$2::1nw1n$3::1nw:4$1n$5::1nw:4$:4$:4$1n$5::1n$pair$::1nx$2::1nw1n$3::1nw:4$1n$5::1nw:4$:4$1npn$Synonym$$:4$:4$1n$TreePairWrapper$::1n$2::1nw1
08054b70+      W?$dt:pair$::1nx$basic_string$::1nw1n$char_traits$::1nw:std$$1n$allocator$::1nw:3$:3$1npn$Synonym$$:3n()_
08054b80+      W?$dt:Node$:RedBlackTree$::1npn$GlobalDictionaryWord$$1n$ptrLess$::1npn$2$$1n$allocator$::1n$pair$::1nxpn$2$1n$TocRef$$:std$$:7$1n$TreePairWrapper$::1npn$2$1n$6$:_ow$:7$:9:7n()_
08054ba0+      W?$dt:pair$::1nxpn$GlobalDictionaryWord$$1n$TocRef$$:std$n()_
08054bc0+      W?$dt:Node$:RedBlackTree$::1nus1n$less$::1nus:std$$1n$allocator$::1n$pair$::1nxus1n$TocRef$$:3$:3$1n$TreePairWrapper$::1nus1n$6$:_ow$:3$:8:3n()_
08054be0+      W?$dt:pair$::1nxus1n$TocRef$$:std$n()_
08054c00+      T?wg9k$dt:Node$:RedBlackTree$::1n$basic_string$::1nw1n$char_traits$::1nw:std$$1n$allocator$::1nw:4$:4$1n$less$::1n$2::1nw1n$3::1nw:4$1n$5::1nw:4$:4$:4$1n$5::1n$pair$::1nx$2::1nw1n$3::1nw:4$1n$5::1nw:4$:4$1nui:4$:4$1n$TreePairWrapper$::1n$2::1nw1n$3::1nw:4
08054c10+      W?$dt:pair$::1nx$basic_string$::1nw1n$char_traits$::1nw:std$$1n$allocator$::1nw:3$:3$1nui:3n()_
08054c20       W?$ct:TocRef$n(rnx$0$)_
08054c50       W?$ct:Class3Error$n(rnx$0$)_
08054c60       W?$dt:Class3Error$n()_
08054c70       W?$ct:Class1Error$n(rnx$0$)_
08054c80       W?$dt:Class1Error$n()_
08054c90       W?$ct:FatalError$n(rnx$0$)_
08054ca0       W?$dt:FatalError$n()_
08054cb0+      W?for_each$::1npnpn$Page$$1n$mem_fun_t$::1nv1n$1$:std$$:3n(pnpn$1$pnpn$1$$2::1nv1n$1$:3$)$2::1nv1n$1$:3$
08054d00+      W?for_each$::1npnpn$Cell$$1n$mem_fun_t$::1nv1n$1$:std$$:3n(pnpn$1$pnpn$1$$2::1nv1n$1$:3$)$2::1nv1n$1$:3$
08054d50+      W?$ct::1nx$basic_string$::1nw1n$char_traits$::1nw:std$$1n$allocator$::1nw:2$:2$1nul:pair$::1nx$0::1nw1n$1::1nw:2$1n$3::1nw:2$:2$1nui:2n(rnx$4::1nx$0::1nw1n$1::1nw:2$1n$3::1nw:2$:2$1nul:2$)_
08054d60       W?$ct:allocator$::1nw:std$n()_
08054d70       W?$ct:allocator$::1nus:std$n()_
08054d80       W?$dt:allocator$::1n$FontEntry$$:std$n()_
08054d90       W?$ct:allocator$::1nuc:std$n()_
08054da0+      W?$dt:allocator$::1npn$Page$$:std$n()_
08054db0+      W?$dt:allocator$::1npn$Cell$$:std$n()_
08054dc0+      W?$dt:allocator$::1n$pair$::1nx$basic_string$::1nw1n$char_traits$::1nw:std$$1n$0::1nw:4$:4$1nui:4$:4n()_
08054dd0+      T?uax1$dt:allocator$::1n$Node$:RedBlackTree$::1n$basic_string$::1nw1n$char_traits$::1nw:std$$1n$0::1nw:5$:5$1n$less$::1n$3::1nw1n$4::1nw:5$1n$0::1nw:5$:5$:5$1n$0::1n$pair$::1nx$3::1nw1n$4::1nw:5$1n$0::1nw:5$:5$1nui:5$:5$1n$TreePairWrapper$::1n$3::1nw1n$4:
08054de0+      W?$dt:allocator$::1n$pair$::1nxus1n$TocRef$$:std$$:3n()_
08054df0+      W?$dt:allocator$::1n$Node$:RedBlackTree$::1nus1n$less$::1nus:std$$1n$0::1n$pair$::1nxus1n$TocRef$$:4$:4$1n$TreePairWrapper$::1nus1n$6$:_ow$:4$:8:4$:4n()_
08054e00+      W?$dt:allocator$::1n$pair$::1nxpn$GlobalDictionaryWord$$1n$TocRef$$:std$$:4n()_
08054e10+      W?$dt:allocator$::1n$Node$:RedBlackTree$::1npn$GlobalDictionaryWord$$1n$ptrLess$::1npn$3$$1n$0::1n$pair$::1nxpn$3$1n$TocRef$$:std$$:7$1n$TreePairWrapper$::1npn$3$1n$6$:_ow$:7$:9:7$:7n()_
08054e20+      W?$dt:allocator$::1n$pair$::1nx$basic_string$::1nw1n$char_traits$::1nw:std$$1n$0::1nw:4$:4$1npn$Synonym$$:4$:4n()_
08054e30+      T?hgnc$dt:allocator$::1n$Node$:RedBlackTree$::1n$basic_string$::1nw1n$char_traits$::1nw:std$$1n$0::1nw:5$:5$1n$less$::1n$3::1nw1n$4::1nw:5$1n$0::1nw:5$:5$:5$1n$0::1n$pair$::1nx$3::1nw1n$4::1nw:5$1n$0::1nw:5$:5$1npn$Synonym$$:5$:5$1n$TreePairWrapper$::1n$3
08054e40+      W?$dt:allocator$::1n$pair$::1nx$basic_string$::1nw1n$char_traits$::1nw:std$$1n$0::1nw:4$:4$1n$2::1nw1n$3::1nw:4$1n$0::1nw:4$:4$:4$:4n()_
08054e50+      T?hz2o$dt:allocator$::1n$Node$:RedBlackTree$::1n$basic_string$::1nw1n$char_traits$::1nw:std$$1n$0::1nw:5$:5$1n$less$::1n$3::1nw1n$4::1nw:5$1n$0::1nw:5$:5$:5$1n$0::1n$pair$::1nx$3::1nw1n$4::1nw:5$1n$0::1nw:5$:5$1n$3::1nw1n$4::1nw:5$1n$0::1nw:5$:5$:5$:5$1n$
08054e60+      W?$dt:allocator$::1npn$I1$$:std$n()_
08054e70+      W?$dt:allocator$::1n$pair$::1nx$basic_string$::1nw1n$char_traits$::1nw:std$$1n$0::1nw:4$:4$1npn$I1$$:4$:4n()_
08054e80+      T?mjij$dt:allocator$::1n$Node$:RedBlackTree$::1n$basic_string$::1nw1n$char_traits$::1nw:std$$1n$0::1nw:5$:5$1n$less$::1n$3::1nw1n$4::1nw:5$1n$0::1nw:5$:5$:5$1n$0::1n$pair$::1nx$3::1nw1n$4::1nw:5$1n$0::1nw:5$:5$1npn$I1$$:5$:5$1n$TreePairWrapper$::1n$3::1nw
08054e90+      W?$dt:allocator$::1npn$ICmd$$:std$n()_
08054ea0       W?$dt:allocator$::1nui:std$n()_
08054eb0       W?$dt:allocator$::1n$RGB$:Bitmap$$:std$n()_
08054ec0       W?$dt:allocator$::1n$BitmapBlock$$:std$n()_
08054ed0       W?$dt:allocator$::1npn$Element$$:std$n()_
08054ee0       W?$dt:allocator$::1n$Node$:list$::1npn$Element$$1n$0::1npn$3$:std$$:4$:4n()_
08054ef0       W?$dt:allocator$::1n$DoubleLink$:list$::1npn$Element$$1n$0::1npn$3$:std$$:4$:4n()_
08054f00       W?$dt:allocator$::1npn$CtrlTag$$:std$n()_
08054f10       W?$dt:allocator$::1npn$IndexItem$$:std$n()_
08054f20       W?$dt:allocator$::1n$basic_string$::1na1n$char_traits$::1na:std$$1n$0::1na:3$:3$:3n()_
08054f30+      W?$dt:auto_ptr$::1n$Nls$$:std$n()_
08055090+      W?$dt:auto_ptr$::1n$IpfHeader$$:std$n()_
080550e0+      W?$dt:auto_ptr$::1n$IpfExtHeader$$:std$n()_
08055130+      W?$dt:auto_ptr$::1n$StringTable$$:std$n()_
080551b0+      W?$dt:auto_ptr$::1n$ExternalFiles$$:std$n()_
08055230+      W?$dt:auto_ptr$::1n$Controls$$:std$n()_
080552d0+      W?$dt:auto_ptr$::1n$FontCollection$$:std$n()_
08055350+      W?$dt:auto_ptr$::1n$GNames$$:std$n()_
080553d0+      W?$dt:auto_ptr$::1n$GlobalDictionary$$:std$n()_
08055450       W?append$:basic_string$::1na1n$char_traits$::1na:std$$1n$allocator$::1na:3$:3n(rnx$1::1na1n$2::1na:3$1n$4::1na:3$:3$uiui)rn$1::1na1n$2::1na:3$1n$4::1na:3$:3$
08055530+      W?find_first_of$:basic_string$::1na1n$char_traits$::1na:std$$1n$allocator$::1na:3$:3n.x(pnxauiui)ui
08055580+      W?substr$:basic_string$::1na1n$char_traits$::1na:std$$1n$allocator$::1na:3$:3n.x(uiui)$1::1na1n$2::1na:3$1n$4::1na:3$:3$
08055680       W?append$:basic_string$::1nw1n$char_traits$::1nw:std$$1n$allocator$::1nw:3$:3n(rnx$1::1nw1n$2::1nw:3$1n$4::1nw:3$:3$uiui)rn$1::1nw1n$2::1nw:3$1n$4::1nw:3$:3$
08055760       W?append$:basic_string$::1nw1n$char_traits$::1nw:std$$1n$allocator$::1nw:3$:3n(pnxwui)rn$1::1nw1n$2::1nw:3$1n$4::1nw:3$:3$
080558e0       W?substr$:basic_string$::1nw1n$char_traits$::1nw:std$$1n$allocator$::1nw:3$:3n.x(uiui)$1::1nw1n$2::1nw:3$1n$4::1nw:3$:3$
080559e0       T?my32$dt:RedBlackTree$::1n$basic_string$::1nw1n$char_traits$::1nw:std$$1n$allocator$::1nw:3$:3$1n$less$::1n$1::1nw1n$2::1nw:3$1n$4::1nw:3$:3$:3$1n$4::1n$pair$::1nx$1::1nw1n$2::1nw:3$1n$4::1nw:3$:3$1nw:3$:3$1n$TreePairWrapper$::1n$1::1nw1n$2::1nw:3$1n$4::
08055a40       T?8iwvclear$:RedBlackTree$::1n$basic_string$::1nw1n$char_traits$::1nw:std$$1n$allocator$::1nw:4$:4$1n$less$::1n$2::1nw1n$3::1nw:4$1n$5::1nw:4$:4$:4$1n$5::1n$pair$::1nx$2::1nw1n$3::1nw:4$1n$5::1nw:4$:4$1nw:4$:4$1n$TreePairWrapper$::1n$2::1nw1n$3::1nw:4$1n$
08055ae0+      T?1mla$dt:RedBlackTree$::1n$basic_string$::1nw1n$char_traits$::1nw:std$$1n$allocator$::1nw:3$:3$1n$less$::1n$1::1nw1n$2::1nw:3$1n$4::1nw:3$:3$:3$1n$4::1n$pair$::1nx$1::1nw1n$2::1nw:3$1n$4::1nw:3$:3$1nui:3$:3$1n$TreePairWrapper$::1n$1::1nw1n$2::1nw:3$1n$4:
08055b40+      T?2xrlclear$:RedBlackTree$::1n$basic_string$::1nw1n$char_traits$::1nw:std$$1n$allocator$::1nw:4$:4$1n$less$::1n$2::1nw1n$3::1nw:4$1n$5::1nw:4$:4$:4$1n$5::1n$pair$::1nx$2::1nw1n$3::1nw:4$1n$5::1nw:4$:4$1nui:4$:4$1n$TreePairWrapper$::1n$2::1nw1n$3::1nw:4$1n
08055be0+      T?5go6find$:RedBlackTree$::1n$basic_string$::1nw1n$char_traits$::1nw:std$$1n$allocator$::1nw:4$:4$1n$less$::1n$2::1nw1n$3::1nw:4$1n$5::1nw:4$:4$:4$1n$5::1n$pair$::1nx$2::1nw1n$3::1nw:4$1n$5::1nw:4$:4$1nui:4$:4$1n$TreePairWrapper$::1n$2::1nw1n$3::1nw:4$1n$
08055c40+      T?8pvzinsert$:RedBlackTree$::1n$basic_string$::1nw1n$char_traits$::1nw:std$$1n$allocator$::1nw:4$:4$1n$less$::1n$2::1nw1n$3::1nw:4$1n$5::1nw:4$:4$:4$1n$5::1n$pair$::1nx$2::1nw1n$3::1nw:4$1n$5::1nw:4$:4$1nui:4$:4$1n$TreePairWrapper$::1n$2::1nw1n$3::1nw:4$1
08055c70+      W?$dt:RedBlackTree$::1nus1n$less$::1nus:std$$1n$allocator$::1n$pair$::1nxus1n$TocRef$$:2$:2$1n$TreePairWrapper$::1nus1n$5$:_ow$:2$:7:2n()_
08055cd0+      W?clear$:RedBlackTree$::1nus1n$less$::1nus:std$$1n$allocator$::1n$pair$::1nxus1n$TocRef$$:3$:3$1n$TreePairWrapper$::1nus1n$6$:_ow$:3$:8:3n()v
08055d80+      W?find$:RedBlackTree$::1nus1n$less$::1nus:std$$1n$allocator$::1n$pair$::1nxus1n$TocRef$$:3$:3$1n$TreePairWrapper$::1nus1n$6$:_ow$:3$:8:3n(rnxus)$iterator$:1::1nus1n$2::1nus:3$1n$4::1n$5::1nxus1n$6$:3$:3$1n$7::1nus1n$6$:8:3$:8:3$
08055dd0+      T?78t3insert$:RedBlackTree$::1nus1n$less$::1nus:std$$1n$allocator$::1n$pair$::1nxus1n$TocRef$$:3$:3$1n$TreePairWrapper$::1nus1n$6$:_ow$:3$:8:3n(rnx$5::1nxus1n$6$:3$)$5::1n$iterator$:1::1nus1n$2::1nus:3$1n$4::1n$5::1nxus1n$6$:3$:3$1n$7::1nus1n$6$:8:3$:8:3$
08055e00+      W?$dt:RedBlackTree$::1npn$GlobalDictionaryWord$$1n$ptrLess$::1npn$1$$1n$allocator$::1n$pair$::1nxpn$1$1n$TocRef$$:std$$:6$1n$TreePairWrapper$::1npn$1$1n$5$:_ow$:6$:8:6n()_
08055e60+      W?clear$:RedBlackTree$::1npn$GlobalDictionaryWord$$1n$ptrLess$::1npn$2$$1n$allocator$::1n$pair$::1nxpn$2$1n$TocRef$$:std$$:7$1n$TreePairWrapper$::1npn$2$1n$6$:_ow$:7$:9:7n()v
08055f10+      T?y3pyfind$:RedBlackTree$::1npn$GlobalDictionaryWord$$1n$ptrLess$::1npn$2$$1n$allocator$::1n$pair$::1nxpn$2$1n$TocRef$$:std$$:7$1n$TreePairWrapper$::1npn$2$1n$6$:_ow$:7$:9:7n(rnxpn$2$)$iterator$:1::1npn$2$1n$3::1npn$2$$1n$4::1n$5::1nxpn$2$1n$6$:7$:7$1n$8:
08055f70+      T?e313insert$:RedBlackTree$::1npn$GlobalDictionaryWord$$1n$ptrLess$::1npn$2$$1n$allocator$::1n$pair$::1nxpn$2$1n$TocRef$$:std$$:7$1n$TreePairWrapper$::1npn$2$1n$6$:_ow$:7$:9:7n(rnx$5::1nxpn$2$1n$6$:7$)$5::1n$iterator$:1::1npn$2$1n$3::1npn$2$$1n$4::1n$5::1
08055fa0+      T?fkaa$dt:RedBlackTree$::1n$basic_string$::1nw1n$char_traits$::1nw:std$$1n$allocator$::1nw:3$:3$1n$less$::1n$1::1nw1n$2::1nw:3$1n$4::1nw:3$:3$:3$1n$4::1n$pair$::1nx$1::1nw1n$2::1nw:3$1n$4::1nw:3$:3$1npn$Synonym$$:3$:3$1n$TreePairWrapper$::1n$1::1nw1n$2::1
08056000+      T?k5yeclear$:RedBlackTree$::1n$basic_string$::1nw1n$char_traits$::1nw:std$$1n$allocator$::1nw:4$:4$1n$less$::1n$2::1nw1n$3::1nw:4$1n$5::1nw:4$:4$:4$1n$5::1n$pair$::1nx$2::1nw1n$3::1nw:4$1n$5::1nw:4$:4$1npn$Synonym$$:4$:4$1n$TreePairWrapper$::1n$2::1nw1n$3
080560a0+      T?98xafind$:RedBlackTree$::1n$basic_string$::1nw1n$char_traits$::1nw:std$$1n$allocator$::1nw:4$:4$1n$less$::1n$2::1nw1n$3::1nw:4$1n$5::1nw:4$:4$:4$1n$5::1n$pair$::1nx$2::1nw1n$3::1nw:4$1n$5::1nw:4$:4$1npn$Synonym$$:4$:4$1n$TreePairWrapper$::1n$2::1nw1n$3:
08056100+      T?uai6insert$:RedBlackTree$::1n$basic_string$::1nw1n$char_traits$::1nw:std$$1n$allocator$::1nw:4$:4$1n$less$::1n$2::1nw1n$3::1nw:4$1n$5::1nw:4$:4$:4$1n$5::1n$pair$::1nx$2::1nw1n$3::1nw:4$1n$5::1nw:4$:4$1npn$Synonym$$:4$:4$1n$TreePairWrapper$::1n$2::1nw1n$
08056130+      T?p6y9$dt:RedBlackTree$::1n$basic_string$::1nw1n$char_traits$::1nw:std$$1n$allocator$::1nw:3$:3$1n$less$::1n$1::1nw1n$2::1nw:3$1n$4::1nw:3$:3$:3$1n$4::1n$pair$::1nx$1::1nw1n$2::1nw:3$1n$4::1nw:3$:3$1n$1::1nw1n$2::1nw:3$1n$4::1nw:3$:3$:3$:3$1n$TreePairWrap
08056190+      T?m71dclear$:RedBlackTree$::1n$basic_string$::1nw1n$char_traits$::1nw:std$$1n$allocator$::1nw:4$:4$1n$less$::1n$2::1nw1n$3::1nw:4$1n$5::1nw:4$:4$:4$1n$5::1n$pair$::1nx$2::1nw1n$3::1nw:4$1n$5::1nw:4$:4$1n$2::1nw1n$3::1nw:4$1n$5::1nw:4$:4$:4$:4$1n$TreePairW
080562a0+      T?av8ifind$:RedBlackTree$::1n$basic_string$::1nw1n$char_traits$::1nw:std$$1n$allocator$::1nw:4$:4$1n$less$::1n$2::1nw1n$3::1nw:4$1n$5::1nw:4$:4$:4$1n$5::1n$pair$::1nx$2::1nw1n$3::1nw:4$1n$5::1nw:4$:4$1n$2::1nw1n$3::1nw:4$1n$5::1nw:4$:4$:4$:4$1n$TreePairWr
08056300+      T?ukwyinsert$:RedBlackTree$::1n$basic_string$::1nw1n$char_traits$::1nw:std$$1n$allocator$::1nw:4$:4$1n$less$::1n$2::1nw1n$3::1nw:4$1n$5::1nw:4$:4$:4$1n$5::1n$pair$::1nx$2::1nw1n$3::1nw:4$1n$5::1nw:4$:4$1n$2::1nw1n$3::1nw:4$1n$5::1nw:4$:4$:4$:4$1n$TreePair
08056330+      T?r5jd$dt:RedBlackTree$::1n$basic_string$::1nw1n$char_traits$::1nw:std$$1n$allocator$::1nw:3$:3$1n$less$::1n$1::1nw1n$2::1nw:3$1n$4::1nw:3$:3$:3$1n$4::1n$pair$::1nx$1::1nw1n$2::1nw:3$1n$4::1nw:3$:3$1npn$I1$$:3$:3$1n$TreePairWrapper$::1n$1::1nw1n$2::1nw:3$
08056390+      T?l2paclear$:RedBlackTree$::1n$basic_string$::1nw1n$char_traits$::1nw:std$$1n$allocator$::1nw:4$:4$1n$less$::1n$2::1nw1n$3::1nw:4$1n$5::1nw:4$:4$:4$1n$5::1n$pair$::1nx$2::1nw1n$3::1nw:4$1n$5::1nw:4$:4$1npn$I1$$:4$:4$1n$TreePairWrapper$::1n$2::1nw1n$3::1nw
08056430+      T?opeifind$:RedBlackTree$::1n$basic_string$::1nw1n$char_traits$::1nw:std$$1n$allocator$::1nw:4$:4$1n$less$::1n$2::1nw1n$3::1nw:4$1n$5::1nw:4$:4$:4$1n$5::1n$pair$::1nx$2::1nw1n$3::1nw:4$1n$5::1nw:4$:4$1npn$I1$$:4$:4$1n$TreePairWrapper$::1n$2::1nw1n$3::1nw:
08056490+      T?0pb0insert$:RedBlackTree$::1n$basic_string$::1nw1n$char_traits$::1nw:std$$1n$allocator$::1nw:4$:4$1n$less$::1n$2::1nw1n$3::1nw:4$1n$5::1nw:4$:4$:4$1n$5::1n$pair$::1nx$2::1nw1n$3::1nw:4$1n$5::1nw:4$:4$1npn$I1$$:4$:4$1n$TreePairWrapper$::1n$2::1nw1n$3::1n
080564c0       T?8twe$dt:map$::1n$basic_string$::1nw1n$char_traits$::1nw:std$$1n$allocator$::1nw:3$:3$1nw1n$less$::1n$1::1nw1n$2::1nw:3$1n$4::1nw:3$:3$:3$1n$4::1n$pair$::1nx$1::1nw1n$2::1nw:3$1n$4::1nw:3$:3$1nw:3$:3$1n$RedBlackTree$::1n$1::1nw1n$2::1nw:3$1n$4::1nw:3$:3$
080564d0+      T?5sha$dt:map$::1n$basic_string$::1nw1n$char_traits$::1nw:std$$1n$allocator$::1nw:3$:3$1nui1n$less$::1n$1::1nw1n$2::1nw:3$1n$4::1nw:3$:3$:3$1n$4::1n$pair$::1nx$1::1nw1n$2::1nw:3$1n$4::1nw:3$:3$1nui:3$:3$1n$RedBlackTree$::1n$1::1nw1n$2::1nw:3$1n$4::1nw:3$:
080564e0+      T?s3k4$ct:map$::1n$basic_string$::1nw1n$char_traits$::1nw:std$$1n$allocator$::1nw:3$:3$1nui1n$less$::1n$1::1nw1n$2::1nw:3$1n$4::1nw:3$:3$:3$1n$4::1n$pair$::1nx$1::1nw1n$2::1nw:3$1n$4::1nw:3$:3$1nui:3$:3$1n$RedBlackTree$::1n$1::1nw1n$2::1nw:3$1n$4::1nw:3$:
08056550+      W?$dt:map$::1nus1n$TocRef$$1n$less$::1nus:std$$1n$allocator$::1n$pair$::1nxus1n$1$:3$:3$1n$RedBlackTree$::1nus1n$2::1nus:3$1n$4::1n$5::1nxus1n$1$:3$:3$1n$TreePairWrapper$::1nus1n$1$:_ow$:3$:8:3$:3n()_
08056560+      W?$ct:map$::1nus1n$TocRef$$1n$less$::1nus:std$$1n$allocator$::1n$pair$::1nxus1n$1$:3$:3$1n$RedBlackTree$::1nus1n$2::1nus:3$1n$4::1n$5::1nxus1n$1$:3$:3$1n$TreePairWrapper$::1nus1n$1$:_ow$:3$:8:3$:3n(rnx$2::1nus:3$rnx$4::1n$5::1nxus1n$1$:3$:3$)_
080565d0+      W?$dt:map$::1npn$GlobalDictionaryWord$$1n$TocRef$$1n$ptrLess$::1npn$1$$1n$allocator$::1n$pair$::1nxpn$1$1n$2$:std$$:6$1n$RedBlackTree$::1npn$1$1n$3::1npn$1$$1n$4::1n$5::1nxpn$1$1n$2$:6$:6$1n$TreePairWrapper$::1npn$1$1n$2$:_ow$:6$:9:6$:6n()_
080565e0+      T?ip7f$ct:map$::1npn$GlobalDictionaryWord$$1n$TocRef$$1n$ptrLess$::1npn$1$$1n$allocator$::1n$pair$::1nxpn$1$1n$2$:std$$:6$1n$RedBlackTree$::1npn$1$1n$3::1npn$1$$1n$4::1n$5::1nxpn$1$1n$2$:6$:6$1n$TreePairWrapper$::1npn$1$1n$2$:_ow$:6$:9:6$:6n(rnx$3::1npn$1
08056650+      T?n7fh$dt:map$::1n$basic_string$::1nw1n$char_traits$::1nw:std$$1n$allocator$::1nw:3$:3$1npn$Synonym$$1n$less$::1n$1::1nw1n$2::1nw:3$1n$4::1nw:3$:3$:3$1n$4::1n$pair$::1nx$1::1nw1n$2::1nw:3$1n$4::1nw:3$:3$1npn$5$:3$:3$1n$RedBlackTree$::1n$1::1nw1n$2::1nw:3$
08056660+      T?k0sy$ct:map$::1n$basic_string$::1nw1n$char_traits$::1nw:std$$1n$allocator$::1nw:3$:3$1npn$Synonym$$1n$less$::1n$1::1nw1n$2::1nw:3$1n$4::1nw:3$:3$:3$1n$4::1n$pair$::1nx$1::1nw1n$2::1nw:3$1n$4::1nw:3$:3$1npn$5$:3$:3$1n$RedBlackTree$::1n$1::1nw1n$2::1nw:3$
080566d0+      T?n2mj$dt:map$::1n$basic_string$::1nw1n$char_traits$::1nw:std$$1n$allocator$::1nw:3$:3$1n$1::1nw1n$2::1nw:3$1n$4::1nw:3$:3$1n$less$::1n$1::1nw1n$2::1nw:3$1n$4::1nw:3$:3$:3$1n$4::1n$pair$::1nx$1::1nw1n$2::1nw:3$1n$4::1nw:3$:3$1n$1::1nw1n$2::1nw:3$1n$4::1nw
080566e0+      T?8nas$ct:map$::1n$basic_string$::1nw1n$char_traits$::1nw:std$$1n$allocator$::1nw:3$:3$1n$1::1nw1n$2::1nw:3$1n$4::1nw:3$:3$1n$less$::1n$1::1nw1n$2::1nw:3$1n$4::1nw:3$:3$:3$1n$4::1n$pair$::1nx$1::1nw1n$2::1nw:3$1n$4::1nw:3$:3$1n$1::1nw1n$2::1nw:3$1n$4::1nw
08056750+      T?holf$dt:map$::1n$basic_string$::1nw1n$char_traits$::1nw:std$$1n$allocator$::1nw:3$:3$1npn$I1$$1n$less$::1n$1::1nw1n$2::1nw:3$1n$4::1nw:3$:3$:3$1n$4::1n$pair$::1nx$1::1nw1n$2::1nw:3$1n$4::1nw:3$:3$1npn$5$:3$:3$1n$RedBlackTree$::1n$1::1nw1n$2::1nw:3$1n$4:
08056760+      T?z5f5$ct:map$::1n$basic_string$::1nw1n$char_traits$::1nw:std$$1n$allocator$::1nw:3$:3$1npn$I1$$1n$less$::1n$1::1nw1n$2::1nw:3$1n$4::1nw:3$:3$:3$1n$4::1n$pair$::1nx$1::1nw1n$2::1nw:3$1n$4::1nw:3$:3$1npn$5$:3$:3$1n$RedBlackTree$::1n$1::1nw1n$2::1nw:3$1n$4:
080567d0+      T?5va5$ct:set$::1n$XRef$$1n$less$::1n$1$:std$$1n$allocator$::1n$1$:3$1n$RedBlackTree$::1n$1$1n$2::1n$1$:3$1n$4::1n$1$:3$1n$TreeKeyWrapper$::1n$1$:_ow$:3$:7:3$:3n(rnx$0::1n$1$1n$2::1n$1$:3$1n$4::1n$1$:3$1n$5::1n$1$1n$2::1n$1$:3$1n$4::1n$1$:3$1n$6::1n$1$:7:
080567e0       W?$aa:vector$::1nus1n$allocator$::1nus:std$$:2n(rnx$0::1nus1n$1::1nus:2$:2$)rn$0::1nus1n$1::1nus:2$:2$
080568f0       W?$dt:vector$::1n$FontEntry$$1n$allocator$::1n$1$:std$$:3n()_
08056960       W?$ct:vector$::1nuc1n$allocator$::1nuc:std$$:2n(uirnxucrnx$1::1nuc:2$)_
08056a20       W?push_back$:vector$::1nuc1n$allocator$::1nuc:std$$:3n(rnxuc)v
08056a60+      W?$ct:vector$::1npn$Page$$1n$allocator$::1npn$1$:std$$:3n(rnx$2::1npn$1$:3$)_
08056ad0+      W?$dt:vector$::1npn$Page$$1n$allocator$::1npn$1$:std$$:3n()_
08056b40+      W?push_back$:vector$::1npn$Page$$1n$allocator$::1npn$2$:std$$:4n(rnxpn$2$)v
08056b90+      W?$ct:vector$::1npn$Cell$$1n$allocator$::1npn$1$:std$$:3n(rnx$2::1npn$1$:3$)_
08056c00+      W?$dt:vector$::1npn$Cell$$1n$allocator$::1npn$1$:std$$:3n()_
08056c70+      W?push_back$:vector$::1npn$Cell$$1n$allocator$::1npn$2$:std$$:4n(rnxpn$2$)v
08056cc0+      W?$ct:vector$::1npn$I1$$1n$allocator$::1npn$1$:std$$:3n(rnx$2::1npn$1$:3$)_
08056d30+      W?$dt:vector$::1npn$I1$$1n$allocator$::1npn$1$:std$$:3n()_
08056da0+      W?$ct:vector$::1npn$ICmd$$1n$allocator$::1npn$1$:std$$:3n(rnx$2::1npn$1$:3$)_
08056e10+      W?$dt:vector$::1npn$ICmd$$1n$allocator$::1npn$1$:std$$:3n()_
08056e80       W?$ct:vector$::1nui1n$allocator$::1nui:std$$:2n(rnx$1::1nui:2$)_
08056ef0       W?$dt:vector$::1nui1n$allocator$::1nui:std$$:2n()_
08056f60       W?$dt:vector$::1n$RGB$:Bitmap$$1n$allocator$::1n$1:2$:std$$:4n()_
08056fd0       W?$dt:vector$::1n$BitmapBlock$$1n$allocator$::1n$1$:std$$:3n()_
08057050       W?$ct:vector$::1npn$Element$$1n$allocator$::1npn$1$:std$$:3n(rnx$2::1npn$1$:3$)_
080570c0       W?$ct:vector$::1npn$Element$$1n$allocator$::1npn$1$:std$$:3n(uirnxpn$1$rnx$2::1npn$1$:3$)_
08057180       W?$dt:vector$::1npn$Element$$1n$allocator$::1npn$1$:std$$:3n()_
080571f0       W?push_back$:vector$::1npn$Element$$1n$allocator$::1npn$2$:std$$:4n(rnxpn$2$)v
08057240       W?$ct:vector$::1npn$CtrlTag$$1n$allocator$::1npn$1$:std$$:3n(rnx$2::1npn$1$:3$)_
080572b0       W?$dt:vector$::1npn$CtrlTag$$1n$allocator$::1npn$1$:std$$:3n()_
08057320       W?push_back$:vector$::1npn$CtrlTag$$1n$allocator$::1npn$2$:std$$:4n(rnxpn$2$)v
08057370       W?$dt:vector$::1npn$IndexItem$$1n$allocator$::1npn$1$:std$$:3n()_
080573e0       W?push_back$:vector$::1npn$IndexItem$$1n$allocator$::1npn$2$:std$$:4n(rnxpn$2$)v
08057430       W?$ct:vector$::1n$basic_string$::1na1n$char_traits$::1na:std$$1n$allocator$::1na:3$:3$1n$4::1n$1::1na1n$2::1na:3$1n$4::1na:3$:3$:3$:3n(rnx$4::1n$1::1na1n$2::1na:3$1n$4::1na:3$:3$:3$)_
080574a0       W?$dt:vector$::1n$basic_string$::1na1n$char_traits$::1na:std$$1n$allocator$::1na:3$:3$1n$4::1n$1::1na1n$2::1na:3$1n$4::1na:3$:3$:3$:3n()_
08057520       W?push_back$:vector$::1n$basic_string$::1na1n$char_traits$::1na:std$$1n$allocator$::1na:4$:4$1n$5::1n$2::1na1n$3::1na:4$1n$5::1na:4$:4$:4$:4n(rnx$2::1na1n$3::1na:4$1n$5::1na:4$:4$)v
08057570       W?$dt:list$::1npn$Element$$1n$allocator$::1npn$1$:std$$:3n()_
080575d0       W?clear$:list$::1npn$Element$$1n$allocator$::1npn$2$:std$$:4n()v
08057600       W?$Wda012$:basic_string$::1nw1n$char_traits$::1nw:std$$1n$allocator$::1nw:3$:3n(ui)pnv
08057620       W?$Wda013$:basic_string$::1nw1n$char_traits$::1nw:std$$1n$allocator$::1nw:3$:3n(ui)pnv
08057640       W?uninitialized_fill_n$::1npnuc1nui1nuc:std$n(pnucuirnxuc)v
08057710       W?uninitialized_fill_n$::1npnpn$Element$$1nui1npn$1$:std$n(pnpn$1$uirnxpn$1$)v
080577e0+      W?quick_sort$::1npnpn$I1$$1n$ptrLess$::1npn$1$$:_ow$:std$n(pnpn$1$ii$2::1npn$1$$)v
080578e0+      W?quick_sort$::1npnpn$ICmd$$1n$ptrLess$::1npn$1$$:_ow$:std$n(pnpn$1$ii$2::1npn$1$$)v
080579e0       W?$ct::1npn$Element$$:allocator$::1n$Node$:list$::1npn$0$1n$1::1npn$0$:std$$:4$:4n(rnx$1::1npn$0$:4$)_
080579f0       W?$ct::1npn$Element$$:allocator$::1n$DoubleLink$:list$::1npn$0$1n$1::1npn$0$:std$$:4$:4n(rnx$1::1npn$0$:4$)_
08057a00       W?$ct:allocator$::1nus:std$n(rnx$0::1nus:1$)_
08057a10       T?rdiy$dt:allocator$::1n$Node$:RedBlackTree$::1n$basic_string$::1nw1n$char_traits$::1nw:std$$1n$0::1nw:5$:5$1n$less$::1n$3::1nw1n$4::1nw:5$1n$0::1nw:5$:5$:5$1n$0::1n$pair$::1nx$3::1nw1n$4::1nw:5$1n$0::1nw:5$:5$1nw:5$:5$1n$TreePairWrapper$::1n$3::1nw1n$4::
08057a20       W?allocate$:allocator$::1n$Node$:list$::1npn$Element$$1n$1::1npn$4$:std$$:5$:5n(uipnxv)pn$2:3::1npn$4$1n$1::1npn$4$:5$:5$
08057a30       W?deallocate$:allocator$::1n$Node$:list$::1npn$Element$$1n$1::1npn$4$:std$$:5$:5n(pn$2:3::1npn$4$1n$1::1npn$4$:5$:5$ui)v
08057a40       W?construct$:allocator$::1n$Node$:list$::1npn$Element$$1n$1::1npn$4$:std$$:5$:5n(pn$2:3::1npn$4$1n$1::1npn$4$:5$:5$rnx$2:3::1npn$4$1n$1::1npn$4$:5$:5$)v
08057a60       W?allocate$:allocator$::1n$DoubleLink$:list$::1npn$Element$$1n$1::1npn$4$:std$$:5$:5n(uipnxv)pn$2:3::1npn$4$1n$1::1npn$4$:5$:5$
08057a70+      W?$ct:basic_string$::1na1n$char_traits$::1na:std$$1n$allocator$::1na:2$:2n(pnxauirnx$3::1na:2$)_
08057b90       W?$ct:basic_string$::1nw1n$char_traits$::1nw:std$$1n$allocator$::1nw:2$:2n(pnxwuirnx$3::1nw:2$)_
08057cb0       W?$ct:basic_string$::1nw1n$char_traits$::1nw:std$$1n$allocator$::1nw:2$:2n(uiwrnx$3::1nw:2$)_
08057dc0+      W?insert_helper$:basic_string$::1nw1n$char_traits$::1nw:std$$1n$allocator$::1nw:3$:3n(pnwuiw)pnw
08057fd0       W?find$:basic_string$::1nw1n$char_traits$::1nw:std$$1n$allocator$::1nw:3$:3n.x(pnxwuiui)ui
08058060+      T?jpb6insBalTransform$:RedBlackTree$::1n$basic_string$::1nw1n$char_traits$::1nw:std$$1n$allocator$::1nw:4$:4$1n$less$::1n$2::1nw1n$3::1nw:4$1n$5::1nw:4$:4$:4$1n$5::1n$pair$::1nx$2::1nw1n$3::1nw:4$1n$5::1nw:4$:4$1nui:4$:4$1n$TreePairWrapper$::1n$2::1nw1n$3
08058260+      T?924wunbalancedInsert$:RedBlackTree$::1n$basic_string$::1nw1n$char_traits$::1nw:std$$1n$allocator$::1nw:4$:4$1n$less$::1n$2::1nw1n$3::1nw:4$1n$5::1nw:4$:4$:4$1n$5::1n$pair$::1nx$2::1nw1n$3::1nw:4$1n$5::1nw:4$:4$1nui:4$:4$1n$TreePairWrapper$::1n$2::1nw1n$
08058660+      W?insBalTransform$:RedBlackTree$::1nus1n$less$::1nus:std$$1n$allocator$::1n$pair$::1nxus1n$TocRef$$:3$:3$1n$TreePairWrapper$::1nus1n$6$:_ow$:3$:8:3n(pn$Node$:1::1nus1n$2::1nus:3$1n$4::1n$5::1nxus1n$6$:3$:3$1n$7::1nus1n$6$:8:3$:8:3$)v
08058860+      T?vhowunbalancedInsert$:RedBlackTree$::1nus1n$less$::1nus:std$$1n$allocator$::1n$pair$::1nxus1n$TocRef$$:3$:3$1n$TreePairWrapper$::1nus1n$6$:_ow$:3$:8:3n(rnx$5::1nxus1n$6$:3$)$5::1n$iterator$:1::1nus1n$2::1nus:3$1n$4::1n$5::1nxus1n$6$:3$:3$1n$7::1nus1n$6$
08058c80+      T?3gf7insBalTransform$:RedBlackTree$::1npn$GlobalDictionaryWord$$1n$ptrLess$::1npn$2$$1n$allocator$::1n$pair$::1nxpn$2$1n$TocRef$$:std$$:7$1n$TreePairWrapper$::1npn$2$1n$6$:_ow$:7$:9:7n(pn$Node$:1::1npn$2$1n$3::1npn$2$$1n$4::1n$5::1nxpn$2$1n$6$:7$:7$1n$8:
08058e80+      T?pkaounbalancedInsert$:RedBlackTree$::1npn$GlobalDictionaryWord$$1n$ptrLess$::1npn$2$$1n$allocator$::1n$pair$::1nxpn$2$1n$TocRef$$:std$$:7$1n$TreePairWrapper$::1npn$2$1n$6$:_ow$:7$:9:7n(rnx$5::1nxpn$2$1n$6$:7$)$5::1n$iterator$:1::1npn$2$1n$3::1npn$2$$1n$
080592a0+      T?huuoinsBalTransform$:RedBlackTree$::1n$basic_string$::1nw1n$char_traits$::1nw:std$$1n$allocator$::1nw:4$:4$1n$less$::1n$2::1nw1n$3::1nw:4$1n$5::1nw:4$:4$:4$1n$5::1n$pair$::1nx$2::1nw1n$3::1nw:4$1n$5::1nw:4$:4$1npn$Synonym$$:4$:4$1n$TreePairWrapper$::1n$
080594a0+      T?o19uunbalancedInsert$:RedBlackTree$::1n$basic_string$::1nw1n$char_traits$::1nw:std$$1n$allocator$::1nw:4$:4$1n$less$::1n$2::1nw1n$3::1nw:4$1n$5::1nw:4$:4$:4$1n$5::1n$pair$::1nx$2::1nw1n$3::1nw:4$1n$5::1nw:4$:4$1npn$Synonym$$:4$:4$1n$TreePairWrapper$::1n
080598a0+      T?92m8insBalTransform$:RedBlackTree$::1n$basic_string$::1nw1n$char_traits$::1nw:std$$1n$allocator$::1nw:4$:4$1n$less$::1n$2::1nw1n$3::1nw:4$1n$5::1nw:4$:4$:4$1n$5::1n$pair$::1nx$2::1nw1n$3::1nw:4$1n$5::1nw:4$:4$1n$2::1nw1n$3::1nw:4$1n$5::1nw:4$:4$:4$:4$1n
08059aa0+      T?2z8gunbalancedInsert$:RedBlackTree$::1n$basic_string$::1nw1n$char_traits$::1nw:std$$1n$allocator$::1nw:4$:4$1n$less$::1n$2::1nw1n$3::1nw:4$1n$5::1nw:4$:4$:4$1n$5::1n$pair$::1nx$2::1nw1n$3::1nw:4$1n$5::1nw:4$:4$1n$2::1nw1n$3::1nw:4$1n$5::1nw:4$:4$:4$:4$1
08059fc0+      T?idpainsBalTransform$:RedBlackTree$::1n$basic_string$::1nw1n$char_traits$::1nw:std$$1n$allocator$::1nw:4$:4$1n$less$::1n$2::1nw1n$3::1nw:4$1n$5::1nw:4$:4$:4$1n$5::1n$pair$::1nx$2::1nw1n$3::1nw:4$1n$5::1nw:4$:4$1npn$I1$$:4$:4$1n$TreePairWrapper$::1n$2::1n
0805a1c0+      T?zkozunbalancedInsert$:RedBlackTree$::1n$basic_string$::1nw1n$char_traits$::1nw:std$$1n$allocator$::1nw:4$:4$1n$less$::1n$2::1nw1n$3::1nw:4$1n$5::1nw:4$:4$:4$1n$5::1n$pair$::1nx$2::1nw1n$3::1nw:4$1n$5::1nw:4$:4$1npn$I1$$:4$:4$1n$TreePairWrapper$::1n$2::1
0805a5c0       W?reserve$:vector$::1nuc1n$allocator$::1nuc:std$$:3n(ui)v
0805a6d0+      W?alloc$:vector$::1npn$Page$$1n$allocator$::1npn$2$:std$$:4n(uirnui)pnpn$2$
0805a6f0+      W?reserve$:vector$::1npn$Page$$1n$allocator$::1npn$2$:std$$:4n(ui)v
0805a890+      W?alloc$:vector$::1npn$Cell$$1n$allocator$::1npn$2$:std$$:4n(uirnui)pnpn$2$
0805a8b0+      W?reserve$:vector$::1npn$Cell$$1n$allocator$::1npn$2$:std$$:4n(ui)v
0805aa50       W?alloc$:vector$::1npn$Element$$1n$allocator$::1npn$2$:std$$:4n(uirnui)pnpn$2$
0805aa70       W?reserve$:vector$::1npn$Element$$1n$allocator$::1npn$2$:std$$:4n(ui)v
0805ac10       W?alloc$:vector$::1npn$CtrlTag$$1n$allocator$::1npn$2$:std$$:4n(uirnui)pnpn$2$
0805ac30       W?reserve$:vector$::1npn$CtrlTag$$1n$allocator$::1npn$2$:std$$:4n(ui)v
0805add0       W?reserve$:vector$::1npn$IndexItem$$1n$allocator$::1npn$2$:std$$:4n(ui)v
0805af70       W?alloc$:vector$::1n$basic_string$::1na1n$char_traits$::1na:std$$1n$allocator$::1na:4$:4$1n$5::1n$2::1na1n$3::1na:4$1n$5::1na:4$:4$:4$:4n(uirnui)pn$2::1na1n$3::1na:4$1n$5::1na:4$:4$
0805af90       W?reserve$:vector$::1n$basic_string$::1na1n$char_traits$::1na:std$$1n$allocator$::1na:4$:4$1n$5::1n$2::1na1n$3::1na:4$1n$5::1na:4$:4$:4$:4n(ui)v
0805b140       W?uninitialized_copy$::1npnuc1npnuc:std$n(pnucpnucpnuc)pnuc
0805b210+      W?uninitialized_copy$::1npnpn$Page$$1npnpn$1$:std$n(pnpn$1$pnpn$1$pnpn$1$)pnpn$1$
0805b2f0+      W?uninitialized_copy$::1npnpn$Cell$$1npnpn$1$:std$n(pnpn$1$pnpn$1$pnpn$1$)pnpn$1$
0805b3d0       W?uninitialized_copy$::1npnpn$Element$$1npnpn$1$:std$n(pnpn$1$pnpn$1$pnpn$1$)pnpn$1$
0805b4b0       W?uninitialized_copy$::1npnpn$CtrlTag$$1npnpn$1$:std$n(pnpn$1$pnpn$1$pnpn$1$)pnpn$1$
0805b590       W?uninitialized_copy$::1npnpn$IndexItem$$1npnpn$1$:std$n(pnpn$1$pnpn$1$pnpn$1$)pnpn$1$
0805b670       T?1w8uuninitialized_copy$::1npn$basic_string$::1na1n$char_traits$::1na:std$$1n$allocator$::1na:3$:3$1npn$1::1na1n$2::1na:3$1n$4::1na:3$:3$:3n(pn$1::1na1n$2::1na:3$1n$4::1na:3$:3$pn$1::1na1n$2::1na:3$1n$4::1na:3$:3$pn$1::1na1n$2::1na:3$1n$4::1na:3$:3$)pn$1
0805b750+      W?insertion_sort$::1npnpn$I1$$1n$ptrLess$::1npn$1$$:_ow$:std$n(pnpn$1$pnpn$1$$2::1npn$1$$)v
0805b7c0+      W?insertion_sort$::1npnpn$ICmd$$1n$ptrLess$::1npn$1$$:_ow$:std$n(pnpn$1$pnpn$1$$2::1npn$1$$)v
0805b830+      W?med3$::1npnpn$I1$$1n$ptrLess$::1npn$1$$:_ow$:std$n(pnpn$1$ii$2::1npn$1$$)pnpn$1$
0805b8f0+      W?med3$::1npnpn$ICmd$$1n$ptrLess$::1npn$1$$:_ow$:std$n(pnpn$1$ii$2::1npn$1$$)pnpn$1$
0805b9b0+      T?u4kt$ct::1n$pair$::1nx$basic_string$::1nw1n$char_traits$::1nw:std$$1n$allocator$::1nw:3$:3$1nui:3$:4::1n$Node$:RedBlackTree$::1n$1::1nw1n$2::1nw:3$1n$4::1nw:3$:3$1n$less$::1n$1::1nw1n$2::1nw:3$1n$4::1nw:3$:3$:3$1n$4::1n$0::1nx$1::1nw1n$2::1nw:3$1n$4::1n
0805b9c0+      W?$ct::1n$pair$::1nxus1n$TocRef$$:std$$:allocator$::1n$Node$:RedBlackTree$::1nus1n$less$::1nus:2$1n$3::1n$0::1nxus1n$1$:2$:2$1n$TreePairWrapper$::1nus1n$1$:_ow$:2$:8:2$:2n(rnx$3::1n$0::1nxus1n$1$:2$:2$)_
0805b9d0+      W?$ct::1n$pair$::1nxpn$GlobalDictionaryWord$$1n$TocRef$$:std$$:allocator$::1n$Node$:RedBlackTree$::1npn$1$1n$ptrLess$::1npn$1$$1n$4::1n$0::1nxpn$1$1n$2$:3$:3$1n$TreePairWrapper$::1npn$1$1n$2$:_ow$:3$:9:3$:3n(rnx$4::1n$0::1nxpn$1$1n$2$:3$:3$)_
0805b9e0+      T?8cvy$ct::1n$pair$::1nx$basic_string$::1nw1n$char_traits$::1nw:std$$1n$allocator$::1nw:3$:3$1npn$Synonym$$:3$:4::1n$Node$:RedBlackTree$::1n$1::1nw1n$2::1nw:3$1n$4::1nw:3$:3$1n$less$::1n$1::1nw1n$2::1nw:3$1n$4::1nw:3$:3$:3$1n$4::1n$0::1nx$1::1nw1n$2::1nw:
0805b9f0+      T?10gh$ct::1n$pair$::1nx$basic_string$::1nw1n$char_traits$::1nw:std$$1n$allocator$::1nw:3$:3$1n$1::1nw1n$2::1nw:3$1n$4::1nw:3$:3$:3$:4::1n$Node$:RedBlackTree$::1n$1::1nw1n$2::1nw:3$1n$4::1nw:3$:3$1n$less$::1n$1::1nw1n$2::1nw:3$1n$4::1nw:3$:3$:3$1n$4::1n$0
0805ba00+      T?0k41$ct::1n$pair$::1nx$basic_string$::1nw1n$char_traits$::1nw:std$$1n$allocator$::1nw:3$:3$1npn$I1$$:3$:4::1n$Node$:RedBlackTree$::1n$1::1nw1n$2::1nw:3$1n$4::1nw:3$:3$1n$less$::1n$1::1nw1n$2::1nw:3$1n$4::1nw:3$:3$:3$1n$4::1n$0::1nx$1::1nw1n$2::1nw:3$1n$
080b0590       W?$Wvf0Bok:Element$$nx[]pn()v
080b05b0       W?$Wvf09ok:BrCmd$$nx[]pn()v
080b05d0       W?$Wvf07ok:Tag$$nx[]pn()v
080b0600+      W?$Wvf09ok:CeCmd$$nx[]pn()v
080b0630+      W?$Wvf06ok:Fn$$nx[]pn()v
080b0660       W?$Wvf06ok:Hn$$nx[]pn()v
080b0690       W?$Wcm0223$nx[]uc
080b06a0       W?$Wcm0231$nx[]uc
080b06b0       W?$Wcm0227$nx[]uc
080b06c0       W?$Wcm0240$nx[]uc
080b06d0+      W?$Wcm0244$nx[]uc
080b06e0+      W?$Wcm0248$nx[]uc
080b06f0       W?$Wcm0252$nx[]uc
080b0700+      W?$Wcm0256$nx[]uc
080b0710+      W?$Wcm0260$nx[]uc
080b0720       W?$Wcm0264$nx[]uc
080b0730       W?$Wcm0268$nx[]uc
080b0740+      W?$Wcm0272$nx[]uc
080b0750       W?$Wcm0276$nx[]uc
080b0760       W?$Wcm0280$nx[]uc
080b0770+      W?$Wcm0284$nx[]uc
080b0780       W?$Wcm0288$nx[]uc
080b0790       W?$Wcm0292$nx[]uc
080b07a0+      W?$Wcm0296$nx[]uc
080b07b0+      W?$Wcm0224$nx[]uc
080b07c0       W?$Wcm0210$nx[]uc
080b07d0       W?$Wcm019$nx[]uc
080b07e0       W?$Wcm016$nx[]uc
080b07f0+      W?$Wcm0229$nx[]uc
080b0800       W?$Wcm0237$nx[]uc
080b0810       W?$Wcm0241$nx[]uc
080b0820       W?$Wcm0228$nx[]uc
080b0830+      W?$Wcm0251$nx[]uc
080b0840       W?$Wcm0255$nx[]uc
080b0850+      W?$Wcm0259$nx[]uc
080b0860+      W?$Wcm0279$nx[]uc
080b0870+      W?$Wcm0283$nx[]uc
080b0880+      W?$Wcm0287$nx[]uc
080b0890+      W?$Wcm0212$nx[]uc
080b08a0       W?$Wcm0217$nx[]uc
080b08b0       W?$Wcm0221$nx[]uc
080b08c0       W?$Wcm0230$nx[]uc
080b08d0       W?$Wcm0234$nx[]uc
080b08e0       W?$Wcm0213$nx[]uc
080b08f0+      W?$Wcm0226$nx[]uc
080b0900+      W?$Wcm0269$nx[]uc
080b0910       W?$Wth0Gnrn$FatalError$$$nx[]uc
080b0930       W?$Wth0Hnrn$Class3Error$$$nx[]uc
080b0950       W?$Wth0Hnrn$Class1Error$$$nx[]uc
080b0970       W?$Wts09n$BrCmd$$$nx[]uc
080b0990+      W?$Wts09n$CeCmd$$$nx[]uc
080b09b0+      W?$Wts06n$Fn$$$nx[]uc
080b09d0+      W?$Wts09n$Title$$$nx[]uc
080b09f0+      W?$Wts0Bn$DocProf$$$nx[]uc
080b0a10+      W?$Wts0Bn$CtrlDef$$$nx[]uc
080b0a30       W?$Wts0Fn$Class3Error$$$nx[]uc
080b0a50       W?$Wts0Fn$Class1Error$$$nx[]uc
080b0a70+      W?$Wts26n$vector$::1n$basic_string$::1na1n$char_traits$::1na:std$$1n$allocator$::1na:3$:3$1n$4::1n$1::1na1n$2::1na:3$1n$4::1na:3$:3$:3$:3$$nx[]uc
080b0a90+      W?$Wts0An$Bitmap$$$nx[]uc
080b0ab0       W?$Wts0hn$vector$::1nuc1n$allocator$::1nuc:std$$:2$$nx[]uc
080b0ad0+      W?$Wts26n$vector$::1n$basic_string$::1nw1n$char_traits$::1nw:std$$1n$allocator$::1nw:3$:3$1n$4::1n$1::1nw1n$2::1nw:3$1n$4::1nw:3$:3$:3$:3$$nx[]uc
080b0af0       W?$Wts18n$basic_string$::1nw1n$char_traits$::1nw:std$$1n$allocator$::1nw:2$:2$$nx[]uc
08100abe       W?$Wti0N$allocator$::1nus:std$$$n[]uc
08100ada       W?$Wti17$basic_string$::1nw1n$char_traits$::1nw:std$$1n$allocator$::1nw:2$:2$$n[]uc
08100b24+      W?$Wti25$vector$::1n$basic_string$::1nw1n$char_traits$::1nw:std$$1n$allocator$::1nw:3$:3$1n$4::1n$1::1nw1n$2::1nw:3$1n$4::1nw:3$:3$:3$:3$$n[]uc
08100baa       W?$Wti0g$vector$::1nuc1n$allocator$::1nuc:std$$:2$$n[]uc
08100bd9+      W?$Wti09$Bitmap$$$n[]uc
08100be7+      W?$Wti25$vector$::1n$basic_string$::1na1n$char_traits$::1na:std$$1n$allocator$::1na:3$:3$1n$4::1n$1::1na1n$2::1na:3$1n$4::1na:3$:3$:3$:3$$n[]uc
08100c6d       W?$Wti0E$Class1Error$$$n[]uc
08100c80       W?$Wti0E$Class3Error$$$n[]uc
08100c93+      W?$Wti0A$CtrlDef$$$n[]uc
08100ca2+      W?$Wti0A$DocProf$$$n[]uc
08100cb1+      W?$Wti08$Title$$$n[]uc
08100cbe+      W?$Wti05$Fn$$$n[]uc
08100cc8+      W?$Wti08$CeCmd$$$n[]uc
08100cd5       W?$Wti08$BrCmd$$$n[]uc
0805ba10       W?alloc$:vector$::1npn$IndexItem$$1n$allocator$::1npn$2$:std$$:4n(uirnui)pnpn$2$
080541e0       W?getGroupById$:Document$n(rnx$basic_string$::1nw1n$char_traits$::1nw:std$$1n$allocator$::1nw:4$:4$)us
080b0b10       W?$Wts0On$allocator$::1nus:std$$$nx[]uc
Module: env.obj(/mnt/sda5/.user/root/src/openwatcom-1.9/bld/wipfc/cpp/env.cpp)
0805ba30       W?add$:Env$n(rnx$basic_string$::1na1n$char_traits$::1na:std$$1n$allocator$::1na:4$:4$)v
0805bbd0+      W?killQuotes$:Env$n(rn$basic_string$::1na1n$char_traits$::1na:std$$1n$allocator$::1na:4$:4$)v
Module: ipfbuff.obj(/mnt/sda5/.user/root/src/openwatcom-1.9/bld/wipfc/cpp/ipfbuff.cpp)
0805be00       W?$dt:IpfData$n()_
0805be10+      W?$dt:IpfBuffer$n()_
0805beb0+      W?name$:IpfBuffer$n.x()pnx$basic_string$::1nw1n$char_traits$::1nw:std$$1n$allocator$::1nw:4$:4$
0805bec0+      W?reset$:IpfBuffer$n()v
0805bed0+      W?setPos$:IpfBuffer$n(l)v
0805bef0+      W?pos$:IpfBuffer$n()l
0805bc40       W?$ct:IpfBuffer$n(pnx$basic_string$::1nw1n$char_traits$::1nw:std$$1n$allocator$::1nw:3$:3$uiuirnx$1::1nw1n$2::1nw:3$1n$4::1nw:3$:3$)_
0805bcd0*      W?$ct:IpfBuffer$n(pnx$basic_string$::1nw1n$char_traits$::1nw:std$$1n$allocator$::1nw:3$:3$rnx$1::1nw1n$2::1nw:3$1n$4::1nw:3$:3$)_
080b12c0       W?$Wvf0Bo8:IpfData$$nx[]pn()v
080b12e0+      W?$Wvf0Do8:IpfBuffer$$nx[]pn()v
0805bd70+      W?get$:IpfBuffer$n()w
0805bdc0+      W?unget$:IpfBuffer$n(w)v
080b1300+      W?$Wts0Dn$IpfBuffer$$$nx[]uc
08100ce2+      W?$Wti0C$IpfBuffer$$$n[]uc
Module: ipffile.obj(/mnt/sda5/.user/root/src/openwatcom-1.9/bld/wipfc/cpp/ipffile.cpp)
0805c150+      W?$dt:IpfFile$n()_
0805c1f0+      W?name$:IpfFile$n.x()pnx$basic_string$::1nw1n$char_traits$::1nw:std$$1n$allocator$::1nw:4$:4$
0805c200+      W?reset$:IpfFile$n()v
0805c210+      W?setPos$:IpfFile$n(l)v
0805c220+      W?pos$:IpfFile$n()l
080b1440+      W?$Wvf0Bo8:IpfFile$$nx[]pn()v
080b1460+      W?$Wts0Bn$IpfFile$$$nx[]uc
0805bf00       W?$ct:IpfFile$n(pnx$basic_string$::1nw1n$char_traits$::1nw:std$$1n$allocator$::1nw:3$:3$)_
0805c030+      W?get$:IpfFile$n()w
0805c130+      W?unget$:IpfFile$n(w)v
08100cf3+      W?$Wti0A$IpfFile$$$n[]uc
Module: lexer.obj(/mnt/sda5/.user/root/src/openwatcom-1.9/bld/wipfc/cpp/lexer.cpp)
0805f660+      T?12sp$dt:Node$:RedBlackTree$::1n$basic_string$::1nw1n$char_traits$::1nw:std$$1n$allocator$::1nw:4$:4$1n$less$::1n$2::1nw1n$3::1nw:4$1n$5::1nw:4$:4$:4$1n$5::1n$pair$::1nx$2::1nw1n$3::1nw:4$1n$5::1nw:4$:4$1n$TagId$:Lexer$$:4$:4$1n$TreePairWrapper$::1n$2::1
0805f670+      W?$dt:pair$::1nx$basic_string$::1nw1n$char_traits$::1nw:std$$1n$allocator$::1nw:3$:3$1n$TagId$:Lexer$$:3n()_
0805f680+      W?$dt:allocator$::1n$pair$::1nx$basic_string$::1nw1n$char_traits$::1nw:std$$1n$0::1nw:4$:4$1n$TagId$:Lexer$$:4$:4n()_
0805f690+      T?h93dfind$:RedBlackTree$::1n$basic_string$::1nw1n$char_traits$::1nw:std$$1n$allocator$::1nw:4$:4$1n$less$::1n$2::1nw1n$3::1nw:4$1n$5::1nw:4$:4$:4$1n$5::1n$pair$::1nx$2::1nw1n$3::1nw:4$1n$5::1nw:4$:4$1n$TagId$:Lexer$$:4$:4$1n$TreePairWrapper$::1n$2::1nw1n
0805f6f0+      T?6rtiinsert$:RedBlackTree$::1n$basic_string$::1nw1n$char_traits$::1nw:std$$1n$allocator$::1nw:4$:4$1n$less$::1n$2::1nw1n$3::1nw:4$1n$5::1nw:4$:4$:4$1n$5::1n$pair$::1nx$2::1nw1n$3::1nw:4$1n$5::1nw:4$:4$1n$TagId$:Lexer$$:4$:4$1n$TreePairWrapper$::1n$2::1nw
0805f720+      T?vpxk$dt:map$::1n$basic_string$::1nw1n$char_traits$::1nw:std$$1n$allocator$::1nw:3$:3$1n$TagId$:Lexer$$1n$less$::1n$1::1nw1n$2::1nw:3$1n$4::1nw:3$:3$:3$1n$4::1n$pair$::1nx$1::1nw1n$2::1nw:3$1n$4::1nw:3$:3$1n$5:6$:3$:3$1n$RedBlackTree$::1n$1::1nw1n$2::1nw
0805f730+      T?h1dz$ct:map$::1n$basic_string$::1nw1n$char_traits$::1nw:std$$1n$allocator$::1nw:3$:3$1n$TagId$:Lexer$$1n$less$::1n$1::1nw1n$2::1nw:3$1n$4::1nw:3$:3$:3$1n$4::1n$pair$::1nx$1::1nw1n$2::1nw:3$1n$4::1nw:3$:3$1n$5:6$:3$:3$1n$RedBlackTree$::1n$1::1nw1n$2::1nw
0805f7a0       W?reserve$:basic_string$::1nw1n$char_traits$::1nw:std$$1n$allocator$::1nw:3$:3n(ui)v
0805f800       W?erase$:basic_string$::1nw1n$char_traits$::1nw:std$$1n$allocator$::1nw:3$:3n(uiui)rn$1::1nw1n$2::1nw:3$1n$4::1nw:3$:3$
0805f900+      T?c7sfinsBalTransform$:RedBlackTree$::1n$basic_string$::1nw1n$char_traits$::1nw:std$$1n$allocator$::1nw:4$:4$1n$less$::1n$2::1nw1n$3::1nw:4$1n$5::1nw:4$:4$:4$1n$5::1n$pair$::1nx$2::1nw1n$3::1nw:4$1n$5::1nw:4$:4$1n$TagId$:Lexer$$:4$:4$1n$TreePairWrapper$::
0805fb00+      T?7h9qunbalancedInsert$:RedBlackTree$::1n$basic_string$::1nw1n$char_traits$::1nw:std$$1n$allocator$::1nw:4$:4$1n$less$::1n$2::1nw1n$3::1nw:4$1n$5::1nw:4$:4$:4$1n$5::1n$pair$::1nx$2::1nw1n$3::1nw:4$1n$5::1nw:4$:4$1n$TagId$:Lexer$$:4$:4$1n$TreePairWrapper$:
0805ff00+      T?g2pc$ct::1n$pair$::1nx$basic_string$::1nw1n$char_traits$::1nw:std$$1n$allocator$::1nw:3$:3$1n$TagId$:Lexer$$:3$:4::1n$Node$:RedBlackTree$::1n$1::1nw1n$2::1nw:3$1n$4::1nw:3$:3$1n$less$::1n$1::1nw1n$2::1nw:3$1n$4::1nw:3$:3$:3$1n$4::1n$0::1nx$1::1nw1n$2::1
0805c240       W?$ct:Lexer$n()_
0805ebb0       W?lex$:Lexer$n(pn$IpfData$$)$Token$:1$
0805efe0+      W?getTagId$:Lexer$n()v
0805f020+      W?getCmdId$:Lexer$n()v
Module: bitmap.obj(/mnt/sda5/.user/root/src/openwatcom-1.9/bld/wipfc/cpp/bitmap.cpp)
0805ff10       W?$ct:Bitmap$n(rn$basic_string$::1na1n$char_traits$::1na:std$$1n$allocator$::1na:3$:3$)_
08060130       W?write$:Bitmap$n.x(pn$__iobuf$$)ui
08060220+      W?read$:BitmapFileHeader$:Bitmap$n(pn$__iobuf$$)v
08060260+      W?write$:BitmapFileHeader$:Bitmap$n.x(pn$__iobuf$$)v
080602a0+      W?read$:BitmapInfoHeader16$:Bitmap$n(pn$__iobuf$$)v
080602e0+      W?write$:BitmapInfoHeader16$:Bitmap$n.x(pn$__iobuf$$)v
08060320+      W?read$:BitmapInfoHeaderWin32$n(pn$__iobuf$$)v
08060360+      W?read$:BitmapInfoHeaderOS22x$n(pn$__iobuf$$)v
080603a0*      W?read$:RGB$:Bitmap$n(pn$__iobuf$$)v
080603e0*      W?write$:RGB$:Bitmap$n.x(pn$__iobuf$$)v
08060420+      W?read$:RGBA$:Bitmap$n(pn$__iobuf$$)v
08060460+      W?readHeader16$:Bitmap$n(pn$__iobuf$$)v
080608f0+      W?$dt:BitmapBlock$n()_
08060900+      W?$ct:vector$::1n$RGB$:Bitmap$$1n$allocator$::1n$1:2$:std$$:4n(rnx$3::1n$1:2$:4$)_
08060970+      W?resize$:vector$::1n$RGB$:Bitmap$$1n$allocator$::1n$2:3$:std$$:5n(ui$2:3$)v
080609c0+      W?reserve$:vector$::1n$RGB$:Bitmap$$1n$allocator$::1n$2:3$:std$$:5n(ui)v
08060b60+      W?push_back$:vector$::1n$RGB$:Bitmap$$1n$allocator$::1n$2:3$:std$$:5n(rnx$2:3$)v
08060bb0+      W?insert$:vector$::1n$RGB$:Bitmap$$1n$allocator$::1n$2:3$:std$$:5n(pn$2:3$uirnx$2:3$)v
08060eb0+      W?erase$:vector$::1n$RGB$:Bitmap$$1n$allocator$::1n$2:3$:std$$:5n(pn$2:3$pn$2:3$)pn$2:3$
08060f20+      W?$ct:vector$::1n$BitmapBlock$$1n$allocator$::1n$1$:std$$:3n(rnx$2::1n$1$:3$)_
08060f90+      W?push_back$:vector$::1n$BitmapBlock$$1n$allocator$::1n$2$:std$$:4n(rnx$2$)v
08061010+      W?uninitialized_fill_n$::1npn$RGB$:Bitmap$$1nui1n$1:2$:std$n(pn$1:2$uirnx$1:2$)v
080610f0+      W?uninitialized_copy$::1npn$RGB$:Bitmap$$1npn$1:2$:std$n(pn$1:2$pn$1:2$pn$1:2$)pn$1:2$
080611d0       W?$ct:vector$::1nuc1n$allocator$::1nuc:std$$:2n(rnx$0::1nuc1n$1::1nuc:2$:2$)_
080612a0+      W?alloc$:vector$::1n$RGB$:Bitmap$$1n$allocator$::1n$2:3$:std$$:5n(uirnui)pn$2:3$
080612c0+      W?alloc$:vector$::1n$BitmapBlock$$1n$allocator$::1n$2$:std$$:4n(uirnui)pn$2$
080612e0+      W?reserve$:vector$::1n$BitmapBlock$$1n$allocator$::1n$2$:std$$:4n(ui)v
08061490+      W?uninitialized_copy$::1npn$BitmapBlock$$1npn$1$:std$n(pn$1$pn$1$pn$1$)pn$1$
080604e0+      W?readHeaderW32$:Bitmap$n(pn$__iobuf$$)v
080605d0+      W?readHeaderOS2$:Bitmap$n(pn$__iobuf$$)v
08060740+      W?findBlockSize$:Bitmap$n(uiuiui)v
08060800+      W?compress$:Bitmap$n(pn$__iobuf$$)v
Module: btmpblk.obj(/mnt/sda5/.user/root/src/openwatcom-1.9/bld/wipfc/cpp/btmpblk.cpp)
080615c0       W?$ct:BitmapBlock$n(usuc)_
08061650       W?write$:BitmapBlock$n.x(pn$__iobuf$$)v
080616f0       W?compress$:BitmapBlock$n(pn$__iobuf$$)ui
08061a90+      W?findMatch$:BitmapBlock$n.x(rn$vector$::1nus1n$allocator$::1nus:std$$:4$rn$2::1nus1n$3::1nus:4$:4$rn$2::1nuc1n$3::1nuc:4$:4$sus)s
08061bd0+      W?fill$::1npnus1n$lzwCodes$:BitmapBlock$$:std$n(pnuspnusrnx$1:2$)v
08061bf0       W?resize$:vector$::1nuc1n$allocator$::1nuc:std$$:3n(uiuc)v
08061c30       W?insert$:vector$::1nuc1n$allocator$::1nuc:std$$:3n(pnucuirnxuc)v
08061ec0       W?erase$:vector$::1nuc1n$allocator$::1nuc:std$$:3n(pnucpnuc)pnuc
08061f00+      W?$ct:vector$::1nus1n$allocator$::1nus:std$$:2n(uirnxusrnx$1::1nus:2$)_
08061fc0+      W?uninitialized_fill_n$::1npnus1nui1nus:std$n(pnusuirnxus)v
080b3070       W?$Wts0hn$vector$::1nus1n$allocator$::1nus:std$$:2$$nx[]uc
08100d02       W?$Wti0g$vector$::1nus1n$allocator$::1nus:std$$:2$$n[]uc
08061b10+      W?outputCode$:BitmapBlock$n(us)us
08061b70+      W?flushCode$:BitmapBlock$n()us
Module: cecmd.obj(/mnt/sda5/.user/root/src/openwatcom-1.9/bld/wipfc/cpp/cecmd.cpp)
080629f0       W?$dt:Text$n()_
08062a00       W?$dt:Entity$n()_
08062aa0       W?$dt:Punctuation$n()_
08062b40       W?$dt:WhiteSpace$n()_
08062be0       W?$dt:Word$n()_
08062d80       W?assign$:basic_string$::1nw1n$char_traits$::1nw:std$$1n$allocator$::1nw:3$:3n(pnxw)rn$1::1nw1n$2::1nw:3$1n$4::1nw:3$:3$
08062db0       W?swap$:basic_string$::1nw1n$char_traits$::1nw:std$$1n$allocator$::1nw:3$:3n(rn$1::1nw1n$2::1nw:3$1n$4::1nw:3$:3$)v
08062de0       W?$ct:allocator$::1nw:std$n(rnx$0::1nw:1$)_
080b46a0       W?$Wvf08ok:Text$$nx[]pn()v
080b46c0       W?$Wvf0Aok:Entity$$nx[]pn()v
080b46e0       W?$Wvf0Fok:Punctuation$$nx[]pn()v
080b4700       W?$Wvf0Eok:WhiteSpace$$nx[]pn()v
080b4720       W?$Wvf08ok:Word$$nx[]pn()v
080b4740       W?$Wts0An$Entity$$$nx[]uc
080b4760       W?$Wts0Fn$Punctuation$$$nx[]uc
080b4780       W?$Wts0En$WhiteSpace$$$nx[]uc
080b47a0       W?$Wts08n$Word$$$nx[]uc
08100d31       W?$Wti0M$allocator$::1nw:std$$$n[]uc
08100d4c       W?$Wti07$Word$$$n[]uc
08100d58       W?$Wti0D$WhiteSpace$$$n[]uc
08100d6a       W?$Wti0E$Punctuation$$$n[]uc
08100d7d       W?$Wti09$Entity$$$n[]uc
08062090       W?parse$:CeCmd$n(pn$Lexer$$)$Token$:2$
08062980       W?buildText$:CeCmd$n(pn$Cell$$)v
080629c0+      W?prepBufferName$:CeCmd$n(pn$basic_string$::1nw1n$char_traits$::1nw:std$$1n$allocator$::1nw:4$:4$rnx$2::1nw1n$3::1nw:4$1n$5::1nw:4$:4$)v
080b47c0       W?$Wts0Nn$allocator$::1nw:std$$$nx[]uc
Module: cell.obj(/mnt/sda5/.user/root/src/openwatcom-1.9/bld/wipfc/cpp/cell.cpp)
080630d0+      W?find$::1npnus1nus:std$n(pnuspnusrnxus)pnus
080630f0+      W?find_if$::1npnus1n$binder2nd$::1n$greater$::1nus:std$$:3$:3n(pnuspnus$1::1n$2::1nus:3$:3$)pnus
08063120+      W?insert$:vector$::1nus1n$allocator$::1nus:std$$:3n(pnusrnxus)pnus
080633b0+      W?$ct:binary_function$::1nus1nus1nq:std$n(rnx$0::1nus1nus1nq:1$)_
080633c0+      W?$ct:random_access_iterator_tag$:std$n()_
080633d0+      W?advance$::1npnus1ni:std$n(rnpnusi$random_access_iterator_tag$:1$)v
08062df0       W?build$:Cell$n()v
08062e50       W?addWord$:Cell$n(us)v
08062f70       W?addText$:Cell$n(us)v
08062fb0       W?addEsc$:Cell$n(rnx$vector$::1nuc1n$allocator$::1nuc:std$$:4$)v
08062ff0       W?write$:Cell$n.x(pn$__iobuf$$)ui
Module: ctrlbtn.obj(/mnt/sda5/.user/root/src/openwatcom-1.9/bld/wipfc/cpp/ctrlbtn.cpp)
080633e0       W?write$:ControlButton$n.x(pn$__iobuf$$)ui
Module: ctrlgrp.obj(/mnt/sda5/.user/root/src/openwatcom-1.9/bld/wipfc/cpp/ctrlgrp.cpp)
08063550       W?write$:ControlGroup$n.x(pn$__iobuf$$)ui
Module: controls.obj(/mnt/sda5/.user/root/src/openwatcom-1.9/bld/wipfc/cpp/controls.cpp)
080635e0       W?write$:Controls$n(pn$__iobuf$$)ui
08063710       W?getButtonById$:Controls$n(rnx$basic_string$::1nw1n$char_traits$::1nw:std$$1n$allocator$::1nw:4$:4$)pn$ControlButton$$
08063750       W?getGroupById$:Controls$n(rnx$basic_string$::1nw1n$char_traits$::1nw:std$$1n$allocator$::1nw:4$:4$)pn$ControlGroup$$
Module: errors.obj(/mnt/sda5/.user/root/src/openwatcom-1.9/bld/wipfc/cpp/errors.cpp)
08100d8c       W?ErrText$n[]pnxa
Module: extfiles.obj(/mnt/sda5/.user/root/src/openwatcom-1.9/bld/wipfc/cpp/extfiles.cpp)
080639e0+      T?8gerfind$:RedBlackTree$::1n$basic_string$::1nw1n$char_traits$::1nw:std$$1n$allocator$::1nw:4$:4$1n$less$::1n$2::1nw1n$3::1nw:4$1n$5::1nw:4$:4$:4$1n$5::1n$pair$::1nx$2::1nw1n$3::1nw:4$1n$5::1nw:4$:4$1nus:4$:4$1n$TreePairWrapper$::1n$2::1nw1n$3::1nw:4$1n$
080637a0       W?addFile$:ExternalFiles$n(rn$basic_string$::1nw1n$char_traits$::1nw:std$$1n$allocator$::1nw:4$:4$)v
08063860       W?convert$:ExternalFiles$n()v
08063890       W?write$:ExternalFiles$n(pn$__iobuf$$)ui
Module: fnt.obj(/mnt/sda5/.user/root/src/openwatcom-1.9/bld/wipfc/cpp/fnt.cpp)
08063a40       W?write$:FontEntry$n.x(pn$__iobuf$$)ui
Module: fntcol.obj(/mnt/sda5/.user/root/src/openwatcom-1.9/bld/wipfc/cpp/fntcol.cpp)
08063c50       W?$ct:Class2Error$n(rnx$0$)_
08063c60       W?$dt:Class2Error$n()_
08063c70+      W?$ct:vector$::1n$FontEntry$$1n$allocator$::1n$1$:std$$:3n(rnx$2::1n$1$:3$)_
08063ce0+      W?reserve$:vector$::1n$FontEntry$$1n$allocator$::1n$2$:std$$:4n(ui)v
08063e80+      W?push_back$:vector$::1n$FontEntry$$1n$allocator$::1n$2$:std$$:4n(rnx$2$)v
08063ef0+      W?uninitialized_copy$::1npn$FontEntry$$1npn$1$:std$n(pn$1$pn$1$pn$1$)pn$1$
080b6310       W?$Wth0Hnrn$Class2Error$$$nx[]uc
080b6330       W?$Wts0Fn$Class2Error$$$nx[]uc
08100ea8       W?$Wti0E$Class2Error$$$n[]uc
08063ff0+      W?alloc$:vector$::1n$FontEntry$$1n$allocator$::1n$2$:std$$:4n(uirnui)pn$2$
08063a90       W?$ct:FontCollection$n(i)_
08063b40       W?add$:FontCollection$n(rn$FontEntry$$)ui
08063be0       W?write$:FontCollection$n(pn$__iobuf$$)ui
Module: fts.obj(/mnt/sda5/.user/root/src/openwatcom-1.9/bld/wipfc/cpp/fts.cpp)
08064d50+      W?$aa:vector$::1nuc1n$allocator$::1nuc:std$$:2n(rnx$0::1nuc1n$1::1nuc:2$:2$)rn$0::1nuc1n$1::1nuc:2$:2$
08064e50+      W?clear$:vector$::1nuc1n$allocator$::1nuc:std$$:3n()v
08064e70+      W?$ct:allocator$::1nuc:std$n(rnx$0::1nuc:1$)_
08100ebb+      W?$Wti0N$allocator$::1nuc:std$$$n[]uc
08064010       W?setPages$:FTSElement$n(ui)v
08064030       W?onPage$:FTSElement$n(ui)v
08064070       W?build$:FTSElement$n()v
08064210+      W?encode$:FTSElement$n(rn$vector$::1nuc1n$allocator$::1nuc:std$$:4$)v
08064520       W?write$:FTSElement$n.x(pn$__iobuf$$q)ui
080b6920+      W?$Wts0On$allocator$::1nuc:std$$$nx[]uc
Module: gdword.obj(/mnt/sda5/.user/root/src/openwatcom-1.9/bld/wipfc/cpp/gdword.cpp)
08064e80       W?toUpper$:GlobalDictionaryWord$n()v
08064ec0       W?writeWord$:GlobalDictionaryWord$n.x(pn$__iobuf$$)ui
08064f90       W?$rc:GlobalDictionaryWord$n.x(rnx$0$)q
08065000+      W?wstricmp$:GlobalDictionaryWord$n.x(pnxwpnxw)i
Module: gdict.obj(/mnt/sda5/.user/root/src/openwatcom-1.9/bld/wipfc/cpp/gdict.cpp)
080655b0+      W?$ct:GlobalDictionaryWord$n()_
08065060       W?$dt:GlobalDictionary$n()_
08065140       W?insert$:GlobalDictionary$n(pn$GlobalDictionaryWord$$)pn$2$
080651f0*      W?insert$:GlobalDictionary$n(rn$basic_string$::1nw1n$char_traits$::1nw:std$$1n$allocator$::1nw:4$:4$)pn$GlobalDictionaryWord$$
080652a0       W?convert$:GlobalDictionary$n(ui)v
080652e0*      W?findIndex$:GlobalDictionary$n(rn$basic_string$::1nw1n$char_traits$::1nw:std$$1n$allocator$::1nw:4$:4$)us
080653d0*      W?findWord$:GlobalDictionary$n(rn$basic_string$::1nw1n$char_traits$::1nw:std$$1n$allocator$::1nw:4$:4$)pn$GlobalDictionaryWord$$
08065650+      W?$dt:GlobalDictionaryWord$n()_
080656c0       W?$dt:FTSElement$n()_
080656d0+      W?insert$:RedBlackTree$::1npn$GlobalDictionaryWord$$1n$ptrLess$::1npn$2$$1n$allocator$::1npn$2$:std$$1n$TreeKeyWrapper$::1npn$2$:_ow$:5$:7:5n(rnxpn$2$)$pair$::1n$iterator$:1::1npn$2$1n$3::1npn$2$$1n$4::1npn$2$:5$1n$6::1npn$2$:7:5$:7:5$1nq:5$
08065700+      W?$dt:set$::1npn$GlobalDictionaryWord$$1n$ptrLess$::1npn$1$$1n$allocator$::1npn$1$:std$$1n$RedBlackTree$::1npn$1$1n$2::1npn$1$$1n$3::1npn$1$:4$1n$TreeKeyWrapper$::1npn$1$:_ow$:4$:7:4$:4n()_
08065710+      W?insBalTransform$:RedBlackTree$::1npn$GlobalDictionaryWord$$1n$ptrLess$::1npn$2$$1n$allocator$::1npn$2$:std$$1n$TreeKeyWrapper$::1npn$2$:_ow$:5$:7:5n(pn$Node$:1::1npn$2$1n$3::1npn$2$$1n$4::1npn$2$:5$1n$6::1npn$2$:7:5$:7:5$)v
08065910+      W?unbalancedInsert$:RedBlackTree$::1npn$GlobalDictionaryWord$$1n$ptrLess$::1npn$2$$1n$allocator$::1npn$2$:std$$1n$TreeKeyWrapper$::1npn$2$:_ow$:5$:7:5n(rnxpn$2$)$pair$::1n$iterator$:1::1npn$2$1n$3::1npn$2$$1n$4::1npn$2$:5$1n$6::1npn$2$:7:5$:7:5$1nq:5$
080654c0       W?write$:GlobalDictionary$n(pn$__iobuf$$)ui
08065510       W?buildFTS$:GlobalDictionary$n()q
08065550       W?writeFTS$:GlobalDictionary$n(pn$__iobuf$$q)ui
080b6fa0+      W?$Wts0On$GlobalDictionaryWord$$$nx[]uc
08100ed7+      W?$Wti0N$GlobalDictionaryWord$$$n[]uc
Module: gnames.obj(/mnt/sda5/.user/root/src/openwatcom-1.9/bld/wipfc/cpp/gnames.cpp)
08065d70+      T?h1mpfind$:RedBlackTree$::1npn$GlobalDictionaryWord$$1n$ptrLess$::1npn$2$$1n$allocator$::1n$pair$::1nxpn$2$1nus:std$$:6$1n$TreePairWrapper$::1npn$2$1nus:_ow$:6$:8:6n(rnxpn$2$)$iterator$:1::1npn$2$1n$3::1npn$2$$1n$4::1n$5::1nxpn$2$1nus:6$:6$1n$7::1npn$2$1
08065dd0+      T?imluinsert$:RedBlackTree$::1npn$GlobalDictionaryWord$$1n$ptrLess$::1npn$2$$1n$allocator$::1n$pair$::1nxpn$2$1nus:std$$:6$1n$TreePairWrapper$::1npn$2$1nus:_ow$:6$:8:6n(rnx$5::1nxpn$2$1nus:6$)$5::1n$iterator$:1::1npn$2$1n$3::1npn$2$$1n$4::1n$5::1nxpn$2$1n
08065e00+      T?d5spinsBalTransform$:RedBlackTree$::1npn$GlobalDictionaryWord$$1n$ptrLess$::1npn$2$$1n$allocator$::1n$pair$::1nxpn$2$1nus:std$$:6$1n$TreePairWrapper$::1npn$2$1nus:_ow$:6$:8:6n(pn$Node$:1::1npn$2$1n$3::1npn$2$$1n$4::1n$5::1nxpn$2$1nus:6$:6$1n$7::1npn$2$1
08066000+      T?gctyunbalancedInsert$:RedBlackTree$::1npn$GlobalDictionaryWord$$1n$ptrLess$::1npn$2$$1n$allocator$::1n$pair$::1nxpn$2$1nus:std$$:6$1n$TreePairWrapper$::1npn$2$1nus:_ow$:6$:8:6n(rnx$5::1nxpn$2$1nus:6$)$5::1n$iterator$:1::1npn$2$1n$3::1npn$2$$1n$4::1n$5::
08065c00       W?insert$:GNames$n(pn$GlobalDictionaryWord$$us)v
08065c60       W?write$:GNames$n.x(pn$__iobuf$$)ui
Module: header.obj(/mnt/sda5/.user/root/src/openwatcom-1.9/bld/wipfc/cpp/header.cpp)
08066370       W?$ct:IpfHeader$n()_
080663a0       W?write$:IpfHeader$n.x(pn$__iobuf$$)v
080663f0       W?write$:IpfExtHeader$n.x(pn$__iobuf$$)ui
Module: index.obj(/mnt/sda5/.user/root/src/openwatcom-1.9/bld/wipfc/cpp/index.cpp)
08066440       W?$ct:IndexItem$n($Type$:0$)_
08066500*      W?$ra:IndexItem$n.x(rnx$0$)q
080665b0*      W?$ra:IndexItem$n.x(rnx$basic_string$::1nw1n$char_traits$::1nw:std$$1n$allocator$::1nw:3$:3$)q
08066600       W?$rc:IndexItem$n.x(rnx$0$)q
080666b0+      W?wstricmp$:IndexItem$n.x(pnxwpnxw)i
08066710       W?write$:IndexItem$n(pn$__iobuf$$)ui
Module: nls.obj(/mnt/sda5/.user/root/src/openwatcom-1.9/bld/wipfc/cpp/nls.cpp)
08066960       W?$ct:Nls$n(pnxa)_
08066b70+      W?setCodePage$:Nls$n(i)v
08066d70+      W?readEntityFile$:Nls$n(pn$__iobuf$$)v
08066f30+      W?setLocalization$:Nls$n(pnxa)v
080670d0+      W?readNLS$:Nls$n(pn$__iobuf$$)v
08067900+      W?processGrammer$:Nls$n(pnw)v
08067ad0       W?entity$:Nls$n(rnx$basic_string$::1nw1n$char_traits$::1nw:std$$1n$allocator$::1nw:4$:4$)w
08067b10       W?write$:Nls$n(pn$__iobuf$$)ui
08067b90+      W?write$:CountryDef$:Nls$n.x(pn$__iobuf$$)ui
08067be0+      W?setDefaultBits$:SbcsGrammerDef$:Nls$n($NlsRecType$:2$)v
08067fc0+      T?v68m$dt:Node$:RedBlackTree$::1n$basic_string$::1nw1n$char_traits$::1nw:std$$1n$allocator$::1nw:4$:4$1n$less$::1n$2::1nw1n$3::1nw:4$1n$5::1nw:4$:4$:4$1n$5::1n$pair$::1nx$2::1nw1n$3::1nw:4$1n$5::1nw:4$:4$1nw:4$:4$1n$TreePairWrapper$::1n$2::1nw1n$3::1nw:4$
08067fd0+      W?$dt:pair$::1nx$basic_string$::1nw1n$char_traits$::1nw:std$$1n$allocator$::1nw:3$:3$1nw:3n()_
08067fe0+      W?$dt:DbcsGrammerDef$:Nls$n()_
08067ff0+      W?$dt:allocator$::1n$pair$::1nx$basic_string$::1nw1n$char_traits$::1nw:std$$1n$0::1nw:4$:4$1nw:4$:4n()_
08068000+      T?d3siinsert$:RedBlackTree$::1n$basic_string$::1nw1n$char_traits$::1nw:std$$1n$allocator$::1nw:4$:4$1n$less$::1n$2::1nw1n$3::1nw:4$1n$5::1nw:4$:4$:4$1n$5::1n$pair$::1nx$2::1nw1n$3::1nw:4$1n$5::1nw:4$:4$1nw:4$:4$1n$TreePairWrapper$::1n$2::1nw1n$3::1nw:4$1n
08068030+      T?wq1l$ct:map$::1n$basic_string$::1nw1n$char_traits$::1nw:std$$1n$allocator$::1nw:3$:3$1nw1n$less$::1n$1::1nw1n$2::1nw:3$1n$4::1nw:3$:3$:3$1n$4::1n$pair$::1nx$1::1nw1n$2::1nw:3$1n$4::1nw:3$:3$1nw:3$:3$1n$RedBlackTree$::1n$1::1nw1n$2::1nw:3$1n$4::1nw:3$:3$
080680a0+      T?o0gyinsBalTransform$:RedBlackTree$::1n$basic_string$::1nw1n$char_traits$::1nw:std$$1n$allocator$::1nw:4$:4$1n$less$::1n$2::1nw1n$3::1nw:4$1n$5::1nw:4$:4$:4$1n$5::1n$pair$::1nx$2::1nw1n$3::1nw:4$1n$5::1nw:4$:4$1nw:4$:4$1n$TreePairWrapper$::1n$2::1nw1n$3:
080682a0+      T?un8junbalancedInsert$:RedBlackTree$::1n$basic_string$::1nw1n$char_traits$::1nw:std$$1n$allocator$::1nw:4$:4$1n$less$::1n$2::1nw1n$3::1nw:4$1n$5::1nw:4$:4$:4$1n$5::1n$pair$::1nx$2::1nw1n$3::1nw:4$1n$5::1nw:4$:4$1nw:4$:4$1n$TreePairWrapper$::1n$2::1nw1n$3
080686b0+      T?h97l$ct::1n$pair$::1nx$basic_string$::1nw1n$char_traits$::1nw:std$$1n$allocator$::1nw:3$:3$1nw:3$:4::1n$Node$:RedBlackTree$::1n$1::1nw1n$2::1nw:3$1n$4::1nw:3$:3$1n$less$::1n$1::1nw1n$2::1nw:3$1n$4::1nw:3$:3$:3$1n$4::1n$0::1nx$1::1nw1n$2::1nw:3$1n$4::1nw
080b8620+      W?$Wcm0235$nx[]uc
080b8630+      W?$Wcm0239$nx[]uc
080686c0       W?.tdctor$:basic_string$::1nw1n$char_traits$::1nw:std$$1n$allocator$::1nw:3$:3n()rn$1::1nw1n$2::1nw:3$1n$4::1nw:3$:3$
08067c10+      W?write$:SbcsGrammerDef$:Nls$n.x(pn$__iobuf$$)ui
08067c60+      W?write$:DbcsGrammerDef$:Nls$n(pn$__iobuf$$)ui
Module: page.obj(/mnt/sda5/.user/root/src/openwatcom-1.9/bld/wipfc/cpp/page.cpp)
080686f0       W?buildTOC$:Page$n()v
08068710       W?buildLocalDictionary$:Page$n()v
08068950       W?addWord$:Page$n(pn$GlobalDictionaryWord$$)q
08068990       W?write$:Page$n(pn$__iobuf$$)ui
08068b80       W?writeChildren$:Page$n.x(pn$__iobuf$$)ui
Module: strings.obj(/mnt/sda5/.user/root/src/openwatcom-1.9/bld/wipfc/cpp/strings.cpp)
08068c60       W?write$:StringTable$n(pn$__iobuf$$)ui
Module: synonym.obj(/mnt/sda5/.user/root/src/openwatcom-1.9/bld/wipfc/cpp/synonym.cpp)
08068d70       W?write$:Synonym$n(pn$__iobuf$$)v
Module: toc.obj(/mnt/sda5/.user/root/src/openwatcom-1.9/bld/wipfc/cpp/toc.cpp)
08068e70       W?write$:TocEntry$n.x(pn$__iobuf$$)ui
08068ec0       W?write$:ExtTocEntry$n.x(pn$__iobuf$$)v
08068f00       W?write$:PageOrigin$n.x(pn$__iobuf$$)v
08068f40       W?write$:PageSize$n.x(pn$__iobuf$$)v
08068f80       W?write$:PageStyle$n.x(pn$__iobuf$$)v
08068fc0       W?write$:PageGroup$n.x(pn$__iobuf$$)v
08069000       W?write$:PageControls$n.x(pn$__iobuf$$)v
Module: tocref.obj(/mnt/sda5/.user/root/src/openwatcom-1.9/bld/wipfc/cpp/tocref.cpp)
08069040       W?write$:TocRef$n.x(pn$__iobuf$$)v
Module: util.obj(/mnt/sda5/.user/root/src/openwatcom-1.9/bld/wipfc/cpp/util.cpp)
080690c0*      W?killQuotes$n(pna)v
08069120*      W?killQuotes$n(pnw)v
08069170*      W?killQuotes$n(rn$basic_string$::1na1n$char_traits$::1na:std$$1n$allocator$::1na:3$:3$)v
080691c0       W?killQuotes$n(rn$basic_string$::1nw1n$char_traits$::1nw:std$$1n$allocator$::1nw:3$:3$)v
08069220       W?splitAttribute$n(rnx$basic_string$::1nw1n$char_traits$::1nw:std$$1n$allocator$::1nw:3$:3$rn$1::1nw1n$2::1nw:3$1n$4::1nw:3$:3$rn$1::1nw1n$2::1nw:3$1n$4::1nw:3$:3$)v
08069320       W?killEOL$n(pna)v
08069350       W?killEOL$n(pnw)v
08069390       W?canonicalPath$n(pna)$basic_string$::1na1n$char_traits$::1na:std$$1n$allocator$::1na:3$:3$
08069580       W?wtombstring$n(rnx$basic_string$::1nw1n$char_traits$::1nw:std$$1n$allocator$::1nw:3$:3$rn$1::1na1n$2::1na:3$1n$4::1na:3$:3$)v
080697c0+      W?$dt:auto_ptr$::1na:std$n()_
08069810+      W?find$:basic_string$::1na1n$char_traits$::1na:std$$1n$allocator$::1na:3$:3n.x(pnxauiui)ui
080bab30+      W?$Wts0Mn$auto_ptr$::1na:std$$$nx[]uc
08100ef3+      W?$Wti0L$auto_ptr$::1na:std$$$n[]uc
08069600       W?mbtowstring$n(rnx$basic_string$::1na1n$char_traits$::1na:std$$1n$allocator$::1na:3$:3$rn$1::1nw1n$2::1nw:3$1n$4::1nw:3$:3$)v
Module: xref.obj(/mnt/sda5/.user/root/src/openwatcom-1.9/bld/wipfc/cpp/xref.cpp)
08069880       W?write$:XRef$n.x(pn$__iobuf$$)v
080698b0       W?$rc:XRef$n.x(rnx$0$)q
Module: element.obj(/mnt/sda5/.user/root/src/openwatcom-1.9/bld/wipfc/cpp/element.cpp)
08069910       W?printError$:Element$n.x($ErrCode$$)v
08069930       W?printError$:Element$n.x($ErrCode$$rnx$basic_string$::1nw1n$char_traits$::1nw:std$$1n$allocator$::1nw:5$:5$)v
08069950       W?linearize$:Element$n(pn$Page$$)v
08069970       W?rootElement$:Element$n()pn$1$
Module: text.obj(/mnt/sda5/.user/root/src/openwatcom-1.9/bld/wipfc/cpp/text.cpp)
08069990       W?$ct:Text$n(pn$Document$$pn$Element$$pnx$basic_string$::1nw1n$char_traits$::1nw:std$$1n$allocator$::1nw:5$:5$uiuirnx$3::1nw1n$4::1nw:5$1n$6::1nw:5$:5$q)_
08069a90       W?buildLocalDict$:Text$n(pn$Page$$)$pair$::1nq1nq:std$$
08069ac0       W?buildText$:Text$n(pn$Cell$$)v
Module: entity.obj(/mnt/sda5/.user/root/src/openwatcom-1.9/bld/wipfc/cpp/entity.cpp)
08069b20       W?parse$:Entity$n(pn$Lexer$$)$Token$:2$
Module: punct.obj(/mnt/sda5/.user/root/src/openwatcom-1.9/bld/wipfc/cpp/punct.cpp)
08069e50       W?parse$:Punctuation$n(pn$Lexer$$)$Token$:2$
Module: whtspc.obj(/mnt/sda5/.user/root/src/openwatcom-1.9/bld/wipfc/cpp/whtspc.cpp)
08069fb0       W?$ct:WhiteSpace$n(pn$Document$$pn$Element$$pnx$basic_string$::1nw1n$char_traits$::1nw:std$$1n$allocator$::1nw:5$:5$uiuirnx$3::1nw1n$4::1nw:5$1n$6::1nw:5$:5$$WsHandling$:Tag$$q)_
0806a110       W?parse$:WhiteSpace$n(pn$Lexer$$)$Token$:2$
0806a230       W?buildText$:WhiteSpace$n(pn$Cell$$)v
0806a3a0       W?buildLocalDict$:LiteralWhiteSpace$n(pn$Page$$)$pair$::1nq1nq:std$$
0806a3b0       W?buildText$:LiteralWhiteSpace$n(pn$Cell$$)v
Module: word.obj(/mnt/sda5/.user/root/src/openwatcom-1.9/bld/wipfc/cpp/word.cpp)
0806a410       W?parse$:Word$n(pn$Lexer$$)$Token$:2$
Module: tag.obj(/mnt/sda5/.user/root/src/openwatcom-1.9/bld/wipfc/cpp/tag.cpp)
08073840+      W?$dt:AcViewport$n()_
08073900+      W?$dt:Artlink$n()_
080739a0+      W?buildText$:Artlink$n(pn$Cell$$)v
080739b0+      W?$dt:EArtlink$n()_
08073a50+      W?buildText$:EArtlink$n(pn$Cell$$)v
08073a60+      W?$dt:Artwork$n()_
08073b00+      W?$dt:Caution$n()_
08073ba0+      W?linearize$:Caution$n(pn$Page$$)v
08073bb0+      W?buildText$:Caution$n(pn$Cell$$)v
08073bc0+      W?$dt:ECaution$n()_
08073c60+      W?$dt:CGraphic$n()_
08073d00+      W?$dt:ECGraphic$n()_
08073da0       W?$dt:Color$n()_
08073e30+      W?$dt:Ddf$n()_
08073ec0       W?$dt:Dl$n()_
08073f60       W?linearize$:Dl$n(pn$Page$$)v
08073f70       W?buildText$:Dl$n(pn$Cell$$)v
08073f80+      W?$dt:Fig$n()_
08074020+      W?$dt:EFig$n()_
080740c0       W?$dt:Font$n()_
08074150+      W?$dt:Hdref$n()_
080741f0+      W?linearize$:Hdref$n(pn$Page$$)v
08074200+      W?buildText$:Hdref$n(pn$Cell$$)v
08074210+      W?$dt:Lines$n()_
080742b0+      W?$dt:ELines$n()_
08074350       W?$dt:ELink$n()_
080743f0       W?$dt:Lm$n()_
08074480+      W?$dt:Note$n()_
08074520+      W?linearize$:Note$n(pn$Page$$)v
08074530+      W?buildText$:Note$n(pn$Cell$$)v
08074540+      W?$dt:Nt$n()_
080745e0+      W?linearize$:Nt$n(pn$Page$$)v
080745f0+      W?buildText$:Nt$n(pn$Cell$$)v
08074600+      W?$dt:ENt$n()_
080746a0       W?$dt:Ol$n()_
08074740       W?linearize$:Ol$n(pn$Page$$)v
08074750       W?buildText$:Ol$n(pn$Cell$$)v
08074760       W?$dt:P$n()_
08074800       W?$dt:Parml$n()_
080748a0       W?linearize$:Parml$n(pn$Page$$)v
080748b0       W?buildText$:Parml$n(pn$Cell$$)v
080748c0+      W?$dt:Rm$n()_
08074950       W?$dt:Sl$n()_
080749f0       W?linearize$:Sl$n(pn$Page$$)v
08074a00       W?buildText$:Sl$n(pn$Cell$$)v
08074a10+      W?$dt:Table$n()_
08074ac0+      W?$dt:ETable$n()_
08074b60       W?$dt:Ul$n()_
08074c00       W?linearize$:Ul$n(pn$Page$$)v
08074c10       W?buildText$:Ul$n(pn$Cell$$)v
08074c20+      W?$dt:Warning$n()_
08074cc0+      W?linearize$:Warning$n(pn$Page$$)v
08074cd0+      W?buildText$:Warning$n(pn$Cell$$)v
08074ce0+      W?$dt:EWarning$n()_
08074d80+      W?$dt:Xmp$n()_
08074e20+      W?$dt:EXmp$n()_
0806a700       W?$dt:Tag$n()_
0806a7a0       W?parse$:Tag$n(pn$Lexer$$)$Token$:2$
0806a7b0       W?parseAttributes$:Tag$n(pn$Lexer$$)$Token$:2$
0806a840       W?parseInline$:Tag$n(pn$Lexer$$rn$Token$:2$)q
0806eb20       W?parseBlock$:Tag$n(pn$Lexer$$rn$Token$:2$)q
08074ec0+      W?$Wmp0FbuildIndex$n()v$:Element$n()pn()v
08074ed0+      W?for_each$::1n$iterator$:list$::1npn$Element$$1n$allocator$::1npn$3$:std$$:5$1n$mem_fun_t$::1nv1n$3$:5$:5n($1:2::1npn$3$1n$4::1npn$3$:5$:5$$1:2::1npn$3$1n$4::1npn$3$:5$:5$$6::1nv1n$3$:5$)$6::1nv1n$3$:5$
08074f20       W?$dt:allocator$::1n$list$::1npn$Element$$1n$0::1npn$2$:std$$:3$:3n()_
08074f30       W?$dt:allocator$::1npn$TableCol$$:std$n()_
08074f40       W?$ct:vector$::1n$list$::1npn$Element$$1n$allocator$::1npn$2$:std$$:4$1n$3::1n$1::1npn$2$1n$3::1npn$2$:4$:4$:4$:4n(uirnx$1::1npn$2$1n$3::1npn$2$:4$:4$rnx$3::1n$1::1npn$2$1n$3::1npn$2$:4$:4$:4$)_
08075000       W?$dt:vector$::1n$list$::1npn$Element$$1n$allocator$::1npn$2$:std$$:4$1n$3::1n$1::1npn$2$1n$3::1npn$2$:4$:4$:4$:4n()_
08075080       W?$ct:vector$::1npn$TableCol$$1n$allocator$::1npn$1$:std$$:3n(rnx$2::1npn$1$:3$)_
080750f0       W?$dt:vector$::1npn$TableCol$$1n$allocator$::1npn$1$:std$$:3n()_
08075160       W?uninitialized_fill_n$::1npn$list$::1npn$Element$$1n$allocator$::1npn$2$:std$$:4$1nui1n$1::1npn$2$1n$3::1npn$2$:4$:4$:4n(pn$1::1npn$2$1n$3::1npn$2$:4$:4$uirnx$1::1npn$2$1n$3::1npn$2$:4$:4$)v
08075240       W?alloc$:vector$::1n$list$::1npn$Element$$1n$allocator$::1npn$3$:std$$:5$1n$4::1n$2::1npn$3$1n$4::1npn$3$:5$:5$:5$:5n(uirnui)pn$2::1npn$3$1n$4::1npn$3$:5$:5$
08075260       W?alloc$:vector$::1npn$TableCol$$1n$allocator$::1npn$2$:std$$:4n(uirnui)pnpn$2$
08075280       W?$ct:list$::1npn$Element$$1n$allocator$::1npn$1$:std$$:3n(rnx$0::1npn$1$1n$2::1npn$1$:3$:3$)_
080c5600+      W?$Wvf0Eok:AcViewport$$nx[]pn()v
080c5620+      W?$Wvf0Bok:Artlink$$nx[]pn()v
080c5650+      W?$Wvf0Cok:EArtlink$$nx[]pn()v
080c5680+      W?$Wvf0Bok:Artwork$$nx[]pn()v
080c56a0+      W?$Wvf0Bok:Caution$$nx[]pn()v
080c56d0+      W?$Wvf0Cok:ECaution$$nx[]pn()v
080c5700+      W?$Wvf0Cok:CGraphic$$nx[]pn()v
080c5730+      W?$Wvf0Dok:ECGraphic$$nx[]pn()v
080c5760       W?$Wvf09ok:Color$$nx[]pn()v
080c5780+      W?$Wvf07ok:Ddf$$nx[]pn()v
080c57a0       W?$Wvf06ok:Dl$$nx[]pn()v
080c57d0+      W?$Wvf07ok:Fig$$nx[]pn()v
080c5800+      W?$Wvf08ok:EFig$$nx[]pn()v
080c5830       W?$Wvf08ok:Font$$nx[]pn()v
080c5850+      W?$Wvf09ok:Hdref$$nx[]pn()v
080c5880+      W?$Wvf09ok:Lines$$nx[]pn()v
080c58b0+      W?$Wvf0Aok:ELines$$nx[]pn()v
080c58e0       W?$Wvf08ok:Link$$nx[]pn()v
080c5910       W?$Wvf09ok:ELink$$nx[]pn()v
080c5940       W?$Wvf06ok:Lm$$nx[]pn()v
080c5960+      W?$Wvf08ok:Note$$nx[]pn()v
080c5990+      W?$Wvf06ok:Nt$$nx[]pn()v
080c59c0+      W?$Wvf07ok:ENt$$nx[]pn()v
080c59f0       W?$Wvf06ok:Ol$$nx[]pn()v
080c5a20       W?$Wvf05ok:P$$nx[]pn()v
080c5a50       W?$Wvf09ok:Parml$$nx[]pn()v
080c5a80+      W?$Wvf06ok:Rm$$nx[]pn()v
080c5aa0       W?$Wvf06ok:Sl$$nx[]pn()v
080c5ad0+      W?$Wvf09ok:Table$$nx[]pn()v
080c5b00+      W?$Wvf0Aok:ETable$$nx[]pn()v
080c5b30       W?$Wvf06ok:Ul$$nx[]pn()v
080c5b60+      W?$Wvf0Bok:Warning$$nx[]pn()v
080c5b90+      W?$Wvf0Cok:EWarning$$nx[]pn()v
080c5bc0+      W?$Wvf07ok:Xmp$$nx[]pn()v
080c5bf0+      W?$Wvf08ok:EXmp$$nx[]pn()v
080c5c20       W?$Wcm0274$nx[]uc
080c5c30+      W?$Wcm03207$nx[]uc
080c5c40+      W?$Wcm03215$nx[]uc
080c5c50+      W?$Wcm03219$nx[]uc
080c5c60+      W?$Wcm03206$nx[]uc
080c5c70+      W?$Wcm03232$nx[]uc
080c5c80       W?$Wcm0222$nx[]uc
080c5c90       W?$Wcm0246$nx[]uc
080c5ca0       W?$Wcm0258$nx[]uc
080c5cb0+      W?$Wcm03100$nx[]uc
080c5cc0       W?$Wcm03112$nx[]uc
080c5cd0+      W?$Wcm03124$nx[]uc
080c5ce0+      W?$Wcm03136$nx[]uc
080c5cf0+      W?$Wcm03148$nx[]uc
080c5d00+      W?$Wcm03160$nx[]uc
080c5d10       W?$Wcm03173$nx[]uc
080c5d20+      W?$Wcm03172$nx[]uc
080c5d30+      W?$Wcm03190$nx[]uc
080c5d40+      W?$Wcm03202$nx[]uc
080c5d50+      W?$Wcm03214$nx[]uc
080c5d60+      W?$Wcm03226$nx[]uc
080c5d70+      W?$Wcm03238$nx[]uc
080c5d80+      W?$Wts0En$AcViewport$$$nx[]uc
080c5da0+      W?$Wts0Bn$Artlink$$$nx[]uc
080c5dc0+      W?$Wts0Cn$EArtlink$$$nx[]uc
080c5de0+      W?$Wts0Bn$Artwork$$$nx[]uc
080c5e00+      W?$Wts0Bn$Caution$$$nx[]uc
080c5e20+      W?$Wts0Cn$ECaution$$$nx[]uc
080c5e40+      W?$Wts0Cn$CGraphic$$$nx[]uc
080c5e60+      W?$Wts0Dn$ECGraphic$$$nx[]uc
080c5e80       W?$Wts09n$Color$$$nx[]uc
080c5ea0+      W?$Wts07n$Ddf$$$nx[]uc
080c5ec0       W?$Wts06n$Dl$$$nx[]uc
080c5ee0+      W?$Wts07n$Fig$$$nx[]uc
080c5f00+      W?$Wts08n$EFig$$$nx[]uc
080c5f20       W?$Wts08n$Font$$$nx[]uc
080c5f40+      W?$Wts09n$Hdref$$$nx[]uc
080c5f60+      W?$Wts09n$Lines$$$nx[]uc
080c5f80+      W?$Wts0An$ELines$$$nx[]uc
080c5fa0       W?$Wts09n$ELink$$$nx[]uc
080c5fc0       W?$Wts06n$Lm$$$nx[]uc
080c5fe0+      W?$Wts08n$Note$$$nx[]uc
080c6000+      W?$Wts06n$Nt$$$nx[]uc
080c6020+      W?$Wts07n$ENt$$$nx[]uc
080c6040       W?$Wts06n$Ol$$$nx[]uc
080c6060       W?$Wts05n$P$$$nx[]uc
080c6080       W?$Wts09n$Parml$$$nx[]uc
080c60a0+      W?$Wts06n$Rm$$$nx[]uc
080c60c0       W?$Wts06n$Sl$$$nx[]uc
080c60e0+      W?$Wts09n$Table$$$nx[]uc
080c6100+      W?$Wts0An$ETable$$$nx[]uc
080c6120       W?$Wts06n$Ul$$$nx[]uc
080c6140+      W?$Wts0Bn$Warning$$$nx[]uc
080c6160+      W?$Wts0Cn$EWarning$$$nx[]uc
080c6180+      W?$Wts07n$Xmp$$$nx[]uc
080c61a0+      W?$Wts08n$EXmp$$$nx[]uc
08100f0d+      W?$Wti07$EXmp$$$n[]uc
08100f19+      W?$Wti06$Xmp$$$n[]uc
08100f24+      W?$Wti0B$EWarning$$$n[]uc
08100f34+      W?$Wti0A$Warning$$$n[]uc
08100f43       W?$Wti05$Ul$$$n[]uc
08100f4d+      W?$Wti09$ETable$$$n[]uc
08100f5b+      W?$Wti08$Table$$$n[]uc
08100f68       W?$Wti05$Sl$$$n[]uc
08100f72+      W?$Wti05$Rm$$$n[]uc
08100f7c       W?$Wti08$Parml$$$n[]uc
08100f89       W?$Wti04$P$$$n[]uc
08100f92       W?$Wti05$Ol$$$n[]uc
08100f9c+      W?$Wti06$ENt$$$n[]uc
08100fa7+      W?$Wti05$Nt$$$n[]uc
08100fb1+      W?$Wti07$Note$$$n[]uc
08100fbd       W?$Wti05$Lm$$$n[]uc
08100fc7       W?$Wti08$ELink$$$n[]uc
08100fd4+      W?$Wti09$ELines$$$n[]uc
08100fe2+      W?$Wti08$Lines$$$n[]uc
08100fef+      W?$Wti08$Hdref$$$n[]uc
08100ffc       W?$Wti07$Font$$$n[]uc
08101008+      W?$Wti07$EFig$$$n[]uc
08101014+      W?$Wti06$Fig$$$n[]uc
0810101f       W?$Wti05$Dl$$$n[]uc
08101029+      W?$Wti06$Ddf$$$n[]uc
08101034       W?$Wti08$Color$$$n[]uc
08101041+      W?$Wti0C$ECGraphic$$$n[]uc
08101052+      W?$Wti0B$CGraphic$$$n[]uc
08101062+      W?$Wti0B$ECaution$$$n[]uc
08101072+      W?$Wti0A$Caution$$$n[]uc
08101081+      W?$Wti0A$Artwork$$$n[]uc
08101090+      W?$Wti0B$EArtlink$$$n[]uc
081010a0+      W?$Wti0A$Artlink$$$n[]uc
081010af+      W?$Wti0D$AcViewport$$$n[]uc
080728b0       W?parseListBlock$:Tag$n(pn$Lexer$$rn$Token$:2$)q
08073700       W?parseCleanup$:Tag$n(pn$Lexer$$rn$Token$:2$)v
08073740       W?buildIndex$:Tag$n()v
080737b0       W?linearize$:Tag$n(pn$Page$$)v
08073800       W?linearizeChildren$:Tag$n(pn$Page$$)v
Module: acvwport.obj(/mnt/sda5/.user/root/src/openwatcom-1.9/bld/wipfc/cpp/acvwport.cpp)
08076440       W?$ra::1nw1n$char_traits$::1nw:std$$1n$allocator$::1nw:1$:1n(rnx$basic_string$::1nw1n$0::1nw:1$1n$2::1nw:1$:1$pnxw)q
080754e0       W?parse$:AcViewport$n(pn$Lexer$$)$Token$:2$
08075600+      W?parseAttributes$:AcViewport$n(pn$Lexer$$)$Token$:2$
08075e20       W?buildText$:AcViewport$n(pn$Cell$$)v
Module: artlink.obj(/mnt/sda5/.user/root/src/openwatcom-1.9/bld/wipfc/cpp/artlink.cpp)
08076490       W?parse$:Artlink$n(pn$Lexer$$)$Token$:2$
Module: artwork.obj(/mnt/sda5/.user/root/src/openwatcom-1.9/bld/wipfc/cpp/artwork.cpp)
080768b0       W?parse$:Artwork$n(pn$Lexer$$)$Token$:2$
08076a20+      W?parseAttributes$:Artwork$n(pn$Lexer$$)$Token$:2$
08076cb0       W?buildText$:Artwork$n(pn$Cell$$)v
Module: brcmd.obj(/mnt/sda5/.user/root/src/openwatcom-1.9/bld/wipfc/cpp/brcmd.cpp)
08076f40       W?buildText$:BrCmd$n(pn$Cell$$)v
Module: caution.obj(/mnt/sda5/.user/root/src/openwatcom-1.9/bld/wipfc/cpp/caution.cpp)
08077710       W?$aa:basic_string$::1nw1n$char_traits$::1nw:std$$1n$allocator$::1nw:2$:2n(pnxw)rn$0::1nw1n$1::1nw:2$1n$3::1nw:2$:2$
08076f80       W?parse$:Caution$n(pn$Lexer$$)$Token$:2$
08077560       W?buildText$:ECaution$n(pn$Cell$$)v
080775a0+      W?prepBufferName$:Caution$n(pn$basic_string$::1nw1n$char_traits$::1nw:std$$1n$allocator$::1nw:4$:4$rnx$2::1nw1n$3::1nw:4$1n$5::1nw:4$:4$)v
Module: cgraphic.obj(/mnt/sda5/.user/root/src/openwatcom-1.9/bld/wipfc/cpp/cgraphic.cpp)
08077760       W?parse$:CGraphic$n(pn$Lexer$$)$Token$:2$
080777c0       W?buildText$:CGraphic$n(pn$Cell$$)v
08077820       W?buildText$:ECGraphic$n(pn$Cell$$)v
Module: color.obj(/mnt/sda5/.user/root/src/openwatcom-1.9/bld/wipfc/cpp/color.cpp)
08077880       W?parse$:Color$n(pn$Lexer$$)$Token$:2$
08077a30+      W?parseColor$:Color$n(rn$basic_string$::1nw1n$char_traits$::1nw:std$$1n$allocator$::1nw:4$:4$)$ColorName$:1$
08077bb0       W?buildText$:Color$n(pn$Cell$$)v
Module: ctrl.obj(/mnt/sda5/.user/root/src/openwatcom-1.9/bld/wipfc/cpp/ctrl.cpp)
08078360+      W?$ct:ControlGroup$n()_
08078550+      W?$dt:ControlGroup$n()_
080785c0       W?transform$::1npnw1npnw1npn(w)w:std$n(pnwpnwpnwpn(w)w)pnw
080785e0+      W?$ct:ControlGroup$n(rnx$0$)_
080cf760+      W?$Wts0Gn$ControlGroup$$$nx[]uc
081010c1+      W?$Wti0F$ControlGroup$$$n[]uc
08077e30       W?parse$:Ctrl$n(pn$Lexer$$)$Token$:2$
08078020       W?build$:Ctrl$n(pn$Controls$$)v
Module: ctrldef.obj(/mnt/sda5/.user/root/src/openwatcom-1.9/bld/wipfc/cpp/ctrldef.cpp)
08078ba0+      W?$dt:CtrlTag$n()_
08078bb0+      W?$dt:PButton$n()_
08078c70+      W?buildText$:PButton$n(pn$Cell$$)v
08078c80+      W?$dt:Ctrl$n()_
08078d40+      W?buildText$:Ctrl$n(pn$Cell$$)v
080d0a70+      W?$Wvf0Bok:CtrlTag$$nx[]pn()v
080d0aa0+      W?$Wvf0Bok:PButton$$nx[]pn()v
080d0ad0+      W?$Wvf08ok:Ctrl$$nx[]pn()v
080d0b00+      W?$Wts0Bn$PButton$$$nx[]uc
080d0b20+      W?$Wts08n$Ctrl$$$nx[]uc
081010d5+      W?$Wti07$Ctrl$$$n[]uc
081010e1+      W?$Wti0A$PButton$$$n[]uc
08078660       W?$dt:CtrlDef$n()_
080786f0       W?parse$:CtrlDef$n(pn$Lexer$$)$Token$:2$
08078b70       W?build$:CtrlDef$n(pn$Controls$$)v
Module: ddf.obj(/mnt/sda5/.user/root/src/openwatcom-1.9/bld/wipfc/cpp/ddf.cpp)
08079070       W?$dt:XRef$n()_
08079130       W?$ct:XRef$n(rnx$0$)_
080d1d10       W?$Wts08n$XRef$$$nx[]uc
081010f0       W?$Wti07$XRef$$$n[]uc
08078d50       W?parse$:Ddf$n(pn$Lexer$$)$Token$:2$
08078d80+      W?parseAttributes$:Ddf$n(pn$Lexer$$)$Token$:2$
08078f30       W?buildText$:Ddf$n(pn$Cell$$)v
Module: dl.obj(/mnt/sda5/.user/root/src/openwatcom-1.9/bld/wipfc/cpp/dl.cpp)
0807ca10+      W?$dt:EDl$n()_
0807cab0+      W?$dt:DtHd$n()_
0807cb50+      W?linearize$:DtHd$n(pn$Page$$)v
0807cb60+      W?buildText$:DtHd$n(pn$Cell$$)v
0807cb70+      W?$dt:DdHd$n()_
0807cc10+      W?linearize$:DdHd$n(pn$Page$$)v
0807cc20+      W?buildText$:DdHd$n(pn$Cell$$)v
0807cc30+      W?$dt:Dt$n()_
0807ccd0+      W?linearize$:Dt$n(pn$Page$$)v
0807cce0+      W?buildText$:Dt$n(pn$Cell$$)v
0807ccf0+      W?$dt:Dd$n()_
0807cd90+      W?linearize$:Dd$n(pn$Page$$)v
0807cda0+      W?buildText$:Dd$n(pn$Cell$$)v
08079140       W?parse$:Dl$n(pn$Lexer$$)$Token$:2$
0807b170       W?parseAttributes$:Dl$n(pn$Lexer$$)$Token$:2$
0807b3b0+      W?buildText$:EDl$n(pn$Cell$$)v
0807b430+      W?parse$:DtHd$n(pn$Lexer$$)$Token$:2$
0807b880+      W?parse$:DdHd$n(pn$Lexer$$)$Token$:2$
080d3ef0+      W?$Wvf07ok:EDl$$nx[]pn()v
080d3f20+      W?$Wvf08ok:DtHd$$nx[]pn()v
080d3f50+      W?$Wvf08ok:DdHd$$nx[]pn()v
080d3f80+      W?$Wvf06ok:Dt$$nx[]pn()v
080d3fb0+      W?$Wvf06ok:Dd$$nx[]pn()v
080d3fe0+      W?$Wcm0282$nx[]uc
080d3ff0+      W?$Wcm0294$nx[]uc
080d4000+      W?$Wcm03106$nx[]uc
080d4010       W?$Wcm0238$nx[]uc
080d4020+      W?$Wts07n$EDl$$$nx[]uc
080d4040+      W?$Wts08n$DtHd$$$nx[]uc
080d4060+      W?$Wts08n$DdHd$$$nx[]uc
080d4080+      W?$Wts06n$Dt$$$nx[]uc
080d40a0+      W?$Wts06n$Dd$$$nx[]uc
081010fc+      W?$Wti05$Dd$$$n[]uc
08101106+      W?$Wti05$Dt$$$n[]uc
08101110+      W?$Wti07$DdHd$$$n[]uc
0810111c+      W?$Wti07$DtHd$$$n[]uc
08101128+      W?$Wti06$EDl$$$n[]uc
0807ba90+      W?parse$:Dt$n(pn$Lexer$$)$Token$:2$
0807c5f0+      W?parse$:Dd$n(pn$Lexer$$)$Token$:2$
Module: docprof.obj(/mnt/sda5/.user/root/src/openwatcom-1.9/bld/wipfc/cpp/docprof.cpp)
0807cea0       W?parse$:DocProf$n(pn$Lexer$$)$Token$:2$
0807d140       W?build$:DocProf$n(pn$Controls$$pn$StringTable$$)v
Module: fig.obj(/mnt/sda5/.user/root/src/openwatcom-1.9/bld/wipfc/cpp/fig.cpp)
0807d710+      W?$dt:Figcap$n()_
0807d7b0+      W?buildText$:Figcap$n(pn$Cell$$)v
080d63f0+      W?$Wvf0Aok:Figcap$$nx[]pn()v
080d6420+      W?$Wts0An$Figcap$$$nx[]uc
08101133+      W?$Wti09$Figcap$$$n[]uc
0807d2c0       W?parse$:Fig$n(pn$Lexer$$)$Token$:2$
0807d630       W?buildText$:Fig$n(pn$Cell$$)v
0807d6a0       W?buildText$:EFig$n(pn$Cell$$)v
Module: figcap.obj(/mnt/sda5/.user/root/src/openwatcom-1.9/bld/wipfc/cpp/figcap.cpp)
0807d7c0       W?parse$:Figcap$n(pn$Lexer$$)$Token$:2$
Module: fn.obj(/mnt/sda5/.user/root/src/openwatcom-1.9/bld/wipfc/cpp/fn.cpp)
0807e3f0       W?$dt:TocRef$n()_
080d8b20       W?$Wts0An$TocRef$$$nx[]uc
08101141       W?$Wti09$TocRef$$$n[]uc
0807e080       W?parse$:Fn$n(pn$Lexer$$)$Token$:2$
0807e110       W?parseAttributes$:Fn$n(pn$Lexer$$)$Token$:2$
0807e330       W?buildTOC$:Fn$n(pn$Page$$)v
Module: font.obj(/mnt/sda5/.user/root/src/openwatcom-1.9/bld/wipfc/cpp/font.cpp)
080d9e20+      W?$Wth0Dnrn$ErrCode$$$nx[]uc
080d9e30+      W?$Wts0Bn$ErrCode$$$nx[]uc
0810114f+      W?$Wti0A$ErrCode$$$n[]uc
0807e4c0       W?parse$:Font$n(pn$Lexer$$)$Token$:2$
0807e860       W?buildText$:Font$n(pn$Cell$$)v
Module: hdref.obj(/mnt/sda5/.user/root/src/openwatcom-1.9/bld/wipfc/cpp/hdref.cpp)
0807e9b0       W?parse$:Hdref$n(pn$Lexer$$)$Token$:2$
0807edc0+      W?prepBufferName$:Hdref$n(pn$basic_string$::1nw1n$char_traits$::1nw:std$$1n$allocator$::1nw:4$:4$rnx$2::1nw1n$3::1nw:4$1n$5::1nw:4$:4$)v
Module: hide.obj(/mnt/sda5/.user/root/src/openwatcom-1.9/bld/wipfc/cpp/hide.cpp)
0807f490+      W?$dt:Hide$n()_
0807f530+      W?$dt:EHide$n()_
0807ef60       W?$ct:Hide$n(pn$Document$$pn$Element$$pnx$basic_string$::1nw1n$char_traits$::1nw:std$$1n$allocator$::1nw:5$:5$uiui)_
0807f020+      W?parse$:Hide$n(pn$Lexer$$)$Token$:2$
0807f1a0+      W?buildText$:Hide$n(pn$Cell$$)v
080dc780+      W?$Wvf08ok:Hide$$nx[]pn()v
080dc7a0+      W?$Wvf09ok:EHide$$nx[]pn()v
080dc7c0+      W?$Wts08n$Hide$$$nx[]uc
080dc7e0+      W?$Wts09n$EHide$$$nx[]uc
0810115e+      W?$Wti08$EHide$$$n[]uc
0810116b+      W?$Wti07$Hide$$$n[]uc
0807f300       W?$ct:EHide$n(pn$Document$$pn$Element$$pnx$basic_string$::1nw1n$char_traits$::1nw:std$$1n$allocator$::1nw:5$:5$uiui)_
0807f3a0+      W?parse$:EHide$n(pn$Lexer$$)$Token$:2$
0807f430+      W?buildText$:EHide$n(pn$Cell$$)v
0810301c       W?hide$:Hide$nq
Module: hn.obj(/mnt/sda5/.user/root/src/openwatcom-1.9/bld/wipfc/cpp/hn.cpp)
080838a0+      W?$dt:I2$n()_
080839b0+      W?buildText$:I2$n(pn$Cell$$)v
080839c0+      W?$dt:ISyn$n()_
08083a90+      W?buildText$:ISyn$n(pn$Cell$$)v
08083e60       W?$dt:auto_ptr$::1n$IndexItem$$:std$n()_
08083f10+      W?$dt:auto_ptr$::1n$Synonym$$:std$n()_
080dfbb0+      W?$Wvf06ok:I2$$nx[]pn()v
080dfbd0+      W?$Wvf08ok:ISyn$$nx[]pn()v
080dfbf0+      W?$Wcm0214$nx[]uc
080dfc00       W?$Wcm0245$nx[]uc
080dfc10+      W?$Wcm0263$nx[]uc
080dfc20+      W?$Wcm0267$nx[]uc
080dfc30       W?$Wcm0254$nx[]uc
080dfc40+      W?$Wcm0281$nx[]uc
080dfc50+      W?$Wcm0289$nx[]uc
080dfc60+      W?$Wcm0293$nx[]uc
080dfc70+      W?$Wcm03103$nx[]uc
080dfc80+      W?$Wcm03107$nx[]uc
080dfc90+      W?$Wcm03111$nx[]uc
080dfca0+      W?$Wcm03121$nx[]uc
080dfcb0+      W?$Wcm03129$nx[]uc
080dfcc0+      W?$Wcm03133$nx[]uc
080dfcd0+      W?$Wcm03120$nx[]uc
080dfce0+      W?$Wcm03147$nx[]uc
080dfcf0+      W?$Wcm03155$nx[]uc
080dfd00+      W?$Wcm03159$nx[]uc
080dfd10       W?$Wcm03146$nx[]uc
080dfd20       W?$Wcm03169$nx[]uc
080dfd30+      W?$Wcm03177$nx[]uc
080dfd40+      W?$Wcm03187$nx[]uc
080dfd50+      W?$Wcm03195$nx[]uc
080dfd60+      W?$Wcm03199$nx[]uc
080dfd70+      W?$Wcm03186$nx[]uc
080dfd80+      W?$Wcm03213$nx[]uc
080dfd90+      W?$Wcm03221$nx[]uc
080dfda0+      W?$Wcm03225$nx[]uc
080dfdb0+      W?$Wcm03212$nx[]uc
080dfdc0+      W?$Wcm03235$nx[]uc
080dfdd0+      W?$Wcm03239$nx[]uc
080dfde0+      W?$Wcm03243$nx[]uc
080dfdf0+      W?$Wcm03253$nx[]uc
080dfe00+      W?$Wcm03261$nx[]uc
080dfe10+      W?$Wcm03265$nx[]uc
080dfe20+      W?$Wcm03252$nx[]uc
080dfe30+      W?$Wcm03279$nx[]uc
080dfe40+      W?$Wcm03287$nx[]uc
080dfe50+      W?$Wcm03291$nx[]uc
080dfe60+      W?$Wcm03278$nx[]uc
080dfe70+      W?$Wcm03301$nx[]uc
080dfe80+      W?$Wcm03305$nx[]uc
080dfe90+      W?$Wcm03309$nx[]uc
080dfea0+      W?$Wcm03319$nx[]uc
080dfeb0+      W?$Wcm03327$nx[]uc
080dfec0+      W?$Wcm03331$nx[]uc
080dfed0+      W?$Wcm03318$nx[]uc
080dfee0+      W?$Wcm03351$nx[]uc
080dfef0+      W?$Wcm03371$nx[]uc
080dff00+      W?$Wcm03370$nx[]uc
080dff10+      W?$Wts06n$I2$$$nx[]uc
080dff30+      W?$Wts08n$ISyn$$$nx[]uc
080dff50+      W?$Wts06n$Hn$$$nx[]uc
08101177+      W?$Wti05$Hn$$$n[]uc
08101181+      W?$Wti07$ISyn$$$n[]uc
0810118d+      W?$Wti05$I2$$$n[]uc
0807f680       W?$dt:Hn$n()_
0807f820       W?parse$:Hn$n(pn$Lexer$$)$Token$:2$
08082560       W?parseAttributes$:Hn$n(pn$Lexer$$)$Token$:2$
080832e0       W?buildTOC$:Hn$n(pn$Page$$)v
080836d0       W?buildText$:Hn$n(pn$Cell$$)v
08083840       W?linearize$:Hn$n(pn$Page$$)v
Module: hpn.obj(/mnt/sda5/.user/root/src/openwatcom-1.9/bld/wipfc/cpp/hpn.cpp)
08084530+      W?$dt:Hpn$n()_
080845c0+      W?$dt:EHpn$n()_
08083ff0       W?$ct:Hpn$n(pn$Document$$pn$Element$$pnx$basic_string$::1nw1n$char_traits$::1nw:std$$1n$allocator$::1nw:5$:5$uiuiui)_
080840a0+      W?parse$:Hpn$n(pn$Lexer$$)$Token$:2$
08084130+      W?buildText$:Hpn$n(pn$Cell$$)v
080e1180+      W?$Wvf07ok:Hpn$$nx[]pn()v
080e11a0+      W?$Wvf08ok:EHpn$$nx[]pn()v
080e11c0+      W?$Wts07n$Hpn$$$nx[]uc
080e11e0+      W?$Wts08n$EHpn$$$nx[]uc
081011a7+      W?$Wti07$EHpn$$$n[]uc
081011b3+      W?$Wti06$Hpn$$$n[]uc
08084280       W?$ct:EHpn$n(pn$Document$$pn$Element$$pnx$basic_string$::1nw1n$char_traits$::1nw:std$$1n$allocator$::1nw:5$:5$uiuiui)_
08084360+      W?parse$:EHpn$n(pn$Lexer$$)$Token$:2$
080843f0+      W?buildText$:EHpn$n(pn$Cell$$)v
08103020+      W?levelStack$:Hpn$n$vector$::1nuc1n$allocator$::1nuc:std$$:4$
Module: i1.obj(/mnt/sda5/.user/root/src/openwatcom-1.9/bld/wipfc/cpp/i1.cpp)
08085020+      W?$dt:I1$n()_
08085150+      W?buildText$:I1$n(pn$Cell$$)v
08084650       W?$ct:I1$n(pn$Document$$pn$Element$$pnx$basic_string$::1nw1n$char_traits$::1nw:std$$1n$allocator$::1nw:5$:5$uiui)_
08084770+      W?parse$:I1$n(pn$Lexer$$)$Token$:2$
080849b0+      W?parseAttributes$:I1$n(pn$Lexer$$)$Token$:2$
080852b0+      W?$ct:vector$::1npn$IndexItem$$1n$allocator$::1npn$1$:std$$:3n(rnx$2::1npn$1$:3$)_
08085320+      W?quick_sort$::1npnpn$IndexItem$$1n$ptrLess$::1npn$1$$:_ow$:std$n(pnpn$1$ii$2::1npn$1$$)v
08085410+      W?insertion_sort$::1npnpn$IndexItem$$1n$ptrLess$::1npn$1$$:_ow$:std$n(pnpn$1$pnpn$1$$2::1npn$1$$)v
08085470+      W?med3$::1npnpn$IndexItem$$1n$ptrLess$::1npn$1$$:_ow$:std$n(pnpn$1$ii$2::1npn$1$$)pnpn$1$
080e2a80+      W?$Wvf06ok:I1$$nx[]pn()v
080e2aa0+      W?$Wts06n$I1$$$nx[]uc
081011be+      W?$Wti05$I1$$$n[]uc
08084de0+      W?buildIndex$:I1$n()v
08084ec0       W?write$:I1$n(pn$__iobuf$$)ui
Module: i2.obj(/mnt/sda5/.user/root/src/openwatcom-1.9/bld/wipfc/cpp/i2.cpp)
08085520       W?parse$:I2$n(pn$Lexer$$)$Token$:2$
08085740+      W?parseAttributes$:I2$n(pn$Lexer$$)$Token$:2$
08085900       W?buildIndex$:I2$n()v
Module: icmd.obj(/mnt/sda5/.user/root/src/openwatcom-1.9/bld/wipfc/cpp/icmd.cpp)
08085fa0+      W?$dt:ICmd$n()_
08086090+      W?buildText$:ICmd$n(pn$Cell$$)v
080e5180+      W?$Wvf08ok:ICmd$$nx[]pn()v
080e51a0+      W?$Wts08n$ICmd$$$nx[]uc
081011c8+      W?$Wti07$ICmd$$$n[]uc
08085b00       W?$ct:ICmd$n(pn$Document$$pn$Element$$pnx$basic_string$::1nw1n$char_traits$::1nw:std$$1n$allocator$::1nw:5$:5$uiui)_
08085bd0+      W?parse$:ICmd$n(pn$Lexer$$)$Token$:2$
08085ec0+      W?buildIndex$:ICmd$n()v
Module: isyn.obj(/mnt/sda5/.user/root/src/openwatcom-1.9/bld/wipfc/cpp/isyn.cpp)
080860a0       W?parse$:ISyn$n(pn$Lexer$$)$Token$:2$
Module: lines.obj(/mnt/sda5/.user/root/src/openwatcom-1.9/bld/wipfc/cpp/lines.cpp)
08086510       W?parse$:Lines$n(pn$Lexer$$)$Token$:2$
08086560       W?parseAttributes$:Lines$n(pn$Lexer$$)$Token$:2$
08086720       W?buildText$:Lines$n(pn$Cell$$)v
08086790       W?buildText$:ELines$n(pn$Cell$$)v
Module: link.obj(/mnt/sda5/.user/root/src/openwatcom-1.9/bld/wipfc/cpp/link.cpp)
080868d0       W?$dt:Link$n()_
08086a10       W?parse$:Link$n(pn$Lexer$$)$Token$:2$
08086ac0       W?parseAttributes$:Link$n(pn$Lexer$$)$Token$:2$
08087990       W?buildText$:Link$n(pn$Cell$$)v
080879d0+      W?doTopic$:Link$n(pn$Cell$$)v
080882f0+      W?doFootnote$:Link$n(pn$Cell$$)v
080e8cd0+      W?$Wts08n$Link$$$nx[]uc
081011d4+      W?$Wti07$Link$$$n[]uc
08088680+      W?doLaunch$:Link$n(pn$Cell$$)v
08088a00+      W?doInform$:Link$n(pn$Cell$$)v
08088ca0       W?buildText$:ELink$n(pn$Cell$$)v
Module: lm.obj(/mnt/sda5/.user/root/src/openwatcom-1.9/bld/wipfc/cpp/lm.cpp)
080890c0       W?parse$:Lm$n(pn$Lexer$$)$Token$:2$
08089270       W?buildText$:Lm$n(pn$Cell$$)v
Module: lp.obj(/mnt/sda5/.user/root/src/openwatcom-1.9/bld/wipfc/cpp/lp.cpp)
08089390       W?parse$:Lp$n(pn$Lexer$$)$Token$:2$
080893e0       W?buildText$:Lp$n(pn$Cell$$)v
Module: note.obj(/mnt/sda5/.user/root/src/openwatcom-1.9/bld/wipfc/cpp/note.cpp)
080ec710       W?$Wcm0236$nx[]uc
08089460       W?parse$:Note$n(pn$Lexer$$)$Token$:2$
08089b30+      W?prepBufferName$:Note$n(pn$basic_string$::1nw1n$char_traits$::1nw:std$$1n$allocator$::1nw:4$:4$rnx$2::1nw1n$3::1nw:4$1n$5::1nw:4$:4$)v
Module: nt.obj(/mnt/sda5/.user/root/src/openwatcom-1.9/bld/wipfc/cpp/nt.cpp)
0808a680+      W?$dt:NtLm$n()_
0808a710+      W?parse$:NtLm$n(pn$Lexer$$)$Token$:2$
080edda0+      W?$Wvf08ok:NtLm$$nx[]pn()v
080eddc0+      W?$Wts08n$NtLm$$$nx[]uc
081011e0+      W?$Wti07$NtLm$$$n[]uc
08089c90       W?parse$:Nt$n(pn$Lexer$$)$Token$:2$
0808a5b0       W?buildText$:ENt$n(pn$Cell$$)v
0808a610+      W?buildText$:NtLm$n(pn$Cell$$)v
0808a650+      W?prepBufferName$:Nt$n(pn$basic_string$::1nw1n$char_traits$::1nw:std$$1n$allocator$::1nw:4$:4$rnx$2::1nw1n$3::1nw:4$1n$5::1nw:4$:4$)v
Module: ol.obj(/mnt/sda5/.user/root/src/openwatcom-1.9/bld/wipfc/cpp/ol.cpp)
0808dab0       W?$ct:Element$n(pn$Document$$pn$0$pnx$basic_string$::1nw1n$char_traits$::1nw:std$$1n$allocator$::1nw:4$:4$uiui)_
0808dad0       W?$dt:Li$n()_
0808dae0+      W?$dt:EOl$n()_
0808db80+      W?$dt:OlLi$n()_
0808dc20+      W?linearize$:OlLi$n(pn$Page$$)v
0808dc30+      W?buildText$:OlLi$n(pn$Cell$$)v
0808dc40       W?$dt:Lp$n()_
0808dce0       W?$dt:LiteralWhiteSpace$n()_
0808dd70       W?parse$:LiteralWhiteSpace$n(pn$Lexer$$)$Token$:2$
0808de50       W?$ct:allocator$::1npn$Element$$:std$n()_
0808de60       W?$ct:list$::1npn$Element$$1n$allocator$::1npn$1$:std$$:3n(rnx$2::1npn$1$:3$)_
080efe60       W?$Wvf06ok:Li$$nx[]pn()v
080efe90+      W?$Wvf07ok:EOl$$nx[]pn()v
080efec0+      W?$Wvf08ok:OlLi$$nx[]pn()v
080efef0       W?$Wvf06ok:Lp$$nx[]pn()v
080eff20       W?$Wvf0Lok:LiteralWhiteSpace$$nx[]pn()v
080eff40       W?$Wcm0250$nx[]uc
080eff50       W?$Wcm0249$nx[]uc
080eff60+      W?$Wcm0278$nx[]uc
080eff70+      W?$Wts07n$EOl$$$nx[]uc
080eff90+      W?$Wts08n$OlLi$$$nx[]uc
080effb0       W?$Wts06n$Lp$$$nx[]uc
080effd0       W?$Wts0Ln$LiteralWhiteSpace$$$nx[]uc
081011ec       W?$Wti0K$LiteralWhiteSpace$$$n[]uc
08101205       W?$Wti05$Lp$$$n[]uc
0810120f+      W?$Wti07$OlLi$$$n[]uc
0810121b+      W?$Wti06$EOl$$$n[]uc
0808a850       W?parse$:Ol$n(pn$Lexer$$)$Token$:2$
0808c240       W?parseAttributes$:Ol$n(pn$Lexer$$)$Token$:2$
0808c300+      W?buildText$:EOl$n(pn$Cell$$)v
0808c370+      W?parse$:OlLi$n(pn$Lexer$$)$Token$:2$
Module: p.obj(/mnt/sda5/.user/root/src/openwatcom-1.9/bld/wipfc/cpp/p.cpp)
0808def0       W?parse$:P$n(pn$Lexer$$)$Token$:2$
0808df40       W?buildText$:P$n(pn$Cell$$)v
Module: parml.obj(/mnt/sda5/.user/root/src/openwatcom-1.9/bld/wipfc/cpp/parml.cpp)
08090730+      W?$dt:EParml$n()_
080907d0+      W?$dt:Pt$n()_
08090870+      W?linearize$:Pt$n(pn$Page$$)v
08090880+      W?buildText$:Pt$n(pn$Cell$$)v
08090890+      W?$dt:Pd$n()_
08090930+      W?linearize$:Pd$n(pn$Page$$)v
08090940+      W?buildText$:Pd$n(pn$Cell$$)v
080f2ea0+      W?$Wvf0Aok:EParml$$nx[]pn()v
080f2ed0+      W?$Wvf06ok:Pt$$nx[]pn()v
080f2f00+      W?$Wvf06ok:Pd$$nx[]pn()v
080f2f30       W?$Wcm0270$nx[]uc
080f2f40+      W?$Wts0An$EParml$$$nx[]uc
080f2f60+      W?$Wts06n$Pt$$$nx[]uc
080f2f80+      W?$Wts06n$Pd$$$nx[]uc
08101226+      W?$Wti05$Pd$$$n[]uc
08101230+      W?$Wti05$Pt$$$n[]uc
0810123a+      W?$Wti09$EParml$$$n[]uc
0808df80       W?parse$:Parml$n(pn$Lexer$$)$Token$:2$
0808f510       W?parseAttributes$:Parml$n(pn$Lexer$$)$Token$:2$
0808f750+      W?buildText$:EParml$n(pn$Cell$$)v
0808f7d0+      W?parse$:Pt$n(pn$Lexer$$)$Token$:2$
08090310+      W?parse$:Pd$n(pn$Lexer$$)$Token$:2$
Module: pbutton.obj(/mnt/sda5/.user/root/src/openwatcom-1.9/bld/wipfc/cpp/pbutton.cpp)
08090df0+      W?$ct:ControlButton$n()_
08090fd0+      W?$dt:ControlButton$n()_
08091040+      W?$ct:ControlButton$n(rnx$0$)_
080f40c0+      W?$Wts0Hn$ControlButton$$$nx[]uc
08101248+      W?$Wti0G$ControlButton$$$n[]uc
08090a40       W?parse$:PButton$n(pn$Lexer$$)$Token$:2$
08090ca0       W?build$:PButton$n(pn$Controls$$)v
Module: rm.obj(/mnt/sda5/.user/root/src/openwatcom-1.9/bld/wipfc/cpp/rm.cpp)
080910c0       W?parse$:Rm$n(pn$Lexer$$)$Token$:2$
08091270       W?buildText$:Rm$n(pn$Cell$$)v
Module: sl.obj(/mnt/sda5/.user/root/src/openwatcom-1.9/bld/wipfc/cpp/sl.cpp)
080932e0+      W?$dt:ESl$n()_
08093380+      W?$dt:SlLi$n()_
080f6eb0+      W?$Wvf07ok:ESl$$nx[]pn()v
080f6ee0+      W?$Wvf08ok:SlLi$$nx[]pn()v
080f6f10       W?$Wcm0262$nx[]uc
080f6f20+      W?$Wts07n$ESl$$$nx[]uc
080f6f40+      W?$Wts08n$SlLi$$$nx[]uc
0810125d+      W?$Wti07$SlLi$$$n[]uc
08101269+      W?$Wti06$ESl$$$n[]uc
08091390       W?parse$:Sl$n(pn$Lexer$$)$Token$:2$
08092da0       W?parseAttributes$:Sl$n(pn$Lexer$$)$Token$:2$
08092e60+      W?buildText$:ESl$n(pn$Cell$$)v
08092ed0+      W?parse$:SlLi$n(pn$Lexer$$)$Token$:2$
08093240+      W?buildText$:SlLi$n(pn$Cell$$)v
Module: table.obj(/mnt/sda5/.user/root/src/openwatcom-1.9/bld/wipfc/cpp/table.cpp)
0809c750+      W?$dt:TableCol$n()_
0809c800+      W?buildText$:TableCol$n(pn$Cell$$)v
0809c810+      W?linearize$:TableRow$n(pn$Page$$)v
0809c820+      W?buildText$:TableRow$n(pn$Cell$$)v
080934d0       W?parse$:Table$n(pn$Lexer$$)$Token$:2$
08093910       W?parseAttributes$:Table$n(pn$Lexer$$)$Token$:2$
08093d20+      W?tbBorder$:Table$n(q)v
08094ea0+      W?rowRule$:Table$n()v
08095e70       W?buildText$:Table$n(pn$Cell$$)v
0809cae0+      W?accumulate$::1npnuc1ni:std$n(pnucpnuci)i
0809cb00+      W?push_back$:vector$::1n$list$::1npn$Element$$1n$allocator$::1npn$3$:std$$:5$1n$4::1n$2::1npn$3$1n$4::1npn$3$:5$:5$:5$:5n(rnx$2::1npn$3$1n$4::1npn$3$:5$:5$)v
0809cb50+      W?push_back$:vector$::1npn$TableCol$$1n$allocator$::1npn$2$:std$$:4n(rnxpn$2$)v
0809cba0+      W?reserve$:vector$::1n$list$::1npn$Element$$1n$allocator$::1npn$3$:std$$:5$1n$4::1n$2::1npn$3$1n$4::1npn$3$:5$:5$:5$:5n(ui)v
0809cd50+      W?reserve$:vector$::1npn$TableCol$$1n$allocator$::1npn$2$:std$$:4n(ui)v
0809cef0+      W?uninitialized_copy$::1npn$list$::1npn$Element$$1n$allocator$::1npn$2$:std$$:4$1npn$1::1npn$2$1n$3::1npn$2$:4$:4$:4n(pn$1::1npn$2$1n$3::1npn$2$:4$:4$pn$1::1npn$2$1n$3::1npn$2$:4$:4$pn$1::1npn$2$1n$3::1npn$2$:4$:4$)pn$1::1npn$2$1n$3::1npn$2$:4$:4$
0809cfd0+      W?uninitialized_copy$::1npnpn$TableCol$$1npnpn$1$:std$n(pnpn$1$pnpn$1$pnpn$1$)pnpn$1$
080faac0+      W?$Wvf0Cok:TableCol$$nx[]pn()v
080faaf0+      W?$Wvf0Cok:TableRow$$nx[]pn()v
080fab20+      W?$Wcm0261$nx[]uc
080fab30+      W?$Wcm0265$nx[]uc
080fab40+      W?$Wcm0275$nx[]uc
080fab50+      W?$Wcm0290$nx[]uc
080fab60+      W?$Wcm03162$nx[]uc
080fab70+      W?$Wcm03298$nx[]uc
080fab80+      W?$Wcm03306$nx[]uc
080fab90+      W?$Wcm03310$nx[]uc
080faba0+      W?$Wcm03297$nx[]uc
080fabb0+      W?$Wcm03323$nx[]uc
080fabc0+      W?$Wcm03335$nx[]uc
080fabd0+      W?$Wcm03346$nx[]uc
080fabe0+      W?$Wts0Cn$TableCol$$$nx[]uc
080fac00+      W?$Wts0Cn$TableRow$$$nx[]uc
080fac20+      W?$Wts0sn$list$::1npn$Element$$1n$allocator$::1npn$1$:std$$:3$$nx[]uc
08101274+      W?$Wti0r$list$::1npn$Element$$1n$allocator$::1npn$1$:std$$:3$$n[]uc
081012ae+      W?$Wti0B$TableRow$$$n[]uc
081012be+      W?$Wti0B$TableCol$$$n[]uc
08095ed0       W?buildText$:ETable$n(pn$Cell$$)v
08095f30+      W?$dt:TableRow$n()_
08096030+      W?parse$:TableRow$n(pn$Lexer$$)$Token$:2$
08097010+      W?parse$:TableCol$n(pn$Lexer$$)$Token$:2$
Module: title.obj(/mnt/sda5/.user/root/src/openwatcom-1.9/bld/wipfc/cpp/title.cpp)
0809d0b0       W?parse$:Title$n(pn$Lexer$$pn$IpfHeader$$)$Token$:2$
Module: ul.obj(/mnt/sda5/.user/root/src/openwatcom-1.9/bld/wipfc/cpp/ul.cpp)
0809fe40+      W?$dt:EUl$n()_
0809fee0+      W?$dt:UlLi$n()_
0809ff80+      W?linearize$:UlLi$n(pn$Page$$)v
0809ff90+      W?buildText$:UlLi$n(pn$Cell$$)v
080fdc40+      W?$Wvf07ok:EUl$$nx[]pn()v
080fdc70+      W?$Wvf08ok:UlLi$$nx[]pn()v
080fdca0+      W?$Wcm0286$nx[]uc
080fdcb0+      W?$Wts07n$EUl$$$nx[]uc
080fdcd0+      W?$Wts08n$UlLi$$$nx[]uc
081012ce+      W?$Wti07$UlLi$$$n[]uc
081012da+      W?$Wti06$EUl$$$n[]uc
0809d3a0       W?parse$:Ul$n(pn$Lexer$$)$Token$:2$
0809ed70       W?parseAttributes$:Ul$n(pn$Lexer$$)$Token$:2$
0809ee30+      W?buildText$:EUl$n(pn$Cell$$)v
0809eea0+      W?parse$:UlLi$n(pn$Lexer$$)$Token$:2$
Module: warning.obj(/mnt/sda5/.user/root/src/openwatcom-1.9/bld/wipfc/cpp/warning.cpp)
080a0050       W?parse$:Warning$n(pn$Lexer$$)$Token$:2$
080a0790       W?buildText$:EWarning$n(pn$Cell$$)v
080a07d0+      W?prepBufferName$:Warning$n(pn$basic_string$::1nw1n$char_traits$::1nw:std$$1n$allocator$::1nw:4$:4$rnx$2::1nw1n$3::1nw:4$1n$5::1nw:4$:4$)v
Module: xmp.obj(/mnt/sda5/.user/root/src/openwatcom-1.9/bld/wipfc/cpp/xmp.cpp)
080a0940       W?parse$:Xmp$n(pn$Lexer$$)$Token$:2$
080a09a0       W?buildText$:Xmp$n(pn$Cell$$)v
080a0a00       W?buildText$:EXmp$n(pn$Cell$$)v
Module: /mnt/sda5/.user/root/src/openwatcom-1.9/rel2/lib386/plbx3r.lib(stablcl.cpp)
080a0a60       __wcpp_4_lcl_register__
Module: /mnt/sda5/.user/root/src/openwatcom-1.9/rel2/lib386/plbx3r.lib(fsregist.cpp)
080a0a70+      __wcpp_4_dispatch_dummy__
080a0a94       __wcpp_4_fs_lookup__
080a0b38       __wcpp_4_fs_handler_rtn__
080a0c0c       __wcpp_4_unwind_global__
080a0c50       __wcpp_4_raise_exception__
Module: /mnt/sda5/.user/root/src/openwatcom-1.9/rel2/lib386/plbx3r.lib(cppdata.cpp)
08103030       __wint_thread_data
08103054       __compiled_under_generic
Module: /mnt/sda5/.user/root/src/openwatcom-1.9/rel2/lib386/plbx3r.lib(dtorarst.cpp)
080a0c80       __wcpp_4_dtor_array_store__
Module: /mnt/sda5/.user/root/src/openwatcom-1.9/rel2/lib386/plbx3r.lib(opdelarr.cpp)
080a0cb0       W?$dan(pnv)v
Module: /mnt/sda5/.user/root/src/openwatcom-1.9/rel2/lib386/plbx3r.lib(opdel.cpp)
080a0cc0       W?$dln(pnv)v
Module: /mnt/sda5/.user/root/src/openwatcom-1.9/rel2/lib386/plbx3r.lib(ioicout.cpp)
08103098       W?cout$:std$n$ostream$:1$
08100490       W?$Wts0Cn$stdiobuf$$$nx[]uc
081004b0       W?$Wts0Gn$ostream$:std$$$nx[]uc
08101315+      W?$Wti0G$cout_initfini$$$n[]uc
0810132a       W?$Wti0F$ostream$:std$$$n[]uc
080a0d40       W?.tdtor$:ostream$:std$n()pnv
080a0d50       W?.tdtor$:stdiobuf$n()pnv
080a0d24+      W?$ct:cout_initfini$n()_
080a0d2c+      W?$dt:cout_initfini$n()_
081004d0+      W?$Wts0Hn$cout_initfini$$$nx[]uc
0810133e       W?$Wti0B$stdiobuf$$$n[]uc
Module: /mnt/sda5/.user/root/src/openwatcom-1.9/rel2/lib386/plbx3r.lib(ostincch.cpp)
080a0d60       W?$ob:ostream$:std$n(pnxa)rn$0:1$
Module: /mnt/sda5/.user/root/src/openwatcom-1.9/rel2/lib386/plbx3r.lib(manendl.cpp)
080a0de0       W?endl$:std$n(rn$ostream$:1$)rn$2:1$
Module: /mnt/sda5/.user/root/src/openwatcom-1.9/rel2/lib386/plbx3r.lib(ostinomn.cpp)
080a0e00       W?$ob:ostream$:std$n(pn(rn$0:1$)rn$0:1$)rn$0:1$
Module: /mnt/sda5/.user/root/src/openwatcom-1.9/rel2/lib386/plbx3r.lib(stabdtor.cpp)
080a10b0       __wcpp_4_destruct_internal__
080a10cc       __wcpp_4_destruct_all__
080a10d0       __wcpp_4_destruct__
Module: /mnt/sda5/.user/root/src/openwatcom-1.9/rel2/lib386/linux/clib3r.lib(setjmp)
080a10f0       _setjmp_
080a111f       longjmp_
Module: /mnt/sda5/.user/root/src/openwatcom-1.9/rel2/lib386/plbx3r.lib(stabthrw.cpp)
080a1950+      W?$ct:bad_exception$:std$n(rnx$0:1$)_
080a19a0+      W?$dt:bad_exception$:std$n()_
081005e0+      W?$Wvf0Mo4:bad_exception$:std$$nx[]pn()v
081005f0+      W?$Wth0Onrn$bad_exception$:std$$$nx[]uc
08100610+      W?$Wts0Mn$bad_exception$:std$$$nx[]uc
08100630+      W?$Wts0Hn$_EXC_PR_FNEXC$$$nx[]uc
08100650+      W?$Wts0Gn$_EXC_PR_DTOR$$$nx[]uc
08100670       W?$Wts0Gn$_EXC_PR_FREE$$$nx[]uc
08100690       W?$Wts0Bn$_EXC_PR$$$nx[]uc
081006b0+      W?$Wva0Mo0:bad_exception$:std$$nx[]uc
08101350       W?$Wti0A$_EXC_PR$$$n[]uc
0810135f       W?$Wti0F$_EXC_PR_FREE$$$n[]uc
08101373+      W?$Wti0F$_EXC_PR_DTOR$$$n[]uc
08101387+      W?$Wti0G$_EXC_PR_FNEXC$$$n[]uc
0810139c+      W?$Wti0L$bad_exception$:std$$$n[]uc
080a1a50+      W?.tcctor$:bad_exception$:std$n(rnx$1:2$)rn$1:2$
080a1a60+      W?.tdtor$:bad_exception$:std$n()pnv
080a181c       __wcpp_4_rethrow__
080a1860       __wcpp_4_catch_done__
080a18c0       __wcpp_4_throw__
080a1904*      __wcpp_4_throw_zero__
081006d0+      W?$Wva0Io0:exception$:std$$nx[]uc
Module: /mnt/sda5/.user/root/src/openwatcom-1.9/rel2/lib386/linux/clib3r.lib(atoi.c)
080a1a70       atoi_
Module: /mnt/sda5/.user/root/src/openwatcom-1.9/rel2/lib386/linux/clib3r.lib(exit.c)
080a1ab9       exit_
080a1acb*      _exit_
Module: /mnt/sda5/.user/root/src/openwatcom-1.9/rel2/lib386/linux/clib3r.lib(memmove.c)
080a1ad0       memmove_
Module: /mnt/sda5/.user/root/src/openwatcom-1.9/rel2/lib386/linux/clib3r.lib(ustrlen.c)
080a1b23       wcslen_
Module: /mnt/sda5/.user/root/src/openwatcom-1.9/rel2/lib386/plbx3r.lib(opnewp.cpp)
080a1b40       W?$nwn(uipnv)pnv
Module: /mnt/sda5/.user/root/src/openwatcom-1.9/rel2/lib386/plbx3r.lib(opnew.cpp)
080a1b50       W?$nwn(ui)pnv
Module: /mnt/sda5/.user/root/src/openwatcom-1.9/rel2/lib386/linux/clib3r.lib(memset.c)
080a1ba0       memset_
Module: /mnt/sda5/.user/root/src/openwatcom-1.9/rel2/lib386/plbx3r.lib(undefed.cpp)
080a1bc0       __wcpp_4_undefed_cdtor__
Module: /mnt/sda5/.user/root/src/openwatcom-1.9/rel2/lib386/linux/clib3r.lib(cstart)
080a1bd2       _cstart_
080a1bd2*      _start
Module: /mnt/sda5/.user/root/src/openwatcom-1.9/rel2/lib386/linux/clib3r.lib(cmainlnx.c)
080a1c40       __LinuxMain
081030d4       __argc
081030d8+      __argv
Module: /mnt/sda5/.user/root/src/openwatcom-1.9/rel2/lib386/plbx3r.lib(moddtorr.cpp)
08102768       ___wcpp_4_data_module_dtor_ref_
Module: /mnt/sda5/.user/root/src/openwatcom-1.9/rel2/lib386/plbx3r.lib(fsroot.cpp)
0810274a       ___wcpp_4_data_init_fs_root_
Module: /mnt/sda5/.user/root/src/openwatcom-1.9/rel2/lib386/linux/clib3r.lib(fopen.c)
080a1ce0+      __open_flags_
080a1e80+      _fsopen_
080a1ed0       fopen_
080a1f50*      freopen_
Module: /mnt/sda5/.user/root/src/openwatcom-1.9/rel2/lib386/linux/clib3r.lib(fclose.c)
080a1fb0       __doclose_
080a2020       __shutdown_stream_
080a2040       fclose_
Module: /mnt/sda5/.user/root/src/openwatcom-1.9/rel2/lib386/linux/clib3r.lib(fprintf.c)
080a2070       fprintf_
Module: /mnt/sda5/.user/root/src/openwatcom-1.9/rel2/lib386/linux/clib3r.lib(iob.c)
081013b8       ___iob
081030dc       ___OpenStreams
081030e0       ___ClosedStreams
Module: /mnt/sda5/.user/root/src/openwatcom-1.9/rel2/lib386/linux/clib3r.lib(wcstombs.c)
080a20a0       wcstombs_
Module: /mnt/sda5/.user/root/src/openwatcom-1.9/rel2/lib386/linux/clib3r.lib(strncpy.c)
080a2140       strncpy_
Module: /mnt/sda5/.user/root/src/openwatcom-1.9/rel2/lib386/linux/clib3r.lib(tmpnm.c)
080a2200       tmpnam_
Module: /mnt/sda5/.user/root/src/openwatcom-1.9/rel2/lib386/linux/clib3r.lib(remove.c)
080a22c0       remove_
Module: /mnt/sda5/.user/root/src/openwatcom-1.9/rel2/lib386/linux/clib3r.lib(ftell.c)
080a22d0       ftell_
Module: /mnt/sda5/.user/root/src/openwatcom-1.9/rel2/lib386/linux/clib3r.lib(fseek.c)
080a2370       fseek_
Module: /mnt/sda5/.user/root/src/openwatcom-1.9/rel2/lib386/linux/clib3r.lib(fwrite.c)
080a2470       fwrite_
Module: /mnt/sda5/.user/root/src/openwatcom-1.9/rel2/lib386/linux/clib3r.lib(fread.c)
080a25b0       fread_
Module: /mnt/sda5/.user/root/src/openwatcom-1.9/rel2/lib386/plbx3r.lib(stabadt.cpp)
080a26f0+      W?dtor_the_array$n(pn$_RTARCTOR$$)pnv
080a2734       W?$dt:_RTARCTOR$n()_
080a274c       __wcpp_4_dtor_array__
081006f0       W?$Wts0Dn$_RTARCTOR$$$nx[]uc
08101578       W?$Wti0C$_RTARCTOR$$$n[]uc
Module: /mnt/sda5/.user/root/src/openwatcom-1.9/rel2/lib386/plbx3r.lib(pure_err.cpp)
080a27c0       __wcpp_4_pure_error__
Module: /mnt/sda5/.user/root/src/openwatcom-1.9/rel2/lib386/linux/clib3r.lib(getenv.c)
080a27f0       getenv_
Module: /mnt/sda5/.user/root/src/openwatcom-1.9/rel2/lib386/linux/clib3r.lib(rewind.c)
080a2850       rewind_
Module: /mnt/sda5/.user/root/src/openwatcom-1.9/rel2/lib386/linux/clib3r.lib(ufgetc.c)
080a28e7       fgetwc_
Module: /mnt/sda5/.user/root/src/openwatcom-1.9/rel2/lib386/linux/clib3r.lib(feof.c)
080a2940       feof_
Module: /mnt/sda5/.user/root/src/openwatcom-1.9/rel2/lib386/linux/clib3r.lib(uisspace.c)
080a2947       iswspace_
Module: /mnt/sda5/.user/root/src/openwatcom-1.9/rel2/lib386/linux/clib3r.lib(uisalpha.c)
080a2961       iswalpha_
Module: /mnt/sda5/.user/root/src/openwatcom-1.9/rel2/lib386/linux/clib3r.lib(uisalnum.c)
080a297d       iswalnum_
Module: /mnt/sda5/.user/root/src/openwatcom-1.9/rel2/lib386/linux/clib3r.lib(uispunct.c)
080a2999       iswpunct_
Module: /mnt/sda5/.user/root/src/openwatcom-1.9/rel2/lib386/linux/clib3r.lib(fputc.c)
080a29c0       fputc_
Module: /mnt/sda5/.user/root/src/openwatcom-1.9/rel2/lib386/linux/clib3r.lib(strncmp.c)
080a2a50       strncmp_
Module: /mnt/sda5/.user/root/src/openwatcom-1.9/rel2/lib386/linux/clib3r.lib(utoupper.c)
080a2a79       towupper_
Module: /mnt/sda5/.user/root/src/openwatcom-1.9/rel2/lib386/linux/clib3r.lib(ustrcmp.c)
080a2a89       wcscmp_
Module: /mnt/sda5/.user/root/src/openwatcom-1.9/rel2/lib386/plbx3r.lib(stabact.cpp)
080a2ab0       __wcpp_4_ctor_array__
Module: /mnt/sda5/.user/root/src/openwatcom-1.9/rel2/lib386/linux/clib3r.lib(snprintf.c)
080a2b80+      vsnprintf_
080a2be0       snprintf_
Module: /mnt/sda5/.user/root/src/openwatcom-1.9/rel2/lib386/linux/clib3r.lib(fgets.c)
080a2c10       fgets_
Module: /mnt/sda5/.user/root/src/openwatcom-1.9/rel2/lib386/linux/clib3r.lib(mbtowc.c)
080a2c80       mbtowc_
Module: /mnt/sda5/.user/root/src/openwatcom-1.9/rel2/lib386/linux/clib3r.lib(mbstowcs.c)
080a2d40       mbstowcs_
Module: /mnt/sda5/.user/root/src/openwatcom-1.9/rel2/lib386/linux/clib3r.lib(setlocal.c)
080a2dd0       setlocale_
Module: /mnt/sda5/.user/root/src/openwatcom-1.9/rel2/lib386/linux/clib3r.lib(ufgets.c)
080a2e66       fgetws_
Module: /mnt/sda5/.user/root/src/openwatcom-1.9/rel2/lib386/linux/clib3r.lib(ustrchr.c)
080a2ec5       wcschr_
Module: /mnt/sda5/.user/root/src/openwatcom-1.9/rel2/lib386/linux/clib3r.lib(ustrtol.c)
080a3130       wcstoul_
080a3140       wcstol_
Module: /mnt/sda5/.user/root/src/openwatcom-1.9/rel2/lib386/linux/clib3r.lib(ustrtok.c)
080a314d*      _ustrtok_
080a3157       wcstok_
Module: /mnt/sda5/.user/root/src/openwatcom-1.9/rel2/lib386/linux/clib3r.lib(strrchr.c)
080a3210       strrchr_
Module: /mnt/sda5/.user/root/src/openwatcom-1.9/rel2/lib386/linux/clib3r.lib(ustrrchr.c)
080a3229       wcsrchr_
Module: /mnt/sda5/.user/root/src/openwatcom-1.9/rel2/lib386/linux/clib3r.lib(gtcwdlnx.c)
080a3250       getcwd_
Module: /mnt/sda5/.user/root/src/openwatcom-1.9/rel2/lib386/linux/clib3r.lib(wctomb.c)
080a32d0       wctomb_
Module: /mnt/sda5/.user/root/src/openwatcom-1.9/rel2/lib386/linux/clib3r.lib(usprintf.c)
080a32fe       swprintf_
080a3321*      _swprintf_
Module: /mnt/sda5/.user/root/src/openwatcom-1.9/rel2/lib386/plbx3r.lib(stabmod.cpp)
080a3340       __wcpp_4_module_dtor__
080a336c       __wcpp_4_mod_register__
Module: /mnt/sda5/.user/root/src/openwatcom-1.9/rel2/lib386/plbx3r.lib(stabdisp.cpp)
080a357c       __wcpp_4_dispatchable__
Module: /mnt/sda5/.user/root/src/openwatcom-1.9/rel2/lib386/linux/clib3r.lib(nfree.c)
080a35d0       _nfree_
080a35d0       free_
081031e4+      ___MiniHeapFreeRover
Module: /mnt/sda5/.user/root/src/openwatcom-1.9/rel2/lib386/linux/clib3r.lib(iobaddr.c)
080a36d0       __get_std_stream_
080a36d0*      __get_std_file_
Module: /mnt/sda5/.user/root/src/openwatcom-1.9/rel2/lib386/plbx3r.lib(sdfconfp.cpp)
0810071c       W?$Wvf0Do19:stdiobuf$$nx[]pn()v
08101628       W?$Wti0H$streambuf$:std$$$n[]uc
080a36f0       W?$ct:stdiobuf$n(pn$__iobuf$$)_
0810074c       W?$Wva0Co0:stdiobuf$$nx[]uc
Module: /mnt/sda5/.user/root/src/openwatcom-1.9/rel2/lib386/plbx3r.lib(ostconsf.cpp)
08100784+      W?$Wvb0Go0:ostream$:std$$nx[]ui
0810078c       W?$Wvf0Go4:ostream$:std$$nx[]pn()v
08100794       W?$Wvf0Ho1l:ostream$:std$$nx[]pn()v
0810163e       W?$Wti0B$ios$:std$$$n[]uc
080a3790       W?$Wvt0V.@dt:ostream$:std$c$:0:1$dtn()_$:ios$:std$n()pnv
080a37a0       W?.tdtor$:ios$:std$n()pnv
080a3700       W?$ct:ostream$:std$n(pn$streambuf$:1$)_
0810079c       W?$Wva0Go0:ostream$:std$$nx[]uc
Module: /mnt/sda5/.user/root/src/openwatcom-1.9/rel2/lib386/plbx3r.lib(ostflush.cpp)
080a37b0       W?flush$:ostream$:std$n()rn$1:2$
Module: /mnt/sda5/.user/root/src/openwatcom-1.9/rel2/lib386/plbx3r.lib(ostdestr.cpp)
080a37f0       W?$dt:ostream$:std$n()_
Module: /mnt/sda5/.user/root/src/openwatcom-1.9/rel2/lib386/plbx3r.lib(sdfdestr.cpp)
080a3990+      W?.tdtor$:streambuf$:std$n()pnv
080a38c0       W?$dt:stdiobuf$n()_
Module: /mnt/sda5/.user/root/src/openwatcom-1.9/rel2/lib386/plbx3r.lib(ostopfx.cpp)
080a39a0       W?do_opfx$:ostream$:std$n()i
Module: /mnt/sda5/.user/root/src/openwatcom-1.9/rel2/lib386/plbx3r.lib(iouwrtit.cpp)
080a3a10       W?writeitem$:__WATCOM_ios$n(rn$ostream$:std$$pnxaii)i
Module: /mnt/sda5/.user/root/src/openwatcom-1.9/rel2/lib386/plbx3r.lib(iossetst.cpp)
080a3d90+      W?$ct:failure$:ios$:std$n(rnx$0:1:2$)_
080a3da0+      W?$dt:failure$:ios$:std$n()_
08100840+      W?$Wth0Nnrn$failure$:ios$:std$$$nx[]uc
08100860+      W?$Wts0Ln$failure$:ios$:std$$$nx[]uc
0810164e+      W?$Wti0L$__WATCOM_exception$$$n[]uc
080a3db0+      W?$ct:__WATCOM_exception$n(rnx$0$)_
080a3dc0+      W?$dt:__WATCOM_exception$n()_
080a3d60       W?setstate$:ios$:std$n(i)v
08100880+      W?$Wts0Mn$__WATCOM_exception$$$nx[]uc
08101668+      W?$Wti0K$failure$:ios$:std$$$n[]uc
Module: /mnt/sda5/.user/root/src/openwatcom-1.9/rel2/lib386/plbx3r.lib(ostput.cpp)
080a3dd0       W?put$:ostream$:std$n(a)rn$1:2$
Module: /mnt/sda5/.user/root/src/openwatcom-1.9/rel2/lib386/plbx3r.lib(stabtrav.cpp)
080a3e70       __wcpp_4_stab_entry__
080a3e88*      __wcpp_4_stab_trav_comp__
080a3f6c       __wcpp_4_stab_trav_init__
080a3f90       __wcpp_4_stab_trav_next__
080a3fe8       __wcpp_4_stab_trav_move__
Module: /mnt/sda5/.user/root/src/openwatcom-1.9/rel2/lib386/plbx3r.lib(callterm.cpp)
080a4000       __wcpp_4_corrupted_stack__
080a4014       __wcpp_4_call_terminate__
Module: /mnt/sda5/.user/root/src/openwatcom-1.9/rel2/lib386/plbx3r.lib(allocexc.cpp)
080a4064       __wcpp_4_alloc_exc__
080a42b4       __wcpp_4_free_exc__
080a42ec       __wcpp_4_find_active__
080a4308       __wcpp_4_dtor_free_exc__
Module: /mnt/sda5/.user/root/src/openwatcom-1.9/rel2/lib386/linux/clib3r.lib(ljmphdl.c)
08101684       ___longjmp_handler
Module: /mnt/sda5/.user/root/src/openwatcom-1.9/rel2/lib386/plbx3r.lib(exc_pr.cpp)
080a43e0       W?$ct:_EXC_PR$n(pn$_RTCTL$$pn$RW_DTREG$$$EXCSTATE$$)_
080a4408       W?$dt:_EXC_PR$n()_
080a4418       W?$ct:_EXC_PR_FREE$n(pn$_RTCTL$$pn$RW_DTREG$$$EXCSTATE$$pn$ACTIVE_EXC$$)_
080a442c       W?$dt:_EXC_PR_FREE$n()_
080a4464       W?$ct:_EXC_PR_DTOR$n(pn$_RTCTL$$pn$RW_DTREG$$$EXCSTATE$$pn$ACTIVE_EXC$$)_
080a4474       W?$ct:_EXC_PR_FNEXC$n(pn$_RTCTL$$pn$RW_DTREG$$pn$2$pn$ACTIVE_EXC$$)_
080a4494       W?$dt:_EXC_PR_FNEXC$n()_
080a449c       W?$dt:_EXC_PR_DTOR$n()_
Module: /mnt/sda5/.user/root/src/openwatcom-1.9/rel2/lib386/plbx3r.lib(vfun_err.cpp)
080a44c0       __wcpp_4_undef_vfun__
Module: /mnt/sda5/.user/root/src/openwatcom-1.9/rel2/lib386/plbx3r.lib(unexpect.cpp)
080a44f0       W?unexpected$:std$n()v
Module: /mnt/sda5/.user/root/src/openwatcom-1.9/rel2/lib386/plbx3r.lib(tsequiv.cpp)
080a4590       __wcpp_4_ts_refed__
080a45a8+      __wcpp_4_ts_pnted__
080a45dc       __wcpp_4_ts_equiv__
Module: /mnt/sda5/.user/root/src/openwatcom-1.9/rel2/lib386/plbx3r.lib(stabinit.cpp)
080a46c0       __wcpp_4_exc_setup__
Module: /mnt/sda5/.user/root/src/openwatcom-1.9/rel2/lib386/linux/clib3r.lib(stack386.c)
080a4760       stackavail_
Module: /mnt/sda5/.user/root/src/openwatcom-1.9/rel2/lib386/plbx3r.lib(fatalerr.cpp)
080a4770       __wcpp_4_fatal_runtime_error__
Module: /mnt/sda5/.user/root/src/openwatcom-1.9/rel2/lib386/linux/clib3r.lib(stk)
080a47bd*      __STK
080a47c1*      __CHK
080a47ba       __GRO
080a47da*      __STKOVERFLOW_
Module: /mnt/sda5/.user/root/src/openwatcom-1.9/rel2/lib386/plbx3r.lib(ljmpinit.cpp)
08102756       ___wcpp_4_data_init_longjmp_
Module: /mnt/sda5/.user/root/src/openwatcom-1.9/rel2/lib386/linux/clib3r.lib(istable.c)
080a4860       __IsTable
Module: /mnt/sda5/.user/root/src/openwatcom-1.9/rel2/lib386/linux/clib3r.lib(initrtns.c)
080a4980       __InitRtns
080a49d0       __FiniRtns
Module: /mnt/sda5/.user/root/src/openwatcom-1.9/rel2/lib386/linux/clib3r.lib(mainlnx.c)
08101688+      ___FirstThreadData
0810168c+      ___GetThreadPtr
08101690*      __AccessFileH
08101694*      __ReleaseFileH
08101698*      __AccessIOB
0810169c*      __ReleaseIOB
081016a0*      __AccessNHeap
081016a4*      __AccessFHeap
081016a8*      __ReleaseNHeap
081016ac*      __ReleaseFHeap
080a4a30*      __threadid_
080a4a60*      __LinuxInit_
080a4a70       __exit_
081016b0*      __AccessTDList
081016b4*      __ReleaseTDList
Module: /mnt/sda5/.user/root/src/openwatcom-1.9/rel2/lib386/linux/clib3r.lib(nmalloc.c)
080a4a90       _nmalloc_
080a4a90       malloc_
081016b8       ___nheapbeg
081016bc       ___MiniHeapRover
081016c0       ___LargestSizeB4MiniHeapRover
Module: /mnt/sda5/.user/root/src/openwatcom-1.9/rel2/lib386/linux/clib3r.lib(__stos)
080a4b80       __STOSB
080a4bb7*      __STOSD
Module: /mnt/sda5/.user/root/src/openwatcom-1.9/rel2/lib386/linux/clib3r.lib(segdefns)
08048103       ___begtext
080a9000*      __nullarea
08102738       __Start_XI
08102768       __End_XI
08102768       __Start_YI
08102774       __End_YI
Module: /mnt/sda5/.user/root/src/openwatcom-1.9/rel2/lib386/linux/clib3r.lib(crwdata)
081016cc*      __LpCmdLine
081016d0       __LpPgmName
081016c4*      __dynend
081016c8       __curbrk
081016d4       __STACKLOW
081016d8       __STACKTOP
081016dc       __ASTACKSIZ
081016e0       __ASTACKPTR
081016e4*      __cbyte
081016e8*      __cbyte2
081016ec*      __child
081016f2*      __Envptr
081016f6*      __Envseg
081016f0*      __no87
081016f8*      ___FPE_handler
Module: /mnt/sda5/.user/root/src/openwatcom-1.9/rel2/lib386/linux/clib3r.lib(sbrklnx.c)
080a4c30       sbrk_
080a4c40       __brk_
080a4c70*      brk_
Module: /mnt/sda5/.user/root/src/openwatcom-1.9/rel2/lib386/linux/clib3r.lib(environ.c)
081031e8       ___env_mask
081031ec       _environ
081031f0*      __wenviron
Module: /mnt/sda5/.user/root/src/openwatcom-1.9/rel2/lib386/linux/clib3r.lib(amblksiz.c)
081016fc       __amblksiz
Module: /mnt/sda5/.user/root/src/openwatcom-1.9/rel2/lib386/linux/clib3r.lib(comtflag.c)
08101700       __commode
Module: /mnt/sda5/.user/root/src/openwatcom-1.9/rel2/lib386/linux/clib3r.lib(seterrno.c)
080a4c94       __set_errno_
080a4ca0*      __set_EDOM_
080a4cac*      __set_ERANGE_
080a4cb8*      __set_EINVAL_
Module: /mnt/sda5/.user/root/src/openwatcom-1.9/rel2/lib386/linux/clib3r.lib(tolower.c)
080a4cd0       tolower_
Module: /mnt/sda5/.user/root/src/openwatcom-1.9/rel2/lib386/linux/clib3r.lib(openlnx.c)
080a4ce0*      open_
080a4d00       sopen_
Module: /mnt/sda5/.user/root/src/openwatcom-1.9/rel2/lib386/linux/clib3r.lib(chktty.c)
080a4d20       __chktty_
Module: /mnt/sda5/.user/root/src/openwatcom-1.9/rel2/lib386/linux/clib3r.lib(freefp.c)
080a4d50       __freefp_
080a4d90       __purgefp_
Module: /mnt/sda5/.user/root/src/openwatcom-1.9/rel2/lib386/linux/clib3r.lib(allocfp.c)
080a4dc0       __allocfp_
Module: /mnt/sda5/.user/root/src/openwatcom-1.9/rel2/lib386/linux/clib3r.lib(__lseek.c)
080a4e80       __lseek_
Module: /mnt/sda5/.user/root/src/openwatcom-1.9/rel2/lib386/linux/clib3r.lib(close.c)
080a4eb0       close_
Module: /mnt/sda5/.user/root/src/openwatcom-1.9/rel2/lib386/linux/clib3r.lib(flush.c)
080a4ee0       __flush_
Module: /mnt/sda5/.user/root/src/openwatcom-1.9/rel2/lib386/linux/clib3r.lib(fprtf.c)
080a4fd0       __fprtf_
Module: /mnt/sda5/.user/root/src/openwatcom-1.9/rel2/lib386/linux/clib3r.lib(initfile.c)
080a5090       __InitFiles_
Module: /mnt/sda5/.user/root/src/openwatcom-1.9/rel2/lib386/linux/clib3r.lib(ioexit.c)
080a5190*      fcloseall_
080a51a0       __full_io_exit_
Module: /mnt/sda5/.user/root/src/openwatcom-1.9/rel2/lib386/linux/clib3r.lib(tmpdir.c)
080a51c0       __tmpdir_
Module: /mnt/sda5/.user/root/src/openwatcom-1.9/rel2/lib386/linux/clib3r.lib(getpid.c)
080a51e0       getpid_
Module: /mnt/sda5/.user/root/src/openwatcom-1.9/rel2/lib386/linux/clib3r.lib(errno.c)
080a5210       __get_errno_ptr_
081031f4+      _errno
Module: /mnt/sda5/.user/root/src/openwatcom-1.9/rel2/lib386/linux/clib3r.lib(access.c)
080a5220       access_
Module: /mnt/sda5/.user/root/src/openwatcom-1.9/rel2/lib386/linux/clib3r.lib(unlink.c)
080a5250       unlink_
Module: /mnt/sda5/.user/root/src/openwatcom-1.9/rel2/lib386/linux/clib3r.lib(fflush.c)
080a5280       fflush_
Module: /mnt/sda5/.user/root/src/openwatcom-1.9/rel2/lib386/linux/clib3r.lib(tell.c)
080a5290       tell_
Module: /mnt/sda5/.user/root/src/openwatcom-1.9/rel2/lib386/linux/clib3r.lib(lseek.c)
080a52b0       lseek_
Module: /mnt/sda5/.user/root/src/openwatcom-1.9/rel2/lib386/linux/clib3r.lib(qwritunx.c)
080a52c0       __qwrite_
Module: /mnt/sda5/.user/root/src/openwatcom-1.9/rel2/lib386/linux/clib3r.lib(ioalloc.c)
080a5310       __ioalloc_
Module: /mnt/sda5/.user/root/src/openwatcom-1.9/rel2/lib386/linux/clib3r.lib(qreadunx.c)
080a53b0       __qread_
Module: /mnt/sda5/.user/root/src/openwatcom-1.9/rel2/lib386/linux/clib3r.lib(fgetc.c)
080a5400       __fill_buffer_
080a54b0       fgetc_
Module: /mnt/sda5/.user/root/src/openwatcom-1.9/rel2/lib386/plbx3r.lib(prwdata.cpp)
081031f8       __wint_pure_error_flag
081031fa       __wint_undef_vfun_flag
081031fc       __wint_module_init
Module: /mnt/sda5/.user/root/src/openwatcom-1.9/rel2/lib386/linux/clib3r.lib(mbisdbcs.c)
08103200       ___IsDBCS
Module: /mnt/sda5/.user/root/src/openwatcom-1.9/rel2/lib386/linux/clib3r.lib(mbislead.c)
080a5520*      _ismbblead_
08103204       ___MBCSIsTable
Module: /mnt/sda5/.user/root/src/openwatcom-1.9/rel2/lib386/linux/clib3r.lib(prtf.c)
080a5540       __prtf_
Module: /mnt/sda5/.user/root/src/openwatcom-1.9/rel2/lib386/linux/clib3r.lib(mbsinc.c)
080a6060       _mbsinc_
Module: /mnt/sda5/.user/root/src/openwatcom-1.9/rel2/lib386/linux/clib3r.lib(locale.c)
08101704       __LocaleSetting
Module: /mnt/sda5/.user/root/src/openwatcom-1.9/rel2/lib386/linux/clib3r.lib(_strcmp)
080a6090       strcmp_
Module: /mnt/sda5/.user/root/src/openwatcom-1.9/rel2/lib386/linux/clib3r.lib(utolower.c)
080a61ce       towlower_
Module: /mnt/sda5/.user/root/src/openwatcom-1.9/rel2/lib386/linux/clib3r.lib(uvsprint.c)
080a6206       vswprintf_
080a6241       _vswprintf_
Module: /mnt/sda5/.user/root/src/openwatcom-1.9/rel2/lib386/linux/clib3r.lib(mem.c)
080a6280       __MemAllocator
080a6330       __MemFree
Module: /mnt/sda5/.user/root/src/openwatcom-1.9/rel2/lib386/plbx3r.lib(stfdsgtn.cpp)
080a6470       W?do_sgetn$:streambuf$:std$n(pnai)i
Module: /mnt/sda5/.user/root/src/openwatcom-1.9/rel2/lib386/plbx3r.lib(stfdspun.cpp)
080a64f0       W?do_sputn$:streambuf$:std$n(pnxai)i
Module: /mnt/sda5/.user/root/src/openwatcom-1.9/rel2/lib386/plbx3r.lib(stfpbfai.cpp)
080a6590       W?pbackfail$:streambuf$:std$n(i)i
Module: /mnt/sda5/.user/root/src/openwatcom-1.9/rel2/lib386/plbx3r.lib(sdfoverf.cpp)
080a65a0       W?overflow$:stdiobuf$n(i)i
Module: /mnt/sda5/.user/root/src/openwatcom-1.9/rel2/lib386/plbx3r.lib(sdfundrf.cpp)
080a6700       W?underflow$:stdiobuf$n()i
Module: /mnt/sda5/.user/root/src/openwatcom-1.9/rel2/lib386/plbx3r.lib(stfsbuf.cpp)
080a6820       W?setbuf$:streambuf$:std$n(pnai)pn$1:2$
Module: /mnt/sda5/.user/root/src/openwatcom-1.9/rel2/lib386/plbx3r.lib(stfseeko.cpp)
080a6870       W?seekoff$:streambuf$:std$n(lii)l
Module: /mnt/sda5/.user/root/src/openwatcom-1.9/rel2/lib386/plbx3r.lib(stfseekp.cpp)
080a6880       W?seekpos$:streambuf$:std$n(li)l
Module: /mnt/sda5/.user/root/src/openwatcom-1.9/rel2/lib386/plbx3r.lib(sdfsync.cpp)
080a6890       W?sync$:stdiobuf$n()i
Module: /mnt/sda5/.user/root/src/openwatcom-1.9/rel2/lib386/plbx3r.lib(stfdoall.cpp)
080a68c0       W?doallocate$:streambuf$:std$n()i
Module: /mnt/sda5/.user/root/src/openwatcom-1.9/rel2/lib386/plbx3r.lib(stfconde.cpp)
081008dc       W?$Wvf0Jo19:streambuf$:std$$nx[]pn()v
080a6900       W?$ct:streambuf$:std$n()_
0810090c       W?$Wva0Io0:streambuf$:std$$nx[]uc
Module: /mnt/sda5/.user/root/src/openwatcom-1.9/rel2/lib386/plbx3r.lib(iosinit.cpp)
080a6950       W?init$:ios$:std$n(pn$streambuf$:2$)v
Module: /mnt/sda5/.user/root/src/openwatcom-1.9/rel2/lib386/plbx3r.lib(iosconde.cpp)
0810091c       W?$Wvf0Do19:ios$:std$$nx[]pn()v
080a69a0       W?$ct:ios$:std$n()_
08100924       W?$Wva0Co0:ios$:std$$nx[]uc
Module: /mnt/sda5/.user/root/src/openwatcom-1.9/rel2/lib386/plbx3r.lib(iosdestr.cpp)
08100960+      W?$Wts0Cn$ios$:std$$$nx[]uc
080a69b0       W?$dt:ios$:std$n()_
Module: /mnt/sda5/.user/root/src/openwatcom-1.9/rel2/lib386/plbx3r.lib(stfsync.cpp)
080a6a40       W?sync$:streambuf$:std$n()i
Module: /mnt/sda5/.user/root/src/openwatcom-1.9/rel2/lib386/plbx3r.lib(stfdestr.cpp)
080a6a80       W?$dt:streambuf$:std$n()_
Module: /mnt/sda5/.user/root/src/openwatcom-1.9/rel2/lib386/plbx3r.lib(opnewarr.cpp)
080a6aa0       W?$nan(ui)pnv
Module: /mnt/sda5/.user/root/src/openwatcom-1.9/rel2/lib386/plbx3r.lib(iosfail.cpp)
080a6ab0       W?$ct:failure$:ios$:std$n(i)_
Module: /mnt/sda5/.user/root/src/openwatcom-1.9/rel2/lib386/plbx3r.lib(bittest.cpp)
080a6ac0       __wcpp_4_bit_test__
080a6ae0       __wcpp_4_bit_off__
Module: /mnt/sda5/.user/root/src/openwatcom-1.9/rel2/lib386/plbx3r.lib(termnate.cpp)
080a6b00       W?terminate$:std$n()v
Module: /mnt/sda5/.user/root/src/openwatcom-1.9/rel2/lib386/plbx3r.lib(areaexc.cpp)
08101720       ___EXC_AREA
Module: /mnt/sda5/.user/root/src/openwatcom-1.9/rel2/lib386/plbx3r.lib(tssize.cpp)
080a6b54       __wcpp_4_ts_size__
Module: /mnt/sda5/.user/root/src/openwatcom-1.9/rel2/lib386/linux/clib3r.lib(enterdb.c)
080a6b90       __EnterWVIDEO_
08102720+      ___WD_Present
Module: /mnt/sda5/.user/root/src/openwatcom-1.9/rel2/lib386/linux/clib3r.lib(xmsglnx.c)
080a6bc0       __exit_with_msg_
080a6c10       __fatal_runtime_error_
Module: /mnt/sda5/.user/root/src/openwatcom-1.9/rel2/lib386/plbx3r.lib(ljmpdtor.cpp)
080a6c98       __wcpp_4_lj_handler__
Module: /mnt/sda5/.user/root/src/openwatcom-1.9/rel2/lib386/linux/clib3r.lib(mthrdini.c)
080a6ca0       __InitThreadData_
08102724*      ___ThreadDataSize
Module: /mnt/sda5/.user/root/src/openwatcom-1.9/rel2/lib386/linux/clib3r.lib(sys_exit.c)
080a6cb0       sys_exit_
Module: /mnt/sda5/.user/root/src/openwatcom-1.9/rel2/lib386/linux/clib3r.lib(nmemneed.c)
080a6cc0       __nmemneed_
Module: /mnt/sda5/.user/root/src/openwatcom-1.9/rel2/lib386/linux/clib3r.lib(grownear.c)
080a6d50+      __LastFree_
080a6dd0       __ExpandDGROUP_
Module: /mnt/sda5/.user/root/src/openwatcom-1.9/rel2/lib386/linux/clib3r.lib(dosseg)
00001234       __DOSseg__
Module: /mnt/sda5/.user/root/src/openwatcom-1.9/rel2/lib386/linux/clib3r.lib(sys_brk.c)
080a6ed0       sys_brk_
Module: /mnt/sda5/.user/root/src/openwatcom-1.9/rel2/lib386/linux/clib3r.lib(setenvp.c)
080a6ef0       __setenvp_
Module: /mnt/sda5/.user/root/src/openwatcom-1.9/rel2/lib386/linux/clib3r.lib(sys_open.c)
080a6f60       sys_open_
Module: /mnt/sda5/.user/root/src/openwatcom-1.9/rel2/lib386/linux/clib3r.lib(isattlnx.c)
080a6f90       isatty_
Module: /mnt/sda5/.user/root/src/openwatcom-1.9/rel2/lib386/linux/clib3r.lib(fsync.c)
080a6fd0       fsync_
Module: /mnt/sda5/.user/root/src/openwatcom-1.9/rel2/lib386/linux/clib3r.lib(flushall.c)
080a7000       __flushall_
080a7040       flushall_
Module: /mnt/sda5/.user/root/src/openwatcom-1.9/rel2/lib386/linux/clib3r.lib(write.c)
080a7050       write_
Module: /mnt/sda5/.user/root/src/openwatcom-1.9/rel2/lib386/linux/clib3r.lib(read.c)
080a7080       read_
Module: /mnt/sda5/.user/root/src/openwatcom-1.9/rel2/lib386/linux/clib3r.lib(mbinit.c)
080a70e5       __mbinit_
08102728+      ___MBCodePage
Module: /mnt/sda5/.user/root/src/openwatcom-1.9/rel2/lib386/linux/clib3r.lib(itoa.c)
080a7140+      utoa_
080a7190       itoa_
Module: /mnt/sda5/.user/root/src/openwatcom-1.9/rel2/lib386/linux/clib3r.lib(strupr.c)
080a71c0       strupr_
Module: /mnt/sda5/.user/root/src/openwatcom-1.9/rel2/lib386/linux/clib3r.lib(noefgfmt.c)
0810272c       ___EFG_printf
08102730*      ___EFG_scanf
Module: /mnt/sda5/.user/root/src/openwatcom-1.9/rel2/lib386/linux/clib3r.lib(lltoa.c)
080a7230       ulltoa_
080a72a0*      lltoa_
Module: /mnt/sda5/.user/root/src/openwatcom-1.9/rel2/lib386/linux/clib3r.lib(ltoa.c)
080a72d0       ultoa_
080a7320*      ltoa_
Module: /mnt/sda5/.user/root/src/openwatcom-1.9/rel2/lib386/linux/clib3r.lib(uprtf.c)
080a7344       __wprtf_
Module: /mnt/sda5/.user/root/src/openwatcom-1.9/rel2/lib386/plbx3r.lib(stfsetb.cpp)
080a7e30       W?setb$:streambuf$:std$n(pnapnai)v
Module: /mnt/sda5/.user/root/src/openwatcom-1.9/rel2/lib386/linux/clib3r.lib(liballoc.c)
080a7e90       _plib_malloc_
080a7ea0       _plib_free_
Module: /mnt/sda5/.user/root/src/openwatcom-1.9/rel2/lib386/plbx3r.lib(ioufrxal.cpp)
080a7eb0       W?free_xalloc_storage$:__WATCOM_ios$n(pn$ios$:std$$)v
Module: /mnt/sda5/.user/root/src/openwatcom-1.9/rel2/lib386/linux/clib3r.lib(heapen.c)
08102734       ___heap_enabled
Module: /mnt/sda5/.user/root/src/openwatcom-1.9/rel2/lib386/linux/clib3r.lib(tcgattr.c)
080a7ed0       tcgetattr_
Module: /mnt/sda5/.user/root/src/openwatcom-1.9/rel2/lib386/linux/clib3r.lib(alphabet.c)
080a9d50       ___Alphabet
Module: /mnt/sda5/.user/root/src/openwatcom-1.9/rel2/lib386/linux/clib3r.lib(uitoa.c)
080a7ee0+      _utow_
080a7f30       _itow_
Module: /mnt/sda5/.user/root/src/openwatcom-1.9/rel2/lib386/linux/clib3r.lib(ulltoa.c)
080a7f60       _ulltow_
080a7fd0*      _lltow_
Module: /mnt/sda5/.user/root/src/openwatcom-1.9/rel2/lib386/linux/clib3r.lib(ustrupr.c)
080a7ffd       _wcsupr_
Module: /mnt/sda5/.user/root/src/openwatcom-1.9/rel2/lib386/linux/clib3r.lib(ultoa.c)
080a8030       _ultow_
080a8090*      _ltow_
Module: /mnt/sda5/.user/root/src/openwatcom-1.9/rel2/lib386/linux/clib3r.lib(ioctl.c)
080a80c0       ioctl_


                        +--------------------+
                        |   Libraries Used   |
                        +--------------------+

/mnt/sda5/.user/root/src/openwatcom-1.9/rel2/lib386/linux/clib3r.lib
/mnt/sda5/.user/root/src/openwatcom-1.9/rel2/lib386/plbx3r.lib


                        +-----------------------+
                        |   Linker Statistics   |
                        +-----------------------+

Stack size:  1000 (4096.)
Memory size:  000ba332 (762674.)
Entry point address: 080a1bd2
Link time: 00:00.60
