Open Watcom Linker Version 1.9
Portions Copyright (c) 1985-2002 Sybase, Inc. All Rights Reserved.
Created on:       12/12/16 02:21:35
Executable Image: clbr19p.dll
creating a Windows NT character-mode dynamic link library


                        +------------+
                        |   Groups   |
                        +------------+

Group                           Address              Size
=====                           =======              ====

.idata                          6fe46000             00000d0e
DGROUP                          6fe47000             00076a00



                        +--------------+
                        |   Segments   |
                        +--------------+

Segment                Class          Group          Address         Size
=======                =====          =====          =======         ====

BEGTEXT                CODE           AUTO           6fe01000        00000007
_TEXT                  CODE           AUTO           6fe01010        000444ed
CODE32                 CODE           AUTO           6fe45500        00000575
TRANSFER CODE          CODE           AUTO           6fe45a78        000002dc
.idata                 .idata         .idata         6fe46000        00000d0e
_NULL                  BEGDATA        DGROUP         6fe47000        00000004
_AFTERNULL             BEGDATA        DGROUP         6fe47004        00000000
CONST                  DATA           DGROUP         6fe47004        00000064
CONST2                 DATA           DGROUP         6fe47068        00000000
_DATA                  DATA           DGROUP         6fe47070        00000c68
TIB                    DATA           DGROUP         6fe47cd8        00000000
TI                     DATA           DGROUP         6fe47cd8        00073330
TIE                    DATA           DGROUP         6febb008        00000000
XIB                    DATA           DGROUP         6febb008        00000000
XI                     DATA           DGROUP         6febb008        00000060
XIE                    DATA           DGROUP         6febb068        00000000
YIB                    DATA           DGROUP         6febb068        00000000
YI                     DATA           DGROUP         6febb068        0000003c
YIE                    DATA           DGROUP         6febb0a4        00000000
DATA                   DATA           DGROUP         6febb0a4        00000000
DATA32                 DATA           DGROUP         6febb0a4        0000030e
CONST32                CONST          DGROUP         6febc000        00000000
_BSS                   BSS            DGROUP         6febc000        000019fd
BSS32                  BSS            DGROUP         6febda00        00000000
STACK                  STACK          DGROUP         6febda00        00000000


                        +----------------+
                        |   Memory Map   |
                        +----------------+

* = unreferenced symbol
+ = symbol only referenced locally

Address        Symbol
=======        ======

Module: /mnt/sda5/.user/root/src/openwatcom-1.9/bld/clib/startup/library/winnt.386/mf_rp/clibdwnt.obj(/mnt/sda5/.user/root/src/openwatcom-1.9/bld/clib/startup/c/clibdwnt.c)
6fe01010       _LibMain@12
Module: /mnt/sda5/.user/root/src/openwatcom-1.9/bld/clib/startup/library/winnt.386/mf_rp/segdefns.obj(segdefns)
6fe01003       ___begtext
6fe47000*      __nullarea
6febb008       __Start_XI
6febb068       __End_XI
6febb068       __Start_YI
6febb0a4       __End_YI
Module: /mnt/sda5/.user/root/src/openwatcom-1.9/bld/clib/intel/library/winnt.386/mf_rp/p5prof2.obj(/mnt/sda5/.user/root/src/openwatcom-1.9/bld/clib/intel/c/p5prof2.c)
6febb008*      ___new_p5_profile_init
6febb068       __new_p5_profile
Module: /mnt/sda5/.user/root/src/openwatcom-1.9/bld/clib/intel/library/winnt.386/mf_rp/prfalloc.obj(/mnt/sda5/.user/root/src/openwatcom-1.9/bld/clib/intel/c/prfalloc.c)
6fe017d0       __ProfAlloc_
Module: /mnt/sda5/.user/root/src/openwatcom-1.9/bld/clib/intel/library/winnt.386/mf_rp/profilog.obj(/mnt/sda5/.user/root/src/openwatcom-1.9/bld/clib/intel/c/profilog.c)
6fe01890       __ProfEnterCriticalSection_
6fe018c0       __ProfExitCriticalSection_
6fe018f0       __ProfEnable_
6fe01940       __ProfDisable_
6fe01990       __P5_overhead_
6fe01aa0+      __ProfUnwind_
6fe01c10       __PON
6fe01d80       __POFF
6febc010+      ___ProfCriticalSection
6febc028+      __data_P5_overhead
6febc030+      ___prof_old_longjmp_handler
6febc034+      __data_ProfEnable
6febb00e*      ___new_p5_profilog_init
6febb06e*      ___new_p5_profilog_fini
Module: /mnt/sda5/.user/root/src/openwatcom-1.9/bld/clib/library/winnt.386/mf_rp/clib3r.lib(dstrt386)
6fe01ebc       __DLLstart_
6fe01ebc*      __DLLstartw_
6fe01ebc*      _DllMainCRTStartup@12
6fe01ebc*      _wDllMainCRTStartup@12
Module: /mnt/sda5/.user/root/src/openwatcom-1.9/bld/clib/library/winnt.386/mf_rp/clib3r.lib(_iaccess.asm)
6fe01f18       _access_
Module: /mnt/sda5/.user/root/src/openwatcom-1.9/bld/clib/library/winnt.386/mf_rp/clib3r.lib(_iatoi64.asm)
6fe01f20       _atoi64_
Module: /mnt/sda5/.user/root/src/openwatcom-1.9/bld/clib/library/winnt.386/mf_rp/clib3r.lib(_iclose_.asm)
6fe01f28       _close_
Module: /mnt/sda5/.user/root/src/openwatcom-1.9/bld/clib/library/winnt.386/mf_rp/clib3r.lib(_ichdir_.asm)
6fe01f30       _chdir_
Module: /mnt/sda5/.user/root/src/openwatcom-1.9/bld/clib/library/winnt.386/mf_rp/clib3r.lib(_ichmod_.asm)
6fe01f38       _chmod_
Module: /mnt/sda5/.user/root/src/openwatcom-1.9/bld/clib/library/winnt.386/mf_rp/clib3r.lib(_ichsize.asm)
6fe01f40       _chsize_
Module: /mnt/sda5/.user/root/src/openwatcom-1.9/bld/clib/library/winnt.386/mf_rp/clib3r.lib(_icreat_.asm)
6fe01f48       _creat_
Module: /mnt/sda5/.user/root/src/openwatcom-1.9/bld/clib/library/winnt.386/mf_rp/clib3r.lib(_icwait_.asm)
6fe01f50       _cwait_
Module: /mnt/sda5/.user/root/src/openwatcom-1.9/bld/clib/library/winnt.386/mf_rp/clib3r.lib(_idup___.asm)
6fe01f58       _dup_
Module: /mnt/sda5/.user/root/src/openwatcom-1.9/bld/clib/library/winnt.386/mf_rp/clib3r.lib(_idup2__.asm)
6fe01f60       _dup2_
Module: /mnt/sda5/.user/root/src/openwatcom-1.9/bld/clib/library/winnt.386/mf_rp/clib3r.lib(_ieof___.asm)
6fe01f68       _eof_
Module: /mnt/sda5/.user/root/src/openwatcom-1.9/bld/clib/library/winnt.386/mf_rp/clib3r.lib(_ifdopen.asm)
6fe01f70       _fdopen_
Module: /mnt/sda5/.user/root/src/openwatcom-1.9/bld/clib/library/winnt.386/mf_rp/clib3r.lib(_ifgetch.asm)
6fe01f78       _fgetchar_
Module: /mnt/sda5/.user/root/src/openwatcom-1.9/bld/clib/library/winnt.386/mf_rp/clib3r.lib(_ifgetwc.asm)
6fe01f80       _fgetwchar_
Module: /mnt/sda5/.user/root/src/openwatcom-1.9/bld/clib/library/winnt.386/mf_rp/clib3r.lib(_iflelen.asm)
6fe01f88       _filelength_
Module: /mnt/sda5/.user/root/src/openwatcom-1.9/bld/clib/library/winnt.386/mf_rp/clib3r.lib(_ifileno.asm)
6fe01f90       _fileno_
Module: /mnt/sda5/.user/root/src/openwatcom-1.9/bld/clib/library/winnt.386/mf_rp/clib3r.lib(_ifputch.asm)
6fe01f98       _fputchar_
Module: /mnt/sda5/.user/root/src/openwatcom-1.9/bld/clib/library/winnt.386/mf_rp/clib3r.lib(_ifputwc.asm)
6fe01fa0       _fputwchar_
Module: /mnt/sda5/.user/root/src/openwatcom-1.9/bld/clib/library/winnt.386/mf_rp/clib3r.lib(_ifstat_.asm)
6fe01fa8       _fstat_
Module: /mnt/sda5/.user/root/src/openwatcom-1.9/bld/clib/library/winnt.386/mf_rp/clib3r.lib(_iftime_.asm)
6fe01fb0       _ftime_
Module: /mnt/sda5/.user/root/src/openwatcom-1.9/bld/clib/library/winnt.386/mf_rp/clib3r.lib(_igetch_.asm)
6fe01fb8       _getch_
Module: /mnt/sda5/.user/root/src/openwatcom-1.9/bld/clib/library/winnt.386/mf_rp/clib3r.lib(_igetche.asm)
6fe01fc0       _getche_
Module: /mnt/sda5/.user/root/src/openwatcom-1.9/bld/clib/library/winnt.386/mf_rp/clib3r.lib(_igetcwd.asm)
6fe01fc8       _getcwd_
Module: /mnt/sda5/.user/root/src/openwatcom-1.9/bld/clib/library/winnt.386/mf_rp/clib3r.lib(_igetws_.asm)
6fe01fd0       _getws_
Module: /mnt/sda5/.user/root/src/openwatcom-1.9/bld/clib/library/winnt.386/mf_rp/clib3r.lib(_idopen_.asm)
6fe01fd8       _dopen_
Module: /mnt/sda5/.user/root/src/openwatcom-1.9/bld/clib/library/winnt.386/mf_rp/clib3r.lib(_iisatty.asm)
6fe01fe0       _isatty_
Module: /mnt/sda5/.user/root/src/openwatcom-1.9/bld/clib/library/winnt.386/mf_rp/clib3r.lib(_i_isasc.asm)
6fe01fe8       __isascii_
Module: /mnt/sda5/.user/root/src/openwatcom-1.9/bld/clib/library/winnt.386/mf_rp/clib3r.lib(_iiscsym.asm)
6fe01ff0       iscsym_
Module: /mnt/sda5/.user/root/src/openwatcom-1.9/bld/clib/library/winnt.386/mf_rp/clib3r.lib(_iiscsyf.asm)
6fe01ff8       iscsymf_
Module: /mnt/sda5/.user/root/src/openwatcom-1.9/bld/clib/library/winnt.386/mf_rp/clib3r.lib(_iismbbk.asm)
6fe02000       _ismbbkalnum_
Module: /mnt/sda5/.user/root/src/openwatcom-1.9/bld/clib/library/winnt.386/mf_rp/clib3r.lib(_iislead.asm)
6fe02008       isleadbyte_
Module: /mnt/sda5/.user/root/src/openwatcom-1.9/bld/clib/library/winnt.386/mf_rp/clib3r.lib(_iitoa__.asm)
6fe02010       _itoa_
Module: /mnt/sda5/.user/root/src/openwatcom-1.9/bld/clib/library/winnt.386/mf_rp/clib3r.lib(_iutoa__.asm)
6fe02018       _utoa_
Module: /mnt/sda5/.user/root/src/openwatcom-1.9/bld/clib/library/winnt.386/mf_rp/clib3r.lib(_ikbhit_.asm)
6fe02020       _kbhit_
Module: /mnt/sda5/.user/root/src/openwatcom-1.9/bld/clib/library/winnt.386/mf_rp/clib3r.lib(_ilockin.asm)
6fe02028       _locking_
Module: /mnt/sda5/.user/root/src/openwatcom-1.9/bld/clib/library/winnt.386/mf_rp/clib3r.lib(_ilseek_.asm)
6fe02030       _lseek_
Module: /mnt/sda5/.user/root/src/openwatcom-1.9/bld/clib/library/winnt.386/mf_rp/clib3r.lib(_iltoa__.asm)
6fe02038       _ltoa_
Module: /mnt/sda5/.user/root/src/openwatcom-1.9/bld/clib/library/winnt.386/mf_rp/clib3r.lib(_ii64toa.asm)
6fe02040       _i64toa_
Module: /mnt/sda5/.user/root/src/openwatcom-1.9/bld/clib/library/winnt.386/mf_rp/clib3r.lib(_illtoa_.asm)
6fe02048       _lltoa_
Module: /mnt/sda5/.user/root/src/openwatcom-1.9/bld/clib/library/winnt.386/mf_rp/clib3r.lib(_iultoa_.asm)
6fe02050       _ultoa_
Module: /mnt/sda5/.user/root/src/openwatcom-1.9/bld/clib/library/winnt.386/mf_rp/clib3r.lib(_iulltoa.asm)
6fe02058       _ulltoa_
Module: /mnt/sda5/.user/root/src/openwatcom-1.9/bld/clib/library/winnt.386/mf_rp/clib3r.lib(_iu64toa.asm)
6fe02060       _ui64toa_
Module: /mnt/sda5/.user/root/src/openwatcom-1.9/bld/clib/library/winnt.386/mf_rp/clib3r.lib(_istti64.asm)
6fe02068       _strtoi64_
Module: /mnt/sda5/.user/root/src/openwatcom-1.9/bld/clib/library/winnt.386/mf_rp/clib3r.lib(_isttu64.asm)
6fe02070       _strtoui64_
Module: /mnt/sda5/.user/root/src/openwatcom-1.9/bld/clib/library/winnt.386/mf_rp/clib3r.lib(_itccmp_.asm)
6fe02078       _tccmp_
Module: /mnt/sda5/.user/root/src/openwatcom-1.9/bld/clib/library/winnt.386/mf_rp/clib3r.lib(_itccpy_.asm)
6fe02080       _tccpy_
Module: /mnt/sda5/.user/root/src/openwatcom-1.9/bld/clib/library/winnt.386/mf_rp/clib3r.lib(_itclen_.asm)
6fe02088       _tclen_
Module: /mnt/sda5/.user/root/src/openwatcom-1.9/bld/clib/library/winnt.386/mf_rp/clib3r.lib(_itcschr.asm)
6fe02090       _tcschr_
Module: /mnt/sda5/.user/root/src/openwatcom-1.9/bld/clib/library/winnt.386/mf_rp/clib3r.lib(_imbscol.asm)
6fe02098       _mbscoll_
Module: /mnt/sda5/.user/root/src/openwatcom-1.9/bld/clib/library/winnt.386/mf_rp/clib3r.lib(_itcscmp.asm)
6fe020a0       _tcscmp_
Module: /mnt/sda5/.user/root/src/openwatcom-1.9/bld/clib/library/winnt.386/mf_rp/clib3r.lib(_itcscol.asm)
6fe020a8       _tcscoll_
Module: /mnt/sda5/.user/root/src/openwatcom-1.9/bld/clib/library/winnt.386/mf_rp/clib3r.lib(_itcscsp.asm)
6fe020b0       _tcscspn_
Module: /mnt/sda5/.user/root/src/openwatcom-1.9/bld/clib/library/winnt.386/mf_rp/clib3r.lib(_itcsdec.asm)
6fe020b8       _tcsdec_
Module: /mnt/sda5/.user/root/src/openwatcom-1.9/bld/clib/library/winnt.386/mf_rp/clib3r.lib(_imbsico.asm)
6fe020c0       _mbsicoll_
Module: /mnt/sda5/.user/root/src/openwatcom-1.9/bld/clib/library/winnt.386/mf_rp/clib3r.lib(_itcsicm.asm)
6fe020c8       _tcsicmp_
Module: /mnt/sda5/.user/root/src/openwatcom-1.9/bld/clib/library/winnt.386/mf_rp/clib3r.lib(_itcsico.asm)
6fe020d0       _tcsicoll_
Module: /mnt/sda5/.user/root/src/openwatcom-1.9/bld/clib/library/winnt.386/mf_rp/clib3r.lib(_itcsinc.asm)
6fe020d8       _tcsinc_
Module: /mnt/sda5/.user/root/src/openwatcom-1.9/bld/clib/library/winnt.386/mf_rp/clib3r.lib(_itcscle.asm)
6fe020e0       _tcsclen_
Module: /mnt/sda5/.user/root/src/openwatcom-1.9/bld/clib/library/winnt.386/mf_rp/clib3r.lib(_itcslwr.asm)
6fe020e8       _tcslwr_
Module: /mnt/sda5/.user/root/src/openwatcom-1.9/bld/clib/library/winnt.386/mf_rp/clib3r.lib(_itcsnbc.asm)
6fe020f0       _tcsnbcnt_
Module: /mnt/sda5/.user/root/src/openwatcom-1.9/bld/clib/library/winnt.386/mf_rp/clib3r.lib(_itcsnca.asm)
6fe020f8       _tcsncat_
Module: /mnt/sda5/.user/root/src/openwatcom-1.9/bld/clib/library/winnt.386/mf_rp/clib3r.lib(_imbsnbc.asm)
6fe02100       _mbsnbcoll_
Module: /mnt/sda5/.user/root/src/openwatcom-1.9/bld/clib/library/winnt.386/mf_rp/clib3r.lib(_itcsncm.asm)
6fe02108       _tcsncmp_
Module: /mnt/sda5/.user/root/src/openwatcom-1.9/bld/clib/library/winnt.386/mf_rp/clib3r.lib(_itcsnco.asm)
6fe02110       _tcsncoll_
Module: /mnt/sda5/.user/root/src/openwatcom-1.9/bld/clib/library/winnt.386/mf_rp/clib3r.lib(_itcsncp.asm)
6fe02118       _tcsncpy_
Module: /mnt/sda5/.user/root/src/openwatcom-1.9/bld/clib/library/winnt.386/mf_rp/clib3r.lib(_itcsncc.asm)
6fe02120       _tcsnccat_
Module: /mnt/sda5/.user/root/src/openwatcom-1.9/bld/clib/library/winnt.386/mf_rp/clib3r.lib(_itcnccm.asm)
6fe02128       _tcsnccmp_
Module: /mnt/sda5/.user/root/src/openwatcom-1.9/bld/clib/library/winnt.386/mf_rp/clib3r.lib(_itcnccn.asm)
6fe02130       _tcsnccnt_
Module: /mnt/sda5/.user/root/src/openwatcom-1.9/bld/clib/library/winnt.386/mf_rp/clib3r.lib(_imbsnco.asm)
6fe02138       _mbsncoll_
Module: /mnt/sda5/.user/root/src/openwatcom-1.9/bld/clib/library/winnt.386/mf_rp/clib3r.lib(_itcncco.asm)
6fe02140       _tcsnccoll_
Module: /mnt/sda5/.user/root/src/openwatcom-1.9/bld/clib/library/winnt.386/mf_rp/clib3r.lib(_itcnccp.asm)
6fe02148       _tcsnccpy_
Module: /mnt/sda5/.user/root/src/openwatcom-1.9/bld/clib/library/winnt.386/mf_rp/clib3r.lib(_imbsnic.asm)
6fe02150       _mbsnicoll_
Module: /mnt/sda5/.user/root/src/openwatcom-1.9/bld/clib/library/winnt.386/mf_rp/clib3r.lib(_itcsnci.asm)
6fe02158       _tcsncicmp_
Module: /mnt/sda5/.user/root/src/openwatcom-1.9/bld/clib/library/winnt.386/mf_rp/clib3r.lib(_itcncic.asm)
6fe02160       _tcsncicoll_
Module: /mnt/sda5/.user/root/src/openwatcom-1.9/bld/clib/library/winnt.386/mf_rp/clib3r.lib(_itcsncs.asm)
6fe02168       _tcsncset_
Module: /mnt/sda5/.user/root/src/openwatcom-1.9/bld/clib/library/winnt.386/mf_rp/clib3r.lib(_itcsnex.asm)
6fe02170       _tcsnextc_
Module: /mnt/sda5/.user/root/src/openwatcom-1.9/bld/clib/library/winnt.386/mf_rp/clib3r.lib(_imbsnbi.asm)
6fe02178       _mbsnbicoll_
Module: /mnt/sda5/.user/root/src/openwatcom-1.9/bld/clib/library/winnt.386/mf_rp/clib3r.lib(_itcsnic.asm)
6fe02180       _tcsnicmp_
Module: /mnt/sda5/.user/root/src/openwatcom-1.9/bld/clib/library/winnt.386/mf_rp/clib3r.lib(_itcnico.asm)
6fe02188       _tcsnicoll_
Module: /mnt/sda5/.user/root/src/openwatcom-1.9/bld/clib/library/winnt.386/mf_rp/clib3r.lib(_itcsnin.asm)
6fe02190       _tcsninc_
Module: /mnt/sda5/.user/root/src/openwatcom-1.9/bld/clib/library/winnt.386/mf_rp/clib3r.lib(_itcsnse.asm)
6fe02198       _tcsnset_
Module: /mnt/sda5/.user/root/src/openwatcom-1.9/bld/clib/library/winnt.386/mf_rp/clib3r.lib(_itcspbr.asm)
6fe021a0       _tcspbrk_
Module: /mnt/sda5/.user/root/src/openwatcom-1.9/bld/clib/library/winnt.386/mf_rp/clib3r.lib(_itcsrch.asm)
6fe021a8       _tcsrchr_
Module: /mnt/sda5/.user/root/src/openwatcom-1.9/bld/clib/library/winnt.386/mf_rp/clib3r.lib(_itcsrev.asm)
6fe021b0       _tcsrev_
Module: /mnt/sda5/.user/root/src/openwatcom-1.9/bld/clib/library/winnt.386/mf_rp/clib3r.lib(_itcsset.asm)
6fe021b8       _tcsset_
Module: /mnt/sda5/.user/root/src/openwatcom-1.9/bld/clib/library/winnt.386/mf_rp/clib3r.lib(_itcsspn.asm)
6fe021c0       _tcsspn_
Module: /mnt/sda5/.user/root/src/openwatcom-1.9/bld/clib/library/winnt.386/mf_rp/clib3r.lib(_itcspnp.asm)
6fe021c8       _tcsspnp_
Module: /mnt/sda5/.user/root/src/openwatcom-1.9/bld/clib/library/winnt.386/mf_rp/clib3r.lib(_itcsstr.asm)
6fe021d0       _tcsstr_
Module: /mnt/sda5/.user/root/src/openwatcom-1.9/bld/clib/library/winnt.386/mf_rp/clib3r.lib(_itcstok.asm)
6fe021d8       _tcstok_
Module: /mnt/sda5/.user/root/src/openwatcom-1.9/bld/clib/library/winnt.386/mf_rp/clib3r.lib(_itcsupr.asm)
6fe021e0       _tcsupr_
Module: /mnt/sda5/.user/root/src/openwatcom-1.9/bld/clib/library/winnt.386/mf_rp/clib3r.lib(_imemicm.asm)
6fe021e8       _memicmp_
Module: /mnt/sda5/.user/root/src/openwatcom-1.9/bld/clib/library/winnt.386/mf_rp/clib3r.lib(_imkdir_.asm)
6fe021f0       _mkdir_
Module: /mnt/sda5/.user/root/src/openwatcom-1.9/bld/clib/library/winnt.386/mf_rp/clib3r.lib(_iopen__.asm)
6fe021f8       _open_
Module: /mnt/sda5/.user/root/src/openwatcom-1.9/bld/clib/library/winnt.386/mf_rp/clib3r.lib(_iputenv.asm)
6fe02200       _putenv_
Module: /mnt/sda5/.user/root/src/openwatcom-1.9/bld/clib/library/winnt.386/mf_rp/clib3r.lib(_iputws_.asm)
6fe02208       _putws_
Module: /mnt/sda5/.user/root/src/openwatcom-1.9/bld/clib/library/winnt.386/mf_rp/clib3r.lib(_iread__.asm)
6fe02210       _read_
Module: /mnt/sda5/.user/root/src/openwatcom-1.9/bld/clib/library/winnt.386/mf_rp/clib3r.lib(_irmdir_.asm)
6fe02218       _rmdir_
Module: /mnt/sda5/.user/root/src/openwatcom-1.9/bld/clib/library/winnt.386/mf_rp/clib3r.lib(_isetmod.asm)
6fe02220       _setmode_
Module: /mnt/sda5/.user/root/src/openwatcom-1.9/bld/clib/library/winnt.386/mf_rp/clib3r.lib(_isopen_.asm)
6fe02228       _sopen_
Module: /mnt/sda5/.user/root/src/openwatcom-1.9/bld/clib/library/winnt.386/mf_rp/clib3r.lib(_istkavl.asm)
6fe02230       _stackavail_
Module: /mnt/sda5/.user/root/src/openwatcom-1.9/bld/clib/library/winnt.386/mf_rp/clib3r.lib(_istat__.asm)
6fe02238       _stat_
Module: /mnt/sda5/.user/root/src/openwatcom-1.9/bld/clib/library/winnt.386/mf_rp/clib3r.lib(_ilstat_.asm)
6fe02240       lstat_
Module: /mnt/sda5/.user/root/src/openwatcom-1.9/bld/clib/library/winnt.386/mf_rp/clib3r.lib(_istrdup.asm)
6fe02248       _strdup_
Module: /mnt/sda5/.user/root/src/openwatcom-1.9/bld/clib/library/winnt.386/mf_rp/clib3r.lib(_icstrdu.asm)
6fe02250       strdup_
Module: /mnt/sda5/.user/root/src/openwatcom-1.9/bld/clib/library/winnt.386/mf_rp/clib3r.lib(_icwcsdu.asm)
6fe02258       _wcsdup_
Module: /mnt/sda5/.user/root/src/openwatcom-1.9/bld/clib/library/winnt.386/mf_rp/clib3r.lib(_istrcmp.asm)
6fe02260       strcmpi_
Module: /mnt/sda5/.user/root/src/openwatcom-1.9/bld/clib/library/winnt.386/mf_rp/clib3r.lib(_istricm.asm)
6fe02268       _stricmp_
Module: /mnt/sda5/.user/root/src/openwatcom-1.9/bld/clib/library/winnt.386/mf_rp/clib3r.lib(_istrico.asm)
6fe02270       _stricoll_
Module: /mnt/sda5/.user/root/src/openwatcom-1.9/bld/clib/library/winnt.386/mf_rp/clib3r.lib(_istrlwr.asm)
6fe02278       _strlwr_
Module: /mnt/sda5/.user/root/src/openwatcom-1.9/bld/clib/library/winnt.386/mf_rp/clib3r.lib(_istrnco.asm)
6fe02280       _strncoll_
Module: /mnt/sda5/.user/root/src/openwatcom-1.9/bld/clib/library/winnt.386/mf_rp/clib3r.lib(_istrnic.asm)
6fe02288       _strnicmp_
Module: /mnt/sda5/.user/root/src/openwatcom-1.9/bld/clib/library/winnt.386/mf_rp/clib3r.lib(_istnico.asm)
6fe02290       _strnicoll_
Module: /mnt/sda5/.user/root/src/openwatcom-1.9/bld/clib/library/winnt.386/mf_rp/clib3r.lib(_istrnse.asm)
6fe02298       _strnset_
Module: /mnt/sda5/.user/root/src/openwatcom-1.9/bld/clib/library/winnt.386/mf_rp/clib3r.lib(_istrrev.asm)
6fe022a0       _strrev_
Module: /mnt/sda5/.user/root/src/openwatcom-1.9/bld/clib/library/winnt.386/mf_rp/clib3r.lib(_istrset.asm)
6fe022a8       _strset_
Module: /mnt/sda5/.user/root/src/openwatcom-1.9/bld/clib/library/winnt.386/mf_rp/clib3r.lib(_istrspn.asm)
6fe022b0       _strspnp_
Module: /mnt/sda5/.user/root/src/openwatcom-1.9/bld/clib/library/winnt.386/mf_rp/clib3r.lib(_istrupr.asm)
6fe022b8       _strupr_
Module: /mnt/sda5/.user/root/src/openwatcom-1.9/bld/clib/library/winnt.386/mf_rp/clib3r.lib(_istrcc_.asm)
6fe022c0       strcasecmp_
Module: /mnt/sda5/.user/root/src/openwatcom-1.9/bld/clib/library/winnt.386/mf_rp/clib3r.lib(_istrncc.asm)
6fe022c8       strncasecmp_
Module: /mnt/sda5/.user/root/src/openwatcom-1.9/bld/clib/library/winnt.386/mf_rp/clib3r.lib(_itell__.asm)
6fe022d0       _tell_
Module: /mnt/sda5/.user/root/src/openwatcom-1.9/bld/clib/library/winnt.386/mf_rp/clib3r.lib(_itolowe.asm)
6fe022d8       _tolower_
Module: /mnt/sda5/.user/root/src/openwatcom-1.9/bld/clib/library/winnt.386/mf_rp/clib3r.lib(_itouppe.asm)
6fe022e0       _toupper_
Module: /mnt/sda5/.user/root/src/openwatcom-1.9/bld/clib/library/winnt.386/mf_rp/clib3r.lib(_itzset_.asm)
6fe022e8       _tzset_
Module: /mnt/sda5/.user/root/src/openwatcom-1.9/bld/clib/library/winnt.386/mf_rp/clib3r.lib(_iufst64.asm)
6fe022f0       _wfstati64_
Module: /mnt/sda5/.user/root/src/openwatcom-1.9/bld/clib/library/winnt.386/mf_rp/clib3r.lib(_iufstat.asm)
6fe022f8       _wfstat_
Module: /mnt/sda5/.user/root/src/openwatcom-1.9/bld/clib/library/winnt.386/mf_rp/clib3r.lib(_iumask_.asm)
6fe02300       _umask_
Module: /mnt/sda5/.user/root/src/openwatcom-1.9/bld/clib/library/winnt.386/mf_rp/clib3r.lib(_iunlink.asm)
6fe02308       _unlink_
Module: /mnt/sda5/.user/root/src/openwatcom-1.9/bld/clib/library/winnt.386/mf_rp/clib3r.lib(_iutime_.asm)
6fe02310       _utime_
Module: /mnt/sda5/.user/root/src/openwatcom-1.9/bld/clib/library/winnt.386/mf_rp/clib3r.lib(_iwrite_.asm)
6fe02318       _write_
Module: /mnt/sda5/.user/root/src/openwatcom-1.9/bld/clib/library/winnt.386/mf_rp/clib3r.lib(_iw_acce.asm)
6fe02320       _w_access_
Module: /mnt/sda5/.user/root/src/openwatcom-1.9/bld/clib/library/winnt.386/mf_rp/clib3r.lib(_iwcscmp.asm)
6fe02328       wcscmpi_
Module: /mnt/sda5/.user/root/src/openwatcom-1.9/bld/clib/library/winnt.386/mf_rp/clib3r.lib(_iwcsico.asm)
6fe02330       _wcsicoll_
Module: /mnt/sda5/.user/root/src/openwatcom-1.9/bld/clib/library/winnt.386/mf_rp/clib3r.lib(_iwcsnco.asm)
6fe02338       _wcsncoll_
Module: /mnt/sda5/.user/root/src/openwatcom-1.9/bld/clib/library/winnt.386/mf_rp/clib3r.lib(_iwcnico.asm)
6fe02340       _wcsnicoll_
Module: /mnt/sda5/.user/root/src/openwatcom-1.9/bld/clib/library/winnt.386/mf_rp/clib3r.lib(_iw_fsop.asm)
6fe02348       _w_fsopen_
Module: /mnt/sda5/.user/root/src/openwatcom-1.9/bld/clib/library/winnt.386/mf_rp/clib3r.lib(_iw_full.asm)
6fe02350       _w_fullpath_
Module: /mnt/sda5/.user/root/src/openwatcom-1.9/bld/clib/library/winnt.386/mf_rp/clib3r.lib(_iitow__.asm)
6fe02358       _witoa_
Module: /mnt/sda5/.user/root/src/openwatcom-1.9/bld/clib/library/winnt.386/mf_rp/clib3r.lib(_iltow__.asm)
6fe02360       _wltoa_
Module: /mnt/sda5/.user/root/src/openwatcom-1.9/bld/clib/library/winnt.386/mf_rp/clib3r.lib(_iw_make.asm)
6fe02368       _w_makepath_
Module: /mnt/sda5/.user/root/src/openwatcom-1.9/bld/clib/library/winnt.386/mf_rp/clib3r.lib(_iw_spli.asm)
6fe02370       _w_splitpath_
Module: /mnt/sda5/.user/root/src/openwatcom-1.9/bld/clib/library/winnt.386/mf_rp/clib3r.lib(_iw_spl2.asm)
6fe02378       _w_splitpath2_
Module: /mnt/sda5/.user/root/src/openwatcom-1.9/bld/clib/library/winnt.386/mf_rp/clib3r.lib(_iwtoi__.asm)
6fe02380       _watoi_
Module: /mnt/sda5/.user/root/src/openwatcom-1.9/bld/clib/library/winnt.386/mf_rp/clib3r.lib(_iwtol__.asm)
6fe02388       _watol_
Module: /mnt/sda5/.user/root/src/openwatcom-1.9/bld/clib/library/winnt.386/mf_rp/clib3r.lib(_iultow_.asm)
6fe02390       _wultoa_
Module: /mnt/sda5/.user/root/src/openwatcom-1.9/bld/clib/library/winnt.386/mf_rp/clib3r.lib(_iutow__.asm)
6fe02398       _wutoa_
Module: /mnt/sda5/.user/root/src/openwatcom-1.9/bld/clib/library/winnt.386/mf_rp/clib3r.lib(isalnum.c)
6fe023a0       isalnum_
Module: /mnt/sda5/.user/root/src/openwatcom-1.9/bld/clib/library/winnt.386/mf_rp/clib3r.lib(isalpha.c)
6fe023d0       isalpha_
Module: /mnt/sda5/.user/root/src/openwatcom-1.9/bld/clib/library/winnt.386/mf_rp/clib3r.lib(isascii.c)
6fe02400       isascii_
Module: /mnt/sda5/.user/root/src/openwatcom-1.9/bld/clib/library/winnt.386/mf_rp/clib3r.lib(isblank.c)
6fe02420       isblank_
Module: /mnt/sda5/.user/root/src/openwatcom-1.9/bld/clib/library/winnt.386/mf_rp/clib3r.lib(iscntrl.c)
6fe02460       iscntrl_
Module: /mnt/sda5/.user/root/src/openwatcom-1.9/bld/clib/library/winnt.386/mf_rp/clib3r.lib(iscsym.c)
6fe02490       __iscsym_
Module: /mnt/sda5/.user/root/src/openwatcom-1.9/bld/clib/library/winnt.386/mf_rp/clib3r.lib(iscsymf.c)
6fe024e0       __iscsymf_
Module: /mnt/sda5/.user/root/src/openwatcom-1.9/bld/clib/library/winnt.386/mf_rp/clib3r.lib(isdigit.c)
6fe02530       isdigit_
Module: /mnt/sda5/.user/root/src/openwatcom-1.9/bld/clib/library/winnt.386/mf_rp/clib3r.lib(isgraph.c)
6fe02560       isgraph_
Module: /mnt/sda5/.user/root/src/openwatcom-1.9/bld/clib/library/winnt.386/mf_rp/clib3r.lib(islower.c)
6fe025a0       islower_
Module: /mnt/sda5/.user/root/src/openwatcom-1.9/bld/clib/library/winnt.386/mf_rp/clib3r.lib(isprint.c)
6fe025d0       isprint_
Module: /mnt/sda5/.user/root/src/openwatcom-1.9/bld/clib/library/winnt.386/mf_rp/clib3r.lib(ispunct.c)
6fe02600       ispunct_
Module: /mnt/sda5/.user/root/src/openwatcom-1.9/bld/clib/library/winnt.386/mf_rp/clib3r.lib(isspace.c)
6fe02630       isspace_
Module: /mnt/sda5/.user/root/src/openwatcom-1.9/bld/clib/library/winnt.386/mf_rp/clib3r.lib(istable.c)
6fe02660       __IsTable
Module: /mnt/sda5/.user/root/src/openwatcom-1.9/bld/clib/library/winnt.386/mf_rp/clib3r.lib(isupper.c)
6fe02770       isupper_
Module: /mnt/sda5/.user/root/src/openwatcom-1.9/bld/clib/library/winnt.386/mf_rp/clib3r.lib(iswctype.c)
6fe027d0       iswctype_
Module: /mnt/sda5/.user/root/src/openwatcom-1.9/bld/clib/library/winnt.386/mf_rp/clib3r.lib(isxdigit.c)
6fe02950       isxdigit_
Module: /mnt/sda5/.user/root/src/openwatcom-1.9/bld/clib/library/winnt.386/mf_rp/clib3r.lib(tolower.c)
6fe02980       tolower_
Module: /mnt/sda5/.user/root/src/openwatcom-1.9/bld/clib/library/winnt.386/mf_rp/clib3r.lib(toupper.c)
6fe029b0       toupper_
Module: /mnt/sda5/.user/root/src/openwatcom-1.9/bld/clib/library/winnt.386/mf_rp/clib3r.lib(towctrns.c)
6fe029e0       towctrans_
Module: /mnt/sda5/.user/root/src/openwatcom-1.9/bld/clib/library/winnt.386/mf_rp/clib3r.lib(wctrans.c)
6fe02a40       wctrans_
Module: /mnt/sda5/.user/root/src/openwatcom-1.9/bld/clib/library/winnt.386/mf_rp/clib3r.lib(uisalnum.c)
6fe02aab       iswalnum_
Module: /mnt/sda5/.user/root/src/openwatcom-1.9/bld/clib/library/winnt.386/mf_rp/clib3r.lib(uisalpha.c)
6fe02ae2       iswalpha_
Module: /mnt/sda5/.user/root/src/openwatcom-1.9/bld/clib/library/winnt.386/mf_rp/clib3r.lib(uisascii.c)
6fe02b19       iswascii_
Module: /mnt/sda5/.user/root/src/openwatcom-1.9/bld/clib/library/winnt.386/mf_rp/clib3r.lib(uisblank.c)
6fe02b40       iswblank_
Module: /mnt/sda5/.user/root/src/openwatcom-1.9/bld/clib/library/winnt.386/mf_rp/clib3r.lib(uiscntrl.c)
6fe02b78       iswcntrl_
Module: /mnt/sda5/.user/root/src/openwatcom-1.9/bld/clib/library/winnt.386/mf_rp/clib3r.lib(uiscsym.c)
6fe02bad       __iswcsym_
Module: /mnt/sda5/.user/root/src/openwatcom-1.9/bld/clib/library/winnt.386/mf_rp/clib3r.lib(uiscsymf.c)
6fe02bf6       __iswcsymf_
Module: /mnt/sda5/.user/root/src/openwatcom-1.9/bld/clib/library/winnt.386/mf_rp/clib3r.lib(uisdigit.c)
6fe02c3f       iswdigit_
Module: /mnt/sda5/.user/root/src/openwatcom-1.9/bld/clib/library/winnt.386/mf_rp/clib3r.lib(uisgraph.c)
6fe02c74       iswgraph_
Module: /mnt/sda5/.user/root/src/openwatcom-1.9/bld/clib/library/winnt.386/mf_rp/clib3r.lib(uislower.c)
6fe02cb2       iswlower_
Module: /mnt/sda5/.user/root/src/openwatcom-1.9/bld/clib/library/winnt.386/mf_rp/clib3r.lib(uisprint.c)
6fe02ce9       iswprint_
Module: /mnt/sda5/.user/root/src/openwatcom-1.9/bld/clib/library/winnt.386/mf_rp/clib3r.lib(uispunct.c)
6fe02d1e       iswpunct_
Module: /mnt/sda5/.user/root/src/openwatcom-1.9/bld/clib/library/winnt.386/mf_rp/clib3r.lib(uisspace.c)
6fe02d53       iswspace_
Module: /mnt/sda5/.user/root/src/openwatcom-1.9/bld/clib/library/winnt.386/mf_rp/clib3r.lib(uisupper.c)
6fe02d88       iswupper_
Module: /mnt/sda5/.user/root/src/openwatcom-1.9/bld/clib/library/winnt.386/mf_rp/clib3r.lib(uisxdig.c)
6fe02dbd       iswxdigit_
Module: /mnt/sda5/.user/root/src/openwatcom-1.9/bld/clib/library/winnt.386/mf_rp/clib3r.lib(utolower.c)
6fe02df2       towlower_
Module: /mnt/sda5/.user/root/src/openwatcom-1.9/bld/clib/library/winnt.386/mf_rp/clib3r.lib(utoupper.c)
6fe02e18       towupper_
Module: /mnt/sda5/.user/root/src/openwatcom-1.9/bld/clib/library/winnt.386/mf_rp/clib3r.lib(wctype.c)
6fe02e90       wctype_
Module: /mnt/sda5/.user/root/src/openwatcom-1.9/bld/clib/library/winnt.386/mf_rp/clib3r.lib(cgetswnt.c)
6fe03090       cgets_
Module: /mnt/sda5/.user/root/src/openwatcom-1.9/bld/clib/library/winnt.386/mf_rp/clib3r.lib(cprintf.c)
6fe03210       vcprintf_
6fe03240       cprintf_
Module: /mnt/sda5/.user/root/src/openwatcom-1.9/bld/clib/library/winnt.386/mf_rp/clib3r.lib(cputs.c)
6fe03280       cputs_
Module: /mnt/sda5/.user/root/src/openwatcom-1.9/bld/clib/library/winnt.386/mf_rp/clib3r.lib(cscanf.c)
6fe03320       vcscanf_
6fe03360       cscanf_
Module: /mnt/sda5/.user/root/src/openwatcom-1.9/bld/clib/library/winnt.386/mf_rp/clib3r.lib(getchwnt.c)
6fe034c0       getch_
Module: /mnt/sda5/.user/root/src/openwatcom-1.9/bld/clib/library/winnt.386/mf_rp/clib3r.lib(gtchewnt.c)
6fe03570       getche_
Module: /mnt/sda5/.user/root/src/openwatcom-1.9/bld/clib/library/winnt.386/mf_rp/clib3r.lib(kbhitwnt.c)
6fe035d0       kbhit_
Module: /mnt/sda5/.user/root/src/openwatcom-1.9/bld/clib/library/winnt.386/mf_rp/clib3r.lib(putchwnt.c)
6fe03680       putch_
Module: /mnt/sda5/.user/root/src/openwatcom-1.9/bld/clib/library/winnt.386/mf_rp/clib3r.lib(ungetch.c)
6fe03700       ungetch_
Module: /mnt/sda5/.user/root/src/openwatcom-1.9/bld/clib/library/winnt.386/mf_rp/clib3r.lib(atoi.c)
6fe03740       atoi_
Module: /mnt/sda5/.user/root/src/openwatcom-1.9/bld/clib/library/winnt.386/mf_rp/clib3r.lib(atol.c)
6fe037a0       atol_
Module: /mnt/sda5/.user/root/src/openwatcom-1.9/bld/clib/library/winnt.386/mf_rp/clib3r.lib(atoll.c)
6fe03800       atoll_
Module: /mnt/sda5/.user/root/src/openwatcom-1.9/bld/clib/library/winnt.386/mf_rp/clib3r.lib(atouni.c)
6fe03890       _atouni_
Module: /mnt/sda5/.user/root/src/openwatcom-1.9/bld/clib/library/winnt.386/mf_rp/clib3r.lib(itoa.c)
6fe038f0       utoa_
6fe03960       itoa_
Module: /mnt/sda5/.user/root/src/openwatcom-1.9/bld/clib/library/winnt.386/mf_rp/clib3r.lib(lltoa.c)
6fe039a0       ulltoa_
6fe03a20       lltoa_
Module: /mnt/sda5/.user/root/src/openwatcom-1.9/bld/clib/library/winnt.386/mf_rp/clib3r.lib(ltoa.c)
6fe03a60       ultoa_
6fe03ad0       ltoa_
Module: /mnt/sda5/.user/root/src/openwatcom-1.9/bld/clib/library/winnt.386/mf_rp/clib3r.lib(strtol.c)
6fe03db0       strtoul_
6fe03de0       strtol_
Module: /mnt/sda5/.user/root/src/openwatcom-1.9/bld/clib/library/winnt.386/mf_rp/clib3r.lib(strtoll.c)
6fe04110       strtoull_
6fe04140       strtoll_
6fe04170       strtoumax_
6fe041a0       strtoimax_
Module: /mnt/sda5/.user/root/src/openwatcom-1.9/bld/clib/library/winnt.386/mf_rp/clib3r.lib(uatoi.c)
6fe041d0       _wtoi_
Module: /mnt/sda5/.user/root/src/openwatcom-1.9/bld/clib/library/winnt.386/mf_rp/clib3r.lib(uatol.c)
6fe04250       _wtol_
Module: /mnt/sda5/.user/root/src/openwatcom-1.9/bld/clib/library/winnt.386/mf_rp/clib3r.lib(uatoll.c)
6fe042d0       _wtoll_
Module: /mnt/sda5/.user/root/src/openwatcom-1.9/bld/clib/library/winnt.386/mf_rp/clib3r.lib(uitoa.c)
6fe04370       _utow_
6fe043e0       _itow_
Module: /mnt/sda5/.user/root/src/openwatcom-1.9/bld/clib/library/winnt.386/mf_rp/clib3r.lib(ulltoa.c)
6fe04420       _ulltow_
6fe044b0       _lltow_
Module: /mnt/sda5/.user/root/src/openwatcom-1.9/bld/clib/library/winnt.386/mf_rp/clib3r.lib(ultoa.c)
6fe044f0       _ultow_
6fe04560       _ltow_
Module: /mnt/sda5/.user/root/src/openwatcom-1.9/bld/clib/library/winnt.386/mf_rp/clib3r.lib(ustrtol.c)
6fe04870       wcstoul_
6fe048a0       wcstol_
Module: /mnt/sda5/.user/root/src/openwatcom-1.9/bld/clib/library/winnt.386/mf_rp/clib3r.lib(ustrtoll.c)
6fe04c00       wcstoull_
6fe04c30       wcstoll_
6fe04c60       wcstoumax_
6fe04c90       wcstoimax_
Module: /mnt/sda5/.user/root/src/openwatcom-1.9/bld/clib/library/winnt.386/mf_rp/clib3r.lib(fdmd386)
6fe04cb8       _dieeetomsbin_
Module: /mnt/sda5/.user/root/src/openwatcom-1.9/bld/clib/library/winnt.386/mf_rp/clib3r.lib(fsms386)
6fe04d14       _fieeetomsbin_
Module: /mnt/sda5/.user/root/src/openwatcom-1.9/bld/clib/library/winnt.386/mf_rp/clib3r.lib(mdfd386)
6fe04d64       _dmsbintoieee_
Module: /mnt/sda5/.user/root/src/openwatcom-1.9/bld/clib/library/winnt.386/mf_rp/clib3r.lib(msfs386)
6fe04db8       _fmsbintoieee_
Module: /mnt/sda5/.user/root/src/openwatcom-1.9/bld/clib/library/winnt.386/mf_rp/clib3r.lib(nodefwin.c)
6fe473c8*      __WindowsIsWindowedHandle
6fe473cc*      __WindowsRemoveWindowedHandle
6fe473d0*      __WindowsNewWindow
6fe473d4*      __WindowsCloseWindow
6fe473d8*      __WindowsSetAbout
6fe473dc*      __WindowsSetAppTitle
6fe473e0*      __WindowsSetConTitle
6fe473e4*      __WindowsDestroyOnClose
6fe473e8*      __WindowsYieldControl
6fe473ec*      __WindowsShutDown
6fe473f0*      __WindowsStdin
6fe473f4*      __WindowsStdout
6fe473f8*      __WindowsKbhit
6fe473fc*      __WindowsGetch
6fe47400*      __WindowsGetche
6fe47404*      __WindowsPutch
6fe04e00       _dwDeleteOnClose_
6fe04e20       _dwSetAboutDlg_
6fe04e40       _dwSetAppTitle_
6fe04e60       _dwSetConTitle_
6fe04e80       _dwYield_
6fe04ea0       _dwShutDown_
6fe47408*      __WindowsExitRtn
6febc044*      __init_default_win
Module: /mnt/sda5/.user/root/src/openwatcom-1.9/bld/clib/library/winnt.386/mf_rp/clib3r.lib(chdirwnt.c)
6fe04ec0       chdir_
Module: /mnt/sda5/.user/root/src/openwatcom-1.9/bld/clib/library/winnt.386/mf_rp/clib3r.lib(chdrive.c)
6fe04f10       _chdrive_
Module: /mnt/sda5/.user/root/src/openwatcom-1.9/bld/clib/library/winnt.386/mf_rp/clib3r.lib(dirwnt.c)
6fe05030       __opendir_
6fe050f0       _opendir_
6fe052d0       opendir_
6fe05300       readdir_
6fe053d0       closedir_
6fe05460       rewinddir_
Module: /mnt/sda5/.user/root/src/openwatcom-1.9/bld/clib/library/winnt.386/mf_rp/clib3r.lib(diskfree.c)
6fe054c0       _getdiskfree_
Module: /mnt/sda5/.user/root/src/openwatcom-1.9/bld/clib/library/winnt.386/mf_rp/clib3r.lib(getdrive.c)
6fe054e0       _getdrive_
Module: /mnt/sda5/.user/root/src/openwatcom-1.9/bld/clib/library/winnt.386/mf_rp/clib3r.lib(gtcwdwnt.c)
6fe05510       getcwd_
Module: /mnt/sda5/.user/root/src/openwatcom-1.9/bld/clib/library/winnt.386/mf_rp/clib3r.lib(getdcwd.c)
6fe055d0       _getdcwd_
Module: /mnt/sda5/.user/root/src/openwatcom-1.9/bld/clib/library/winnt.386/mf_rp/clib3r.lib(mkdirwnt.c)
6fe05680       mkdir_
Module: /mnt/sda5/.user/root/src/openwatcom-1.9/bld/clib/library/winnt.386/mf_rp/clib3r.lib(rmdirwnt.c)
6fe056d0       rmdir_
Module: /mnt/sda5/.user/root/src/openwatcom-1.9/bld/clib/library/winnt.386/mf_rp/clib3r.lib(uchdrwnt.c)
6fe05720       _wchdir_
Module: /mnt/sda5/.user/root/src/openwatcom-1.9/bld/clib/library/winnt.386/mf_rp/clib3r.lib(udirwnt.c)
6fe05820       _w__opendir_
6fe058e0       _w_opendir_
6fe05ac0       _wopendir_
6fe05af0       _wreaddir_
6fe05be0       _wclosedir_
6fe05c70       _wrewinddir_
Module: /mnt/sda5/.user/root/src/openwatcom-1.9/bld/clib/library/winnt.386/mf_rp/clib3r.lib(ugetdcwd.c)
6fe05cd0       _wgetdcwd_
Module: /mnt/sda5/.user/root/src/openwatcom-1.9/bld/clib/library/winnt.386/mf_rp/clib3r.lib(ugtcdwnt.c)
6fe05d80       _wgetcwd_
Module: /mnt/sda5/.user/root/src/openwatcom-1.9/bld/clib/library/winnt.386/mf_rp/clib3r.lib(umkdrwnt.c)
6fe05e40       _wmkdir_
Module: /mnt/sda5/.user/root/src/openwatcom-1.9/bld/clib/library/winnt.386/mf_rp/clib3r.lib(urmdrwnt.c)
6fe05e90       _wrmdir_
Module: /mnt/sda5/.user/root/src/openwatcom-1.9/bld/clib/library/winnt.386/mf_rp/clib3r.lib(clearenv.c)
6fe05ed0       clearenv_
Module: /mnt/sda5/.user/root/src/openwatcom-1.9/bld/clib/library/winnt.386/mf_rp/clib3r.lib(environ.c)
6febc048       ___env_mask
6febc04c       _environ
6febc050       __wenviron
Module: /mnt/sda5/.user/root/src/openwatcom-1.9/bld/clib/library/winnt.386/mf_rp/clib3r.lib(envptr.c)
6fe05f90       __get_environ_ptr_
Module: /mnt/sda5/.user/root/src/openwatcom-1.9/bld/clib/library/winnt.386/mf_rp/clib3r.lib(getenv.c)
6fe05fb0       getenv_
Module: /mnt/sda5/.user/root/src/openwatcom-1.9/bld/clib/library/winnt.386/mf_rp/clib3r.lib(getenv_s.c)
6fe060d0       getenv_s_
Module: /mnt/sda5/.user/root/src/openwatcom-1.9/bld/clib/library/winnt.386/mf_rp/clib3r.lib(gtcmd.c)
6fe06240       _bgetcmd_
6fe062e0       getcmd_
Module: /mnt/sda5/.user/root/src/openwatcom-1.9/bld/clib/library/winnt.386/mf_rp/clib3r.lib(gtpidwnt.c)
6fe06310       getpid_
Module: /mnt/sda5/.user/root/src/openwatcom-1.9/bld/clib/library/winnt.386/mf_rp/clib3r.lib(isattwnt.c)
6fe06340       isatty_
Module: /mnt/sda5/.user/root/src/openwatcom-1.9/bld/clib/library/winnt.386/mf_rp/clib3r.lib(putenv.c)
6fe06380       putenv_
6fe066d0       __putenv_
Module: /mnt/sda5/.user/root/src/openwatcom-1.9/bld/clib/library/winnt.386/mf_rp/clib3r.lib(searchen.c)
6fe068a0       _searchenv_
Module: /mnt/sda5/.user/root/src/openwatcom-1.9/bld/clib/library/winnt.386/mf_rp/clib3r.lib(setenv.c)
6fe06a40       setenv_
6fe06df0       _setenv_
Module: /mnt/sda5/.user/root/src/openwatcom-1.9/bld/clib/library/winnt.386/mf_rp/clib3r.lib(ugetenv.c)
6fe07090       _wgetenv_
Module: /mnt/sda5/.user/root/src/openwatcom-1.9/bld/clib/library/winnt.386/mf_rp/clib3r.lib(uputenv.c)
6fe07140       _wputenv_
6fe07420       __wputenv_
Module: /mnt/sda5/.user/root/src/openwatcom-1.9/bld/clib/library/winnt.386/mf_rp/clib3r.lib(usrchen.c)
6fe07550       _wsearchenv_
Module: /mnt/sda5/.user/root/src/openwatcom-1.9/bld/clib/library/winnt.386/mf_rp/clib3r.lib(usetenv.c)
6fe07740       _wsetenv_
6fe07a40       __wsetenv_
Module: /mnt/sda5/.user/root/src/openwatcom-1.9/bld/clib/library/winnt.386/mf_rp/clib3r.lib(wenvptr.c)
6fe07c30       __get_wenviron_ptr_
Module: /mnt/sda5/.user/root/src/openwatcom-1.9/bld/clib/library/winnt.386/mf_rp/clib3r.lib(64findfi.c)
6fe07c50       _findfirsti64_
6fe07d00       __nt_finddatai64_cvt_
Module: /mnt/sda5/.user/root/src/openwatcom-1.9/bld/clib/library/winnt.386/mf_rp/clib3r.lib(64findne.c)
6fe07e20       _findnexti64_
Module: /mnt/sda5/.user/root/src/openwatcom-1.9/bld/clib/library/winnt.386/mf_rp/clib3r.lib(64stawnt.c)
6fe08040       _stati64_
Module: /mnt/sda5/.user/root/src/openwatcom-1.9/bld/clib/library/winnt.386/mf_rp/clib3r.lib(accsswnt.c)
6fe083d0       access_
Module: /mnt/sda5/.user/root/src/openwatcom-1.9/bld/clib/library/winnt.386/mf_rp/clib3r.lib(chmodwnt.c)
6fe08430       chmod_
Module: /mnt/sda5/.user/root/src/openwatcom-1.9/bld/clib/library/winnt.386/mf_rp/clib3r.lib(findclos.c)
6fe084a0       _findclose_
Module: /mnt/sda5/.user/root/src/openwatcom-1.9/bld/clib/library/winnt.386/mf_rp/clib3r.lib(findfirs.c)
6fe084e0       _findfirst_
6fe08590       __nt_finddata_cvt_
Module: /mnt/sda5/.user/root/src/openwatcom-1.9/bld/clib/library/winnt.386/mf_rp/clib3r.lib(findnext.c)
6fe086b0       _findnext_
Module: /mnt/sda5/.user/root/src/openwatcom-1.9/bld/clib/library/winnt.386/mf_rp/clib3r.lib(mkstemp.c)
6fe087c0       mkstemp_
Module: /mnt/sda5/.user/root/src/openwatcom-1.9/bld/clib/library/winnt.386/mf_rp/clib3r.lib(mktemp.c)
6fe08930       _mktemp_
Module: /mnt/sda5/.user/root/src/openwatcom-1.9/bld/clib/library/winnt.386/mf_rp/clib3r.lib(remove.c)
6fe08a00       remove_
Module: /mnt/sda5/.user/root/src/openwatcom-1.9/bld/clib/library/winnt.386/mf_rp/clib3r.lib(renamwnt.c)
6fe08a20       rename_
Module: /mnt/sda5/.user/root/src/openwatcom-1.9/bld/clib/library/winnt.386/mf_rp/clib3r.lib(statwnt.c)
6fe08baa       stat_
Module: /mnt/sda5/.user/root/src/openwatcom-1.9/bld/clib/library/winnt.386/mf_rp/clib3r.lib(tempnam.c)
6fe09080       _tempnam_
Module: /mnt/sda5/.user/root/src/openwatcom-1.9/bld/clib/library/winnt.386/mf_rp/clib3r.lib(tmpnm.c)
6fe091d0       tmpnam_
Module: /mnt/sda5/.user/root/src/openwatcom-1.9/bld/clib/library/winnt.386/mf_rp/clib3r.lib(tmpnm_s.c)
6fe09340       tmpnam_s_
Module: /mnt/sda5/.user/root/src/openwatcom-1.9/bld/clib/library/winnt.386/mf_rp/clib3r.lib(u64findf.c)
6fe09420       _wfindfirsti64_
6fe094d0       __nt_wfinddatai64_cvt_
Module: /mnt/sda5/.user/root/src/openwatcom-1.9/bld/clib/library/winnt.386/mf_rp/clib3r.lib(u64findn.c)
6fe095e0       _wfindnexti64_
Module: /mnt/sda5/.user/root/src/openwatcom-1.9/bld/clib/library/winnt.386/mf_rp/clib3r.lib(u64stwnt.c)
6fe09850       _wstati64_
Module: /mnt/sda5/.user/root/src/openwatcom-1.9/bld/clib/library/winnt.386/mf_rp/clib3r.lib(uaccswnt.c)
6fe09be0       _waccess_
Module: /mnt/sda5/.user/root/src/openwatcom-1.9/bld/clib/library/winnt.386/mf_rp/clib3r.lib(uchmdwnt.c)
6fe09c40       _wchmod_
Module: /mnt/sda5/.user/root/src/openwatcom-1.9/bld/clib/library/winnt.386/mf_rp/clib3r.lib(ufindfir.c)
6fe09cc0       _wfindfirst_
6fe09d70       __nt_wfinddata_cvt_
Module: /mnt/sda5/.user/root/src/openwatcom-1.9/bld/clib/library/winnt.386/mf_rp/clib3r.lib(ufindnex.c)
6fe09e70       _wfindnext_
Module: /mnt/sda5/.user/root/src/openwatcom-1.9/bld/clib/library/winnt.386/mf_rp/clib3r.lib(umktemp.c)
6fe09f90       _wmktemp_
Module: /mnt/sda5/.user/root/src/openwatcom-1.9/bld/clib/library/winnt.386/mf_rp/clib3r.lib(uremove.c)
6fe0a052       _wremove_
Module: /mnt/sda5/.user/root/src/openwatcom-1.9/bld/clib/library/winnt.386/mf_rp/clib3r.lib(urenmwnt.c)
6fe0a080       _wrename_
Module: /mnt/sda5/.user/root/src/openwatcom-1.9/bld/clib/library/winnt.386/mf_rp/clib3r.lib(ustatwnt.c)
6fe0a290       _wstat_
Module: /mnt/sda5/.user/root/src/openwatcom-1.9/bld/clib/library/winnt.386/mf_rp/clib3r.lib(utimewnt.c)
6fe0a600       utime_
Module: /mnt/sda5/.user/root/src/openwatcom-1.9/bld/clib/library/winnt.386/mf_rp/clib3r.lib(utempnam.c)
6fe0a950       _wtempnam_
Module: /mnt/sda5/.user/root/src/openwatcom-1.9/bld/clib/library/winnt.386/mf_rp/clib3r.lib(utmpnm.c)
6fe0aa8d       _wtmpnam_
Module: /mnt/sda5/.user/root/src/openwatcom-1.9/bld/clib/library/winnt.386/mf_rp/clib3r.lib(utmpnm_s.c)
6fe0abe0       _wtmpnam_s_
Module: /mnt/sda5/.user/root/src/openwatcom-1.9/bld/clib/library/winnt.386/mf_rp/clib3r.lib(uutimwnt.c)
6fe0aca0       _wutime_
Module: /mnt/sda5/.user/root/src/openwatcom-1.9/bld/clib/library/winnt.386/mf_rp/clib3r.lib(chipd32.asm)
6fe0af93       __fdiv_fpr
6fe0b455       __fdiv_chk
6fe0b468       __fdiv_m32
6fe0b4b5       __fdiv_m64
6fe0b502       __fdiv_m32r
6fe0b54f       __fdiv_m64r
Module: /mnt/sda5/.user/root/src/openwatcom-1.9/bld/clib/library/winnt.386/mf_rp/clib3r.lib(chipa32.asm)
6fe0b5a0       __fpatan_chk
Module: /mnt/sda5/.user/root/src/openwatcom-1.9/bld/clib/library/winnt.386/mf_rp/clib3r.lib(chipw32.asm)
6fe0b7a4       __fpatan_wrap
Module: /mnt/sda5/.user/root/src/openwatcom-1.9/bld/clib/library/winnt.386/mf_rp/clib3r.lib(chipt32.asm)
6fe0b7dc       __fptan_chk
Module: /mnt/sda5/.user/root/src/openwatcom-1.9/bld/clib/library/winnt.386/mf_rp/clib3r.lib(chipr32.asm)
6fe45707       __fprem_chk
6fe459c0       __fprem1_chk
Module: /mnt/sda5/.user/root/src/openwatcom-1.9/bld/clib/library/winnt.386/mf_rp/clib3r.lib(cntrl87.c)
6fe0b890       _control87_
Module: /mnt/sda5/.user/root/src/openwatcom-1.9/bld/clib/library/winnt.386/mf_rp/clib3r.lib(cntrlfp.c)
6fe0b8f0       _controlfp_
Module: /mnt/sda5/.user/root/src/openwatcom-1.9/bld/clib/library/winnt.386/mf_rp/clib3r.lib(fenv.c)
6fe0b910       ___fenv_h_default_environment
6fe0b930       feclearexcept_
6fe0b970       fegetexceptflag_
6fe0b9b0       feraiseexcept_
6fe0ba00       __feenableexcept_
6fe0ba40       __fedisableexcept_
6fe0ba80       fesetexceptflag_
6fe0bad0       fetestexcept_
6fe0bb10       fegetround_
6fe0bb50       fesetround_
6fe0bbc0       fegetenv_
6fe0bbe0       feholdexcept_
6fe0bc20       fesetenv_
6fe0bc40       feupdateenv_
Module: /mnt/sda5/.user/root/src/openwatcom-1.9/bld/clib/library/winnt.386/mf_rp/clib3r.lib(64lseek.c)
6fe0bc90       _lseeki64_
Module: /mnt/sda5/.user/root/src/openwatcom-1.9/bld/clib/library/winnt.386/mf_rp/clib3r.lib(64_lseek.c)
6fe0bd20       __lseeki64_
Module: /mnt/sda5/.user/root/src/openwatcom-1.9/bld/clib/library/winnt.386/mf_rp/clib3r.lib(64fillen.c)
6fe0bdc0       _filelengthi64_
Module: /mnt/sda5/.user/root/src/openwatcom-1.9/bld/clib/library/winnt.386/mf_rp/clib3r.lib(64fstwnt.c)
6fe0beb0       _fstati64_
Module: /mnt/sda5/.user/root/src/openwatcom-1.9/bld/clib/library/winnt.386/mf_rp/clib3r.lib(64tell.c)
6fe0c290       _telli64_
Module: /mnt/sda5/.user/root/src/openwatcom-1.9/bld/clib/library/winnt.386/mf_rp/clib3r.lib(chsizwnt.c)
6fe0c350       chsize_
Module: /mnt/sda5/.user/root/src/openwatcom-1.9/bld/clib/library/winnt.386/mf_rp/clib3r.lib(close.c)
6fe0c520       close_
Module: /mnt/sda5/.user/root/src/openwatcom-1.9/bld/clib/library/winnt.386/mf_rp/clib3r.lib(creat.c)
6fe0c570       creat_
Module: /mnt/sda5/.user/root/src/openwatcom-1.9/bld/clib/library/winnt.386/mf_rp/clib3r.lib(dofilstr.c)
6fe0c5c0       __ParsePosixHandleStr_
Module: /mnt/sda5/.user/root/src/openwatcom-1.9/bld/clib/library/winnt.386/mf_rp/clib3r.lib(dup2wnt.c)
6fe0c740       dup2_
Module: /mnt/sda5/.user/root/src/openwatcom-1.9/bld/clib/library/winnt.386/mf_rp/clib3r.lib(dupwnt.c)
6fe0c880       dup_
Module: /mnt/sda5/.user/root/src/openwatcom-1.9/bld/clib/library/winnt.386/mf_rp/clib3r.lib(eof.c)
6fe0c990       eof_
Module: /mnt/sda5/.user/root/src/openwatcom-1.9/bld/clib/library/winnt.386/mf_rp/clib3r.lib(finfoptr.c)
6fe0ca20       __get_fileinfo_ptr_
Module: /mnt/sda5/.user/root/src/openwatcom-1.9/bld/clib/library/winnt.386/mf_rp/clib3r.lib(fileinfo.c)
6fe4740c       __fileinfo
Module: /mnt/sda5/.user/root/src/openwatcom-1.9/bld/clib/library/winnt.386/mf_rp/clib3r.lib(filelen.c)
6fe0ca40       filelength_
Module: /mnt/sda5/.user/root/src/openwatcom-1.9/bld/clib/library/winnt.386/mf_rp/clib3r.lib(fileno.c)
6fe0cb10       fileno_
Module: /mnt/sda5/.user/root/src/openwatcom-1.9/bld/clib/library/winnt.386/mf_rp/clib3r.lib(fstatwnt.c)
6fe0cb30       fstat_
Module: /mnt/sda5/.user/root/src/openwatcom-1.9/bld/clib/library/winnt.386/mf_rp/clib3r.lib(fsync.c)
6fe0ced0       fsync_
Module: /mnt/sda5/.user/root/src/openwatcom-1.9/bld/clib/library/winnt.386/mf_rp/clib3r.lib(hdlman.c)
6fe47410       ___NHandles
6fe47414+      ___OSHandles
6fe47418+      ___FakeHandles
6fe0cf50       __growPOSIXHandles_
6fe0d020       __allocPOSIXHandle_
6fe0d100       __freePOSIXHandle_
6fe0d130       __getOSHandle_
6fe0d160       __setOSHandle_
6fe0d1f0+      __NTGetFakeHandle_
6fe0d290       __initPOSIXHandles_
6fe0d3e0*      __set_handles_
6fe0d400       _grow_handles_
Module: /mnt/sda5/.user/root/src/openwatcom-1.9/bld/clib/library/winnt.386/mf_rp/clib3r.lib(hdopen.c)
6fe0d480       _open_osfhandle_
6fe0d540       _hdopen_
Module: /mnt/sda5/.user/root/src/openwatcom-1.9/bld/clib/library/winnt.386/mf_rp/clib3r.lib(locking.c)
6fe0d560       locking_
Module: /mnt/sda5/.user/root/src/openwatcom-1.9/bld/clib/library/winnt.386/mf_rp/clib3r.lib(lockwnt.c)
6fe0d650       lock_
Module: /mnt/sda5/.user/root/src/openwatcom-1.9/bld/clib/library/winnt.386/mf_rp/clib3r.lib(__lseek.c)
6fe0d6d0       __lseek_
Module: /mnt/sda5/.user/root/src/openwatcom-1.9/bld/clib/library/winnt.386/mf_rp/clib3r.lib(lseek.c)
6fe0d750       lseek_
Module: /mnt/sda5/.user/root/src/openwatcom-1.9/bld/clib/library/winnt.386/mf_rp/clib3r.lib(mkfilstr.c)
6fe0d7f0       __FormPosixHandleStr_
Module: /mnt/sda5/.user/root/src/openwatcom-1.9/bld/clib/library/winnt.386/mf_rp/clib3r.lib(openwnt.c)
6fe0dcc0       open_
6fe0dd00       sopen_
Module: /mnt/sda5/.user/root/src/openwatcom-1.9/bld/clib/library/winnt.386/mf_rp/clib3r.lib(oshdl.c)
6fe0dd50       _get_osfhandle_
6fe0dda0       _os_handle_
Module: /mnt/sda5/.user/root/src/openwatcom-1.9/bld/clib/library/winnt.386/mf_rp/clib3r.lib(pipe.c)
6fe0ddc0       _pipe_
Module: /mnt/sda5/.user/root/src/openwatcom-1.9/bld/clib/library/winnt.386/mf_rp/clib3r.lib(plusfsta.c)
6fe0dec0       __plusplus_fstat_
Module: /mnt/sda5/.user/root/src/openwatcom-1.9/bld/clib/library/winnt.386/mf_rp/clib3r.lib(plusopen.c)
6fe0df20       __plusplus_open_
Module: /mnt/sda5/.user/root/src/openwatcom-1.9/bld/clib/library/winnt.386/mf_rp/clib3r.lib(read.c)
6fe0e020       read_
Module: /mnt/sda5/.user/root/src/openwatcom-1.9/bld/clib/library/winnt.386/mf_rp/clib3r.lib(setmd.c)
6fe0e2a0       setmode_
Module: /mnt/sda5/.user/root/src/openwatcom-1.9/bld/clib/library/winnt.386/mf_rp/clib3r.lib(tell.c)
6fe0e410       tell_
Module: /mnt/sda5/.user/root/src/openwatcom-1.9/bld/clib/library/winnt.386/mf_rp/clib3r.lib(ucreat.c)
6fe0e440       _wcreat_
Module: /mnt/sda5/.user/root/src/openwatcom-1.9/bld/clib/library/winnt.386/mf_rp/clib3r.lib(umask.c)
6fe0e470       umask_
Module: /mnt/sda5/.user/root/src/openwatcom-1.9/bld/clib/library/winnt.386/mf_rp/clib3r.lib(umkfilst.c)
6fe0e4d0       __wFormPosixHandleStr_
Module: /mnt/sda5/.user/root/src/openwatcom-1.9/bld/clib/library/winnt.386/mf_rp/clib3r.lib(unlckwnt.c)
6fe0e660       unlock_
Module: /mnt/sda5/.user/root/src/openwatcom-1.9/bld/clib/library/winnt.386/mf_rp/clib3r.lib(unlnkwnt.c)
6fe0e6e0       unlink_
Module: /mnt/sda5/.user/root/src/openwatcom-1.9/bld/clib/library/winnt.386/mf_rp/clib3r.lib(uopenwnt.c)
6fe0e980       _wopen_
6fe0e9c0       _wsopen_
Module: /mnt/sda5/.user/root/src/openwatcom-1.9/bld/clib/library/winnt.386/mf_rp/clib3r.lib(uunlnwnt.c)
6fe0ea10       _wunlink_
Module: /mnt/sda5/.user/root/src/openwatcom-1.9/bld/clib/library/winnt.386/mf_rp/clib3r.lib(write.c)
6fe0ed10       write_
Module: /mnt/sda5/.user/root/src/openwatcom-1.9/bld/clib/library/winnt.386/mf_rp/clib3r.lib(ambsptr.c)
6fe0f060       __get_amblksiz_ptr_
Module: /mnt/sda5/.user/root/src/openwatcom-1.9/bld/clib/library/winnt.386/mf_rp/clib3r.lib(amblksiz.c)
6fe47424       __amblksiz
Module: /mnt/sda5/.user/root/src/openwatcom-1.9/bld/clib/library/winnt.386/mf_rp/clib3r.lib(calloc.c)
6fe0f080       calloc_
Module: /mnt/sda5/.user/root/src/openwatcom-1.9/bld/clib/library/winnt.386/mf_rp/clib3r.lib(freect.c)
6fe0f0d0       _freect_
Module: /mnt/sda5/.user/root/src/openwatcom-1.9/bld/clib/library/winnt.386/mf_rp/clib3r.lib(heapen.c)
6fe0f160       _heapenable_
6fe47428       ___heap_enabled
Module: /mnt/sda5/.user/root/src/openwatcom-1.9/bld/clib/library/winnt.386/mf_rp/clib3r.lib(heapgrow.c)
6fe0f1b0       _heapgrow_
6fe0f1e0       _nheapgrow_
Module: /mnt/sda5/.user/root/src/openwatcom-1.9/bld/clib/library/winnt.386/mf_rp/clib3r.lib(memavl.c)
6fe0f210       _memavl_
Module: /mnt/sda5/.user/root/src/openwatcom-1.9/bld/clib/library/winnt.386/mf_rp/clib3r.lib(memmax.c)
6fe0f280       _memmax_
Module: /mnt/sda5/.user/root/src/openwatcom-1.9/bld/clib/library/winnt.386/mf_rp/clib3r.lib(ncalloc.c)
6fe0f2f0       _ncalloc_
Module: /mnt/sda5/.user/root/src/openwatcom-1.9/bld/clib/library/winnt.386/mf_rp/clib3r.lib(nexpand.c)
6fe0f340       _expand_
6fe0f360+      __HeapManager_expand_
6fe0f570       _nexpand_
Module: /mnt/sda5/.user/root/src/openwatcom-1.9/bld/clib/library/winnt.386/mf_rp/clib3r.lib(nfree.c)
6fe0f600       free_
6fe0f620       _nfree_
6febc080       ___MiniHeapFreeRover
Module: /mnt/sda5/.user/root/src/openwatcom-1.9/bld/clib/library/winnt.386/mf_rp/clib3r.lib(nheapchk.c)
6fe0f8e0       _heapchk_
6fe0f900       _nheapchk_
6febc084+      ___nheapchk_current
Module: /mnt/sda5/.user/root/src/openwatcom-1.9/bld/clib/library/winnt.386/mf_rp/clib3r.lib(nheapmin.c)
6fe0f9c0       _heapshrink_
6fe0f9e0       _heapmin_
6fe0fa00       _nheapmin_
6fe0fb10       _nheapshrink_
Module: /mnt/sda5/.user/root/src/openwatcom-1.9/bld/clib/library/winnt.386/mf_rp/clib3r.lib(nheapset.c)
6fe0fb70       _heapset_
6fe0fb90       _nheapset_
Module: /mnt/sda5/.user/root/src/openwatcom-1.9/bld/clib/library/winnt.386/mf_rp/clib3r.lib(nheapwal.c)
6fe0fc40       _heapwalk_
6fe0fc60       __NHeapWalk_
6fe0fd30       _nheapwalk_
Module: /mnt/sda5/.user/root/src/openwatcom-1.9/bld/clib/library/winnt.386/mf_rp/clib3r.lib(nmalloc.c)
6fe0fd80       malloc_
6fe0fda0       _nmalloc_
6fe4742c       ___nheapbeg
6fe47430       ___MiniHeapRover
6fe47434       ___LargestSizeB4MiniHeapRover
Module: /mnt/sda5/.user/root/src/openwatcom-1.9/bld/clib/library/winnt.386/mf_rp/clib3r.lib(nmemneed.c)
6fe0fee0       __nmemneed_
Module: /mnt/sda5/.user/root/src/openwatcom-1.9/bld/clib/library/winnt.386/mf_rp/clib3r.lib(nmsize.c)
6fe0ff00       _msize_
6fe0ff20       _nmsize_
Module: /mnt/sda5/.user/root/src/openwatcom-1.9/bld/clib/library/winnt.386/mf_rp/clib3r.lib(nrealloc.c)
6fe0ff40       realloc_
6fe0ff60       _nrealloc_
Module: /mnt/sda5/.user/root/src/openwatcom-1.9/bld/clib/library/winnt.386/mf_rp/clib3r.lib(sbrkwnt.c)
6fe10030       sbrk_
Module: /mnt/sda5/.user/root/src/openwatcom-1.9/bld/clib/library/winnt.386/mf_rp/clib3r.lib(chipbug.c)
6fe100b0       __verify_pentium_fdiv_bug_
Module: /mnt/sda5/.user/root/src/openwatcom-1.9/bld/clib/library/winnt.386/mf_rp/clib3r.lib(disable.c)
6fe10130       _disable_
Module: /mnt/sda5/.user/root/src/openwatcom-1.9/bld/clib/library/winnt.386/mf_rp/clib3r.lib(enable.c)
6fe10150       _enable_
Module: /mnt/sda5/.user/root/src/openwatcom-1.9/bld/clib/library/winnt.386/mf_rp/clib3r.lib(i64tos)
6fe1016c       __CmpBigInt
6fe101a6       __Rnd2Int
6fe10211       __Bin2String
Module: /mnt/sda5/.user/root/src/openwatcom-1.9/bld/clib/library/winnt.386/mf_rp/clib3r.lib(inp.c)
6fe10340       inp_
Module: /mnt/sda5/.user/root/src/openwatcom-1.9/bld/clib/library/winnt.386/mf_rp/clib3r.lib(inpw.c)
6fe10370       inpw_
Module: /mnt/sda5/.user/root/src/openwatcom-1.9/bld/clib/library/winnt.386/mf_rp/clib3r.lib(inpd.c)
6fe103a0       inpd_
Module: /mnt/sda5/.user/root/src/openwatcom-1.9/bld/clib/library/winnt.386/mf_rp/clib3r.lib(outp.c)
6fe103c0       outp_
Module: /mnt/sda5/.user/root/src/openwatcom-1.9/bld/clib/library/winnt.386/mf_rp/clib3r.lib(outpw.c)
6fe103f0       outpw_
Module: /mnt/sda5/.user/root/src/openwatcom-1.9/bld/clib/library/winnt.386/mf_rp/clib3r.lib(outpd.c)
6fe10420       outpd_
Module: /mnt/sda5/.user/root/src/openwatcom-1.9/bld/clib/library/winnt.386/mf_rp/clib3r.lib(segread.c)
6fe10450       segread_
Module: /mnt/sda5/.user/root/src/openwatcom-1.9/bld/clib/library/winnt.386/mf_rp/clib3r.lib(btom.c)
6fe104b0       btom_
Module: /mnt/sda5/.user/root/src/openwatcom-1.9/bld/clib/library/winnt.386/mf_rp/clib3r.lib(chkctype.c)
6fe10500       chkctype_
Module: /mnt/sda5/.user/root/src/openwatcom-1.9/bld/clib/library/winnt.386/mf_rp/clib3r.lib(fbtom.c)
6fe10560       _fbtom_
Module: /mnt/sda5/.user/root/src/openwatcom-1.9/bld/clib/library/winnt.386/mf_rp/clib3r.lib(fjgetmoj.c)
6fe105b0       _fjgetmoji_
Module: /mnt/sda5/.user/root/src/openwatcom-1.9/bld/clib/library/winnt.386/mf_rp/clib3r.lib(fjputmoj.c)
6fe10630       _fjputmoji_
Module: /mnt/sda5/.user/root/src/openwatcom-1.9/bld/clib/library/winnt.386/mf_rp/clib3r.lib(fjstradv.c)
6fe10680       _fjstradv_
Module: /mnt/sda5/.user/root/src/openwatcom-1.9/bld/clib/library/winnt.386/mf_rp/clib3r.lib(fjstrcat.c)
6fe106b0       _fjstrncat_
6fe10750       _fjstrcat_
Module: /mnt/sda5/.user/root/src/openwatcom-1.9/bld/clib/library/winnt.386/mf_rp/clib3r.lib(fjstrchr.c)
6fe10790       _fjstrchr_
Module: /mnt/sda5/.user/root/src/openwatcom-1.9/bld/clib/library/winnt.386/mf_rp/clib3r.lib(fjstrcmp.c)
6fe10800       _fjstrcmp_
Module: /mnt/sda5/.user/root/src/openwatcom-1.9/bld/clib/library/winnt.386/mf_rp/clib3r.lib(fjstrcsp.c)
6fe108a0       _fjstrcspn_
Module: /mnt/sda5/.user/root/src/openwatcom-1.9/bld/clib/library/winnt.386/mf_rp/clib3r.lib(fjstricm.c)
6fe10930       _fjstricmp_
Module: /mnt/sda5/.user/root/src/openwatcom-1.9/bld/clib/library/winnt.386/mf_rp/clib3r.lib(fjstrlen.c)
6fe10a30       _fjstrlen_
Module: /mnt/sda5/.user/root/src/openwatcom-1.9/bld/clib/library/winnt.386/mf_rp/clib3r.lib(fjstrlwr.c)
6fe10a70       _fjstrlwr_
Module: /mnt/sda5/.user/root/src/openwatcom-1.9/bld/clib/library/winnt.386/mf_rp/clib3r.lib(fjstrmat.c)
6fe10b00       _fjstrmatch_
Module: /mnt/sda5/.user/root/src/openwatcom-1.9/bld/clib/library/winnt.386/mf_rp/clib3r.lib(fjstrncm.c)
6fe10ba0       _fjstrncmp_
Module: /mnt/sda5/.user/root/src/openwatcom-1.9/bld/clib/library/winnt.386/mf_rp/clib3r.lib(fjstrncp.c)
6fe10c70       _fjstrncpy_
Module: /mnt/sda5/.user/root/src/openwatcom-1.9/bld/clib/library/winnt.386/mf_rp/clib3r.lib(fjstrnic.c)
6fe10d20       _fjstrnicmp_
Module: /mnt/sda5/.user/root/src/openwatcom-1.9/bld/clib/library/winnt.386/mf_rp/clib3r.lib(fjstrnse.c)
6fe10e80       _fjstrnset_
Module: /mnt/sda5/.user/root/src/openwatcom-1.9/bld/clib/library/winnt.386/mf_rp/clib3r.lib(fjstrrch.c)
6fe11080       _fjstrrchr_
Module: /mnt/sda5/.user/root/src/openwatcom-1.9/bld/clib/library/winnt.386/mf_rp/clib3r.lib(fjstrrev.c)
6fe110f0       _fjstrrev_
Module: /mnt/sda5/.user/root/src/openwatcom-1.9/bld/clib/library/winnt.386/mf_rp/clib3r.lib(fjstrset.c)
6fe111c0       _fjstrset_
Module: /mnt/sda5/.user/root/src/openwatcom-1.9/bld/clib/library/winnt.386/mf_rp/clib3r.lib(fjstrski.c)
6fe11280       _fjstrskip_
Module: /mnt/sda5/.user/root/src/openwatcom-1.9/bld/clib/library/winnt.386/mf_rp/clib3r.lib(fjstrspn.c)
6fe11330       _fjstrspn_
Module: /mnt/sda5/.user/root/src/openwatcom-1.9/bld/clib/library/winnt.386/mf_rp/clib3r.lib(fjstrstr.c)
6fe113d0       _fjstrstr_
Module: /mnt/sda5/.user/root/src/openwatcom-1.9/bld/clib/library/winnt.386/mf_rp/clib3r.lib(fjstrtok.c)
6fe11520       _fjstrtok_
Module: /mnt/sda5/.user/root/src/openwatcom-1.9/bld/clib/library/winnt.386/mf_rp/clib3r.lib(fjstrupr.c)
6fe11620       _fjstrupr_
Module: /mnt/sda5/.user/root/src/openwatcom-1.9/bld/clib/library/winnt.386/mf_rp/clib3r.lib(fmtob.c)
6fe116b0       _fmtob_
Module: /mnt/sda5/.user/root/src/openwatcom-1.9/bld/clib/library/winnt.386/mf_rp/clib3r.lib(fnthctyp.c)
6fe11700       _fnthctype_
Module: /mnt/sda5/.user/root/src/openwatcom-1.9/bld/clib/library/winnt.386/mf_rp/clib3r.lib(hantozen.c)
6fe11760       hantozen_
6fe11790       zentohan_
Module: /mnt/sda5/.user/root/src/openwatcom-1.9/bld/clib/library/winnt.386/mf_rp/clib3r.lib(isktable.c)
6fe117e0       __IsKTable
Module: /mnt/sda5/.user/root/src/openwatcom-1.9/bld/clib/library/winnt.386/mf_rp/clib3r.lib(ismbdaln.c)
6fe118f0       _ismbdalnum_
Module: /mnt/sda5/.user/root/src/openwatcom-1.9/bld/clib/library/winnt.386/mf_rp/clib3r.lib(ismbdalp.c)
6fe11940       _ismbdalpha_
Module: /mnt/sda5/.user/root/src/openwatcom-1.9/bld/clib/library/winnt.386/mf_rp/clib3r.lib(ismbddig.c)
6fe119b0       _ismbddigit_
Module: /mnt/sda5/.user/root/src/openwatcom-1.9/bld/clib/library/winnt.386/mf_rp/clib3r.lib(ismbdgra.c)
6fe11a10       _ismbdgraph_
Module: /mnt/sda5/.user/root/src/openwatcom-1.9/bld/clib/library/winnt.386/mf_rp/clib3r.lib(ismbdhir.c)
6fe11a60       _ismbdhira_
Module: /mnt/sda5/.user/root/src/openwatcom-1.9/bld/clib/library/winnt.386/mf_rp/clib3r.lib(ismbdkan.c)
6fe11aa0       _ismbdkana_
Module: /mnt/sda5/.user/root/src/openwatcom-1.9/bld/clib/library/winnt.386/mf_rp/clib3r.lib(ismbdlow.c)
6fe11ae0       _ismbdlower_
Module: /mnt/sda5/.user/root/src/openwatcom-1.9/bld/clib/library/winnt.386/mf_rp/clib3r.lib(ismbdpri.c)
6fe11b40       _ismbdprint_
Module: /mnt/sda5/.user/root/src/openwatcom-1.9/bld/clib/library/winnt.386/mf_rp/clib3r.lib(ismbdpun.c)
6fe11b90       _ismbdpunct_
Module: /mnt/sda5/.user/root/src/openwatcom-1.9/bld/clib/library/winnt.386/mf_rp/clib3r.lib(ismbdspa.c)
6fe11bd0       _ismbdspace_
Module: /mnt/sda5/.user/root/src/openwatcom-1.9/bld/clib/library/winnt.386/mf_rp/clib3r.lib(ismbdupp.c)
6fe11c30       _ismbdupper_
Module: /mnt/sda5/.user/root/src/openwatcom-1.9/bld/clib/library/winnt.386/mf_rp/clib3r.lib(ismbdxdi.c)
6fe11c90       _ismbdxdigit_
Module: /mnt/sda5/.user/root/src/openwatcom-1.9/bld/clib/library/winnt.386/mf_rp/clib3r.lib(jasctime.c)
6fe11d40       jasctime_
Module: /mnt/sda5/.user/root/src/openwatcom-1.9/bld/clib/library/winnt.386/mf_rp/clib3r.lib(jctime.c)
6fe11db0       jctime_
Module: /mnt/sda5/.user/root/src/openwatcom-1.9/bld/clib/library/winnt.386/mf_rp/clib3r.lib(jgetmoji.c)
6fe11de0       jgetmoji_
Module: /mnt/sda5/.user/root/src/openwatcom-1.9/bld/clib/library/winnt.386/mf_rp/clib3r.lib(jisalpha.c)
6fe11e40       jisalpha_
Module: /mnt/sda5/.user/root/src/openwatcom-1.9/bld/clib/library/winnt.386/mf_rp/clib3r.lib(jisdigit.c)
6fe11e90       jisdigit_
Module: /mnt/sda5/.user/root/src/openwatcom-1.9/bld/clib/library/winnt.386/mf_rp/clib3r.lib(jishira.c)
6fe11ed0       jishira_
Module: /mnt/sda5/.user/root/src/openwatcom-1.9/bld/clib/library/winnt.386/mf_rp/clib3r.lib(jiskana.c)
6fe11f10       jiskana_
Module: /mnt/sda5/.user/root/src/openwatcom-1.9/bld/clib/library/winnt.386/mf_rp/clib3r.lib(jiskigou.c)
6fe11f50       jiskigou_
Module: /mnt/sda5/.user/root/src/openwatcom-1.9/bld/clib/library/winnt.386/mf_rp/clib3r.lib(jisl0.c)
6fe11f90       jisl0_
Module: /mnt/sda5/.user/root/src/openwatcom-1.9/bld/clib/library/winnt.386/mf_rp/clib3r.lib(jisl1.c)
6fe11fe0       jisl1_
Module: /mnt/sda5/.user/root/src/openwatcom-1.9/bld/clib/library/winnt.386/mf_rp/clib3r.lib(jisl2.c)
6fe12030       jisl2_
Module: /mnt/sda5/.user/root/src/openwatcom-1.9/bld/clib/library/winnt.386/mf_rp/clib3r.lib(jislower.c)
6fe12080       jislower_
Module: /mnt/sda5/.user/root/src/openwatcom-1.9/bld/clib/library/winnt.386/mf_rp/clib3r.lib(jisprint.c)
6fe120c0       jisprint_
Module: /mnt/sda5/.user/root/src/openwatcom-1.9/bld/clib/library/winnt.386/mf_rp/clib3r.lib(jisspace.c)
6fe12120       jisspace_
Module: /mnt/sda5/.user/root/src/openwatcom-1.9/bld/clib/library/winnt.386/mf_rp/clib3r.lib(jistojms.c)
6fe12150       _mbcjistojms_
6fe12180       jistojms_
Module: /mnt/sda5/.user/root/src/openwatcom-1.9/bld/clib/library/winnt.386/mf_rp/clib3r.lib(jisupper.c)
6fe12220       jisupper_
Module: /mnt/sda5/.user/root/src/openwatcom-1.9/bld/clib/library/winnt.386/mf_rp/clib3r.lib(jiszen.c)
6fe12260       jiszen_
Module: /mnt/sda5/.user/root/src/openwatcom-1.9/bld/clib/library/winnt.386/mf_rp/clib3r.lib(jmstojis.c)
6fe122b0       _mbcjmstojis_
6fe122e0       jmstojis_
Module: /mnt/sda5/.user/root/src/openwatcom-1.9/bld/clib/library/winnt.386/mf_rp/clib3r.lib(jperror.c)
6fe12390       jperror_
Module: /mnt/sda5/.user/root/src/openwatcom-1.9/bld/clib/library/winnt.386/mf_rp/clib3r.lib(jputmoji.c)
6fe12420       jputmoji_
Module: /mnt/sda5/.user/root/src/openwatcom-1.9/bld/clib/library/winnt.386/mf_rp/clib3r.lib(jstradv.c)
6fe12480       jstradv_
Module: /mnt/sda5/.user/root/src/openwatcom-1.9/bld/clib/library/winnt.386/mf_rp/clib3r.lib(jstrcat.c)
6fe124b0       jstrncat_
6fe12520       jstrcat_
Module: /mnt/sda5/.user/root/src/openwatcom-1.9/bld/clib/library/winnt.386/mf_rp/clib3r.lib(jstrchr.c)
6fe12560       jstrchr_
Module: /mnt/sda5/.user/root/src/openwatcom-1.9/bld/clib/library/winnt.386/mf_rp/clib3r.lib(jstrcmp.c)
6fe125c0       jstrcmp_
Module: /mnt/sda5/.user/root/src/openwatcom-1.9/bld/clib/library/winnt.386/mf_rp/clib3r.lib(jstrcspn.c)
6fe12640       jstrcspn_
Module: /mnt/sda5/.user/root/src/openwatcom-1.9/bld/clib/library/winnt.386/mf_rp/clib3r.lib(jstrerro.c)
6fe12a80       jstrerror_
6fe47454+      _jsys_errlist
6fe474f8+      _jsys_nerr
Module: /mnt/sda5/.user/root/src/openwatcom-1.9/bld/clib/library/winnt.386/mf_rp/clib3r.lib(jstricmp.c)
6fe12ab0       jstricmp_
Module: /mnt/sda5/.user/root/src/openwatcom-1.9/bld/clib/library/winnt.386/mf_rp/clib3r.lib(jstrlen.c)
6fe12b90       jstrlen_
Module: /mnt/sda5/.user/root/src/openwatcom-1.9/bld/clib/library/winnt.386/mf_rp/clib3r.lib(jstrlwr.c)
6fe12bd0       jstrlwr_
Module: /mnt/sda5/.user/root/src/openwatcom-1.9/bld/clib/library/winnt.386/mf_rp/clib3r.lib(jstrmatc.c)
6fe12c40       jstrmatch_
Module: /mnt/sda5/.user/root/src/openwatcom-1.9/bld/clib/library/winnt.386/mf_rp/clib3r.lib(jstrncmp.c)
6fe12cc0       jstrncmp_
Module: /mnt/sda5/.user/root/src/openwatcom-1.9/bld/clib/library/winnt.386/mf_rp/clib3r.lib(jstrncpy.c)
6fe12d50       jstrncpy_
Module: /mnt/sda5/.user/root/src/openwatcom-1.9/bld/clib/library/winnt.386/mf_rp/clib3r.lib(jstrnicm.c)
6fe12dc0       jstrnicmp_
Module: /mnt/sda5/.user/root/src/openwatcom-1.9/bld/clib/library/winnt.386/mf_rp/clib3r.lib(jstrnset.c)
6fe12ee0       jstrnset_
Module: /mnt/sda5/.user/root/src/openwatcom-1.9/bld/clib/library/winnt.386/mf_rp/clib3r.lib(jstrrchr.c)
6fe13070       jstrrchr_
Module: /mnt/sda5/.user/root/src/openwatcom-1.9/bld/clib/library/winnt.386/mf_rp/clib3r.lib(jstrrev.c)
6fe130c0       jstrrev_
Module: /mnt/sda5/.user/root/src/openwatcom-1.9/bld/clib/library/winnt.386/mf_rp/clib3r.lib(jstrset.c)
6fe13150       jstrset_
Module: /mnt/sda5/.user/root/src/openwatcom-1.9/bld/clib/library/winnt.386/mf_rp/clib3r.lib(jstrskip.c)
6fe131f0       jstrskip_
Module: /mnt/sda5/.user/root/src/openwatcom-1.9/bld/clib/library/winnt.386/mf_rp/clib3r.lib(jstrspn.c)
6fe13270       jstrspn_
Module: /mnt/sda5/.user/root/src/openwatcom-1.9/bld/clib/library/winnt.386/mf_rp/clib3r.lib(jstrstr.c)
6fe132f0       jstrstr_
Module: /mnt/sda5/.user/root/src/openwatcom-1.9/bld/clib/library/winnt.386/mf_rp/clib3r.lib(jstrtok.c)
6fe133e0       jstrtok_
Module: /mnt/sda5/.user/root/src/openwatcom-1.9/bld/clib/library/winnt.386/mf_rp/clib3r.lib(jstrupr.c)
6fe134a0       jstrupr_
Module: /mnt/sda5/.user/root/src/openwatcom-1.9/bld/clib/library/winnt.386/mf_rp/clib3r.lib(jtohira.c)
6fe13510       _mbctohira_
6fe13540       jtohira_
Module: /mnt/sda5/.user/root/src/openwatcom-1.9/bld/clib/library/winnt.386/mf_rp/clib3r.lib(jtokata.c)
6fe13590       _mbctokata_
6fe135c0       jtokata_
Module: /mnt/sda5/.user/root/src/openwatcom-1.9/bld/clib/library/winnt.386/mf_rp/clib3r.lib(jtolower.c)
6fe13610       jtolower_
Module: /mnt/sda5/.user/root/src/openwatcom-1.9/bld/clib/library/winnt.386/mf_rp/clib3r.lib(jtoupper.c)
6fe13650       jtoupper_
Module: /mnt/sda5/.user/root/src/openwatcom-1.9/bld/clib/library/winnt.386/mf_rp/clib3r.lib(mbdhanto.c)
6fe13690       _mbdhantozen_
Module: /mnt/sda5/.user/root/src/openwatcom-1.9/bld/clib/library/winnt.386/mf_rp/clib3r.lib(mbdtolow.c)
6fe136f0       _mbdtolower_
Module: /mnt/sda5/.user/root/src/openwatcom-1.9/bld/clib/library/winnt.386/mf_rp/clib3r.lib(mbdtoupp.c)
6fe13720       _mbdtoupper_
Module: /mnt/sda5/.user/root/src/openwatcom-1.9/bld/clib/library/winnt.386/mf_rp/clib3r.lib(mbdzento.c)
6fe13750       _mbdzentohan_
Module: /mnt/sda5/.user/root/src/openwatcom-1.9/bld/clib/library/winnt.386/mf_rp/clib3r.lib(mbisl0.c)
6fe137b0       _ismbcl0_
Module: /mnt/sda5/.user/root/src/openwatcom-1.9/bld/clib/library/winnt.386/mf_rp/clib3r.lib(mbisl1.c)
6fe13800       _ismbcl1_
Module: /mnt/sda5/.user/root/src/openwatcom-1.9/bld/clib/library/winnt.386/mf_rp/clib3r.lib(mbisl2.c)
6fe13850       _ismbcl2_
Module: /mnt/sda5/.user/root/src/openwatcom-1.9/bld/clib/library/winnt.386/mf_rp/clib3r.lib(mtob.c)
6fe138a0       mtob_
Module: /mnt/sda5/.user/root/src/openwatcom-1.9/bld/clib/library/winnt.386/mf_rp/clib3r.lib(nthctype.c)
6fe138f0       nthctype_
Module: /mnt/sda5/.user/root/src/openwatcom-1.9/bld/clib/library/winnt.386/mf_rp/clib3r.lib(getmodfn.c)
6fe13940       __lib_GetModuleFileNameW_
Module: /mnt/sda5/.user/root/src/openwatcom-1.9/bld/clib/library/winnt.386/mf_rp/clib3r.lib(abs.c)
6fe13a30       abs_
Module: /mnt/sda5/.user/root/src/openwatcom-1.9/bld/clib/library/winnt.386/mf_rp/clib3r.lib(hvalptr.c)
6fe13a60       __get_HugeValue_ptr_
Module: /mnt/sda5/.user/root/src/openwatcom-1.9/bld/clib/library/winnt.386/mf_rp/clib3r.lib(hugeval.c)
6fe13a80       __HugeValue
Module: /mnt/sda5/.user/root/src/openwatcom-1.9/bld/clib/library/winnt.386/mf_rp/clib3r.lib(imaxabs.c)
6fe13a90       imaxabs_
Module: /mnt/sda5/.user/root/src/openwatcom-1.9/bld/clib/library/winnt.386/mf_rp/clib3r.lib(imaxdiv.c)
6fe13ac0       imaxdiv_
Module: /mnt/sda5/.user/root/src/openwatcom-1.9/bld/clib/library/winnt.386/mf_rp/clib3r.lib(labs.c)
6fe13b30       labs_
Module: /mnt/sda5/.user/root/src/openwatcom-1.9/bld/clib/library/winnt.386/mf_rp/clib3r.lib(llabs.c)
6fe13b60       llabs_
Module: /mnt/sda5/.user/root/src/openwatcom-1.9/bld/clib/library/winnt.386/mf_rp/clib3r.lib(max.c)
6fe13b90       max_
Module: /mnt/sda5/.user/root/src/openwatcom-1.9/bld/clib/library/winnt.386/mf_rp/clib3r.lib(min.c)
6fe13bc0       min_
Module: /mnt/sda5/.user/root/src/openwatcom-1.9/bld/clib/library/winnt.386/mf_rp/clib3r.lib(rand.c)
6fe13bf0       rand_
6fe13c40       srand_
Module: /mnt/sda5/.user/root/src/openwatcom-1.9/bld/clib/library/winnt.386/mf_rp/clib3r.lib(btowc.c)
6fe13c80       btowc_
Module: /mnt/sda5/.user/root/src/openwatcom-1.9/bld/clib/library/winnt.386/mf_rp/clib3r.lib(fmbccmp.c)
6fe13cc0       _fmbccmp_
Module: /mnt/sda5/.user/root/src/openwatcom-1.9/bld/clib/library/winnt.386/mf_rp/clib3r.lib(fmbccpy.c)
6fe13d40       _fmbccpy_
Module: /mnt/sda5/.user/root/src/openwatcom-1.9/bld/clib/library/winnt.386/mf_rp/clib3r.lib(fmbcicmp.c)
6fe13db0       _fmbcicmp_
Module: /mnt/sda5/.user/root/src/openwatcom-1.9/bld/clib/library/winnt.386/mf_rp/clib3r.lib(fmbclen.c)
6fe13e30       _fmbclen_
Module: /mnt/sda5/.user/root/src/openwatcom-1.9/bld/clib/library/winnt.386/mf_rp/clib3r.lib(fmbconv.c)
6fe13e80       _fmbvtop_
Module: /mnt/sda5/.user/root/src/openwatcom-1.9/bld/clib/library/winnt.386/mf_rp/clib3r.lib(fmbgetco.c)
6fe13ec0       _fmbgetcode_
Module: /mnt/sda5/.user/root/src/openwatcom-1.9/bld/clib/library/winnt.386/mf_rp/clib3r.lib(fmblen.c)
6fe13f60       _fmblen_
Module: /mnt/sda5/.user/root/src/openwatcom-1.9/bld/clib/library/winnt.386/mf_rp/clib3r.lib(fmbputch.c)
6fe13f90       _fmbputchar_
Module: /mnt/sda5/.user/root/src/openwatcom-1.9/bld/clib/library/winnt.386/mf_rp/clib3r.lib(fmbrlen.c)
6fe14000       _fmbrlen_
Module: /mnt/sda5/.user/root/src/openwatcom-1.9/bld/clib/library/winnt.386/mf_rp/clib3r.lib(fmbrtowc.c)
6fe14040       _fmbrtowc_
Module: /mnt/sda5/.user/root/src/openwatcom-1.9/bld/clib/library/winnt.386/mf_rp/clib3r.lib(fmbsbtyp.c)
6fe140e0       _fmbsbtype_
Module: /mnt/sda5/.user/root/src/openwatcom-1.9/bld/clib/library/winnt.386/mf_rp/clib3r.lib(fmbscat.c)
6fe14130       _fmbscat_
Module: /mnt/sda5/.user/root/src/openwatcom-1.9/bld/clib/library/winnt.386/mf_rp/clib3r.lib(fmbschr.c)
6fe14150       _fmbschr_
Module: /mnt/sda5/.user/root/src/openwatcom-1.9/bld/clib/library/winnt.386/mf_rp/clib3r.lib(fmbscmp.c)
6fe14200       _fmbscmp_
Module: /mnt/sda5/.user/root/src/openwatcom-1.9/bld/clib/library/winnt.386/mf_rp/clib3r.lib(fmbscpy.c)
6fe142f0       _fmbscpy_
Module: /mnt/sda5/.user/root/src/openwatcom-1.9/bld/clib/library/winnt.386/mf_rp/clib3r.lib(fmbscspn.c)
6fe14310       _fmbscspn_
Module: /mnt/sda5/.user/root/src/openwatcom-1.9/bld/clib/library/winnt.386/mf_rp/clib3r.lib(fmbsdup.c)
6fe14390       _fmbsdup_
Module: /mnt/sda5/.user/root/src/openwatcom-1.9/bld/clib/library/winnt.386/mf_rp/clib3r.lib(fmbsdec.c)
6fe14400       _fmbsdec_
Module: /mnt/sda5/.user/root/src/openwatcom-1.9/bld/clib/library/winnt.386/mf_rp/clib3r.lib(fmbsicmp.c)
6fe144a0       _fmbsicmp_
Module: /mnt/sda5/.user/root/src/openwatcom-1.9/bld/clib/library/winnt.386/mf_rp/clib3r.lib(fmbsinc.c)
6fe14590       _fmbsinc_
Module: /mnt/sda5/.user/root/src/openwatcom-1.9/bld/clib/library/winnt.386/mf_rp/clib3r.lib(_fmbslen.c)
6fe145e0       __fmbslen_
Module: /mnt/sda5/.user/root/src/openwatcom-1.9/bld/clib/library/winnt.386/mf_rp/clib3r.lib(fmbslen.c)
6fe14660       _fmbslen_
Module: /mnt/sda5/.user/root/src/openwatcom-1.9/bld/clib/library/winnt.386/mf_rp/clib3r.lib(fmbslwr.c)
6fe146b0       _fmbslwr_
Module: /mnt/sda5/.user/root/src/openwatcom-1.9/bld/clib/library/winnt.386/mf_rp/clib3r.lib(fmbsnbca.c)
6fe14760       _fmbsnbcat_
Module: /mnt/sda5/.user/root/src/openwatcom-1.9/bld/clib/library/winnt.386/mf_rp/clib3r.lib(fmbsnbcm.c)
6fe148f0       _fmbsnbcmp_
Module: /mnt/sda5/.user/root/src/openwatcom-1.9/bld/clib/library/winnt.386/mf_rp/clib3r.lib(fmbsnbcn.c)
6fe149e0       _fmbsnbcnt_
Module: /mnt/sda5/.user/root/src/openwatcom-1.9/bld/clib/library/winnt.386/mf_rp/clib3r.lib(fmbsnbcp.c)
6fe14a70       _fmbsnbcpy_
Module: /mnt/sda5/.user/root/src/openwatcom-1.9/bld/clib/library/winnt.386/mf_rp/clib3r.lib(fmbsnbic.c)
6fe14b20       _fmbsnbicmp_
Module: /mnt/sda5/.user/root/src/openwatcom-1.9/bld/clib/library/winnt.386/mf_rp/clib3r.lib(fmbsnbst.c)
6fe14c10       _fmbsnbset_
Module: /mnt/sda5/.user/root/src/openwatcom-1.9/bld/clib/library/winnt.386/mf_rp/clib3r.lib(fmbsncat.c)
6fe14cc0       _fmbsncat_
Module: /mnt/sda5/.user/root/src/openwatcom-1.9/bld/clib/library/winnt.386/mf_rp/clib3r.lib(fmbsnccn.c)
6fe14d40       _fmbsnccnt_
Module: /mnt/sda5/.user/root/src/openwatcom-1.9/bld/clib/library/winnt.386/mf_rp/clib3r.lib(fmbsncmp.c)
6fe14da0       _fmbsncmp_
Module: /mnt/sda5/.user/root/src/openwatcom-1.9/bld/clib/library/winnt.386/mf_rp/clib3r.lib(fmbsncpy.c)
6fe14ec0       _fmbsncpy_
Module: /mnt/sda5/.user/root/src/openwatcom-1.9/bld/clib/library/winnt.386/mf_rp/clib3r.lib(fmbsnxtc.c)
6fe14f10       _fmbsnextc_
Module: /mnt/sda5/.user/root/src/openwatcom-1.9/bld/clib/library/winnt.386/mf_rp/clib3r.lib(fmbsnicm.c)
6fe14f60       _fmbsnicmp_
Module: /mnt/sda5/.user/root/src/openwatcom-1.9/bld/clib/library/winnt.386/mf_rp/clib3r.lib(_fmbsnin.c)
6fe15030       __fmbsninc_
Module: /mnt/sda5/.user/root/src/openwatcom-1.9/bld/clib/library/winnt.386/mf_rp/clib3r.lib(fmbsninc.c)
6fe150a0       _fmbsninc_
Module: /mnt/sda5/.user/root/src/openwatcom-1.9/bld/clib/library/winnt.386/mf_rp/clib3r.lib(fmbsnset.c)
6fe150e0       _fmbsnset_
Module: /mnt/sda5/.user/root/src/openwatcom-1.9/bld/clib/library/winnt.386/mf_rp/clib3r.lib(fmbspbrk.c)
6fe15160       _fmbspbrk_
Module: /mnt/sda5/.user/root/src/openwatcom-1.9/bld/clib/library/winnt.386/mf_rp/clib3r.lib(fmbsrchr.c)
6fe15200       _fmbsrchr_
Module: /mnt/sda5/.user/root/src/openwatcom-1.9/bld/clib/library/winnt.386/mf_rp/clib3r.lib(fmbsrev.c)
6fe15290       _fmbsrev_
Module: /mnt/sda5/.user/root/src/openwatcom-1.9/bld/clib/library/winnt.386/mf_rp/clib3r.lib(fmbsrtow.c)
6fe153b0       _fmbsrtowcs_
Module: /mnt/sda5/.user/root/src/openwatcom-1.9/bld/clib/library/winnt.386/mf_rp/clib3r.lib(fmbsrt_s.c)
6fe155b0       _fmbsrtowcs_s_
Module: /mnt/sda5/.user/root/src/openwatcom-1.9/bld/clib/library/winnt.386/mf_rp/clib3r.lib(fmbsset.c)
6fe15900       _fmbsset_
Module: /mnt/sda5/.user/root/src/openwatcom-1.9/bld/clib/library/winnt.386/mf_rp/clib3r.lib(fmbsspn.c)
6fe15940       _fmbsspn_
Module: /mnt/sda5/.user/root/src/openwatcom-1.9/bld/clib/library/winnt.386/mf_rp/clib3r.lib(fmbsspnp.c)
6fe159c0       _fmbsspnp_
Module: /mnt/sda5/.user/root/src/openwatcom-1.9/bld/clib/library/winnt.386/mf_rp/clib3r.lib(fmbsstr.c)
6fe15a60       _fmbsstr_
Module: /mnt/sda5/.user/root/src/openwatcom-1.9/bld/clib/library/winnt.386/mf_rp/clib3r.lib(fmbstok.c)
6fe15af0       _fmbstok_
Module: /mnt/sda5/.user/root/src/openwatcom-1.9/bld/clib/library/winnt.386/mf_rp/clib3r.lib(fmbsto_s.c)
6fe15d30       _fmbstowcs_s_
Module: /mnt/sda5/.user/root/src/openwatcom-1.9/bld/clib/library/winnt.386/mf_rp/clib3r.lib(fmbstowc.c)
6fe15fd0       _fmbstowcs_
Module: /mnt/sda5/.user/root/src/openwatcom-1.9/bld/clib/library/winnt.386/mf_rp/clib3r.lib(fmbsupr.c)
6fe160c0       _fmbsupr_
Module: /mnt/sda5/.user/root/src/openwatcom-1.9/bld/clib/library/winnt.386/mf_rp/clib3r.lib(fmbterm.c)
6fe16170       _fmbterm_
Module: /mnt/sda5/.user/root/src/openwatcom-1.9/bld/clib/library/winnt.386/mf_rp/clib3r.lib(fmbtowc.c)
6fe161d0       _fmbtowc_
Module: /mnt/sda5/.user/root/src/openwatcom-1.9/bld/clib/library/winnt.386/mf_rp/clib3r.lib(fwcrtomb.c)
6fe162c0       _fwcrtomb_
Module: /mnt/sda5/.user/root/src/openwatcom-1.9/bld/clib/library/winnt.386/mf_rp/clib3r.lib(fwcrto_s.c)
6fe16380       _fwcrtomb_s_
Module: /mnt/sda5/.user/root/src/openwatcom-1.9/bld/clib/library/winnt.386/mf_rp/clib3r.lib(fwcsrtom.c)
6fe164e0       _fwcsrtombs_
Module: /mnt/sda5/.user/root/src/openwatcom-1.9/bld/clib/library/winnt.386/mf_rp/clib3r.lib(fwcstomb.c)
6fe16650       _fwcstombs_
Module: /mnt/sda5/.user/root/src/openwatcom-1.9/bld/clib/library/winnt.386/mf_rp/clib3r.lib(fwcsto_s.c)
6fe167b0       _fwcstombs_s_
Module: /mnt/sda5/.user/root/src/openwatcom-1.9/bld/clib/library/winnt.386/mf_rp/clib3r.lib(fwctomb.c)
6fe16a20       _fwctomb_
Module: /mnt/sda5/.user/root/src/openwatcom-1.9/bld/clib/library/winnt.386/mf_rp/clib3r.lib(fwctom_s.c)
6fe16ac0       _fwctomb_s_
Module: /mnt/sda5/.user/root/src/openwatcom-1.9/bld/clib/library/winnt.386/mf_rp/clib3r.lib(getmbcp.c)
6fe16bb0       _getmbcp_
Module: /mnt/sda5/.user/root/src/openwatcom-1.9/bld/clib/library/winnt.386/mf_rp/clib3r.lib(ismbbaln.c)
6fe16be0       _ismbbalnum_
Module: /mnt/sda5/.user/root/src/openwatcom-1.9/bld/clib/library/winnt.386/mf_rp/clib3r.lib(ismbbalp.c)
6fe16c40       _ismbbalpha_
Module: /mnt/sda5/.user/root/src/openwatcom-1.9/bld/clib/library/winnt.386/mf_rp/clib3r.lib(ismbbgra.c)
6fe16ca0       _ismbbgraph_
Module: /mnt/sda5/.user/root/src/openwatcom-1.9/bld/clib/library/winnt.386/mf_rp/clib3r.lib(ismbbkal.c)
6fe16d10       _ismbbkalpha_
Module: /mnt/sda5/.user/root/src/openwatcom-1.9/bld/clib/library/winnt.386/mf_rp/clib3r.lib(ismbbkan.c)
6fe16d50       _ismbbkana_
Module: /mnt/sda5/.user/root/src/openwatcom-1.9/bld/clib/library/winnt.386/mf_rp/clib3r.lib(ismbbkpu.c)
6fe16d90       _ismbbkpunct_
Module: /mnt/sda5/.user/root/src/openwatcom-1.9/bld/clib/library/winnt.386/mf_rp/clib3r.lib(ismbbkpr.c)
6fe16dd0       _ismbbkprint_
Module: /mnt/sda5/.user/root/src/openwatcom-1.9/bld/clib/library/winnt.386/mf_rp/clib3r.lib(ismbbpri.c)
6fe16e10       _ismbbprint_
Module: /mnt/sda5/.user/root/src/openwatcom-1.9/bld/clib/library/winnt.386/mf_rp/clib3r.lib(ismbbpun.c)
6fe16e70       _ismbbpunct_
Module: /mnt/sda5/.user/root/src/openwatcom-1.9/bld/clib/library/winnt.386/mf_rp/clib3r.lib(ismbchir.c)
6fe16ed0       _ismbchira_
Module: /mnt/sda5/.user/root/src/openwatcom-1.9/bld/clib/library/winnt.386/mf_rp/clib3r.lib(ismbckat.c)
6fe16f10       _ismbckata_
Module: /mnt/sda5/.user/root/src/openwatcom-1.9/bld/clib/library/winnt.386/mf_rp/clib3r.lib(mbbtombc.c)
6fe16f50       _mbbtombc_
Module: /mnt/sda5/.user/root/src/openwatcom-1.9/bld/clib/library/winnt.386/mf_rp/clib3r.lib(mbctombb.c)
6fe16f90       _mbctombb_
Module: /mnt/sda5/.user/root/src/openwatcom-1.9/bld/clib/library/winnt.386/mf_rp/clib3r.lib(mbbtype.c)
6fe16fd0       _mbbtype_
Module: /mnt/sda5/.user/root/src/openwatcom-1.9/bld/clib/library/winnt.386/mf_rp/clib3r.lib(mbccmp.c)
6fe170b0       _mbccmp_
Module: /mnt/sda5/.user/root/src/openwatcom-1.9/bld/clib/library/winnt.386/mf_rp/clib3r.lib(mbccpy.c)
6fe17100       _mbccpy_
Module: /mnt/sda5/.user/root/src/openwatcom-1.9/bld/clib/library/winnt.386/mf_rp/clib3r.lib(mbcicmp.c)
6fe17160       _mbcicmp_
Module: /mnt/sda5/.user/root/src/openwatcom-1.9/bld/clib/library/winnt.386/mf_rp/clib3r.lib(mbclen.c)
6fe171d0       _mbclen_
Module: /mnt/sda5/.user/root/src/openwatcom-1.9/bld/clib/library/winnt.386/mf_rp/clib3r.lib(mbclower.c)
6fe17220       _mbctolower_
Module: /mnt/sda5/.user/root/src/openwatcom-1.9/bld/clib/library/winnt.386/mf_rp/clib3r.lib(mbconv.c)
6fe17280       _mbvtop_
Module: /mnt/sda5/.user/root/src/openwatcom-1.9/bld/clib/library/winnt.386/mf_rp/clib3r.lib(mbcupper.c)
6fe172c0       _mbctoupper_
Module: /mnt/sda5/.user/root/src/openwatcom-1.9/bld/clib/library/winnt.386/mf_rp/clib3r.lib(mbgetcod.c)
6fe17320       _mbgetcode_
Module: /mnt/sda5/.user/root/src/openwatcom-1.9/bld/clib/library/winnt.386/mf_rp/clib3r.lib(mbisalnu.c)
6fe173b0       _ismbcalnum_
Module: /mnt/sda5/.user/root/src/openwatcom-1.9/bld/clib/library/winnt.386/mf_rp/clib3r.lib(mbisalph.c)
6fe17440       _ismbcalpha_
Module: /mnt/sda5/.user/root/src/openwatcom-1.9/bld/clib/library/winnt.386/mf_rp/clib3r.lib(mbiscntr.c)
6fe174d0       _ismbccntrl_
Module: /mnt/sda5/.user/root/src/openwatcom-1.9/bld/clib/library/winnt.386/mf_rp/clib3r.lib(mbisdbcs.c)
6febc0c4       ___IsDBCS
Module: /mnt/sda5/.user/root/src/openwatcom-1.9/bld/clib/library/winnt.386/mf_rp/clib3r.lib(mbisdigi.c)
6fe17550       _ismbcdigit_
Module: /mnt/sda5/.user/root/src/openwatcom-1.9/bld/clib/library/winnt.386/mf_rp/clib3r.lib(mbisgrap.c)
6fe175d0       _ismbcgraph_
Module: /mnt/sda5/.user/root/src/openwatcom-1.9/bld/clib/library/winnt.386/mf_rp/clib3r.lib(mbislead.c)
6fe17620       _ismbblead_
6febc0c8       ___MBCSIsTable
Module: /mnt/sda5/.user/root/src/openwatcom-1.9/bld/clib/library/winnt.386/mf_rp/clib3r.lib(mbislegl.c)
6fe17680       _ismbclegal_
Module: /mnt/sda5/.user/root/src/openwatcom-1.9/bld/clib/library/winnt.386/mf_rp/clib3r.lib(mbislowe.c)
6fe17710       _ismbclower_
Module: /mnt/sda5/.user/root/src/openwatcom-1.9/bld/clib/library/winnt.386/mf_rp/clib3r.lib(mbisprin.c)
6fe17790       _ismbcprint_
Module: /mnt/sda5/.user/root/src/openwatcom-1.9/bld/clib/library/winnt.386/mf_rp/clib3r.lib(mbispunc.c)
6fe17820       _ismbcpunct_
Module: /mnt/sda5/.user/root/src/openwatcom-1.9/bld/clib/library/winnt.386/mf_rp/clib3r.lib(mbisspac.c)
6fe178a0       _ismbcspace_
Module: /mnt/sda5/.user/root/src/openwatcom-1.9/bld/clib/library/winnt.386/mf_rp/clib3r.lib(mbissymb.c)
6fe17920       _ismbcsymbol_
Module: /mnt/sda5/.user/root/src/openwatcom-1.9/bld/clib/library/winnt.386/mf_rp/clib3r.lib(mbistrai.c)
6fe17970       _ismbbtrail_
Module: /mnt/sda5/.user/root/src/openwatcom-1.9/bld/clib/library/winnt.386/mf_rp/clib3r.lib(mbisuppe.c)
6fe179d0       _ismbcupper_
Module: /mnt/sda5/.user/root/src/openwatcom-1.9/bld/clib/library/winnt.386/mf_rp/clib3r.lib(mbisxdig.c)
6fe17a50       _ismbcxdigit_
Module: /mnt/sda5/.user/root/src/openwatcom-1.9/bld/clib/library/winnt.386/mf_rp/clib3r.lib(mblen.c)
6fe17ad0       mblen_
Module: /mnt/sda5/.user/root/src/openwatcom-1.9/bld/clib/library/winnt.386/mf_rp/clib3r.lib(mbputchr.c)
6fe17b00       _mbputchar_
Module: /mnt/sda5/.user/root/src/openwatcom-1.9/bld/clib/library/winnt.386/mf_rp/clib3r.lib(mbrlen.c)
6fe17b60       mbrlen_
Module: /mnt/sda5/.user/root/src/openwatcom-1.9/bld/clib/library/winnt.386/mf_rp/clib3r.lib(mbrtowc.c)
6fe17b90       mbrtowc_
Module: /mnt/sda5/.user/root/src/openwatcom-1.9/bld/clib/library/winnt.386/mf_rp/clib3r.lib(mbsbtype.c)
6fe17c20       _mbsbtype_
Module: /mnt/sda5/.user/root/src/openwatcom-1.9/bld/clib/library/winnt.386/mf_rp/clib3r.lib(mbscat.c)
6fe17c70       _mbscat_
Module: /mnt/sda5/.user/root/src/openwatcom-1.9/bld/clib/library/winnt.386/mf_rp/clib3r.lib(mbschr.c)
6fe17cc0       _mbschr_
Module: /mnt/sda5/.user/root/src/openwatcom-1.9/bld/clib/library/winnt.386/mf_rp/clib3r.lib(mbscmp.c)
6fe17d70       _mbscmp_
Module: /mnt/sda5/.user/root/src/openwatcom-1.9/bld/clib/library/winnt.386/mf_rp/clib3r.lib(mbscpy.c)
6fe17e30       _mbscpy_
Module: /mnt/sda5/.user/root/src/openwatcom-1.9/bld/clib/library/winnt.386/mf_rp/clib3r.lib(mbscspn.c)
6fe17e70       _mbscspn_
Module: /mnt/sda5/.user/root/src/openwatcom-1.9/bld/clib/library/winnt.386/mf_rp/clib3r.lib(mbsdec.c)
6fe17ee0       _mbsdec_
Module: /mnt/sda5/.user/root/src/openwatcom-1.9/bld/clib/library/winnt.386/mf_rp/clib3r.lib(mbsdup.c)
6fe17f80       _mbsdup_
Module: /mnt/sda5/.user/root/src/openwatcom-1.9/bld/clib/library/winnt.386/mf_rp/clib3r.lib(mbsicmp.c)
6fe17ff0       _mbsicmp_
Module: /mnt/sda5/.user/root/src/openwatcom-1.9/bld/clib/library/winnt.386/mf_rp/clib3r.lib(mbsinc.c)
6fe180b0       _mbsinc_
Module: /mnt/sda5/.user/root/src/openwatcom-1.9/bld/clib/library/winnt.386/mf_rp/clib3r.lib(mbsinit.c)
6fe18100       mbsinit_
Module: /mnt/sda5/.user/root/src/openwatcom-1.9/bld/clib/library/winnt.386/mf_rp/clib3r.lib(_mbslen.c)
6fe18130       __mbslen_
Module: /mnt/sda5/.user/root/src/openwatcom-1.9/bld/clib/library/winnt.386/mf_rp/clib3r.lib(mbslen.c)
6fe181b0       _mbslen_
Module: /mnt/sda5/.user/root/src/openwatcom-1.9/bld/clib/library/winnt.386/mf_rp/clib3r.lib(mbslwr.c)
6fe18200       _mbslwr_
Module: /mnt/sda5/.user/root/src/openwatcom-1.9/bld/clib/library/winnt.386/mf_rp/clib3r.lib(mbsnbcat.c)
6fe18230       _mbsnbcat_
Module: /mnt/sda5/.user/root/src/openwatcom-1.9/bld/clib/library/winnt.386/mf_rp/clib3r.lib(mbsnbcmp.c)
6fe18360       _mbsnbcmp_
Module: /mnt/sda5/.user/root/src/openwatcom-1.9/bld/clib/library/winnt.386/mf_rp/clib3r.lib(mbsnbcnt.c)
6fe18430       _mbsnbcnt_
Module: /mnt/sda5/.user/root/src/openwatcom-1.9/bld/clib/library/winnt.386/mf_rp/clib3r.lib(mbsnbcpy.c)
6fe184b0       _mbsnbcpy_
Module: /mnt/sda5/.user/root/src/openwatcom-1.9/bld/clib/library/winnt.386/mf_rp/clib3r.lib(mbsnbicm.c)
6fe18540       _mbsnbicmp_
Module: /mnt/sda5/.user/root/src/openwatcom-1.9/bld/clib/library/winnt.386/mf_rp/clib3r.lib(mbsnbset.c)
6fe18610       _mbsnbset_
Module: /mnt/sda5/.user/root/src/openwatcom-1.9/bld/clib/library/winnt.386/mf_rp/clib3r.lib(mbsncat.c)
6fe18690       _mbsncat_
Module: /mnt/sda5/.user/root/src/openwatcom-1.9/bld/clib/library/winnt.386/mf_rp/clib3r.lib(mbsnccnt.c)
6fe18700       _mbsnccnt_
Module: /mnt/sda5/.user/root/src/openwatcom-1.9/bld/clib/library/winnt.386/mf_rp/clib3r.lib(mbsncmp.c)
6fe18750       _mbsncmp_
Module: /mnt/sda5/.user/root/src/openwatcom-1.9/bld/clib/library/winnt.386/mf_rp/clib3r.lib(mbsncpy.c)
6fe18820       _mbsncpy_
Module: /mnt/sda5/.user/root/src/openwatcom-1.9/bld/clib/library/winnt.386/mf_rp/clib3r.lib(mbsnextc.c)
6fe18860       _mbsnextc_
Module: /mnt/sda5/.user/root/src/openwatcom-1.9/bld/clib/library/winnt.386/mf_rp/clib3r.lib(mbsnicmp.c)
6fe188b0       _mbsnicmp_
Module: /mnt/sda5/.user/root/src/openwatcom-1.9/bld/clib/library/winnt.386/mf_rp/clib3r.lib(_mbsninc.c)
6fe18940       __mbsninc_
Module: /mnt/sda5/.user/root/src/openwatcom-1.9/bld/clib/library/winnt.386/mf_rp/clib3r.lib(mbsninc.c)
6fe189b0       _mbsninc_
Module: /mnt/sda5/.user/root/src/openwatcom-1.9/bld/clib/library/winnt.386/mf_rp/clib3r.lib(mbsnset.c)
6fe189f0       _mbsnset_
Module: /mnt/sda5/.user/root/src/openwatcom-1.9/bld/clib/library/winnt.386/mf_rp/clib3r.lib(mbspbrk.c)
6fe18a60       _mbspbrk_
Module: /mnt/sda5/.user/root/src/openwatcom-1.9/bld/clib/library/winnt.386/mf_rp/clib3r.lib(mbsrchr.c)
6fe18ad0       _mbsrchr_
Module: /mnt/sda5/.user/root/src/openwatcom-1.9/bld/clib/library/winnt.386/mf_rp/clib3r.lib(mbsrev.c)
6fe18b40       _mbsrev_
Module: /mnt/sda5/.user/root/src/openwatcom-1.9/bld/clib/library/winnt.386/mf_rp/clib3r.lib(mbsrtowc.c)
6fe18c20       mbsrtowcs_
Module: /mnt/sda5/.user/root/src/openwatcom-1.9/bld/clib/library/winnt.386/mf_rp/clib3r.lib(mbsrto_s.c)
6fe18dc0       mbsrtowcs_s_
Module: /mnt/sda5/.user/root/src/openwatcom-1.9/bld/clib/library/winnt.386/mf_rp/clib3r.lib(mbsset.c)
6fe19050       _mbsset_
Module: /mnt/sda5/.user/root/src/openwatcom-1.9/bld/clib/library/winnt.386/mf_rp/clib3r.lib(mbsspn.c)
6fe19090       _mbsspn_
Module: /mnt/sda5/.user/root/src/openwatcom-1.9/bld/clib/library/winnt.386/mf_rp/clib3r.lib(mbsspnp.c)
6fe19100       _mbsspnp_
Module: /mnt/sda5/.user/root/src/openwatcom-1.9/bld/clib/library/winnt.386/mf_rp/clib3r.lib(mbsstr.c)
6fe19170       _mbsstr_
Module: /mnt/sda5/.user/root/src/openwatcom-1.9/bld/clib/library/winnt.386/mf_rp/clib3r.lib(mbstok.c)
6fe191f0       _mbstok_
Module: /mnt/sda5/.user/root/src/openwatcom-1.9/bld/clib/library/winnt.386/mf_rp/clib3r.lib(mbstow_s.c)
6fe193e0       mbstowcs_s_
Module: /mnt/sda5/.user/root/src/openwatcom-1.9/bld/clib/library/winnt.386/mf_rp/clib3r.lib(mbstowcs.c)
6fe19610       mbstowcs_
Module: /mnt/sda5/.user/root/src/openwatcom-1.9/bld/clib/library/winnt.386/mf_rp/clib3r.lib(mbsupr.c)
6fe196b0       _mbsupr_
Module: /mnt/sda5/.user/root/src/openwatcom-1.9/bld/clib/library/winnt.386/mf_rp/clib3r.lib(mbterm.c)
6fe196e0       _mbterm_
Module: /mnt/sda5/.user/root/src/openwatcom-1.9/bld/clib/library/winnt.386/mf_rp/clib3r.lib(mbtowc.c)
6fe19740       mbtowc_
Module: /mnt/sda5/.user/root/src/openwatcom-1.9/bld/clib/library/winnt.386/mf_rp/clib3r.lib(setmbcp.c)
6fe19800       _setmbcp_
Module: /mnt/sda5/.user/root/src/openwatcom-1.9/bld/clib/library/winnt.386/mf_rp/clib3r.lib(sisinit.c)
6fe19860       sisinit_
Module: /mnt/sda5/.user/root/src/openwatcom-1.9/bld/clib/library/winnt.386/mf_rp/clib3r.lib(wcrtomb.c)
6fe19880       wcrtomb_
Module: /mnt/sda5/.user/root/src/openwatcom-1.9/bld/clib/library/winnt.386/mf_rp/clib3r.lib(wcrtom_s.c)
6fe19940       wcrtomb_s_
Module: /mnt/sda5/.user/root/src/openwatcom-1.9/bld/clib/library/winnt.386/mf_rp/clib3r.lib(wcsrtomb.c)
6fe19a40       wcsrtombs_
Module: /mnt/sda5/.user/root/src/openwatcom-1.9/bld/clib/library/winnt.386/mf_rp/clib3r.lib(wcsrto_s.c)
6fe19bd0       wcsrtombs_s_
Module: /mnt/sda5/.user/root/src/openwatcom-1.9/bld/clib/library/winnt.386/mf_rp/clib3r.lib(wcstombs.c)
6fe19e20       wcstombs_
Module: /mnt/sda5/.user/root/src/openwatcom-1.9/bld/clib/library/winnt.386/mf_rp/clib3r.lib(wcstom_s.c)
6fe19f70       wcstombs_s_
Module: /mnt/sda5/.user/root/src/openwatcom-1.9/bld/clib/library/winnt.386/mf_rp/clib3r.lib(wctob.c)
6fe1a1a0       wctob_
Module: /mnt/sda5/.user/root/src/openwatcom-1.9/bld/clib/library/winnt.386/mf_rp/clib3r.lib(wctomb.c)
6fe1a210       wctomb_
Module: /mnt/sda5/.user/root/src/openwatcom-1.9/bld/clib/library/winnt.386/mf_rp/clib3r.lib(wctomb_s.c)
6fe1a2b0       wctomb_s_
Module: /mnt/sda5/.user/root/src/openwatcom-1.9/bld/clib/library/winnt.386/mf_rp/clib3r.lib(wrlang.c)
6fe1a3b0       _WResLanguage_
Module: /mnt/sda5/.user/root/src/openwatcom-1.9/bld/clib/library/winnt.386/mf_rp/clib3r.lib(bcmp.c)
6fe1a470       bcmp_
Module: /mnt/sda5/.user/root/src/openwatcom-1.9/bld/clib/library/winnt.386/mf_rp/clib3r.lib(bcopy.c)
6fe1a4b0       bcopy_
Module: /mnt/sda5/.user/root/src/openwatcom-1.9/bld/clib/library/winnt.386/mf_rp/clib3r.lib(bzero.c)
6fe1a4e0       bzero_
Module: /mnt/sda5/.user/root/src/openwatcom-1.9/bld/clib/library/winnt.386/mf_rp/clib3r.lib(fmemccpy.c)
6fe1a510       _fmemccpy_
Module: /mnt/sda5/.user/root/src/openwatcom-1.9/bld/clib/library/winnt.386/mf_rp/clib3r.lib(fmemchr.c)
6fe1a590       _fmemchr_
Module: /mnt/sda5/.user/root/src/openwatcom-1.9/bld/clib/library/winnt.386/mf_rp/clib3r.lib(fmemcmp.c)
6fe1a5d0       _fmemcmp_
Module: /mnt/sda5/.user/root/src/openwatcom-1.9/bld/clib/library/winnt.386/mf_rp/clib3r.lib(fmemcpy.c)
6fe1a610       _fmemcpy_
Module: /mnt/sda5/.user/root/src/openwatcom-1.9/bld/clib/library/winnt.386/mf_rp/clib3r.lib(fmemicmp.c)
6fe1a660       _fmemicmp_
Module: /mnt/sda5/.user/root/src/openwatcom-1.9/bld/clib/library/winnt.386/mf_rp/clib3r.lib(fmemmove.c)
6fe1a6e0       _fmemmove_
Module: /mnt/sda5/.user/root/src/openwatcom-1.9/bld/clib/library/winnt.386/mf_rp/clib3r.lib(fmemset.c)
6fe1a780       _fmemset_
Module: /mnt/sda5/.user/root/src/openwatcom-1.9/bld/clib/library/winnt.386/mf_rp/clib3r.lib(memccpy.c)
6fe1a7c0       memccpy_
Module: /mnt/sda5/.user/root/src/openwatcom-1.9/bld/clib/library/winnt.386/mf_rp/clib3r.lib(memchr.c)
6fe1a810       memchr_
Module: /mnt/sda5/.user/root/src/openwatcom-1.9/bld/clib/library/winnt.386/mf_rp/clib3r.lib(memcmp.c)
6fe1a850       memcmp_
Module: /mnt/sda5/.user/root/src/openwatcom-1.9/bld/clib/library/winnt.386/mf_rp/clib3r.lib(memcpy.c)
6fe1a890       memcpy_
Module: /mnt/sda5/.user/root/src/openwatcom-1.9/bld/clib/library/winnt.386/mf_rp/clib3r.lib(memicmp.c)
6fe1a8d0       memicmp_
Module: /mnt/sda5/.user/root/src/openwatcom-1.9/bld/clib/library/winnt.386/mf_rp/clib3r.lib(memmove.c)
6fe1a930       memmove_
Module: /mnt/sda5/.user/root/src/openwatcom-1.9/bld/clib/library/winnt.386/mf_rp/clib3r.lib(memset.c)
6fe1a9b0       memset_
Module: /mnt/sda5/.user/root/src/openwatcom-1.9/bld/clib/library/winnt.386/mf_rp/clib3r.lib(movedata.c)
6fe1a9f0       movedata_
Module: /mnt/sda5/.user/root/src/openwatcom-1.9/bld/clib/library/winnt.386/mf_rp/clib3r.lib(memcpy_s.c)
6fe1aaa0       memcpy_s_
Module: /mnt/sda5/.user/root/src/openwatcom-1.9/bld/clib/library/winnt.386/mf_rp/clib3r.lib(memmov_s.c)
6fe1abd0       memmove_s_
Module: /mnt/sda5/.user/root/src/openwatcom-1.9/bld/clib/library/winnt.386/mf_rp/clib3r.lib(swab.c)
6fe1ac80       swab_
Module: /mnt/sda5/.user/root/src/openwatcom-1.9/bld/clib/library/winnt.386/mf_rp/clib3r.lib(umemchr.c)
6fe1acc0       wmemchr_
Module: /mnt/sda5/.user/root/src/openwatcom-1.9/bld/clib/library/winnt.386/mf_rp/clib3r.lib(umemcmp.c)
6fe1acf0       wmemcmp_
Module: /mnt/sda5/.user/root/src/openwatcom-1.9/bld/clib/library/winnt.386/mf_rp/clib3r.lib(umemcpy.c)
6fe1ad40       wmemcpy_
Module: /mnt/sda5/.user/root/src/openwatcom-1.9/bld/clib/library/winnt.386/mf_rp/clib3r.lib(umemmov.c)
6fe1ad80       wmemmove_
Module: /mnt/sda5/.user/root/src/openwatcom-1.9/bld/clib/library/winnt.386/mf_rp/clib3r.lib(umemset.c)
6fe1adf0       wmemset_
Module: /mnt/sda5/.user/root/src/openwatcom-1.9/bld/clib/library/winnt.386/mf_rp/clib3r.lib(umemcp_s.c)
6fe1ae80       wmemcpy_s_
Module: /mnt/sda5/.user/root/src/openwatcom-1.9/bld/clib/library/winnt.386/mf_rp/clib3r.lib(umemmv_s.c)
6fe1afb0       wmemmove_s_
Module: /mnt/sda5/.user/root/src/openwatcom-1.9/bld/clib/library/winnt.386/mf_rp/clib3r.lib(aborthnd.c)
6fe1b080       abort_handler_s_
Module: /mnt/sda5/.user/root/src/openwatcom-1.9/bld/clib/library/winnt.386/mf_rp/clib3r.lib(assert.c)
6fe1b100       _assert_
6fe1b330       __assert_
Module: /mnt/sda5/.user/root/src/openwatcom-1.9/bld/clib/library/winnt.386/mf_rp/clib3r.lib(assert99.c)
6fe1b3d0       _assert99_
6fe1b630       __assert99_
Module: /mnt/sda5/.user/root/src/openwatcom-1.9/bld/clib/library/winnt.386/mf_rp/clib3r.lib(basename.c)
6fe1b6c0       basename_
Module: /mnt/sda5/.user/root/src/openwatcom-1.9/bld/clib/library/winnt.386/mf_rp/clib3r.lib(ffs.c)
6fe1b770       ffs_
Module: /mnt/sda5/.user/root/src/openwatcom-1.9/bld/clib/library/winnt.386/mf_rp/clib3r.lib(dbgbreak.c)
6fe1b7a0       _CrtDbgBreak_
Module: /mnt/sda5/.user/root/src/openwatcom-1.9/bld/clib/library/winnt.386/mf_rp/clib3r.lib(dbgrpt.c)
6fe1c1a0       _CrtDbgReport_
Module: /mnt/sda5/.user/root/src/openwatcom-1.9/bld/clib/library/winnt.386/mf_rp/clib3r.lib(dbgrptfi.c)
6fe1c620       _CrtSetReportFile_
Module: /mnt/sda5/.user/root/src/openwatcom-1.9/bld/clib/library/winnt.386/mf_rp/clib3r.lib(dbgrptho.c)
6fe1c6c0       _CrtSetReportHook_
Module: /mnt/sda5/.user/root/src/openwatcom-1.9/bld/clib/library/winnt.386/mf_rp/clib3r.lib(dbgrptmo.c)
6fe1c6f0       _CrtSetReportMode_
Module: /mnt/sda5/.user/root/src/openwatcom-1.9/bld/clib/library/winnt.386/mf_rp/clib3r.lib(demangl.c)
6fe1fa90       __demangle_t_
Module: /mnt/sda5/.user/root/src/openwatcom-1.9/bld/clib/library/winnt.386/mf_rp/clib3r.lib(dirname.c)
6fe1fb50       dirname_
Module: /mnt/sda5/.user/root/src/openwatcom-1.9/bld/clib/library/winnt.386/mf_rp/clib3r.lib(fullpath.c)
6fe1fc30       _sys_fullpath_
6fe1fd00       _fullpath_
Module: /mnt/sda5/.user/root/src/openwatcom-1.9/bld/clib/library/winnt.386/mf_rp/clib3r.lib(getopt.c)
6fe47508       _optind
6fe4750c       _opterr
6fe47510+      ___altoptchar
6fe1fe00       getopt_
6febc434       _optarg
6febc438       _optopt
6febc43c+      ___optchar
Module: /mnt/sda5/.user/root/src/openwatcom-1.9/bld/clib/library/winnt.386/mf_rp/clib3r.lib(hostwin.c)
6fe200d0       _host_os_id_
6fe20130       _host_os_name_
Module: /mnt/sda5/.user/root/src/openwatcom-1.9/bld/clib/library/winnt.386/mf_rp/clib3r.lib(ignorhnd.c)
6fe20190       ignore_handler_s_
Module: /mnt/sda5/.user/root/src/openwatcom-1.9/bld/clib/library/winnt.386/mf_rp/clib3r.lib(localeco.c)
6fe201c0       localeconv_
Module: /mnt/sda5/.user/root/src/openwatcom-1.9/bld/clib/library/winnt.386/mf_rp/clib3r.lib(lrotl.c)
6fe201e0       _lrotl_
Module: /mnt/sda5/.user/root/src/openwatcom-1.9/bld/clib/library/winnt.386/mf_rp/clib3r.lib(lrotr.c)
6fe20210       _lrotr_
Module: /mnt/sda5/.user/root/src/openwatcom-1.9/bld/clib/library/winnt.386/mf_rp/clib3r.lib(makepath.c)
6fe20280       _makepath_
Module: /mnt/sda5/.user/root/src/openwatcom-1.9/bld/clib/library/winnt.386/mf_rp/clib3r.lib(rotl.c)
6fe204c0       _rotl_
Module: /mnt/sda5/.user/root/src/openwatcom-1.9/bld/clib/library/winnt.386/mf_rp/clib3r.lib(rotr.c)
6fe204f0       _rotr_
Module: /mnt/sda5/.user/root/src/openwatcom-1.9/bld/clib/library/winnt.386/mf_rp/clib3r.lib(rtconstr.c)
6fe20520       set_constraint_handler_s_
Module: /mnt/sda5/.user/root/src/openwatcom-1.9/bld/clib/library/winnt.386/mf_rp/clib3r.lib(setlocal.c)
6fe20570       setlocale_
Module: /mnt/sda5/.user/root/src/openwatcom-1.9/bld/clib/library/winnt.386/mf_rp/clib3r.lib(split2.c)
6fe20690       _splitpath2_
Module: /mnt/sda5/.user/root/src/openwatcom-1.9/bld/clib/library/winnt.386/mf_rp/clib3r.lib(splitpat.c)
6fe20880       _splitpath_
Module: /mnt/sda5/.user/root/src/openwatcom-1.9/bld/clib/library/winnt.386/mf_rp/clib3r.lib(uassert.c)
6fe209f0       _wassert_
6fe20a50       __wassert_
Module: /mnt/sda5/.user/root/src/openwatcom-1.9/bld/clib/library/winnt.386/mf_rp/clib3r.lib(uassrt99.c)
6fe20b00       _wassert99_
6fe20b60       __wassert99_
Module: /mnt/sda5/.user/root/src/openwatcom-1.9/bld/clib/library/winnt.386/mf_rp/clib3r.lib(ufulpath.c)
6fe20bc0       _sys_wfullpath_
6fe20c80       _wfullpath_
Module: /mnt/sda5/.user/root/src/openwatcom-1.9/bld/clib/library/winnt.386/mf_rp/clib3r.lib(umkpath.c)
6fe20d70       _wmakepath_
Module: /mnt/sda5/.user/root/src/openwatcom-1.9/bld/clib/library/winnt.386/mf_rp/clib3r.lib(usplit2.c)
6fe20f60       _wsplitpath2_
Module: /mnt/sda5/.user/root/src/openwatcom-1.9/bld/clib/library/winnt.386/mf_rp/clib3r.lib(uspltpat.c)
6fe21120       _wsplitpath_
Module: /mnt/sda5/.user/root/src/openwatcom-1.9/bld/clib/library/winnt.386/mf_rp/clib3r.lib(ustlocal.c)
6fe21240       _wsetlocale_
Module: /mnt/sda5/.user/root/src/openwatcom-1.9/bld/clib/library/winnt.386/mf_rp/clib3r.lib(mthread.c)
6fe21520       __CloseSemaphore_
6fe21540       __AccessSemaphore_
6fe215d0       __ReleaseSemaphore_
6fe21650+      __AccessIOB_
6fe21680+      __ReleaseIOB_
6fe216b0+      __AccessFileH_
6fe216e0+      __ReleaseFileH_
6fe21710+      __AccessNHeap_
6fe21740+      __ReleaseNHeap_
6fe21770+      __AccessFHeap_
6fe217a0+      __ReleaseFHeap_
6fe217d0+      __AccessTDList_
6fe21800+      __ReleaseTDList_
6fe21830+      __AccessFList_
6fe21860+      __ReleaseFList_
6fe21890+      __MultipleThread_
6fe21910       __AllocInitThreadData_
6fe21970       __FreeInitThreadData_
6fe219b0       __NTThreadInit_
6fe21a80       __NTAddThread_
6fe21b10       __NTRemoveThread_
6fe21bd0       __InitMultipleThread_
6fe47560       ___AccessSema4
6fe47564       ___ReleaseSema4
6fe47568       ___CloseSema4
Module: /mnt/sda5/.user/root/src/openwatcom-1.9/bld/clib/library/winnt.386/mf_rp/clib3r.lib(mthrdini.c)
6fe21e20       __InitThreadData_
6fe4756c       ___ThreadDataSize
Module: /mnt/sda5/.user/root/src/openwatcom-1.9/bld/clib/library/winnt.386/mf_rp/clib3r.lib(regdata.c)
6fe21e80       __RegisterThreadDataSize_
Module: /mnt/sda5/.user/root/src/openwatcom-1.9/bld/clib/library/winnt.386/mf_rp/clib3r.lib(register.c)
6fe21ef0       __initthread_
6fe21f20       _beginthread_
6fe21f50       _endthread_
6fe21f80       __RegisterThreadData_
Module: /mnt/sda5/.user/root/src/openwatcom-1.9/bld/clib/library/winnt.386/mf_rp/clib3r.lib(registrx.c)
6fe21ff0       _beginthreadex_
6fe22030       _endthreadex_
Module: /mnt/sda5/.user/root/src/openwatcom-1.9/bld/clib/library/winnt.386/mf_rp/clib3r.lib(tdhdlwnt.c)
6fe22060       __threadhandle_
Module: /mnt/sda5/.user/root/src/openwatcom-1.9/bld/clib/library/winnt.386/mf_rp/clib3r.lib(cwaitwnt.c)
6fe22090       cwait_
Module: /mnt/sda5/.user/root/src/openwatcom-1.9/bld/clib/library/winnt.386/mf_rp/clib3r.lib(delaywnt.c)
6fe22190       delay_
Module: /mnt/sda5/.user/root/src/openwatcom-1.9/bld/clib/library/winnt.386/mf_rp/clib3r.lib(excptwnt.c)
6fe22840+      ___ReportException@4
6fe22e80       __DefaultExceptionHandler_
6fe22ef0+      ___ExceptionFilter
6fe23160       __NewExceptionFilter_
6fe231b0       __DoneExceptionFilter_
6fe47584       ___oscode_check_func
6fe47588       ___raise_func
6febcbac*      _sw
6febcbb0+      ___ExceptionHandled
6febcbb1+      ___ReportInvoked
Module: /mnt/sda5/.user/root/src/openwatcom-1.9/bld/clib/library/winnt.386/mf_rp/clib3r.lib(exl.c)
6fe23200       execl_
Module: /mnt/sda5/.user/root/src/openwatcom-1.9/bld/clib/library/winnt.386/mf_rp/clib3r.lib(exle.c)
6fe23240       execle_
Module: /mnt/sda5/.user/root/src/openwatcom-1.9/bld/clib/library/winnt.386/mf_rp/clib3r.lib(exlp.c)
6fe23280       execlp_
Module: /mnt/sda5/.user/root/src/openwatcom-1.9/bld/clib/library/winnt.386/mf_rp/clib3r.lib(exlpe.c)
6fe232b0       execlpe_
Module: /mnt/sda5/.user/root/src/openwatcom-1.9/bld/clib/library/winnt.386/mf_rp/clib3r.lib(exv.c)
6fe232f0       execv_
Module: /mnt/sda5/.user/root/src/openwatcom-1.9/bld/clib/library/winnt.386/mf_rp/clib3r.lib(exvewnt.c)
6fe23318       execve_
Module: /mnt/sda5/.user/root/src/openwatcom-1.9/bld/clib/library/winnt.386/mf_rp/clib3r.lib(exvp.c)
6fe23380       execvp_
Module: /mnt/sda5/.user/root/src/openwatcom-1.9/bld/clib/library/winnt.386/mf_rp/clib3r.lib(exvpe.c)
6fe233ad       execvpe_
Module: /mnt/sda5/.user/root/src/openwatcom-1.9/bld/clib/library/winnt.386/mf_rp/clib3r.lib(signlwnt.c)
6fe475a0+      __SignalTable
6fe23560+      __SetSignalFunc_
6fe235d0+      __GetSignalFunc_
6fe23620+      __GetSignalOSCode_
6fe23670+      __CheckSignalExCode_
6fe23880+      __sigabort_
6fe238b0       __sigfpe_handler_
6fe23930       signal_
6fe23a00       raise_
6fe23ac0+      __SigInit_
6fe23b30+      __SigFini_
6fe23ba0+      __sig_init_
Module: /mnt/sda5/.user/root/src/openwatcom-1.9/bld/clib/library/winnt.386/mf_rp/clib3r.lib(sleepwnt.c)
6fe23be0       sleep_
Module: /mnt/sda5/.user/root/src/openwatcom-1.9/bld/clib/library/winnt.386/mf_rp/clib3r.lib(spl.c)
6fe23c10       spawnl_
Module: /mnt/sda5/.user/root/src/openwatcom-1.9/bld/clib/library/winnt.386/mf_rp/clib3r.lib(sple.c)
6fe23c50       spawnle_
Module: /mnt/sda5/.user/root/src/openwatcom-1.9/bld/clib/library/winnt.386/mf_rp/clib3r.lib(splp.c)
6fe23ca0       spawnlp_
Module: /mnt/sda5/.user/root/src/openwatcom-1.9/bld/clib/library/winnt.386/mf_rp/clib3r.lib(splpe.c)
6fe23cd0       spawnlpe_
Module: /mnt/sda5/.user/root/src/openwatcom-1.9/bld/clib/library/winnt.386/mf_rp/clib3r.lib(spv.c)
6fe23d20       spawnv_
Module: /mnt/sda5/.user/root/src/openwatcom-1.9/bld/clib/library/winnt.386/mf_rp/clib3r.lib(spve.c)
6fe23db0       spawnve_
Module: /mnt/sda5/.user/root/src/openwatcom-1.9/bld/clib/library/winnt.386/mf_rp/clib3r.lib(spvp.c)
6fe24380       spawnvp_
Module: /mnt/sda5/.user/root/src/openwatcom-1.9/bld/clib/library/winnt.386/mf_rp/clib3r.lib(spvpe.c)
6fe243ad       spawnvpe_
Module: /mnt/sda5/.user/root/src/openwatcom-1.9/bld/clib/library/winnt.386/mf_rp/clib3r.lib(system.c)
6fe245a0       system_
Module: /mnt/sda5/.user/root/src/openwatcom-1.9/bld/clib/library/winnt.386/mf_rp/clib3r.lib(uexl.c)
6fe24640       _wexecl_
Module: /mnt/sda5/.user/root/src/openwatcom-1.9/bld/clib/library/winnt.386/mf_rp/clib3r.lib(uexle.c)
6fe24680       _wexecle_
Module: /mnt/sda5/.user/root/src/openwatcom-1.9/bld/clib/library/winnt.386/mf_rp/clib3r.lib(uexlp.c)
6fe246c0       _wexeclp_
Module: /mnt/sda5/.user/root/src/openwatcom-1.9/bld/clib/library/winnt.386/mf_rp/clib3r.lib(uexlpe.c)
6fe246f0       _wexeclpe_
Module: /mnt/sda5/.user/root/src/openwatcom-1.9/bld/clib/library/winnt.386/mf_rp/clib3r.lib(uexv.c)
6fe24730       _wexecv_
Module: /mnt/sda5/.user/root/src/openwatcom-1.9/bld/clib/library/winnt.386/mf_rp/clib3r.lib(uexve.c)
6fe24780       _wexecve_
Module: /mnt/sda5/.user/root/src/openwatcom-1.9/bld/clib/library/winnt.386/mf_rp/clib3r.lib(uexvp.c)
6fe247f0       _wexecvp_
Module: /mnt/sda5/.user/root/src/openwatcom-1.9/bld/clib/library/winnt.386/mf_rp/clib3r.lib(uexvpe.c)
6fe24850       _wexecvpe_
Module: /mnt/sda5/.user/root/src/openwatcom-1.9/bld/clib/library/winnt.386/mf_rp/clib3r.lib(uspl.c)
6fe24a30       _wspawnl_
Module: /mnt/sda5/.user/root/src/openwatcom-1.9/bld/clib/library/winnt.386/mf_rp/clib3r.lib(usple.c)
6fe24a80       _wspawnle_
Module: /mnt/sda5/.user/root/src/openwatcom-1.9/bld/clib/library/winnt.386/mf_rp/clib3r.lib(usplp.c)
6fe24ad0       _wspawnlp_
Module: /mnt/sda5/.user/root/src/openwatcom-1.9/bld/clib/library/winnt.386/mf_rp/clib3r.lib(usplpe.c)
6fe24b00       _wspawnlpe_
Module: /mnt/sda5/.user/root/src/openwatcom-1.9/bld/clib/library/winnt.386/mf_rp/clib3r.lib(uspv.c)
6fe24b50       _wspawnv_
Module: /mnt/sda5/.user/root/src/openwatcom-1.9/bld/clib/library/winnt.386/mf_rp/clib3r.lib(uspve.c)
6fe24c20       _wspawnve_
Module: /mnt/sda5/.user/root/src/openwatcom-1.9/bld/clib/library/winnt.386/mf_rp/clib3r.lib(uspvp.c)
6fe25210       _wspawnvp_
Module: /mnt/sda5/.user/root/src/openwatcom-1.9/bld/clib/library/winnt.386/mf_rp/clib3r.lib(uspvpe.c)
6fe25270       _wspawnvpe_
Module: /mnt/sda5/.user/root/src/openwatcom-1.9/bld/clib/library/winnt.386/mf_rp/clib3r.lib(usystem.c)
6fe254c0       _wsystem_
Module: /mnt/sda5/.user/root/src/openwatcom-1.9/bld/clib/library/winnt.386/mf_rp/clib3r.lib(waitwnt.c)
6fe25560       wait_
Module: /mnt/sda5/.user/root/src/openwatcom-1.9/bld/clib/library/winnt.386/mf_rp/clib3r.lib(bsearch.c)
6fe25590       bsearch_
Module: /mnt/sda5/.user/root/src/openwatcom-1.9/bld/clib/library/winnt.386/mf_rp/clib3r.lib(lfind.c)
6fe25630       lfind_
Module: /mnt/sda5/.user/root/src/openwatcom-1.9/bld/clib/library/winnt.386/mf_rp/clib3r.lib(lsearch.c)
6fe25690       lsearch_
Module: /mnt/sda5/.user/root/src/openwatcom-1.9/bld/clib/library/winnt.386/mf_rp/clib3r.lib(qsort.c)
6fe257a0       qsort_
Module: /mnt/sda5/.user/root/src/openwatcom-1.9/bld/clib/library/winnt.386/mf_rp/clib3r.lib(bsrch_s.c)
6fe25f10       bsearch_s_
Module: /mnt/sda5/.user/root/src/openwatcom-1.9/bld/clib/library/winnt.386/mf_rp/clib3r.lib(qsort_s.c)
6fe261a0       qsort_s_
Module: /mnt/sda5/.user/root/src/openwatcom-1.9/bld/clib/library/winnt.386/mf_rp/clib3r.lib(abort.c)
6fe26a31       abort_
6fe26a69       __terminate_
6fe4760c       ___abort
Module: /mnt/sda5/.user/root/src/openwatcom-1.9/bld/clib/library/winnt.386/mf_rp/clib3r.lib(chk8087.c)
6fe26ae0       _fpreset_
6fe26b20+      __init_8087_
6fe26b80       __chk8087_
Module: /mnt/sda5/.user/root/src/openwatcom-1.9/bld/clib/library/winnt.386/mf_rp/clib3r.lib(cmdname.c)
6fe26bc0       _cmdname_
Module: /mnt/sda5/.user/root/src/openwatcom-1.9/bld/clib/library/winnt.386/mf_rp/clib3r.lib(crtinit.c)
6fe26c10       __CRT_INIT@12
Module: /mnt/sda5/.user/root/src/openwatcom-1.9/bld/clib/library/winnt.386/mf_rp/clib3r.lib(cvtbuf.c)
6fe26c30       __CVTBuffer_
Module: /mnt/sda5/.user/root/src/openwatcom-1.9/bld/clib/library/winnt.386/mf_rp/clib3r.lib(enterdb.c)
6fe26c60       __EnterWVIDEO_
6fe47610       ___WD_Present
Module: /mnt/sda5/.user/root/src/openwatcom-1.9/bld/clib/library/winnt.386/mf_rp/clib3r.lib(errno.c)
6fe26cb0       __get_errno_ptr_
6fe26ce0       __get_doserrno_ptr_
Module: /mnt/sda5/.user/root/src/openwatcom-1.9/bld/clib/library/winnt.386/mf_rp/clib3r.lib(exit.c)
6fe26d04+      __null_int23_exit_
6fe26d2a       exit_
6fe26db4       _exit_
6fe47614       ___int23_exit
6fe47618+      ___FPE_handler_exit
Module: /mnt/sda5/.user/root/src/openwatcom-1.9/bld/clib/library/winnt.386/mf_rp/clib3r.lib(imthread.c)
6febb02c       __imthread
Module: /mnt/sda5/.user/root/src/openwatcom-1.9/bld/clib/library/winnt.386/mf_rp/clib3r.lib(initargv.c)
6fe26e40       __Init_Argv_
6fe26eb0       _getargv_
6fe27090       __Fini_Argv_
Module: /mnt/sda5/.user/root/src/openwatcom-1.9/bld/clib/library/winnt.386/mf_rp/clib3r.lib(initwarg.c)
6fe270d0       __wInit_Argv_
6fe27140       _wgetargv_
6fe27350       __wFini_Argv_
Module: /mnt/sda5/.user/root/src/openwatcom-1.9/bld/clib/library/winnt.386/mf_rp/clib3r.lib(ioexit.c)
6fe27410       fcloseall_
6fe27440       __full_io_exit_
Module: /mnt/sda5/.user/root/src/openwatcom-1.9/bld/clib/library/winnt.386/mf_rp/clib3r.lib(liballoc.c)
6fe27470       _plib_malloc_
6fe27490       _plib_free_
Module: /mnt/sda5/.user/root/src/openwatcom-1.9/bld/clib/library/winnt.386/mf_rp/clib3r.lib(ljmphdl.c)
6fe4761c       ___longjmp_handler
Module: /mnt/sda5/.user/root/src/openwatcom-1.9/bld/clib/library/winnt.386/mf_rp/clib3r.lib(mainwnt.c)
6fe47620       ___TlsIndex
6fe47624       ___FirstThreadData
6fe47628       ___GetThreadPtr
6fe4762c       __AccessFileH
6fe47630       __ReleaseFileH
6fe47634       __AccessIOB
6fe47638       __ReleaseIOB
6fe4763c       __AccessNHeap
6fe47640       __AccessFHeap
6fe47644       __ReleaseNHeap
6fe274e0       __threadid_
6fe275d0+      __sig_null_rtn_
6fe275f0       __NTInit_
6fe27830       __NTFini_
6fe278c0*      __NTMainInit_
6fe27960       __exit_
6fe47648       __ReleaseFHeap
6fe4764c       __AccessTDList
6fe47650       __ReleaseTDList
6fe47654       __AccessFList
6fe47658       __ReleaseFList
6fe4765c       __ThreadExitRtn
6fe47660       ___sig_init_rtn
6fe47664       ___sig_fini_rtn
6fe47668       ___process_fini
6febcbc4       ___Is_DLL
Module: /mnt/sda5/.user/root/src/openwatcom-1.9/bld/clib/library/winnt.386/mf_rp/clib3r.lib(mtype.c)
6fe279e0       __MachineType_
Module: /mnt/sda5/.user/root/src/openwatcom-1.9/bld/clib/library/winnt.386/mf_rp/clib3r.lib(nomem.c)
6fe27a40       _Not_Enough_Memory_
Module: /mnt/sda5/.user/root/src/openwatcom-1.9/bld/clib/library/winnt.386/mf_rp/clib3r.lib(nonibm.c)
6fe27a70*      __is_nonIBM_
6fe4766c       ___NonIBM
Module: /mnt/sda5/.user/root/src/openwatcom-1.9/bld/clib/library/winnt.386/mf_rp/clib3r.lib(onexit.c)
6fe27ab0       onexit_
Module: /mnt/sda5/.user/root/src/openwatcom-1.9/bld/clib/library/winnt.386/mf_rp/clib3r.lib(osbdptr.c)
6fe27af0       __get_osbuild_ptr_
Module: /mnt/sda5/.user/root/src/openwatcom-1.9/bld/clib/library/winnt.386/mf_rp/clib3r.lib(osmjptr.c)
6fe27b10       __get_osmajor_ptr_
Module: /mnt/sda5/.user/root/src/openwatcom-1.9/bld/clib/library/winnt.386/mf_rp/clib3r.lib(osmnptr.c)
6fe27b30       __get_osminor_ptr_
Module: /mnt/sda5/.user/root/src/openwatcom-1.9/bld/clib/library/winnt.386/mf_rp/clib3r.lib(osvrptr.c)
6fe27b50       __get_osver_ptr_
Module: /mnt/sda5/.user/root/src/openwatcom-1.9/bld/clib/library/winnt.386/mf_rp/clib3r.lib(pgmptr.c)
6fe27b70       __get_pgmptr_ptr_
Module: /mnt/sda5/.user/root/src/openwatcom-1.9/bld/clib/library/winnt.386/mf_rp/clib3r.lib(rtcntrl.c)
6fe27b90       _SetLD64bit_
6fe27bb0       _SetLD80bit_
6fe27bd0       _LDisDouble_
Module: /mnt/sda5/.user/root/src/openwatcom-1.9/bld/clib/library/winnt.386/mf_rp/clib3r.lib(seh)
6fe27bf4       __TryInit
6fe27c16       __TryFini
6fe27d05       __TryUnwind
6fe27c26       __TryHandler
6fe27c79       __Except
Module: /mnt/sda5/.user/root/src/openwatcom-1.9/bld/clib/library/winnt.386/mf_rp/clib3r.lib(sehv2)
6fe27d18       __TryInit2
6fe27d3a       __TryFini2
6fe27e29       __TryUnwind2
6fe27d4a       __TryHandler2
6fe27d9d       __Except2
Module: /mnt/sda5/.user/root/src/openwatcom-1.9/bld/clib/library/winnt.386/mf_rp/clib3r.lib(seterrno.c)
6fe27e3b       __set_errno_
6fe27e63       __set_EDOM_
6fe27e87       __set_ERANGE_
6fe27eab       __set_EINVAL_
6fe27ed4       __set_doserrno_
Module: /mnt/sda5/.user/root/src/openwatcom-1.9/bld/clib/library/winnt.386/mf_rp/clib3r.lib(stackwnt.c)
6fe27f00       stackavail_
Module: /mnt/sda5/.user/root/src/openwatcom-1.9/bld/clib/library/winnt.386/mf_rp/clib3r.lib(setjmp)
6fe27f30       _setjmp_
6fe27f69       longjmp_
Module: /mnt/sda5/.user/root/src/openwatcom-1.9/bld/clib/library/winnt.386/mf_rp/clib3r.lib(stk)
6fe27ff5       __CHK
6fe28005       __STK
6fe28024       __STKOVERFLOW_
6fe28034       __GRO
6fe28054       __alloca_probe
Module: /mnt/sda5/.user/root/src/openwatcom-1.9/bld/clib/library/winnt.386/mf_rp/clib3r.lib(wnmjptr.c)
6fe28070       __get_winmajor_ptr_
Module: /mnt/sda5/.user/root/src/openwatcom-1.9/bld/clib/library/winnt.386/mf_rp/clib3r.lib(wnmnptr.c)
6fe28090       __get_winminor_ptr_
Module: /mnt/sda5/.user/root/src/openwatcom-1.9/bld/clib/library/winnt.386/mf_rp/clib3r.lib(wnvrptr.c)
6fe280b0       __get_winver_ptr_
Module: /mnt/sda5/.user/root/src/openwatcom-1.9/bld/clib/library/winnt.386/mf_rp/clib3r.lib(wpgmptr.c)
6fe280d0       __get_wpgmptr_ptr_
Module: /mnt/sda5/.user/root/src/openwatcom-1.9/bld/clib/library/winnt.386/mf_rp/clib3r.lib(xmsgwnt.c)
6fe280f0       __exit_with_msg_
6fe28190       __fatal_runtime_error_
Module: /mnt/sda5/.user/root/src/openwatcom-1.9/bld/clib/library/winnt.386/mf_rp/clib3r.lib(___argc.c)
6febd1e0       ____Argc
6febd1e4       ____Argv
Module: /mnt/sda5/.user/root/src/openwatcom-1.9/bld/clib/library/winnt.386/mf_rp/clib3r.lib(___wargc.c)
6febd1e8       ____wArgv
6febd1ec       ____wArgc
Module: /mnt/sda5/.user/root/src/openwatcom-1.9/bld/clib/library/winnt.386/mf_rp/clib3r.lib(64fseek.c)
6fe28280       _fseeki64_
Module: /mnt/sda5/.user/root/src/openwatcom-1.9/bld/clib/library/winnt.386/mf_rp/clib3r.lib(64ftell.c)
6fe28500       _ftelli64_
Module: /mnt/sda5/.user/root/src/openwatcom-1.9/bld/clib/library/winnt.386/mf_rp/clib3r.lib(clearerr.c)
6fe285c0       clearerr_
Module: /mnt/sda5/.user/root/src/openwatcom-1.9/bld/clib/library/winnt.386/mf_rp/clib3r.lib(comtflag.c)
6fe28600       __set_commode_
6fe47684       __commode
Module: /mnt/sda5/.user/root/src/openwatcom-1.9/bld/clib/library/winnt.386/mf_rp/clib3r.lib(fclose.c)
6fe28620       __doclose_
6fe28710       __shutdown_stream_
6fe28750       fclose_
6febd1f0       ___RmTmpFileFn
Module: /mnt/sda5/.user/root/src/openwatcom-1.9/bld/clib/library/winnt.386/mf_rp/clib3r.lib(fdopen.c)
6fe28850       fdopen_
Module: /mnt/sda5/.user/root/src/openwatcom-1.9/bld/clib/library/winnt.386/mf_rp/clib3r.lib(feof.c)
6fe28980       feof_
Module: /mnt/sda5/.user/root/src/openwatcom-1.9/bld/clib/library/winnt.386/mf_rp/clib3r.lib(ferror.c)
6fe289a0       ferror_
Module: /mnt/sda5/.user/root/src/openwatcom-1.9/bld/clib/library/winnt.386/mf_rp/clib3r.lib(fflush.c)
6fe289c0       fflush_
Module: /mnt/sda5/.user/root/src/openwatcom-1.9/bld/clib/library/winnt.386/mf_rp/clib3r.lib(fgetc.c)
6fe28a00       __fill_buffer_
6fe28b50       fgetc_
Module: /mnt/sda5/.user/root/src/openwatcom-1.9/bld/clib/library/winnt.386/mf_rp/clib3r.lib(fgetchar.c)
6fe28c70       fgetchar_
Module: /mnt/sda5/.user/root/src/openwatcom-1.9/bld/clib/library/winnt.386/mf_rp/clib3r.lib(fgetpos.c)
6fe28ca0       fgetpos_
Module: /mnt/sda5/.user/root/src/openwatcom-1.9/bld/clib/library/winnt.386/mf_rp/clib3r.lib(fgets.c)
6fe28cd0       fgets_
Module: /mnt/sda5/.user/root/src/openwatcom-1.9/bld/clib/library/winnt.386/mf_rp/clib3r.lib(flush.c)
6fe28d70       __flush_
Module: /mnt/sda5/.user/root/src/openwatcom-1.9/bld/clib/library/winnt.386/mf_rp/clib3r.lib(flushall.c)
6fe28eb0       __flushall_
6fe28f20       flushall_
Module: /mnt/sda5/.user/root/src/openwatcom-1.9/bld/clib/library/winnt.386/mf_rp/clib3r.lib(fopen.c)
6fe28f50       __open_flags_
6fe291c0       _fsopen_
6fe29240       fopen_
6fe29350       freopen_
Module: /mnt/sda5/.user/root/src/openwatcom-1.9/bld/clib/library/winnt.386/mf_rp/clib3r.lib(fopen_s.c)
6fe29440       fopen_s_
Module: /mnt/sda5/.user/root/src/openwatcom-1.9/bld/clib/library/winnt.386/mf_rp/clib3r.lib(freop_s.c)
6fe29520       freopen_s_
Module: /mnt/sda5/.user/root/src/openwatcom-1.9/bld/clib/library/winnt.386/mf_rp/clib3r.lib(fprintf.c)
6fe295c0       fprintf_
Module: /mnt/sda5/.user/root/src/openwatcom-1.9/bld/clib/library/winnt.386/mf_rp/clib3r.lib(fprntf_s.c)
6fe29600       fprintf_s_
Module: /mnt/sda5/.user/root/src/openwatcom-1.9/bld/clib/library/winnt.386/mf_rp/clib3r.lib(fputc.c)
6fe29640       fputc_
Module: /mnt/sda5/.user/root/src/openwatcom-1.9/bld/clib/library/winnt.386/mf_rp/clib3r.lib(fputchar.c)
6fe297a0       fputchar_
Module: /mnt/sda5/.user/root/src/openwatcom-1.9/bld/clib/library/winnt.386/mf_rp/clib3r.lib(fputs.c)
6fe297d0       fputs_
Module: /mnt/sda5/.user/root/src/openwatcom-1.9/bld/clib/library/winnt.386/mf_rp/clib3r.lib(fread.c)
6fe298b0       fread_
Module: /mnt/sda5/.user/root/src/openwatcom-1.9/bld/clib/library/winnt.386/mf_rp/clib3r.lib(fscanf.c)
6fe29b90       vfscanf_
6fe29c30       fscanf_
Module: /mnt/sda5/.user/root/src/openwatcom-1.9/bld/clib/library/winnt.386/mf_rp/clib3r.lib(fscanf_s.c)
6fe29d20       fscanf_s_
Module: /mnt/sda5/.user/root/src/openwatcom-1.9/bld/clib/library/winnt.386/mf_rp/clib3r.lib(fseek.c)
6fe29ec0       fseek_
Module: /mnt/sda5/.user/root/src/openwatcom-1.9/bld/clib/library/winnt.386/mf_rp/clib3r.lib(fsetpos.c)
6fe2a110       fsetpos_
Module: /mnt/sda5/.user/root/src/openwatcom-1.9/bld/clib/library/winnt.386/mf_rp/clib3r.lib(ftell.c)
6fe2a140       ftell_
Module: /mnt/sda5/.user/root/src/openwatcom-1.9/bld/clib/library/winnt.386/mf_rp/clib3r.lib(fwide.c)
6fe2a1d0       fwide_
Module: /mnt/sda5/.user/root/src/openwatcom-1.9/bld/clib/library/winnt.386/mf_rp/clib3r.lib(fwrite.c)
6fe2a260       fwrite_
Module: /mnt/sda5/.user/root/src/openwatcom-1.9/bld/clib/library/winnt.386/mf_rp/clib3r.lib(getc.c)
6fe2a4e0       getc_
Module: /mnt/sda5/.user/root/src/openwatcom-1.9/bld/clib/library/winnt.386/mf_rp/clib3r.lib(getchar.c)
6fe2a500       getchar_
Module: /mnt/sda5/.user/root/src/openwatcom-1.9/bld/clib/library/winnt.386/mf_rp/clib3r.lib(gets.c)
6fe2a530       gets_
Module: /mnt/sda5/.user/root/src/openwatcom-1.9/bld/clib/library/winnt.386/mf_rp/clib3r.lib(gets_s.c)
6fe2a600       gets_s_
Module: /mnt/sda5/.user/root/src/openwatcom-1.9/bld/clib/library/winnt.386/mf_rp/clib3r.lib(getw.c)
6fe2a740       _getw_
Module: /mnt/sda5/.user/root/src/openwatcom-1.9/bld/clib/library/winnt.386/mf_rp/clib3r.lib(iob.c)
6fe47688       ___iob
6fe47890       __fmode
6febd1f4       ___OpenStreams
6febd1f8       ___ClosedStreams
Module: /mnt/sda5/.user/root/src/openwatcom-1.9/bld/clib/library/winnt.386/mf_rp/clib3r.lib(iobaddr.c)
6fe2a7a0       __get_std_stream_
6fe2a7d0       __get_std_file_
Module: /mnt/sda5/.user/root/src/openwatcom-1.9/bld/clib/library/winnt.386/mf_rp/clib3r.lib(iobptr.c)
6fe2a7f0       __get_iob_ptr_
Module: /mnt/sda5/.user/root/src/openwatcom-1.9/bld/clib/library/winnt.386/mf_rp/clib3r.lib(noefgfmt.c)
6fe47894       ___EFG_printf
6fe47898       ___EFG_scanf
Module: /mnt/sda5/.user/root/src/openwatcom-1.9/bld/clib/library/winnt.386/mf_rp/clib3r.lib(pclose.c)
6fe2a870       _pclose_
Module: /mnt/sda5/.user/root/src/openwatcom-1.9/bld/clib/library/winnt.386/mf_rp/clib3r.lib(perror.c)
6fe2a920       perror_
Module: /mnt/sda5/.user/root/src/openwatcom-1.9/bld/clib/library/winnt.386/mf_rp/clib3r.lib(popen.c)
6fe2ad90       _popen_
Module: /mnt/sda5/.user/root/src/openwatcom-1.9/bld/clib/library/winnt.386/mf_rp/clib3r.lib(printf.c)
6fe2b0a0       printf_
Module: /mnt/sda5/.user/root/src/openwatcom-1.9/bld/clib/library/winnt.386/mf_rp/clib3r.lib(printf_s.c)
6fe2b0e0       printf_s_
Module: /mnt/sda5/.user/root/src/openwatcom-1.9/bld/clib/library/winnt.386/mf_rp/clib3r.lib(putc.c)
6fe2b120       putc_
Module: /mnt/sda5/.user/root/src/openwatcom-1.9/bld/clib/library/winnt.386/mf_rp/clib3r.lib(putchar.c)
6fe2b140       putchar_
Module: /mnt/sda5/.user/root/src/openwatcom-1.9/bld/clib/library/winnt.386/mf_rp/clib3r.lib(puts.c)
6fe2b170       puts_
Module: /mnt/sda5/.user/root/src/openwatcom-1.9/bld/clib/library/winnt.386/mf_rp/clib3r.lib(putw.c)
6fe2b1d0       _putw_
Module: /mnt/sda5/.user/root/src/openwatcom-1.9/bld/clib/library/winnt.386/mf_rp/clib3r.lib(rewind.c)
6fe2b230       rewind_
Module: /mnt/sda5/.user/root/src/openwatcom-1.9/bld/clib/library/winnt.386/mf_rp/clib3r.lib(scanf.c)
6fe2b2e0       vscanf_
6fe2b320       scanf_
Module: /mnt/sda5/.user/root/src/openwatcom-1.9/bld/clib/library/winnt.386/mf_rp/clib3r.lib(scanf_s.c)
6fe2b400       scanf_s_
Module: /mnt/sda5/.user/root/src/openwatcom-1.9/bld/clib/library/winnt.386/mf_rp/clib3r.lib(setbuf.c)
6fe2b4b0       setbuf_
Module: /mnt/sda5/.user/root/src/openwatcom-1.9/bld/clib/library/winnt.386/mf_rp/clib3r.lib(setvbuf.c)
6fe2b4f0       setvbuf_
Module: /mnt/sda5/.user/root/src/openwatcom-1.9/bld/clib/library/winnt.386/mf_rp/clib3r.lib(tmpfl.c)
6fe2b5d0       tmpfile_
6fe2b770+      __Init_Tmpfl_
6fe4789c+      ___tmpfnext
Module: /mnt/sda5/.user/root/src/openwatcom-1.9/bld/clib/library/winnt.386/mf_rp/clib3r.lib(tmpfl_s.c)
6fe2b7b0       tmpfile_s_
Module: /mnt/sda5/.user/root/src/openwatcom-1.9/bld/clib/library/winnt.386/mf_rp/clib3r.lib(ufdopen.c)
6fe2b881       _wfdopen_
Module: /mnt/sda5/.user/root/src/openwatcom-1.9/bld/clib/library/winnt.386/mf_rp/clib3r.lib(ufgetc.c)
6fe2ba6e       fgetwc_
Module: /mnt/sda5/.user/root/src/openwatcom-1.9/bld/clib/library/winnt.386/mf_rp/clib3r.lib(ufgetcha.c)
6fe2bb34       fgetwchar_
Module: /mnt/sda5/.user/root/src/openwatcom-1.9/bld/clib/library/winnt.386/mf_rp/clib3r.lib(ufgets.c)
6fe2bb59       fgetws_
Module: /mnt/sda5/.user/root/src/openwatcom-1.9/bld/clib/library/winnt.386/mf_rp/clib3r.lib(ufopen.c)
6fe2bbf0       __wopen_flags_
6fe2be46       _wfsopen_
6fe2bead       _wfopen_
6fe2bf83       _wfreopen_
Module: /mnt/sda5/.user/root/src/openwatcom-1.9/bld/clib/library/winnt.386/mf_rp/clib3r.lib(ufopen_s.c)
6fe2c060       _wfopen_s_
Module: /mnt/sda5/.user/root/src/openwatcom-1.9/bld/clib/library/winnt.386/mf_rp/clib3r.lib(ufreop_s.c)
6fe2c150       _wfreopen_s_
Module: /mnt/sda5/.user/root/src/openwatcom-1.9/bld/clib/library/winnt.386/mf_rp/clib3r.lib(ufprintf.c)
6fe2c1f6       fwprintf_
Module: /mnt/sda5/.user/root/src/openwatcom-1.9/bld/clib/library/winnt.386/mf_rp/clib3r.lib(ufprnt_s.c)
6fe2c230       fwprintf_s_
Module: /mnt/sda5/.user/root/src/openwatcom-1.9/bld/clib/library/winnt.386/mf_rp/clib3r.lib(ufputc.c)
6fe2c2ec       fputwc_
Module: /mnt/sda5/.user/root/src/openwatcom-1.9/bld/clib/library/winnt.386/mf_rp/clib3r.lib(ufputcha.c)
6fe2c379       fputwchar_
Module: /mnt/sda5/.user/root/src/openwatcom-1.9/bld/clib/library/winnt.386/mf_rp/clib3r.lib(ufputs.c)
6fe2c3a3       fputws_
Module: /mnt/sda5/.user/root/src/openwatcom-1.9/bld/clib/library/winnt.386/mf_rp/clib3r.lib(ufscanf.c)
6fe2c4bf       vfwscanf_
6fe2c546       fwscanf_
Module: /mnt/sda5/.user/root/src/openwatcom-1.9/bld/clib/library/winnt.386/mf_rp/clib3r.lib(ufscnf_s.c)
6fe2c630       fwscanf_s_
Module: /mnt/sda5/.user/root/src/openwatcom-1.9/bld/clib/library/winnt.386/mf_rp/clib3r.lib(ugetc.c)
6fe2c749       getwc_
Module: /mnt/sda5/.user/root/src/openwatcom-1.9/bld/clib/library/winnt.386/mf_rp/clib3r.lib(ugetchar.c)
6fe2c769       getwchar_
Module: /mnt/sda5/.user/root/src/openwatcom-1.9/bld/clib/library/winnt.386/mf_rp/clib3r.lib(ugets.c)
6fe2c78e       getws_
Module: /mnt/sda5/.user/root/src/openwatcom-1.9/bld/clib/library/winnt.386/mf_rp/clib3r.lib(ungetc.c)
6fe2c810       ungetc_
Module: /mnt/sda5/.user/root/src/openwatcom-1.9/bld/clib/library/winnt.386/mf_rp/clib3r.lib(uperror.c)
6fe2c993       _wperror_
Module: /mnt/sda5/.user/root/src/openwatcom-1.9/bld/clib/library/winnt.386/mf_rp/clib3r.lib(upopen.c)
6fe2ce20       _wpopen_
Module: /mnt/sda5/.user/root/src/openwatcom-1.9/bld/clib/library/winnt.386/mf_rp/clib3r.lib(uprintf.c)
6fe2d148       wprintf_
Module: /mnt/sda5/.user/root/src/openwatcom-1.9/bld/clib/library/winnt.386/mf_rp/clib3r.lib(uprntf_s.c)
6fe2d190       wprintf_s_
Module: /mnt/sda5/.user/root/src/openwatcom-1.9/bld/clib/library/winnt.386/mf_rp/clib3r.lib(uputc.c)
6fe2d1cc       putwc_
Module: /mnt/sda5/.user/root/src/openwatcom-1.9/bld/clib/library/winnt.386/mf_rp/clib3r.lib(uputchar.c)
6fe2d1ef       putwchar_
Module: /mnt/sda5/.user/root/src/openwatcom-1.9/bld/clib/library/winnt.386/mf_rp/clib3r.lib(uputs.c)
6fe2d219       putws_
Module: /mnt/sda5/.user/root/src/openwatcom-1.9/bld/clib/library/winnt.386/mf_rp/clib3r.lib(uscanf.c)
6fe2d2c9       vwscanf_
6fe2d301       wscanf_
Module: /mnt/sda5/.user/root/src/openwatcom-1.9/bld/clib/library/winnt.386/mf_rp/clib3r.lib(uscanf_s.c)
6fe2d3e0       wscanf_s_
Module: /mnt/sda5/.user/root/src/openwatcom-1.9/bld/clib/library/winnt.386/mf_rp/clib3r.lib(uungetc.c)
6fe2d482       ungetwc_
Module: /mnt/sda5/.user/root/src/openwatcom-1.9/bld/clib/library/winnt.386/mf_rp/clib3r.lib(uvfprint.c)
6fe2d669       vfwprintf_
Module: /mnt/sda5/.user/root/src/openwatcom-1.9/bld/clib/library/winnt.386/mf_rp/clib3r.lib(uvfprt_s.c)
6fe2d690       vfwprintf_s_
Module: /mnt/sda5/.user/root/src/openwatcom-1.9/bld/clib/library/winnt.386/mf_rp/clib3r.lib(uvfscn_s.c)
6fe2d760       vfwscanf_s_
Module: /mnt/sda5/.user/root/src/openwatcom-1.9/bld/clib/library/winnt.386/mf_rp/clib3r.lib(uvprintf.c)
6fe2d856       vwprintf_
Module: /mnt/sda5/.user/root/src/openwatcom-1.9/bld/clib/library/winnt.386/mf_rp/clib3r.lib(uvprtf_s.c)
6fe2d890       vwprintf_s_
Module: /mnt/sda5/.user/root/src/openwatcom-1.9/bld/clib/library/winnt.386/mf_rp/clib3r.lib(uvscnf_s.c)
6fe2d960       vwscanf_s_
Module: /mnt/sda5/.user/root/src/openwatcom-1.9/bld/clib/library/winnt.386/mf_rp/clib3r.lib(vfprintf.c)
6fe2d9f0       vfprintf_
Module: /mnt/sda5/.user/root/src/openwatcom-1.9/bld/clib/library/winnt.386/mf_rp/clib3r.lib(vfprnt_s.c)
6fe2da10       vfprintf_s_
Module: /mnt/sda5/.user/root/src/openwatcom-1.9/bld/clib/library/winnt.386/mf_rp/clib3r.lib(vfscnf_s.c)
6fe2dae0       vfscanf_s_
Module: /mnt/sda5/.user/root/src/openwatcom-1.9/bld/clib/library/winnt.386/mf_rp/clib3r.lib(vprintf.c)
6fe2dbe0       vprintf_
Module: /mnt/sda5/.user/root/src/openwatcom-1.9/bld/clib/library/winnt.386/mf_rp/clib3r.lib(vprntf_s.c)
6fe2dc10       vprintf_s_
Module: /mnt/sda5/.user/root/src/openwatcom-1.9/bld/clib/library/winnt.386/mf_rp/clib3r.lib(vscanf_s.c)
6fe2dce0       vscanf_s_
Module: /mnt/sda5/.user/root/src/openwatcom-1.9/bld/clib/library/winnt.386/mf_rp/clib3r.lib(bprintf.c)
6fe2ddc0       _vbprintf_
6fe2de10       _bprintf_
6fe2de60       _vsnprintf_
6fe2ded0       _snprintf_
Module: /mnt/sda5/.user/root/src/openwatcom-1.9/bld/clib/library/winnt.386/mf_rp/clib3r.lib(_strcmp)
6fe2df20       strcmp_
Module: /mnt/sda5/.user/root/src/openwatcom-1.9/bld/clib/library/winnt.386/mf_rp/clib3r.lib(fstrcat.c)
6fe2e0a0       _fstrcat_
Module: /mnt/sda5/.user/root/src/openwatcom-1.9/bld/clib/library/winnt.386/mf_rp/clib3r.lib(fstrchr.c)
6fe2e0f0       _fstrchr_
Module: /mnt/sda5/.user/root/src/openwatcom-1.9/bld/clib/library/winnt.386/mf_rp/clib3r.lib(fstrcmp.c)
6fe2e130       _fstrcmp_
Module: /mnt/sda5/.user/root/src/openwatcom-1.9/bld/clib/library/winnt.386/mf_rp/clib3r.lib(fstrcpy.c)
6fe2e180       _fstrcpy_
Module: /mnt/sda5/.user/root/src/openwatcom-1.9/bld/clib/library/winnt.386/mf_rp/clib3r.lib(fstrcspn.c)
6fe2e1d0       _fstrcspn_
Module: /mnt/sda5/.user/root/src/openwatcom-1.9/bld/clib/library/winnt.386/mf_rp/clib3r.lib(fstrdup.c)
6fe2e240       _fstrdup_
Module: /mnt/sda5/.user/root/src/openwatcom-1.9/bld/clib/library/winnt.386/mf_rp/clib3r.lib(fstricmp.c)
6fe2e2e0       _fstricmp_
Module: /mnt/sda5/.user/root/src/openwatcom-1.9/bld/clib/library/winnt.386/mf_rp/clib3r.lib(fstrlen.c)
6fe2e340       _fstrlen_
Module: /mnt/sda5/.user/root/src/openwatcom-1.9/bld/clib/library/winnt.386/mf_rp/clib3r.lib(fstrlwr.c)
6fe2e380       _fstrlwr_
Module: /mnt/sda5/.user/root/src/openwatcom-1.9/bld/clib/library/winnt.386/mf_rp/clib3r.lib(fstrncat.c)
6fe2e3c0       _fstrncat_
Module: /mnt/sda5/.user/root/src/openwatcom-1.9/bld/clib/library/winnt.386/mf_rp/clib3r.lib(fstrncmp.c)
6fe2e440       _fstrncmp_
Module: /mnt/sda5/.user/root/src/openwatcom-1.9/bld/clib/library/winnt.386/mf_rp/clib3r.lib(fstrncpy.c)
6fe2e4b0       _fstrncpy_
Module: /mnt/sda5/.user/root/src/openwatcom-1.9/bld/clib/library/winnt.386/mf_rp/clib3r.lib(fstrnicm.c)
6fe2e520       _fstrnicmp_
Module: /mnt/sda5/.user/root/src/openwatcom-1.9/bld/clib/library/winnt.386/mf_rp/clib3r.lib(fstrnset.c)
6fe2e5a0       _fstrnset_
Module: /mnt/sda5/.user/root/src/openwatcom-1.9/bld/clib/library/winnt.386/mf_rp/clib3r.lib(fstrpbrk.c)
6fe2e5e0       _fstrpbrk_
Module: /mnt/sda5/.user/root/src/openwatcom-1.9/bld/clib/library/winnt.386/mf_rp/clib3r.lib(fstrrchr.c)
6fe2e660       _fstrrchr_
Module: /mnt/sda5/.user/root/src/openwatcom-1.9/bld/clib/library/winnt.386/mf_rp/clib3r.lib(fstrrev.c)
6fe2e6b0       _fstrrev_
Module: /mnt/sda5/.user/root/src/openwatcom-1.9/bld/clib/library/winnt.386/mf_rp/clib3r.lib(fstrset.c)
6fe2e730       _fstrset_
Module: /mnt/sda5/.user/root/src/openwatcom-1.9/bld/clib/library/winnt.386/mf_rp/clib3r.lib(fstrspn.c)
6fe2e770       _fstrspn_
Module: /mnt/sda5/.user/root/src/openwatcom-1.9/bld/clib/library/winnt.386/mf_rp/clib3r.lib(fstrspnp.c)
6fe2e7e0       _fstrspnp_
Module: /mnt/sda5/.user/root/src/openwatcom-1.9/bld/clib/library/winnt.386/mf_rp/clib3r.lib(fstrstr.c)
6fe2e830       _fstrstr_
Module: /mnt/sda5/.user/root/src/openwatcom-1.9/bld/clib/library/winnt.386/mf_rp/clib3r.lib(fstrtok.c)
6fe2e950       _fstrtok_
Module: /mnt/sda5/.user/root/src/openwatcom-1.9/bld/clib/library/winnt.386/mf_rp/clib3r.lib(fstrupr.c)
6fe2ea90       _fstrupr_
Module: /mnt/sda5/.user/root/src/openwatcom-1.9/bld/clib/library/winnt.386/mf_rp/clib3r.lib(selptr.c)
6fe2ead0       __get_sys_errlist_ptr_
Module: /mnt/sda5/.user/root/src/openwatcom-1.9/bld/clib/library/winnt.386/mf_rp/clib3r.lib(sneptr.c)
6fe2eaf0       __get_sys_nerr_ptr_
Module: /mnt/sda5/.user/root/src/openwatcom-1.9/bld/clib/library/winnt.386/mf_rp/clib3r.lib(snprintf.c)
6fe2eb80       vsnprintf_
6fe2ec00       snprintf_
Module: /mnt/sda5/.user/root/src/openwatcom-1.9/bld/clib/library/winnt.386/mf_rp/clib3r.lib(snprtf_s.c)
6fe2ece0       snprintf_s_
Module: /mnt/sda5/.user/root/src/openwatcom-1.9/bld/clib/library/winnt.386/mf_rp/clib3r.lib(sprintf.c)
6fe2edd0       sprintf_
Module: /mnt/sda5/.user/root/src/openwatcom-1.9/bld/clib/library/winnt.386/mf_rp/clib3r.lib(sprntf_s.c)
6fe2eeb0       sprintf_s_
Module: /mnt/sda5/.user/root/src/openwatcom-1.9/bld/clib/library/winnt.386/mf_rp/clib3r.lib(sscanf.c)
6fe2f020       vsscanf_
6fe2f060       sscanf_
Module: /mnt/sda5/.user/root/src/openwatcom-1.9/bld/clib/library/winnt.386/mf_rp/clib3r.lib(sscanf_s.c)
6fe2f140       sscanf_s_
Module: /mnt/sda5/.user/root/src/openwatcom-1.9/bld/clib/library/winnt.386/mf_rp/clib3r.lib(strcat.c)
6fe2f200       strcat_
Module: /mnt/sda5/.user/root/src/openwatcom-1.9/bld/clib/library/winnt.386/mf_rp/clib3r.lib(strchr.c)
6fe2f250       strchr_
Module: /mnt/sda5/.user/root/src/openwatcom-1.9/bld/clib/library/winnt.386/mf_rp/clib3r.lib(strcoll.c)
6fe2f290       strcoll_
Module: /mnt/sda5/.user/root/src/openwatcom-1.9/bld/clib/library/winnt.386/mf_rp/clib3r.lib(strcpy.c)
6fe2f2e0       strcpy_
Module: /mnt/sda5/.user/root/src/openwatcom-1.9/bld/clib/library/winnt.386/mf_rp/clib3r.lib(strcspn.c)
6fe2f320       strcspn_
Module: /mnt/sda5/.user/root/src/openwatcom-1.9/bld/clib/library/winnt.386/mf_rp/clib3r.lib(strdup.c)
6fe2f390       __clib_strdup_
Module: /mnt/sda5/.user/root/src/openwatcom-1.9/bld/clib/library/winnt.386/mf_rp/clib3r.lib(strerror.c)
6fe2f720       strerror_
6fe2f760       _strerror_
6fe2f860       _doserror_
6fe478a0       __sys_errlist
6fe47944       __sys_nerr
Module: /mnt/sda5/.user/root/src/openwatcom-1.9/bld/clib/library/winnt.386/mf_rp/clib3r.lib(stricmp.c)
6fe2f8b0       stricmp_
Module: /mnt/sda5/.user/root/src/openwatcom-1.9/bld/clib/library/winnt.386/mf_rp/clib3r.lib(strlcat.c)
6fe2f900       strlcat_
Module: /mnt/sda5/.user/root/src/openwatcom-1.9/bld/clib/library/winnt.386/mf_rp/clib3r.lib(strlcpy.c)
6fe2f970       strlcpy_
Module: /mnt/sda5/.user/root/src/openwatcom-1.9/bld/clib/library/winnt.386/mf_rp/clib3r.lib(strlen.c)
6fe2f9d0       strlen_
Module: /mnt/sda5/.user/root/src/openwatcom-1.9/bld/clib/library/winnt.386/mf_rp/clib3r.lib(strlwr.c)
6fe2fa00       strlwr_
Module: /mnt/sda5/.user/root/src/openwatcom-1.9/bld/clib/library/winnt.386/mf_rp/clib3r.lib(strncat.c)
6fe2fa40       strncat_
Module: /mnt/sda5/.user/root/src/openwatcom-1.9/bld/clib/library/winnt.386/mf_rp/clib3r.lib(strncmp.c)
6fe2faa0       strncmp_
Module: /mnt/sda5/.user/root/src/openwatcom-1.9/bld/clib/library/winnt.386/mf_rp/clib3r.lib(strncpy.c)
6fe2faf0       strncpy_
Module: /mnt/sda5/.user/root/src/openwatcom-1.9/bld/clib/library/winnt.386/mf_rp/clib3r.lib(strnicmp.c)
6fe2fb40       strnicmp_
Module: /mnt/sda5/.user/root/src/openwatcom-1.9/bld/clib/library/winnt.386/mf_rp/clib3r.lib(strnset.c)
6fe2fbb0       strnset_
Module: /mnt/sda5/.user/root/src/openwatcom-1.9/bld/clib/library/winnt.386/mf_rp/clib3r.lib(strpbrk.c)
6fe2fbe0       strpbrk_
Module: /mnt/sda5/.user/root/src/openwatcom-1.9/bld/clib/library/winnt.386/mf_rp/clib3r.lib(strrchr.c)
6fe2fc50       strrchr_
Module: /mnt/sda5/.user/root/src/openwatcom-1.9/bld/clib/library/winnt.386/mf_rp/clib3r.lib(strrev.c)
6fe2fc80       strrev_
Module: /mnt/sda5/.user/root/src/openwatcom-1.9/bld/clib/library/winnt.386/mf_rp/clib3r.lib(strset.c)
6fe2fcd0       strset_
Module: /mnt/sda5/.user/root/src/openwatcom-1.9/bld/clib/library/winnt.386/mf_rp/clib3r.lib(strspnp.c)
6fe2fd00       strspnp_
Module: /mnt/sda5/.user/root/src/openwatcom-1.9/bld/clib/library/winnt.386/mf_rp/clib3r.lib(strspn.c)
6fe2fd40       strspn_
Module: /mnt/sda5/.user/root/src/openwatcom-1.9/bld/clib/library/winnt.386/mf_rp/clib3r.lib(strstr.c)
6fe2fdb0       strstr_
Module: /mnt/sda5/.user/root/src/openwatcom-1.9/bld/clib/library/winnt.386/mf_rp/clib3r.lib(strtok.c)
6fe2fea0       strtok_
Module: /mnt/sda5/.user/root/src/openwatcom-1.9/bld/clib/library/winnt.386/mf_rp/clib3r.lib(strupr.c)
6fe2ffa0       strupr_
Module: /mnt/sda5/.user/root/src/openwatcom-1.9/bld/clib/library/winnt.386/mf_rp/clib3r.lib(strxfrm.c)
6fe2ffe0       strxfrm_
Module: /mnt/sda5/.user/root/src/openwatcom-1.9/bld/clib/library/winnt.386/mf_rp/clib3r.lib(stncat_s.c)
6fe300b0       strncat_s_
Module: /mnt/sda5/.user/root/src/openwatcom-1.9/bld/clib/library/winnt.386/mf_rp/clib3r.lib(stncpy_s.c)
6fe30260       strncpy_s_
Module: /mnt/sda5/.user/root/src/openwatcom-1.9/bld/clib/library/winnt.386/mf_rp/clib3r.lib(strcat_s.c)
6fe303e0       strcat_s_
Module: /mnt/sda5/.user/root/src/openwatcom-1.9/bld/clib/library/winnt.386/mf_rp/clib3r.lib(strcpy_s.c)
6fe30550       strcpy_s_
Module: /mnt/sda5/.user/root/src/openwatcom-1.9/bld/clib/library/winnt.386/mf_rp/clib3r.lib(streln_s.c)
6fe30640       strerrorlen_s_
Module: /mnt/sda5/.user/root/src/openwatcom-1.9/bld/clib/library/winnt.386/mf_rp/clib3r.lib(strerr_s.c)
6fe306e0       strerror_s_
Module: /mnt/sda5/.user/root/src/openwatcom-1.9/bld/clib/library/winnt.386/mf_rp/clib3r.lib(strnln_s.c)
6fe30820       strnlen_s_
Module: /mnt/sda5/.user/root/src/openwatcom-1.9/bld/clib/library/winnt.386/mf_rp/clib3r.lib(strtok_s.c)
6fe308f0       strtok_s_
Module: /mnt/sda5/.user/root/src/openwatcom-1.9/bld/clib/library/winnt.386/mf_rp/clib3r.lib(u_stprtf.c)
6fe30aa0       _stprintf_
Module: /mnt/sda5/.user/root/src/openwatcom-1.9/bld/clib/library/winnt.386/mf_rp/clib3r.lib(ubprintf.c)
6fe30b24       _vbwprintf_
6fe30b6b       _bwprintf_
6fe30ba7       _vsnwprintf_
6fe30c05       _snwprintf_
Module: /mnt/sda5/.user/root/src/openwatcom-1.9/bld/clib/library/winnt.386/mf_rp/clib3r.lib(usnprt_s.c)
6fe30ce0       snwprintf_s_
Module: /mnt/sda5/.user/root/src/openwatcom-1.9/bld/clib/library/winnt.386/mf_rp/clib3r.lib(usprintf.c)
6fe30dcb       swprintf_
6fe30e08       _swprintf_
Module: /mnt/sda5/.user/root/src/openwatcom-1.9/bld/clib/library/winnt.386/mf_rp/clib3r.lib(usprtf_s.c)
6fe30ee0       swprintf_s_
Module: /mnt/sda5/.user/root/src/openwatcom-1.9/bld/clib/library/winnt.386/mf_rp/clib3r.lib(usscanf.c)
6fe31031       vswscanf_
6fe31066       swscanf_
Module: /mnt/sda5/.user/root/src/openwatcom-1.9/bld/clib/library/winnt.386/mf_rp/clib3r.lib(usscnf_s.c)
6fe31140       swscanf_s_
Module: /mnt/sda5/.user/root/src/openwatcom-1.9/bld/clib/library/winnt.386/mf_rp/clib3r.lib(ustrcat.c)
6fe311f3       wcscat_
Module: /mnt/sda5/.user/root/src/openwatcom-1.9/bld/clib/library/winnt.386/mf_rp/clib3r.lib(ustrchr.c)
6fe31229       wcschr_
Module: /mnt/sda5/.user/root/src/openwatcom-1.9/bld/clib/library/winnt.386/mf_rp/clib3r.lib(ustrcmp.c)
6fe31253       wcscmp_
Module: /mnt/sda5/.user/root/src/openwatcom-1.9/bld/clib/library/winnt.386/mf_rp/clib3r.lib(ustrcoll.c)
6fe31290       wcscoll_
Module: /mnt/sda5/.user/root/src/openwatcom-1.9/bld/clib/library/winnt.386/mf_rp/clib3r.lib(ustrcpy.c)
6fe312e3       wcscpy_
Module: /mnt/sda5/.user/root/src/openwatcom-1.9/bld/clib/library/winnt.386/mf_rp/clib3r.lib(ustrcspn.c)
6fe3130f       wcscspn_
Module: /mnt/sda5/.user/root/src/openwatcom-1.9/bld/clib/library/winnt.386/mf_rp/clib3r.lib(ustrdup.c)
6fe3135b       __clib_wcsdup_
Module: /mnt/sda5/.user/root/src/openwatcom-1.9/bld/clib/library/winnt.386/mf_rp/clib3r.lib(ustrerro.c)
6fe313d0       wcserror_
6fe31420       _wcserror_
6fe314d0       _wdoserror_
Module: /mnt/sda5/.user/root/src/openwatcom-1.9/bld/clib/library/winnt.386/mf_rp/clib3r.lib(ustricmp.c)
6fe31519       _wcsicmp_
Module: /mnt/sda5/.user/root/src/openwatcom-1.9/bld/clib/library/winnt.386/mf_rp/clib3r.lib(ustrlcat.c)
6fe3157e       wcslcat_
Module: /mnt/sda5/.user/root/src/openwatcom-1.9/bld/clib/library/winnt.386/mf_rp/clib3r.lib(ustrlcpy.c)
6fe315db       wcslcpy_
Module: /mnt/sda5/.user/root/src/openwatcom-1.9/bld/clib/library/winnt.386/mf_rp/clib3r.lib(ustrlen.c)
6fe31634       wcslen_
Module: /mnt/sda5/.user/root/src/openwatcom-1.9/bld/clib/library/winnt.386/mf_rp/clib3r.lib(ustrlwr.c)
6fe3165b       _wcslwr_
Module: /mnt/sda5/.user/root/src/openwatcom-1.9/bld/clib/library/winnt.386/mf_rp/clib3r.lib(ustrncat.c)
6fe3169c       wcsncat_
Module: /mnt/sda5/.user/root/src/openwatcom-1.9/bld/clib/library/winnt.386/mf_rp/clib3r.lib(ustrncmp.c)
6fe316e3       wcsncmp_
Module: /mnt/sda5/.user/root/src/openwatcom-1.9/bld/clib/library/winnt.386/mf_rp/clib3r.lib(ustrncpy.c)
6fe31722       wcsncpy_
Module: /mnt/sda5/.user/root/src/openwatcom-1.9/bld/clib/library/winnt.386/mf_rp/clib3r.lib(ustrnicm.c)
6fe31764       _wcsnicmp_
Module: /mnt/sda5/.user/root/src/openwatcom-1.9/bld/clib/library/winnt.386/mf_rp/clib3r.lib(ustrnset.c)
6fe317d4       _wcsnset_
Module: /mnt/sda5/.user/root/src/openwatcom-1.9/bld/clib/library/winnt.386/mf_rp/clib3r.lib(ustrpbrk.c)
6fe31801       wcspbrk_
Module: /mnt/sda5/.user/root/src/openwatcom-1.9/bld/clib/library/winnt.386/mf_rp/clib3r.lib(ustrrchr.c)
6fe31844       wcsrchr_
Module: /mnt/sda5/.user/root/src/openwatcom-1.9/bld/clib/library/winnt.386/mf_rp/clib3r.lib(ustrrev.c)
6fe31874       _wcsrev_
Module: /mnt/sda5/.user/root/src/openwatcom-1.9/bld/clib/library/winnt.386/mf_rp/clib3r.lib(ustrset.c)
6fe318bc       _wcsset_
Module: /mnt/sda5/.user/root/src/openwatcom-1.9/bld/clib/library/winnt.386/mf_rp/clib3r.lib(ustrspn.c)
6fe318e4       wcsspn_
Module: /mnt/sda5/.user/root/src/openwatcom-1.9/bld/clib/library/winnt.386/mf_rp/clib3r.lib(ustrspnp.c)
6fe31930       _wcsspnp_
Module: /mnt/sda5/.user/root/src/openwatcom-1.9/bld/clib/library/winnt.386/mf_rp/clib3r.lib(ustrstr.c)
6fe3196c       wcsstr_
Module: /mnt/sda5/.user/root/src/openwatcom-1.9/bld/clib/library/winnt.386/mf_rp/clib3r.lib(ustrtok.c)
6fe31a1a       _ustrtok_
6fe31a3e       wcstok_
Module: /mnt/sda5/.user/root/src/openwatcom-1.9/bld/clib/library/winnt.386/mf_rp/clib3r.lib(ustrupr.c)
6fe31b21       _wcsupr_
Module: /mnt/sda5/.user/root/src/openwatcom-1.9/bld/clib/library/winnt.386/mf_rp/clib3r.lib(ustrxfrm.c)
6fe31b70       wcsxfrm_
Module: /mnt/sda5/.user/root/src/openwatcom-1.9/bld/clib/library/winnt.386/mf_rp/clib3r.lib(uvsnpr_s.c)
6fe31c40       vsnwprintf_s_
Module: /mnt/sda5/.user/root/src/openwatcom-1.9/bld/clib/library/winnt.386/mf_rp/clib3r.lib(uvsprint.c)
6fe31d44       vswprintf_
6fe31d95       _vswprintf_
Module: /mnt/sda5/.user/root/src/openwatcom-1.9/bld/clib/library/winnt.386/mf_rp/clib3r.lib(uvsprt_s.c)
6fe31e90       vswprintf_s_
Module: /mnt/sda5/.user/root/src/openwatcom-1.9/bld/clib/library/winnt.386/mf_rp/clib3r.lib(uvsscn_s.c)
6fe32020       vswscanf_s_
Module: /mnt/sda5/.user/root/src/openwatcom-1.9/bld/clib/library/winnt.386/mf_rp/clib3r.lib(ustcat_s.c)
6fe32140       wcscat_s_
Module: /mnt/sda5/.user/root/src/openwatcom-1.9/bld/clib/library/winnt.386/mf_rp/clib3r.lib(ustncp_s.c)
6fe322e0       wcsncpy_s_
Module: /mnt/sda5/.user/root/src/openwatcom-1.9/bld/clib/library/winnt.386/mf_rp/clib3r.lib(ustnct_s.c)
6fe32490       wcsncat_s_
Module: /mnt/sda5/.user/root/src/openwatcom-1.9/bld/clib/library/winnt.386/mf_rp/clib3r.lib(ustnln_s.c)
6fe325e0       wcsnlen_s_
Module: /mnt/sda5/.user/root/src/openwatcom-1.9/bld/clib/library/winnt.386/mf_rp/clib3r.lib(ustrcp_s.c)
6fe32680       wcscpy_s_
Module: /mnt/sda5/.user/root/src/openwatcom-1.9/bld/clib/library/winnt.386/mf_rp/clib3r.lib(ustrel_s.c)
6fe32780       wcserrorlen_s_
Module: /mnt/sda5/.user/root/src/openwatcom-1.9/bld/clib/library/winnt.386/mf_rp/clib3r.lib(ustrer_s.c)
6fe32820       wcserror_s_
Module: /mnt/sda5/.user/root/src/openwatcom-1.9/bld/clib/library/winnt.386/mf_rp/clib3r.lib(ustrtk_s.c)
6fe329f0       wcstok_s_
Module: /mnt/sda5/.user/root/src/openwatcom-1.9/bld/clib/library/winnt.386/mf_rp/clib3r.lib(vsnprt_s.c)
6fe32c30       vsnprintf_s_
Module: /mnt/sda5/.user/root/src/openwatcom-1.9/bld/clib/library/winnt.386/mf_rp/clib3r.lib(vsprintf.c)
6fe32d30       vsprintf_
Module: /mnt/sda5/.user/root/src/openwatcom-1.9/bld/clib/library/winnt.386/mf_rp/clib3r.lib(vsprtf_s.c)
6fe32e00       vsprintf_s_
Module: /mnt/sda5/.user/root/src/openwatcom-1.9/bld/clib/library/winnt.386/mf_rp/clib3r.lib(vsscnf_s.c)
6fe32f80       vsscanf_s_
Module: /mnt/sda5/.user/root/src/openwatcom-1.9/bld/clib/library/winnt.386/mf_rp/clib3r.lib(asctime.c)
6fe3309c       _asctime_
6fe331c1       asctime_
6fe331f7       _ctime_
6fe3322f       ctime_
Module: /mnt/sda5/.user/root/src/openwatcom-1.9/bld/clib/library/winnt.386/mf_rp/clib3r.lib(clockwin.c)
6fe33270       clock_
Module: /mnt/sda5/.user/root/src/openwatcom-1.9/bld/clib/library/winnt.386/mf_rp/clib3r.lib(dyltptr.c)
6fe332d0       __get_daylight_ptr_
Module: /mnt/sda5/.user/root/src/openwatcom-1.9/bld/clib/library/winnt.386/mf_rp/clib3r.lib(ftime.c)
6fe332f0       ftime_
Module: /mnt/sda5/.user/root/src/openwatcom-1.9/bld/clib/library/winnt.386/mf_rp/clib3r.lib(gmtime.c)
6fe333c0       __brktime_
6fe334e0       _gmtime_
6fe33520       gmtime_
Module: /mnt/sda5/.user/root/src/openwatcom-1.9/bld/clib/library/winnt.386/mf_rp/clib3r.lib(localtim.c)
6fe33560       _localtime_
6fe33600       localtime_
Module: /mnt/sda5/.user/root/src/openwatcom-1.9/bld/clib/library/winnt.386/mf_rp/clib3r.lib(mktime.c)
6fe33640       mktime_
Module: /mnt/sda5/.user/root/src/openwatcom-1.9/bld/clib/library/winnt.386/mf_rp/clib3r.lib(strdate.c)
6fe33700       _strdate_
Module: /mnt/sda5/.user/root/src/openwatcom-1.9/bld/clib/library/winnt.386/mf_rp/clib3r.lib(strftime.c)
6fe339dc       strftime_
Module: /mnt/sda5/.user/root/src/openwatcom-1.9/bld/clib/library/winnt.386/mf_rp/clib3r.lib(strtime.c)
6fe34020       _strtime_
Module: /mnt/sda5/.user/root/src/openwatcom-1.9/bld/clib/library/winnt.386/mf_rp/clib3r.lib(time.c)
6fe34090       time_
Module: /mnt/sda5/.user/root/src/openwatcom-1.9/bld/clib/library/winnt.386/mf_rp/clib3r.lib(tmznptr.c)
6fe34100       __get_timezone_ptr_
Module: /mnt/sda5/.user/root/src/openwatcom-1.9/bld/clib/library/winnt.386/mf_rp/clib3r.lib(tznmptr.c)
6fe34120       __get_tzname_ptr_
Module: /mnt/sda5/.user/root/src/openwatcom-1.9/bld/clib/library/winnt.386/mf_rp/clib3r.lib(tzset.c)
6fe47948       ___start_dst
6fe4796c       ___end_dst
6fe47a94       _tzname
6fe47a9c       _timezone
6fe47aa0       _daylight
6fe47aa4       ___dst_adjust
6fe34190*      __DontCacheOSTZ_
6fe341c0*      __CacheOSTZ_
6fe347d0+      __parse_tz_
6fe34bf0       tzset_
Module: /mnt/sda5/.user/root/src/openwatcom-1.9/bld/clib/library/winnt.386/mf_rp/clib3r.lib(asctim_s.c)
6fe34cb7       asctime_s_
Module: /mnt/sda5/.user/root/src/openwatcom-1.9/bld/clib/library/winnt.386/mf_rp/clib3r.lib(ctime_s.c)
6fe34df0       ctime_s_
Module: /mnt/sda5/.user/root/src/openwatcom-1.9/bld/clib/library/winnt.386/mf_rp/clib3r.lib(gmtime_s.c)
6fe34ee0       gmtime_s_
Module: /mnt/sda5/.user/root/src/openwatcom-1.9/bld/clib/library/winnt.386/mf_rp/clib3r.lib(lcltim_s.c)
6fe34f70       localtime_s_
Module: /mnt/sda5/.user/root/src/openwatcom-1.9/bld/clib/library/winnt.386/mf_rp/clib3r.lib(uasctime.c)
6fe3504b       __wasctime_
6fe35190       _wasctime_
6fe351c6       __wctime_
6fe351fe       _wctime_
Module: /mnt/sda5/.user/root/src/openwatcom-1.9/bld/clib/library/winnt.386/mf_rp/clib3r.lib(ustrdate.c)
6fe35250       _wstrdate_
Module: /mnt/sda5/.user/root/src/openwatcom-1.9/bld/clib/library/winnt.386/mf_rp/clib3r.lib(ustrftim.c)
6fe35530       wcsftime_
6fe35c1e       _wstrftime_ms_
Module: /mnt/sda5/.user/root/src/openwatcom-1.9/bld/clib/library/winnt.386/mf_rp/clib3r.lib(ustrtime.c)
6fe35cc0       _wstrtime_
Module: /mnt/sda5/.user/root/src/openwatcom-1.9/bld/clib/library/winnt.386/mf_rp/clib3r.lib(uasctm_s.c)
6fe35d96       _wasctime_s_
Module: /mnt/sda5/.user/root/src/openwatcom-1.9/bld/clib/library/winnt.386/mf_rp/clib3r.lib(uctime_s.c)
6fe35ed0       _wctime_s_
Module: /mnt/sda5/.user/root/src/openwatcom-1.9/bld/clib/library/winnt.386/mf_rp/clib3r.lib(allocwnt.c)
6fe35f90       _dos_allocmem_
6fe35fe0       _dos_freemem_
Module: /mnt/sda5/.user/root/src/openwatcom-1.9/bld/clib/library/winnt.386/mf_rp/clib3r.lib(creatwnt.c)
6fe36030       _dos_creat_
Module: /mnt/sda5/.user/root/src/openwatcom-1.9/bld/clib/library/winnt.386/mf_rp/clib3r.lib(crtnwwnt.c)
6fe36120       _dos_creatnew_
Module: /mnt/sda5/.user/root/src/openwatcom-1.9/bld/clib/library/winnt.386/mf_rp/clib3r.lib(dosgdf.c)
6fe36210       _dos_getdiskfree_
Module: /mnt/sda5/.user/root/src/openwatcom-1.9/bld/clib/library/winnt.386/mf_rp/clib3r.lib(dosret.c)
6fe362b0*      _dosretax_
6fe362e0*      _dosret0_
6fe36320       __set_errno_dos_
6fe36370       __set_errno_dos_reterr_
6fe363a0       __set_errno_nt_
6fe363d0       __set_errno_nt_reterr_
Module: /mnt/sda5/.user/root/src/openwatcom-1.9/bld/clib/library/winnt.386/mf_rp/clib3r.lib(filewnt.c)
6fe36410       _dos_open_
6fe36540       _dos_close_
6fe365c0       _dos_commit_
Module: /mnt/sda5/.user/root/src/openwatcom-1.9/bld/clib/library/winnt.386/mf_rp/clib3r.lib(findwnt.c)
6fe36640       _dos_findfirst_
6fe366f0       _dos_findnext_
6fe36780       _dos_findclose_
Module: /mnt/sda5/.user/root/src/openwatcom-1.9/bld/clib/library/winnt.386/mf_rp/clib3r.lib(gdatewnt.c)
6fe367d0       _dos_getdate_
Module: /mnt/sda5/.user/root/src/openwatcom-1.9/bld/clib/library/winnt.386/mf_rp/clib3r.lib(gdrvewnt.c)
6fe36820       _dos_getdrive_
Module: /mnt/sda5/.user/root/src/openwatcom-1.9/bld/clib/library/winnt.386/mf_rp/clib3r.lib(gfattwnt.c)
6fe36880       _dos_getfileattr_
Module: /mnt/sda5/.user/root/src/openwatcom-1.9/bld/clib/library/winnt.386/mf_rp/clib3r.lib(gftimwnt.c)
6fe368f0       _dos_getftime_
Module: /mnt/sda5/.user/root/src/openwatcom-1.9/bld/clib/library/winnt.386/mf_rp/clib3r.lib(gtimewnt.c)
6fe36990       _dos_gettime_
Module: /mnt/sda5/.user/root/src/openwatcom-1.9/bld/clib/library/winnt.386/mf_rp/clib3r.lib(readwnt.c)
6fe369f0       _dos_read_
Module: /mnt/sda5/.user/root/src/openwatcom-1.9/bld/clib/library/winnt.386/mf_rp/clib3r.lib(sdatewnt.c)
6fe36a60       _dos_setdate_
Module: /mnt/sda5/.user/root/src/openwatcom-1.9/bld/clib/library/winnt.386/mf_rp/clib3r.lib(sdrvewnt.c)
6fe36bb0       _dos_setdrive_
Module: /mnt/sda5/.user/root/src/openwatcom-1.9/bld/clib/library/winnt.386/mf_rp/clib3r.lib(sfattwnt.c)
6fe36c00       _dos_setfileattr_
Module: /mnt/sda5/.user/root/src/openwatcom-1.9/bld/clib/library/winnt.386/mf_rp/clib3r.lib(sftimwnt.c)
6fe36c50       _dos_setftime_
Module: /mnt/sda5/.user/root/src/openwatcom-1.9/bld/clib/library/winnt.386/mf_rp/clib3r.lib(stimewnt.c)
6fe36d20       _dos_settime_
Module: /mnt/sda5/.user/root/src/openwatcom-1.9/bld/clib/library/winnt.386/mf_rp/clib3r.lib(ufind.c)
6fe36e70       _wdos_findfirst_
6fe36f40       _wdos_findnext_
6fe37040       _wdos_findclose_
Module: /mnt/sda5/.user/root/src/openwatcom-1.9/bld/clib/library/winnt.386/mf_rp/clib3r.lib(writewnt.c)
6fe37060       _dos_write_
Module: /mnt/sda5/.user/root/src/openwatcom-1.9/bld/clib/library/winnt.386/mf_rp/clib3r.lib(__stos)
6fe370b0       __STOSB
6fe370e7       __STOSD
Module: /mnt/sda5/.user/root/src/openwatcom-1.9/bld/clib/library/winnt.386/mf_rp/clib3r.lib(_7fu8386)
6fe37154       __FSU87
6fe3715f       __FDU87
Module: /mnt/sda5/.user/root/src/openwatcom-1.9/bld/clib/library/winnt.386/mf_rp/clib3r.lib(_7u8f386)
6fe371dd       __U8FD7
6fe371c4       __U8FS7
Module: /mnt/sda5/.user/root/src/openwatcom-1.9/bld/clib/library/winnt.386/mf_rp/clib3r.lib(div386)
6fe371f8       __FDD
Module: /mnt/sda5/.user/root/src/openwatcom-1.9/bld/clib/library/winnt.386/mf_rp/clib3r.lib(fdc386)
6fe37400       __FDC
Module: /mnt/sda5/.user/root/src/openwatcom-1.9/bld/clib/library/winnt.386/mf_rp/clib3r.lib(fdfs386)
6fe37438       __FDFS
Module: /mnt/sda5/.user/root/src/openwatcom-1.9/bld/clib/library/winnt.386/mf_rp/clib3r.lib(fdi4386)
6fe3748c       __FDI4
6fe37488       __RDI4
6fe37490       __FDU4
6fe37484       __RDU4
Module: /mnt/sda5/.user/root/src/openwatcom-1.9/bld/clib/library/winnt.386/mf_rp/clib3r.lib(fdi8386)
6fe37508       __FDU8
6fe37514       __FDI8
Module: /mnt/sda5/.user/root/src/openwatcom-1.9/bld/clib/library/winnt.386/mf_rp/clib3r.lib(fdmth386)
6fe3759a       __FDA
6fe37594       __FDS
6fe37751       __FDM
Module: /mnt/sda5/.user/root/src/openwatcom-1.9/bld/clib/library/winnt.386/mf_rp/clib3r.lib(fdn386)
6fe378f0       __FDN
Module: /mnt/sda5/.user/root/src/openwatcom-1.9/bld/clib/library/winnt.386/mf_rp/clib3r.lib(fsc386)
6fe37900       __FSC
Module: /mnt/sda5/.user/root/src/openwatcom-1.9/bld/clib/library/winnt.386/mf_rp/clib3r.lib(fsfd386)
6fe3791c       __FSFD
Module: /mnt/sda5/.user/root/src/openwatcom-1.9/bld/clib/library/winnt.386/mf_rp/clib3r.lib(fsi4386)
6fe37998       __FSI4
6fe379a2       __FSU4
6fe379ac       __FSI2
6fe379b6       __FSU2
6fe379c0       __FSI1
6fe379ca       __FSU1
Module: /mnt/sda5/.user/root/src/openwatcom-1.9/bld/clib/library/winnt.386/mf_rp/clib3r.lib(fsi8386)
6fe37a1c       __FSU8
6fe37a26       __FSI8
Module: /mnt/sda5/.user/root/src/openwatcom-1.9/bld/clib/library/winnt.386/mf_rp/clib3r.lib(fsmth386)
6fe37aa2       __FSA
6fe37a98       __FSS
6fe37b73       __FSM
6fe37bfa       __FSD
Module: /mnt/sda5/.user/root/src/openwatcom-1.9/bld/clib/library/winnt.386/mf_rp/clib3r.lib(fsn386)
6fe37d1c       __FSN
Module: /mnt/sda5/.user/root/src/openwatcom-1.9/bld/clib/library/winnt.386/mf_rp/clib3r.lib(fstat386)
6fe37d28       F8UnderFlow
6fe37d2a       F4UnderFlow
6fe37d2d       F8InvalidOp
6fe37d39       F8DivZero
6fe37d65       F4DivZero
6fe37d45       F8OverFlow
6fe37d71       F4OverFlow
6fe37d45       F8RetInf_
6fe37d45       _F8RetInf_
Module: /mnt/sda5/.user/root/src/openwatcom-1.9/bld/clib/library/winnt.386/mf_rp/clib3r.lib(i4fs386)
6fe37dbb       __I4FS
6fe37d90       __U4FS
Module: /mnt/sda5/.user/root/src/openwatcom-1.9/bld/clib/library/winnt.386/mf_rp/clib3r.lib(i4fd386)
6fe37dcc       __I4FD
6fe37dd9       __U4FD
Module: /mnt/sda5/.user/root/src/openwatcom-1.9/bld/clib/library/winnt.386/mf_rp/clib3r.lib(i8d)
6fe37e0c       __I8D
6fe37e61       __U8D
Module: /mnt/sda5/.user/root/src/openwatcom-1.9/bld/clib/library/winnt.386/mf_rp/clib3r.lib(i8fs386)
6fe37ef0       __I8FS
6fe37f06       __U8FS
Module: /mnt/sda5/.user/root/src/openwatcom-1.9/bld/clib/library/winnt.386/mf_rp/clib3r.lib(i8fd386)
6fe37f4c       __I8FD
6fe37f63       __U8FD
Module: /mnt/sda5/.user/root/src/openwatcom-1.9/bld/clib/library/winnt.386/mf_rp/clib3r.lib(i8m)
6fe37fac       __I8M
6fe37fac       __U8M
Module: /mnt/sda5/.user/root/src/openwatcom-1.9/bld/clib/library/winnt.386/mf_rp/clib3r.lib(i8s)
6fe37fc8       __U8RS
6fe37fe2       __I8RS
6fe37ffd       __I8LS
6fe37ffd       __U8LS
Module: /mnt/sda5/.user/root/src/openwatcom-1.9/bld/clib/library/winnt.386/mf_rp/clib3r.lib(ldiv386)
6fe38018       div_
6fe38018       ldiv_
Module: /mnt/sda5/.user/root/src/openwatcom-1.9/bld/clib/library/winnt.386/mf_rp/clib3r.lib(lldiv386)
6fe3803c       lldiv_
Module: /mnt/sda5/.user/root/src/openwatcom-1.9/bld/clib/library/winnt.386/mf_rp/clib3r.lib(timstamp)
6fe47bbc       ___lmt
Module: /mnt/sda5/.user/root/src/openwatcom-1.9/bld/clib/library/winnt.386/mf_rp/clib3r.lib(chipvar)
6fe47bc0       ___chipbug
6fe47bc0       __chipbug
Module: /mnt/sda5/.user/root/src/openwatcom-1.9/bld/clib/library/winnt.386/mf_rp/clib3r.lib(_8087)
6fe47bc4       __8087
6fe47bc5       __real87
Module: /mnt/sda5/.user/root/src/openwatcom-1.9/bld/clib/library/winnt.386/mf_rp/clib3r.lib(crwdata)
6fe47c0c       __osmajor
6fe47c0d       __osminor
6fe47c0e       __osbuild
6fe47c10       __osver
6fe47c14       __winmajor
6fe47c18       __winminor
6fe47c1c       __winver
6fe47bd8       __LpDllName
6fe47bdc       __LpwCmdLine
6fe47be0       __LpwPgmName
6fe47be4       __LpwDllName
6fe47bd0       __LpCmdLine
6fe47bd4       __LpPgmName
6fe47bc8*      __dynend
6fe47bcc       __curbrk
6fe47be8       __STACKLOW
6fe47bec       __STACKTOP
6fe47bf0       __ASTACKSIZ
6fe47bf4       __ASTACKPTR
6fe47bf8       __cbyte
6fe47bfc       __cbyte2
6fe47c00       __child
6fe47c06       __Envptr
6fe47c0a       __Envseg
6fe47c04       __no87
6fe47c20       ___FPE_handler
Module: /mnt/sda5/.user/root/src/openwatcom-1.9/bld/clib/library/winnt.386/mf_rp/clib3r.lib(dosseg)
00001234       __DOSseg__
Module: /mnt/sda5/.user/root/src/openwatcom-1.9/bld/clib/library/winnt.386/mf_rp/clib3r.lib(p5psegs)
6fe47cd8       __Start_TI
6febb008       __End_TI
Module: /mnt/sda5/.user/root/src/openwatcom-1.9/bld/clib/library/winnt.386/mf_rp/clib3r.lib(dmainwnt.c)
6fe380a0       __LibMain@12
Module: /mnt/sda5/.user/root/src/openwatcom-1.9/bld/clib/library/winnt.386/mf_rp/clib3r.lib(conutwnt.c)
6fe38350       __NTRealKey_
6fe38440       __NTConsoleInput_
6fe38470       __NTConsoleOutput_
Module: /mnt/sda5/.user/root/src/openwatcom-1.9/bld/clib/library/winnt.386/mf_rp/clib3r.lib(prtf.c)
6fe384a0       __prtf_
Module: /mnt/sda5/.user/root/src/openwatcom-1.9/bld/clib/library/winnt.386/mf_rp/clib3r.lib(scnf.c)
6fe3a130       __scnf_
Module: /mnt/sda5/.user/root/src/openwatcom-1.9/bld/clib/library/winnt.386/mf_rp/clib3r.lib(alphabet.c)
6fe4700c       ___Alphabet
Module: /mnt/sda5/.user/root/src/openwatcom-1.9/bld/clib/library/winnt.386/mf_rp/clib3r.lib(ntdirinf.c)
6fe3a460       __MakeDOSDT_
6fe3a4b0       __FromDOSDT_
6fe3a500       __GetNTDirInfo_
6fe3a560       __NTFindNextFileWithAttr_
Module: /mnt/sda5/.user/root/src/openwatcom-1.9/bld/clib/library/winnt.386/mf_rp/clib3r.lib(setcdir.c)
6fe3a5e0       __lib_SetCurrentDirectoryW_
Module: /mnt/sda5/.user/root/src/openwatcom-1.9/bld/clib/library/winnt.386/mf_rp/clib3r.lib(ffrstfil.c)
6fe3a6a0       __lib_FindFirstFileW_
Module: /mnt/sda5/.user/root/src/openwatcom-1.9/bld/clib/library/winnt.386/mf_rp/clib3r.lib(untdrinf.c)
6fe3a7f0       _w__GetNTDirInfo_
6fe3a850       _w__NTFindNextFileWithAttr_
Module: /mnt/sda5/.user/root/src/openwatcom-1.9/bld/clib/library/winnt.386/mf_rp/clib3r.lib(fnextfil.c)
6fe3a8c0       __lib_FindNextFileW_
Module: /mnt/sda5/.user/root/src/openwatcom-1.9/bld/clib/library/winnt.386/mf_rp/clib3r.lib(getcdir.c)
6fe3a9b0       __lib_GetCurrentDirectoryW_
Module: /mnt/sda5/.user/root/src/openwatcom-1.9/bld/clib/library/winnt.386/mf_rp/clib3r.lib(creatdir.c)
6fe3aab0       __lib_CreateDirectoryW_
Module: /mnt/sda5/.user/root/src/openwatcom-1.9/bld/clib/library/winnt.386/mf_rp/clib3r.lib(removdir.c)
6fe3ab70       __lib_RemoveDirectoryW_
Module: /mnt/sda5/.user/root/src/openwatcom-1.9/bld/clib/library/winnt.386/mf_rp/clib3r.lib(setenvp.c)
6fe3ac30       __setenvp_
6fe3ad10       __freeenvp_
Module: /mnt/sda5/.user/root/src/openwatcom-1.9/bld/clib/library/winnt.386/mf_rp/clib3r.lib(rtcswrap.c)
6fe3ada0       __rtct_fail_
Module: /mnt/sda5/.user/root/src/openwatcom-1.9/bld/clib/library/winnt.386/mf_rp/clib3r.lib(crtwenv.c)
6fe3ae90       __create_wide_environment_
Module: /mnt/sda5/.user/root/src/openwatcom-1.9/bld/clib/library/winnt.386/mf_rp/clib3r.lib(setenvar.c)
6fe3af20       __lib_SetEnvironmentVariableW_
Module: /mnt/sda5/.user/root/src/openwatcom-1.9/bld/clib/library/winnt.386/mf_rp/clib3r.lib(d2ttime.c)
6fe3b0c0       _d2ttime_
Module: /mnt/sda5/.user/root/src/openwatcom-1.9/bld/clib/library/winnt.386/mf_rp/clib3r.lib(fgtattr.c)
6fe3b160       __fixed_GetFileAttributesA_
Module: /mnt/sda5/.user/root/src/openwatcom-1.9/bld/clib/library/winnt.386/mf_rp/clib3r.lib(creatfil.c)
6fe3b240       __lib_CreateFileW_
Module: /mnt/sda5/.user/root/src/openwatcom-1.9/bld/clib/library/winnt.386/mf_rp/clib3r.lib(getdtype.c)
6fe3b330       __lib_GetDriveTypeW_
Module: /mnt/sda5/.user/root/src/openwatcom-1.9/bld/clib/library/winnt.386/mf_rp/clib3r.lib(getfattr.c)
6fe3b3f0       __lib_GetFileAttributesW_
Module: /mnt/sda5/.user/root/src/openwatcom-1.9/bld/clib/library/winnt.386/mf_rp/clib3r.lib(setfattr.c)
6fe3b4b0       __lib_SetFileAttributesW_
Module: /mnt/sda5/.user/root/src/openwatcom-1.9/bld/clib/library/winnt.386/mf_rp/clib3r.lib(movefile.c)
6fe3b570       __lib_MoveFileW_
Module: /mnt/sda5/.user/root/src/openwatcom-1.9/bld/clib/library/winnt.386/mf_rp/clib3r.lib(iomode.c)
6fe3b6f0       __GetIOMode_
6fe3b730       __SetIOMode_nogrow_
6fe47c2c       ___NFiles
6fe47c30       ___init_mode
6fe47c80       ___io_mode
Module: /mnt/sda5/.user/root/src/openwatcom-1.9/bld/clib/library/winnt.386/mf_rp/clib3r.lib(stiomode.c)
6fe3b770       __grow_iomode_
6fe3b870+      __shrink_iomode_
6fe3b8d0       __SetIOMode_
Module: /mnt/sda5/.user/root/src/openwatcom-1.9/bld/clib/library/winnt.386/mf_rp/clib3r.lib(iomodtty.c)
6fe3b960       __ChkTTYIOMode_
6fe3b9d0*      __IOMode_
Module: /mnt/sda5/.user/root/src/openwatcom-1.9/bld/clib/library/winnt.386/mf_rp/clib3r.lib(_clsewnt.c)
6fe3ba10       __close_
Module: /mnt/sda5/.user/root/src/openwatcom-1.9/bld/clib/library/winnt.386/mf_rp/clib3r.lib(ntfio.c)
6fe3bab0       __GetNTCreateAttr_
6fe3bb00       __GetNTAccessAttr_
6fe3bb50       __GetNTShareAttr_
Module: /mnt/sda5/.user/root/src/openwatcom-1.9/bld/clib/library/winnt.386/mf_rp/clib3r.lib(umaskval.c)
6fe47c84       ___umaskval
Module: /mnt/sda5/.user/root/src/openwatcom-1.9/bld/clib/library/winnt.386/mf_rp/clib3r.lib(delfile.c)
6fe3bbe0       __lib_DeleteFileW_
Module: /mnt/sda5/.user/root/src/openwatcom-1.9/bld/clib/library/winnt.386/mf_rp/clib3r.lib(mem.c)
6fe3bca0       __MemAllocator
6fe3bd60       __MemFree
Module: /mnt/sda5/.user/root/src/openwatcom-1.9/bld/clib/library/winnt.386/mf_rp/clib3r.lib(grownear.c)
6fe3c090       __ExpandDGROUP_
Module: /mnt/sda5/.user/root/src/openwatcom-1.9/bld/clib/library/winnt.386/mf_rp/clib3r.lib(hanzentb.c)
6fe3c0d0       ___HanZen1
6fe3c18e       ___HanZen2
Module: /mnt/sda5/.user/root/src/openwatcom-1.9/bld/clib/library/winnt.386/mf_rp/clib3r.lib(zenhantb.c)
6fe3c210       ___ZenHan
Module: /mnt/sda5/.user/root/src/openwatcom-1.9/bld/clib/library/winnt.386/mf_rp/clib3r.lib(mbinit.c)
6fe3c6be       __mbinit_
6fe47c88       ___MBCodePage
Module: /mnt/sda5/.user/root/src/openwatcom-1.9/bld/clib/library/winnt.386/mf_rp/clib3r.lib(rterrmsg.c)
6fe3c810       __rterr_msg_
Module: /mnt/sda5/.user/root/src/openwatcom-1.9/bld/clib/library/winnt.386/mf_rp/clib3r.lib(dbgdata.c)
6fe47c8c       ___DbgReportModes
6fe47c98       ___DbgReportFiles
6fe47ca4       ___DbgReportHook
Module: /mnt/sda5/.user/root/src/openwatcom-1.9/bld/clib/library/winnt.386/mf_rp/clib3r.lib(rtcshdlr.c)
6fe47ca8       ___runtime_constraint_handler
Module: /mnt/sda5/.user/root/src/openwatcom-1.9/bld/clib/library/winnt.386/mf_rp/clib3r.lib(locale.c)
6fe47cac       __LocaleSetting
Module: /mnt/sda5/.user/root/src/openwatcom-1.9/bld/clib/library/winnt.386/mf_rp/clib3r.lib(urtermsg.c)
6fe3c910       __wrterr_msg_
Module: /mnt/sda5/.user/root/src/openwatcom-1.9/bld/clib/library/winnt.386/mf_rp/clib3r.lib(getfulpn.c)
6fe3c9a0       __lib_GetFullPathNameW_
Module: /mnt/sda5/.user/root/src/openwatcom-1.9/bld/clib/library/winnt.386/mf_rp/clib3r.lib(trdlist.c)
6fe3cc00       __GetThreadData_
6fe3cc70       __ReallocThreadData_
6fe3cdc0       __AddThreadData_
6fe3ce60       __RemoveThreadData_
6fe3cee0       __ResizeThreadDataList_
6fe3cf30       __FreeThreadDataList_
6fe3cf80*      __ActiveThreads_
Module: /mnt/sda5/.user/root/src/openwatcom-1.9/bld/clib/library/winnt.386/mf_rp/clib3r.lib(trdalloc.c)
6fe3cfb0       __FiniThreadProcessing_
Module: /mnt/sda5/.user/root/src/openwatcom-1.9/bld/clib/library/winnt.386/mf_rp/clib3r.lib(stklmwnt.c)
6fe3cfd0       __init_stack_limits_
Module: /mnt/sda5/.user/root/src/openwatcom-1.9/bld/clib/library/winnt.386/mf_rp/clib3r.lib(thredwnt.c)
6fe3d170       __CBeginThread_
6fe3d250       __CEndThread_
Module: /mnt/sda5/.user/root/src/openwatcom-1.9/bld/clib/library/winnt.386/mf_rp/clib3r.lib(thrdxwnt.c)
6fe3d390       __CBeginThreadEx_
6fe3d450       __CEndThreadEx_
Module: /mnt/sda5/.user/root/src/openwatcom-1.9/bld/clib/library/winnt.386/mf_rp/clib3r.lib(fclex387.c)
6fe3d4b0       _ClearFPE_
Module: /mnt/sda5/.user/root/src/openwatcom-1.9/bld/clib/library/winnt.386/mf_rp/clib3r.lib(cenvarg.c)
6fe3d4f0       __cenvarg_
6fe3d64e       __ccmdline_
Module: /mnt/sda5/.user/root/src/openwatcom-1.9/bld/clib/library/winnt.386/mf_rp/clib3r.lib(_slashc.c)
6fe3d6d0       __Slash_C_
Module: /mnt/sda5/.user/root/src/openwatcom-1.9/bld/clib/library/winnt.386/mf_rp/clib3r.lib(dospnwnt.c)
6fe3d6f0       _dospawn_
Module: /mnt/sda5/.user/root/src/openwatcom-1.9/bld/clib/library/winnt.386/mf_rp/clib3r.lib(ucenvarg.c)
6fe3d900       __wcenvarg_
6fe3daa0       __wccmdline_
Module: /mnt/sda5/.user/root/src/openwatcom-1.9/bld/clib/library/winnt.386/mf_rp/clib3r.lib(_uslashc.c)
6fe3db30       __wSlash_C_
Module: /mnt/sda5/.user/root/src/openwatcom-1.9/bld/clib/library/winnt.386/mf_rp/clib3r.lib(udospwnt.c)
6fe3db60       _wdospawn_
Module: /mnt/sda5/.user/root/src/openwatcom-1.9/bld/clib/library/winnt.386/mf_rp/clib3r.lib(8087cw.c)
6fe47cb4       __8087cw
Module: /mnt/sda5/.user/root/src/openwatcom-1.9/bld/clib/library/winnt.386/mf_rp/clib3r.lib(save8087.c)
6fe47cb8       ___Save8087
6fe47cbc       ___Rest8087
Module: /mnt/sda5/.user/root/src/openwatcom-1.9/bld/clib/library/winnt.386/mf_rp/clib3r.lib(init8087)
6fe3dd48       __x87id
Module: /mnt/sda5/.user/root/src/openwatcom-1.9/bld/clib/library/winnt.386/mf_rp/clib3r.lib(argcv.c)
6febd560       __argc
6febd564       __argv
6febd568       ___argv
6febd56c       ___argc
Module: /mnt/sda5/.user/root/src/openwatcom-1.9/bld/clib/library/winnt.386/mf_rp/clib3r.lib(initrtns.c)
6fe3ddb0       __InitRtns
6fe3de20       __FiniRtns
Module: /mnt/sda5/.user/root/src/openwatcom-1.9/bld/clib/library/winnt.386/mf_rp/clib3r.lib(histsplt.c)
6febd570       ___historical_splitparms
Module: /mnt/sda5/.user/root/src/openwatcom-1.9/bld/clib/library/winnt.386/mf_rp/clib3r.lib(wargcv.c)
6febd574       ___wargc
6febd578       ___wargv
6febd57c       __wargc
6febd580       __wargv
Module: /mnt/sda5/.user/root/src/openwatcom-1.9/bld/clib/library/winnt.386/mf_rp/clib3r.lib(freefp.c)
6fe3de90       __freefp_
6fe3df00       __purgefp_
Module: /mnt/sda5/.user/root/src/openwatcom-1.9/bld/clib/library/winnt.386/mf_rp/clib3r.lib(atexit.c)
6fe3df54       atexit_
Module: /mnt/sda5/.user/root/src/openwatcom-1.9/bld/clib/library/winnt.386/mf_rp/clib3r.lib(allocfp.c)
6fe3dfe0       __allocfp_
Module: /mnt/sda5/.user/root/src/openwatcom-1.9/bld/clib/library/winnt.386/mf_rp/clib3r.lib(chktty.c)
6fe3e110       __chktty_
Module: /mnt/sda5/.user/root/src/openwatcom-1.9/bld/clib/library/winnt.386/mf_rp/clib3r.lib(ioalloc.c)
6fe3e170       __ioalloc_
Module: /mnt/sda5/.user/root/src/openwatcom-1.9/bld/clib/library/winnt.386/mf_rp/clib3r.lib(qread.c)
6fe3e220       __qread_
Module: /mnt/sda5/.user/root/src/openwatcom-1.9/bld/clib/library/winnt.386/mf_rp/clib3r.lib(qwrit.c)
6fe3e2c0       __qwrite_
Module: /mnt/sda5/.user/root/src/openwatcom-1.9/bld/clib/library/winnt.386/mf_rp/clib3r.lib(fprtf.c)
6fe3e470       __fprtf_
Module: /mnt/sda5/.user/root/src/openwatcom-1.9/bld/clib/library/winnt.386/mf_rp/clib3r.lib(fprtf_s.c)
6fe3e5d0       __fprtf_s_
Module: /mnt/sda5/.user/root/src/openwatcom-1.9/bld/clib/library/winnt.386/mf_rp/clib3r.lib(scnf_s.c)
6fe3f5e0       __scnf_s_
Module: /mnt/sda5/.user/root/src/openwatcom-1.9/bld/clib/library/winnt.386/mf_rp/clib3r.lib(initfile.c)
6fe3f9c0       __InitFiles_
Module: /mnt/sda5/.user/root/src/openwatcom-1.9/bld/clib/library/winnt.386/mf_rp/clib3r.lib(tmputil.c)
6fe3fba0       __MkTmpFile_
6fe3fc50       __RmTmpFile_
Module: /mnt/sda5/.user/root/src/openwatcom-1.9/bld/clib/library/winnt.386/mf_rp/clib3r.lib(ufprtf.c)
6fe3fcc7       __fwprtf_
Module: /mnt/sda5/.user/root/src/openwatcom-1.9/bld/clib/library/winnt.386/mf_rp/clib3r.lib(ufprtf_s.c)
6fe3fe10       __fwprtf_s_
Module: /mnt/sda5/.user/root/src/openwatcom-1.9/bld/clib/library/winnt.386/mf_rp/clib3r.lib(uscnf.c)
6fe40ae4       __wscnf_
Module: /mnt/sda5/.user/root/src/openwatcom-1.9/bld/clib/library/winnt.386/mf_rp/clib3r.lib(uscnf_s.c)
6fe41a3f       __wscnf_s_
Module: /mnt/sda5/.user/root/src/openwatcom-1.9/bld/clib/library/winnt.386/mf_rp/clib3r.lib(fsetbits.c)
6fe41da0       __fsetbits_
Module: /mnt/sda5/.user/root/src/openwatcom-1.9/bld/clib/library/winnt.386/mf_rp/clib3r.lib(bits.c)
6fe41e10       __Bits
Module: /mnt/sda5/.user/root/src/openwatcom-1.9/bld/clib/library/winnt.386/mf_rp/clib3r.lib(prtf_s.c)
6fe41e30       __prtf_s_
Module: /mnt/sda5/.user/root/src/openwatcom-1.9/bld/clib/library/winnt.386/mf_rp/clib3r.lib(setbits.c)
6fe42cf0       __setbits_
Module: /mnt/sda5/.user/root/src/openwatcom-1.9/bld/clib/library/winnt.386/mf_rp/clib3r.lib(uprtf.c)
6fe42d41       __wprtf_
Module: /mnt/sda5/.user/root/src/openwatcom-1.9/bld/clib/library/winnt.386/mf_rp/clib3r.lib(uprtf_s.c)
6fe43ad9       __wprtf_s_
Module: /mnt/sda5/.user/root/src/openwatcom-1.9/bld/clib/library/winnt.386/mf_rp/clib3r.lib(gtctmwnt.c)
6fe44870       __getctime_
Module: /mnt/sda5/.user/root/src/openwatcom-1.9/bld/clib/library/winnt.386/mf_rp/clib3r.lib(leapyear.c)
6fe448f0       __leapyear_
6fe47034       ___diyr
6fe4704e       ___dilyr
Module: /mnt/sda5/.user/root/src/openwatcom-1.9/bld/clib/library/winnt.386/mf_rp/clib3r.lib(timeutil.c)
6fe44ad0       __isindst_
Module: /mnt/sda5/.user/root/src/openwatcom-1.9/bld/clib/library/winnt.386/mf_rp/clib3r.lib(locmktim.c)
6fe44e70       __local_mktime_
Module: /mnt/sda5/.user/root/src/openwatcom-1.9/bld/clib/library/winnt.386/mf_rp/clib3r.lib(fpexcept.c)
6fe44fd0       __FPE_exception_
Module: /mnt/sda5/.user/root/src/openwatcom-1.9/bld/clib/library/winnt.386/mf_rp/clib3r.lib(rdllmwnt.c)
6fe47cd4       __pRawDllMain
Module: /mnt/sda5/.user/root/src/openwatcom-1.9/bld/clib/library/winnt.386/mf_rp/clib3r.lib(ddgrpwnt.c)
6fe450f0       __disallow_single_dgroup_
Module: /mnt/sda5/.user/root/src/openwatcom-1.9/bld/clib/library/winnt.386/mf_rp/clib3r.lib(cinit.c)
6fe451f0       __CommonInit_
Module: /mnt/sda5/.user/root/src/openwatcom-1.9/bld/clib/library/winnt.386/mf_rp/clib3r.lib(ufgtattr.c)
6fe45210       __fixed_GetFileAttributesW_
Module: /mnt/sda5/.user/root/src/openwatcom-1.9/bld/clib/library/winnt.386/mf_rp/clib3r.lib(crtproc.c)
6fe452d0       __lib_CreateProcessW_


                        +----------------------+
                        |   Imported Symbols   |
                        +----------------------+

Symbol                              Module
======                              ======

_RtlUnwind@16                       KERNEL32.DLL
_LocalAlloc@8                       KERNEL32.DLL
_InitializeCriticalSection@4        KERNEL32.DLL
_DeleteCriticalSection@4            KERNEL32.DLL
_EnterCriticalSection@4             KERNEL32.DLL
_LeaveCriticalSection@4             KERNEL32.DLL
_ReadConsoleInputA@16               KERNEL32.DLL
_GetConsoleMode@8                   KERNEL32.DLL
_SetConsoleMode@8                   KERNEL32.DLL
_PeekConsoleInputA@16               KERNEL32.DLL
_WriteConsoleA@20                   KERNEL32.DLL
_SetCurrentDirectoryA@4             KERNEL32.DLL
_FindClose@4                        KERNEL32.DLL
_FindFirstFileA@8                   KERNEL32.DLL
_FindNextFileA@8                    KERNEL32.DLL
_GetLastError@0                     KERNEL32.DLL
_GetCurrentDirectoryA@8             KERNEL32.DLL
_CreateDirectoryA@8                 KERNEL32.DLL
_RemoveDirectoryA@4                 KERNEL32.DLL
_GetCommandLineA@0                  KERNEL32.DLL
_GetCurrentProcessId@0              KERNEL32.DLL
_GetFileType@4                      KERNEL32.DLL
_SetEnvironmentVariableA@8          KERNEL32.DLL
_CreateFileA@28                     KERNEL32.DLL
_CloseHandle@4                      KERNEL32.DLL
_GetDriveTypeA@4                    KERNEL32.DLL
_SetFileAttributesA@8               KERNEL32.DLL
_GetCurrentThreadId@0               KERNEL32.DLL
_MoveFileA@8                        KERNEL32.DLL
_GetFileTime@16                     KERNEL32.DLL
_SystemTimeToFileTime@8             KERNEL32.DLL
_LocalFileTimeToFileTime@8          KERNEL32.DLL
_SetFileTime@16                     KERNEL32.DLL
_SetFilePointer@16                  KERNEL32.DLL
_GetFileInformationByHandle@8       KERNEL32.DLL
_GetFileSize@8                      KERNEL32.DLL
_SetEndOfFile@4                     KERNEL32.DLL
_GetCurrentProcess@0                KERNEL32.DLL
_DuplicateHandle@28                 KERNEL32.DLL
_FlushFileBuffers@4                 KERNEL32.DLL
_SetStdHandle@8                     KERNEL32.DLL
_CreateEventA@16                    KERNEL32.DLL
_GetStdHandle@4                     KERNEL32.DLL
_LockFile@20                        KERNEL32.DLL
_CreatePipe@16                      KERNEL32.DLL
_ReadFile@20                        KERNEL32.DLL
_UnlockFile@20                      KERNEL32.DLL
_DeleteFileA@4                      KERNEL32.DLL
_WriteFile@20                       KERNEL32.DLL
_VirtualFree@12                     KERNEL32.DLL
_VirtualAlloc@16                    KERNEL32.DLL
_GetVersion@0                       KERNEL32.DLL
_GetModuleFileNameW@12              KERNEL32.DLL
_GetModuleFileNameA@12              KERNEL32.DLL
_MultiByteToWideChar@24             KERNEL32.DLL
_WideCharToMultiByte@32             KERNEL32.DLL
_CharLowerA@4                       USER32.DLL
_CharUpperA@4                       USER32.DLL
_GetStringTypeExA@20                KERNEL32.DLL
_GetOEMCP@0                         KERNEL32.DLL
_MessageBoxA@16                     USER32.DLL
_GetFullPathNameA@16                KERNEL32.DLL
_TlsGetValue@4                      KERNEL32.DLL
_SetLastError@4                     KERNEL32.DLL
_TlsAlloc@0                         KERNEL32.DLL
_TlsFree@4                          KERNEL32.DLL
_TlsSetValue@8                      KERNEL32.DLL
_GetCurrentThread@0                 KERNEL32.DLL
_WaitForSingleObject@8              KERNEL32.DLL
_GetExitCodeProcess@8               KERNEL32.DLL
_Sleep@4                            KERNEL32.DLL
_LoadLibraryA@4                     KERNEL32.DLL
_GetProcAddress@8                   KERNEL32.DLL
_SetUnhandledExceptionFilter@4      KERNEL32.DLL
_UnhandledExceptionFilter@4         KERNEL32.DLL
_ExitProcess@4                      KERNEL32.DLL
_SetConsoleCtrlHandler@8            KERNEL32.DLL
_SleepEx@8                          KERNEL32.DLL
_GetEnvironmentStringsA@0           KERNEL32.DLL
_GetCommandLineW@0                  KERNEL32.DLL
_FreeEnvironmentStringsA@4          KERNEL32.DLL
_GetModuleHandleA@4                 KERNEL32.DLL
_FormatMessageA@28                  KERNEL32.DLL
_FormatMessageW@28                  KERNEL32.DLL
_GetTickCount@0                     KERNEL32.DLL
_GetTimeZoneInformation@4           KERNEL32.DLL
_GlobalAlloc@8                      KERNEL32.DLL
_GlobalFree@4                       KERNEL32.DLL
_GetDiskFreeSpaceA@20               KERNEL32.DLL
_GetLocalTime@4                     KERNEL32.DLL
_SetLocalTime@4                     KERNEL32.DLL
_AdjustTokenPrivileges@24           ADVAPI32.DLL
_OpenProcessToken@12                ADVAPI32.DLL
_LookupPrivilegeValueA@12           ADVAPI32.DLL
_FileTimeToLocalFileTime@8          KERNEL32.DLL
_FileTimeToDosDateTime@12           KERNEL32.DLL
_DosDateTimeToFileTime@12           KERNEL32.DLL
_SetCurrentDirectoryW@4             KERNEL32.DLL
_FindFirstFileW@8                   KERNEL32.DLL
_FindNextFileW@8                    KERNEL32.DLL
_GetCurrentDirectoryW@8             KERNEL32.DLL
_CreateDirectoryW@8                 KERNEL32.DLL
_RemoveDirectoryW@4                 KERNEL32.DLL
_SetEnvironmentVariableW@8          KERNEL32.DLL
_GetFileAttributesA@4               KERNEL32.DLL
_CreateFileW@28                     KERNEL32.DLL
_GetDriveTypeW@4                    KERNEL32.DLL
_SetFileAttributesW@8               KERNEL32.DLL
_MoveFileW@8                        KERNEL32.DLL
_DeleteFileW@4                      KERNEL32.DLL
_GetACP@0                           KERNEL32.DLL
_GetCPInfo@8                        KERNEL32.DLL
_GetActiveWindow@0                  USER32.DLL
_MessageBoxW@16                     USER32.DLL
_GetFullPathNameW@16                KERNEL32.DLL
_VirtualQuery@12                    KERNEL32.DLL
_CreateThread@24                    KERNEL32.DLL
_ResumeThread@4                     KERNEL32.DLL
_ExitThread@4                       KERNEL32.DLL
_CreateProcessA@40                  KERNEL32.DLL
_GetFileAttributesW@4               KERNEL32.DLL
_CreateProcessW@40                  KERNEL32.DLL


                        +--------------------+
                        |   Libraries Used   |
                        +--------------------+

/mnt/sda5/.user/root/src/openwatcom-1.9/rel2/lib386/nt/kernel32.lib
/mnt/sda5/.user/root/src/openwatcom-1.9/rel2/lib386/nt/user32.lib
/mnt/sda5/.user/root/src/openwatcom-1.9/rel2/lib386/nt/advapi32.lib
/mnt/sda5/.user/root/src/openwatcom-1.9/bld/clib/library/winnt.386/mf_rp/clib3r.lib


                        +-----------------------+
                        |   Linker Statistics   |
                        +-----------------------+

Stack size:  0000 (0.)
Memory size:  000bc462 (771170.)
Entry point address: 6fe01ebc
Link time: 00:00.64
