Open Watcom Linker Version 1.9
Portions Copyright (c) 1985-2002 Sybase, Inc. All Rights Reserved.
Created on:       12/12/16 02:39:30
Executable Image: wdis.exe
creating a Linux x86 executable


                        +------------+
                        |   Groups   |
                        +------------+

Group                           Address              Size
=====                           =======              ====

DGROUP                          0808b000             00002920



                        +--------------+
                        |   Segments   |
                        +--------------+

Segment                Class          Group          Address         Size
=======                =====          =====          =======         ====

BEGTEXT                CODE           AUTO           08048100        00000007
_TEXT                  CODE           AUTO           08048110        000423fb
_NULL                  BEGDATA        DGROUP         0808b000        00000004
_AFTERNULL             BEGDATA        DGROUP         0808b004        00000000
CONST                  DATA           DGROUP         0808b004        00000110
CONST2                 DATA           DGROUP         0808b114        00000000
_DATA                  DATA           DGROUP         0808b114        00000380
XIB                    DATA           DGROUP         0808b494        00000000
XI                     DATA           DGROUP         0808b494        0000000c
XIE                    DATA           DGROUP         0808b4a0        00000000
YIB                    DATA           DGROUP         0808b4a0        00000000
YI                     DATA           DGROUP         0808b4a0        00000006
YIE                    DATA           DGROUP         0808b4a6        00000000
TIB                    DATA           DGROUP         0808b4a6        00000000
TI                     DATA           DGROUP         0808b4a6        00000000
TIE                    DATA           DGROUP         0808b4a6        00000000
DATA                   DATA           DGROUP         0808b4a6        00000000
_BSS                   BSS            DGROUP         0808c000        00001920


                        +----------------+
                        |   Memory Map   |
                        +----------------+

* = unreferenced symbol
+ = symbol only referenced locally

Address        Symbol
=======        ======

Module: args.obj(/mnt/sda5/.user/root/src/openwatcom-1.9/bld/ndisasm/stand/c/args.c)
080485a0       HandleArgs_
Module: buffer.obj(/mnt/sda5/.user/root/src/openwatcom-1.9/bld/ndisasm/stand/c/buffer.c)
08048920       FmtHexNum_
08048a00       BufferAlignToTab_
08048ae0       BufferConcat_
08048b20       BufferConcatNL_
08048b60       BufferStore_
08048bd0       BufferMsg_
08048c40       BufferPrint_
08048c60       BufferHex_
08048cb0       BufferQuoteName_
0808c000+      _IntermedBuffer
0808cc00+      _Buffer
Module: dwarf.obj(/mnt/sda5/.user/root/src/openwatcom-1.9/bld/ndisasm/stand/c/dwarf.c)
08048e10       GetDwarfLines_
Module: externs.obj(/mnt/sda5/.user/root/src/openwatcom-1.9/bld/ndisasm/stand/c/externs.c)
08049500       CreateExterns_
080495c0       FreeExterns_
080495e0       PrintExterns_
Module: formasm.obj(/mnt/sda5/.user/root/src/openwatcom-1.9/bld/ndisasm/stand/c/formasm.c)
08049860       IsMasmOutput_
08049da0       HandleAddend_
08049e10       IsDataReloc_
08049f20       RelocSize_
08049f70       HandleRefInData_
0804a450       DumpASMDataFromSection_
0804a5e0       DumpASMSection_
0804a970       BssASMSection_
0804a9d0       SkipRef_
Module: fini.obj(/mnt/sda5/.user/root/src/openwatcom-1.9/bld/ndisasm/stand/c/fini.c)
0804ab00+      SectionFini_
0804ab60       FreeHashTables_
0804aba0+      FreeServicesUsed_
0804abd0       CloseFiles_
0804ac20       Fini_
Module: groups.obj(/mnt/sda5/.user/root/src/openwatcom-1.9/bld/ndisasm/stand/c/groups.c)
0804aca0       DumpASMGroupName_
0804ace0       DumpASMGroupMember_
0804ad10       DumpASMGroupFini_
Module: identsec.obj(/mnt/sda5/.user/root/src/openwatcom-1.9/bld/ndisasm/stand/c/identsec.c)
0804ad30       IdentifySec_
Module: init.obj(/mnt/sda5/.user/root/src/openwatcom-1.9/bld/ndisasm/stand/c/init.c)
0808b118       _CommentString
0808b11c+      _RecognizedName
0804ae80       IsIntelx86_
0804aea0       GetFormat_
0804b4f0       CloseObjFile_
0804b6a0       GetMachineType_
0804b6b0*      FileU16toHostU16_
0804b6e0*      FileU32toHostU32_
0804b730*      FileU64toHostU64_
0804bba0       PrintErrorMsg_
0804bbf0*      LeaveProgram_
0804bc10       Init_
Module: hashtabl.obj(/mnt/sda5/.user/root/src/openwatcom-1.9/bld/ndisasm/stand/c/hashtabl.c)
0804bd80       NumberCmp_
0804bdd0       HashTableInsert_
0804be50       HashTableQuery_
0804bea0       HashTableCreate_
0804bf10       HashTableFree_
Module: labproc.obj(/mnt/sda5/.user/root/src/openwatcom-1.9/bld/ndisasm/stand/c/labproc.c)
0804c0d0       NeedsQuoting_
0804c130+      CreateNamedLabel_
0804c370       DealWithSymbolSection_
0804c380       CreateUnnamedLabel_
0804c3e0       CreateAbsoluteLabel_
Module: main.obj(/mnt/sda5/.user/root/src/openwatcom-1.9/bld/ndisasm/stand/c/main.c)
0808d838       _Sections
0808d840       _NameRecognitionTable
0808d844       _ORLHnd
0808d848       _HandleToSectionTable
0808d84c       _ObjFileHnd
0808d850       _OutputDest
0808d854       _HandleToRefListTable
0808d858       _HandleToLabelListTable
0808d85c       _debugHnd
0808d860       _SymbolToLabelTable
0808b17c       _LabelChar
0808b17d       _QuoteChar
0808b180       _ObjFileName
0808b184       _ListFileName
0808b188       _SkipRefTable
0804ccf0       PrintAssumeHeader_
0804cd40       PrintHeader_
0804cd60       PrintTail_
0804ce50       PrintLinePrefix_
0804d1b0       DumpDataFromSection_
0804d8e0       UseFlatModel_
0804d9f0       main_
0808d864       _Publics
0808d870       _DHnd
0808d87c       _DFormat
0808d87d       _Options
Module: memfuncs.obj(/mnt/sda5/.user/root/src/openwatcom-1.9/bld/ndisasm/stand/c/memfuncs.c)
0804daa0       MemClose_
0804daa0       MemPrtList_
0804daa0       MemOpen_
0804dab0       MemAlloc_
0804dac0       MemRealloc_
0804dad0       MemFree_
Module: msg.obj(/mnt/sda5/.user/root/src/openwatcom-1.9/bld/ndisasm/stand/c/msg.c)
0804db30       MsgInit_
0804dbf0       MsgGet_
0804dc30       MsgFini_
0808b19c       _WResRtns
Module: pass1.obj(/mnt/sda5/.user/root/src/openwatcom-1.9/bld/ndisasm/stand/c/pass1.c)
0804dc70       DoPass1Relocs_
0804dd80       DoPass1_
Module: pass2.obj(/mnt/sda5/.user/root/src/openwatcom-1.9/bld/ndisasm/stand/c/pass2.c)
0804e2f0       DisCliGetData_
0804e790       HandleAReference_
0804ed00       DisCliValueString_
0804eeb0       DoPass2_
Module: pdata.obj(/mnt/sda5/.user/root/src/openwatcom-1.9/bld/ndisasm/stand/c/pdata.c)
0804f660*      StoreReloc_
0804f670       DumpPDataSection_
Module: print.obj(/mnt/sda5/.user/root/src/openwatcom-1.9/bld/ndisasm/stand/c/print.c)
0804f820       ChangePrintDest_
0804f830       Print_
0808b1c4+      _CurrentDest
Module: publics.obj(/mnt/sda5/.user/root/src/openwatcom-1.9/bld/ndisasm/stand/c/publics.c)
0804f8c0       CreatePublicsArray_
0804f950       PrintPublics_
Module: srcmix.obj(/mnt/sda5/.user/root/src/openwatcom-1.9/bld/ndisasm/stand/c/srcmix.c)
0808d888+      _numlines
0808d88c+      _SourceFile
0808d890+      _lineInFile
0808d894+      _currline
0808d898       _lines
0804faf0       GetSourceFile_
08050070       MixSource_
08050100       EndSourceMix_
0808b1c8       _SourceFileName
0808b1cc       _SourceFileInObject
0808b1d0       _SourceFileInDwarf
0808b1d4       _source_mix
Module: refproc.obj(/mnt/sda5/.user/root/src/openwatcom-1.9/bld/ndisasm/stand/c/refproc.c)
08050240+      CreateNamedLabelRef_
080502f0       DealWithRelocSection_
08050300       CreateUnnamedLabelRef_
08050370       CreateAbsoluteLabelRef_
Module: cmdlhelp.obj(/mnt/sda5/.user/root/src/openwatcom-1.9/bld/watcom/c/cmdlhelp.c)
080503f0*      BuildQuotedFName_
080504c0       UnquoteFName_
08050550       FindNextWS_
Module: disentry.obj(/mnt/sda5/.user/root/src/openwatcom-1.9/bld/ndisasm/core/c/disentry.c)
080505b0       _AXPMaxInsName
080505b1       _PPCMaxInsName
080505b2       _X86MaxInsName
080505b3       _X64MaxInsName
080505b4       _SPARCMaxInsName
080505b5       _MIPSMaxInsName
080505b6+      _DisStringTable
080522d8       _DisInstructionTable
08059798+      _DisRegisterTable
08059e24       _DisRefTypeTable
08059eca       _AXPRangeTable
08059efc       _AXPRangeTablePos
08059f04       _PPCRangeTable
08059fe0       _PPCRangeTablePos
08059fe8       _X86RangeTable
0805a210       _X86RangeTablePos
0805a228       _X64RangeTable
0805a2d8       _X64RangeTablePos
0805a2e0       _SPARCRangeTable
0805a2f8       _SPARCRangeTablePos
0805a300       _MIPSRangeTable
0805a330       _MIPSRangeTablePos
0805a338+      _DisSelectorTable
0806b770       SEX_
0806b790       DisGetString_
0806b7e0*      DisDummyHandler_
0806b7f0       DisInit_
0806b860       DisFini_
0806b870       DisDecodeInit_
0806b8e0       DisDecode_
0806ba30       DisAddReg_
0806ba70+      DisOpFormat_
0806bc50       DisFormat_
0806bdd0       DisInsNameMax_
0806bde0       DisInsSizeInc_
Module: disaxp.obj(/mnt/sda5/.user/root/src/openwatcom-1.9/bld/ndisasm/core/c/disaxp.c)
0806be34       _AXPData
0806be60       AXPPal_
0806beb0       AXPMemory_
0806bf40       AXPFPMemory_
0806bf60       AXPMemoryLA_
0806bf80       AXPMemoryFC_
0806bfd0       AXPJump_
0806c020       AXPBranch_
0806c060       AXPFPBranch_
0806c080       AXPOperate_
0806c0d0       AXPOperateV_
0806c0f0       AXPFPOperate_
0806c130       AXPFPConvert_
0806c230       AXPIEEEOperate_
0806c250       AXPIEEECompare_
0806c270       AXPIEEEConvert_
0806c2a0       AXPVAXOperate_
0806c2d0       AXPVAXConvert_
Module: disppc.obj(/mnt/sda5/.user/root/src/openwatcom-1.9/bld/ndisasm/core/c/disppc.c)
0806ca08       _PPCData
0806ca30       PPCMath_
0806cac0       PPCMathb_
0806cae0       PPCMathd_
0806caf0       PPCMathab_
0806cb20       PPCMathda_
0806cb40       PPCMathdb_
0806cb70       PPCMath2_
0806cbb0       PPCMathsa_
0806cbc0       PPCImmediate_
0806cc70       PPCImmed2_
0806cd70       PPCFloat_
0806cda0       PPCFloatdab_
0806cdd0       PPCFloatdac_
0806ce00       PPCFloatCmpab_
0806ce40       PPCFloatdb_
0806ce60       PPCFloato_
0806cee0       PPCMem1_
0806cf90       PPCMemD1_
0806d010       PPCMem2_
0806d150       PPCMemD2_
0806d1c0       PPCMem3_
0806d220       PPCFloatMem1_
0806d240       PPCFloatMem2_
0806d260       PPCBranch_
0806d360       PPCCompare_
0806d420       PPCCondition_
0806d4b0       PPCConditionField_
0806d540       PPCSpecial_
0806d650       PPCShiftImmed_
0806d680       PPCShiftImmedD_
0806d6c0       PPCRotate_
0806d730       PPCRotateD_
0806d770       PPCRotateImmD_
0806d7f0       PPCTrap_
0806d880       PPCNull_
Module: disx86.obj(/mnt/sda5/.user/root/src/openwatcom-1.9/bld/ndisasm/core/c/disx86.c)
0806e3f4       _X86Data
0806e4b0       X86PrefixFwait_
0806e530       X86PrefixOpnd_
0806e550       X86PrefixAddr_
0806e570       X86PrefixRepe_
0806e580       X86PrefixRepne_
0806e590       X86PrefixLock_
0806e5a0       X86PrefixCS_
0806e5b0       X86PrefixSS_
0806e5c0       X86PrefixDS_
0806e5d0       X86PrefixES_
0806e5e0       X86PrefixFS_
0806e5f0       X86PrefixGS_
0806e620+      X86GetRegister_D_
0806e690+      X86GetRegister_W_
0806e6f0+      X86GetRegister_B_
0806e760+      X86FGetSTReg_
0806e7d0+      X86GetMMReg_
0806e840+      X86GetXMMReg_
0806e8a0+      X86GetCRegister_
0806e8f0+      X86GetDRegister_
0806e940+      X86GetTRegister_
0806e990+      X86GetSRegister_
0806e9d0+      X86GetRegister_
0806ea60+      X86GetRegisterAddr_
0806f4d0+      X86GetRefType_
0806f650+      X86FGetRefType_
0806f670+      X86FGetRefTypeEnv_
0806f890+      X86GetRegModRM_B_
0806f940       X86SReg_8_
0806fa10       X86NoOp_8_
0806fb80       X86String_8_
0806fd90       X86ImmAcc_8_
0806fe30       X86MemAbsAcc_8_
0806ff10       X86Abs_8_
0806ff30       X86Rel_8_
0806ff50       X86Imm_8_
080700d0       X86ImmReg_8_
08070110       X86ImmImm_8_
08070160       X86Reg_8_
08070290       X86AccAcc_8_
080702f0       X86JmpCC_8_
08070380       X86Shift_16_
08070430       X86SReg_16_
08070510       X86NoOp_16_
08070520       X86ModRM_16_
08070610       X86ModRMImm_16_
08070700*      X86ModRMAcc_16_
08070760       X86RegModRM_16_
080707c0       X86RegModRM_test_
08070820       X86RegModRM_bound_
08070880       X86RegModRM_16B_
08070970       X86Reg_16_
08070990       X86JmpCC_16_
080709b0       X86SRegModRM_16_
08070a90       X86SetCC_
08070ae0       X86MovCC_24_
08070b50       X86CRegReg_24_
08070c00       X86DRegReg_24_
08070cb0       X86TRegReg_24_
08070d60       X86ModRMImm_24_
08070dd0       X86NoOp_24_
08070de0       X86ModRM_24_
08070e60       X86RegModRM_24_
08070ec0       X86RegModRM_24B_
080710e0       X86RegModRM_24C_
080711b0       X86FTypeCond_
080711e0       X86FType3_
080712a0       X86FType3B_
080712d0       X86FType3C_
08071300       X86FType2_
08071370       X86FTypeFSTSWAX_
080713b0       X86FType4_
08071410       X86FType1_
08071530       X86FTypeEnv_
080716f0       X86MMRegModRM_
08071740       X86MMRegModRMImm_
080717a0       X86MMRegModRM_Rev_
080717f0       X86MMRegImm_
08071820       X86XMMRegModRM_
08071870       X86XMMRegModRMImm_
080718d0       X86XMMRegModRM_Rev_
08071920       X86XMMRegImm_
08071960       X86XMMRegModRM64_
080719b0       X86XMMRegModRM64Imm_
08071a10       X86XMMRegModRM64_Rev_
08071a60       X86XMMRegModRM32_
08071ab0       X86XMMRegModRM32Imm_
08071b10       X86XMMRegModRM32_Rev_
08071b60       X86RegModRM32_Rev_
08071bc0       X86MMRegModRMMixed_
08071cb0       X86MMRegModRMMixedImm_
08071d40       X86MMRegModRMMixed_Rev_
08071da0       X86XMMRegModRMMixed_
08071e60       X86XMMRegModRMMixedImm_
08071ef0       X86XMMRegModRMMixed_Rev_
08071f50       X86RegModRMMixed_
08072050       X86RegModRMMixedImm_
080720e0       X86_3DNow_
08072970*      DisAddUnixReg_
Module: dissparc.obj(/mnt/sda5/.user/root/src/openwatcom-1.9/bld/ndisasm/core/c/dissparc.c)
0807305c       _SPARCData
08073090       SPARCSetHi_
080730d0       SPARCBranch_
08073110       SPARCCall_
08073140       SPARCOp3_
08073240       SPARCMem_
080732d0       SPARCFPop2_
08073340       SPARCFPop3_
080733a0       SPARCMemF_
08073480       SPARCMemC_
Module: dismips.obj(/mnt/sda5/.user/root/src/openwatcom-1.9/bld/ndisasm/core/c/dismips.c)
08073870       _MIPSData
080738f0       MIPSNull_
08073900       MIPSJType_
08073930       MIPSCode_
08073950       MIPSImmed1_
08073980       MIPSImmed2_
080739d0       MIPSImmed2U_
08073a20       MIPSShift_
08073a70       MIPSTrap1_
08073ab0       MIPSMulDiv_
08073ab0       MIPSTrap2_
08073af0       MIPSRegD_
08073b10       MIPSJump1_
08073b10       MIPSRegS_
08073b30       MIPSReg2_
08073b70       MIPSReg3_
08073bc0       MIPSCache_
08073c30       MIPSMemory_
08073cb0       MIPSJump2_
08073cf0       MIPSBranch1_
08073d70       MIPSBranch2_
08073de0       MIPSBranch3_
08073e40       MIPSFGMove_
08073e80       MIPSFPUOp2_
08073ed0       MIPSFPUOp3_
08073f30       MIPSFPUCmp_
08073f90       MIPSFPUMemory_
08074000       MIPSBranchCop_
Module: disx64.obj(/mnt/sda5/.user/root/src/openwatcom-1.9/bld/ndisasm/core/c/disx64.c)
08074334       _X64Data
080743f0       X64PrefixOpnd_
08074410       X64PrefixRex_
08074470       X64PrefixCS_
08074480       X64PrefixFS_
08074490       X64PrefixGS_
080744a0       X64PrefixAddr_
080744c0       X64PrefixRepe_
080744d0       X64PrefixRepne_
080744e0       X64PrefixLock_
080744f0       X64PrefixSS_
08074500       X64PrefixDS_
08074510       X64PrefixES_
08074560+      X64GetRegister_Q_
08074620+      X64GetRegister_D_
080746e0*      X64GetRegister_W_
080747b0+      X64GetRegister_B_
08074860+      X64GetCRegister_
080748c0+      X64GetDRegister_
08074910+      X64GetSRegister_
08074960+      X64GetRegister_
08074fa0+      X64GetRefType_
08075150+      X64GetRegModRM_B_
08075220       X64SReg_8_
080752a0       X64NoOp_8_
08075400       X64String_8_
08075620       X64ImmAcc_8_
080756c0       X64MemAbsAcc_8_
08075800*      X64Abs_8_
08075820       X64Rel_8_
08075840       X64Imm_8_
08075920       X64ImmReg_8_
080759b0       X64ImmImm_8_
08075a00       X64Reg_8_
08075b20       X64AccAcc_8_
08075b90       X64JmpCC_8_
08075c40       X64Shift_16_
08075d00       X64SReg_16_
08075de0       X64NoOp_16_
08075df0       X64ModRM_16_
08075f30       X64RegModRM_16_
08075f90       X64RegModRM_test_
08075ff0       X64RegModRM_16B_
080760b0       X64RegModRM_16C_
08076140       X64ModRMImm_16_
08076240       X64Reg_16_
08076280       X64JmpCC_16_
080762a0       X64SRegModRM_16_
08076390       X64NoOp_24_
080763a0       X64SetCC_
080763f0       X64MovCC_24_
08076430       X64CRegReg_24_
080764e0       X64DRegReg_24_
08076590       X64ModRM_24_
08076630       X64RegModRM_24_
08076690       X64RegModRM_24B_
08076840       X64RegModRM_24C_
080768e0       X64ModRMImm_24_
08076ef0*      DisAddUnixRegX64_
Module: demangle.obj(/mnt/sda5/.user/root/src/openwatcom-1.9/bld/lib_misc/c/demangle.c)
080798c0*      __demangle_t_
08079920       __demangle_l_
08079990*      __demangle_r_
08079a20*      __scope_name_
08079ac0+      __is_mangled_
08079ba0*      __is_mangled_internal_
08079be0*      __unmangled_name_
08079c50*      __demangled_basename_
Module: /mnt/sda5/.user/root/src/openwatcom-1.9/rel2/lib386/linux/clib3r.lib(exit.c)
08079cbf       exit_
08079cd1*      _exit_
Module: /mnt/sda5/.user/root/src/openwatcom-1.9/rel2/lib386/linux/clib3r.lib(istable.c)
08079ce0       __IsTable
Module: /mnt/sda5/.user/root/src/openwatcom-1.9/rel2/lib386/linux/clib3r.lib(split2.c)
08079e30       _splitpath2_
Module: /mnt/sda5/.user/root/src/openwatcom-1.9/rel2/lib386/linux/clib3r.lib(makepath.c)
08079f00       _makepath_
Module: /mnt/sda5/.user/root/src/openwatcom-1.9/rel2/lib386/linux/clib3r.lib(tolower.c)
0807a090       tolower_
Module: /mnt/sda5/.user/root/src/openwatcom-1.9/rel2/lib386/linux/clib3r.lib(toupper.c)
0807a0a0       toupper_
Module: /mnt/sda5/.user/root/src/openwatcom-1.9/rel2/lib386/linux/clib3r.lib(sprintf.c)
0807a0b0       sprintf_
Module: /mnt/sda5/.user/root/src/openwatcom-1.9/rel2/lib386/linux/clib3r.lib(vsprintf.c)
0807a100       vsprintf_
Module: /mnt/sda5/.user/root/src/openwatcom-1.9/bld/orl/osi386/orl.lib(/mnt/sda5/.user/root/src/openwatcom-1.9/bld/orl/c/orlentry.c)
0807a120       ORLInit_
0807a180       ORLGetError_
0807a190       ORLFini_
0807a1e0       ORLFileIdentify_
0807a4d0       ORLFileInit_
0807a5a0*      ORLFileFini_
0807a5f0*      ORLExportTableRVA_
0807a610       ORLFileScan_
0807a650       ORLFileGetMachineType_
0807a690       ORLFileGetFlags_
0807a6d0*      ORLFileGetSize_
0807a710*      ORLFileGetType_
0807a750       ORLFileGetFormat_
0807a760*      ORLFileGetSymbolTable_
0807a7a0       ORLSecGetName_
0807a7d0*      ORLSecGetBase_
0807a800       ORLSecGetSize_
0807a830       ORLSecGetType_
0807a860       ORLSecGetAlignment_
0807a890       ORLSecGetFlags_
0807a8c0*      ORLSecGetStringTable_
0807a8f0*      ORLSecGetSymbolTable_
0807a920       ORLSecGetRelocTable_
0807a950       ORLSecGetLines_
0807a980       ORLSecGetNumLines_
0807a9b0*      ORLSecGetOffset_
0807a9c0       ORLSecGetClassName_
0807a9d0       ORLSecGetCombine_
0807a9e0       ORLSecGetAbsFrame_
0807a9f0       ORLSecGetAssociated_
0807aa00       ORLSecGetGroup_
0807aa10       ORLSecGetContents_
0807aa40*      ORLSecQueryReloc_
0807aa70*      ORLSecScanReloc_
0807aaa0*      ORLCvtSecHdlToIdx_
0807aad0*      ORLCvtIdxToSecHdl_
0807ab10       ORLRelocSecScan_
0807ab40       ORLSymbolSecScan_
0807ab70       ORLNoteSecScan_
0807aba0       ORLSymbolGetName_
0807abd0       ORLSymbolGetValue_
0807ac00       ORLSymbolGetBinding_
0807ac30       ORLSymbolGetType_
0807ac60*      ORLSymbolGetRawInfo_
0807ac90       ORLSymbolGetSecHandle_
0807acc0*      ORLSymbolGetAssociated_
0807acf0       ORLGroupsScan_
0807ad10       ORLGroupName_
0807ad20       ORLGroupSize_
0807ad30       ORLGroupMember_
Module: /mnt/sda5/.user/root/src/openwatcom-1.9/rel2/lib386/linux/clib3r.lib(stricmp.c)
0807ad40       stricmp_
Module: /mnt/sda5/.user/root/src/openwatcom-1.9/rel2/lib386/linux/clib3r.lib(memset.c)
0807ad80       memset_
Module: /mnt/sda5/.user/root/src/openwatcom-1.9/rel2/lib386/linux/clib3r.lib(qsort.c)
0807adf0       qsort_
Module: /mnt/sda5/.user/root/src/openwatcom-1.9/rel2/lib386/linux/clib3r.lib(_strcmp)
0807b4a0       strcmp_
Module: /mnt/sda5/.user/root/src/openwatcom-1.9/rel2/lib386/linux/clib3r.lib(strncpy.c)
0807b5e0       strncpy_
Module: /mnt/sda5/.user/root/src/openwatcom-1.9/rel2/lib386/linux/clib3r.lib(close.c)
0807b620       close_
Module: /mnt/sda5/.user/root/src/openwatcom-1.9/rel2/lib386/linux/clib3r.lib(printf.c)
0807b650       printf_
Module: /mnt/sda5/.user/root/src/openwatcom-1.9/rel2/lib386/linux/clib3r.lib(openlnx.c)
0807b680       open_
0807b6a0       sopen_
Module: /mnt/sda5/.user/root/src/openwatcom-1.9/rel2/lib386/linux/clib3r.lib(filelen.c)
0807b6c0       filelength_
Module: /mnt/sda5/.user/root/src/openwatcom-1.9/rel2/lib386/linux/clib3r.lib(read.c)
0807b710       read_
Module: /mnt/sda5/.user/root/src/openwatcom-1.9/rel2/lib386/linux/clib3r.lib(i8s)
0807b73c       __U8RS
0807b756*      __I8RS
0807b771*      __I8LS
0807b771       __U8LS
Module: /mnt/sda5/.user/root/src/openwatcom-1.9/rel2/lib386/linux/clib3r.lib(gtcmdunx.c)
0807b790+      _bgetcmd_
0807b860       getcmd_
Module: /mnt/sda5/.user/root/src/openwatcom-1.9/rel2/lib386/linux/clib3r.lib(cstart)
0807b874       _cstart_
0807b874*      _start
Module: /mnt/sda5/.user/root/src/openwatcom-1.9/rel2/lib386/linux/clib3r.lib(cmainlnx.c)
0807b8f0       __LinuxMain
0808d8f8       __argc
0808d8fc       __argv
Module: /mnt/sda5/.user/root/src/openwatcom-1.9/rel2/lib386/linux/clib3r.lib(nmalloc.c)
0807b980       _nmalloc_
0807b980       malloc_
0808b1d8       ___nheapbeg
0808b1dc       ___MiniHeapRover
0808b1e0       ___LargestSizeB4MiniHeapRover
Module: /mnt/sda5/.user/root/src/openwatcom-1.9/rel2/lib386/linux/clib3r.lib(nrealloc.c)
0807ba70*      _nrealloc_
0807ba70       realloc_
Module: /mnt/sda5/.user/root/src/openwatcom-1.9/rel2/lib386/linux/clib3r.lib(nfree.c)
0807baf0       _nfree_
0807baf0       free_
0808d900+      ___MiniHeapFreeRover
Module: /mnt/sda5/.user/root/src/openwatcom-1.9/rel2/lib386/linux/clib3r.lib(write.c)
0807bbf0       write_
Module: /mnt/sda5/.user/root/src/openwatcom-1.9/rel2/lib386/linux/clib3r.lib(tell.c)
0807bc20       tell_
Module: /mnt/sda5/.user/root/src/openwatcom-1.9/rel2/lib386/linux/clib3r.lib(lseek.c)
0807bc40       lseek_
Module: /mnt/sda5/.user/root/src/openwatcom-1.9/bld/sdk/rc/wres/linux386/mf_r/wres.lib(loadfind.c)
0807bc68       FindResources_
0808b1e4       _FileShift
Module: /mnt/sda5/.user/root/src/openwatcom-1.9/rel2/lib386/linux/clib3r.lib(cmdname.c)
0807bda0       _cmdname_
Module: /mnt/sda5/.user/root/src/openwatcom-1.9/bld/sdk/rc/wres/linux386/mf_r/wres.lib(wrgetli.c)
0807be20       _WResLanguage_
0807be24       WResGetLangInfo_
0807be38*      WResGetFileInfo_
Module: /mnt/sda5/.user/root/src/openwatcom-1.9/bld/sdk/rc/wres/linux386/mf_r/wres.lib(loadstr.c)
0807bf84+      WResLoadString2_
0807c034       WResLoadString_
0807c04c       OpenResFile_
0807c05c+      InitResources2_
0807c084       InitResources_
0807c094*      CloseResFile2_
0807c0a0       CloseResFile_
0807c0b8*      LoadstrInitStatics_
0808d904+      _MainDir
Module: /mnt/sda5/.user/root/src/openwatcom-1.9/rel2/lib386/linux/clib3r.lib(fopen.c)
0807c0c0+      __open_flags_
0807c260+      _fsopen_
0807c2b0       fopen_
0807c330*      freopen_
Module: /mnt/sda5/.user/root/src/openwatcom-1.9/rel2/lib386/linux/clib3r.lib(ftell.c)
0807c390       ftell_
Module: /mnt/sda5/.user/root/src/openwatcom-1.9/rel2/lib386/linux/clib3r.lib(fgetc.c)
0807c3e0+      __fill_buffer_
0807c490       fgetc_
Module: /mnt/sda5/.user/root/src/openwatcom-1.9/rel2/lib386/linux/clib3r.lib(fseek.c)
0807c550       fseek_
Module: /mnt/sda5/.user/root/src/openwatcom-1.9/rel2/lib386/linux/clib3r.lib(fgets.c)
0807c650       fgets_
Module: /mnt/sda5/.user/root/src/openwatcom-1.9/rel2/lib386/linux/clib3r.lib(fclose.c)
0807c6c0       __doclose_
0807c730       __shutdown_stream_
0807c750       fclose_
Module: /mnt/sda5/.user/root/src/openwatcom-1.9/rel2/lib386/linux/clib3r.lib(strlcpy.c)
0807c780       strlcpy_
Module: /mnt/sda5/.user/root/src/openwatcom-1.9/rel2/lib386/linux/clib3r.lib(strlcat.c)
0807c7d0       strlcat_
Module: /mnt/sda5/.user/root/src/openwatcom-1.9/rel2/lib386/linux/clib3r.lib(strupr.c)
0807c820       strupr_
Module: /mnt/sda5/.user/root/src/openwatcom-1.9/rel2/lib386/linux/clib3r.lib(memmove.c)
0807c840       memmove_
Module: /mnt/sda5/.user/root/src/openwatcom-1.9/rel2/lib386/linux/clib3r.lib(itoa.c)
0807c8a0+      utoa_
0807c8f0       itoa_
Module: /mnt/sda5/.user/root/src/openwatcom-1.9/rel2/lib386/linux/clib3r.lib(memicmp.c)
0807c920       memicmp_
Module: /mnt/sda5/.user/root/src/openwatcom-1.9/rel2/lib386/linux/clib3r.lib(stack386.c)
0807c960       stackavail_
Module: /mnt/sda5/.user/root/src/openwatcom-1.9/rel2/lib386/linux/clib3r.lib(initrtns.c)
0807c980       __InitRtns
0807c9d0       __FiniRtns
Module: /mnt/sda5/.user/root/src/openwatcom-1.9/rel2/lib386/linux/clib3r.lib(mainlnx.c)
0808b1e8+      ___FirstThreadData
0808b1ec+      ___GetThreadPtr
0808b1f0*      __AccessFileH
0808b1f4*      __ReleaseFileH
0808b1f8*      __AccessIOB
0808b1fc*      __ReleaseIOB
0808b200*      __AccessNHeap
0808b204*      __AccessFHeap
0808b208*      __ReleaseNHeap
0808b20c*      __ReleaseFHeap
0807ca30*      __threadid_
0807ca60*      __LinuxInit_
0807ca70       __exit_
0808b210*      __AccessTDList
0808b214*      __ReleaseTDList
Module: /mnt/sda5/.user/root/src/openwatcom-1.9/rel2/lib386/linux/clib3r.lib(prtf.c)
0807ca90       __prtf_
Module: /mnt/sda5/.user/root/src/openwatcom-1.9/bld/orl/osi386/orl.lib(/mnt/sda5/.user/root/src/openwatcom-1.9/bld/orl/elf/c/elfentr.c)
0807d5b0       ElfInit_
0807d5d0       ElfFini_
0807d600       ElfFileInit_
0807d650       ElfFileFini_
0807d660       ElfFileScan_
0807d6c0       ElfFileGetMachineType_
0807d6d0       ElfFileGetFlags_
0807d6e0       ElfFileGetType_
0807d6f0       ElfFileGetSize_
0807d700       ElfFileGetSymbolTable_
0807d710       ElfSymbolGetName_
0807d710       ElfSecGetName_
0807d720       ElfSecGetBase_
0807d730       ElfSymbolGetValue_
0807d730       ElfSecGetSize_
0807d740       ElfSecGetType_
0807d750       ElfSecGetFlags_
0807d760       ElfSecGetAlignment_
0807d770       ElfSecGetStringTable_
0807d790       ElfSecGetSymbolTable_
0807d7c0       ElfSecGetRelocTable_
0807d7f0       ElfSecGetContents_
0807d810       ElfSecQueryReloc_
0807d890       ElfSecScanReloc_
0807d8f0       ElfCvtSecHdlToIdx_
0807d930       ElfCvtIdxToSecHdl_
0807d960       ElfRelocSecScan_
0807d9c0       ElfSymbolSecScan_
0807da20       ElfNoteSecScan_
0807da60       ElfSymbolGetBinding_
0807da70       ElfSymbolGetType_
0807da80       ElfSymbolGetRawInfo_
0807da90       ElfSymbolGetSecHandle_
0807dab0       ElfSymbolGetAssociated_
Module: /mnt/sda5/.user/root/src/openwatcom-1.9/bld/orl/osi386/orl.lib(/mnt/sda5/.user/root/src/openwatcom-1.9/bld/orl/coff/c/coffentr.c)
0807dad0       CoffInit_
0807daf0       CoffFini_
0807db20       CoffFileInit_
0807db90       CoffFileFini_
0807dba0       CoffFileScan_
0807dc00       CoffExportTableRVA_
0807dc10       CoffFileGetMachineType_
0807dc20       CoffFileGetFlags_
0807dc30       CoffFileGetType_
0807dc40       CoffSecGetBase_
0807dc40       CoffFileGetSize_
0807dc50       CoffFileGetSymbolTable_
0807dc60       CoffSecGetStringTable_
0807dc70       CoffSecGetSymbolTable_
0807dc80       CoffSecGetName_
0807dc90       CoffSecGetSize_
0807dca0       CoffSecGetType_
0807dcb0       CoffSecGetFlags_
0807dcc0       CoffSecGetAlignment_
0807dcd0       CoffSecGetRelocTable_
0807dce0       CoffSecGetNumLines_
0807dd00       CoffSecGetLines_
0807dd20       CoffSecGetOffset_
0807dd40       CoffSecGetContents_
0807dd60       CoffSecQueryReloc_
0807ddc0       CoffCvtSecHdlToIdx_
0807ddf0       CoffCvtIdxToSecHdl_
0807de00       CoffSecScanReloc_
0807de60       CoffRelocSecScan_
0807deb0       CoffSymbolSecScan_
0807df20       CoffNoteSecScan_
0807df60       CoffSymbolGetName_
0807df80       CoffSymbolGetValue_
0807df90       CoffSymbolGetBinding_
0807dfa0       CoffSymbolGetType_
0807dfb0       CoffSymbolGetSecHandle_
0807dfe0       CoffSymbolGetAssociated_
Module: /mnt/sda5/.user/root/src/openwatcom-1.9/bld/orl/osi386/orl.lib(/mnt/sda5/.user/root/src/openwatcom-1.9/bld/orl/omf/c/omfentr.c)
0807e000       OmfInit_
0807e020       OmfFini_
0807e050       OmfFileInit_
0807e0b0       OmfFileFini_
0807e0c0       OmfFileScan_
0807e120       OmfFileGetMachineType_
0807e130       OmfFileGetFlags_
0807e140       OmfFileGetType_
0807e150       OmfFileGetSize_
0807e160       OmfFileGetSymbolTable_
0807e170       OmfSecGetName_
0807e190       OmfSecGetBase_
0807e1a0       OmfGroupSize_
0807e1a0       OmfSecGetSize_
0807e1b0       OmfSecGetType_
0807e1c0       OmfSecGetFlags_
0807e1d0       OmfSecGetAlignment_
0807e1f0       OmfSecGetClassName_
0807e210       OmfSecGetCombine_
0807e230       OmfSecGetAbsFrame_
0807e250       OmfSecGetAssociated_
0807e270       OmfSecGetGroup_
0807e2a0       OmfSecGetStringTable_
0807e2c0       OmfSecGetSymbolTable_
0807e2d0       OmfSecGetRelocTable_
0807e2e0       OmfSymbolGetSecHandle_
0807e2f0       OmfSecGetContents_
0807e3b0       OmfSecQueryReloc_
0807e3d0       OmfSecScanReloc_
0807e3f0       OmfSymbolGetValue_
0807e3f0       OmfCvtSecHdlToIdx_
0807e400       OmfCvtIdxToSecHdl_
0807e420       OmfRelocSecScan_
0807e440       OmfSymbolSecScan_
0807e480       OmfSecGetNumLines_
0807e490       OmfSecGetLines_
0807e4a0       OmfSymbolGetName_
0807e4b0       OmfSymbolGetBinding_
0807e4c0       OmfSymbolGetType_
0807e4d0       OmfSymbolGetRawInfo_
0807e4e0       OmfNoteSecScan_
0807e4f0       OmfGroupsScan_
0807e530       OmfGroupName_
0807e540       OmfGroupMember_
Module: /mnt/sda5/.user/root/src/openwatcom-1.9/bld/orl/osi386/orl.lib(/mnt/sda5/.user/root/src/openwatcom-1.9/bld/orl/c/orlflhnd.c)
0807e580       ORLAddFileLinks_
0807e590       ORLRemoveFileLinks_
Module: /mnt/sda5/.user/root/src/openwatcom-1.9/rel2/lib386/linux/clib3r.lib(__stos)
0807e5f0       __STOSB
0807e627*      __STOSD
Module: /mnt/sda5/.user/root/src/openwatcom-1.9/rel2/lib386/linux/clib3r.lib(errno.c)
0807e6a0       __get_errno_ptr_
0808d908+      _errno
Module: /mnt/sda5/.user/root/src/openwatcom-1.9/rel2/lib386/linux/clib3r.lib(iob.c)
0808b218       ___iob
0808d90c       ___OpenStreams
0808d910       ___ClosedStreams
Module: /mnt/sda5/.user/root/src/openwatcom-1.9/rel2/lib386/linux/clib3r.lib(fprtf.c)
0807e6d0       __fprtf_
Module: /mnt/sda5/.user/root/src/openwatcom-1.9/rel2/lib386/linux/clib3r.lib(sys_open.c)
0807e760       sys_open_
Module: /mnt/sda5/.user/root/src/openwatcom-1.9/rel2/lib386/linux/clib3r.lib(__lseek.c)
0807e790       __lseek_
Module: /mnt/sda5/.user/root/src/openwatcom-1.9/rel2/lib386/linux/clib3r.lib(segdefns)
08048103       ___begtext
0808b000*      __nullarea
0808b494       __Start_XI
0808b4a0       __End_XI
0808b4a0       __Start_YI
0808b4a6       __End_YI
Module: /mnt/sda5/.user/root/src/openwatcom-1.9/rel2/lib386/linux/clib3r.lib(crwdata)
0808b3e0*      __LpCmdLine
0808b3e4       __LpPgmName
0808b3d8*      __dynend
0808b3dc       __curbrk
0808b3e8       __STACKLOW
0808b3ec       __STACKTOP
0808b3f0       __ASTACKSIZ
0808b3f4       __ASTACKPTR
0808b3f8*      __cbyte
0808b3fc*      __cbyte2
0808b400*      __child
0808b406*      __Envptr
0808b40a*      __Envseg
0808b404*      __no87
0808b40c*      ___FPE_handler
Module: /mnt/sda5/.user/root/src/openwatcom-1.9/rel2/lib386/linux/clib3r.lib(sbrklnx.c)
0807e7c0       sbrk_
0807e7d0       __brk_
0807e800*      brk_
Module: /mnt/sda5/.user/root/src/openwatcom-1.9/rel2/lib386/linux/clib3r.lib(environ.c)
0808d914       ___env_mask
0808d918       _environ
0808d91c*      __wenviron
Module: /mnt/sda5/.user/root/src/openwatcom-1.9/rel2/lib386/linux/clib3r.lib(amblksiz.c)
0808b410       __amblksiz
Module: /mnt/sda5/.user/root/src/openwatcom-1.9/rel2/lib386/linux/clib3r.lib(nmemneed.c)
0807e830       __nmemneed_
Module: /mnt/sda5/.user/root/src/openwatcom-1.9/rel2/lib386/linux/clib3r.lib(mem.c)
0807e840       __MemAllocator
0807e8f0       __MemFree
Module: /mnt/sda5/.user/root/src/openwatcom-1.9/rel2/lib386/linux/clib3r.lib(grownear.c)
0807eab0+      __LastFree_
0807eb30       __ExpandDGROUP_
Module: /mnt/sda5/.user/root/src/openwatcom-1.9/rel2/lib386/linux/clib3r.lib(nmsize.c)
0807ec30       _nmsize_
0807ec30*      _msize_
Module: /mnt/sda5/.user/root/src/openwatcom-1.9/rel2/lib386/linux/clib3r.lib(nexpand.c)
0807ec40       _nexpand_
0807ec40*      _expand_
0807ec90+      __HeapManager_expand_
Module: /mnt/sda5/.user/root/src/openwatcom-1.9/rel2/lib386/linux/clib3r.lib(readlink.c)
0807ee60       readlink_
Module: /mnt/sda5/.user/root/src/openwatcom-1.9/bld/sdk/rc/wres/linux386/mf_r/wres.lib(wriidfn.c)
0807ee90       WResInitIDFromNum_
Module: /mnt/sda5/.user/root/src/openwatcom-1.9/bld/sdk/rc/wres/linux386/mf_r/wres.lib(wrfindrs.c)
0807eea0       __FindType_
0807eec4       __FindRes_
0807eee8       __FindLang_
0807ef24       WResFindResource_
Module: /mnt/sda5/.user/root/src/openwatcom-1.9/bld/sdk/rc/wres/linux386/mf_r/wres.lib(ropenfro.c)
0807efb0       ResOpenFileRO_
Module: /mnt/sda5/.user/root/src/openwatcom-1.9/bld/sdk/rc/wres/linux386/mf_r/wres.lib(wrinitdi.c)
0807eff0       WResInitDir_
Module: /mnt/sda5/.user/root/src/openwatcom-1.9/bld/sdk/rc/wres/linux386/mf_r/wres.lib(wrreaddi.c)
0807f768       WResReadDir_
0807f774+      WResReadDir2_
Module: /mnt/sda5/.user/root/src/openwatcom-1.9/bld/sdk/rc/wres/linux386/mf_r/wres.lib(wrfreedi.c)
0807f830+      __FreeLangList_
0807f85c+      __FreeResList_
0807f894       __FreeTypeList_
0807f8cc       WResFreeDir_
Module: /mnt/sda5/.user/root/src/openwatcom-1.9/bld/sdk/rc/wres/linux386/mf_r/wres.lib(rclosef.c)
0807f8f0       ResCloseFile_
Module: /mnt/sda5/.user/root/src/openwatcom-1.9/rel2/lib386/linux/clib3r.lib(comtflag.c)
0807f910*      __set_commode_
0808b414       __commode
Module: /mnt/sda5/.user/root/src/openwatcom-1.9/rel2/lib386/linux/clib3r.lib(seterrno.c)
0807f91b       __set_errno_
0807f927*      __set_EDOM_
0807f933*      __set_ERANGE_
0807f93f*      __set_EINVAL_
Module: /mnt/sda5/.user/root/src/openwatcom-1.9/rel2/lib386/linux/clib3r.lib(chktty.c)
0807f950       __chktty_
Module: /mnt/sda5/.user/root/src/openwatcom-1.9/rel2/lib386/linux/clib3r.lib(freefp.c)
0807f980       __freefp_
0807f9c0       __purgefp_
Module: /mnt/sda5/.user/root/src/openwatcom-1.9/rel2/lib386/linux/clib3r.lib(allocfp.c)
0807f9f0       __allocfp_
Module: /mnt/sda5/.user/root/src/openwatcom-1.9/rel2/lib386/linux/clib3r.lib(fflush.c)
0807fab0       fflush_
Module: /mnt/sda5/.user/root/src/openwatcom-1.9/rel2/lib386/linux/clib3r.lib(flushall.c)
0807fac0       __flushall_
0807fb00       flushall_
Module: /mnt/sda5/.user/root/src/openwatcom-1.9/rel2/lib386/linux/clib3r.lib(qreadunx.c)
0807fb10       __qread_
Module: /mnt/sda5/.user/root/src/openwatcom-1.9/rel2/lib386/linux/clib3r.lib(ioalloc.c)
0807fb60       __ioalloc_
Module: /mnt/sda5/.user/root/src/openwatcom-1.9/rel2/lib386/linux/clib3r.lib(flush.c)
0807fc00       __flush_
Module: /mnt/sda5/.user/root/src/openwatcom-1.9/rel2/lib386/linux/clib3r.lib(alphabet.c)
0808b01c       ___Alphabet
Module: /mnt/sda5/.user/root/src/openwatcom-1.9/rel2/lib386/linux/clib3r.lib(mthrdini.c)
0807fcd0       __InitThreadData_
0808b418*      ___ThreadDataSize
Module: /mnt/sda5/.user/root/src/openwatcom-1.9/rel2/lib386/linux/clib3r.lib(sys_exit.c)
0807fce0       sys_exit_
Module: /mnt/sda5/.user/root/src/openwatcom-1.9/rel2/lib386/linux/clib3r.lib(noefgfmt.c)
0808b41c       ___EFG_printf
0808b420*      ___EFG_scanf
Module: /mnt/sda5/.user/root/src/openwatcom-1.9/rel2/lib386/linux/clib3r.lib(lltoa.c)
0807fd40       ulltoa_
0807fdb0*      lltoa_
Module: /mnt/sda5/.user/root/src/openwatcom-1.9/rel2/lib386/linux/clib3r.lib(ltoa.c)
0807fde0       ultoa_
0807fe30*      ltoa_
Module: /mnt/sda5/.user/root/src/openwatcom-1.9/bld/orl/osi386/orl.lib(/mnt/sda5/.user/root/src/openwatcom-1.9/bld/orl/elf/c/elfflhn.c)
0807ff10       ElfAddFileLinks_
0807ff20       ElfRemoveFileLinks_
Module: /mnt/sda5/.user/root/src/openwatcom-1.9/bld/orl/osi386/orl.lib(/mnt/sda5/.user/root/src/openwatcom-1.9/bld/orl/elf/c/elfload.c)
080815f0       ElfLoadFileStructure_
Module: /mnt/sda5/.user/root/src/openwatcom-1.9/bld/orl/osi386/orl.lib(/mnt/sda5/.user/root/src/openwatcom-1.9/bld/orl/elf/c/elflwlv.c)
080821b0       ElfCreateSymbolHandles_
08082360       ElfBuildSecNameHashTable_
080825c0+      ElfConvertRelocType_
080826a0       ElfCreateRelocs_
08082b00       ElfParseDrectve_
Module: /mnt/sda5/.user/root/src/openwatcom-1.9/bld/orl/osi386/orl.lib(/mnt/sda5/.user/root/src/openwatcom-1.9/bld/orl/c/orlhash.c)
08082bf0*      ORLNumberCmp_
08082c40       ORLHashTableInsert_
08082d00       ORLHashTableQuery_
08082d60       ORLHashTableCreate_
08082dd0       ORLHashTableFree_
Module: /mnt/sda5/.user/root/src/openwatcom-1.9/bld/orl/osi386/orl.lib(/mnt/sda5/.user/root/src/openwatcom-1.9/bld/orl/coff/c/coffflhn.c)
08082f40       CoffAddFileLinks_
08082f50       CoffRemoveFileLinks_
Module: /mnt/sda5/.user/root/src/openwatcom-1.9/bld/orl/osi386/orl.lib(/mnt/sda5/.user/root/src/openwatcom-1.9/bld/orl/coff/c/coffload.c)
08083790       CoffLoadFileStructure_
Module: /mnt/sda5/.user/root/src/openwatcom-1.9/bld/orl/osi386/orl.lib(/mnt/sda5/.user/root/src/openwatcom-1.9/bld/orl/coff/c/cofflwlv.c)
08083ce0       CoffCreateSymbolHandles_
080840f0       CoffBuildSecNameHashTable_
080841b0+      CoffConvertRelocType_
08084380       CoffCreateRelocs_
08084480       CoffConvertLines_
080847a0       CoffParseDrectve_
Module: /mnt/sda5/.user/root/src/openwatcom-1.9/bld/orl/osi386/orl.lib(/mnt/sda5/.user/root/src/openwatcom-1.9/bld/orl/omf/c/omfflhn.c)
08084b50       OmfAddFileLinks_
08084b60       OmfRemoveFileLinks_
Module: /mnt/sda5/.user/root/src/openwatcom-1.9/bld/orl/osi386/orl.lib(/mnt/sda5/.user/root/src/openwatcom-1.9/bld/orl/omf/c/omfload.c)
08084be0       OmfGetWordSize_
08084d10+      loadIndex_
08085ed0       OmfLoadFileStructure_
08085f50       OmfParseScanTab_
Module: /mnt/sda5/.user/root/src/openwatcom-1.9/bld/orl/osi386/orl.lib(/mnt/sda5/.user/root/src/openwatcom-1.9/bld/orl/omf/c/omfmunge.c)
08086b10       OmfModEnd_
08086ef0       OmfAddLIData_
08087040       OmfAddLEData_
080870d0       OmfAddLName_
08087180       OmfAddFixupp_
08087470       OmfAddExtDef_
08087560       OmfAddComDat_
08087820       OmfAddLineNum_
08087870       OmfAddSegDef_
080879b0       OmfAddPubDef_
08087a70       OmfAddGrpDef_
08087b50       OmfAddComment_
08087c30       OmfGetLName_
08087c90       OmfGetPtrToLName_
08087cc0       OmfFindSegOrComdat_
08087d30       OmfExportSegmentContents_
08087d50       OmfTheadr_
Module: /mnt/sda5/.user/root/src/openwatcom-1.9/bld/orl/osi386/orl.lib(/mnt/sda5/.user/root/src/openwatcom-1.9/bld/orl/omf/c/omfdrctv.c)
08087dc0       OmfParseComments_
Module: /mnt/sda5/.user/root/src/openwatcom-1.9/rel2/lib386/linux/clib3r.lib(initfile.c)
08087ea0       __InitFiles_
Module: /mnt/sda5/.user/root/src/openwatcom-1.9/rel2/lib386/linux/clib3r.lib(ioexit.c)
08087fa0*      fcloseall_
08087fb0       __full_io_exit_
Module: /mnt/sda5/.user/root/src/openwatcom-1.9/rel2/lib386/linux/clib3r.lib(fputc.c)
08087fc0       fputc_
Module: /mnt/sda5/.user/root/src/openwatcom-1.9/rel2/lib386/linux/clib3r.lib(dosseg)
00001234       __DOSseg__
Module: /mnt/sda5/.user/root/src/openwatcom-1.9/rel2/lib386/linux/clib3r.lib(sys_brk.c)
08088050       sys_brk_
Module: /mnt/sda5/.user/root/src/openwatcom-1.9/rel2/lib386/linux/clib3r.lib(setenvp.c)
08088070       __setenvp_
Module: /mnt/sda5/.user/root/src/openwatcom-1.9/rel2/lib386/linux/clib3r.lib(heapen.c)
080880e0*      _heapenable_
0808b43c       ___heap_enabled
Module: /mnt/sda5/.user/root/src/openwatcom-1.9/bld/sdk/rc/wres/linux386/mf_r/wres.lib(wridcmp.c)
080880f0       WResIDCmp_
Module: /mnt/sda5/.user/root/src/openwatcom-1.9/rel2/lib386/linux/clib3r.lib(setmdunx.c)
08088130       setmode_
Module: /mnt/sda5/.user/root/src/openwatcom-1.9/bld/sdk/rc/wres/linux386/mf_r/wres.lib(wrerror.c)
08088140       WresRecordError_
Module: /mnt/sda5/.user/root/src/openwatcom-1.9/bld/sdk/rc/wres/linux386/mf_r/wres.lib(ralliae.c)
08088150       ResAddLLItemAtEnd_
Module: /mnt/sda5/.user/root/src/openwatcom-1.9/bld/sdk/rc/wres/linux386/mf_r/wres.lib(wrrfrr.c)
08088180       WResReadFixedResRecord_
080881c0       WResReadFixedResRecord1_
08088200       WResReadFixedResRecord2_
Module: /mnt/sda5/.user/root/src/openwatcom-1.9/bld/sdk/rc/wres/linux386/mf_r/wres.lib(wridexby.c)
08088280       WResIDExtraBytes_
Module: /mnt/sda5/.user/root/src/openwatcom-1.9/bld/sdk/rc/wres/linux386/mf_r/wres.lib(wrrewrid.c)
08088290       WResReadExtraWResID_
Module: /mnt/sda5/.user/root/src/openwatcom-1.9/bld/sdk/rc/wres/linux386/mf_r/wres.lib(wrrftr.c)
080882f0       WResReadFixedTypeRecord_
08088338       WResReadFixedTypeRecord2_
Module: /mnt/sda5/.user/root/src/openwatcom-1.9/bld/sdk/rc/wres/linux386/mf_r/wres.lib(wrrhr.c)
080883b0       WResReadHeaderRecord_
08088428       WResReadExtHeader_
Module: /mnt/sda5/.user/root/src/openwatcom-1.9/bld/sdk/rc/wres/linux386/mf_r/wres.lib(mrrdrh.c)
08088470       M32ResReadResourceHeader_
080885dc       MResReadResourceHeader_
Module: /mnt/sda5/.user/root/src/openwatcom-1.9/bld/sdk/rc/wres/linux386/mf_r/wres.lib(wrfree.c)
08088680       MResFreeResourceHeader_
Module: /mnt/sda5/.user/root/src/openwatcom-1.9/bld/sdk/rc/wres/linux386/mf_r/wres.lib(wridfnoo.c)
080886c0       WResIDFromNameOrOrd_
Module: /mnt/sda5/.user/root/src/openwatcom-1.9/bld/sdk/rc/wres/linux386/mf_r/wres.lib(wraddres.c)
08088830*      WResAddResource_
0808888c       WResAddResource2_
Module: /mnt/sda5/.user/root/src/openwatcom-1.9/bld/sdk/rc/wres/linux386/mf_r/wres.lib(wriswrf.c)
080889b0       WResFindResType_
08088a48*      WResIsWResFile_
Module: /mnt/sda5/.user/root/src/openwatcom-1.9/rel2/lib386/linux/clib3r.lib(isattlnx.c)
08088a60       isatty_
Module: /mnt/sda5/.user/root/src/openwatcom-1.9/rel2/lib386/linux/clib3r.lib(qwritunx.c)
08088aa0       __qwrite_
Module: /mnt/sda5/.user/root/src/openwatcom-1.9/rel2/lib386/linux/clib3r.lib(fsync.c)
08088af0       fsync_
Module: /mnt/sda5/.user/root/src/openwatcom-1.9/rel2/lib386/linux/clib3r.lib(xmsglnx.c)
08088b20+      __exit_with_msg_
08088b70       __fatal_runtime_error_
Module: /mnt/sda5/.user/root/src/openwatcom-1.9/rel2/lib386/linux/clib3r.lib(i8d)
08088b90*      __I8D
08088be5       __U8D
Module: /mnt/sda5/.user/root/src/openwatcom-1.9/rel2/lib386/linux/clib3r.lib(stk)
08088c99*      __STK
08088c9d*      __CHK
08088c96       __GRO
08088cb6*      __STKOVERFLOW_
Module: /mnt/sda5/.user/root/src/openwatcom-1.9/bld/orl/osi386/orl.lib(/mnt/sda5/.user/root/src/openwatcom-1.9/bld/orl/coff/c/coffimpl.c)
08089310+      getImportName_
08089bf0       convert_import_library_
0808b480       _ImportLibData
Module: /mnt/sda5/.user/root/src/openwatcom-1.9/rel2/lib386/linux/clib3r.lib(atoi.c)
08089c80       atoi_
Module: /mnt/sda5/.user/root/src/openwatcom-1.9/rel2/lib386/linux/clib3r.lib(strstr.c)
08089cd0       strstr_
Module: /mnt/sda5/.user/root/src/openwatcom-1.9/bld/sdk/rc/wres/linux386/mf_r/wres.lib(wridnacm.c)
08089dc0       WResIDNameCmp_
Module: /mnt/sda5/.user/root/src/openwatcom-1.9/bld/sdk/rc/wres/linux386/mf_r/wres.lib(resseek.c)
08089e10*      ResSeek_
08089e30       ResPadDWord_
Module: /mnt/sda5/.user/root/src/openwatcom-1.9/bld/sdk/rc/wres/linux386/mf_r/wres.lib(rduint32.c)
08089e90       ResReadUint32_
Module: /mnt/sda5/.user/root/src/openwatcom-1.9/bld/sdk/rc/wres/linux386/mf_r/wres.lib(rrnamoor.c)
08089ee0       ResReadNameOrOrdinal_
08089fc8       ResRead32NameOrOrdinal_
Module: /mnt/sda5/.user/root/src/openwatcom-1.9/bld/sdk/rc/wres/linux386/mf_r/wres.lib(rduint16.c)
0808a0b0       ResReadUint16_
Module: /mnt/sda5/.user/root/src/openwatcom-1.9/bld/sdk/rc/wres/linux386/mf_r/wres.lib(wridfrst.c)
0808a100       WResIDFromStr_
Module: /mnt/sda5/.user/root/src/openwatcom-1.9/bld/sdk/rc/wres/linux386/mf_r/wres.lib(wridfrnu.c)
0808a170       WResIDFromNum_
Module: /mnt/sda5/.user/root/src/openwatcom-1.9/bld/sdk/rc/wres/linux386/mf_r/wres.lib(wrfirres.c)
0808a1d0*      WResFirstResource_
0808a1fc       WResSetEmptyWindow_
0808a218       WResMakeWindow_
Module: /mnt/sda5/.user/root/src/openwatcom-1.9/rel2/lib386/linux/clib3r.lib(tcgattr.c)
0808a230       tcgetattr_
Module: /mnt/sda5/.user/root/src/openwatcom-1.9/rel2/lib386/linux/clib3r.lib(enterdb.c)
0808a240       __EnterWVIDEO_
0808b490+      ___WD_Present
Module: /mnt/sda5/.user/root/src/openwatcom-1.9/bld/sdk/rc/wres/linux386/mf_r/wres.lib(rduint8.c)
0808a270       ResReadUint8_
Module: /mnt/sda5/.user/root/src/openwatcom-1.9/bld/sdk/rc/wres/linux386/mf_r/wres.lib(rrdstr.c)
0808a2c0       ResReadString_
0808a330       ResRead32String_
Module: /mnt/sda5/.user/root/src/openwatcom-1.9/rel2/lib386/linux/clib3r.lib(ioctl.c)
0808a3b0       ioctl_
Module: /mnt/sda5/.user/root/src/openwatcom-1.9/bld/sdk/rc/wres/linux386/mf_r/wres.lib(varstr.c)
0808a3f0       VarStringStart_
0808a424       VarStringAddChar_
0808a47c       VarStringEnd_


                        +--------------------+
                        |   Libraries Used   |
                        +--------------------+

/mnt/sda5/.user/root/src/openwatcom-1.9/bld/orl/osi386/orl.lib
/mnt/sda5/.user/root/src/openwatcom-1.9/bld/sdk/rc/wres/linux386/mf_r/wres.lib
/mnt/sda5/.user/root/src/openwatcom-1.9/rel2/lib386/linux/clib3r.lib


                        +-----------------------+
                        |   Linker Statistics   |
                        +-----------------------+

Stack size:  1000 (4096.)
Memory size:  00044d2b (281899.)
Entry point address: 0807b874
Link time: 00:00.00
