Open Watcom Linker Version 1.9
Portions Copyright (c) 1985-2002 Sybase, Inc. All Rights Reserved.
Created on:       12/12/16 02:40:18
Executable Image: tcpserv.exe
creating a DOS executable


                        +------------+
                        |   Groups   |
                        +------------+

Group                           Address              Size
=====                           =======              ====

DGROUP                          1ce3:0000            000059f0



                        +--------------+
                        |   Segments   |
                        +--------------+

Segment                Class          Group          Address         Size
=======                =====          =====          =======         ====

mxutil_TEXT            CODE           AUTO           0000:0000       00000084
serv_TEXT              CODE           AUTO           0000:0090       00000195
dostrio_TEXT           CODE           AUTO           0000:0230       000001da
servacc_TEXT           CODE           AUTO           0000:0410       00000239
servcmd_TEXT           CODE           AUTO           0000:0650       00000255
servname_TEXT          CODE           AUTO           0000:08b0       00000000
trpsupp_TEXT           CODE           AUTO           0000:08b0       0000010d
trpld_TEXT             CODE           AUTO           0000:09c0       000002f3
dosnoth_TEXT           CODE           AUTO           0000:0cc0       00000022
packet_TEXT            CODE           AUTO           0000:0cf0       000000ec
tcplink_TEXT           CODE           AUTO           0000:0de0       00000664
_TEXT                  CODE           AUTO           0000:1450       00007a50
sockopt_TEXT           CODE           AUTO           0000:8ea0       00000000
get_rx_lowat_TEXT      CODE           AUTO           0000:8ea0       00000041
get_tx_lowat_TEXT      CODE           AUTO           0000:8ef0       00000041
set_rx_lowat_TEXT      CODE           AUTO           0000:8f40       0000008d
set_tx_lowat_TEXT      CODE           AUTO           0000:8fd0       00000064
raw_tx_buf_TEXT        CODE           AUTO           0000:9040       00000003
raw_rx_buf_TEXT        CODE           AUTO           0000:9050       00000003
udp_tx_buf_TEXT        CODE           AUTO           0000:9060       00000003
udp_rx_buf_TEXT        CODE           AUTO           0000:9070       000000c2
tcp_tx_buf_TEXT        CODE           AUTO           0000:9140       00000003
tcp_rx_buf_TEXT        CODE           AUTO           0000:9150       000000c2
get_raw_opt_TEXT       CODE           AUTO           0000:9220       0000011f
set_raw_opt_TEXT       CODE           AUTO           0000:9340       000001f5
get_udp_opt_TEXT       CODE           AUTO           0000:9540       0000001e
set_udp_opt_TEXT       CODE           AUTO           0000:9560       0000001e
get_tcp_opt_TEXT       CODE           AUTO           0000:9580       0000009f
set_tcp_opt_TEXT       CODE           AUTO           0000:9620       00000109
get_sol_opt_TEXT       CODE           AUTO           0000:9730       000002d7
set_sol_opt_TEXT       CODE           AUTO           0000:9a10       00000330
getsockopt_TEXT        CODE           AUTO           0000:9d40       000000ab
setsockopt_TEXT        CODE           AUTO           0000:9df0       00000118
close_TEXT             CODE           AUTO           0000:9f10       00000000
close_raw_TEXT         CODE           AUTO           0000:9f10       0000001c
close_dgram_TEXT       CODE           AUTO           0000:9f30       00000050
close_stream_TEXT      CODE           AUTO           0000:9f80       00000123
closesocket_TEXT       CODE           AUTO           0000:a0b0       0000000a
close_s_TEXT           CODE           AUTO           0000:a0c0       00000091
receive_TEXT           CODE           AUTO           0000:a160       00000262
raw_receive_TEXT       CODE           AUTO           0000:a3d0       000001bc
udp_receive_TEXT       CODE           AUTO           0000:a590       0000026d
tcp_receive_TEXT       CODE           AUTO           0000:a800       00000259
udp_raw_fill_from_TEXT CODE           AUTO           0000:aa60       00000074
read_s_TEXT            CODE           AUTO           0000:aae0       0000001c
recv_TEXT              CODE           AUTO           0000:ab00       00000022
recvfrom_TEXT          CODE           AUTO           0000:ab30       0000002e
transmit_TEXT          CODE           AUTO           0000:ab60       00000235
ip_transmit_TEXT       CODE           AUTO           0000:ada0       0000036b
udp_transmit_TEXT      CODE           AUTO           0000:b110       0000015e
tcp_transmit_TEXT      CODE           AUTO           0000:b270       000000d4
check_non_block_tx_TEXT CODE          AUTO           0000:b350       0000005f
setup_udp_raw_TEXT     CODE           AUTO           0000:b3b0       0000010f
msg_eor_close_TEXT     CODE           AUTO           0000:b4c0       00000045
writev_s_TEXT          CODE           AUTO           0000:b510       000000ff
write_s_TEXT           CODE           AUTO           0000:b610       0000001a
send_TEXT              CODE           AUTO           0000:b630       00000021
sendto_TEXT            CODE           AUTO           0000:b660       0000002a
getprot_TEXT           CODE           AUTO           0000:b690       00000000
endprotoent_TEXT       CODE           AUTO           0000:b690       000000a7
setprotoent_TEXT       CODE           AUTO           0000:b740       00000060
getprotobynumber_TEXT  CODE           AUTO           0000:b7a0       00000051
getprotobyname_TEXT    CODE           AUTO           0000:b800       00000132
getprotoent_TEXT       CODE           AUTO           0000:b940       000000cb
ReopenProtoFile_TEXT   CODE           AUTO           0000:ba10       00000015
CloseProtoFile_TEXT    CODE           AUTO           0000:ba30       0000001f
GetProtoFile_TEXT      CODE           AUTO           0000:ba50       0000000a
ReadProtoFile_TEXT     CODE           AUTO           0000:ba60       00000108
select_TEXT            CODE           AUTO           0000:bb70       00000000
_sock_exc_select_TEXT  CODE           AUTO           0000:bb70       00000003
_sock_write_select_TEXT CODE          AUTO           0000:bb80       00000055
_sock_read_select_TEXT CODE           AUTO           0000:bbe0       000000f3
sock_signalled_TEXT    CODE           AUTO           0000:bce0       0000001e
listen_queued_TEXT     CODE           AUTO           0000:bd00       00000069
select_s_TEXT          CODE           AUTO           0000:bd70       00000576
setup_select_TEXT      CODE           AUTO           0000:c2f0       0000004f
accept_TEXT            CODE           AUTO           0000:c340       00000340
_sock_append_TEXT      CODE           AUTO           0000:c680       000001bf
listen_free_TEXT       CODE           AUTO           0000:c840       00000071
alloc_addr_TEXT        CODE           AUTO           0000:c8c0       00000101
dup_bind_TEXT          CODE           AUTO           0000:c9d0       000000dc
socket_TEXT            CODE           AUTO           0000:cab0       0000013d
_TCP_listen_TEXT       CODE           AUTO           0000:cbf0       0000004d
_TCP_open_TEXT         CODE           AUTO           0000:cc40       0000005d
_UDP_listen_TEXT       CODE           AUTO           0000:cca0       000000db
_UDP_open_TEXT         CODE           AUTO           0000:cd80       0000005d
sol_callback_TEXT      CODE           AUTO           0000:cde0       00000040
dgram_cancel_TEXT      CODE           AUTO           0000:ce20       00000055
stream_cancel_TEXT     CODE           AUTO           0000:ce80       00000055
set_proto_TEXT         CODE           AUTO           0000:cee0       0000006c
sock_list_add_TEXT     CODE           AUTO           0000:cf50       00000192
_socklist_find_TEXT    CODE           AUTO           0000:d0f0       0000005b
InitSockets_TEXT       CODE           AUTO           0000:d150       00000057
_sock_stop_crit_TEXT   CODE           AUTO           0000:d1b0       0000001e
_sock_start_crit_TEXT  CODE           AUTO           0000:d1d0       00000014
sock_daemon_TEXT       CODE           AUTO           0000:d1f0       000000cd
udp_sock_daemon_TEXT   CODE           AUTO           0000:d2c0       00000036
tcp_sock_daemon_TEXT   CODE           AUTO           0000:d300       00000196
sock_raw_recv_TEXT     CODE           AUTO           0000:d4a0       000001ba
sock_find_tcp_TEXT     CODE           AUTO           0000:d660       0000004d
_sock_del_fd_TEXT      CODE           AUTO           0000:d6b0       0000023e
unset_raw_ip_hook_TEXT CODE           AUTO           0000:d8f0       0000005a
unset_tcp_syn_hook_TEXT CODE          AUTO           0000:d950       00000065
sk_list_del_TEXT       CODE           AUTO           0000:d9c0       00000098
free_rcv_buf_TEXT      CODE           AUTO           0000:da60       00000039
set_rcv_buf_TEXT       CODE           AUTO           0000:daa0       0000002c
_sock_dos_fd_TEXT      CODE           AUTO           0000:dad0       0000002f
sock_get_fd_TEXT       CODE           AUTO           0000:db00       00000086
_sock_calloc_TEXT      CODE           AUTO           0000:db90       0000000f
getserv_TEXT           CODE           AUTO           0000:dba0       00000000
endservent_TEXT        CODE           AUTO           0000:dba0       000000fa
setservent_TEXT        CODE           AUTO           0000:dca0       00000060
getservbyport_TEXT     CODE           AUTO           0000:dd00       00000082
getservbyname_TEXT     CODE           AUTO           0000:dd90       0000010b
getservent_TEXT        CODE           AUTO           0000:dea0       00000210
ReopenServFile_TEXT    CODE           AUTO           0000:e0b0       00000015
CloseServFile_TEXT     CODE           AUTO           0000:e0d0       0000001f
GetServFile_TEXT       CODE           AUTO           0000:e0f0       0000000a
ReadServFile_TEXT      CODE           AUTO           0000:e100       00000108
bind_TEXT              CODE           AUTO           0000:e210       00000262
getname_TEXT           CODE           AUTO           0000:e480       00000000
getpeername_TEXT       CODE           AUTO           0000:e480       000000f7
getsockname_TEXT       CODE           AUTO           0000:e580       000000fc
listen_TEXT            CODE           AUTO           0000:e680       00000115
netaddr_TEXT           CODE           AUTO           0000:e7a0       00000000
inet_makeaddr_TEXT     CODE           AUTO           0000:e7a0       00000051
inet_lnaof_TEXT        CODE           AUTO           0000:e800       0000001d
inet_netof_TEXT        CODE           AUTO           0000:e820       00000042
inet_network_TEXT      CODE           AUTO           0000:e870       000001ab
inet_addr_TEXT         CODE           AUTO           0000:ea20       0000001b
inet_aton_TEXT         CODE           AUTO           0000:ea40       0000002b
inet_ntoa_TEXT         CODE           AUTO           0000:ea70       00000036
sock_ini_TEXT          CODE           AUTO           0000:eab0       00000000
sock_exit_TEXT         CODE           AUTO           0000:eab0       0000002d
sock_init_TEXT         CODE           AUTO           0000:eae0       0000014d
tcp_post_init_TEXT     CODE           AUTO           0000:ec30       0000006c
tcp_init_TEXT          CODE           AUTO           0000:eca0       00000069
tcp_parse_config_TEXT  CODE           AUTO           0000:ed10       0000004f
tcp_shutdown_TEXT      CODE           AUTO           0000:ed60       0000003d
do_exit_TEXT           CODE           AUTO           0000:eda0       00000018
ioctl_TEXT             CODE           AUTO           0000:edc0       00000000
arp_ioctrl_TEXT        CODE           AUTO           0000:edc0       000001ab
waterm_ioctrl_TEXT     CODE           AUTO           0000:ef70       0000006d
iface_ioctrl_TEXT      CODE           AUTO           0000:efe0       00000549
get_ifname_TEXT        CODE           AUTO           0000:f530       00000149
file_ioctrl_TEXT       CODE           AUTO           0000:f680       000000d4
ioctlsocket_TEXT       CODE           AUTO           0000:f760       000000cd
neterr_TEXT            CODE           AUTO           0000:f830       00000000
strerror_s_TEXT        CODE           AUTO           0000:f830       0000000a
perror_s_TEXT          CODE           AUTO           0000:f840       0000000a
strerror_TEXT          CODE           AUTO           0000:f850       00000084
perror_TEXT            CODE           AUTO           0000:f8e0       00000033
pcconfig_TEXT          CODE           AUTO           0000:f920       00000000
is_multicast_TEXT      CODE           AUTO           0000:f920       00000012
is_ip_brdcast_TEXT     CODE           AUTO           0000:f940       0000003b
is_unique_addr_TEXT    CODE           AUTO           0000:f980       00000029
is_local_addr_TEXT     CODE           AUTO           0000:f9b0       00000037
netdb_init_TEXT        CODE           AUTO           0000:f9f0       00000023
tcp_config_TEXT        CODE           AUTO           0000:fa20       000003c8
tcp_set_debug_state_TEXT CODE         AUTO           0000:fdf0       00000005
do_profile_TEXT        CODE           AUTO           0000:fe00       00000001
do_include_file_TEXT   CODE           AUTO           0000:fe10       0000005c
do_print_TEXT          CODE           AUTO           0000:fe70       00000027
set_domain_TEXT        CODE           AUTO           0000:fea0       0000000f
set_ethip_TEXT         CODE           AUTO           0000:feb0       0000000e
set_eaddr_TEXT         CODE           AUTO           0000:fec0       0000000f
set_cookie_TEXT        CODE           AUTO           0000:fed0       0000001f
set_nameserv_TEXT      CODE           AUTO           0000:fef0       0000001f
set_gateway_TEXT       CODE           AUTO           0000:ff10       00000012
set_hostname_TEXT      CODE           AUTO           0000:ff30       0000001f
set_my_ip_TEXT         CODE           AUTO           0000:ff50       00000078
parse_config_table_TEXT CODE          AUTO           0ffd:0000       000002ca
atox_TEXT              CODE           AUTO           0ffd:02d0       00000056
ExpandVarStr_TEXT      CODE           AUTO           0ffd:0330       00000107
_add_server_TEXT       CODE           AUTO           0ffd:0440       00000063
EtherAddr_TEXT         CODE           AUTO           0ffd:04b0       000000bc
inet_atoeth_TEXT       CODE           AUTO           0ffd:0570       000000a2
dummy_TEXT             CODE           AUTO           0ffd:0620       00000001
ports_TEXT             CODE           AUTO           0ffd:0630       00000000
maybe_reuse_lport_TEXT CODE           AUTO           0ffd:0630       00000039
reuse_localport_TEXT   CODE           AUTO           0ffd:0670       0000003c
grab_localport_TEXT    CODE           AUTO           0ffd:06b0       0000003a
findfreeport_TEXT      CODE           AUTO           0ffd:06f0       0000010d
init_localport_TEXT    CODE           AUTO           0ffd:0800       00000026
pcbuf_TEXT             CODE           AUTO           0ffd:0830       00000000
sockstate_TEXT         CODE           AUTO           0ffd:0830       0000004a
sockerr_TEXT           CODE           AUTO           0ffd:0880       00000037
_chk_socket_TEXT       CODE           AUTO           0ffd:08c0       00000041
sock_preread_TEXT      CODE           AUTO           0ffd:0910       00000062
sock_setbuf_TEXT       CODE           AUTO           0ffd:0980       00000081
sock_tbused_TEXT       CODE           AUTO           0ffd:0a10       00000021
sock_tbleft_TEXT       CODE           AUTO           0ffd:0a40       0000003f
sock_tbsize_TEXT       CODE           AUTO           0ffd:0a80       00000031
sock_rbleft_TEXT       CODE           AUTO           0ffd:0ac0       0000003c
sock_rbused_TEXT       CODE           AUTO           0ffd:0b00       0000003c
sock_rbsize_TEXT       CODE           AUTO           0ffd:0b40       00000031
pctcp_TEXT             CODE           AUTO           0ffd:0b80       00000000
tcp_rtt_clr_TEXT       CODE           AUTO           0ffd:0b80       00000043
tcp_rtt_get_TEXT       CODE           AUTO           0ffd:0bd0       0000003e
tcp_rtt_add_TEXT       CODE           AUTO           0ffd:0c10       0000006d
sock_close_TEXT        CODE           AUTO           0ffd:0c80       00000039
sock_flushnext_TEXT    CODE           AUTO           0ffd:0cc0       00000016
sock_flush_TEXT        CODE           AUTO           0ffd:0ce0       00000039
sock_noflush_TEXT      CODE           AUTO           0ffd:0d20       00000016
sock_enqueue_TEXT      CODE           AUTO           0ffd:0d40       000000a9
sock_fastwrite_TEXT    CODE           AUTO           0ffd:0df0       00000052
sock_write_TEXT        CODE           AUTO           0ffd:0e50       000000c1
sock_fastread_TEXT     CODE           AUTO           0ffd:0f20       00000055
sock_read_TEXT         CODE           AUTO           0ffd:0f80       000000c1
raw_read_TEXT          CODE           AUTO           0ffd:1050       00000067
sock_abort_TEXT        CODE           AUTO           0ffd:10c0       0000003b
sock_yield_TEXT        CODE           AUTO           0ffd:1100       00000023
sock_mode_TEXT         CODE           AUTO           0ffd:1130       00000022
sock_keepalive_TEXT    CODE           AUTO           0ffd:1160       000000b4
_tcp_send_TEXT         CODE           AUTO           0ffd:1220       000003c6
tcp_do_options_TEXT    CODE           AUTO           0ffd:15f0       000000d0
tcp_opt_timestamp_TEXT CODE           AUTO           0ffd:16c0       00000067
tcp_opt_maxsegment_TEXT CODE          AUTO           0ffd:1730       00000024
tcp_upd_wind_TEXT      CODE           AUTO           0ffd:1760       0000002c
tcp_rtt_wind_TEXT      CODE           AUTO           0ffd:1790       000001b7
tcp_chksum_TEXT        CODE           AUTO           0ffd:1950       0000008d
tcp_sockreset_TEXT     CODE           AUTO           0ffd:19e0       0000009a
tcp_findseq_TEXT       CODE           AUTO           0ffd:1a80       0000009a
tcp_write_TEXT         CODE           AUTO           0ffd:1b20       0000010e
tcp_read_TEXT          CODE           AUTO           0ffd:1c30       00000102
_tcp_cancel_TEXT       CODE           AUTO           0ffd:1d40       000001ed
_udp_cancel_TEXT       CODE           AUTO           0ffd:1f30       000001c8
udp_read_TEXT          CODE           AUTO           0ffd:2100       00000094
udp_write_TEXT         CODE           AUTO           0ffd:21a0       00000163
tcp_tick_TEXT          CODE           AUTO           0ffd:2310       000000f0
_ip_handler_TEXT       CODE           AUTO           0ffd:2400       000000e3
tcp_Retransmitter_TEXT CODE           AUTO           0ffd:24f0       000001ec
udp_handler_TEXT       CODE           AUTO           0ffd:26e0       0000042c
tcp_handler_TEXT       CODE           AUTO           0ffd:2b10       000002ee
tcp_established_TEXT   CODE           AUTO           0ffd:2e00       00000011
_tcp_unthread_TEXT     CODE           AUTO           0ffd:2e20       000000c4
_tcp_sendsoon_TEXT     CODE           AUTO           0ffd:2ef0       0000011b
tcp_abort_TEXT         CODE           AUTO           0ffd:3010       00000094
_tcp_close_TEXT        CODE           AUTO           0ffd:30b0       0000011d
tcp_listen_TEXT        CODE           AUTO           0ffd:31d0       00000142
tcp_open_TEXT          CODE           AUTO           0ffd:3320       000001f5
udp_SetTTL_TEXT        CODE           AUTO           0ffd:3520       0000000a
udp_close_TEXT         CODE           AUTO           0ffd:3530       000000ad
udp_open_TEXT          CODE           AUTO           0ffd:35e0       00000189
udp_listen_TEXT        CODE           AUTO           0ffd:3770       000000c8
signal_TEXT            CODE           AUTO           0ffd:3840       00000000
_sock_sig_epipe_TEXT   CODE           AUTO           0ffd:3840       00000020
_sock_sig_restore_TEXT CODE           AUTO           0ffd:3860       000000e0
_sock_sig_setup_TEXT   CODE           AUTO           0ffd:3940       000000b5
sig_catch_TEXT         CODE           AUTO           0ffd:3a00       00000038
timer_TEXT             CODE           AUTO           0ffd:3a40       00000000
_w32_timeval_diff_TEXT CODE           AUTO           0ffd:3a40       00000067
_w32_get_timediff_TEXT CODE           AUTO           0ffd:3ab0       0000003e
_w32_set_timediff_TEXT CODE           AUTO           0ffd:3af0       00000025
_w32_chk_timeout_TEXT  CODE           AUTO           0ffd:3b20       000000be
_w32_set_timeout_TEXT  CODE           AUTO           0ffd:3be0       00000062
_w32_microsec_clock_TEXT CODE         AUTO           0ffd:3c50       0000005f
millisec_clock_TEXT    CODE           AUTO           0ffd:3cb0       00000067
clockbits_TEXT         CODE           AUTO           0ffd:3d20       0000005a
cmp_timers_TEXT        CODE           AUTO           0ffd:3d80       0000001d
_w32_hires_timer_TEXT  CODE           AUTO           0ffd:3da0       00000014
_w32_init_timers_TEXT  CODE           AUTO           0ffd:3dc0       00000010
pcrecv_TEXT            CODE           AUTO           0ffd:3dd0       00000000
sock_recv_TEXT         CODE           AUTO           0ffd:3dd0       00000124
sock_recv_from_TEXT    CODE           AUTO           0ffd:3f00       00000165
sock_recv_init_TEXT    CODE           AUTO           0ffd:4070       000000b1
sock_recv_used_TEXT    CODE           AUTO           0ffd:4130       00000098
_recvdaemon_TEXT       CODE           AUTO           0ffd:41d0       000001bd
bsddbug_TEXT           CODE           AUTO           0ffd:4390       00000000
_sock_leave_scope_TEXT CODE           AUTO           0ffd:4390       00000014
_sock_enter_scope_TEXT CODE           AUTO           0ffd:43b0       00000006
connect_TEXT           CODE           AUTO           0ffd:43c0       000002f2
set_keepalive_TEXT     CODE           AUTO           0ffd:46c0       0000002f
nblk_connect_TEXT      CODE           AUTO           0ffd:46f0       00000071
tcp_connect_TEXT       CODE           AUTO           0ffd:4770       0000015f
raw_connect_TEXT       CODE           AUTO           0ffd:48d0       0000000d
udp_connect_TEXT       CODE           AUTO           0ffd:48e0       00000075
pcpkt_TEXT             CODE           AUTO           0ffd:4960       00000000
pkt_api_entry_TEXT     CODE           AUTO           0ffd:4960       0000002f
setup_pkt_inf_TEXT     CODE           AUTO           0ffd:4990       0000007f
find_vector_TEXT       CODE           AUTO           0ffd:4a10       00000078
pkt_eth_init_TEXT      CODE           AUTO           0ffd:4a90       00000099
pkt_dropped_TEXT       CODE           AUTO           0ffd:4b30       00000015
pkt_dropped_arp_TEXT   CODE           AUTO           0ffd:4b50       00000029
pkt_dropped_ip_TEXT    CODE           AUTO           0ffd:4b80       00000029
pkt_waiting_TEXT       CODE           AUTO           0ffd:4bb0       0000003c
pkt_waiting_arp_TEXT   CODE           AUTO           0ffd:4bf0       00000026
pkt_waiting_ip_TEXT    CODE           AUTO           0ffd:4c20       00000026
pkt_free_pkt_TEXT      CODE           AUTO           0ffd:4c50       00000061
pkt_buf_wipe_TEXT      CODE           AUTO           0ffd:4cc0       00000039
pkt_set_addr_TEXT      CODE           AUTO           0ffd:4d00       00000066
pkt_get_addr_TEXT      CODE           AUTO           0ffd:4d70       00000064
pkt_send_TEXT          CODE           AUTO           0ffd:4de0       0000005f
_pkt_end_TEXT          CODE           AUTO           0ffd:4e40       00000001
pkt_enqueue_TEXT       CODE           AUTO           0ffd:4e50       000000c8
pkt_release_TEXT       CODE           AUTO           0ffd:4f20       00000018
release_handles_TEXT   CODE           AUTO           0ffd:4f40       000000c6
pkt_init_TEXT          CODE           AUTO           0ffd:5010       000000a0
pkt_get_drvr_ver_TEXT  CODE           AUTO           0ffd:50b0       00000021
pkt_get_mac_len_TEXT   CODE           AUTO           0ffd:50e0       00000013
pkt_get_mtu_TEXT       CODE           AUTO           0ffd:5100       00000011
pkt_get_params_TEXT    CODE           AUTO           0ffd:5120       00000054
pkt_drvr_info_TEXT     CODE           AUTO           0ffd:5180       000001b2
pkt_set_access_TEXT    CODE           AUTO           0ffd:5340       0000019b
get_access_types_TEXT  CODE           AUTO           0ffd:54e0       0000007f
pkt_errStr_TEXT        CODE           AUTO           0ffd:5560       000000cb
pcarp_TEXT             CODE           AUTO           0ffd:5630       00000000
_arp_resolve_TEXT      CODE           AUTO           0ffd:5630       000002c4
_arp_handler_TEXT      CODE           AUTO           0ffd:5900       000000fc
_arp_reply_TEXT        CODE           AUTO           0ffd:5a00       000000b3
_arp_add_cache_TEXT    CODE           AUTO           0ffd:5ac0       00000094
_arp_register_TEXT     CODE           AUTO           0ffd:5b60       00000086
_arp_search_TEXT       CODE           AUTO           0ffd:5bf0       0000008b
_arp_request_TEXT      CODE           AUTO           0ffd:5c80       000000bf
_arp_send_TEXT         CODE           AUTO           0ffd:5d40       0000000d
_arp_new_entry_TEXT    CODE           AUTO           0ffd:5d50       00000077
_arp_add_gateway_TEXT  CODE           AUTO           0ffd:5dd0       0000014b
_arp_compare_TEXT      CODE           AUTO           0ffd:5f20       00000039
pcsed_TEXT             CODE           AUTO           0ffd:5f60       00000000
_eth_arrived_TEXT      CODE           AUTO           0ffd:5f60       000000e7
poll_recv_queues_TEXT  CODE           AUTO           0ffd:6050       0000005a
poll_arp_queue_TEXT    CODE           AUTO           0ffd:60b0       000000c1
poll_ip_queue_TEXT     CODE           AUTO           0ffd:6180       00000113
fix_tok_head_TEXT      CODE           AUTO           0ffd:62a0       00000075
_eth_free_TEXT         CODE           AUTO           0ffd:6320       0000004c
_eth_get_hwtype_TEXT   CODE           AUTO           0ffd:6370       00000056
_eth_set_addr_TEXT     CODE           AUTO           0ffd:63d0       0000003b
_eth_release_TEXT      CODE           AUTO           0ffd:6410       0000001b
_eth_init_TEXT         CODE           AUTO           0ffd:6430       00000126
null_mac_xmit_TEXT     CODE           AUTO           0ffd:6560       0000000a
fddi_mac_xmit_TEXT     CODE           AUTO           0ffd:6570       00000040
tok_mac_xmit_TEXT      CODE           AUTO           0ffd:65b0       00000013
eth_mac_xmit_TEXT      CODE           AUTO           0ffd:65d0       00000040
null_mac_format_TEXT   CODE           AUTO           0ffd:6610       0000000e
fddi_mac_format_TEXT   CODE           AUTO           0ffd:6620       00000071
tok_mac_format_TEXT    CODE           AUTO           0ffd:66a0       00000074
eth_mac_format_TEXT    CODE           AUTO           0ffd:6720       0000005a
_eth_send_TEXT         CODE           AUTO           0ffd:6780       0000008a
_eth_formatpacket_TEXT CODE           AUTO           0ffd:6810       0000003f
gethost_TEXT           CODE           AUTO           0ffd:6850       00000000
resolve_ip_TEXT        CODE           AUTO           0ffd:6850       000000c9
reverse_lookup_myip_TEXT CODE         AUTO           0ffd:6920       00000060
reverse_lookup_TEXT    CODE           AUTO           0ffd:6980       0000016c
getresult_TEXT         CODE           AUTO           0ffd:6af0       000000ef
qinit_TEXT             CODE           AUTO           0ffd:6be0       0000014f
sethostid_TEXT         CODE           AUTO           0ffd:6d30       00000012
gethostid_TEXT         CODE           AUTO           0ffd:6d50       00000022
endhostent_TEXT        CODE           AUTO           0ffd:6d80       000000b0
free_aliases_TEXT      CODE           AUTO           0ffd:6e30       0000005a
sethostent_TEXT        CODE           AUTO           0ffd:6e90       00000060
gethostbyaddr_TEXT     CODE           AUTO           0ffd:6ef0       000001d6
gethostbyname_TEXT     CODE           AUTO           0ffd:70d0       000002ed
gethostent_TEXT        CODE           AUTO           0ffd:73c0       000001f2
ReopenHostFile_TEXT    CODE           AUTO           0ffd:75c0       00000015
CloseHostFile_TEXT     CODE           AUTO           0ffd:75e0       0000001f
GetHostsFile_TEXT      CODE           AUTO           0ffd:7600       0000000a
ReadHostFile_TEXT      CODE           AUTO           0ffd:7610       00000133
AddHostEnt_TEXT        CODE           AUTO           0ffd:7750       000000d5
FillHostEnt_TEXT       CODE           AUTO           0ffd:7830       00000080
chksum_TEXT            CODE           AUTO           0ffd:78b0       00000000
_w32_inchksum_TEXT     CODE           AUTO           0ffd:78b0       0000004c
ip_out_TEXT            CODE           AUTO           0ffd:7900       00000000
_chk_ip_header_TEXT    CODE           AUTO           0ffd:7900       00000044
_ip_output_TEXT        CODE           AUTO           0ffd:7950       000000b3
_get_this_ip_id_TEXT   CODE           AUTO           0ffd:7a10       0000000b
_get_ip_id_TEXT        CODE           AUTO           0ffd:7a20       0000001b
strings_TEXT           CODE           AUTO           0ffd:7a40       00000000
rip_TEXT               CODE           AUTO           0ffd:7a40       0000005d
outhexes_TEXT          CODE           AUTO           0ffd:7aa0       00000025
outhex_TEXT            CODE           AUTO           0ffd:7ad0       00000045
outsn_TEXT             CODE           AUTO           0ffd:7b20       00000038
outsnl_TEXT            CODE           AUTO           0ffd:7b60       0000001a
outs_TEXT              CODE           AUTO           0ffd:7b80       00000031
EmptyPrint_TEXT        CODE           AUTO           0ffd:7bc0       00000013
outch_TEXT             CODE           AUTO           0ffd:7be0       00000011
gettod_TEXT            CODE           AUTO           0ffd:7c00       00000000
gettimeofday2_TEXT     CODE           AUTO           0ffd:7c00       00000122
gettimeofday_TEXT      CODE           AUTO           0ffd:7d30       000000d5
get_zone_TEXT          CODE           AUTO           0ffd:7e10       00000042
wattcpd_TEXT           CODE           AUTO           0ffd:7e60       00000000
delwattcpd_TEXT        CODE           AUTO           0ffd:7e60       00000083
addwattcpd_TEXT        CODE           AUTO           0ffd:7ef0       0000009d
dowattcpd_TEXT         CODE           AUTO           0ffd:7f90       00000033
pcbsd_TEXT             CODE           AUTO           0ffd:7fd0       00000000
_sethostid_TEXT        CODE           AUTO           0ffd:7fd0       0000000a
_gethostid_TEXT        CODE           AUTO           0ffd:7fe0       0000000a
_inet_addr_TEXT        CODE           AUTO           0ffd:7ff0       00000058
_inet_ntoa_TEXT        CODE           AUTO           0ffd:8050       00000136
udp_dom_TEXT           CODE           AUTO           0ffd:8190       00000000
resolve_TEXT           CODE           AUTO           0ffd:8190       000002b2
nextdomain_TEXT        CODE           AUTO           0ffd:8450       00000040
lookup_domain_TEXT     CODE           AUTO           0ffd:8490       0000025f
parse_domain_TEXT      CODE           AUTO           0ffd:86f0       00000063
ddextract_TEXT         CODE           AUTO           0ffd:8760       000000d8
getpath_TEXT           CODE           AUTO           0ffd:8840       00000030
countpaths_TEXT        CODE           AUTO           0ffd:8870       0000001f
send_dom_TEXT          CODE           AUTO           0ffd:8890       000000b6
unpackdom_TEXT         CODE           AUTO           0ffd:8950       0000008b
packdom_TEXT           CODE           AUTO           0ffd:89e0       000000b3
bsdname_TEXT           CODE           AUTO           0ffd:8aa0       00000000
_get_machine_name_TEXT CODE           AUTO           0ffd:8aa0       000000da
sethostname_TEXT       CODE           AUTO           0ffd:8b80       000000ec
gethostname_TEXT       CODE           AUTO           0ffd:8c70       000000f7
setdomainname_TEXT     CODE           AUTO           0ffd:8d70       0000005f
getdomainname_TEXT     CODE           AUTO           0ffd:8dd0       0000005a
_getsockname_TEXT      CODE           AUTO           0ffd:8e30       000000ba
_getpeername_TEXT      CODE           AUTO           0ffd:8ef0       000000ba
misc_TEXT              CODE           AUTO           0ffd:8fb0       00000000
watt_largecheck_TEXT   CODE           AUTO           0ffd:8fb0       0000002d
ffs_TEXT               CODE           AUTO           0ffd:8fe0       0000000a
ffs_86_TEXT            CODE           AUTO           0ffd:8ff0       0000004c
_w32_RandomWait_TEXT   CODE           AUTO           0ffd:9040       00000025
_w32_Random_TEXT       CODE           AUTO           0ffd:9070       00000029
_w32_init_misc_TEXT    CODE           AUTO           0ffd:90a0       0000001a
_w32_intel16_TEXT      CODE           AUTO           0ffd:90c0       0000000d
_w32_intel_TEXT        CODE           AUTO           0ffd:90d0       0000001d
crit_TEXT              CODE           AUTO           0ffd:90f0       00000000
int24_init_TEXT        CODE           AUTO           0ffd:90f0       0000001a
int24_isr_TEXT         CODE           AUTO           0ffd:9110       00000004
syslog2_TEXT           CODE           AUTO           0ffd:9120       00000000
syslog_init_TEXT       CODE           AUTO           0ffd:9120       00000023
ourinit_TEXT           CODE           AUTO           0ffd:9150       00000050
set_syslog_mask_TEXT   CODE           AUTO           0ffd:91a0       0000000e
getlogmask_TEXT        CODE           AUTO           0ffd:91b0       0000012e
pc_cbrk_TEXT           CODE           AUTO           0ffd:92e0       00000000
tcp_cbreak_TEXT        CODE           AUTO           0ffd:92e0       00000061
set_cbreak_TEXT        CODE           AUTO           0ffd:9350       0000002d
sig_handler_TEXT       CODE           AUTO           0ffd:9380       00000072
pcicmp_TEXT            CODE           AUTO           0ffd:9400       00000000
icmp_redirect_TEXT     CODE           AUTO           0ffd:9400       000000ae
icmp_handler_TEXT      CODE           AUTO           0ffd:94b0       000007a7
icmp_mask_req_TEXT     CODE           AUTO           0ffd:9c60       00000079
icmp_timexceed_TEXT    CODE           AUTO           0ffd:9ce0       000000c5
icmp_unreach_TEXT      CODE           AUTO           0ffd:9db0       000000ea
icmp_send_TEXT         CODE           AUTO           0ffd:9ea0       00000065
icmp_chk_src_TEXT      CODE           AUTO           0ffd:9f10       00000076
icmp_bogus_TEXT        CODE           AUTO           0ffd:9f90       000000b1
icmp_print_TEXT        CODE           AUTO           0ffd:a050       0000006c
_chk_ping_TEXT         CODE           AUTO           0ffd:a0c0       0000003e
pcbootp_TEXT           CODE           AUTO           0ffd:a100       00000000
getnet_TEXT            CODE           AUTO           0ffd:a100       00000000
endnetent_TEXT         CODE           AUTO           0ffd:a100       000000f2
setnetent_TEXT         CODE           AUTO           0ffd:a200       00000060
getnetbyaddr_TEXT      CODE           AUTO           0ffd:a260       00000065
getnetbyname_TEXT      CODE           AUTO           0ffd:a2d0       000000d8
getnetent_TEXT         CODE           AUTO           0ffd:a3b0       0000019b
ReopenNetworksFile_TEXT CODE          AUTO           0ffd:a550       00000015
CloseNetworksFile_TEXT CODE           AUTO           0ffd:a570       0000001f
GetNetFile_TEXT        CODE           AUTO           0ffd:a590       0000000a
ReadNetworksFile_TEXT  CODE           AUTO           0ffd:a5a0       000000fc
udp_nds_TEXT           CODE           AUTO           0ffd:a6a0       00000000
psocket_TEXT           CODE           AUTO           0ffd:a6a0       00000062
isaddr_dotless_TEXT    CODE           AUTO           0ffd:a710       000000ba
aton_dotless_TEXT      CODE           AUTO           0ffd:a7d0       00000027
isaddr_TEXT            CODE           AUTO           0ffd:a800       00000034
aton_TEXT              CODE           AUTO           0ffd:a840       00000082
pcdbug_TEXT            CODE           AUTO           0ffd:a8d0       00000000
dbug_exit_TEXT         CODE           AUTO           0ffd:a8d0       00000001
dbug_init_TEXT         CODE           AUTO           0ffd:a8e0       00000011
tcp_fsm_TEXT           CODE           AUTO           0ffd:a900       00000000
_tcp_reset_TEXT        CODE           AUTO           0ffd:a900       00000277
tcp_ProcessAck_TEXT    CODE           AUTO           0ffd:ab80       000000a8
tcp_ProcessData_TEXT   CODE           AUTO           0ffd:ac30       000004d8
tcp_timewt_state_TEXT  CODE           AUTO           0ffd:b110       0000003e
tcp_lastack_state_TEXT CODE           AUTO           0ffd:b150       000000a9
tcp_closing_state_TEXT CODE           AUTO           0ffd:b200       0000008d
tcp_finwt2_state_TEXT  CODE           AUTO           0ffd:b290       00000106
tcp_finwt1_state_TEXT  CODE           AUTO           0ffd:b3a0       00000273
tcp_closewt_state_TEXT CODE           AUTO           0ffd:b620       0000001c
tcp_estcl_state_TEXT   CODE           AUTO           0ffd:b640       00000032
tcp_estab_state_TEXT   CODE           AUTO           0ffd:b680       00000235
tcp_synrec_state_TEXT  CODE           AUTO           0ffd:b8c0       000000d5
tcp_synsent_state_TEXT CODE           AUTO           0ffd:b9a0       0000019a
tcp_listen_state_TEXT  CODE           AUTO           0ffd:bb40       0000018c
_tcp_fsm_TEXT          CODE           AUTO           0ffd:bcd0       00000068
nettime_TEXT           CODE           AUTO           0ffd:bd40       00000000
net_times_TEXT         CODE           AUTO           0ffd:bd40       000000ad
usr_time_TEXT          CODE           AUTO           0ffd:bdf0       0000002e
sys_time_TEXT          CODE           AUTO           0ffd:be20       00000015
_sock_stop_timer_TEXT  CODE           AUTO           0ffd:be40       0000004e
_sock_start_timer_TEXT CODE           AUTO           0ffd:be90       00000019
sock_in_TEXT           CODE           AUTO           0ffd:beb0       00000000
sock_established_TEXT  CODE           AUTO           0ffd:beb0       00000034
sock_timeout_TEXT      CODE           AUTO           0ffd:bef0       0000003e
_ip_delay2_TEXT        CODE           AUTO           0ffd:bf30       000000c7
_ip_delay1_TEXT        CODE           AUTO           0ffd:c000       000000dc
_ip_delay0_TEXT        CODE           AUTO           0ffd:c0e0       000000dc
ip_timer_expired_TEXT  CODE           AUTO           0ffd:c1c0       00000016
ip_timer_init_TEXT     CODE           AUTO           0ffd:c1e0       0000002d
asmpkt_TEXT            CODE           AUTO           0ffd:c20e       000006c4
pcqueue_TEXT           CODE           AUTO           0ffd:c8e0       00000000
pktq_queued_TEXT       CODE           AUTO           0ffd:c8e0       0000001f
pktq_clear_TEXT        CODE           AUTO           0ffd:c900       00000013
pktq_out_buf_TEXT      CODE           AUTO           0ffd:c920       00000018
pktq_in_buf_TEXT       CODE           AUTO           0ffd:c940       00000017
pktq_in_index_TEXT     CODE           AUTO           0ffd:c960       00000011
pktq_inc_out_TEXT      CODE           AUTO           0ffd:c980       0000001b
pktq_init_TEXT         CODE           AUTO           0ffd:c9a0       0000002b
sock_io_TEXT           CODE           AUTO           0ffd:c9d0       00000000
sock_dataready_TEXT    CODE           AUTO           0ffd:c9d0       000000d5
sock_getc_TEXT         CODE           AUTO           0ffd:cab0       0000002d
sock_gets_TEXT         CODE           AUTO           0ffd:cae0       00000297
sock_puts_TEXT         CODE           AUTO           0ffd:cd80       0000009f
sock_putc_TEXT         CODE           AUTO           0ffd:ce20       0000003e
FAR_DATA               FAR_DATA       AUTO           1ce2:000e       00000000
_NULL                  BEGDATA        DGROUP         1ce3:0000       00000020
_AFTERNULL             BEGDATA        DGROUP         1ce5:0000       00000002
CONST                  DATA           DGROUP         1ce5:0002       000013ec
CONST2                 DATA           DGROUP         1e23:000e       000002a4
_DATA                  DATA           DGROUP         1e4f:0000       00001876
XIB                    DATA           DGROUP         1fd6:0006       00000000
XI                     DATA           DGROUP         1fd6:0006       00000024
XIE                    DATA           DGROUP         1fd8:000a       00000000
YIB                    DATA           DGROUP         1fd8:000a       00000000
YI                     DATA           DGROUP         1fd8:000a       0000001e
YIE                    DATA           DGROUP         1fda:0008       00000000
STRINGS                DATA           DGROUP         1fda:0008       00000000
DATA                   DATA           DGROUP         1fda:0008       00000000
_BSS                   BSS            DGROUP         1fdb:0000       00001a66
STACK                  STACK          DGROUP         2182:0000       00001000


                        +----------------+
                        |   Memory Map   |
                        +----------------+

* = unreferenced symbol
+ = symbol only referenced locally

Address        Symbol
=======        ======

Module: mxutil.obj(/mnt/sda5/.user/root/src/openwatcom-1.9/bld/trap/common/mxutil.c)
0000:0000      GetInPtr_
0000:002a      GetOutPtr_
0000:0054*     GetTotalSize_
1ce3:2f80      _In_Mx_Ptr
1ce3:2f84      _Out_Mx_Ptr
1ce3:2f88      _Out_Mx_Num
1ce3:2f89      _In_Mx_Num
Module: serv.obj(/mnt/sda5/.user/root/src/openwatcom-1.9/bld/trap/common/serv.c)
0000:0090      ServError_
0000:0090      ServMessage_
0000:00a0+     Initialize_
0000:0120+     OpeningStatement_
0000:0160      main_
Module: dostrio.obj(/mnt/sda5/.user/root/src/openwatcom-1.9/bld/trap/common/dos/dostrio.c)
0000:0230      Output_
0000:0258      SayGNiteGracey_
0000:025e      StartupErr_
0000:02ae      KeyPress_
0000:02be      KeyGet_
0000:02c4      PathOpen_
0000:03d6      GetSystemHandle_
0000:03da      FileClose_
0000:03ea      WantUsage_
Module: servacc.obj(/mnt/sda5/.user/root/src/openwatcom-1.9/bld/trap/common/servacc.c)
1ce3:2f8c      _RWBuff
0000:052a      Session_
0000:061e      TrapClientString_
1ce3:3398      _TrapVersion
Module: servcmd.obj(/mnt/sda5/.user/root/src/openwatcom-1.9/bld/trap/common/servcmd.c)
0000:0720      ParseCommandLine_
Module: servname.obj(/mnt/sda5/.user/root/src/openwatcom-1.9/bld/trap/tcp/c/servname.c)
1ce3:16c0      _ServUsage
1ce3:1700      _ServName
Module: trpsupp.obj(/mnt/sda5/.user/root/src/openwatcom-1.9/bld/dig/c/trpsupp.c)
0000:08b0*     TrapSetFailCallBack_
0000:08ba*     TrapSetAccessCallBack_
0000:08c4*     TrapFailAllRequests_
0000:08d0*     TrapSimpAccess_
0000:0926      TrapAccess_
0000:098c+     ReqFuncProxy_
1ce3:33a0      _ReqFunc
1ce3:33a4      _TrapVer
Module: trpld.obj(/mnt/sda5/.user/root/src/openwatcom-1.9/bld/dig/c/dos/trpld.c)
0000:09c0      KillTrap_
0000:09f4      LoadTrap_
Module: dosnoth.obj(/mnt/sda5/.user/root/src/openwatcom-1.9/bld/trap/common/dos/dosnoth.c)
0000:0cc0      NothingToDo_
Module: packet.obj(/mnt/sda5/.user/root/src/openwatcom-1.9/bld/trap/common/packet.c)
0000:0cf0*     StartPacket_
0000:0cf8*     PutPacket_
0000:0d14      PutBuffPacket_
0000:0d2c*     AddPacket_
0000:0d76      GetPacket_
0000:0d8e*     RemovePacket_
0000:0dcc      GetPacketBuffPtr_
0000:0dd8      MaxPacketSize_
Module: tcplink.obj(/mnt/sda5/.user/root/src/openwatcom-1.9/bld/trap/tcp/c/tcplink.c)
0000:0de0*     Terminate_
0000:0e78      RemoteGet_
0000:0ec0      RemotePut_
0000:0f74      RemoteConnect_
0000:101c      RemoteDisco_
0000:102c      RemoteLink_
0000:11ea      RemoteUnLink_
Module: /mnt/sda5/.user/root/src/openwatcom-1.9/rel2/lib286/dos/clibl.lib(cmodel)
0000:1450      _big_code_
0000:1450*     CodeModelMismatch
Module: /mnt/sda5/.user/root/src/openwatcom-1.9/rel2/lib286/dos/clibl.lib(gtcmddos.c)
0000:1450+     _bgetcmd_
0000:14cf      getcmd_
Module: /mnt/sda5/.user/root/src/openwatcom-1.9/rel2/lib286/dos/clibl.lib(cstart)
1ce3:0000*     __nullarea
1ce3:172c*     __ovlflag
1ce3:172d*     __intno
1ce3:172e*     __ovlvec
0000:14e6      _cstart_
0000:15b9*     _Not_Enough_Memory_
0000:16ed      __exit_
0000:170c      __do_exit_with_msg__
0000:176a      __GETDS
Module: /mnt/sda5/.user/root/src/openwatcom-1.9/rel2/lib286/dos/clibl.lib(argcv.c)
1ce3:37c8      __argv
1ce3:37cc      ___argv
1ce3:37d0      __argc
1ce3:37d2      ___argc
Module: /mnt/sda5/.user/root/src/openwatcom-1.9/rel2/lib286/dos/clibl.lib(searchen.c)
0000:1774      _searchenv_
Module: /mnt/sda5/.user/root/src/openwatcom-1.9/rel2/lib286/dos/clibl.lib(isalpha.c)
0000:18f3      isalpha_
Module: /mnt/sda5/.user/root/src/openwatcom-1.9/rel2/lib286/dos/clibl.lib(strnicmp.c)
0000:1909      strnicmp_
Module: /mnt/sda5/.user/root/src/openwatcom-1.9/rel2/lib286/dos/clibl.lib(sprintf.c)
0000:1958      sprintf_
Module: /mnt/sda5/.user/root/src/openwatcom-1.9/rel2/lib286/dos/clibl.lib(intx086.c)
0000:1987      int86x_
0000:1a20      int86_
Module: /mnt/sda5/.user/root/src/openwatcom-1.9/contrib/wattcp/lib/wattcpwl.lib(/mnt/sda5/.user/root/src/openwatcom-1.9/contrib/wattcp/src/sockopt.c)
0000:9df0      setsockopt_
0000:9d40*     getsockopt_
Module: /mnt/sda5/.user/root/src/openwatcom-1.9/contrib/wattcp/lib/wattcpwl.lib(/mnt/sda5/.user/root/src/openwatcom-1.9/contrib/wattcp/src/close.c)
0000:a0c0      close_s_
0000:a0b0*     closesocket_
Module: /mnt/sda5/.user/root/src/openwatcom-1.9/contrib/wattcp/lib/wattcpwl.lib(/mnt/sda5/.user/root/src/openwatcom-1.9/contrib/wattcp/src/receive.c)
0000:ab30*     recvfrom_
0000:ab00      recv_
0000:aae0*     read_s_
Module: /mnt/sda5/.user/root/src/openwatcom-1.9/contrib/wattcp/lib/wattcpwl.lib(/mnt/sda5/.user/root/src/openwatcom-1.9/contrib/wattcp/src/transmit.c)
0000:b660*     sendto_
0000:b630      send_
0000:b610*     write_s_
0000:b510*     writev_s_
Module: /mnt/sda5/.user/root/src/openwatcom-1.9/contrib/wattcp/lib/wattcpwl.lib(/mnt/sda5/.user/root/src/openwatcom-1.9/contrib/wattcp/src/getprot.c)
0000:ba60      ReadProtoFile_
0000:ba50*     GetProtoFile_
0000:ba30*     CloseProtoFile_
0000:ba10*     ReopenProtoFile_
0000:b940+     getprotoent_
0000:b800      getprotobyname_
0000:b7a0*     getprotobynumber_
0000:b740+     setprotoent_
0000:b690+     endprotoent_
Module: /mnt/sda5/.user/root/src/openwatcom-1.9/contrib/wattcp/lib/wattcpwl.lib(/mnt/sda5/.user/root/src/openwatcom-1.9/contrib/wattcp/src/select.c)
0000:bd70      select_s_
0000:bbe0+     _sock_read_select_
0000:bb80+     _sock_write_select_
0000:bb70+     _sock_exc_select_
Module: /mnt/sda5/.user/root/src/openwatcom-1.9/contrib/wattcp/lib/wattcpwl.lib(/mnt/sda5/.user/root/src/openwatcom-1.9/contrib/wattcp/src/accept.c)
0000:c340      accept_
0000:c680      _sock_append_
Module: /mnt/sda5/.user/root/src/openwatcom-1.9/contrib/wattcp/lib/wattcpwl.lib(/mnt/sda5/.user/root/src/openwatcom-1.9/contrib/wattcp/src/socket.c)
0000:db90      _sock_calloc_
0000:dad0      _sock_dos_fd_
0000:d6b0      _sock_del_fd_
0000:d1d0      _sock_start_crit_
0000:d1b0      _sock_stop_crit_
0000:d0f0      _socklist_find_
0000:cab0      socket_
0000:cd80      _UDP_open_
0000:cca0      _UDP_listen_
0000:cc40      _TCP_open_
0000:cbf0      _TCP_listen_
Module: /mnt/sda5/.user/root/src/openwatcom-1.9/contrib/wattcp/lib/wattcpwl.lib(/mnt/sda5/.user/root/src/openwatcom-1.9/contrib/wattcp/src/getserv.c)
0000:e100      ReadServFile_
0000:e0f0*     GetServFile_
0000:e0d0*     CloseServFile_
0000:e0b0*     ReopenServFile_
0000:dea0+     getservent_
0000:dd90      getservbyname_
0000:dd00*     getservbyport_
0000:dca0+     setservent_
0000:dba0+     endservent_
Module: /mnt/sda5/.user/root/src/openwatcom-1.9/rel2/lib286/dos/clibl.lib(istable.c)
1ce3:140e      __IsTable
Module: /mnt/sda5/.user/root/src/openwatcom-1.9/contrib/wattcp/lib/wattcpwl.lib(/mnt/sda5/.user/root/src/openwatcom-1.9/contrib/wattcp/src/bind.c)
0000:e210      bind_
Module: /mnt/sda5/.user/root/src/openwatcom-1.9/contrib/wattcp/lib/wattcpwl.lib(/mnt/sda5/.user/root/src/openwatcom-1.9/contrib/wattcp/src/getname.c)
0000:e580      getsockname_
0000:e480*     getpeername_
Module: /mnt/sda5/.user/root/src/openwatcom-1.9/contrib/wattcp/lib/wattcpwl.lib(/mnt/sda5/.user/root/src/openwatcom-1.9/contrib/wattcp/src/listen.c)
0000:e680      listen_
Module: /mnt/sda5/.user/root/src/openwatcom-1.9/contrib/wattcp/lib/wattcpwl.lib(/mnt/sda5/.user/root/src/openwatcom-1.9/contrib/wattcp/src/netaddr.c)
0000:ea70      inet_ntoa_
0000:ea40      inet_aton_
0000:ea20      inet_addr_
0000:e870      inet_network_
0000:e820*     inet_netof_
0000:e800*     inet_lnaof_
0000:e7a0*     inet_makeaddr_
Module: /mnt/sda5/.user/root/src/openwatcom-1.9/contrib/wattcp/lib/wattcpwl.lib(/mnt/sda5/.user/root/src/openwatcom-1.9/contrib/wattcp/src/sock_ini.c)
1ce3:17a0      __bootpon
1ce3:17a2      __dhcpon
1ce3:17a4      __rarpon
1ce3:17a6      __domask_req
1ce3:17a8      __watt_do_exit
1ce3:17aa+     __watt_no_config
1ce3:17ac*     __w32_survivebootp
1ce3:17ae*     __w32_survivedhcp
1ce3:17b0*     __w32_surviverarp
1ce3:17b2      __watt_is_init
1ce3:17b4+     __watt_fatal_error
1ce3:17b8      __watt_start_time
1ce3:17bc+     __watt_start_day
1ce3:17c0+     __tcp_is_init
0000:eae0      sock_init_
1ce3:3a60+     __watt_post_hook
0000:eab0      sock_exit_
Module: /mnt/sda5/.user/root/src/openwatcom-1.9/rel2/lib286/dos/clibl.lib(fmalloc.c)
0000:1a4d      _fmalloc_
0000:1a4d      malloc_
1ce3:184e+     ___fheap
1ce3:1850      ___fheapRover
1ce3:1852      ___LargestSizeB4Rover
Module: /mnt/sda5/.user/root/src/openwatcom-1.9/contrib/wattcp/lib/wattcpwl.lib(/mnt/sda5/.user/root/src/openwatcom-1.9/contrib/wattcp/src/ioctl.c)
0000:f760      ioctlsocket_
Module: /mnt/sda5/.user/root/src/openwatcom-1.9/rel2/lib286/dos/clibl.lib(strncmp.c)
0000:1b5a      strncmp_
Module: /mnt/sda5/.user/root/src/openwatcom-1.9/rel2/lib286/dos/clibl.lib(calloc.c)
0000:1b99      calloc_
Module: /mnt/sda5/.user/root/src/openwatcom-1.9/rel2/lib286/dos/clibl.lib(ffree.c)
0000:1bd8      _ffree_
0000:1bd8      free_
Module: /mnt/sda5/.user/root/src/openwatcom-1.9/rel2/lib286/dos/clibl.lib(crwdata)
1ce3:18a4      __curbrk
1ce3:18ac      __STACKLOW
1ce3:18ae      __STACKTOP
1ce3:18b0      __cbyte
1ce3:18b2      __child
1ce3:18b4      __no87
1ce3:18c2      ___FPE_handler
1ce3:18a6      __psp
1ce3:18b6      __get_ovl_stack
1ce3:18ba      __restore_ovl_stack
1ce3:18be      __close_ovl_file
1ce3:18c6      __LpCmdLine
1ce3:18ca      __LpPgmName
1ce3:18a8      __osmajor
1ce3:18a9      __osminor
1ce3:18aa      __osmode
1ce3:18ab      __HShift
Module: /mnt/sda5/.user/root/src/openwatcom-1.9/rel2/lib286/dos/clibl.lib(xmsg.c)
0000:1c1e*     __exit_with_msg_
0000:1c23      __fatal_runtime_error_
Module: /mnt/sda5/.user/root/src/openwatcom-1.9/rel2/lib286/dos/clibl.lib(cmain086.c)
0000:1c41      __CMain
Module: /mnt/sda5/.user/root/src/openwatcom-1.9/rel2/lib286/dos/clibl.lib(initrtns.c)
0000:1ca7      __InitRtns
0000:1ca7*     __FInitRtns
0000:1d02      __FiniRtns
0000:1d02*     __FFiniRtns
Module: /mnt/sda5/.user/root/src/openwatcom-1.9/rel2/lib286/dos/clibl.lib(uselfn.c)
1ce3:18ce      ___uselfn
Module: /mnt/sda5/.user/root/src/openwatcom-1.9/rel2/lib286/dos/clibl.lib(dosseg)
0000:1d66      __DOSseg__
Module: /mnt/sda5/.user/root/src/openwatcom-1.9/rel2/lib286/dos/clibl.lib(initargv.c)
0000:1d67      __Init_Argv_
0000:1dca+     _getargv_
0000:1fc9      __Fini_Argv_
Module: /mnt/sda5/.user/root/src/openwatcom-1.9/rel2/lib286/dos/clibl.lib(errno.c)
0000:1ff3      __get_errno_ptr_
0000:1ffa      __get_doserrno_ptr_
1ce3:3a68+     _errno
1ce3:3a6a+     __doserrno
Module: /mnt/sda5/.user/root/src/openwatcom-1.9/rel2/lib286/dos/clibl.lib(accss.c)
0000:2001      access_
Module: /mnt/sda5/.user/root/src/openwatcom-1.9/rel2/lib286/dos/clibl.lib(gtcwd.c)
0000:203b      getcwd_
Module: /mnt/sda5/.user/root/src/openwatcom-1.9/rel2/lib286/dos/clibl.lib(strlen.c)
0000:20e6      strlen_
Module: /mnt/sda5/.user/root/src/openwatcom-1.9/rel2/lib286/dos/clibl.lib(strncat.c)
0000:20fb      strncat_
Module: /mnt/sda5/.user/root/src/openwatcom-1.9/rel2/lib286/dos/clibl.lib(getenv.c)
0000:213a      getenv_
Module: /mnt/sda5/.user/root/src/openwatcom-1.9/rel2/lib286/dos/clibl.lib(strcat.c)
0000:21ff      strcat_
Module: /mnt/sda5/.user/root/src/openwatcom-1.9/rel2/lib286/dos/clibl.lib(seterrno.c)
0000:222a      __set_errno_
0000:223e*     __set_EDOM_
0000:2250*     __set_ERANGE_
0000:2262*     __set_EINVAL_
0000:2277      __set_doserrno_
Module: /mnt/sda5/.user/root/src/openwatcom-1.9/rel2/lib286/dos/clibl.lib(vsprintf.c)
0000:229c      vsprintf_
Module: /mnt/sda5/.user/root/src/openwatcom-1.9/rel2/lib286/dos/clibl.lib(intr.c)
0000:22c7      intr_
Module: /mnt/sda5/.user/root/src/openwatcom-1.9/rel2/lib286/dos/clibl.lib(segread.c)
0000:22db      segread_
Module: /mnt/sda5/.user/root/src/openwatcom-1.9/contrib/wattcp/lib/wattcpwl.lib(/mnt/sda5/.user/root/src/openwatcom-1.9/contrib/wattcp/src/neterr.c)
1ce3:18d0+     ___syserr00
1ce3:18d9+     ___syserr41
1ce3:18fd+     ___syserr13
1ce3:1917+     ___syserr14
1ce3:1931+     ___syserr02
1ce3:194a+     ___syserr06
1ce3:1965+     ___syserr18
1ce3:198e+     ___syserr04
1ce3:19a6+     ___syserr19
1ce3:19c6+     ___syserr17
1ce3:19e4+     ___syserr15
1ce3:1a0c+     ___syserr07
1ce3:1a21+     ___syserr34
1ce3:1a36+     ___syserr20
1ce3:1a4d+     ___syserr16
1ce3:1a6d+     ___syserr09
1ce3:1a87+     ___syserr21
1ce3:1a97+     ___syserr22
1ce3:1aaf+     ___syserr11
1ce3:1acc+     ___syserr24
1ce3:1ae4+     ___syserr35
1ce3:1b05+     ___syserr10
1ce3:1b22+     ___syserr36
1ce3:1b3a+     ___syserr01
1ce3:1b5d+     ___syserr03
1ce3:1b79+     ___syserr37
1ce3:1b9f+     ___syserr05
1ce3:1bba+     ___syserr12
1ce3:1bdb+     ___syserr38
1ce3:1bf8+     ___syserr23
1ce3:1c12+     ___syserr39
1ce3:1c32+     ___syserr26
1ce3:1c52+     ___syserr27
1ce3:1c74+     ___syserr28
1ce3:1c86+     ___syserr29
1ce3:1c9a+     ___syserr30
1ce3:1cb8+     ___syserr31
1ce3:1cce+     ___syserr32
1ce3:1ce6+     ___syserr08
1ce3:1d00+     ___syserr42
1ce3:1d18+     ___syserr43
1ce3:1d40+     ___syserr44
1ce3:1d69+     ___syserr45
1ce3:1d93+     ___syserr46
1ce3:1dbf+     ___syserr47
1ce3:1ddb+     ___syserr48
1ce3:1e07+     ___syserr49
1ce3:1e33+     ___syserr50
1ce3:1e5c+     ___syserr51
1ce3:1e88+     ___syserr52
1ce3:1eb7+     ___syserr53
1ce3:1ee4+     ___syserr54
1ce3:1f1c+     ___syserr55
1ce3:1f40+     ___syserr56
1ce3:1f6f+     ___syserr57
1ce3:1f8a+     ___syserr58
1ce3:1faf+     ___syserr59
1ce3:1fdf+     ___syserr60
1ce3:200f+     ___syserr61
1ce3:2035+     ___syserr62
1ce3:2059+     ___syserr63
1ce3:207f+     ___syserr64
1ce3:20a2+     ___syserr65
1ce3:20cf+     ___syserr66
1ce3:20f0+     ___syserr67
1ce3:2112+     ___syserr68
1ce3:212b+     ___syserr69
1ce3:214b+     ___syserr70
1ce3:216a+     ___syserr71
1ce3:2196+     ___syserr72
1ce3:21b2+     ___syserr73
1ce3:21d3+     ___syserr74
1ce3:21f6+     ___syserr75
1ce3:2220+     ___syserr76
1ce3:2249+     ___syserr40
1ce3:226d+     ___syserr77
1ce3:228f+     ___syserr78
1ce3:22a8+     ___syserr79
1ce3:22c7+     ___syserr80
1ce3:22ee+     ___syserr81
1ce3:230c+     ___syserr82
1ce3:2325+     ___syserr83
1ce3:2343+     ___syserr84
1ce3:235a+     ___syserr85
1ce3:2388+     ___syserr86
1ce3:23a2+     ___syserr33
1ce3:23bb+     ___syserr25
1ce3:23db+     ___syserr87
1ce3:23e8+     ___syserr88
1ce3:240b+     ___syserr89
1ce3:2435+     ___syserr90
0000:f8e0+     perror_
0000:f850+     strerror_
0000:f840*     perror_s_
1ce3:2453+     ___syserr91
1ce3:246b+     ___syserr92
1ce3:2488+     ___syserr93
1ce3:24a8+     ___syserr94
1ce3:24e0+     __sys_errlist
1ce3:265c      ___pull_neterr_module
1ce3:265e      _errno_s
1ce3:2660+     __sys_nerr
0000:f830*     strerror_s_
Module: /mnt/sda5/.user/root/src/openwatcom-1.9/contrib/wattcp/lib/wattcpwl.lib(/mnt/sda5/.user/root/src/openwatcom-1.9/contrib/wattcp/src/pcconfig.c)
1ce3:2670      __w32_debug_on
1ce3:2672      __w32_sock_delay
1ce3:2674      __w32_sock_inactive
1ce3:2676      __w32_sock_data_timeout
1ce3:2678      __w32_multihomes
1ce3:267a*     __w32_ctrace_on
1ce3:267c      __w32_dynamic_host
1ce3:2680+     __w32_print_hook
1ce3:2684      __w32_usr_init
1ce3:2688+     __watt_config_name
0ffd:0570+     inet_atoeth_
0ffd:0440+     _add_server_
0ffd:0330+     ExpandVarStr_
0ffd:02d0      atox_
0ffd:0020      parse_config_table_
0000:fdf0*     tcp_set_debug_state_
0000:fa20      tcp_config_
0000:f9f0      netdb_init_
0000:f9b0      is_local_addr_
0000:f980*     is_unique_addr_
0000:f940      is_ip_brdcast_
1ce3:268c+     __watt_environ_name
1ce3:2690+     __watt_environ_name1
1ce3:3ac0+     __w32_cookies
1ce3:3ae8      __w32_last_cookie
0000:f920      is_multicast_
Module: /mnt/sda5/.user/root/src/openwatcom-1.9/rel2/lib286/dos/clibl.lib(i4d)
0000:22fc      __I4D
0000:234b      __U4D
Module: /mnt/sda5/.user/root/src/openwatcom-1.9/contrib/wattcp/lib/wattcpwl.lib(/mnt/sda5/.user/root/src/openwatcom-1.9/contrib/wattcp/src/ports.c)
0ffd:0800      init_localport_
0ffd:06f0      findfreeport_
0ffd:06b0      grab_localport_
0ffd:0670      reuse_localport_
0ffd:0630      maybe_reuse_lport_
Module: /mnt/sda5/.user/root/src/openwatcom-1.9/contrib/wattcp/lib/wattcpwl.lib(/mnt/sda5/.user/root/src/openwatcom-1.9/contrib/wattcp/src/pcbuf.c)
0ffd:0b40      sock_rbsize_
0ffd:0b00      sock_rbused_
0ffd:0ac0*     sock_rbleft_
0ffd:0a80      sock_tbsize_
0ffd:0a40      sock_tbleft_
0ffd:0a10*     sock_tbused_
0ffd:0980      sock_setbuf_
0ffd:0910      sock_preread_
0ffd:08c0      _chk_socket_
0ffd:0880*     sockerr_
0ffd:0830*     sockstate_
Module: /mnt/sda5/.user/root/src/openwatcom-1.9/contrib/wattcp/lib/wattcpwl.lib(/mnt/sda5/.user/root/src/openwatcom-1.9/contrib/wattcp/src/pctcp.c)
1ce3:26a0      __raw_ip_hook
1ce3:26a4      __tcp_syn_hook
1ce3:26a8      __tcp_find_hook
1ce3:26ac      __w32_hostname
1ce3:26fe      __w32_mss
1ce3:2700      __w32_mtu
1ce3:2702      __w32_mtu_discover
1ce3:2704+     __w32_block_tcp
1ce3:2706*     __w32_block_udp
1ce3:2708      __w32_block_icmp
1ce3:270a+     __w32_block_ip
1ce3:270c      __w32_my_ip_addr
1ce3:2710      __w32_sin_mask
1ce3:2714*     __dbugxmit
1ce3:2718*     __dbugrecv
1ce3:271c      __udp_allsocs
1ce3:2720      _tcp_OPEN_TO
1ce3:2722      _tcp_CLOSE_TO
1ce3:2724      _tcp_RTO_ADD
1ce3:2726      _tcp_RTO_BASE
1ce3:2728      _tcp_RST_TIME
1ce3:272a      _tcp_RETRAN_TIME
1ce3:272c      __w32_tcp_opt_timstmp
1ce3:272e      __w32_tcp_opt_wscale
1ce3:2730      __w32_tcp_opt_sackok
1ce3:2732      __w32_tcp_nagle
1ce3:2734      __w32_tcp_keepalive
1ce3:2738      __tcp_allsocs
0ffd:3770      udp_listen_
0ffd:35e0      udp_open_
0ffd:3520*     udp_SetTTL_
0ffd:3320      tcp_open_
0ffd:31d0      tcp_listen_
0ffd:30b0      _tcp_close_
0ffd:3010      tcp_abort_
0ffd:2ef0      _tcp_sendsoon_
0ffd:2e20      _tcp_unthread_
0ffd:2e00      tcp_established_
0ffd:24f0      tcp_Retransmitter_
0ffd:2400+     _ip_handler_
0ffd:2310      tcp_tick_
0ffd:1f30      _udp_cancel_
0ffd:1d60      _tcp_cancel_
0ffd:1220      _tcp_send_
0ffd:1160      sock_keepalive_
0ffd:1130      sock_mode_
0ffd:1100*     sock_yield_
0ffd:10c0      sock_abort_
0ffd:0f80      sock_read_
0ffd:0f20      sock_fastread_
0ffd:0e50      sock_write_
0ffd:0df0*     sock_fastwrite_
0ffd:0d40*     sock_enqueue_
0ffd:0d20      sock_noflush_
0ffd:0ce0      sock_flush_
0ffd:0cc0      sock_flushnext_
0ffd:0c80      sock_close_
Module: /mnt/sda5/.user/root/src/openwatcom-1.9/rel2/lib286/dos/clibl.lib(frealloc.c)
0000:23cf*     _frealloc_
0000:23cf      realloc_
Module: /mnt/sda5/.user/root/src/openwatcom-1.9/rel2/lib286/dos/clibl.lib(memmove.c)
0000:24ab      memmove_
Module: /mnt/sda5/.user/root/src/openwatcom-1.9/rel2/lib286/dos/clibl.lib(time.c)
0000:2521      time_
Module: /mnt/sda5/.user/root/src/openwatcom-1.9/contrib/wattcp/lib/wattcpwl.lib(/mnt/sda5/.user/root/src/openwatcom-1.9/contrib/wattcp/src/signal.c)
0ffd:3940      _sock_sig_setup_
0ffd:3860      _sock_sig_restore_
0ffd:3840*     _sock_sig_epipe_
Module: /mnt/sda5/.user/root/src/openwatcom-1.9/contrib/wattcp/lib/wattcpwl.lib(/mnt/sda5/.user/root/src/openwatcom-1.9/contrib/wattcp/src/timer.c)
1ce3:2760      __w32_has_8254
1ce3:2762*     __w32_has_rdtsc
0ffd:3dc0      _w32_init_timers_
0ffd:3da0*     _w32_hires_timer_
0ffd:3d80      cmp_timers_
0ffd:3cb0+     millisec_clock_
0ffd:3c50      _w32_microsec_clock_
0ffd:3be0      _w32_set_timeout_
0ffd:3b20      _w32_chk_timeout_
0ffd:3af0*     _w32_set_timediff_
0ffd:3ab0      _w32_get_timediff_
0ffd:3a40      _w32_timeval_diff_
Module: /mnt/sda5/.user/root/src/openwatcom-1.9/rel2/lib286/dos/clibl.lib(kbhit.c)
0000:256c      kbhit_
Module: /mnt/sda5/.user/root/src/openwatcom-1.9/contrib/wattcp/lib/wattcpwl.lib(/mnt/sda5/.user/root/src/openwatcom-1.9/contrib/wattcp/src/pcrecv.c)
0ffd:4130      sock_recv_used_
0ffd:4070      sock_recv_init_
0ffd:3f00      sock_recv_from_
0ffd:3dd0*     sock_recv_
Module: /mnt/sda5/.user/root/src/openwatcom-1.9/rel2/lib286/dos/clibl.lib(stack086.c)
0000:2583      stackavail_
Module: /mnt/sda5/.user/root/src/openwatcom-1.9/contrib/wattcp/lib/wattcpwl.lib(/mnt/sda5/.user/root/src/openwatcom-1.9/contrib/wattcp/src/bsddbug.c)
0ffd:43b0      _sock_enter_scope_
0ffd:4390      _sock_leave_scope_
Module: /mnt/sda5/.user/root/src/openwatcom-1.9/contrib/wattcp/lib/wattcpwl.lib(/mnt/sda5/.user/root/src/openwatcom-1.9/contrib/wattcp/src/connect.c)
0ffd:43c0      connect_
Module: /mnt/sda5/.user/root/src/openwatcom-1.9/contrib/wattcp/lib/wattcpwl.lib(/mnt/sda5/.user/root/src/openwatcom-1.9/contrib/wattcp/src/pcpkt.c)
1ce3:3d60      __pkt_enque_ptr
1ce3:3d64+     _pkt_enque_ptr
1ce3:2770      __pktdevclass
1ce3:2772      __pkt_ip_ofs
1ce3:2774      __pktserial
1ce3:2775+     __pktdevlevel
1ce3:2776+     __pkterror
1ce3:2777      __pktretries
1ce3:2778      __pkt_inf
0ffd:5100      pkt_get_mtu_
0ffd:50e0*     pkt_get_mac_len_
0ffd:50b0*     pkt_get_drvr_ver_
0ffd:4f20      pkt_release_
0ffd:4e40*     _pkt_end_
0ffd:4de0      pkt_send_
0ffd:4d70+     pkt_get_addr_
0ffd:4d00      pkt_set_addr_
0ffd:4cc0      pkt_buf_wipe_
0ffd:4c50      pkt_free_pkt_
0ffd:4c20*     pkt_waiting_ip_
0ffd:4bf0*     pkt_waiting_arp_
0ffd:4bb0*     pkt_waiting_
0ffd:4b80+     pkt_dropped_ip_
0ffd:4b50+     pkt_dropped_arp_
0ffd:4b30*     pkt_dropped_
0ffd:4a90      pkt_eth_init_
Module: /mnt/sda5/.user/root/src/openwatcom-1.9/contrib/wattcp/lib/wattcpwl.lib(/mnt/sda5/.user/root/src/openwatcom-1.9/contrib/wattcp/src/pcarp.c)
0ffd:5dd0      _arp_add_gateway_
0ffd:5bf0      _arp_search_
0ffd:5b60      _arp_register_
0ffd:5ac0      _arp_add_cache_
0ffd:5a00+     _arp_reply_
0ffd:5900      _arp_handler_
1ce3:27ec      __w32_arp_timeout
1ce3:27ee      __w32_arp_alive
1ce3:3dd0+     __w32_arp_cache_data
1ce3:4050+     __w32_arp_gate_list
1ce3:4096      __w32_arp_last_gateway
0ffd:5630      _arp_resolve_
Module: /mnt/sda5/.user/root/src/openwatcom-1.9/contrib/wattcp/lib/wattcpwl.lib(/mnt/sda5/.user/root/src/openwatcom-1.9/contrib/wattcp/src/pcsed.c)
1ce3:40ac+     __eth_recv_hook
1ce3:40b0+     __eth_xmit_hook
1ce3:46a6      __eth_addr
1ce3:46ac+     __eth_loop_addr
1ce3:46b2      __eth_brdcast
0ffd:6810      _eth_formatpacket_
0ffd:6780      _eth_send_
0ffd:6460      _eth_init_
0ffd:6410      _eth_release_
0ffd:63d0      _eth_set_addr_
0ffd:6370      _eth_get_hwtype_
0ffd:6320      _eth_free_
1ce3:27f2      __eth_is_init
1ce3:27f4      __ip_recursion
0ffd:5f60      _eth_arrived_
Module: /mnt/sda5/.user/root/src/openwatcom-1.9/contrib/wattcp/lib/wattcpwl.lib(/mnt/sda5/.user/root/src/openwatcom-1.9/contrib/wattcp/src/gethost.c)
1ce3:2800+     _h_errno
1ce3:2802      _netdbCacheLife
0ffd:7610      ReadHostFile_
0ffd:7600*     GetHostsFile_
0ffd:75e0*     CloseHostFile_
0ffd:75c0*     ReopenHostFile_
0ffd:73c0+     gethostent_
0ffd:70d0      gethostbyname_
0ffd:6ef0*     gethostbyaddr_
0ffd:6e90+     sethostent_
0ffd:6d80+     endhostent_
0ffd:6d50      gethostid_
0ffd:6d30*     sethostid_
0ffd:6920      reverse_lookup_myip_
0ffd:6850+     resolve_ip_
Module: /mnt/sda5/.user/root/src/openwatcom-1.9/contrib/wattcp/lib/wattcpwl.lib(/mnt/sda5/.user/root/src/openwatcom-1.9/contrib/wattcp/src/chksum.c)
0ffd:78b0      _w32_inchksum_
Module: /mnt/sda5/.user/root/src/openwatcom-1.9/contrib/wattcp/lib/wattcpwl.lib(/mnt/sda5/.user/root/src/openwatcom-1.9/contrib/wattcp/src/ip_out.c)
1ce3:281c      __default_ttl
1ce3:281e      __default_tos
1ce3:2820      __ip_id_increment
0ffd:7a20      _get_ip_id_
0ffd:7a10*     _get_this_ip_id_
0ffd:7950      _ip_output_
0ffd:7900      _chk_ip_header_
Module: /mnt/sda5/.user/root/src/openwatcom-1.9/rel2/lib286/dos/clibl.lib(fclose.c)
0000:2591      __doclose_
0000:2642      __shutdown_stream_
0000:265c      fclose_
1ce3:4790+     ___RmTmpFileFn
Module: /mnt/sda5/.user/root/src/openwatcom-1.9/rel2/lib286/dos/clibl.lib(_icstrdu.asm)
0000:26a8      strdup_
Module: /mnt/sda5/.user/root/src/openwatcom-1.9/contrib/wattcp/lib/wattcpwl.lib(/mnt/sda5/.user/root/src/openwatcom-1.9/contrib/wattcp/src/strings.c)
0ffd:7b80      outs_
0ffd:7b60      outsnl_
0ffd:7b20*     outsn_
0ffd:7ad0      outhex_
0ffd:7aa0*     outhexes_
1ce3:2830      __outch
1ce3:2834      __printf
0ffd:7a40      rip_
Module: /mnt/sda5/.user/root/src/openwatcom-1.9/rel2/lib286/dos/clibl.lib(rewind.c)
0000:26ad      rewind_
Module: /mnt/sda5/.user/root/src/openwatcom-1.9/rel2/lib286/dos/clibl.lib(atexit.c)
0000:26ca      atexit_
Module: /mnt/sda5/.user/root/src/openwatcom-1.9/rel2/lib286/dos/clibl.lib(fgets.c)
0000:2744      fgets_
Module: /mnt/sda5/.user/root/src/openwatcom-1.9/rel2/lib286/dos/clibl.lib(strtok.c)
0000:27d3      strtok_
Module: /mnt/sda5/.user/root/src/openwatcom-1.9/rel2/lib286/dos/clibl.lib(atoi.c)
0000:28a3      atoi_
Module: /mnt/sda5/.user/root/src/openwatcom-1.9/rel2/lib286/dos/clibl.lib(stricmp.c)
0000:290b      stricmp_
Module: /mnt/sda5/.user/root/src/openwatcom-1.9/rel2/lib286/dos/clibl.lib(fopen.c)
0000:2948+     __open_flags_
0000:2b48+     _fsopen_
0000:2baf      fopen_
0000:2c8a*     freopen_
Module: /mnt/sda5/.user/root/src/openwatcom-1.9/contrib/wattcp/lib/wattcpwl.lib(/mnt/sda5/.user/root/src/openwatcom-1.9/contrib/wattcp/src/gettod.c)
0ffd:7d30+     gettimeofday_
0ffd:7c00      gettimeofday2_
Module: /mnt/sda5/.user/root/src/openwatcom-1.9/rel2/lib286/dos/clibl.lib(iob.c)
1ce3:2850      ___iob
1ce3:29b8      __fmode
1ce3:4816      ___OpenStreams
1ce3:481a      ___ClosedStreams
Module: /mnt/sda5/.user/root/src/openwatcom-1.9/rel2/lib286/dos/clibl.lib(isatt.c)
0000:2d00      isatty_
Module: /mnt/sda5/.user/root/src/openwatcom-1.9/contrib/wattcp/lib/wattcpwl.lib(/mnt/sda5/.user/root/src/openwatcom-1.9/contrib/wattcp/src/wattcpd.c)
1ce3:29c0      _wattcpd
0ffd:7ef0      addwattcpd_
0ffd:7e60*     delwattcpd_
Module: /mnt/sda5/.user/root/src/openwatcom-1.9/contrib/wattcp/lib/wattcpwl.lib(/mnt/sda5/.user/root/src/openwatcom-1.9/contrib/wattcp/src/pcbsd.c)
0ffd:8050      _inet_ntoa_
0ffd:7ff0      _inet_addr_
0ffd:7fe0*     _gethostid_
0ffd:7fd0*     _sethostid_
Module: /mnt/sda5/.user/root/src/openwatcom-1.9/rel2/lib286/dos/clibl.lib(i4m)
0000:2d1c      __I4M
0000:2d1c      __U4M
Module: /mnt/sda5/.user/root/src/openwatcom-1.9/rel2/lib286/dos/clibl.lib(exit.c)
0000:2d34      __null_int23_exit_
0000:2d35      exit_
0000:2d66*     _exit_
1ce3:29c8      ___int23_exit
1ce3:29cc+     ___FPE_handler_exit
Module: /mnt/sda5/.user/root/src/openwatcom-1.9/contrib/wattcp/lib/wattcpwl.lib(/mnt/sda5/.user/root/src/openwatcom-1.9/contrib/wattcp/src/udp_dom.c)
1ce3:4820      __w32_def_nameservers
1ce3:4850+     __w32_loc_domain
1ce3:29d0      _called_from_resolve
1ce3:29d2      _called_from_ghbn
1ce3:29d4      __w32_defaultdomain
1ce3:2a28      __w32_def_domain
1ce3:2a2c      __w32_last_nameserver
1ce3:2a2e      __w32_dns_timeout
1ce3:2a30      __w32_dns_recurse
1ce3:4858      __resolve_hook
1ce3:485c      __resolve_exit
1ce3:485e      __resolve_timeout
0ffd:8190      resolve_
Module: /mnt/sda5/.user/root/src/openwatcom-1.9/contrib/wattcp/lib/wattcpwl.lib(/mnt/sda5/.user/root/src/openwatcom-1.9/contrib/wattcp/src/bsdname.c)
0ffd:8ef0*     _getpeername_
0ffd:8e30*     _getsockname_
0ffd:8dd0*     getdomainname_
0ffd:8d70      setdomainname_
0ffd:8c70      gethostname_
0ffd:8b80      sethostname_
0ffd:8aa0      _get_machine_name_
Module: /mnt/sda5/.user/root/src/openwatcom-1.9/contrib/wattcp/lib/wattcpwl.lib(/mnt/sda5/.user/root/src/openwatcom-1.9/contrib/wattcp/src/misc.c)
0ffd:90d0*     _w32_intel_
0ffd:90c0*     _w32_intel16_
0ffd:90a0      _w32_init_misc_
0ffd:9070      _w32_Random_
0ffd:9040*     _w32_RandomWait_
0ffd:8fe0*     ffs_
1ce3:2a40*     __w32_hex_chars
1ce3:2a51      __w32_hex_CHARS
1ce3:2a62*     __w32_cpu_type
1ce3:2a64*     ___bss_count
1ce3:2a68*     _dummy_fatal_rte
0ffd:8fb0      watt_largecheck_
Module: /mnt/sda5/.user/root/src/openwatcom-1.9/contrib/wattcp/lib/wattcpwl.lib(/mnt/sda5/.user/root/src/openwatcom-1.9/contrib/wattcp/src/crit.c)
0ffd:90f0      int24_init_
Module: /mnt/sda5/.user/root/src/openwatcom-1.9/contrib/wattcp/lib/wattcpwl.lib(/mnt/sda5/.user/root/src/openwatcom-1.9/contrib/wattcp/src/syslog2.c)
1ce3:2b74+     _syslog_fileName
1ce3:2b78+     _syslog_hostName
1ce3:2b7c+     _syslog_port
1ce3:2b7e+     _syslog_mask
0ffd:9120      syslog_init_
Module: /mnt/sda5/.user/root/src/openwatcom-1.9/contrib/wattcp/lib/wattcpwl.lib(/mnt/sda5/.user/root/src/openwatcom-1.9/contrib/wattcp/src/pc_cbrk.c)
1ce3:2bc0      _wathndlcbrk
1ce3:2bc2      _watcbroke
0ffd:9350      set_cbreak_
0ffd:92e0      tcp_cbreak_
Module: /mnt/sda5/.user/root/src/openwatcom-1.9/contrib/wattcp/lib/wattcpwl.lib(/mnt/sda5/.user/root/src/openwatcom-1.9/contrib/wattcp/src/pcicmp.c)
1ce3:2bd0+     _icmp_type_str
1ce3:2c1c+     _icmp_unreach_str
1ce3:2c5c+     _icmp_redirect_str
1ce3:2c6c+     _icmp_exceed_str
0ffd:a0c0*     _chk_ping_
0ffd:9db0      icmp_unreach_
0ffd:9ce0*     icmp_timexceed_
0ffd:9c60      icmp_mask_req_
0ffd:94e0      icmp_handler_
0ffd:9400      icmp_redirect_
Module: /mnt/sda5/.user/root/src/openwatcom-1.9/rel2/lib286/dos/clibl.lib(hpgrw086.c)
0000:2d7f      __CMain_nheapgrow_
Module: /mnt/sda5/.user/root/src/openwatcom-1.9/rel2/lib286/dos/clibl.lib(mem.c)
0000:2d90      __MemAllocator
0000:2e5a      __MemFree
Module: /mnt/sda5/.user/root/src/openwatcom-1.9/rel2/lib286/dos/clibl.lib(growseg.c)
0000:2fb7      __GrowSeg_
Module: /mnt/sda5/.user/root/src/openwatcom-1.9/rel2/lib286/dos/clibl.lib(allocseg.c)
0000:30a9      __AllocSeg_
Module: /mnt/sda5/.user/root/src/openwatcom-1.9/rel2/lib286/dos/clibl.lib(fmemneed.c)
0000:3140      __fmemneed_
Module: /mnt/sda5/.user/root/src/openwatcom-1.9/rel2/lib286/dos/clibl.lib(nmalloc.c)
0000:3143      _nmalloc_
1ce3:2c88      ___nheapbeg
1ce3:2c8a      ___MiniHeapRover
1ce3:2c8c      ___LargestSizeB4MiniHeapRover
Module: /mnt/sda5/.user/root/src/openwatcom-1.9/rel2/lib286/dos/clibl.lib(nfree.c)
0000:321d      _nfree_
1ce3:487c+     ___MiniHeapFreeRover
Module: /mnt/sda5/.user/root/src/openwatcom-1.9/rel2/lib286/dos/clibl.lib(enterdb.c)
0000:3318      __EnterWVIDEO_
1ce3:2c8e      ___WD_Present
Module: /mnt/sda5/.user/root/src/openwatcom-1.9/rel2/lib286/dos/clibl.lib(___argc.c)
1ce3:487e      ____Argv
1ce3:4882      ____Argc
Module: /mnt/sda5/.user/root/src/openwatcom-1.9/rel2/lib286/dos/clibl.lib(amblksiz.c)
1ce3:2c90      __amblksiz
Module: /mnt/sda5/.user/root/src/openwatcom-1.9/rel2/lib286/dos/clibl.lib(sgdef086)
1ce3:2f36      __Start_XI
1ce3:2f5a      __End_XI
1ce3:2f5a      __Start_YI
1ce3:2f78      __End_YI
Module: /mnt/sda5/.user/root/src/openwatcom-1.9/rel2/lib286/dos/clibl.lib(histsplt.c)
1ce3:4884      ___historical_splitparms
Module: /mnt/sda5/.user/root/src/openwatcom-1.9/rel2/lib286/dos/clibl.lib(gfattdos.c)
0000:333c      _dos_getfileattr_
Module: /mnt/sda5/.user/root/src/openwatcom-1.9/rel2/lib286/dos/clibl.lib(dosret.c)
0000:3353*     _dosretax_
0000:3358*     _dosret0_
0000:335f      __set_errno_dos_
0000:33bd*     __set_errno_dos_reterr_
Module: /mnt/sda5/.user/root/src/openwatcom-1.9/rel2/lib286/dos/clibl.lib(doserror)
0000:33c8      __doserror_
Module: /mnt/sda5/.user/root/src/openwatcom-1.9/rel2/lib286/dos/clibl.lib(strncpy.c)
0000:33d6      strncpy_
Module: /mnt/sda5/.user/root/src/openwatcom-1.9/rel2/lib286/dos/clibl.lib(environ.c)
1ce3:4886      ___env_mask
1ce3:488a      _environ
1ce3:488e*     __wenviron
Module: /mnt/sda5/.user/root/src/openwatcom-1.9/rel2/lib286/dos/clibl.lib(mbterm.c)
0000:3412      _mbterm_
Module: /mnt/sda5/.user/root/src/openwatcom-1.9/rel2/lib286/dos/clibl.lib(mbsnextc.c)
0000:3454      _mbsnextc_
Module: /mnt/sda5/.user/root/src/openwatcom-1.9/rel2/lib286/dos/clibl.lib(mbcupper.c)
0000:3485      _mbctoupper_
Module: /mnt/sda5/.user/root/src/openwatcom-1.9/rel2/lib286/dos/clibl.lib(mbsinc.c)
0000:34a8      _mbsinc_
Module: /mnt/sda5/.user/root/src/openwatcom-1.9/rel2/lib286/dos/clibl.lib(prtf.c)
0000:34e4      __prtf_
Module: /mnt/sda5/.user/root/src/openwatcom-1.9/rel2/lib286/dos/clibl.lib(dointr)
0000:42b2      _DoINTR_
Module: /mnt/sda5/.user/root/src/openwatcom-1.9/rel2/lib286/dos/clibl.lib(fprintf.c)
0000:462b      fprintf_
Module: /mnt/sda5/.user/root/src/openwatcom-1.9/contrib/wattcp/lib/wattcpwl.lib(/mnt/sda5/.user/root/src/openwatcom-1.9/contrib/wattcp/src/pcbootp.c)
1ce3:2cb0      __bootphost
1ce3:2cb4      __bootptimeout
Module: /mnt/sda5/.user/root/src/openwatcom-1.9/contrib/wattcp/lib/wattcpwl.lib(/mnt/sda5/.user/root/src/openwatcom-1.9/contrib/wattcp/src/getnet.c)
0ffd:a5a0      ReadNetworksFile_
0ffd:a590*     GetNetFile_
0ffd:a570*     CloseNetworksFile_
0ffd:a550*     ReopenNetworksFile_
0ffd:a3b0+     getnetent_
0ffd:a2d0*     getnetbyname_
0ffd:a260*     getnetbyaddr_
0ffd:a200+     setnetent_
0ffd:a100+     endnetent_
Module: /mnt/sda5/.user/root/src/openwatcom-1.9/rel2/lib286/dos/clibl.lib(strstr.c)
0000:465a      strstr_
Module: /mnt/sda5/.user/root/src/openwatcom-1.9/rel2/lib286/dos/clibl.lib(strupr.c)
0000:4714      strupr_
Module: /mnt/sda5/.user/root/src/openwatcom-1.9/rel2/lib286/dos/clibl.lib(toupper.c)
0000:4736      toupper_
Module: /mnt/sda5/.user/root/src/openwatcom-1.9/contrib/wattcp/lib/wattcpwl.lib(/mnt/sda5/.user/root/src/openwatcom-1.9/contrib/wattcp/src/udp_nds.c)
0ffd:a840      aton_
0ffd:a800      isaddr_
0ffd:a7d0*     aton_dotless_
0ffd:a710      isaddr_dotless_
0ffd:a6a0*     psocket_
Module: /mnt/sda5/.user/root/src/openwatcom-1.9/rel2/lib286/dos/clibl.lib(open.c)
0000:4940      open_
0000:4977      sopen_
Module: /mnt/sda5/.user/root/src/openwatcom-1.9/rel2/lib286/dos/clibl.lib(close.c)
0000:49a4      close_
Module: /mnt/sda5/.user/root/src/openwatcom-1.9/rel2/lib286/dos/clibl.lib(strrchr.c)
0000:49a9      strrchr_
Module: /mnt/sda5/.user/root/src/openwatcom-1.9/rel2/lib286/dos/clibl.lib(read.c)
0000:49ce      read_
Module: /mnt/sda5/.user/root/src/openwatcom-1.9/rel2/lib286/dos/clibl.lib(assert99.c)
0000:4ab2      _assert99_
0000:4c57*     __assert99_
Module: /mnt/sda5/.user/root/src/openwatcom-1.9/contrib/wattcp/lib/wattcpwl.lib(/mnt/sda5/.user/root/src/openwatcom-1.9/contrib/wattcp/src/pcdbug.c)
0ffd:a8e0*     dbug_init_
1ce3:2ce0      _tcpState
0ffd:a8d0*     dbug_exit_
Module: /mnt/sda5/.user/root/src/openwatcom-1.9/contrib/wattcp/lib/wattcpwl.lib(/mnt/sda5/.user/root/src/openwatcom-1.9/contrib/wattcp/src/tcp_fsm.c)
0ffd:bcd0      _tcp_fsm_
0ffd:a900      _tcp_reset_
Module: /mnt/sda5/.user/root/src/openwatcom-1.9/rel2/lib286/dos/clibl.lib(fmsize.c)
0000:4c8c*     _msize_
0000:4c8c      _fmsize_
Module: /mnt/sda5/.user/root/src/openwatcom-1.9/rel2/lib286/dos/clibl.lib(nexpand.c)
0000:4c9d      __HeapManager_expand_
0000:4e14      _nexpand_
Module: /mnt/sda5/.user/root/src/openwatcom-1.9/rel2/lib286/dos/clibl.lib(fexpand.c)
0000:4e67      _fexpand_
0000:4e67*     _expand_
Module: /mnt/sda5/.user/root/src/openwatcom-1.9/rel2/lib286/dos/clibl.lib(gtctm.c)
0000:4e9c      __getctime_
Module: /mnt/sda5/.user/root/src/openwatcom-1.9/rel2/lib286/dos/clibl.lib(mktime.c)
0000:4f25      mktime_
Module: /mnt/sda5/.user/root/src/openwatcom-1.9/rel2/lib286/dos/clibl.lib(setjmp)
0000:4fe0      _setjmp_
0000:5035      longjmp_
Module: /mnt/sda5/.user/root/src/openwatcom-1.9/contrib/wattcp/lib/wattcpwl.lib(/mnt/sda5/.user/root/src/openwatcom-1.9/contrib/wattcp/src/nettime.c)
0ffd:be90      _sock_start_timer_
0ffd:be40      _sock_stop_timer_
0ffd:bd40*     net_times_
Module: /mnt/sda5/.user/root/src/openwatcom-1.9/rel2/lib286/dos/clibl.lib(signl.c)
0000:5092+     __sigabort_
0000:5098      signal_
0000:5168      raise_
Module: /mnt/sda5/.user/root/src/openwatcom-1.9/rel2/lib286/dos/clibl.lib(i8ls086)
0000:5288*     __I8LS
0000:5288      __U8LS
Module: /mnt/sda5/.user/root/src/openwatcom-1.9/rel2/lib286/dos/clibl.lib(i8m086)
0000:52b3*     __I8M
0000:52b3      __U8M
0000:5298*     __I8ME
0000:5298*     __U8ME
Module: /mnt/sda5/.user/root/src/openwatcom-1.9/rel2/lib286/dos/clibl.lib(i8d086)
0000:5709      __U8DQ
0000:571f      __U8DR
0000:5735*     __I8DQ
0000:5751*     __I8DR
0000:5767*     __U8DQE
0000:577d*     __U8DRE
0000:5793*     __I8DQE
0000:57a9*     __I8DRE
Module: /mnt/sda5/.user/root/src/openwatcom-1.9/contrib/wattcp/lib/wattcpwl.lib(/mnt/sda5/.user/root/src/openwatcom-1.9/contrib/wattcp/src/sock_in.c)
0ffd:c1e0      ip_timer_init_
0ffd:c1c0      ip_timer_expired_
0ffd:c0e0      _ip_delay0_
0ffd:c000*     _ip_delay1_
0ffd:bf30*     _ip_delay2_
0ffd:bef0*     sock_timeout_
0ffd:beb0*     sock_established_
Module: /mnt/sda5/.user/root/src/openwatcom-1.9/contrib/wattcp/lib/wattcpwl.lib(/mnt/sda5/.user/root/src/openwatcom-1.9/contrib/wattcp/src/asmpkt.asm)
0ffd:c884      _pkt_receiver_rm
0ffd:c884*     __pkt_receiver_rm
Module: /mnt/sda5/.user/root/src/openwatcom-1.9/contrib/wattcp/lib/wattcpwl.lib(/mnt/sda5/.user/root/src/openwatcom-1.9/contrib/wattcp/src/pcqueue.c)
0ffd:c9a0      pktq_init_
0ffd:c980      pktq_inc_out_
0ffd:c960*     pktq_in_index_
0ffd:c940*     pktq_in_buf_
0ffd:c920      pktq_out_buf_
0ffd:c900      pktq_clear_
0ffd:c8e0      pktq_queued_
Module: /mnt/sda5/.user/root/src/openwatcom-1.9/rel2/lib286/dos/clibl.lib(d_getvec.c)
0000:57bf      _dos_getvect_
Module: /mnt/sda5/.user/root/src/openwatcom-1.9/rel2/lib286/dos/clibl.lib(qsort.c)
0000:5843      qsort_
Module: /mnt/sda5/.user/root/src/openwatcom-1.9/rel2/lib286/dos/clibl.lib(itoa.c)
0000:5db3+     utoa_
0000:5e10      itoa_
Module: /mnt/sda5/.user/root/src/openwatcom-1.9/contrib/wattcp/lib/wattcpwl.lib(/mnt/sda5/.user/root/src/openwatcom-1.9/contrib/wattcp/src/sock_io.c)
0ffd:ce20*     sock_putc_
0ffd:cd80*     sock_puts_
0ffd:cae0*     sock_gets_
0ffd:cab0*     sock_getc_
0ffd:c9d0      sock_dataready_
Module: /mnt/sda5/.user/root/src/openwatcom-1.9/rel2/lib286/dos/clibl.lib(__lseek.c)
0000:5e34      __lseek_
Module: /mnt/sda5/.user/root/src/openwatcom-1.9/rel2/lib286/dos/clibl.lib(_clse.c)
0000:5e6e      __close_
Module: /mnt/sda5/.user/root/src/openwatcom-1.9/rel2/lib286/dos/clibl.lib(flush.c)
0000:5ea1      __flush_
Module: /mnt/sda5/.user/root/src/openwatcom-1.9/rel2/lib286/dos/clibl.lib(freefp.c)
0000:5fd4      __freefp_
0000:604f      __purgefp_
Module: /mnt/sda5/.user/root/src/openwatcom-1.9/rel2/lib286/dos/clibl.lib(strdup.c)
0000:6090      __clib_strdup_
Module: /mnt/sda5/.user/root/src/openwatcom-1.9/rel2/lib286/dos/clibl.lib(fseek.c)
0000:614d      fseek_
Module: /mnt/sda5/.user/root/src/openwatcom-1.9/rel2/lib286/dos/clibl.lib(fgetc.c)
0000:629b+     __fill_buffer_
0000:6390      fgetc_
Module: /mnt/sda5/.user/root/src/openwatcom-1.9/rel2/lib286/dos/clibl.lib(setbits.c)
0000:6435      __setbits_
Module: /mnt/sda5/.user/root/src/openwatcom-1.9/rel2/lib286/dos/clibl.lib(bits.c)
1ce3:16aa      __Bits
Module: /mnt/sda5/.user/root/src/openwatcom-1.9/rel2/lib286/dos/clibl.lib(comtflag.c)
0000:648d*     __set_commode_
1ce3:2d40      __commode
Module: /mnt/sda5/.user/root/src/openwatcom-1.9/rel2/lib286/dos/clibl.lib(tolower.c)
0000:6499      tolower_
Module: /mnt/sda5/.user/root/src/openwatcom-1.9/rel2/lib286/dos/clibl.lib(chktty.c)
0000:64a7      __chktty_
Module: /mnt/sda5/.user/root/src/openwatcom-1.9/rel2/lib286/dos/clibl.lib(allocfp.c)
0000:64d2      __allocfp_
Module: /mnt/sda5/.user/root/src/openwatcom-1.9/rel2/lib286/dos/clibl.lib(localtim.c)
0000:65f4+     _localtime_
0000:6683      localtime_
Module: /mnt/sda5/.user/root/src/openwatcom-1.9/rel2/lib286/dos/clibl.lib(tzset.c)
1ce3:2d42      ___start_dst
1ce3:2d54      ___end_dst
1ce3:2e68*     _tzname
1ce3:2e70      _timezone
1ce3:2e74      _daylight
1ce3:2e76      ___dst_adjust
0000:6692*     __DontCacheOSTZ_
0000:66ab*     __CacheOSTZ_
0000:6c33+     __parse_tz_
0000:6e04      tzset_
Module: /mnt/sda5/.user/root/src/openwatcom-1.9/rel2/lib286/dos/clibl.lib(initfile.c)
0000:6e33      __InitFiles_
Module: /mnt/sda5/.user/root/src/openwatcom-1.9/rel2/lib286/dos/clibl.lib(ioexit.c)
0000:6f81*     fcloseall_
0000:6f88      __full_io_exit_
Module: /mnt/sda5/.user/root/src/openwatcom-1.9/rel2/lib286/dos/clibl.lib(rand.c)
0000:6f92      rand_
0000:6fd4      srand_
Module: /mnt/sda5/.user/root/src/openwatcom-1.9/rel2/lib286/dos/clibl.lib(printf.c)
0000:6ff7      printf_
Module: /mnt/sda5/.user/root/src/openwatcom-1.9/rel2/lib286/dos/clibl.lib(harderr)
0000:7026      _harderr_
0000:7061*     _hardresume_
0000:706f*     _hardretn_
Module: /mnt/sda5/.user/root/src/openwatcom-1.9/rel2/lib286/dos/clibl.lib(heapgrow.c)
0000:70a6*     _heapgrow_
0000:70a6*     _fheapgrow_
0000:70a7      _nheapgrow_
Module: /mnt/sda5/.user/root/src/openwatcom-1.9/rel2/lib286/dos/clibl.lib(heapen.c)
0000:7121*     _heapenable_
1ce3:2eb0      ___heap_enabled
Module: /mnt/sda5/.user/root/src/openwatcom-1.9/rel2/lib286/dos/clibl.lib(nmemneed.c)
0000:7132      __nmemneed_
Module: /mnt/sda5/.user/root/src/openwatcom-1.9/rel2/lib286/dos/clibl.lib(grownear.c)
0000:71ba      __LastFree_
0000:7234      __ExpandDGROUP_
Module: /mnt/sda5/.user/root/src/openwatcom-1.9/rel2/lib286/dos/clibl.lib(setenvp.c)
0000:7363      __setenvp_
0000:7466      __freeenvp_
Module: /mnt/sda5/.user/root/src/openwatcom-1.9/rel2/lib286/dos/clibl.lib(mbisdbcs.c)
1ce3:48ce      ___IsDBCS
Module: /mnt/sda5/.user/root/src/openwatcom-1.9/rel2/lib286/dos/clibl.lib(mbislead.c)
0000:74c4*     _ismbblead_
1ce3:48d0      ___MBCSIsTable
Module: /mnt/sda5/.user/root/src/openwatcom-1.9/rel2/lib286/dos/clibl.lib(mbinit.c)
0000:751e      __mbinit_
1ce3:2eb2      ___MBCodePage
Module: /mnt/sda5/.user/root/src/openwatcom-1.9/rel2/lib286/dos/clibl.lib(mbdtoupp.c)
0000:75f9      _mbdtoupper_
Module: /mnt/sda5/.user/root/src/openwatcom-1.9/rel2/lib286/dos/clibl.lib(wctomb.c)
0000:7607      wctomb_
Module: /mnt/sda5/.user/root/src/openwatcom-1.9/rel2/lib286/dos/clibl.lib(noefgfmt.c)
1ce3:2eb4      ___EFG_printf
1ce3:2eb8*     ___EFG_scanf
Module: /mnt/sda5/.user/root/src/openwatcom-1.9/rel2/lib286/dos/clibl.lib(lltoa.c)
0000:7643      ulltoa_
0000:7728*     lltoa_
Module: /mnt/sda5/.user/root/src/openwatcom-1.9/rel2/lib286/dos/clibl.lib(ltoa.c)
0000:778a      ultoa_
0000:77f9*     ltoa_
Module: /mnt/sda5/.user/root/src/openwatcom-1.9/rel2/lib286/dos/clibl.lib(fprtf.c)
0000:7842      __fprtf_
Module: /mnt/sda5/.user/root/src/openwatcom-1.9/rel2/lib286/dos/clibl.lib(atol.c)
0000:790d      atol_
Module: /mnt/sda5/.user/root/src/openwatcom-1.9/rel2/lib286/dos/clibl.lib(opendos.c)
0000:7986      _dos_open_
Module: /mnt/sda5/.user/root/src/openwatcom-1.9/rel2/lib286/dos/clibl.lib(iomode.c)
0000:79ac      __GetIOMode_
0000:79d1      __SetIOMode_nogrow_
1ce3:2ebc      ___NFiles
1ce3:2ebe      ___init_mode
1ce3:2ee6      ___io_mode
Module: /mnt/sda5/.user/root/src/openwatcom-1.9/rel2/lib286/dos/clibl.lib(umaskval.c)
1ce3:2eea      ___umaskval
Module: /mnt/sda5/.user/root/src/openwatcom-1.9/rel2/lib286/dos/clibl.lib(creatdos.c)
0000:79f4      _dos_creat_
0000:7a18*     _dos_creatnew_
Module: /mnt/sda5/.user/root/src/openwatcom-1.9/rel2/lib286/dos/clibl.lib(stiomode.c)
0000:7a3a+     __grow_iomode_
0000:7afd+     __shrink_iomode_
0000:7b38      __SetIOMode_
Module: /mnt/sda5/.user/root/src/openwatcom-1.9/rel2/lib286/dos/clibl.lib(iomodtty.c)
0000:7b9b      __ChkTTYIOMode_
0000:7bd9*     __IOMode_
Module: /mnt/sda5/.user/root/src/openwatcom-1.9/rel2/lib286/dos/clibl.lib(bprintf.c)
0000:7c1b+     _vbprintf_
0000:7c67*     _bprintf_
0000:7c96+     _vsnprintf_
0000:7cf6      _snprintf_
Module: /mnt/sda5/.user/root/src/openwatcom-1.9/rel2/lib286/dos/clibl.lib(rterrmsg.c)
0000:7d22      __rterr_msg_
Module: /mnt/sda5/.user/root/src/openwatcom-1.9/rel2/lib286/dos/clibl.lib(abort.c)
0000:7d55      abort_
0000:7d77      __terminate_
1ce3:2eec      ___abort
Module: /mnt/sda5/.user/root/src/openwatcom-1.9/rel2/lib286/dos/clibl.lib(bfree.c)
0000:7d8a      _bfree_
Module: /mnt/sda5/.user/root/src/openwatcom-1.9/rel2/lib286/dos/clibl.lib(bexpand.c)
0000:7daf      _bexpand_
Module: /mnt/sda5/.user/root/src/openwatcom-1.9/rel2/lib286/dos/clibl.lib(locmktim.c)
0000:7e08      __local_mktime_
Module: /mnt/sda5/.user/root/src/openwatcom-1.9/rel2/lib286/dos/clibl.lib(gmtime.c)
0000:8014      __brktime_
0000:8177+     _gmtime_
0000:819b*     gmtime_
Module: /mnt/sda5/.user/root/src/openwatcom-1.9/rel2/lib286/dos/clibl.lib(timeutil.c)
0000:82d9      __isindst_
Module: /mnt/sda5/.user/root/src/openwatcom-1.9/rel2/lib286/dos/clibl.lib(ljmphdl.c)
1ce3:2ef0      ___longjmp_handler
Module: /mnt/sda5/.user/root/src/openwatcom-1.9/rel2/lib286/dos/clibl.lib(sigsy.c)
0000:867c      __restore_int23_
0000:8715      __restore_int_ctrl_break_
0000:877d      __grab_int23_
0000:87f8      __grab_int_ctrl_break_
0000:8886      __restore_FPE_handler_
0000:88b7      __grab_FPE_handler_
Module: /mnt/sda5/.user/root/src/openwatcom-1.9/rel2/lib286/dos/clibl.lib(sigtab.c)
1ce3:2f00      __SignalTable
Module: /mnt/sda5/.user/root/src/openwatcom-1.9/rel2/lib286/dos/clibl.lib(sigfpe.c)
0000:88ea      __sigfpe_handler_
Module: /mnt/sda5/.user/root/src/openwatcom-1.9/rel2/lib286/dos/clibl.lib(alphabet.c)
1ce3:13b4      ___Alphabet
Module: /mnt/sda5/.user/root/src/openwatcom-1.9/rel2/lib286/dos/clibl.lib(qwrit.c)
0000:893d      __qwrite_
Module: /mnt/sda5/.user/root/src/openwatcom-1.9/rel2/lib286/dos/clibl.lib(fsync.c)
0000:899a      fsync_
Module: /mnt/sda5/.user/root/src/openwatcom-1.9/rel2/lib286/dos/clibl.lib(lseek.c)
0000:899f      lseek_
Module: /mnt/sda5/.user/root/src/openwatcom-1.9/rel2/lib286/dos/clibl.lib(tell.c)
0000:89d0      tell_
Module: /mnt/sda5/.user/root/src/openwatcom-1.9/rel2/lib286/dos/clibl.lib(flushall.c)
0000:89e1      __flushall_
0000:8a3e*     flushall_
Module: /mnt/sda5/.user/root/src/openwatcom-1.9/rel2/lib286/dos/clibl.lib(gtche.c)
0000:8a43      getche_
Module: /mnt/sda5/.user/root/src/openwatcom-1.9/rel2/lib286/dos/clibl.lib(ioalloc.c)
0000:8a5d      __ioalloc_
Module: /mnt/sda5/.user/root/src/openwatcom-1.9/rel2/lib286/dos/clibl.lib(qread.c)
0000:8af7      __qread_
Module: /mnt/sda5/.user/root/src/openwatcom-1.9/rel2/lib286/dos/clibl.lib(leapyear.c)
0000:8b17      __leapyear_
1ce3:13da      ___diyr
1ce3:13f4      ___dilyr
Module: /mnt/sda5/.user/root/src/openwatcom-1.9/rel2/lib286/dos/clibl.lib(sbrk.c)
0000:8b41*     sbrk_
0000:8b51      __brk_
Module: /mnt/sda5/.user/root/src/openwatcom-1.9/rel2/lib286/dos/clibl.lib(clearenv.c)
0000:8bbb      clearenv_
Module: /mnt/sda5/.user/root/src/openwatcom-1.9/rel2/lib286/dos/clibl.lib(fputc.c)
0000:8c9d      fputc_
Module: /mnt/sda5/.user/root/src/openwatcom-1.9/rel2/lib286/dos/clibl.lib(fputs.c)
0000:8d6d      fputs_
Module: /mnt/sda5/.user/root/src/openwatcom-1.9/rel2/lib286/dos/clibl.lib(chainint)
0000:8e0e      _chain_intr_
Module: /mnt/sda5/.user/root/src/openwatcom-1.9/rel2/lib286/dos/clibl.lib(d_setvec.c)
0000:8e2e      _dos_setvect_
Module: /mnt/sda5/.user/root/src/openwatcom-1.9/rel2/lib286/dos/clibl.lib(nonibm.c)
0000:8e3b+     __is_nonIBM_
1ce3:2f34      ___NonIBM
Module: /mnt/sda5/.user/root/src/openwatcom-1.9/rel2/lib286/dos/clibl.lib(filedos.c)
0000:8e82*     _dos_close_
0000:8e90      _dos_commit_


                        +--------------------+
                        |   Libraries Used   |
                        +--------------------+

/mnt/sda5/.user/root/src/openwatcom-1.9/contrib/wattcp/lib/wattcpwl.lib
/mnt/sda5/.user/root/src/openwatcom-1.9/rel2/lib286/dos/clibl.lib


                        +-----------------------+
                        |   Linker Statistics   |
                        +-----------------------+

Stack size:  1000 (4096.)
Memory size:  00022820 (141344.)
Entry point address: 0000:14e6
Link time: 00:00.00
