Open Watcom Linker Version 1.9
Portions Copyright (c) 1985-2002 Sybase, Inc. All Rights Reserved.
Created on:       12/12/16 02:42:50
Executable Image: wic.exe
creating a DOS/4G executable


                        +------------+
                        |   Groups   |
                        +------------+

Group                           Address              Size
=====                           =======              ====

DGROUP                          0002:00000000        0001e1e0



                        +--------------+
                        |   Segments   |
                        +--------------+

Segment                Class          Group          Address         Size
=======                =====          =====          =======         ====

BEGTEXT                CODE           AUTO           0001:00000000   00000010
_TEXT                  CODE           AUTO           0001:00000010   0001bedb
_NULL                  BEGDATA        DGROUP         0002:00000000   00000004
_AFTERNULL             BEGDATA        DGROUP         0002:00000004   00000000
CONST                  DATA           DGROUP         0002:00000004   000025cc
CONST2                 DATA           DGROUP         0002:000025d0   0000013c
_DATA                  DATA           DGROUP         0002:0000270c   0000434c
XIB                    DATA           DGROUP         0002:00006a58   00000000
XI                     DATA           DGROUP         0002:00006a58   00000042
XIE                    DATA           DGROUP         0002:00006a9a   00000000
YIB                    DATA           DGROUP         0002:00006a9a   00000000
YI                     DATA           DGROUP         0002:00006a9a   00000024
YIE                    DATA           DGROUP         0002:00006abe   00000000
TIB                    DATA           DGROUP         0002:00006abe   00000000
TI                     DATA           DGROUP         0002:00006abe   00000000
TIE                    DATA           DGROUP         0002:00006abe   00000000
DATA                   DATA           DGROUP         0002:00006abe   00000000
_BSS                   BSS            DGROUP         0002:00006ac0   00007716
STACK                  STACK          DGROUP         0002:0000e1e0   00010000


                        +----------------+
                        |   Memory Map   |
                        +----------------+

* = unreferenced symbol
+ = symbol only referenced locally

Address        Symbol
=======        ======

Module: cmdline.obj(/mnt/sda5/.user/root/src/openwatcom-1.9/bld/wic/c/cmdline.c)
0001:00000080  initFDReadInd_
0001:00000090  createFDReadInd_
0001:000000b0  FDReadIndHashFunc_
0001:000000c0  FDReadIndCmpFunc_
0001:000000d0  zapFDReadInd_
0001:00000640  getCmdLineOptions_
0001:000007c0  zapCmdLineOptions_
Module: cparse.obj(/mnt/sda5/.user/root/src/openwatcom-1.9/bld/wic/c/cparse.c)
0002:00006ac0+ _cnerrs
0002:00006ac4+ _cpvt
0002:00006ac8+ _cerrflag
0002:00006acc+ _cchar
0002:00006ad0+ _clval
0002:00006ad4+ _cval
0001:000007f0* cerror_
0001:00000800  cparseInterface_
0001:00000b80+ cparse_
Module: ctree.obj(/mnt/sda5/.user/root/src/openwatcom-1.9/bld/wic/c/ctree.c)
0001:00002280  createTokenLabel_
0001:00002290  createListLabel_
0001:000022a0  createDeclInfoLabel_
0001:000022b0  isExternDecl_
0001:000022c0* createDeclListLabel_
0001:000022d0  createConstr0Label_
0001:00002300  createConstr1Label_
0001:00002340  createConstr2Label_
0001:00002380  createConstr3Label_
0001:000023d0  createConstr4Label_
0001:00002430  createCTreeRoot_
0001:00002450  createNULLCTree_
0001:00002460  createCTree1_
0001:00002470  createCTree2_
0001:00002480  getCTreeLabel_
0001:00002490* getCTreeChild1Label_
0001:000024a0* getCTreeChild2Label_
0001:000024b0  getCTreeChild1_
0001:000024c0  getCTreeChild2_
0001:000024d0  createDclrList_
0001:000024f0  addDclrList_
0001:00002540  createQualifierDeclInfo_
0001:00002560  createStgClassDeclInfo_
0001:000025a0  createDeclInfoENUM_
0001:000025c0  createDeclInfoSTRUCT_
0001:000025e0  createDeclInfoSCALAR_
0001:00002610  initNoTypeDecl_
0001:000026a0  combine2DeclInfo_
0001:000027b0  createDeclStructInfo_
0001:00002800  createDeclStructBody_
0001:00002820  addDeclInfoDclrList_
0001:00002830* setDeclDclr_
0001:00002840  addDeclDclr_
0001:00002860  addDeclPunct_
0001:00002870  createDeclList_
0001:00002890  addDeclList_
0001:000028a0  createDclr_
0001:00002900  isDclrFunc_
0001:00002910  isDclrPtr_
0001:00002930  getDclrName_
0001:00002940  addDclrPragmaModifier_
0001:00002990  addDclrMemModifier_
0001:00002a10  addDclrPtrModifier_
0001:00002a80  addDclrArray_
0001:00002ab0  addDclrFuncArgs_
0001:00002b00  addDclrInitializer_
0001:00002b30+ combine2Dclr_
0001:00002c50  createDclrPtr_
0001:00002c90  createDeclEnum_
0001:00002cc0  createEnumList_
0001:00002ce0  finishEnumListCreation_
0001:00002df0  addEnumList_
0001:00002e00  createEnumElem_
0001:00002e20  createEnumFromDefine_
0001:00002e80  addEnumElemBegPunct_
0001:00002e90  logMessage_
Module: dupzap.obj(/mnt/sda5/.user/root/src/openwatcom-1.9/bld/wic/c/dupzap.c)
0001:00003460* dupCTree_
0001:00003490* dupLabel_
0001:000034b0  dupDeclInfo_
0001:000034d0* dupDclr_
0001:00003500* dupDeclStructInfo_
0001:00003530* dupDeclStructBody_
0001:00003560* dupArrElem_
0001:00003590* dupDclrPtr_
0001:000035c0* dupDeclEnum_
0001:000035f0* dupEnumElem_
0001:00003620  dupToken_
0001:00003650  dupTokPos_
0001:000036f0  zapCTree_
0001:00003730* zapLabel_
0001:000037f0  zapDeclInfo_
0001:00003860  zapDclr_
0001:000038d0* zapDeclStructInfo_
0001:00003900  zapDeclStructBody_
0001:00003930* zapArrElem_
0001:00003960* zapDclrPtr_
0001:00003980* zapDeclEnum_
0001:000039b0* zapEnumElem_
0001:00003a00  zapTokPos_
0001:00003a50  zapTokens2_
0001:00003a70  zapTokens3_
0001:00003a80  zapToken_
Module: exptok.obj(/mnt/sda5/.user/root/src/openwatcom-1.9/bld/wic/c/exptok.c)
0002:00006d44+ __pushMacroCodeFirstToken
0001:00003a90  initExpandToken_
0001:00003ab0  zapExpandToken_
0001:00004250  getExpandToken_
Module: gentypes.obj(/mnt/sda5/.user/root/src/openwatcom-1.9/bld/wic/c/gentypes.c)
0001:000042f0  createSLList_
0001:000042f0* createWicStack_
0001:00004320  isEmptySLList_
0001:00004330  dupSLList_
0001:00004390  addSLListElem_
0001:000043c0  addBegSLListElem_
0001:000043c0* pushWicStackElem_
0001:000043e0  addBegSLListSLList_
0001:00004420  combine2SLList_
0001:00004460  insertSLListAfterCurrPosElem_
0001:000044a0  setCurrSLListPosElem_
0001:000044b0  getCurrSLListPosElem_
0001:000044d0  incCurrSLListPos_
0001:000044f0  rewindCurrSLListPos_
0001:00004500  forAllInSLList_
0001:00004520  zapSLList_
0001:00004570  unqueSLListElem_
Module: globals.obj(/mnt/sda5/.user/root/src/openwatcom-1.9/bld/wic/c/globals.c)
0002:000036b0  _g_commentList
0002:000036b4  _g_dirList
0002:000036b8  _g_currLineCode
0002:000036bc  _g_currLineNum
0002:000036c0  _g_currColNum
0002:000036c4  _g_currFileName
0002:000036c8  _g_currPos
0002:000036cc  _g_memUsed
0002:000036d0  _g_numSymbols
0002:000036d4  _g_debugCount
0002:000036d8  _g_dribbleCounter
0002:000036dc  _g_logList
0002:000036e0  _g_totalNumLines
0002:000036e4  _g_numErrNotDisp
0002:000036e8  _g_fileTable
0002:00006d50  _g_opt
Module: hash.obj(/mnt/sda5/.user/root/src/openwatcom-1.9/bld/wic/c/hash.c)
0001:000045e0  initHashTable_
0001:00004670  tabLookup_
0002:000036ec+ _tokenTable
Module: main.obj(/mnt/sda5/.user/root/src/openwatcom-1.9/bld/wic/c/main.c)
0001:000046c0+ initWicBasics_
0001:00004730+ doConversion_
0001:00004780  main_
0001:000047a0  wicExit_
Module: outfort.obj(/mnt/sda5/.user/root/src/openwatcom-1.9/bld/wic/c/outfort.c)
0002:00003e50  _printCTreeFortTable
0002:0000421c  _printExpandFortTable
0002:0000428c  _fortKeywordsTable
Module: outasm.obj(/mnt/sda5/.user/root/src/openwatcom-1.9/bld/wic/c/outasm.c)
0001:00005250+ getDeclIdName_
0001:00005290* getStructName_
0001:00005390+ getAsmPragmaName_
0001:000053f0+ getFuncMemTypeAsmName_
0002:00004754  _printCTreeAsmTable
0002:00004ab0  _printExpandAsmTable
0002:00004b20  _asmKeywordsTable
Module: output.obj(/mnt/sda5/.user/root/src/openwatcom-1.9/bld/wic/c/output.c)
0002:0000ca64+ _g_tlang
0001:00005950  createOUnitText_
0001:00005960  createOUnitTextId_
0001:00005980  createOUnitNewline_
0001:000059a0  createOUnitFromTok_
0001:00005a20+ addOUnitPrefix_
0001:00005a60  addOUnitPrePost_
0001:00005a70  addOUnitPostfix_
0001:00005aa0* zapOUnit_
0001:00005ab0+ addOUnitPostfixImmediate_
0001:00005b10  createOUnitDclrName_
0001:00005b70+ _outputCurrAsmLine_
0001:00005c70+ _outputCurrFortLine_
0001:00006160* _outputContinueLine_
0001:00006180+ _outputOUnit_
0001:000062d0+ _popFileStack_
0001:000063c0+ _popAllFiles_
0001:000063e0+ _pushFileStack_
0001:00006e60+ getTokDataStr_
0001:00007030+ getTokenStr_
0001:00007070  staticGetTokenStr_
0001:00007080  getTokListString_
0001:00007140  expandPushTree_
0001:000072d0+ getNextCTreeOUnit_
0001:000073e0  pushPrintStackParam_
0001:00007450+ pushPrintStackListParam_
0001:000074c0+ popPrintStack_
0001:00007540  initExpandPushListParam_
0001:00007560+ expandPushListParam_
0001:000075b0+ cmpTokPos_
0001:00007610  getDeclPos_
0001:00007660  paramListNotVoid_
0001:00007820  initPrinting_
0001:000078e0  initOutputSystem_
0001:000079c0  zapOutputSystem_
0001:000079d0  zapPrinting_
0001:000079f0+ printAll_
0001:00007ad0  outputZapAll_
0001:00007b50  outputZapEOF_
Module: preparse.obj(/mnt/sda5/.user/root/src/openwatcom-1.9/bld/wic/c/preparse.c)
0002:0000ce84+ _prepvt
0002:0000ce88+ _prenerrs
0002:0000ce8c+ _successfulExpand
0002:0000ce98+ _prelval
0002:0000ce9c+ _preval
0002:0000cea0+ _prechar
0002:0000cea8+ _expandThisLineHideErrors
0001:00007b70* preerror_
0001:00007b80  preparseInterface_
0001:00007ca0+ createDefineMacroCTree_
0001:00007db0+ eatPreDirList_
0001:00008130+ preparse_
0002:0000ceb0+ _preerrflag
Module: symtab.obj(/mnt/sda5/.user/root/src/openwatcom-1.9/bld/wic/c/symtab.c)
0001:00009960  SymInit_
0001:000099a0  SymFini_
0001:00009a30  SymFind_
0001:00009a70  SymAdd_
0001:00009d20  SymWalk_
Module: tables.obj(/mnt/sda5/.user/root/src/openwatcom-1.9/bld/wic/c/tables.c)
0001:00009dd0  initSymbolTable_
0001:00009df0  addSymbol_
0001:00009e40  findSymbol_
0001:00009e60+ zapSymbolTableElem_
0001:00009eb0  zapSymbolTable_
0001:00009ed0  createTabEntry_
0001:00009f20+ printSymTabElement_
0001:00009f80* printSymTab_
0001:00009fb0  createHTable_
0001:0000a000  addHTableElem_
0001:0000a0a0  findHTableElem_
0001:0000a100* walkHTable_
0001:0000a140  zapHTable_
0001:0000a1a0  getHTableStats_
0001:0000a1b0  stringHashFunc_
0001:0000a1e0  stringiHashFunc_
0001:0000a210* computeKey_
Module: token.obj(/mnt/sda5/.user/root/src/openwatcom-1.9/bld/wic/c/token.c)
0001:0000a3c0+ pushChar_
0001:0000a400* pushGetNextChar_
0001:0000a420+ popChars_
0001:0000a6d0  pushTokFile_
0001:0000a810  popTokFile_
0001:0000a860  initTokenizer_
0001:0000a8c0  zapTokenizer_
0001:0000a950+ scanId_
0001:0000b320  getNextToken_
0001:0000bc10  setTokPos_
0001:0000bc40  getTokDataType_
0001:0000bc70  getTokenIdName_
0001:0000bc80  getTokDataIdName_
0001:0000bc90  createToken_
0001:0000bcb0  createTokPos_
0001:0000bce0  createTokData_
0001:0000bd10  createEnumNumToken_
0001:0000bd50  createPLUSToken_
0001:0000bd80  createEQUALToken_
0001:0000bdb0  createIDTokenAfter_
0001:0000be00* createCommentToken_
0001:0000be30+ cmpTokData_
0001:0000be60  combine2TokPos_
0001:0000be80  combine2Token_
Module: trandecl.obj(/mnt/sda5/.user/root/src/openwatcom-1.9/bld/wic/c/trandecl.c)
0001:0000bf80+ createDeclTreeElem_
0001:0000bff0+ _get1stDclrName_
0001:0000c040+ _createUnnamedDeclStructDclrList_
0001:0000c670+ _pushDeclTree_
0001:0000c6d0+ _flattenDeclTree_
0001:0000c7a0+ _expandDeclDclrList_
0001:0000c8a0+ _checkNonTranslatableConstructs_
0001:0000c930  transformDecl_
Module: wicgener.obj(/mnt/sda5/.user/root/src/openwatcom-1.9/bld/wic/c/wicgener.c)
0002:0000626c+ _FingerMsg
0002:00006288  _WResRtns
0002:000062c0+ __debugSize
0002:000062c4+ __modifyMe
0001:0000c9a0  initWicResources_
0001:0000ca20+ getResStr_
0001:0000ca60  zapWicResources_
0001:0000ca70  initErrorFile_
0001:0000caa0  zapErrorFile_
0001:0000cac0+ logError_
0001:0000cb00  reportError_
0001:0000cd50* printMemUsage_
0001:0000cd70  outOfMemory_
0001:0000cd80+ BasicAlloc_
0001:0000cdd0  wicStrdup_
0001:0000ce20+ BasicFree_
0001:0000ce50  initMemory_
0001:0000ce80  zapMemory_
0001:0000ced0  checkMemory_
0001:0000cf10  printUsageAndExit_
0001:0000cfc0* incDebugCount_
0001:0000cff0* wicAssert_
0001:0000d020  debugOut_
0001:0000d020  zapDebug_
0001:0000d020  initDebug_
0001:0000d030  wicFclose_
0001:0000d060  wicFopen_
0001:0000d0c0  fileReadable_
0001:0000d0e0  dribble_
0001:0000d1e0+ wicPrintMessage_
0001:0000d240  setNewFileExt_
0001:0000d300  setDefaultExt_
Module: wicstr.obj(/mnt/sda5/.user/root/src/openwatcom-1.9/bld/wic/c/wicstr.c)
0001:0000d3a0  registerString_
0001:0000d490  zapString_
0001:0000d510  zapStringTable_
Module: fmem.obj(/mnt/sda5/.user/root/src/openwatcom-1.9/bld/wic/c/fmem.c)
0001:0000d560+ FMemMsg_
0001:0000d600  InitFMem_
0001:0000d640  FiniFMem_
0001:0000d6a0+ adjustSize_
0001:0000d6d0  FAlloc_
0001:0000d760  FFree_
Module: carver.obj(/mnt/sda5/.user/root/src/openwatcom-1.9/bld/wic/c/carver.c)
0001:0000d7a0* GuessCarverBlockSize_
0001:0000d910+ InitCarver_
0001:0000d990  CreateCarver_
0001:0000da60  AllocCarverElem_
0001:0000dae0  FreeCarverElem_
0001:0000db30  FiniCarver_
0001:0000dbd0  CarverDefaultPrintMsg_
Module: /mnt/sda5/.user/root/src/openwatcom-1.9/rel2/lib386/dos/clib3r.lib(sscanf.c)
0001:0000dc20+ vsscanf_
0001:0000dc50  sscanf_
Module: /mnt/sda5/.user/root/src/openwatcom-1.9/rel2/lib386/dos/clib3r.lib(_strcmp)
0001:0000dc80  strcmp_
Module: /mnt/sda5/.user/root/src/openwatcom-1.9/rel2/lib386/dos/clib3r.lib(strtok.c)
0001:0000ddc0  strtok_
Module: /mnt/sda5/.user/root/src/openwatcom-1.9/rel2/lib386/dos/clib3r.lib(splitpat.c)
0001:0000deb0  _splitpath_
Module: /mnt/sda5/.user/root/src/openwatcom-1.9/rel2/lib386/dos/clib3r.lib(makepath.c)
0001:0000dfa0  _makepath_
Module: /mnt/sda5/.user/root/src/openwatcom-1.9/rel2/lib386/dos/clib3r.lib(getenv.c)
0001:0000e150  getenv_
Module: /mnt/sda5/.user/root/src/openwatcom-1.9/rel2/lib386/dos/clib3r.lib(memset.c)
0001:0000e1e0  memset_
Module: /mnt/sda5/.user/root/src/openwatcom-1.9/rel2/lib386/dos/clib3r.lib(strncpy.c)
0001:0000e200  strncpy_
Module: /mnt/sda5/.user/root/src/openwatcom-1.9/rel2/lib386/dos/clib3r.lib(printf.c)
0001:0000e240  printf_
Module: /mnt/sda5/.user/root/src/openwatcom-1.9/rel2/lib386/dos/clib3r.lib(ioexit.c)
0001:0000e2d0  fcloseall_
0001:0000e2e0  __full_io_exit_
Module: /mnt/sda5/.user/root/src/openwatcom-1.9/rel2/lib386/dos/clib3r.lib(exit.c)
0001:0000e2ec+ __null_int23_exit_
0001:0000e2ed  exit_
0001:0000e319* _exit_
0002:000062d8+ ___int23_exit
0002:000062dc  ___FPE_handler_exit
Module: /mnt/sda5/.user/root/src/openwatcom-1.9/rel2/lib386/dos/clib3r.lib(cstart)
0001:00000003* ___begtext
0002:00000000* __nullarea
0002:000062e0  __D16Infoseg
0002:000062e2  __x386_zero_base_selector
0001:0000e330  _cstart_
0001:0000e57e  __exit_
0001:0000e580  __do_exit_with_msg__
0001:0000e5c8  __GETDS
0001:0000e5c8  ___GETDSStart_
0001:0000e5d3  ___GETDSEnd_
Module: /mnt/sda5/.user/root/src/openwatcom-1.9/rel2/lib386/dos/clib3r.lib(fltused.c)
0002:000062e4  _fltused_
Module: /mnt/sda5/.user/root/src/openwatcom-1.9/rel2/lib386/dos/emu387.lib(386)
0001:0000e5e0  __init_387_emulator
0001:0000e5e5* __fini_387_emulator
Module: /mnt/sda5/.user/root/src/openwatcom-1.9/rel2/lib386/dos/clib3r.lib(_8087)
0002:000062e8  __8087
0002:000062e9  __real87
Module: /mnt/sda5/.user/root/src/openwatcom-1.9/rel2/lib386/dos/clib3r.lib(argcv.c)
0002:0000def4  __argc
0002:0000def8  __argv
0002:0000defc  ___argc
0002:0000df00  ___argv
Module: /mnt/sda5/.user/root/src/openwatcom-1.9/rel2/lib386/dos/clib3r.lib(vfprintf.c)
0001:0000e5f0  vfprintf_
Module: /mnt/sda5/.user/root/src/openwatcom-1.9/rel2/lib386/dos/clib3r.lib(istable.c)
0002:000025d0  __IsTable
Module: /mnt/sda5/.user/root/src/openwatcom-1.9/rel2/lib386/dos/clib3r.lib(errno.c)
0001:0000e600  __get_errno_ptr_
0001:0000e610  __get_doserrno_ptr_
0002:0000df04+ _errno
0002:0000df08+ __doserrno
Module: /mnt/sda5/.user/root/src/openwatcom-1.9/rel2/lib386/dos/clib3r.lib(strerror.c)
0001:0000e620  strerror_
0001:0000e640* _strerror_
0002:000062ec+ __sys_errlist
0002:00006390+ __sys_nerr
Module: /mnt/sda5/.user/root/src/openwatcom-1.9/rel2/lib386/dos/clib3r.lib(sprintf.c)
0001:0000e710  sprintf_
Module: /mnt/sda5/.user/root/src/openwatcom-1.9/rel2/lib386/dos/math387r.lib(fchop87)
0001:0000e734  __CHP
Module: /mnt/sda5/.user/root/src/openwatcom-1.9/rel2/lib386/dos/clib3r.lib(stricmp.c)
0001:0000e750  stricmp_
Module: /mnt/sda5/.user/root/src/openwatcom-1.9/rel2/lib386/dos/clib3r.lib(nmalloc.c)
0001:0000e790  _nmalloc_
0001:0000e790  malloc_
0002:00006394  ___nheapbeg
0002:00006398  ___MiniHeapRover
0002:0000639c  ___LargestSizeB4MiniHeapRover
Module: /mnt/sda5/.user/root/src/openwatcom-1.9/rel2/lib386/dos/clib3r.lib(nfree.c)
0001:0000e890  _nfree_
0001:0000e890  free_
0002:0000e00c  ___MiniHeapFreeRover
Module: /mnt/sda5/.user/root/src/openwatcom-1.9/rel2/lib386/dos/clib3r.lib(stack386.c)
0001:0000e990  stackavail_
Module: /mnt/sda5/.user/root/src/openwatcom-1.9/rel2/lib386/dos/clib3r.lib(stk)
0001:0000e9b7* __STK
0001:0000e9a4* __CHK
0001:0000e9b4  __GRO
0001:0000e9d5  __STKOVERFLOW_
Module: /mnt/sda5/.user/root/src/openwatcom-1.9/rel2/lib386/dos/clib3r.lib(toupper.c)
0001:0000e9f0  toupper_
Module: /mnt/sda5/.user/root/src/openwatcom-1.9/rel2/lib386/dos/clib3r.lib(fgetc.c)
0001:0000ea00+ __fill_buffer_
0001:0000eb00  fgetc_
Module: /mnt/sda5/.user/root/src/openwatcom-1.9/rel2/lib386/dos/clib3r.lib(fseek.c)
0001:0000ebf0  fseek_
Module: /mnt/sda5/.user/root/src/openwatcom-1.9/rel2/lib386/dos/clib3r.lib(ftell.c)
0001:0000ecf0  ftell_
Module: /mnt/sda5/.user/root/src/openwatcom-1.9/rel2/lib386/dos/clib3r.lib(open.c)
0001:0000ef80  open_
0001:0000efa0  sopen_
Module: /mnt/sda5/.user/root/src/openwatcom-1.9/rel2/lib386/dos/clib3r.lib(close.c)
0001:0000efd0  close_
Module: /mnt/sda5/.user/root/src/openwatcom-1.9/rel2/lib386/dos/clib3r.lib(write.c)
0001:0000f0f0  write_
Module: /mnt/sda5/.user/root/src/openwatcom-1.9/rel2/lib386/dos/clib3r.lib(read.c)
0001:0000f330  read_
Module: /mnt/sda5/.user/root/src/openwatcom-1.9/rel2/lib386/dos/clib3r.lib(tell.c)
0001:0000f460  tell_
Module: /mnt/sda5/.user/root/src/openwatcom-1.9/rel2/lib386/dos/clib3r.lib(lseek.c)
0001:0000f480  lseek_
Module: /mnt/sda5/.user/root/src/openwatcom-1.9/bld/sdk/rc/wres/small386/ms_r/wres.lib(loadfind.c)
0001:0000f4b0  FindResources_
0002:000063b4  _FileShift
Module: /mnt/sda5/.user/root/src/openwatcom-1.9/bld/sdk/rc/wres/small386/ms_r/wres.lib(loadstr.c)
0001:0000f6f8+ WResLoadString2_
0001:0000f7a8  WResLoadString_
0001:0000f7c0* OpenResFile_
0001:0000f7d0+ InitResources2_
0001:0000f7f8  InitResources_
0001:0000f808* CloseResFile2_
0001:0000f814  CloseResFile_
0001:0000f82c* LoadstrInitStatics_
0002:0000e010+ _MainDir
Module: /mnt/sda5/.user/root/src/openwatcom-1.9/rel2/lib386/dos/clib3r.lib(wrlang.c)
0001:0000f840  _WResLanguage_
Module: /mnt/sda5/.user/root/src/openwatcom-1.9/rel2/lib386/dos/clib3r.lib(iob.c)
0002:000063b8  ___iob
0002:000065c0  __fmode
0002:0000e014  ___OpenStreams
0002:0000e018  ___ClosedStreams
Module: /mnt/sda5/.user/root/src/openwatcom-1.9/rel2/lib386/dos/clib3r.lib(fprintf.c)
0001:0000f970  fprintf_
Module: /mnt/sda5/.user/root/src/openwatcom-1.9/rel2/lib386/dos/clib3r.lib(vsprintf.c)
0001:0000f9c0  vsprintf_
Module: /mnt/sda5/.user/root/src/openwatcom-1.9/rel2/lib386/dos/clib3r.lib(nmsize.c)
0001:0000f9e0  _nmsize_
0001:0000f9e0  _msize_
Module: /mnt/sda5/.user/root/src/openwatcom-1.9/rel2/lib386/dos/clib3r.lib(nheapset.c)
0001:0000f9f0* _nheapset_
0001:0000f9f0  _heapset_
Module: /mnt/sda5/.user/root/src/openwatcom-1.9/rel2/lib386/dos/clib3r.lib(nheapwal.c)
0001:0000fa60  _heapwalk_
0001:0000fa70  __NHeapWalk_
0001:0000fb20* _nheapwalk_
Module: /mnt/sda5/.user/root/src/openwatcom-1.9/rel2/lib386/dos/clib3r.lib(fclose.c)
0001:0000fb30  __doclose_
0001:0000fbb0  __shutdown_stream_
0001:0000fbd0  fclose_
0002:0000e01c+ ___RmTmpFileFn
Module: /mnt/sda5/.user/root/src/openwatcom-1.9/rel2/lib386/dos/clib3r.lib(fopen.c)
0001:0000fc00+ __open_flags_
0001:0000fe00+ _fsopen_
0001:0000fe50  fopen_
0001:0000fed0* freopen_
Module: /mnt/sda5/.user/root/src/openwatcom-1.9/rel2/lib386/dos/clib3r.lib(accss.c)
0001:0000ff30  access_
Module: /mnt/sda5/.user/root/src/openwatcom-1.9/rel2/lib386/dos/clib3r.lib(cprintf.c)
0001:0000ff90* vcprintf_
0001:0000ffb0  cprintf_
Module: /mnt/sda5/.user/root/src/openwatcom-1.9/rel2/lib386/dos/clib3r.lib(fflush.c)
0001:0000ffe0  fflush_
Module: /mnt/sda5/.user/root/src/openwatcom-1.9/rel2/lib386/dos/clib3r.lib(memmove.c)
0001:0000fff0  memmove_
Module: /mnt/sda5/.user/root/src/openwatcom-1.9/rel2/lib386/dos/clib3r.lib(scnf.c)
0001:00010d70  __scnf_
Module: /mnt/sda5/.user/root/src/openwatcom-1.9/rel2/lib386/dos/clib3r.lib(setbits.c)
0001:00010fe0  __setbits_
Module: /mnt/sda5/.user/root/src/openwatcom-1.9/rel2/lib386/dos/clib3r.lib(bits.c)
0002:000026d4  __Bits
Module: /mnt/sda5/.user/root/src/openwatcom-1.9/rel2/lib386/dos/clib3r.lib(mbsnccnt.c)
0001:00011020  _mbsnccnt_
Module: /mnt/sda5/.user/root/src/openwatcom-1.9/rel2/lib386/dos/clib3r.lib(mbsncpy.c)
0001:00011050  _mbsncpy_
Module: /mnt/sda5/.user/root/src/openwatcom-1.9/rel2/lib386/dos/clib3r.lib(mbsnbcnt.c)
0001:00011070  _mbsnbcnt_
Module: /mnt/sda5/.user/root/src/openwatcom-1.9/rel2/lib386/dos/clib3r.lib(mbsnextc.c)
0001:000110e0  _mbsnextc_
Module: /mnt/sda5/.user/root/src/openwatcom-1.9/rel2/lib386/dos/clib3r.lib(mbsinc.c)
0001:00011120  _mbsinc_
Module: /mnt/sda5/.user/root/src/openwatcom-1.9/rel2/lib386/dos/clib3r.lib(mbconv.c)
0001:00011150  _mbvtop_
Module: /mnt/sda5/.user/root/src/openwatcom-1.9/rel2/lib386/dos/clib3r.lib(mbclen.c)
0001:00011170  _mbclen_
Module: /mnt/sda5/.user/root/src/openwatcom-1.9/rel2/lib386/dos/clib3r.lib(mbsdec.c)
0001:000111a0  _mbsdec_
Module: /mnt/sda5/.user/root/src/openwatcom-1.9/rel2/lib386/dos/clib3r.lib(environ.c)
0002:0000e020  ___env_mask
0002:0000e024  _environ
0002:0000e028* __wenviron
Module: /mnt/sda5/.user/root/src/openwatcom-1.9/rel2/lib386/dos/clib3r.lib(mbterm.c)
0001:00011220  _mbterm_
Module: /mnt/sda5/.user/root/src/openwatcom-1.9/rel2/lib386/dos/clib3r.lib(mbcupper.c)
0001:00011260  _mbctoupper_
Module: /mnt/sda5/.user/root/src/openwatcom-1.9/rel2/lib386/dos/clib3r.lib(__stos)
0001:00011280  __STOSB
0001:000112b7* __STOSD
Module: /mnt/sda5/.user/root/src/openwatcom-1.9/rel2/lib386/dos/clib3r.lib(fprtf.c)
0001:00011350  __fprtf_
Module: /mnt/sda5/.user/root/src/openwatcom-1.9/rel2/lib386/dos/clib3r.lib(freefp.c)
0001:000113f0  __freefp_
0001:00011430  __purgefp_
Module: /mnt/sda5/.user/root/src/openwatcom-1.9/rel2/lib386/dos/clib3r.lib(initrtns.c)
0001:00011470  __InitRtns
0001:000114c0  __FiniRtns
Module: /mnt/sda5/.user/root/src/openwatcom-1.9/rel2/lib386/dos/clib3r.lib(cmain386.c)
0001:00011520  __CMain
Module: /mnt/sda5/.user/root/src/openwatcom-1.9/rel2/lib386/dos/clib3r.lib(dosseg)
0000:00001234  __DOSseg__
Module: /mnt/sda5/.user/root/src/openwatcom-1.9/rel2/lib386/dos/clib3r.lib(crwdata)
0002:000065ff  __osmajor
0002:00006600  __osminor
0002:000065d4  __psp
0002:000065f6  __Extender
0002:000065f7  __ExtenderSubtype
0002:000065f8  __X32VM
0002:000065d8* __x386_stacklow
0002:000065cc  __LpCmdLine
0002:000065d0  __LpPgmName
0002:000065c4  __dynend
0002:000065c8  __curbrk
0002:000065d8  __STACKLOW
0002:000065dc  __STACKTOP
0002:000065e0  __ASTACKSIZ
0002:000065e4  __ASTACKPTR
0002:000065e8  __cbyte
0002:000065ec* __cbyte2
0002:000065f0  __child
0002:000065f9  __Envptr
0002:000065fd  __Envseg
0002:000065f4  __no87
0002:00006601  ___FPE_handler
Module: /mnt/sda5/.user/root/src/openwatcom-1.9/rel2/lib386/dos/clib3r.lib(uselfn.c)
0002:00006608  ___uselfn
Module: /mnt/sda5/.user/root/src/openwatcom-1.9/rel2/lib386/dos/clib3r.lib(setefg.c)
0001:00011570  __setEFGfmt_
Module: /mnt/sda5/.user/root/src/openwatcom-1.9/rel2/lib386/dos/clib3r.lib(dosinite.asm)
0001:00011586  __sys_init_387_emulator
0001:000116b6  __sys_fini_387_emulator
Module: /mnt/sda5/.user/root/src/openwatcom-1.9/rel2/lib386/dos/clib3r.lib(chk8087.c)
0001:00011790* _fpreset_
0001:000117b0+ __init_8087_
0001:000117f0+ __default_sigfpe_handler_
0001:00011810  __chk8087_
Module: /mnt/sda5/.user/root/src/openwatcom-1.9/rel2/lib386/dos/clib3r.lib(initargv.c)
0001:00011880  __Init_Argv_
0001:000118d0+ _getargv_
0001:00011a70  __Fini_Argv_
Module: /mnt/sda5/.user/root/src/openwatcom-1.9/rel2/lib386/dos/clib3r.lib(nmemneed.c)
0001:00011a80  __nmemneed_
Module: /mnt/sda5/.user/root/src/openwatcom-1.9/rel2/lib386/dos/clib3r.lib(mem.c)
0001:00011a90  __MemAllocator
0001:00011b40  __MemFree
Module: /mnt/sda5/.user/root/src/openwatcom-1.9/rel2/lib386/dos/clib3r.lib(grownear.c)
0001:00011d00+ __FreeDPMIBlocks_
0001:00011d70  __ReAllocDPMIBlock_
0001:00011f00+ __LastFree_
0001:00012170  __ExpandDGROUP_
Module: /mnt/sda5/.user/root/src/openwatcom-1.9/rel2/lib386/dos/clib3r.lib(xmsg.c)
0001:000122c0* __exit_with_msg_
0001:000122d0  __fatal_runtime_error_
Module: /mnt/sda5/.user/root/src/openwatcom-1.9/rel2/lib386/dos/clib3r.lib(flushall.c)
0001:000122f0  __flushall_
0001:00012330  flushall_
Module: /mnt/sda5/.user/root/src/openwatcom-1.9/rel2/lib386/dos/clib3r.lib(gtche.c)
0001:00012340  getche_
Module: /mnt/sda5/.user/root/src/openwatcom-1.9/rel2/lib386/dos/clib3r.lib(ioalloc.c)
0001:00012360  __ioalloc_
Module: /mnt/sda5/.user/root/src/openwatcom-1.9/rel2/lib386/dos/clib3r.lib(qread.c)
0001:00012400  __qread_
Module: /mnt/sda5/.user/root/src/openwatcom-1.9/rel2/lib386/dos/clib3r.lib(seterrno.c)
0001:00012421  __set_errno_
0001:0001242d* __set_EDOM_
0001:00012439  __set_ERANGE_
0001:00012445* __set_EINVAL_
0001:00012456  __set_doserrno_
Module: /mnt/sda5/.user/root/src/openwatcom-1.9/rel2/lib386/dos/clib3r.lib(flush.c)
0001:00012470  __flush_
Module: /mnt/sda5/.user/root/src/openwatcom-1.9/rel2/lib386/dos/clib3r.lib(opendos.c)
0001:00012560  _dos_open_
Module: /mnt/sda5/.user/root/src/openwatcom-1.9/rel2/lib386/dos/clib3r.lib(iomode.c)
0001:00012580  __GetIOMode_
0001:000125a0  __SetIOMode_nogrow_
0002:00006658  ___NFiles
0002:0000665c  ___init_mode
0002:000066ac  ___io_mode
Module: /mnt/sda5/.user/root/src/openwatcom-1.9/rel2/lib386/dos/clib3r.lib(isatt.c)
0001:000125c0  isatty_
Module: /mnt/sda5/.user/root/src/openwatcom-1.9/rel2/lib386/dos/clib3r.lib(dosret.c)
0001:000125e0  _dosretax_
0001:000125f0* _dosret0_
0001:00012600  __set_errno_dos_
0001:00012680* __set_errno_dos_reterr_
Module: /mnt/sda5/.user/root/src/openwatcom-1.9/rel2/lib386/dos/clib3r.lib(umaskval.c)
0002:000066c4  ___umaskval
Module: /mnt/sda5/.user/root/src/openwatcom-1.9/rel2/lib386/dos/clib3r.lib(creatdos.c)
0001:00012690  _dos_creat_
0001:000126b0* _dos_creatnew_
Module: /mnt/sda5/.user/root/src/openwatcom-1.9/rel2/lib386/dos/clib3r.lib(stiomode.c)
0001:000126d0+ __grow_iomode_
0001:00012790+ __shrink_iomode_
0001:000127c0  __SetIOMode_
Module: /mnt/sda5/.user/root/src/openwatcom-1.9/rel2/lib386/dos/clib3r.lib(_clse.c)
0001:00012830  __close_
Module: /mnt/sda5/.user/root/src/openwatcom-1.9/rel2/lib386/dos/clib3r.lib(__lseek.c)
0001:00012880  __lseek_
Module: /mnt/sda5/.user/root/src/openwatcom-1.9/rel2/lib386/dos/clib3r.lib(iomodtty.c)
0001:000128d0  __ChkTTYIOMode_
0001:00012910* __IOMode_
Module: /mnt/sda5/.user/root/src/openwatcom-1.9/bld/sdk/rc/wres/small386/ms_r/wres.lib(wriidfn.c)
0001:00012930  WResInitIDFromNum_
Module: /mnt/sda5/.user/root/src/openwatcom-1.9/bld/sdk/rc/wres/small386/ms_r/wres.lib(wrfindrs.c)
0001:00012940  __FindType_
0001:00012964  __FindRes_
0001:00012988  __FindLang_
0001:000129c4  WResFindResource_
Module: /mnt/sda5/.user/root/src/openwatcom-1.9/bld/sdk/rc/wres/small386/ms_r/wres.lib(wrgetli.c)
0001:00012a40  WResGetLangInfo_
0001:00012a54* WResGetFileInfo_
Module: /mnt/sda5/.user/root/src/openwatcom-1.9/bld/sdk/rc/wres/small386/ms_r/wres.lib(ropenfro.c)
0001:00012a70  ResOpenFileRO_
Module: /mnt/sda5/.user/root/src/openwatcom-1.9/bld/sdk/rc/wres/small386/ms_r/wres.lib(wrinitdi.c)
0001:00012ac0  WResInitDir_
Module: /mnt/sda5/.user/root/src/openwatcom-1.9/bld/sdk/rc/wres/small386/ms_r/wres.lib(wrreaddi.c)
0001:0001324c  WResReadDir_
0001:00013258+ WResReadDir2_
Module: /mnt/sda5/.user/root/src/openwatcom-1.9/bld/sdk/rc/wres/small386/ms_r/wres.lib(wrfreedi.c)
0001:00013310+ __FreeLangList_
0001:0001333c+ __FreeResList_
0001:00013374  __FreeTypeList_
0001:000133ac  WResFreeDir_
Module: /mnt/sda5/.user/root/src/openwatcom-1.9/bld/sdk/rc/wres/small386/ms_r/wres.lib(rclosef.c)
0001:000133d0  ResCloseFile_
Module: /mnt/sda5/.user/root/src/openwatcom-1.9/rel2/lib386/dos/clib3r.lib(intr.c)
0001:000133f0  intr_
Module: /mnt/sda5/.user/root/src/openwatcom-1.9/rel2/lib386/dos/clib3r.lib(initfile.c)
0001:00013400  __InitFiles_
Module: /mnt/sda5/.user/root/src/openwatcom-1.9/rel2/lib386/dos/clib3r.lib(prtf.c)
0001:000134a0  __prtf_
Module: /mnt/sda5/.user/root/src/openwatcom-1.9/rel2/lib386/dos/clib3r.lib(nheapchk.c)
0001:00014430* _nheapchk_
0001:00014430  _heapchk_
0002:0000e034+ ___nheapchk_current
Module: /mnt/sda5/.user/root/src/openwatcom-1.9/rel2/lib386/dos/clib3r.lib(comtflag.c)
0001:000144b0* __set_commode_
0002:000066c8  __commode
Module: /mnt/sda5/.user/root/src/openwatcom-1.9/rel2/lib386/dos/clib3r.lib(tolower.c)
0001:000144c0  tolower_
Module: /mnt/sda5/.user/root/src/openwatcom-1.9/rel2/lib386/dos/clib3r.lib(chktty.c)
0001:000144d0  __chktty_
Module: /mnt/sda5/.user/root/src/openwatcom-1.9/rel2/lib386/dos/clib3r.lib(allocfp.c)
0001:00014510  __allocfp_
Module: /mnt/sda5/.user/root/src/openwatcom-1.9/rel2/lib386/dos/clib3r.lib(gfattdos.c)
0001:000145d0  _dos_getfileattr_
Module: /mnt/sda5/.user/root/src/openwatcom-1.9/rel2/lib386/dos/clib3r.lib(putch.c)
0001:000145f0  putch_
Module: /mnt/sda5/.user/root/src/openwatcom-1.9/rel2/lib386/dos/clib3r.lib(mbisdbcs.c)
0002:0000e038  ___IsDBCS
Module: /mnt/sda5/.user/root/src/openwatcom-1.9/rel2/lib386/dos/clib3r.lib(mbislead.c)
0001:00014600* _ismbblead_
0002:0000e03c  ___MBCSIsTable
Module: /mnt/sda5/.user/root/src/openwatcom-1.9/rel2/lib386/dos/clib3r.lib(mbtowc.c)
0001:00014620  mbtowc_
Module: /mnt/sda5/.user/root/src/openwatcom-1.9/rel2/lib386/dos/clib3r.lib(noefgfmt.c)
0002:000066cc  ___EFG_printf
0002:000066d0  ___EFG_scanf
Module: /mnt/sda5/.user/root/src/openwatcom-1.9/rel2/lib386/dos/clib3r.lib(fdfs386)
0001:000146f4  __FDFS
Module: /mnt/sda5/.user/root/src/openwatcom-1.9/rel2/lib386/dos/clib3r.lib(i8m)
0001:00014740* __I8M
0001:00014740  __U8M
Module: /mnt/sda5/.user/root/src/openwatcom-1.9/rel2/lib386/dos/clib3r.lib(mbsnbcpy.c)
0001:00014760  _mbsnbcpy_
Module: /mnt/sda5/.user/root/src/openwatcom-1.9/rel2/lib386/dos/clib3r.lib(setenvp.c)
0001:000147c0  __setenvp_
0001:000148a0  __freeenvp_
Module: /mnt/sda5/.user/root/src/openwatcom-1.9/rel2/lib386/dos/clib3r.lib(mbinit.c)
0001:00014927  __mbinit_
0001:000149f8+ dos_get_dbcs_lead_table_
0001:00014aec+ dos_get_code_page_
0002:000066d4  ___MBCodePage
Module: /mnt/sda5/.user/root/src/openwatcom-1.9/rel2/lib386/dos/clib3r.lib(mbdtoupp.c)
0001:00014c90  _mbdtoupper_
Module: /mnt/sda5/.user/root/src/openwatcom-1.9/rel2/lib386/dos/clib3r.lib(fputc.c)
0001:00014cb0  fputc_
Module: /mnt/sda5/.user/root/src/openwatcom-1.9/rel2/lib386/dos/clib3r.lib(sgdef086)
0002:00006a58  __Start_XI
0002:00006a9a  __End_XI
0002:00006a9a  __Start_YI
0002:00006abe  __End_YI
Module: /mnt/sda5/.user/root/src/openwatcom-1.9/rel2/lib386/dos/clib3r.lib(cinit.c)
0001:00014d70  __CommonInit_
Module: /mnt/sda5/.user/root/src/openwatcom-1.9/rel2/lib386/dos/clib3r.lib(___argc.c)
0002:0000e144  ____Argc
0002:0000e148  ____Argv
Module: /mnt/sda5/.user/root/src/openwatcom-1.9/rel2/lib386/dos/math387r.lib(efgfmt.c)
0001:00014dd0  _EFG_Format_
Module: /mnt/sda5/.user/root/src/openwatcom-1.9/rel2/lib386/dos/math387r.lib(cnvs2d.c)
0001:00014f40  __cnvs2d_
Module: /mnt/sda5/.user/root/src/openwatcom-1.9/rel2/lib386/dos/emu387.lib(emu387)
0001:00015310  __int7_pl3
0001:00015334* __int7_X32VM
0001:00015380  __int7
Module: /mnt/sda5/.user/root/src/openwatcom-1.9/rel2/lib386/dos/clib3r.lib(hook387.c)
0001:000184c0  __hook387
0001:00018570  __unhook387
Module: /mnt/sda5/.user/root/src/openwatcom-1.9/rel2/lib386/dos/clib3r.lib(8087cw.c)
0002:0000675c  __8087cw
Module: /mnt/sda5/.user/root/src/openwatcom-1.9/rel2/lib386/dos/clib3r.lib(save8087.c)
0002:00006760  ___Save8087
0002:00006764  ___Rest8087
Module: /mnt/sda5/.user/root/src/openwatcom-1.9/rel2/lib386/dos/clib3r.lib(init8087)
0001:000185b4  __x87id
Module: /mnt/sda5/.user/root/src/openwatcom-1.9/rel2/lib386/dos/clib3r.lib(grabfp87.c)
0001:000185f0  __GrabFP87_
Module: /mnt/sda5/.user/root/src/openwatcom-1.9/rel2/lib386/dos/clib3r.lib(histsplt.c)
0002:0000e1cc  ___historical_splitparms
Module: /mnt/sda5/.user/root/src/openwatcom-1.9/rel2/lib386/dos/clib3r.lib(heapen.c)
0001:00018660* _heapenable_
0002:00006768  ___heap_enabled
Module: /mnt/sda5/.user/root/src/openwatcom-1.9/rel2/lib386/dos/clib3r.lib(minreal.c)
0002:0000e1d0  ___minreal
Module: /mnt/sda5/.user/root/src/openwatcom-1.9/rel2/lib386/dos/clib3r.lib(amblksiz.c)
0002:0000676c  __amblksiz
Module: /mnt/sda5/.user/root/src/openwatcom-1.9/rel2/lib386/dos/clib3r.lib(sbrk386.c)
0001:00018670* sbrk_
0001:00018750  __brk_
Module: /mnt/sda5/.user/root/src/openwatcom-1.9/rel2/lib386/dos/clib3r.lib(enterdb.c)
0001:00018870  __EnterWVIDEO_
0002:00006770+ ___WD_Present
Module: /mnt/sda5/.user/root/src/openwatcom-1.9/rel2/lib386/dos/clib3r.lib(qwrit.c)
0001:000188a0  __qwrite_
Module: /mnt/sda5/.user/root/src/openwatcom-1.9/rel2/lib386/dos/clib3r.lib(fsync.c)
0001:00018920  fsync_
Module: /mnt/sda5/.user/root/src/openwatcom-1.9/rel2/lib386/dos/clib3r.lib(doserror)
0001:00018928  __doserror_
Module: /mnt/sda5/.user/root/src/openwatcom-1.9/rel2/lib386/dos/clib3r.lib(nrealloc.c)
0001:00018940* _nrealloc_
0001:00018940  realloc_
Module: /mnt/sda5/.user/root/src/openwatcom-1.9/bld/sdk/rc/wres/small386/ms_r/wres.lib(wridcmp.c)
0001:000189e0  WResIDCmp_
Module: /mnt/sda5/.user/root/src/openwatcom-1.9/rel2/lib386/dos/clib3r.lib(setmd.c)
0001:00018a20  setmode_
Module: /mnt/sda5/.user/root/src/openwatcom-1.9/bld/sdk/rc/wres/small386/ms_r/wres.lib(wrerror.c)
0001:00018ae0  WresRecordError_
Module: /mnt/sda5/.user/root/src/openwatcom-1.9/bld/sdk/rc/wres/small386/ms_r/wres.lib(ralliae.c)
0001:00018af0  ResAddLLItemAtEnd_
Module: /mnt/sda5/.user/root/src/openwatcom-1.9/bld/sdk/rc/wres/small386/ms_r/wres.lib(wrrfrr.c)
0001:00018b20  WResReadFixedResRecord_
0001:00018b60  WResReadFixedResRecord1_
0001:00018ba0  WResReadFixedResRecord2_
Module: /mnt/sda5/.user/root/src/openwatcom-1.9/bld/sdk/rc/wres/small386/ms_r/wres.lib(wridexby.c)
0001:00018c20  WResIDExtraBytes_
Module: /mnt/sda5/.user/root/src/openwatcom-1.9/bld/sdk/rc/wres/small386/ms_r/wres.lib(wrrewrid.c)
0001:00018c30  WResReadExtraWResID_
Module: /mnt/sda5/.user/root/src/openwatcom-1.9/bld/sdk/rc/wres/small386/ms_r/wres.lib(wrrftr.c)
0001:00018c90  WResReadFixedTypeRecord_
0001:00018cd8  WResReadFixedTypeRecord2_
Module: /mnt/sda5/.user/root/src/openwatcom-1.9/bld/sdk/rc/wres/small386/ms_r/wres.lib(wrrhr.c)
0001:00018d50  WResReadHeaderRecord_
0001:00018dc8  WResReadExtHeader_
Module: /mnt/sda5/.user/root/src/openwatcom-1.9/bld/sdk/rc/wres/small386/ms_r/wres.lib(mrrdrh.c)
0001:00018e10  M32ResReadResourceHeader_
0001:00018f7c  MResReadResourceHeader_
Module: /mnt/sda5/.user/root/src/openwatcom-1.9/bld/sdk/rc/wres/small386/ms_r/wres.lib(wrfree.c)
0001:00019020  MResFreeResourceHeader_
Module: /mnt/sda5/.user/root/src/openwatcom-1.9/bld/sdk/rc/wres/small386/ms_r/wres.lib(wridfnoo.c)
0001:00019060  WResIDFromNameOrOrd_
Module: /mnt/sda5/.user/root/src/openwatcom-1.9/bld/sdk/rc/wres/small386/ms_r/wres.lib(wraddres.c)
0001:000191dc* WResAddResource_
0001:00019238  WResAddResource2_
Module: /mnt/sda5/.user/root/src/openwatcom-1.9/bld/sdk/rc/wres/small386/ms_r/wres.lib(wriswrf.c)
0001:00019360  WResFindResType_
0001:000193f8* WResIsWResFile_
Module: /mnt/sda5/.user/root/src/openwatcom-1.9/rel2/lib386/dos/clib3r.lib(int386xa)
0001:00019408* __int386x_
0001:00019464  _DoINTR_
Module: /mnt/sda5/.user/root/src/openwatcom-1.9/rel2/lib386/dos/clib3r.lib(wctomb.c)
0001:000197f0  wctomb_
Module: /mnt/sda5/.user/root/src/openwatcom-1.9/rel2/lib386/dos/clib3r.lib(itoa.c)
0001:00019820+ utoa_
0001:00019870  itoa_
Module: /mnt/sda5/.user/root/src/openwatcom-1.9/rel2/lib386/dos/clib3r.lib(strupr.c)
0001:000198a0  strupr_
Module: /mnt/sda5/.user/root/src/openwatcom-1.9/rel2/lib386/dos/clib3r.lib(lltoa.c)
0001:000198c0  ulltoa_
0001:00019930* lltoa_
Module: /mnt/sda5/.user/root/src/openwatcom-1.9/rel2/lib386/dos/clib3r.lib(ltoa.c)
0001:00019960  ultoa_
0001:000199b0* ltoa_
Module: /mnt/sda5/.user/root/src/openwatcom-1.9/rel2/lib386/dos/clib3r.lib(clearenv.c)
0001:000199e0  clearenv_
Module: /mnt/sda5/.user/root/src/openwatcom-1.9/rel2/lib386/dos/clib3r.lib(intdx386.c)
0001:00019a70  intdosx_
Module: /mnt/sda5/.user/root/src/openwatcom-1.9/rel2/lib386/dos/clib3r.lib(inirmsel.c)
0002:0000e1d4  __ExtenderRealModeSelector
Module: /mnt/sda5/.user/root/src/openwatcom-1.9/rel2/lib386/dos/clib3r.lib(dpmihost.c)
0001:00019bf0  __DPMI_hosted_
Module: /mnt/sda5/.user/root/src/openwatcom-1.9/rel2/lib386/dos/clib3r.lib(rtcntrl.c)
0001:00019c90* _SetLD64bit_
0001:00019ca0* _SetLD80bit_
0001:00019cb0  _LDisDouble_
Module: /mnt/sda5/.user/root/src/openwatcom-1.9/rel2/lib386/dos/math387r.lib(ldcvt.c)
0001:00019d9f  _LDScale10x_
0001:0001a36b  __LDcvt_
Module: /mnt/sda5/.user/root/src/openwatcom-1.9/rel2/lib386/dos/math387r.lib(strtod.c)
0001:0001acd2+ __Strtold_
0001:0001ae39  strtod_
Module: /mnt/sda5/.user/root/src/openwatcom-1.9/rel2/lib386/dos/clib3r.lib(fpexcept.c)
0001:0001af80  __FPE_exception_
Module: /mnt/sda5/.user/root/src/openwatcom-1.9/rel2/lib386/dos/clib3r.lib(fpe387)
0002:00006824  ___PMSeg
0002:00006826  ___PMAddr
0002:0000682a  ___RMAddr
0001:0001af88  __Init_FPE_handler_
0001:0001afc0  __Fini_FPE_handler_
Module: /mnt/sda5/.user/root/src/openwatcom-1.9/rel2/lib386/dos/clib3r.lib(fpeinth)
0001:0001affc  __FPEHandler_
0001:0001affc  ___FPEHandlerStart_
0001:0001b009  __FPE2Handler_
0001:0001b10b  ___FPEHandlerEnd_
Module: /mnt/sda5/.user/root/src/openwatcom-1.9/rel2/lib386/dos/clib3r.lib(filedos.c)
0001:0001b250* _dos_close_
0001:0001b260  _dos_commit_
Module: /mnt/sda5/.user/root/src/openwatcom-1.9/rel2/lib386/dos/clib3r.lib(nexpand.c)
0001:0001b270  _nexpand_
0001:0001b270* _expand_
0001:0001b2e0+ __HeapManager_expand_
Module: /mnt/sda5/.user/root/src/openwatcom-1.9/bld/sdk/rc/wres/small386/ms_r/wres.lib(wridnacm.c)
0001:0001b4f0  WResIDNameCmp_
Module: /mnt/sda5/.user/root/src/openwatcom-1.9/bld/sdk/rc/wres/small386/ms_r/wres.lib(resseek.c)
0001:0001b540* ResSeek_
0001:0001b560  ResPadDWord_
Module: /mnt/sda5/.user/root/src/openwatcom-1.9/bld/sdk/rc/wres/small386/ms_r/wres.lib(rduint32.c)
0001:0001b5c0  ResReadUint32_
Module: /mnt/sda5/.user/root/src/openwatcom-1.9/bld/sdk/rc/wres/small386/ms_r/wres.lib(rrnamoor.c)
0001:0001b610  ResReadNameOrOrdinal_
0001:0001b700  ResRead32NameOrOrdinal_
Module: /mnt/sda5/.user/root/src/openwatcom-1.9/bld/sdk/rc/wres/small386/ms_r/wres.lib(rduint16.c)
0001:0001b7f0  ResReadUint16_
Module: /mnt/sda5/.user/root/src/openwatcom-1.9/bld/sdk/rc/wres/small386/ms_r/wres.lib(wridfrst.c)
0001:0001b840  WResIDFromStr_
Module: /mnt/sda5/.user/root/src/openwatcom-1.9/bld/sdk/rc/wres/small386/ms_r/wres.lib(wridfrnu.c)
0001:0001b8c0  WResIDFromNum_
Module: /mnt/sda5/.user/root/src/openwatcom-1.9/bld/sdk/rc/wres/small386/ms_r/wres.lib(wrfirres.c)
0001:0001b920* WResFirstResource_
0001:0001b950  WResSetEmptyWindow_
0001:0001b96c  WResMakeWindow_
Module: /mnt/sda5/.user/root/src/openwatcom-1.9/rel2/lib386/dos/clib3r.lib(alphabet.c)
0002:000025a8  ___Alphabet
Module: /mnt/sda5/.user/root/src/openwatcom-1.9/rel2/lib386/dos/math387r.lib(ldclass.c)
0001:0001b980  __LDClass_
0001:0001b9d0* _FLClass_
Module: /mnt/sda5/.user/root/src/openwatcom-1.9/rel2/lib386/dos/math387r.lib(bufld386)
0001:0001b9e0  __ZBuf2LD
Module: /mnt/sda5/.user/root/src/openwatcom-1.9/rel2/lib386/dos/math387r.lib(inf_nan.c)
0002:000026dc* ___f_infinity
0002:000026e0* ___f_posqnan
0002:000026e4  ___d_infinity
0002:000026ec  ___d_posqnan
0002:000026f4* ___ld_infinity
0002:000026fc* ___ld_posqnan
Module: /mnt/sda5/.user/root/src/openwatcom-1.9/rel2/lib386/dos/clib3r.lib(hugeval.c)
0002:00002704  __HugeValue
Module: /mnt/sda5/.user/root/src/openwatcom-1.9/rel2/lib386/dos/clib3r.lib(fpephar)
0001:0001ba90  __Phar_hook_init_
0001:0001bb56  __Phar_hook_fini_
Module: /mnt/sda5/.user/root/src/openwatcom-1.9/rel2/lib386/dos/clib3r.lib(fpedos4g)
0001:0001bb84  __DOS4G_hook_init_
0001:0001bbb2  __DOS4G_hook_fini_
Module: /mnt/sda5/.user/root/src/openwatcom-1.9/bld/sdk/rc/wres/small386/ms_r/wres.lib(rduint8.c)
0001:0001bbd0  ResReadUint8_
Module: /mnt/sda5/.user/root/src/openwatcom-1.9/bld/sdk/rc/wres/small386/ms_r/wres.lib(rrdstr.c)
0001:0001bc20  ResReadString_
0001:0001bc90  ResRead32String_
Module: /mnt/sda5/.user/root/src/openwatcom-1.9/rel2/lib386/dos/clib3r.lib(fpeint.c)
0002:00006a4c  ___FPE_int
0002:00006a4d  ___IRQ_num
0002:00006a4e+ ___IRQ_int
0002:00006a4f  ___MST_pic
0002:00006a50+ ___SLV_pic
Module: /mnt/sda5/.user/root/src/openwatcom-1.9/bld/sdk/rc/wres/small386/ms_r/wres.lib(varstr.c)
0001:0001bd60  VarStringStart_
0001:0001bd94  VarStringAddChar_
0001:0001bdec  VarStringEnd_
Module: /mnt/sda5/.user/root/src/openwatcom-1.9/rel2/lib386/dos/clib3r.lib(nonibm.c)
0001:0001be90+ __is_nonIBM_
0002:00006a54  ___NonIBM


                        +----------------------+
                        |   Imported Symbols   |
                        +----------------------+

Symbol                              Module
======                              ======



                        +--------------------+
                        |   Libraries Used   |
                        +--------------------+

/mnt/sda5/.user/root/src/openwatcom-1.9/bld/sdk/rc/wres/small386/ms_r/wres.lib
/mnt/sda5/.user/root/src/openwatcom-1.9/rel2/lib386/dos/math387r.lib
/mnt/sda5/.user/root/src/openwatcom-1.9/rel2/lib386/dos/emu387.lib
/mnt/sda5/.user/root/src/openwatcom-1.9/rel2/lib386/dos/clib3r.lib


                        +-----------------------+
                        |   Linker Statistics   |
                        +-----------------------+

Stack size:  00010000 (65536.)
Memory size:  0003a0cb (237771.)
Entry point address: 0001:0000e330
Link time: 00:00.00
