Open Watcom Linker Version 1.9
Portions Copyright (c) 1985-2002 Sybase, Inc. All Rights Reserved.
Created on:       12/12/16 02:40:06
Executable Image: par.trp
creating a PE dynamic link library


                        +------------+
                        |   Groups   |
                        +------------+

Group                           Address              Size
=====                           =======              ====

DGROUP                          00404000             00001438



                        +--------------+
                        |   Segments   |
                        +--------------+

Segment                Class          Group          Address         Size
=======                =====          =====          =======         ====

BEGTEXT                CODE           AUTO           00401000        00000007
_TEXT                  CODE           AUTO           00401010        000029e9
_NULL                  BEGDATA        DGROUP         00404000        00000004
_AFTERNULL             BEGDATA        DGROUP         00404004        00000000
CONST                  DATA           DGROUP         00404004        000000c0
CONST2                 DATA           DGROUP         004040c4        0000000c
_DATA                  DATA           DGROUP         004040d0        00000268
XIB                    DATA           DGROUP         00404338        00000000
XI                     DATA           DGROUP         00404338        00000006
XIE                    DATA           DGROUP         0040433e        00000000
YIB                    DATA           DGROUP         0040433e        00000000
YI                     DATA           DGROUP         0040433e        00000006
YIE                    DATA           DGROUP         00404344        00000000
TIB                    DATA           DGROUP         00404344        00000000
TI                     DATA           DGROUP         00404344        00000000
TIE                    DATA           DGROUP         00404344        00000000
DATA                   DATA           DGROUP         00404344        00000000
_BSS                   BSS            DGROUP         00405000        00000438


                        +----------------+
                        |   Memory Map   |
                        +----------------+

* = unreferenced symbol
+ = symbol only referenced locally

Address        Symbol
=======        ======

Module: lnxstrt.obj(/mnt/sda5/.user/root/src/openwatcom-1.9/bld/trap/common/linux/lnxstrt.c)
00401010       TrapLoad_
00401030       _nmalloc_
00401040       malloc_
00401050*      _nrealloc_
00401060*      realloc_
00401070*      _nfree_
00401080       free_
00401090*      getenv_
004040c4+      _ImpInterface
00405000+      _Client
00405004+      _dbg_environ
Module: mxutil.obj(/mnt/sda5/.user/root/src/openwatcom-1.9/bld/trap/common/mxutil.c)
004010a0*      GetInPtr_
004010d0       GetOutPtr_
00401100*      GetTotalSize_
00405008       _In_Mx_Ptr
0040500c       _Out_Mx_Ptr
00405010       _Out_Mx_Num
00405011       _In_Mx_Num
Module: remote.obj(/mnt/sda5/.user/root/src/openwatcom-1.9/bld/trap/common/remote.c)
00401280       TrapInit_
004012f0       TrapRequest_
00401340       TrapFini_
Module: packet.obj(/mnt/sda5/.user/root/src/openwatcom-1.9/bld/trap/common/packet.c)
00401350       StartPacket_
00401360       PutPacket_
00401380*      PutBuffPacket_
004013a0       AddPacket_
004013f0       GetPacket_
00401410       RemovePacket_
00401460*      GetPacketBuffPtr_
00401470       MaxPacketSize_
Module: parlink.obj(/mnt/sda5/.user/root/src/openwatcom-1.9/bld/trap/par/c/parlink.c)
00401ce0       RemoteGet_
00401d30       RemotePut_
00401f70       RemoteConnect_
00402000       RemoteDisco_
00402040       RemoteLink_
00402160       RemoteUnLink_
Module: parlinux.obj(/mnt/sda5/.user/root/src/openwatcom-1.9/bld/trap/par/c/parlinux.c)
00402180       NumPrinters_
00402190       PrnAddress_
004021a0       AccessPorts_
004021c0       FreePorts_
00402210       InitSys_
00402290       FiniSys_
004022b0       Ticks_
Module: lnxnoth.obj(/mnt/sda5/.user/root/src/openwatcom-1.9/bld/trap/common/linux/lnxnoth.c)
004022d0       NothingToDo_
Module: /mnt/sda5/.user/root/src/openwatcom-1.9/bld/clib/library/linux.386/mf_r/clib3r.lib(ioperm.c)
004022e0       ioperm_
Module: /mnt/sda5/.user/root/src/openwatcom-1.9/bld/clib/library/linux.386/mf_r/clib3r.lib(printf.c)
00402310       printf_
Module: /mnt/sda5/.user/root/src/openwatcom-1.9/bld/clib/library/linux.386/mf_r/clib3r.lib(exit.c)
00402332       exit_
00402344*      _exit_
Module: /mnt/sda5/.user/root/src/openwatcom-1.9/bld/clib/library/linux.386/mf_r/clib3r.lib(clock.c)
00402350       clock_
Module: /mnt/sda5/.user/root/src/openwatcom-1.9/bld/clib/library/linux.386/mf_r/clib3r.lib(errno.c)
00402380       __get_errno_ptr_
0040542c+      _errno
Module: /mnt/sda5/.user/root/src/openwatcom-1.9/bld/clib/library/linux.386/mf_r/clib3r.lib(iob.c)
00404100       ___iob
00405430       ___OpenStreams
00405434       ___ClosedStreams
Module: /mnt/sda5/.user/root/src/openwatcom-1.9/bld/clib/library/linux.386/mf_r/clib3r.lib(fprtf.c)
004023b0       __fprtf_
Module: /mnt/sda5/.user/root/src/openwatcom-1.9/bld/clib/library/linux.386/mf_r/clib3r.lib(initrtns.c)
00402450*      __InitRtns
004024a0       __FiniRtns
Module: /mnt/sda5/.user/root/src/openwatcom-1.9/bld/clib/library/linux.386/mf_r/clib3r.lib(mainlnx.c)
004042c0+      ___FirstThreadData
004042c4+      ___GetThreadPtr
004042c8*      __AccessFileH
004042cc*      __ReleaseFileH
004042d0*      __AccessIOB
004042d4*      __ReleaseIOB
004042d8*      __AccessNHeap
004042dc*      __AccessFHeap
004042e0*      __ReleaseNHeap
004042e4*      __ReleaseFHeap
00402500*      __threadid_
00402530*      __LinuxInit_
00402540       __exit_
004042e8*      __AccessTDList
004042ec*      __ReleaseTDList
Module: /mnt/sda5/.user/root/src/openwatcom-1.9/bld/clib/library/linux.386/mf_r/clib3r.lib(times.c)
00402560       times_
Module: /mnt/sda5/.user/root/src/openwatcom-1.9/bld/clib/library/linux.386/mf_r/clib3r.lib(initfile.c)
004025c0       __InitFiles_
Module: /mnt/sda5/.user/root/src/openwatcom-1.9/bld/clib/library/linux.386/mf_r/clib3r.lib(ioexit.c)
004026c0*      fcloseall_
004026d0       __full_io_exit_
Module: /mnt/sda5/.user/root/src/openwatcom-1.9/bld/clib/library/linux.386/mf_r/clib3r.lib(fputc.c)
004026e0       fputc_
Module: /mnt/sda5/.user/root/src/openwatcom-1.9/bld/clib/library/linux.386/mf_r/clib3r.lib(ioalloc.c)
00402770       __ioalloc_
Module: /mnt/sda5/.user/root/src/openwatcom-1.9/bld/clib/library/linux.386/mf_r/clib3r.lib(prtf.c)
00402810       __prtf_
Module: /mnt/sda5/.user/root/src/openwatcom-1.9/bld/clib/library/linux.386/mf_r/clib3r.lib(flush.c)
00403330       __flush_
Module: /mnt/sda5/.user/root/src/openwatcom-1.9/bld/clib/library/linux.386/mf_r/clib3r.lib(segdefns)
00401003*      ___begtext
00404000*      __nullarea
00404338       __Start_XI
0040433e       __End_XI
0040433e       __Start_YI
00404344       __End_YI
Module: /mnt/sda5/.user/root/src/openwatcom-1.9/bld/clib/library/linux.386/mf_r/clib3r.lib(crwdata)
004042f8*      __LpCmdLine
004042fc*      __LpPgmName
004042f0*      __dynend
004042f4*      __curbrk
00404300       __STACKLOW
00404304*      __STACKTOP
00404308*      __ASTACKSIZ
0040430c*      __ASTACKPTR
00404310*      __cbyte
00404314*      __cbyte2
00404318*      __child
0040431e*      __Envptr
00404322*      __Envseg
0040431c*      __no87
00404324*      ___FPE_handler
Module: /mnt/sda5/.user/root/src/openwatcom-1.9/bld/clib/library/linux.386/mf_r/clib3r.lib(mthrdini.c)
00403400       __InitThreadData_
00404328*      ___ThreadDataSize
Module: /mnt/sda5/.user/root/src/openwatcom-1.9/bld/clib/library/linux.386/mf_r/clib3r.lib(sys_exit.c)
00403410       sys_exit_
Module: /mnt/sda5/.user/root/src/openwatcom-1.9/bld/clib/library/linux.386/mf_r/clib3r.lib(xmsglnx.c)
00403420+      __exit_with_msg_
00403470       __fatal_runtime_error_
Module: /mnt/sda5/.user/root/src/openwatcom-1.9/bld/clib/library/linux.386/mf_r/clib3r.lib(fclose.c)
00403490+      __doclose_
00403500       __shutdown_stream_
00403520*      fclose_
Module: /mnt/sda5/.user/root/src/openwatcom-1.9/bld/clib/library/linux.386/mf_r/clib3r.lib(freefp.c)
00403550       __freefp_
00403590       __purgefp_
Module: /mnt/sda5/.user/root/src/openwatcom-1.9/bld/clib/library/linux.386/mf_r/clib3r.lib(seterrno.c)
004035b2       __set_errno_
004035be*      __set_EDOM_
004035ca*      __set_ERANGE_
004035d6*      __set_EINVAL_
Module: /mnt/sda5/.user/root/src/openwatcom-1.9/bld/clib/library/linux.386/mf_r/clib3r.lib(chktty.c)
004035f0       __chktty_
Module: /mnt/sda5/.user/root/src/openwatcom-1.9/bld/clib/library/linux.386/mf_r/clib3r.lib(itoa.c)
00403620+      utoa_
00403670       itoa_
Module: /mnt/sda5/.user/root/src/openwatcom-1.9/bld/clib/library/linux.386/mf_r/clib3r.lib(strupr.c)
004036a0       strupr_
Module: /mnt/sda5/.user/root/src/openwatcom-1.9/bld/clib/library/linux.386/mf_r/clib3r.lib(noefgfmt.c)
0040432c       ___EFG_printf
00404330*      ___EFG_scanf
Module: /mnt/sda5/.user/root/src/openwatcom-1.9/bld/clib/library/linux.386/mf_r/clib3r.lib(lltoa.c)
00403710       ulltoa_
00403780*      lltoa_
Module: /mnt/sda5/.user/root/src/openwatcom-1.9/bld/clib/library/linux.386/mf_r/clib3r.lib(ltoa.c)
004037b0       ultoa_
00403800*      ltoa_
Module: /mnt/sda5/.user/root/src/openwatcom-1.9/bld/clib/library/linux.386/mf_r/clib3r.lib(__lseek.c)
00403830       __lseek_
Module: /mnt/sda5/.user/root/src/openwatcom-1.9/bld/clib/library/linux.386/mf_r/clib3r.lib(qwritunx.c)
00403860       __qwrite_
Module: /mnt/sda5/.user/root/src/openwatcom-1.9/bld/clib/library/linux.386/mf_r/clib3r.lib(fsync.c)
004038b0       fsync_
Module: /mnt/sda5/.user/root/src/openwatcom-1.9/bld/clib/library/linux.386/mf_r/clib3r.lib(dosseg)
00001234       __DOSseg__
Module: /mnt/sda5/.user/root/src/openwatcom-1.9/bld/clib/library/linux.386/mf_r/clib3r.lib(write.c)
004038e0       write_
Module: /mnt/sda5/.user/root/src/openwatcom-1.9/bld/clib/library/linux.386/mf_r/clib3r.lib(enterdb.c)
00403910       __EnterWVIDEO_
00404334+      ___WD_Present
Module: /mnt/sda5/.user/root/src/openwatcom-1.9/bld/clib/library/linux.386/mf_r/clib3r.lib(close.c)
00403940       close_
Module: /mnt/sda5/.user/root/src/openwatcom-1.9/bld/clib/library/linux.386/mf_r/clib3r.lib(isattlnx.c)
00403970       isatty_
Module: /mnt/sda5/.user/root/src/openwatcom-1.9/bld/clib/library/linux.386/mf_r/clib3r.lib(alphabet.c)
0040409c       ___Alphabet
Module: /mnt/sda5/.user/root/src/openwatcom-1.9/bld/clib/library/linux.386/mf_r/clib3r.lib(tcgattr.c)
004039b0       tcgetattr_
Module: /mnt/sda5/.user/root/src/openwatcom-1.9/bld/clib/library/linux.386/mf_r/clib3r.lib(ioctl.c)
004039c0       ioctl_


                        +----------------------+
                        |   Imported Symbols   |
                        +----------------------+

Symbol                              Module
======                              ======



                        +--------------------+
                        |   Libraries Used   |
                        +--------------------+

/mnt/sda5/.user/root/src/openwatcom-1.9/bld/clib/library/linux.386/mf_r/clib3r.lib


                        +-----------------------+
                        |   Linker Statistics   |
                        +-----------------------+

Stack size:  0000 (0.)
Memory size:  3e31 (15921.)
Entry point address: 00000000
Link time: 00:00.00
