Open Watcom Linker Version 1.9
Portions Copyright (c) 1985-2002 Sybase, Inc. All Rights Reserved.
Created on:       12/12/16 02:40:51
Executable Image: madaxp.dll
creating a Windows NT character-mode dynamic link library


                        +------------+
                        |   Groups   |
                        +------------+

Group                           Address              Size
=====                           =======              ====

DGROUP                          6eb07000             00000170



                        +--------------+
                        |   Segments   |
                        +--------------+

Segment                Class          Group          Address         Size
=======                =====          =====          =======         ====

_TEXT                  CODE           AUTO           6eb01000        00005543
CONST                  DATA           DGROUP         6eb07000        00000000
CONST2                 DATA           DGROUP         6eb07000        00000000
_DATA                  DATA           DGROUP         6eb07000        00000148
_BSS                   BSS            DGROUP         6eb07148        00000028


                        +----------------+
                        |   Memory Map   |
                        +----------------+

* = unreferenced symbol
+ = symbol only referenced locally

Address        Symbol
=======        ======

Module: madimp.obj(/mnt/sda5/.user/root/src/openwatcom-1.9/bld/mad/c/madimp.c)
6eb01000       MADLOAD
6eb01020       MCAlloc_
6eb01030*      MCRealloc_
6eb01040       MCFree_
6eb01050*      MCOpen_
6eb01060*      MCSeek_
6eb01070*      MCRead_
6eb01080*      MCClose_
6eb01090       MCReadMem_
6eb010c0*      MCWriteMem_
6eb010f0*      MCString_
6eb01100*      MCAddString_
6eb01110*      MCRadixPrefix_
6eb01120       MCNotify_
6eb01130       MCMachineData_
6eb01170       MCAddrToString_
6eb011b0       MCMemExpr_
6eb011c0*      MCAddrSection_
6eb011d0*      MCAddrOvlReturn_
6eb011e0       MCSystemConfig_
6eb011f0       MCTypeInfoForHost_
6eb01200       MCTypeConvert_
6eb01220       MCTypeToString_
6eb01240*      MCStatus_
6eb07000+      _MadImpInterface
6eb07148*      __nullarea
6eb0714c+      _MadClient
Module: disentry.obj(/mnt/sda5/.user/root/src/openwatcom-1.9/bld/ndisasm/core/c/disentry.c)
6eb01260       _AXPMaxInsName
6eb01261+      _DisStringTable
6eb017ac+      _DisInstructionTable
6eb0219c+      _DisRegisterTable
6eb0231e*      _DisRefTypeTable
6eb02332       _AXPRangeTable
6eb02364       _AXPRangeTablePos
6eb0236c+      _DisSelectorTable
6eb02830       SEX_
6eb02850+      DisGetString_
6eb028a0*      DisDummyHandler_
6eb028b0       DisInit_
6eb028d0       DisFini_
6eb028e0       DisDecodeInit_
6eb02940       DisDecode_
6eb02aa0+      DisAddReg_
6eb02ae0+      DisOpFormat_
6eb02cb0       DisFormat_
6eb02e10       DisInsNameMax_
6eb02e20*      DisInsSizeInc_
Module: disaxp.obj(/mnt/sda5/.user/root/src/openwatcom-1.9/bld/ndisasm/core/c/disaxp.c)
6eb02e74       _AXPData
6eb02ea0       AXPPal_
6eb02ef0       AXPMemory_
6eb02f80       AXPFPMemory_
6eb02f90       AXPMemoryLA_
6eb02fb0       AXPMemoryFC_
6eb02ff0       AXPJump_
6eb03030       AXPBranch_
6eb03070       AXPFPBranch_
6eb03080       AXPOperate_
6eb030e0       AXPOperateV_
6eb03100       AXPFPOperate_
6eb03140       AXPFPConvert_
6eb03240       AXPIEEEOperate_
6eb03260       AXPIEEECompare_
6eb03280       AXPIEEEConvert_
6eb032b0       AXPVAXOperate_
6eb032e0       AXPVAXConvert_
Module: axpaddr.obj(/mnt/sda5/.user/root/src/openwatcom-1.9/bld/mad/axp/c/axpaddr.c)
6eb03800       MIAddrAdd_
6eb03810       MIAddrComp_
6eb03830       MIAddrDiff_
6eb03840       MIAddrInterrupt_
6eb03840       MIAddrFlat_
6eb03840       MIAddrMap_
Module: axpctrl.obj(/mnt/sda5/.user/root/src/openwatcom-1.9/bld/mad/axp/c/axpctrl.c)
6eb03850       MIInit_
6eb03880       MIFini_
6eb03890       MIStateSize_
6eb038a0       MIStateInit_
6eb038d0       MIStateSet_
6eb038e0       MIStateCopy_
6eb07150       _MADState
Module: axptypes.obj(/mnt/sda5/.user/root/src/openwatcom-1.9/bld/mad/axp/c/axptypes.c)
6eb03a1c       _TypeArray
6eb03b30       MITypeWalk_
6eb03b80       MITypeName_
6eb03b90       MITypePreferredRadix_
6eb03bb0       MITypeInfo_
6eb03bf0       MITypeDefault_
6eb03db0       MITypeToString_
6eb03e40       MITypeForDIPType_
6eb03f30       MITypeConvert_
Module: axpreg.obj(/mnt/sda5/.user/root/src/openwatcom-1.9/bld/mad/axp/c/axpreg.c)
6eb03fce+      _NAME_invd
6eb03fd3+      _NAME_dzed
6eb03fd8+      _NAME_ovfd
6eb03fdd+      _NAME_inv
6eb03fe1+      _NAME_dze
6eb03fe5+      _NAME_ovf
6eb03fe9+      _NAME_unf
6eb03fed+      _NAME_ine
6eb03ff1+      _NAME_iov
6eb03ff5+      _NAME_dyn
6eb03ff9+      _NAME_sum
6eb040c0+      _NAME_mode
6eb040c5+      _NAME_ie
6eb040c8+      _NAME_irql
6eb04110+      _NAME_f0
6eb04113+      _NAME_f1
6eb04116+      _NAME_f2
6eb04119+      _NAME_f3
6eb0411c+      _NAME_f4
6eb0411f+      _NAME_f5
6eb04122+      _NAME_f6
6eb04125+      _NAME_f7
6eb04128+      _NAME_f8
6eb0412b+      _NAME_f9
6eb0412e+      _NAME_f10
6eb04132+      _NAME_f11
6eb04136+      _NAME_f12
6eb0413a+      _NAME_f13
6eb0413e+      _NAME_f14
6eb04142+      _NAME_f15
6eb04146+      _NAME_f16
6eb0414a+      _NAME_f17
6eb0414e+      _NAME_f18
6eb04152+      _NAME_f19
6eb04156+      _NAME_f20
6eb0415a+      _NAME_f21
6eb0415e+      _NAME_f22
6eb04162+      _NAME_f23
6eb04166+      _NAME_f24
6eb0416a+      _NAME_f25
6eb0416e+      _NAME_f26
6eb04172+      _NAME_f27
6eb04176+      _NAME_f28
6eb0417a+      _NAME_f29
6eb0417e+      _NAME_f30
6eb04182+      _NAME_f31
6eb04186+      _NAME_r0
6eb04189+      _NAME_r1
6eb0418c+      _NAME_r2
6eb0418f+      _NAME_r3
6eb04192+      _NAME_r4
6eb04195+      _NAME_r5
6eb04198+      _NAME_r6
6eb0419b+      _NAME_r7
6eb0419e+      _NAME_r8
6eb041a1+      _NAME_r9
6eb041a4+      _NAME_r10
6eb041a8+      _NAME_r11
6eb041ac+      _NAME_r12
6eb041b0+      _NAME_r13
6eb041b4+      _NAME_r14
6eb041b8+      _NAME_r15
6eb041bc+      _NAME_r16
6eb041c0+      _NAME_r17
6eb041c4+      _NAME_r18
6eb041c8+      _NAME_r19
6eb041cc+      _NAME_r20
6eb041d0+      _NAME_r21
6eb041d4+      _NAME_r22
6eb041d8+      _NAME_r23
6eb041dc+      _NAME_r24
6eb041e0+      _NAME_r25
6eb041e4+      _NAME_r26
6eb041e8+      _NAME_r27
6eb041ec+      _NAME_r28
6eb041f0+      _NAME_r29
6eb041f4+      _NAME_r30
6eb041f8+      _NAME_r31
6eb041fc+      _NAME_fpcr
6eb04201+      _NAME_v0
6eb04204+      _NAME_t0
6eb04207+      _NAME_t1
6eb0420a+      _NAME_t2
6eb0420d+      _NAME_t3
6eb04210+      _NAME_t4
6eb04213+      _NAME_t5
6eb04216+      _NAME_t6
6eb04219+      _NAME_t7
6eb0421c+      _NAME_s0
6eb0421f+      _NAME_s1
6eb04222+      _NAME_s2
6eb04225+      _NAME_s3
6eb04228+      _NAME_s4
6eb0422b+      _NAME_s5
6eb0422e+      _NAME_fp
6eb04231+      _NAME_a0
6eb04234+      _NAME_a1
6eb04237+      _NAME_a2
6eb0423a+      _NAME_a3
6eb0423d+      _NAME_a4
6eb04240+      _NAME_a5
6eb04243+      _NAME_t8
6eb04246+      _NAME_t9
6eb04249+      _NAME_t10
6eb0424d+      _NAME_t11
6eb04251+      _NAME_ra
6eb04254+      _NAME_t12
6eb04258+      _NAME_at
6eb0425b+      _NAME_gp
6eb0425e+      _NAME_sp
6eb04274       _RegList
6eb04930       GetPData_
6eb049a0       VariableFrame_
6eb04a10       MIRegistersSize_
6eb04a20       MIRegistersHost_
6eb04a30       MIRegSetDisplayGrouping_
6eb04a30       MIRegistersTarget_
6eb04a40       MIRegSetWalk_
6eb04a80       MIRegSetName_
6eb04a90       MIRegSetLevel_
6eb04d10       MIRegSetDisplayGetPiece_
6eb04d40       MIRegSetDisplayModify_
6eb04d90       MIRegModified_
6eb04e40       MIRegInspectAddr_
6eb04ea0       MIRegSetDisplayToggleList_
6eb04eb0       MIRegSetDisplayToggle_
6eb04f20       MIRegWalk_
6eb05000       MIRegSpecialGet_
6eb05040       MIRegSpecialSet_
6eb05080       MIRegSpecialName_
6eb05120       MIRegFromContextItem_
6eb05150       MIRegUpdateStart_
6eb05170       MIRegUpdateEnd_
6eb05390       RegInit_
6eb05460       RegFini_
6eb07162+      _CurrPAL
Module: axpcall.obj(/mnt/sda5/.user/root/src/openwatcom-1.9/bld/mad/axp/c/axpcall.c)
6eb054f0       MICallStackGrowsUp_
6eb05500       MICallTypeList_
6eb05510       MICallBuildFrame_
6eb05550       MICallReturnReg_
6eb05560       MICallParmRegList_
6eb055b0       MICallUpStackSize_
6eb055c0       MICallUpStackInit_
6eb055e0       MICallUpStackLevel_
Module: axpdisas.obj(/mnt/sda5/.user/root/src/openwatcom-1.9/bld/mad/axp/c/axpdisas.c)
6eb05880       _RegTrans
6eb05910       DisasmInit_
6eb05940       DisasmFini_
6eb05950       DisCliGetData_
6eb05980       DisCliValueString_
6eb05a30       MIDisasmDataSize_
6eb05a40       MIDisasmNameMax_
6eb05a50       DisasmOne_
6eb05a50       MIDisasm_
6eb05ac0       MIDisasmFormat_
6eb05c30       MIDisasmInsSize_
6eb05c40       MIDisasmInsUndoable_
6eb05d60       DisasmControl_
6eb05d60       MIDisasmControl_
6eb05fb0       MIDisasmInsNext_
6eb06020       MIDisasmMemRefWalk_
6eb06100       MIDisasmToggleList_
6eb06110       MIDisasmToggle_
6eb06150       MIDisasmInspectAddr_
Module: axptrace.obj(/mnt/sda5/.user/root/src/openwatcom-1.9/bld/mad/axp/c/axptrace.c)
6eb061b0       MITraceSize_
6eb061c0       MITraceInit_
6eb061d0       MITraceHaveRecursed_
6eb061f0       MITraceOne_
6eb06280       MITraceSimulate_
6eb06310       MITraceFini_
6eb06330       MIUnexpectedBreak_
Module: /mnt/sda5/.user/root/src/openwatcom-1.9/rel2/lib386/nt/clib3r.lib(toupper.c)
6eb06450       toupper_
Module: /mnt/sda5/.user/root/src/openwatcom-1.9/rel2/lib386/nt/clib3r.lib(memset.c)
6eb06460       memset_
Module: /mnt/sda5/.user/root/src/openwatcom-1.9/rel2/lib386/nt/clib3r.lib(strupr.c)
6eb06480       strupr_
Module: /mnt/sda5/.user/root/src/openwatcom-1.9/rel2/lib386/nt/clib3r.lib(__stos)
6eb064a0       __STOSB
6eb064d7*      __STOSD


                        +----------------------+
                        |   Imported Symbols   |
                        +----------------------+

Symbol                              Module
======                              ======



                        +--------------------+
                        |   Libraries Used   |
                        +--------------------+

/mnt/sda5/.user/root/src/openwatcom-1.9/rel2/lib386/nt/clib3r.lib


                        +-----------------------+
                        |   Linker Statistics   |
                        +-----------------------+

Stack size:  0000 (0.)
Memory size:  56b3 (22195.)
Entry point address: 00000000
Link time: 00:00.00
