Open Watcom Linker Version 1.9
Portions Copyright (c) 1985-2002 Sybase, Inc. All Rights Reserved.
Created on:       12/12/16 02:40:18
Executable Image: ser.d32
creating an OS/2 32-bit dynamic link library


                        +------------+
                        |   Groups   |
                        +------------+

Group                           Address              Size
=====                           =======              ====

DGROUP                          0002:00000000        00000a66



                        +--------------+
                        |   Segments   |
                        +--------------+

Segment                Class          Group          Address         Size
=======                =====          =====          =======         ====

_TEXT                  CODE           AUTO           0001:00000000   0000168b
CONST                  DATA           DGROUP         0002:00000000   00000180
CONST2                 DATA           DGROUP         0002:00000180   00000000
_DATA                  DATA           DGROUP         0002:00000180   000000b1
_BSS                   BSS            DGROUP         0002:00000234   00000832


                        +----------------+
                        |   Memory Map   |
                        +----------------+

* = unreferenced symbol
+ = symbol only referenced locally

Address        Symbol
=======        ======

Module: mxutil.obj(/mnt/sda5/.user/root/src/openwatcom-1.9/bld/trap/common/mxutil.c)
0001:00000000* GetInPtr_
0001:00000030  GetOutPtr_
0001:00000060* GetTotalSize_
0002:00000234  _In_Mx_Ptr
0002:00000238  _Out_Mx_Ptr
0002:0000023c  _Out_Mx_Num
0002:0000023d  _In_Mx_Num
Module: remote.obj(/mnt/sda5/.user/root/src/openwatcom-1.9/bld/trap/common/remote.c)
0001:000001e0  TrapInit_
0001:00000250  TrapRequest_
0001:000002a0  TrapFini_
Module: packet.obj(/mnt/sda5/.user/root/src/openwatcom-1.9/bld/trap/common/packet.c)
0001:000002b0  StartPacket_
0001:000002c0  PutPacket_
0001:000002e0* PutBuffPacket_
0001:00000300  AddPacket_
0001:00000350  GetPacket_
0001:00000370  RemovePacket_
0001:000003c0* GetPacketBuffPtr_
0001:000003d0  MaxPacketSize_
Module: serlink.obj(/mnt/sda5/.user/root/src/openwatcom-1.9/bld/trap/ser/c/serlink.c)
0001:000003e0* SyncPoint_
0001:000006c0+ SetSyncTime_
0001:000006f0* MarchToTheSameDrummer_
0001:00000c30+ SetMaxBaud_
0001:00000f50  RemoteLink_
0001:00000fa0  RemoteUnLink_
0001:00000fb0  RemoteConnect_
0001:00001050  RemoteDisco_
0001:00001060  RemoteGet_
0001:000010a0  RemotePut_
0002:00000198+ _BaudTable
0002:00000648  _MaxBaud
Module: seros22.obj(/mnt/sda5/.user/root/src/openwatcom-1.9/bld/trap/ser/c/seros22.c)
0001:000010e0  ZeroWaitCount_
0001:00001100  WaitCount_
0001:00001130  ClearCom_
0001:000011c0  SendByte_
0001:00001210  StartBlockTrans_
0001:00001220  StopBlockTrans_
0001:00001280+ Reader
0001:00001340* GetByte_
0001:00001350  WaitByte_
0001:00001390  Baud_
0001:00001460  ParsePortSpec_
0001:00001510  DonePort_
0001:00001530  CheckPendingError_
0001:00001580  ClearLastChar_
0001:00001590  Wait_
0001:000015c0  InitSys_
0001:00001670  ResetSys_
0002:00000204+ _ComPort
0002:00000208+ _Rate
0002:0000064c+ _ReadBuff
0002:00000a4c+ _CurrentBaud
0002:00000a50+ _ReadSemaphore
0002:00000a54+ _ReadBuffRemove
0002:00000a58+ _MSecsAtZero
0002:00000a5c+ _ReadBuffAdd
0002:00000a60+ _ReaderId
0002:00000a64+ _BlockTransmission
0002:00000a65+ _OverRun


                        +----------------------+
                        |   Imported Symbols   |
                        +----------------------+

Symbol                              Module
======                              ======

DosQuerySysInfo                     DOSCALLS
DosDevIOCtl                         DOSCALLS
DosWrite                            DOSCALLS
DosRead                             DOSCALLS
DosPostEventSem                     DOSCALLS
DosResetEventSem                    DOSCALLS
DosWaitEventSem                     DOSCALLS
DosClose                            DOSCALLS
DosOpen                             DOSCALLS
DosSleep                            DOSCALLS
DosCreateEventSem                   DOSCALLS
DosSetPriority                      DOSCALLS
DosCreateThread                     DOSCALLS
DosCloseEventSem                    DOSCALLS


                        +--------------------+
                        |   Libraries Used   |
                        +--------------------+

/mnt/sda5/.user/root/src/openwatcom-1.9/rel2/lib386/os2/os2386.lib


                        +-----------------------+
                        |   Linker Statistics   |
                        +-----------------------+

Stack size:  0000 (0.)
Memory size:  20f1 (8433.)
Link time: 00:00.00
