Open Watcom Linker Version 1.9
Portions Copyright (c) 1985-2002 Sybase, Inc. All Rights Reserved.
Created on:       12/12/16 02:42:12
Executable Image: wsample.exe
creating a DOS executable


                        +------------+
                        |   Groups   |
                        +------------+

Group                           Address              Size
=====                           =======              ====

DGROUP                          0766:0000            00001400



                        +--------------+
                        |   Segments   |
                        +--------------+

Segment                Class          Group          Address         Size
=======                =====          =====          =======         ====

BEGTEXT                CODE           AUTO           0000:0000       00000007
_TEXT                  CODE           AUTO           0000:0010       0000764d
FAR_DATA               FAR_DATA       AUTO           0765:000d       00000000
_NULL                  BEGDATA        DGROUP         0766:0000       00000020
_AFTERNULL             BEGDATA        DGROUP         0768:0000       00000002
CONST                  DATA           DGROUP         0768:0002       000001fc
CONST2                 DATA           DGROUP         0787:000e       00000102
_DATA                  DATA           DGROUP         0798:0000       0000037e
XIB                    DATA           DGROUP         07cf:000e       00000000
XI                     DATA           DGROUP         07cf:000e       0000001e
XIE                    DATA           DGROUP         07d1:000c       00000000
YIB                    DATA           DGROUP         07d1:000c       00000000
YI                     DATA           DGROUP         07d1:000c       00000018
YIE                    DATA           DGROUP         07d3:0004       00000000
STRINGS                DATA           DGROUP         07d3:0004       00000000
DATA                   DATA           DGROUP         07d3:0004       00000000
_BSS                   BSS            DGROUP         07d4:0000       00000512
STACK                  STACK          DGROUP         0826:0000       00000800


                        +----------------+
                        |   Memory Map   |
                        +----------------+

* = unreferenced symbol
+ = symbol only referenced locally

Address        Symbol
=======        ======

Module: sampdos.obj(/mnt/sda5/.user/root/src/openwatcom-1.9/bld/wsample/c/sampdos.c)
0000:0010      WriteOvl_
0000:0124      StopProg_
0000:012a      StartProg_
0000:0248      RecordSample_
0000:02ba      GetCommArea_
0000:030a      GetNextAddr_
0000:0374      RememberComm_
0000:037c      ResetCommArea_
0000:03be      SysDefaultOptions_
0000:03ca+     SetInterruptWatch_
0000:0428      SysParseOptions_
0766:0320+     _CommonAddr
0766:0324+     _FirstHook
0766:06e0+     _OvlHandler
0766:06e4+     _OvlStruct
0766:06e8+     _OvlSize
Module: sampexe.obj(/mnt/sda5/.user/root/src/openwatcom-1.9/bld/wsample/c/sampexe.c)
0000:0490      GetProg_
0000:05aa      fatal_
Module: realmode.obj(/mnt/sda5/.user/root/src/openwatcom-1.9/bld/wsample/c/realmode.c)
0000:05c0      NextThread_
0000:05cc+     timer_handler_
0000:06a8      StartTimer_
0000:06fe      StopTimer_
0766:0326      _Save_Request
0766:06f0+     _old_timer_handler
0766:06f4      _TimerRestoreValue
0766:06f6      _TimerMod
0766:06f8      _TimerMult
Module: rmhooks.obj(/mnt/sda5/.user/root/src/openwatcom-1.9/bld/wsample/c/rmhooks.c)
0766:0708+     _old_int03
0000:0720      HookTimer_
0000:0744      InstallDOSIntercepts_
0000:0866      RemoveDOSIntercepts_
0000:091c      AddInterrupt_
Module: timasm.obj(TIMASM)
0000:093a      DOSLoadProg_
0000:0959      DOSRunProg_
0000:096e      GetPSP_
Module: interc.obj(INTERC)
0000:098c      _old_int28
0000:0990      _old_int21
0000:0994      _old_int13
0000:0998      _old_intx0
0000:099c      _old_intx1
0000:09a0      _old_intx2
0000:09a4      _old_intx3
0000:09a8      _old_intx4
0000:09ac      _old_intx5
0000:09b0      _old_intx6
0000:09b4      _old_intx7
0000:09b8      _SysCallerAddr
0000:09bc      _SysCaught
0000:09bd      _SysNoDOS
0000:09bf      int13_handler_
0000:09d4      ovl_handler_
0000:09e9      int03_handler_
0000:0a43      int21_handler_
0000:0abb      int28_handler_
0000:0ad8      intx0_handler_
0000:0ae0      intx1_handler_
0000:0ae8      intx2_handler_
0000:0af0      intx3_handler_
0000:0af8      intx4_handler_
0000:0b00      intx5_handler_
0000:0b08      intx6_handler_
0000:0b10      intx7_handler_
0000:0b18*     intxx_splice
0000:0b62      InDOS_
0000:0b68      VersionCheck_
Module: settime.obj(/mnt/sda5/.user/root/src/openwatcom-1.9/bld/wsample/c/settime.c)
0000:0c30      InitTimerRate_
0000:0c3c      SetTimerRate_
0000:0c82      TimerRate_
0000:0cb0      SafeMargin_
Module: sample.obj(/mnt/sda5/.user/root/src/openwatcom-1.9/bld/wsample/c/sample.c)
0766:0370+     _Header
0766:0378+     _Last
0766:0380      _FirstSample
0000:0d40      WriteMark_
0000:0dce      WriteCodeLoad_
0000:0e9c      WriteAddrMap_
0000:0eec      StopAndSave_
0000:0ef8+     SaveSamples_
0000:10f8      RecordCGraph_
0000:123a      report_
0000:12f6+     Usage_
0000:1316+     skip_
0000:132a      GetNumber_
0000:1400+     Parse_
0000:159a+     AllocSamples_
0000:1638      main_
Module: sampdata.obj(/mnt/sda5/.user/root/src/openwatcom-1.9/bld/wsample/c/sampdata.c)
0766:0710      _ExeName
0766:0790      _SampName
0766:0890      _Samples
0766:0894      _CallGraph
0766:0898      _Info
0766:08fc      _CurrTick
0766:0900      _Comm
0766:090e      _CGraphOff
0766:0910      _LastSampleIndex
0766:0912      _CGraphSeg
0766:0914      _SampleCount
0766:0916      _SampleIndex
0766:0918      _Margin
0766:091a      _InsiderTime
0766:091c      _SamplerOff
0766:091e      _Ceiling
0766:0920      _CallGraphMode
0766:0921      _FarWriteProblem
0766:0922      _LostData
Module: io.obj(/mnt/sda5/.user/root/src/openwatcom-1.9/bld/wsample/c/io.c)
0000:17a0      SampCreate_
0000:17be      SampWrite_
0000:180c      SampSeek_
0000:183e      SampClose_
0000:184c      Output_
Module: sysio.obj(/mnt/sda5/.user/root/src/openwatcom-1.9/bld/wsample/dosi86/sysio.c)
0000:1880      SysInit_
0000:1882      SysCreate_
0000:189c*     SysDelete_
0000:18b2      SysWrite_
0000:18d6      SysSeek_
0000:18f8      SysClose_
0000:1912      alloc_
0000:1916      mfree_
Module: wmsg.obj(/mnt/sda5/.user/root/src/openwatcom-1.9/bld/wsample/c/wmsg.c)
0000:193c      MsgInit_
0000:1a7e      MsgFini_
0000:1a9a      MsgPrintfUsage_
0766:0388      _WResRtns
0766:0940      _MsgArray
Module: /mnt/sda5/.user/root/src/openwatcom-1.9/rel2/lib286/dos/clibs.lib(segread.c)
0000:1aca      segread_
Module: /mnt/sda5/.user/root/src/openwatcom-1.9/rel2/lib286/dos/clibs.lib(stack086.c)
0000:1ae2      stackavail_
Module: /mnt/sda5/.user/root/src/openwatcom-1.9/rel2/lib286/dos/clibs.lib(cmodel)
0000:1aea      _small_code_
0000:1aea*     CodeModelMismatch
Module: /mnt/sda5/.user/root/src/openwatcom-1.9/rel2/lib286/dos/clibs.lib(split2.c)
0000:1b32      _splitpath2_
Module: /mnt/sda5/.user/root/src/openwatcom-1.9/rel2/lib286/dos/clibs.lib(makepath.c)
0000:1c4d      _makepath_
Module: /mnt/sda5/.user/root/src/openwatcom-1.9/rel2/lib286/dos/clibs.lib(searchen.c)
0000:1df9      _searchenv_
Module: /mnt/sda5/.user/root/src/openwatcom-1.9/rel2/lib286/dos/clibs.lib(exit.c)
0000:1f04+     __null_int23_exit_
0000:1f05      exit_
0000:1f23      _exit_
0766:0398+     ___int23_exit
0766:039a+     ___FPE_handler_exit
Module: /mnt/sda5/.user/root/src/openwatcom-1.9/rel2/lib286/dos/clibs.lib(accss.c)
0000:1f33      access_
Module: /mnt/sda5/.user/root/src/openwatcom-1.9/rel2/lib286/dos/clibs.lib(i4d)
0000:1f66      __I4D
0000:1faf      __U4D
Module: /mnt/sda5/.user/root/src/openwatcom-1.9/rel2/lib286/dos/clibs.lib(stat.c)
0000:2091      stat_
Module: /mnt/sda5/.user/root/src/openwatcom-1.9/rel2/lib286/dos/clibs.lib(tolower.c)
0000:22d3      tolower_
Module: /mnt/sda5/.user/root/src/openwatcom-1.9/rel2/lib286/dos/clibs.lib(istable.c)
0766:021e      __IsTable
Module: /mnt/sda5/.user/root/src/openwatcom-1.9/rel2/lib286/dos/clibs.lib(gtcmddos.c)
0000:22e1      _bgetcmd_
0000:2348      getcmd_
Module: /mnt/sda5/.user/root/src/openwatcom-1.9/rel2/lib286/dos/clibs.lib(nmalloc.c)
0000:2357      _nmalloc_
0000:2357      malloc_
0766:039c      ___nheapbeg
0766:039e      ___MiniHeapRover
0766:03a0      ___LargestSizeB4MiniHeapRover
Module: /mnt/sda5/.user/root/src/openwatcom-1.9/rel2/lib286/dos/clibs.lib(nfree.c)
0000:2410      _nfree_
0000:2410      free_
0766:0ab4+     ___MiniHeapFreeRover
Module: /mnt/sda5/.user/root/src/openwatcom-1.9/rel2/lib286/dos/clibs.lib(cstart)
0000:0003*     ___begtext
0766:0000*     __nullarea
0000:24d2      _cstart_
0000:25a7*     _Not_Enough_Memory_
0000:26d2      __exit_
0000:26f1      __do_exit_with_msg__
0000:2734      __GETDS
Module: /mnt/sda5/.user/root/src/openwatcom-1.9/rel2/lib286/dos/clibs.lib(argcv.c)
0766:0ab6      __argc
0766:0ab8      __argv
0766:0aba      ___argc
0766:0abc      ___argv
Module: /mnt/sda5/.user/root/src/openwatcom-1.9/rel2/lib286/dos/clibs.lib(fmalloc.c)
0000:273e      _fmalloc_
0766:03a2+     ___fheap
0766:03a4      ___fheapRover
0766:03a6      ___LargestSizeB4Rover
Module: /mnt/sda5/.user/root/src/openwatcom-1.9/rel2/lib286/dos/clibs.lib(ffree.c)
0000:2829      _ffree_
Module: /mnt/sda5/.user/root/src/openwatcom-1.9/rel2/lib286/dos/clibs.lib(open.c)
0000:2a04      open_
0000:2a23+     sopen_
Module: /mnt/sda5/.user/root/src/openwatcom-1.9/rel2/lib286/dos/clibs.lib(close.c)
0000:2a48      close_
Module: /mnt/sda5/.user/root/src/openwatcom-1.9/rel2/lib286/dos/clibs.lib(write.c)
0000:2b5d      write_
Module: /mnt/sda5/.user/root/src/openwatcom-1.9/rel2/lib286/dos/clibs.lib(read.c)
0000:2d08      read_
Module: /mnt/sda5/.user/root/src/openwatcom-1.9/rel2/lib286/dos/clibs.lib(tell.c)
0000:2dd2      tell_
Module: /mnt/sda5/.user/root/src/openwatcom-1.9/bld/sdk/rc/wres/dosi86/ms/wres.lib(loadfind.c)
0000:2df0      FindResources_
0766:03b0      _FileShift
Module: /mnt/sda5/.user/root/src/openwatcom-1.9/rel2/lib286/dos/clibs.lib(lseek.c)
0000:2ef5      lseek_
Module: /mnt/sda5/.user/root/src/openwatcom-1.9/rel2/lib286/dos/clibs.lib(cmdname.c)
0000:2f20      _cmdname_
Module: /mnt/sda5/.user/root/src/openwatcom-1.9/bld/sdk/rc/wres/dosi86/ms/wres.lib(loadstr.c)
0000:307c+     WResLoadString2_
0000:3110      WResLoadString_
0000:312a      OpenResFile_
0000:3138+     InitResources2_
0000:315a      InitResources_
0000:3166*     CloseResFile2_
0000:3174      CloseResFile_
0000:3184*     LoadstrInitStatics_
0766:0abe+     _MainDir
Module: /mnt/sda5/.user/root/src/openwatcom-1.9/rel2/lib286/dos/clibs.lib(wrlang.c)
0000:318a      _WResLanguage_
Module: /mnt/sda5/.user/root/src/openwatcom-1.9/rel2/lib286/dos/clibs.lib(crwdata)
0766:03b4      __curbrk
0766:03bc      __STACKLOW
0766:03be      __STACKTOP
0766:03c0      __cbyte
0766:03c2      __child
0766:03c4      __no87
0766:03d2      ___FPE_handler
0766:03b6      __psp
0766:03c6      __get_ovl_stack
0766:03ca      __restore_ovl_stack
0766:03ce      __close_ovl_file
0766:03d6      __LpCmdLine
0766:03da      __LpPgmName
0766:03b8      __osmajor
0766:03b9      __osminor
0766:03ba      __osmode
0766:03bb      __HShift
Module: /mnt/sda5/.user/root/src/openwatcom-1.9/rel2/lib286/dos/clibs.lib(mbsnccnt.c)
0000:31ee      _mbsnccnt_
Module: /mnt/sda5/.user/root/src/openwatcom-1.9/rel2/lib286/dos/clibs.lib(mbsncpy.c)
0000:3216      _mbsncpy_
Module: /mnt/sda5/.user/root/src/openwatcom-1.9/rel2/lib286/dos/clibs.lib(mbsnbcnt.c)
0000:3232      _mbsnbcnt_
Module: /mnt/sda5/.user/root/src/openwatcom-1.9/rel2/lib286/dos/clibs.lib(mbsnextc.c)
0000:3298      _mbsnextc_
Module: /mnt/sda5/.user/root/src/openwatcom-1.9/rel2/lib286/dos/clibs.lib(mbsinc.c)
0000:32c2      _mbsinc_
Module: /mnt/sda5/.user/root/src/openwatcom-1.9/rel2/lib286/dos/clibs.lib(mbconv.c)
0000:32ee      _mbvtop_
Module: /mnt/sda5/.user/root/src/openwatcom-1.9/rel2/lib286/dos/clibs.lib(mbclen.c)
0000:3303      _mbclen_
Module: /mnt/sda5/.user/root/src/openwatcom-1.9/rel2/lib286/dos/clibs.lib(mbsdec.c)
0000:3327      _mbsdec_
Module: /mnt/sda5/.user/root/src/openwatcom-1.9/rel2/lib286/dos/clibs.lib(errno.c)
0000:33ac      __get_errno_ptr_
0000:33b0      __get_doserrno_ptr_
0766:0ac0+     _errno
0766:0ac2+     __doserrno
Module: /mnt/sda5/.user/root/src/openwatcom-1.9/rel2/lib286/dos/clibs.lib(gtcwd.c)
0000:33b4      getcwd_
Module: /mnt/sda5/.user/root/src/openwatcom-1.9/rel2/lib286/dos/clibs.lib(strlen.c)
0000:3436      strlen_
Module: /mnt/sda5/.user/root/src/openwatcom-1.9/rel2/lib286/dos/clibs.lib(strncat.c)
0000:344d      strncat_
Module: /mnt/sda5/.user/root/src/openwatcom-1.9/rel2/lib286/dos/clibs.lib(getenv.c)
0000:347b      getenv_
Module: /mnt/sda5/.user/root/src/openwatcom-1.9/rel2/lib286/dos/clibs.lib(strcat.c)
0000:34e1      strcat_
Module: /mnt/sda5/.user/root/src/openwatcom-1.9/rel2/lib286/dos/clibs.lib(seterrno.c)
0000:3512      __set_errno_
0000:3520*     __set_EDOM_
0000:352c*     __set_ERANGE_
0000:3538*     __set_EINVAL_
0000:3547      __set_doserrno_
Module: /mnt/sda5/.user/root/src/openwatcom-1.9/rel2/lib286/dos/clibs.lib(initrtns.c)
0000:358b*     __FInitRtns
0000:358f      __InitRtns
0000:35ea*     __FFiniRtns
0000:35ee      __FiniRtns
Module: /mnt/sda5/.user/root/src/openwatcom-1.9/rel2/lib286/dos/clibs.lib(gfattdos.c)
0000:3652      _dos_getfileattr_
Module: /mnt/sda5/.user/root/src/openwatcom-1.9/rel2/lib286/dos/clibs.lib(dosret.c)
0000:3667*     _dosretax_
0000:366c*     _dosret0_
0000:3673      __set_errno_dos_
0000:36c3*     __set_errno_dos_reterr_
Module: /mnt/sda5/.user/root/src/openwatcom-1.9/rel2/lib286/dos/clibs.lib(mbschr.c)
0000:36cd      _mbschr_
Module: /mnt/sda5/.user/root/src/openwatcom-1.9/rel2/lib286/dos/clibs.lib(mbscmp.c)
0000:3726      _mbscmp_
Module: /mnt/sda5/.user/root/src/openwatcom-1.9/rel2/lib286/dos/clibs.lib(mbspbrk.c)
0000:377f      _mbspbrk_
Module: /mnt/sda5/.user/root/src/openwatcom-1.9/rel2/lib286/dos/clibs.lib(fullpath.c)
0000:37b1+     _sys_fullpath_
0000:39d5      _fullpath_
Module: /mnt/sda5/.user/root/src/openwatcom-1.9/rel2/lib286/dos/clibs.lib(chdir.c)
0000:3a38      chdir_
Module: /mnt/sda5/.user/root/src/openwatcom-1.9/rel2/lib286/dos/clibs.lib(finddos.c)
0000:3a4b      _dos_findfirst_
0000:3a61*     _dos_findnext_
0000:3a71      _dos_findclose_
Module: /mnt/sda5/.user/root/src/openwatcom-1.9/rel2/lib286/dos/clibs.lib(fstat.c)
0000:3a74      fstat_
Module: /mnt/sda5/.user/root/src/openwatcom-1.9/rel2/lib286/dos/clibs.lib(d2ttime.c)
0000:3b92      _d2ttime_
Module: /mnt/sda5/.user/root/src/openwatcom-1.9/rel2/lib286/dos/clibs.lib(nmemneed.c)
0000:3bfb      __nmemneed_
Module: /mnt/sda5/.user/root/src/openwatcom-1.9/rel2/lib286/dos/clibs.lib(mem.c)
0000:3c00      __MemAllocator
0000:3cca      __MemFree
Module: /mnt/sda5/.user/root/src/openwatcom-1.9/rel2/lib286/dos/clibs.lib(grownear.c)
0000:3e93+     __LastFree_
0000:3efa      __ExpandDGROUP_
Module: /mnt/sda5/.user/root/src/openwatcom-1.9/rel2/lib286/dos/clibs.lib(xmsg.c)
0000:3fd4*     __exit_with_msg_
0000:3fd7      __fatal_runtime_error_
Module: /mnt/sda5/.user/root/src/openwatcom-1.9/rel2/lib286/dos/clibs.lib(cmain086.c)
0000:3ff1      __CMain
Module: /mnt/sda5/.user/root/src/openwatcom-1.9/rel2/lib286/dos/clibs.lib(uselfn.c)
0766:03f2      ___uselfn
Module: /mnt/sda5/.user/root/src/openwatcom-1.9/rel2/lib286/dos/clibs.lib(dosseg)
0000:4008      __DOSseg__
Module: /mnt/sda5/.user/root/src/openwatcom-1.9/rel2/lib286/dos/clibs.lib(initargv.c)
0000:4009      __Init_Argv_
0000:403a+     _getargv_
0000:419f      __Fini_Argv_
Module: /mnt/sda5/.user/root/src/openwatcom-1.9/rel2/lib286/dos/clibs.lib(growseg.c)
0000:41aa      __GrowSeg_
Module: /mnt/sda5/.user/root/src/openwatcom-1.9/rel2/lib286/dos/clibs.lib(allocseg.c)
0000:42b5      __AllocSeg_
Module: /mnt/sda5/.user/root/src/openwatcom-1.9/rel2/lib286/dos/clibs.lib(fmemneed.c)
0000:4359      __fmemneed_
Module: /mnt/sda5/.user/root/src/openwatcom-1.9/rel2/lib286/dos/clibs.lib(opendos.c)
0000:435c      _dos_open_
Module: /mnt/sda5/.user/root/src/openwatcom-1.9/rel2/lib286/dos/clibs.lib(iomode.c)
0000:4370      __GetIOMode_
0000:4387      __SetIOMode_nogrow_
0766:03f4      ___NFiles
0766:03f6      ___init_mode
0766:041e      ___io_mode
Module: /mnt/sda5/.user/root/src/openwatcom-1.9/rel2/lib286/dos/clibs.lib(isatt.c)
0000:439c      isatty_
Module: /mnt/sda5/.user/root/src/openwatcom-1.9/rel2/lib286/dos/clibs.lib(umaskval.c)
0766:0420      ___umaskval
Module: /mnt/sda5/.user/root/src/openwatcom-1.9/rel2/lib286/dos/clibs.lib(creatdos.c)
0000:43b8      _dos_creat_
0000:43ca*     _dos_creatnew_
Module: /mnt/sda5/.user/root/src/openwatcom-1.9/rel2/lib286/dos/clibs.lib(stiomode.c)
0000:43dd+     __grow_iomode_
0000:4461+     __shrink_iomode_
0000:447a      __SetIOMode_
Module: /mnt/sda5/.user/root/src/openwatcom-1.9/rel2/lib286/dos/clibs.lib(iob.c)
0766:0422      ___iob
0766:053a      __fmode
0766:0ac8      ___OpenStreams
0766:0aca      ___ClosedStreams
Module: /mnt/sda5/.user/root/src/openwatcom-1.9/rel2/lib286/dos/clibs.lib(_clse.c)
0000:44cb      __close_
Module: /mnt/sda5/.user/root/src/openwatcom-1.9/rel2/lib286/dos/clibs.lib(__lseek.c)
0000:44fa      __lseek_
Module: /mnt/sda5/.user/root/src/openwatcom-1.9/rel2/lib286/dos/clibs.lib(stk)
0000:4537      __STK
0000:454e      __STKOVERFLOW_
Module: /mnt/sda5/.user/root/src/openwatcom-1.9/rel2/lib286/dos/clibs.lib(iomodtty.c)
0000:4569      __ChkTTYIOMode_
0000:459b*     __IOMode_
Module: /mnt/sda5/.user/root/src/openwatcom-1.9/bld/sdk/rc/wres/dosi86/ms/wres.lib(wriidfn.c)
0000:45b0      WResInitIDFromNum_
Module: /mnt/sda5/.user/root/src/openwatcom-1.9/bld/sdk/rc/wres/dosi86/ms/wres.lib(wrfindrs.c)
0000:45c0      __FindType_
0000:45e6      __FindRes_
0000:460c      __FindLang_
0000:464a      WResFindResource_
Module: /mnt/sda5/.user/root/src/openwatcom-1.9/bld/sdk/rc/wres/dosi86/ms/wres.lib(wrgetli.c)
0000:46b0      WResGetLangInfo_
0000:46c6*     WResGetFileInfo_
Module: /mnt/sda5/.user/root/src/openwatcom-1.9/bld/sdk/rc/wres/dosi86/ms/wres.lib(ropenfro.c)
0000:46e0      ResOpenFileRO_
Module: /mnt/sda5/.user/root/src/openwatcom-1.9/bld/sdk/rc/wres/dosi86/ms/wres.lib(wrinitdi.c)
0000:4710      WResInitDir_
Module: /mnt/sda5/.user/root/src/openwatcom-1.9/bld/sdk/rc/wres/dosi86/ms/wres.lib(wrreaddi.c)
0000:4d52      WResReadDir_
0000:4d5a+     WResReadDir2_
Module: /mnt/sda5/.user/root/src/openwatcom-1.9/bld/sdk/rc/wres/dosi86/ms/wres.lib(wrfreedi.c)
0000:4e10+     __FreeLangList_
0000:4e34+     __FreeResList_
0000:4e62      __FreeTypeList_
0000:4e90      WResFreeDir_
Module: /mnt/sda5/.user/root/src/openwatcom-1.9/bld/sdk/rc/wres/dosi86/ms/wres.lib(rclosef.c)
0000:4eb0      ResCloseFile_
Module: /mnt/sda5/.user/root/src/openwatcom-1.9/rel2/lib286/dos/clibs.lib(stricmp.c)
0000:4eca      stricmp_
Module: /mnt/sda5/.user/root/src/openwatcom-1.9/rel2/lib286/dos/clibs.lib(mbterm.c)
0000:4f06      _mbterm_
Module: /mnt/sda5/.user/root/src/openwatcom-1.9/rel2/lib286/dos/clibs.lib(mbsnbcpy.c)
0000:4f3d      _mbsnbcpy_
Module: /mnt/sda5/.user/root/src/openwatcom-1.9/rel2/lib286/dos/clibs.lib(mbisdbcs.c)
0766:0acc      ___IsDBCS
Module: /mnt/sda5/.user/root/src/openwatcom-1.9/rel2/lib286/dos/clibs.lib(mbislead.c)
0000:4fa0*     _ismbblead_
0766:0ace      ___MBCSIsTable
Module: /mnt/sda5/.user/root/src/openwatcom-1.9/rel2/lib286/dos/clibs.lib(doserror)
0000:4fb6      __doserror_
Module: /mnt/sda5/.user/root/src/openwatcom-1.9/rel2/lib286/dos/clibs.lib(strncpy.c)
0000:4fc2      strncpy_
Module: /mnt/sda5/.user/root/src/openwatcom-1.9/rel2/lib286/dos/clibs.lib(environ.c)
0766:0bd0      ___env_mask
0766:0bd2      _environ
0766:0bd4*     __wenviron
Module: /mnt/sda5/.user/root/src/openwatcom-1.9/rel2/lib286/dos/clibs.lib(mbcupper.c)
0000:4feb      _mbctoupper_
Module: /mnt/sda5/.user/root/src/openwatcom-1.9/rel2/lib286/dos/clibs.lib(sgdef086)
0766:069e      __Start_XI
0766:06bc      __End_XI
0766:06bc      __Start_YI
0766:06d4      __End_YI
Module: /mnt/sda5/.user/root/src/openwatcom-1.9/rel2/lib286/dos/clibs.lib(mbccmp.c)
0000:5000      _mbccmp_
Module: /mnt/sda5/.user/root/src/openwatcom-1.9/rel2/lib286/dos/clibs.lib(filelen.c)
0000:5036      filelength_
Module: /mnt/sda5/.user/root/src/openwatcom-1.9/rel2/lib286/dos/clibs.lib(mktime.c)
0000:508e      mktime_
Module: /mnt/sda5/.user/root/src/openwatcom-1.9/rel2/lib286/dos/clibs.lib(amblksiz.c)
0766:053e      __amblksiz
Module: /mnt/sda5/.user/root/src/openwatcom-1.9/rel2/lib286/dos/clibs.lib(heapen.c)
0000:5129*     _heapenable_
0766:0540      ___heap_enabled
Module: /mnt/sda5/.user/root/src/openwatcom-1.9/rel2/lib286/dos/clibs.lib(sbrk.c)
0000:5135*     sbrk_
0000:5139      __brk_
Module: /mnt/sda5/.user/root/src/openwatcom-1.9/rel2/lib286/dos/clibs.lib(enterdb.c)
0000:518d      __EnterWVIDEO_
0766:0542+     ___WD_Present
Module: /mnt/sda5/.user/root/src/openwatcom-1.9/rel2/lib286/dos/clibs.lib(___argc.c)
0766:0bd6      ____Argc
0766:0bd8      ____Argv
Module: /mnt/sda5/.user/root/src/openwatcom-1.9/rel2/lib286/dos/clibs.lib(histsplt.c)
0766:0bda      ___historical_splitparms
Module: /mnt/sda5/.user/root/src/openwatcom-1.9/rel2/lib286/dos/clibs.lib(nrealloc.c)
0000:51a9*     _nrealloc_
0000:51a9      realloc_
Module: /mnt/sda5/.user/root/src/openwatcom-1.9/rel2/lib286/dos/clibs.lib(initfile.c)
0000:5217      __InitFiles_
Module: /mnt/sda5/.user/root/src/openwatcom-1.9/rel2/lib286/dos/clibs.lib(ioexit.c)
0000:52d9*     fcloseall_
0000:52de      __full_io_exit_
Module: /mnt/sda5/.user/root/src/openwatcom-1.9/bld/sdk/rc/wres/dosi86/ms/wres.lib(wridcmp.c)
0000:52f0      WResIDCmp_
Module: /mnt/sda5/.user/root/src/openwatcom-1.9/rel2/lib286/dos/clibs.lib(setmd.c)
0000:532b      setmode_
Module: /mnt/sda5/.user/root/src/openwatcom-1.9/bld/sdk/rc/wres/dosi86/ms/wres.lib(wrerror.c)
0000:53c0      WresRecordError_
Module: /mnt/sda5/.user/root/src/openwatcom-1.9/bld/sdk/rc/wres/dosi86/ms/wres.lib(ralliae.c)
0000:53d0      ResAddLLItemAtEnd_
Module: /mnt/sda5/.user/root/src/openwatcom-1.9/bld/sdk/rc/wres/dosi86/ms/wres.lib(wrrfrr.c)
0000:5400      WResReadFixedResRecord_
0000:5430      WResReadFixedResRecord1_
0000:5460      WResReadFixedResRecord2_
Module: /mnt/sda5/.user/root/src/openwatcom-1.9/bld/sdk/rc/wres/dosi86/ms/wres.lib(wridexby.c)
0000:54d0      WResIDExtraBytes_
Module: /mnt/sda5/.user/root/src/openwatcom-1.9/bld/sdk/rc/wres/dosi86/ms/wres.lib(wrrewrid.c)
0000:54f0      WResReadExtraWResID_
Module: /mnt/sda5/.user/root/src/openwatcom-1.9/bld/sdk/rc/wres/dosi86/ms/wres.lib(wrrftr.c)
0000:5540      WResReadFixedTypeRecord_
0000:5576      WResReadFixedTypeRecord2_
Module: /mnt/sda5/.user/root/src/openwatcom-1.9/bld/sdk/rc/wres/dosi86/ms/wres.lib(wrrhr.c)
0000:55e0      WResReadHeaderRecord_
0000:5664      WResReadExtHeader_
Module: /mnt/sda5/.user/root/src/openwatcom-1.9/bld/sdk/rc/wres/dosi86/ms/wres.lib(mrrdrh.c)
0000:56a0      M32ResReadResourceHeader_
0000:57f2      MResReadResourceHeader_
Module: /mnt/sda5/.user/root/src/openwatcom-1.9/bld/sdk/rc/wres/dosi86/ms/wres.lib(wrfree.c)
0000:5890      MResFreeResourceHeader_
Module: /mnt/sda5/.user/root/src/openwatcom-1.9/bld/sdk/rc/wres/dosi86/ms/wres.lib(wridfnoo.c)
0000:58c0      WResIDFromNameOrOrd_
Module: /mnt/sda5/.user/root/src/openwatcom-1.9/bld/sdk/rc/wres/dosi86/ms/wres.lib(wraddres.c)
0000:5a34*     WResAddResource_
0000:5a86      WResAddResource2_
Module: /mnt/sda5/.user/root/src/openwatcom-1.9/bld/sdk/rc/wres/dosi86/ms/wres.lib(wriswrf.c)
0000:5b90      WResFindResType_
0000:5c34*     WResIsWResFile_
Module: /mnt/sda5/.user/root/src/openwatcom-1.9/rel2/lib286/dos/clibs.lib(mbinit.c)
0000:5c76      __mbinit_
0766:0544      ___MBCodePage
Module: /mnt/sda5/.user/root/src/openwatcom-1.9/rel2/lib286/dos/clibs.lib(setenvp.c)
0000:5d46      __setenvp_
0000:5ded      __freeenvp_
Module: /mnt/sda5/.user/root/src/openwatcom-1.9/rel2/lib286/dos/clibs.lib(mbdtoupp.c)
0000:5e12      _mbdtoupper_
Module: /mnt/sda5/.user/root/src/openwatcom-1.9/rel2/lib286/dos/clibs.lib(toupper.c)
0000:5e20      toupper_
Module: /mnt/sda5/.user/root/src/openwatcom-1.9/rel2/lib286/dos/clibs.lib(locmktim.c)
0000:5e2e      __local_mktime_
Module: /mnt/sda5/.user/root/src/openwatcom-1.9/rel2/lib286/dos/clibs.lib(gmtime.c)
0000:600a      __brktime_
0000:613d+     _gmtime_
0000:6160*     gmtime_
Module: /mnt/sda5/.user/root/src/openwatcom-1.9/rel2/lib286/dos/clibs.lib(tzset.c)
0766:0546      ___start_dst
0766:0558      ___end_dst
0766:066c*     _tzname
0766:0670      _timezone
0766:0674      _daylight
0766:0676      ___dst_adjust
0000:6169*     __DontCacheOSTZ_
0000:617d*     __CacheOSTZ_
0000:65b1+     __parse_tz_
0000:670b      tzset_
Module: /mnt/sda5/.user/root/src/openwatcom-1.9/rel2/lib286/dos/clibs.lib(timeutil.c)
0000:6823      __isindst_
Module: /mnt/sda5/.user/root/src/openwatcom-1.9/rel2/lib286/dos/clibs.lib(nmsize.c)
0000:6a92*     _msize_
0000:6a92      _nmsize_
Module: /mnt/sda5/.user/root/src/openwatcom-1.9/rel2/lib286/dos/clibs.lib(nexpand.c)
0000:6aa1      _nexpand_
0000:6aa1*     _expand_
0000:6af0+     __HeapManager_expand_
Module: /mnt/sda5/.user/root/src/openwatcom-1.9/rel2/lib286/dos/clibs.lib(fclose.c)
0000:6c77+     __doclose_
0000:6cf8      __shutdown_stream_
0000:6d09*     fclose_
0766:0bf0+     ___RmTmpFileFn
Module: /mnt/sda5/.user/root/src/openwatcom-1.9/rel2/lib286/dos/clibs.lib(freefp.c)
0000:6d2b      __freefp_
0000:6d58      __purgefp_
Module: /mnt/sda5/.user/root/src/openwatcom-1.9/bld/sdk/rc/wres/dosi86/ms/wres.lib(wridnacm.c)
0000:6dbe      WResIDNameCmp_
Module: /mnt/sda5/.user/root/src/openwatcom-1.9/bld/sdk/rc/wres/dosi86/ms/wres.lib(resseek.c)
0000:6e00*     ResSeek_
0000:6e22      ResPadDWord_
Module: /mnt/sda5/.user/root/src/openwatcom-1.9/bld/sdk/rc/wres/dosi86/ms/wres.lib(rduint32.c)
0000:6eb0      ResReadUint32_
Module: /mnt/sda5/.user/root/src/openwatcom-1.9/bld/sdk/rc/wres/dosi86/ms/wres.lib(rrnamoor.c)
0000:6ef0      ResReadNameOrOrdinal_
0000:6fcc      ResRead32NameOrOrdinal_
Module: /mnt/sda5/.user/root/src/openwatcom-1.9/bld/sdk/rc/wres/dosi86/ms/wres.lib(rduint16.c)
0000:70b0      ResReadUint16_
Module: /mnt/sda5/.user/root/src/openwatcom-1.9/bld/sdk/rc/wres/dosi86/ms/wres.lib(wridfrnu.c)
0000:70f0      WResIDFromNum_
Module: /mnt/sda5/.user/root/src/openwatcom-1.9/bld/sdk/rc/wres/dosi86/ms/wres.lib(wridfrst.c)
0000:7140      WResIDFromStr_
Module: /mnt/sda5/.user/root/src/openwatcom-1.9/bld/sdk/rc/wres/dosi86/ms/wres.lib(wrfirres.c)
0000:71a0*     WResFirstResource_
0000:71d4      WResSetEmptyWindow_
0000:71ee      WResMakeWindow_
Module: /mnt/sda5/.user/root/src/openwatcom-1.9/rel2/lib286/dos/clibs.lib(clearenv.c)
0000:7201      clearenv_
Module: /mnt/sda5/.user/root/src/openwatcom-1.9/rel2/lib286/dos/clibs.lib(leapyear.c)
0000:7270      __leapyear_
0766:01ea      ___diyr
0766:0204      ___dilyr
Module: /mnt/sda5/.user/root/src/openwatcom-1.9/rel2/lib286/dos/clibs.lib(i4m)
0000:729a      __I4M
0000:729a      __U4M
Module: /mnt/sda5/.user/root/src/openwatcom-1.9/rel2/lib286/dos/clibs.lib(bfree.c)
0000:72b2      _bfree_
Module: /mnt/sda5/.user/root/src/openwatcom-1.9/rel2/lib286/dos/clibs.lib(flush.c)
0000:72d3      __flush_
Module: /mnt/sda5/.user/root/src/openwatcom-1.9/bld/sdk/rc/wres/dosi86/ms/wres.lib(rduint8.c)
0000:73c0      ResReadUint8_
Module: /mnt/sda5/.user/root/src/openwatcom-1.9/bld/sdk/rc/wres/dosi86/ms/wres.lib(rrdstr.c)
0000:7400      ResReadString_
0000:746c      ResRead32String_
Module: /mnt/sda5/.user/root/src/openwatcom-1.9/rel2/lib286/dos/clibs.lib(qwrit.c)
0000:74d8      __qwrite_
Module: /mnt/sda5/.user/root/src/openwatcom-1.9/rel2/lib286/dos/clibs.lib(fsync.c)
0000:752e      fsync_
Module: /mnt/sda5/.user/root/src/openwatcom-1.9/bld/sdk/rc/wres/dosi86/ms/wres.lib(varstr.c)
0000:7540      VarStringStart_
0000:756c      VarStringAddChar_
0000:75be      VarStringEnd_
Module: /mnt/sda5/.user/root/src/openwatcom-1.9/rel2/lib286/dos/clibs.lib(filedos.c)
0000:7643*     _dos_close_
0000:764f      _dos_commit_


                        +--------------------+
                        |   Libraries Used   |
                        +--------------------+

/mnt/sda5/.user/root/src/openwatcom-1.9/bld/sdk/rc/wres/dosi86/ms/wres.lib
/mnt/sda5/.user/root/src/openwatcom-1.9/rel2/lib286/dos/clibs.lib


                        +-----------------------+
                        |   Linker Statistics   |
                        +-----------------------+

Stack size:  0800 (2048.)
Memory size:  8a60 (35424.)
Entry point address: 0000:24d2
Link time: 00:00.00
