Open Watcom Linker Version 1.9
Portions Copyright (c) 1985-2002 Sybase, Inc. All Rights Reserved.
Created on:       12/12/16 02:39:39
Executable Image: cmdedit.exe
creating a DOS executable


                        +------------+
                        |   Groups   |
                        +------------+

Group                           Address              Size
=====                           =======              ====

dgroup                          02e9:0000            00000e10



                        +--------------+
                        |   Segments   |
                        +--------------+

Segment                Class          Group          Address         Size
=======                =====          =====          =======         ====

_TEXT                  code           AUTO           0000:0000       00002e8d
fard                   far_data       AUTO           02e9:0000       00000000
_data                  data           dgroup         02e9:0000       00000238
const                  data           dgroup         030d:0000       000000dc
CONST2                 data           dgroup         031a:000c       00000000
_BSS                   BSS            dgroup         031a:000c       000008e8
stack                  stack          dgroup         03aa:0000       00000200


                        +----------------+
                        |   Memory Map   |
                        +----------------+

* = unreferenced symbol
+ = symbol only referenced locally

Address        Symbol
=======        ======

Module: dosstart.obj(/mnt/sda5/.user/root/src/openwatcom-1.9/bld/cmdedit/dosstart.asm)
0000:004a      _AliasList
Module: cmdalias.obj(/mnt/sda5/.user/root/src/openwatcom-1.9/bld/cmdedit/cmdalias.c)
0000:01f5      ListAliases_
0000:0262      InitAlias_
0000:0398+     FindAlias_
0000:0466+     LocateParm_
0000:049a+     SubstParms_
0000:064e      ReplaceAlias_
0000:072d*     EndOfWord_
0000:0741      LookForAlias_
0000:07ba+     FormName_
0000:0822      PFKey_
Module: cmddata.obj(/mnt/sda5/.user/root/src/openwatcom-1.9/bld/cmdedit/cmddata.c)
02e9:037c      _PathBuff
02e9:03fc      _Line
02e9:047c      _Cur
02e9:0484      _OldLine
02e9:0504      _PathCurr
02e9:0508      _PFChars
02e9:050c      _KbdChar
02e9:0516      _Kbd
02e9:0520      _NextFileCalls
02e9:0522      _AppendSlash
02e9:0524      _FileUnique
02e9:0526      _FileLower
02e9:0528      _WantAlias
02e9:052a      _AliasSize
02e9:052c      _HideDirCmds
02e9:052e      _AlwaysAlias
02e9:0530      _StickyInsert
02e9:0532      _StartInInsert
02e9:0534      _HaveDirent
02e9:0536      _PrintAllFiles
02e9:0538      _CursorDiff
02e9:053a      _StartDraw
02e9:053c      _Draw
02e9:053e      _MaxCursor
02e9:0540      _Base
02e9:0542      _AlwaysSave
02e9:0544      _Edited
02e9:0546      _Cursor
02e9:0548      _FirstNextOrPrev
02e9:054a      _Insert
02e9:054c      _StartCol
02e9:054e      _Overflow
02e9:0550*     _KbdHandle
02e9:0552      _ImmedCommand
02e9:0554      _RowOffset
02e9:0556      _OldMaxCursor
02e9:0558      _More
02e9:055a      _ColOffset
02e9:055c      _LineSaved
02e9:055e      _BuffOne
02e9:0560      _OldCursor
02e9:0562      _Row
02e9:0564      _Col
02e9:0566      _CmdSeparator
Module: cmddir.obj(/mnt/sda5/.user/root/src/openwatcom-1.9/bld/cmdedit/cmddir.c)
0000:0877      ExpandDirCommand_
0000:09be+     DirCmds_
0000:0a6e      DoDirCommand_
Module: cmdedit.obj(/mnt/sda5/.user/root/src/openwatcom-1.9/bld/cmdedit/cmdedit.c)
0000:0a8f      ToFirstCmd_
0000:0a9d      ToLastCmd_
0000:0aab      WordSep_
0000:0ac8      Left_
0000:0ad4+     LocateLeftWord_
0000:0b0d      LeftWord_
0000:0b21      BackSpace_
0000:0b2b      Delete_
0000:0b5e      DeleteBOW_
0000:0b71      Right_
0000:0b94+     LocateRightWord_
0000:0bc8      RightWord_
0000:0bce      DeleteEOW_
0000:0be0      BOL_
0000:0be5      EraseBOL_
0000:0bf4      EOL_
0000:0bfa      EraseEOL_
0000:0c08      FlipInsertMode_
0000:0c2e      ScreenCursorOff_
0000:0c3e      EraseLine_
0000:0c63      InsertChar_
0000:0ca1      OverlayChar_
Module: cmdfile.obj(/mnt/sda5/.user/root/src/openwatcom-1.9/bld/cmdedit/cmdfile.c)
0000:0cc7      SaveLine_
0000:0cea      RestoreLine_
0000:0d0c      MatchACommand_
0000:0d74      FiniFile_
0000:0d83      NonFileChar_
0000:0db3+     FileIgnore_
0000:0e97+     FindNext_
0000:0eb9      NextFile_
0000:129d      PrevFile_
Module: cmdio.obj(/mnt/sda5/.user/root/src/openwatcom-1.9/bld/cmdedit/cmdio.c)
02e9:09b6+     _r
0000:12c3+     CurrentPageInBH_
0000:12da      DosGetEnv_
0000:1305      DKbdGetStatus_
0000:137c      DKbdCharIn_
0000:13fa      DVioGetCurPos_
0000:1422      DVioSetCurPos_
0000:1441      DVioWrtCharStr_
0000:148b      DVioReadCharStr_
0000:14cf      DVioWrtNChar_
0000:150d      DVioSetCurType_
0000:152e      DVioGetCurType_
0000:1555      DVioReadCellStr_
0000:159c      DVioWrtCellStr_
0000:15e4      DosClose_
0000:15fa      DDosOpen_
0000:162d      DosChgFilePtr_
0000:166a      DosRead_
0000:16b1      DosWrite_
0000:16d0      DDosAllocSeg_
0000:16f6      DosFreeEnv_
0000:171c+     setdta_
0000:177c      DDosFindFirst_
0000:1835      DDosFindNext_
0000:18aa      DDosQCurDisk_
0000:18c7      DosSelectDisk_
0000:18d5*     DosQCurDir_
0000:1913      DDosChDir_
02e9:09cc+     _SavDTASeg
02e9:09ce+     _SavDTAOff
Module: cmdmain.obj(/mnt/sda5/.user/root/src/openwatcom-1.9/bld/cmdedit/cmdmain.c)
0000:197d      InitRetrieve_
0000:1b9c+     CopyCmd_
0000:1dd4      StringIn_
Module: cmdsave.obj(/mnt/sda5/.user/root/src/openwatcom-1.9/bld/cmdedit/cmdsave.c)
02e9:09e6+     _SaveArea
0000:21d3+     RestSave_
0000:22d4      SaveSave_
0000:23cc      InitSave_
0000:23fb+     SaveByte_
0000:2456      DelCmd_
0000:24e5      SaveCmd_
0000:2564      PrevCmd_
0000:25fa      NextCmd_
0000:2666      ListCommands_
0000:26e1      RetrieveACommand_
02e9:0bfa+     _FirstFree
02e9:0bfc+     _FirstCmd
02e9:0bfe+     _LastWasNext
02e9:0c00+     _CurrCmd
Module: cmdscrn.obj(/mnt/sda5/.user/root/src/openwatcom-1.9/bld/cmdedit/cmdscrn.c)
0000:2705      FlipScreenCursor_
0000:2788      RightScreen_
0000:27a7      ReadScreen_
0000:2807      LeftScreen_
0000:2824      UpScreen_
0000:285a      DownScreen_
Module: cmdstub.obj(/mnt/sda5/.user/root/src/openwatcom-1.9/bld/cmdedit/cmdstub.c)
02e9:0c02      _small_code_
Module: cmdutil.obj(/mnt/sda5/.user/root/src/openwatcom-1.9/bld/cmdedit/cmdutil.c)
0000:2899      Equal_
0000:28f6      ZapLower_
0000:2915      PutChar_
0000:2938      PutPad_
0000:295c      PutString_
0000:2965      PutNL_
0000:2970      PutMore_
0000:299b      EatWhite_
0000:29aa      SavePrompt_
0000:29c7      RestorePrompt_
0000:29f0      SetCursorType_
0000:29f6      GetEnv_
Module: /mnt/sda5/.user/root/src/openwatcom-1.9/rel2/lib286/dos/clibs.lib(strlen.c)
0000:2a5b      strlen_
Module: /mnt/sda5/.user/root/src/openwatcom-1.9/rel2/lib286/dos/clibs.lib(memcpy.c)
0000:2a72      memcpy_
Module: /mnt/sda5/.user/root/src/openwatcom-1.9/rel2/lib286/dos/clibs.lib(strchr.c)
0000:2a8f      strchr_
Module: /mnt/sda5/.user/root/src/openwatcom-1.9/rel2/lib286/dos/clibs.lib(tolower.c)
0000:2aa8      tolower_
Module: /mnt/sda5/.user/root/src/openwatcom-1.9/rel2/lib286/dos/clibs.lib(intr.c)
0000:2ab6      intr_
Module: /mnt/sda5/.user/root/src/openwatcom-1.9/rel2/lib286/dos/clibs.lib(memmove.c)
0000:2ac8      memmove_
Module: /mnt/sda5/.user/root/src/openwatcom-1.9/rel2/lib286/dos/clibs.lib(dointr)
0000:2b14      _DoINTR_


                        +---------------------+
                        |   Module Segments   |
                        +---------------------+

! = 32-bit segment
c = initialized communal data

Module          Segment               Class           Address         Size
======          =======               =====           =======         ====

/mnt/sda5/.user/root/src/openwatcom-1.9/bld/cmdedit/dosstart.asm
                fard                  far_data       02e9:0000        00000000
                _TEXT                 code           0000:0000        000001f5
                _data                 data           02e9:0000        00000210
                const                 data           030d:0000        00000000
                stack                 stack          03aa:0000        00000200
/mnt/sda5/.user/root/src/openwatcom-1.9/bld/cmdedit/cmdalias.c
                _TEXT                 code           0000:01f5        00000682
                const                 data           030d:0000        00000017
                CONST2                data           031a:000c        00000000
                _data                 data           02e9:0210        00000001
                _BSS                  BSS            031a:000c        00000060
/mnt/sda5/.user/root/src/openwatcom-1.9/bld/cmdedit/cmddata.c
                _TEXT                 code           0000:0877        00000000
                const                 data           030d:0018        00000000
                CONST2                data           031a:000c        00000000
                _data                 data           02e9:0212        00000000
                _BSS                  BSS            031a:006c        000001eb
/mnt/sda5/.user/root/src/openwatcom-1.9/bld/cmdedit/cmddir.c
                _TEXT                 code           0000:0877        00000218
                const                 data           030d:0018        0000005e
                CONST2                data           031a:000c        00000000
                _data                 data           02e9:0212        00000000
/mnt/sda5/.user/root/src/openwatcom-1.9/bld/cmdedit/cmdedit.c
                _TEXT                 code           0000:0a8f        00000238
                const                 data           030d:0076        00000000
                CONST2                data           031a:000c        00000000
                _data                 data           02e9:0212        00000021
/mnt/sda5/.user/root/src/openwatcom-1.9/bld/cmdedit/cmdfile.c
                _TEXT                 code           0000:0cc7        000005fc
                const                 data           030d:0076        0000001f
                CONST2                data           031a:000c        00000000
                _data                 data           02e9:0234        00000000
                _BSS                  BSS            031a:0258        000002ea
/mnt/sda5/.user/root/src/openwatcom-1.9/bld/cmdedit/cmdio.c
                _TEXT                 code           0000:12c3        000006ba
                const                 data           030d:0096        00000000
                CONST2                data           031a:000c        00000000
                _data                 data           02e9:0234        00000004
                _BSS                  BSS            031a:0542        00000192
/mnt/sda5/.user/root/src/openwatcom-1.9/bld/cmdedit/cmdmain.c
                _TEXT                 code           0000:197d        00000856
                const                 data           030d:0096        00000020
                CONST2                data           031a:000c        00000000
                _data                 data           02e9:0238        00000000
                _BSS                  BSS            031a:06d4        00000002
/mnt/sda5/.user/root/src/openwatcom-1.9/bld/cmdedit/cmdsave.c
                _TEXT                 code           0000:21d3        00000532
                const                 data           030d:00b6        00000000
                CONST2                data           031a:000c        00000000
                _data                 data           02e9:0238        00000000
                _BSS                  BSS            031a:06d6        0000021c
/mnt/sda5/.user/root/src/openwatcom-1.9/bld/cmdedit/cmdscrn.c
                _TEXT                 code           0000:2705        00000189
                const                 data           030d:00b6        00000000
                CONST2                data           031a:000c        00000000
                _data                 data           02e9:0238        00000000
/mnt/sda5/.user/root/src/openwatcom-1.9/bld/cmdedit/cmdstub.c
                _TEXT                 code           0000:288e        00000000
                const                 data           030d:00b6        00000000
                CONST2                data           031a:000c        00000000
                _data                 data           02e9:0238        00000000
                _BSS                  BSS            031a:08f2        00000002
/mnt/sda5/.user/root/src/openwatcom-1.9/bld/cmdedit/cmdutil.c
                _TEXT                 code           0000:288e        000001cd
                const                 data           030d:00b6        00000025
                CONST2                data           031a:000c        00000000
                _data                 data           02e9:0238        00000000
strlen.c        _TEXT                 code           0000:2a5b        00000017
                const                 data           030d:00dc        00000000
                CONST2                data           031a:000c        00000000
                _data                 data           02e9:0238        00000000
memcpy.c        _TEXT                 code           0000:2a72        0000001d
                const                 data           030d:00dc        00000000
                CONST2                data           031a:000c        00000000
                _data                 data           02e9:0238        00000000
strchr.c        _TEXT                 code           0000:2a8f        00000019
                const                 data           030d:00dc        00000000
                CONST2                data           031a:000c        00000000
                _data                 data           02e9:0238        00000000
tolower.c       _TEXT                 code           0000:2aa8        0000000e
                const                 data           030d:00dc        00000000
                CONST2                data           031a:000c        00000000
                _data                 data           02e9:0238        00000000
intr.c          _TEXT                 code           0000:2ab6        00000012
                const                 data           030d:00dc        00000000
                CONST2                data           031a:000c        00000000
                _data                 data           02e9:0238        00000000
memmove.c       _TEXT                 code           0000:2ac8        0000004b
                const                 data           030d:00dc        00000000
                CONST2                data           031a:000c        00000000
                _data                 data           02e9:0238        00000000
dointr          _TEXT                 code           0000:2b14        00000379
                _data                 data           02e9:0238        00000000


                        +--------------------+
                        |   Libraries Used   |
                        +--------------------+

/mnt/sda5/.user/root/src/openwatcom-1.9/rel2/lib286/dos/clibs.lib


                        +-----------------------+
                        |   Linker Statistics   |
                        +-----------------------+

Stack size:  0200 (512.)
Memory size:  3ca0 (15520.)
Entry point address: 0000:0000
Link time: 00:00.00
