Open Watcom Linker Version 1.9
Portions Copyright (c) 1985-2002 Sybase, Inc. All Rights Reserved.
Created on:       12/12/15 18:41:10
Executable Image: run.exe
creating a Windows NT character-mode executable


                        +------------+
                        |   Groups   |
                        +------------+

Group                           Address              Size
=====                           =======              ====

.idata                          00406000             00000446
DGROUP                          00407000             00011960



                        +--------------+
                        |   Segments   |
                        +--------------+

Segment                Class          Group          Address         Size
=======                =====          =====          =======         ====

BEGTEXT                CODE           AUTO           00401000        00000007
_TEXT                  CODE           AUTO           00401010        0000436d
TRANSFER CODE          CODE           AUTO           00405380        000000e4
.idata                 .idata         .idata         00406000        00000446
_NULL                  BEGDATA        DGROUP         00407000        00000004
_AFTERNULL             BEGDATA        DGROUP         00407004        00000000
CONST                  DATA           DGROUP         00407004        00000000
CONST2                 DATA           DGROUP         00407004        00000000
_DATA                  DATA           DGROUP         00407004        0000026c
TIB                    DATA           DGROUP         00407270        00000000
TI                     DATA           DGROUP         00407270        00000000
TIE                    DATA           DGROUP         00407270        00000000
XIB                    DATA           DGROUP         00407270        00000000
XI                     DATA           DGROUP         00407270        00000018
XIE                    DATA           DGROUP         00407288        00000000
YIB                    DATA           DGROUP         00407288        00000000
YI                     DATA           DGROUP         00407288        00000012
YIE                    DATA           DGROUP         0040729a        00000000
DATA                   DATA           DGROUP         0040729a        00000000
_BSS                   BSS            DGROUP         00408000        00000951
STACK                  STACK          DGROUP         00408960        00010000


                        +----------------+
                        |   Memory Map   |
                        +----------------+

* = unreferenced symbol
+ = symbol only referenced locally

Address        Symbol
=======        ======

Module: run.obj(/mnt/sda5/.user/root/src/openwatcom-1.9/bld/pbide/run/run.c)
00401010+      _EnumProc@8
00401090       _WinMain@16
00408000+      _Caption
00408100+      _ClassName
00408200+      _TheWindow
00408204+      _CaptionLen
Module: /usr/src/openwatcom-1.9/rel2/lib386/nt/clib3r.lib(_strcmp)
00401160       strcmp_
Module: /usr/src/openwatcom-1.9/rel2/lib386/nt/clib3r.lib(strncmp.c)
004012a0       strncmp_
Module: /usr/src/openwatcom-1.9/rel2/lib386/nt/clib3r.lib(istable.c)
004012d0       __IsTable
Module: /usr/src/openwatcom-1.9/rel2/lib386/nt/clib3r.lib(cstrtwwt)
004013d2       _wstart_
004013d2*      _wstart2_
004013d2*      WinMainCRTStartup
Module: /usr/src/openwatcom-1.9/rel2/lib386/nt/clib3r.lib(wmainwnt.c)
00401430       __WinMain
Module: /usr/src/openwatcom-1.9/rel2/lib386/nt/clib3r.lib(segdefns)
00401003       ___begtext
00407000*      __nullarea
00407270       __Start_XI
00407288       __End_XI
00407288       __Start_YI
0040729a       __End_YI
Module: /usr/src/openwatcom-1.9/rel2/lib386/nt/clib3r.lib(initrtns.c)
004014f0       __InitRtns
00401540       __FiniRtns
Module: /usr/src/openwatcom-1.9/rel2/lib386/nt/clib3r.lib(mthrdini.c)
004015a0       __InitThreadData_
00407004       ___ThreadDataSize
Module: /usr/src/openwatcom-1.9/rel2/lib386/nt/clib3r.lib(memset.c)
004015d0       memset_
Module: /usr/src/openwatcom-1.9/rel2/lib386/nt/clib3r.lib(mainwnt.c)
00407008*      ___TlsIndex
0040700c+      ___FirstThreadData
00407010       ___GetThreadPtr
00407014       __AccessFileH
00407018       __ReleaseFileH
0040701c       __AccessIOB
00407020       __ReleaseIOB
00407024       __AccessNHeap
00407028*      __AccessFHeap
0040702c       __ReleaseNHeap
00401600*      __threadid_
00401620+      __sig_null_rtn_
00401630+      __NTInit_
00401810+      __NTFini_
00401870       __NTMainInit_
004018d0       __exit_
00407030*      __ReleaseFHeap
00407034*      __AccessTDList
00407038*      __ReleaseTDList
0040703c       __AccessFList
00407040       __ReleaseFList
00407044+      __ThreadExitRtn
00407048       ___sig_init_rtn
0040704c       ___sig_fini_rtn
00407050       ___process_fini
00408210       ___Is_DLL
Module: /usr/src/openwatcom-1.9/rel2/lib386/nt/clib3r.lib(crwdata)
00407098       __osmajor
00407099       __osminor
0040709a       __osbuild
0040709c       __osver
004070a0       __winmajor
004070a4       __winminor
004070a8       __winver
00407064       __LpDllName
00407068       __LpwCmdLine
0040706c       __LpwPgmName
00407070       __LpwDllName
0040705c       __LpCmdLine
00407060       __LpPgmName
00407054*      __dynend
00407058       __curbrk
00407074*      __STACKLOW
00407078       __STACKTOP
0040707c       __ASTACKSIZ
00407080       __ASTACKPTR
00407084*      __cbyte
00407088*      __cbyte2
0040708c*      __child
00407092       __Envptr
00407096*      __Envseg
00407090*      __no87
004070ac       ___FPE_handler
Module: /usr/src/openwatcom-1.9/rel2/lib386/nt/clib3r.lib(stackwnt.c)
00401930       stackavail_
Module: /usr/src/openwatcom-1.9/rel2/lib386/nt/clib3r.lib(cinit.c)
00401940       __CommonInit_
Module: /usr/src/openwatcom-1.9/rel2/lib386/nt/clib3r.lib(exit.c)
00401941+      __null_int23_exit_
00401942       exit_
00401992*      _exit_
004070b0+      ___int23_exit
004070b4+      ___FPE_handler_exit
Module: /usr/src/openwatcom-1.9/rel2/lib386/nt/clib3r.lib(stk)
004019a9*      __CHK
004019b9*      __STK
004019d8*      __STKOVERFLOW_
004019e8       __GRO
00401a08*      __alloca_probe
Module: /usr/src/openwatcom-1.9/rel2/lib386/nt/clib3r.lib(dosseg)
00001234       __DOSseg__
Module: /usr/src/openwatcom-1.9/rel2/lib386/nt/clib3r.lib(stklmwnt.c)
00401a20       __init_stack_limits_
Module: /usr/src/openwatcom-1.9/rel2/lib386/nt/clib3r.lib(__stos)
00401a90       __STOSB
00401ac7*      __STOSD
Module: /usr/src/openwatcom-1.9/rel2/lib386/nt/clib3r.lib(hdlman.c)
004070c8+      ___NHandles
004070cc+      ___OSHandles
004070d0+      ___FakeHandles
00401b40+      __growPOSIXHandles_
00401be0+      __allocPOSIXHandle_
00401ca0*      __freePOSIXHandle_
00401cc0       __getOSHandle_
00401cd0       __setOSHandle_
00401d20+      __NTGetFakeHandle_
00401d90       __initPOSIXHandles_
00401e70*      __set_handles_
00401e80*      _grow_handles_
Module: /usr/src/openwatcom-1.9/rel2/lib386/nt/clib3r.lib(environ.c)
0040882c       ___env_mask
00408830       _environ
00408834       __wenviron
Module: /usr/src/openwatcom-1.9/rel2/lib386/nt/clib3r.lib(getmodfn.c)
00401ec0       __lib_GetModuleFileNameW_
Module: /usr/src/openwatcom-1.9/rel2/lib386/nt/clib3r.lib(strdup.c)
00401f60       __clib_strdup_
Module: /usr/src/openwatcom-1.9/rel2/lib386/nt/clib3r.lib(ustrdup.c)
00401fa0       __clib_wcsdup_
Module: /usr/src/openwatcom-1.9/rel2/lib386/nt/clib3r.lib(nfree.c)
00401fd0       _nfree_
00401fd0       free_
00408838       ___MiniHeapFreeRover
Module: /usr/src/openwatcom-1.9/rel2/lib386/nt/clib3r.lib(excptwnt.c)
00402740+      ___ReportException@4
00402b90       __DefaultExceptionHandler_
00402bd0+      ___ExceptionFilter
00402de0       __NewExceptionFilter_
00402e10       __DoneExceptionFilter_
004070dc       ___oscode_check_func
004070e0       ___raise_func
0040883c*      _sw
00408840+      ___ExceptionHandled
00408841+      ___ReportInvoked
Module: /usr/src/openwatcom-1.9/rel2/lib386/nt/clib3r.lib(xmsgwnt.c)
00402e50+      __exit_with_msg_
00402eb0       __fatal_runtime_error_
Module: /usr/src/openwatcom-1.9/rel2/lib386/nt/clib3r.lib(nmalloc.c)
00402ed0       _nmalloc_
00402ed0       malloc_
004070f8       ___nheapbeg
004070fc       ___MiniHeapRover
00407100       ___LargestSizeB4MiniHeapRover
Module: /usr/src/openwatcom-1.9/rel2/lib386/nt/clib3r.lib(seterrno.c)
00402fca       __set_errno_
00402fd8*      __set_EDOM_
00402fe6*      __set_ERANGE_
00402ff4*      __set_EINVAL_
00403007*      __set_doserrno_
Module: /usr/src/openwatcom-1.9/rel2/lib386/nt/clib3r.lib(nrealloc.c)
00403020*      _nrealloc_
00403020       realloc_
Module: /usr/src/openwatcom-1.9/rel2/lib386/nt/clib3r.lib(iomode.c)
004030a0       __GetIOMode_
004030c0*      __SetIOMode_nogrow_
00407104       ___NFiles
00407108       ___init_mode
00407158       ___io_mode
Module: /usr/src/openwatcom-1.9/rel2/lib386/nt/clib3r.lib(stiomode.c)
004030e0       __grow_iomode_
004031b0+      __shrink_iomode_
004031f0       __SetIOMode_
Module: /usr/src/openwatcom-1.9/rel2/lib386/nt/clib3r.lib(setenvp.c)
00403260       __setenvp_
00403320       __freeenvp_
Module: /usr/src/openwatcom-1.9/rel2/lib386/nt/clib3r.lib(ustrlen.c)
0040336d       wcslen_
Module: /usr/src/openwatcom-1.9/rel2/lib386/nt/clib3r.lib(memcpy.c)
00403380       memcpy_
Module: /usr/src/openwatcom-1.9/rel2/lib386/nt/clib3r.lib(mem.c)
004033a0       __MemAllocator
00403450       __MemFree
Module: /usr/src/openwatcom-1.9/rel2/lib386/nt/clib3r.lib(conutwnt.c)
004035a0*      __NTRealKey_
00403650*      __NTConsoleInput_
00403660       __NTConsoleOutput_
Module: /usr/src/openwatcom-1.9/rel2/lib386/nt/clib3r.lib(fclex387.c)
00403670       _ClearFPE_
Module: /usr/src/openwatcom-1.9/rel2/lib386/nt/clib3r.lib(signlwnt.c)
00407164+      __SignalTable
00403680+      __SetSignalFunc_
004036d0+      __GetSignalFunc_
00403700+      __GetSignalOSCode_
00403730+      __CheckSignalExCode_
00403870+      __sigabort_
00403880       __sigfpe_handler_
004038d0*      signal_
00403960+      raise_
004039d0+      __SigInit_
00403a20+      __SigFini_
00403a60+      __sig_init_
Module: /usr/src/openwatcom-1.9/rel2/lib386/nt/clib3r.lib(enterdb.c)
00403a80       __EnterWVIDEO_
004071d0+      ___WD_Present
Module: /usr/src/openwatcom-1.9/rel2/lib386/nt/clib3r.lib(nmemneed.c)
00403ab0       __nmemneed_
Module: /usr/src/openwatcom-1.9/rel2/lib386/nt/clib3r.lib(grownear.c)
00403c20       __ExpandDGROUP_
Module: /usr/src/openwatcom-1.9/rel2/lib386/nt/clib3r.lib(nmsize.c)
00403c40       _nmsize_
00403c40*      _msize_
Module: /usr/src/openwatcom-1.9/rel2/lib386/nt/clib3r.lib(nexpand.c)
00403c50       _nexpand_
00403c50*      _expand_
00403c90+      __HeapManager_expand_
Module: /usr/src/openwatcom-1.9/rel2/lib386/nt/clib3r.lib(iomodtty.c)
00403e50       __ChkTTYIOMode_
00403e90*      __IOMode_
Module: /usr/src/openwatcom-1.9/rel2/lib386/nt/clib3r.lib(dofilstr.c)
00403ed0       __ParsePosixHandleStr_
Module: /usr/src/openwatcom-1.9/rel2/lib386/nt/clib3r.lib(clearenv.c)
00403ff0       clearenv_
Module: /usr/src/openwatcom-1.9/rel2/lib386/nt/clib3r.lib(abort.c)
00404095*      abort_
004040a7       __terminate_
004071d4       ___abort
Module: /usr/src/openwatcom-1.9/rel2/lib386/nt/clib3r.lib(amblksiz.c)
004071d8       __amblksiz
Module: /usr/src/openwatcom-1.9/rel2/lib386/nt/clib3r.lib(heapen.c)
004040c0*      _heapenable_
004071dc       ___heap_enabled
Module: /usr/src/openwatcom-1.9/rel2/lib386/nt/clib3r.lib(nheapmin.c)
004040f0       _nheapshrink_
004040f0*      _nheapmin_
004040f0*      _heapmin_
004040f0*      _heapshrink_
Module: /usr/src/openwatcom-1.9/rel2/lib386/nt/clib3r.lib(isattwnt.c)
004041e0       isatty_
Module: /usr/src/openwatcom-1.9/rel2/lib386/nt/clib3r.lib(getenv.c)
00404200       getenv_
Module: /usr/src/openwatcom-1.9/rel2/lib386/nt/clib3r.lib(strncpy.c)
00404290       strncpy_
Module: /usr/src/openwatcom-1.9/rel2/lib386/nt/clib3r.lib(strtol.c)
004044f0*      strtoul_
00404500       strtol_
Module: /usr/src/openwatcom-1.9/rel2/lib386/nt/clib3r.lib(putenv.c)
00404510       putenv_
004047a0       __putenv_
Module: /usr/src/openwatcom-1.9/rel2/lib386/nt/clib3r.lib(mbterm.c)
00404910       _mbterm_
Module: /usr/src/openwatcom-1.9/rel2/lib386/nt/clib3r.lib(mbsnextc.c)
00404950       _mbsnextc_
Module: /usr/src/openwatcom-1.9/rel2/lib386/nt/clib3r.lib(mbcupper.c)
00404990       _mbctoupper_
Module: /usr/src/openwatcom-1.9/rel2/lib386/nt/clib3r.lib(mbsinc.c)
004049c0       _mbsinc_
Module: /usr/src/openwatcom-1.9/rel2/lib386/nt/clib3r.lib(tolower.c)
004049f0       tolower_
Module: /usr/src/openwatcom-1.9/rel2/lib386/nt/clib3r.lib(mbschr.c)
00404a00       _mbschr_
Module: /usr/src/openwatcom-1.9/rel2/lib386/nt/clib3r.lib(mbslen.c)
00404a60       _mbslen_
Module: /usr/src/openwatcom-1.9/rel2/lib386/nt/clib3r.lib(mbstowcs.c)
00404a90       mbstowcs_
Module: /usr/src/openwatcom-1.9/rel2/lib386/nt/clib3r.lib(uputenv.c)
00404b10*      _wputenv_
00404d30       __wputenv_
Module: /usr/src/openwatcom-1.9/rel2/lib386/nt/clib3r.lib(toupper.c)
00404e30       toupper_
Module: /usr/src/openwatcom-1.9/rel2/lib386/nt/clib3r.lib(memmove.c)
00404e40       memmove_
Module: /usr/src/openwatcom-1.9/rel2/lib386/nt/clib3r.lib(mbisdbcs.c)
0040884c       ___IsDBCS
Module: /usr/src/openwatcom-1.9/rel2/lib386/nt/clib3r.lib(mbislead.c)
00404ea0*      _ismbblead_
00408850       ___MBCSIsTable
Module: /usr/src/openwatcom-1.9/rel2/lib386/nt/clib3r.lib(mbconv.c)
00404ec0       _mbvtop_
Module: /usr/src/openwatcom-1.9/rel2/lib386/nt/clib3r.lib(mbclen.c)
00404ee0       _mbclen_
Module: /usr/src/openwatcom-1.9/rel2/lib386/nt/clib3r.lib(mbccmp.c)
00404f10       _mbccmp_
Module: /usr/src/openwatcom-1.9/rel2/lib386/nt/clib3r.lib(mbtowc.c)
00404f50       mbtowc_
Module: /usr/src/openwatcom-1.9/rel2/lib386/nt/clib3r.lib(ustrchr.c)
00404fe0       wcschr_
Module: /usr/src/openwatcom-1.9/rel2/lib386/nt/clib3r.lib(setenvar.c)
00405000       __lib_SetEnvironmentVariableW_
Module: /usr/src/openwatcom-1.9/rel2/lib386/nt/clib3r.lib(crtwenv.c)
004050f0       __create_wide_environment_
Module: /usr/src/openwatcom-1.9/rel2/lib386/nt/clib3r.lib(wcstombs.c)
00405160       wcstombs_
Module: /usr/src/openwatcom-1.9/rel2/lib386/nt/clib3r.lib(utoupper.c)
004051ff       towupper_
Module: /usr/src/openwatcom-1.9/rel2/lib386/nt/clib3r.lib(mbinit.c)
00405249       __mbinit_
0040726c       ___MBCodePage
Module: /usr/src/openwatcom-1.9/rel2/lib386/nt/clib3r.lib(wctomb.c)
00405340       wctomb_


                        +----------------------+
                        |   Imported Symbols   |
                        +----------------------+

Symbol                              Module
======                              ======

_GetClassNameA@12                   USER32.DLL
_GetWindowTextA@12                  USER32.DLL
_EnumWindows@8                      USER32.DLL
_WinExec@8                          KERNEL32.DLL
_SetForegroundWindow@4              USER32.DLL
_GetModuleHandleA@4                 KERNEL32.DLL
_GetCurrentThreadId@0               KERNEL32.DLL
_GetEnvironmentStringsA@0           KERNEL32.DLL
_GetVersion@0                       KERNEL32.DLL
_GetModuleFileNameA@12              KERNEL32.DLL
_GetCommandLineA@0                  KERNEL32.DLL
_GetCommandLineW@0                  KERNEL32.DLL
_FreeEnvironmentStringsA@4          KERNEL32.DLL
_ExitProcess@4                      KERNEL32.DLL
_VirtualQuery@12                    KERNEL32.DLL
_SetStdHandle@8                     KERNEL32.DLL
_CreateEventA@16                    KERNEL32.DLL
_GetStdHandle@4                     KERNEL32.DLL
_CloseHandle@4                      KERNEL32.DLL
_GetModuleFileNameW@12              KERNEL32.DLL
_MultiByteToWideChar@24             KERNEL32.DLL
_LoadLibraryA@4                     KERNEL32.DLL
_GetProcAddress@8                   KERNEL32.DLL
_WriteFile@20                       KERNEL32.DLL
_SetUnhandledExceptionFilter@4      KERNEL32.DLL
_UnhandledExceptionFilter@4         KERNEL32.DLL
_CreateFileA@28                     KERNEL32.DLL
_SetConsoleCtrlHandler@8            KERNEL32.DLL
_VirtualAlloc@16                    KERNEL32.DLL
_VirtualFree@12                     KERNEL32.DLL
_GetFileType@4                      KERNEL32.DLL
_SetEnvironmentVariableA@8          KERNEL32.DLL
_CharUpperA@4                       USER32.DLL
_SetEnvironmentVariableW@8          KERNEL32.DLL
_GetACP@0                           KERNEL32.DLL
_GetOEMCP@0                         KERNEL32.DLL
_GetCPInfo@8                        KERNEL32.DLL
_WideCharToMultiByte@32             KERNEL32.DLL


                        +--------------------+
                        |   Libraries Used   |
                        +--------------------+

/usr/src/openwatcom-1.9/rel2/lib386/nt/kernel32.lib
/usr/src/openwatcom-1.9/rel2/lib386/nt/user32.lib
/usr/src/openwatcom-1.9/rel2/lib386/nt/clib3r.lib


                        +-----------------------+
                        |   Linker Statistics   |
                        +-----------------------+

Stack size:  00010000 (65536.)
Memory size:  0001620a (90634.)
Entry point address: 004013d2
Link time: 00:00.00
