Open Watcom Linker Version 1.9
Portions Copyright (c) 1985-2002 Sybase, Inc. All Rights Reserved.
Created on:       12/12/16 02:39:37
Executable Image: techinfo.exe
creating an OS/2 16-bit executable


                        +------------+
                        |   Groups   |
                        +------------+

Group                           Address              Size
=====                           =======              ====

DGROUP                          0002:0000            00002260



                        +--------------+
                        |   Segments   |
                        +--------------+

Segment                Class          Group          Address         Size
=======                =====          =====          =======         ====

techinfo_TEXT          CODE           AUTO           0001:0000       000007c3
_TEXT                  CODE           AUTO           0001:07d0       00006180
_NULL                  BEGDATA        DGROUP         0002:0000       00000020
_AFTERNULL             BEGDATA        DGROUP         0002:0020       00000002
CONST                  DATA           DGROUP         0002:0022       000007b0
CONST2                 DATA           DGROUP         0002:07d2       0000013c
_DATA                  DATA           DGROUP         0002:090e       0000065c
XIB                    DATA           DGROUP         0002:0f6a       00000000
XI                     DATA           DGROUP         0002:0f6a       00000018
XIE                    DATA           DGROUP         0002:0f82       00000000
YIB                    DATA           DGROUP         0002:0f82       00000000
YI                     DATA           DGROUP         0002:0f82       00000018
YIE                    DATA           DGROUP         0002:0f9a       00000000
STRINGS                DATA           DGROUP         0002:0f9a       00000000
_BSS                   BSS            DGROUP         0002:0f9a       000002ba
STACK                  STACK          DGROUP         0002:1260       00001000


                        +----------------+
                        |   Memory Map   |
                        +----------------+

* = unreferenced symbol
+ = symbol only referenced locally

Address        Symbol
=======        ======

Module: techinfo.obj(/mnt/sda5/.user/root/src/openwatcom-1.9/bld/techinfo/techinfo.c)
0001:0000*     Usage_
0001:001b+     techoutput_
0001:00ff+     do_company_header_
0001:0155+     print_env_var_
0001:01c2+     GetLevel_
0001:0246+     patch_tool_
0001:034a+     get_compiler_patch_
0001:03d6+     get_wsql_patch_
0001:0474+     get_mem_info_
0001:04a1+     dump_files_
0001:0601+     get_config_files_
0001:064a+     machine_type_
0001:0743      main_
0002:090e+     _WATCOMC_EnvVars
0002:09ae+     _WSQL_EnvVars
0002:09ca+     _WATCOMC_Tools
0002:0a12+     _WSQL_Tools
0002:0a62+     _WATCOMC_Dirs
0002:0a7a+     _WSQL_Dirs
0002:0a9e+     _ProcessorType
0002:0b1e+     _CoProcessorType
0002:0b3e+     _IsNotIs
0002:0b46+     _LineCount
0002:0fb2+     _WATCOMPATH
0002:10b2+     _TechOutFile
Module: ptype.obj(/mnt/sda5/.user/root/src/openwatcom-1.9/bld/techinfo/ptype.asm)
0001:07d0      PType_
Module: pbus.obj(/mnt/sda5/.user/root/src/openwatcom-1.9/bld/techinfo/pbus.asm)
0001:0857      PBus_
Module: pprefix.obj(/mnt/sda5/.user/root/src/openwatcom-1.9/bld/techinfo/pprefix.asm)
0001:087e      PPrefix_
Module: ndptype.obj(/mnt/sda5/.user/root/src/openwatcom-1.9/bld/techinfo/ndptype.asm)
0001:088f      NDPType_
Module: /mnt/sda5/.user/root/src/openwatcom-1.9/rel2/lib286/os2/clibl.lib(printf.c)
0001:08e5      printf_
Module: /mnt/sda5/.user/root/src/openwatcom-1.9/rel2/lib286/os2/clibl.lib(vprintf.c)
0001:0912      vprintf_
Module: /mnt/sda5/.user/root/src/openwatcom-1.9/rel2/lib286/os2/clibl.lib(vfprintf.c)
0001:0924      vfprintf_
Module: /mnt/sda5/.user/root/src/openwatcom-1.9/rel2/lib286/os2/clibl.lib(iob.c)
0002:0b48      ___iob
0002:0cb0      __fmode
0002:10b6      ___OpenStreams
0002:10ba      ___ClosedStreams
Module: /mnt/sda5/.user/root/src/openwatcom-1.9/rel2/lib286/os2/clibl.lib(fflush.c)
0001:0936      fflush_
Module: /mnt/sda5/.user/root/src/openwatcom-1.9/rel2/lib286/os2/clibl.lib(getchos2.c)
0001:094b      getch_
Module: /mnt/sda5/.user/root/src/openwatcom-1.9/rel2/lib286/os2/clibl.lib(fputc.c)
0001:09be      fputc_
Module: /mnt/sda5/.user/root/src/openwatcom-1.9/rel2/lib286/os2/clibl.lib(time.c)
0001:0a8c      time_
Module: /mnt/sda5/.user/root/src/openwatcom-1.9/rel2/lib286/os2/clibl.lib(asctime.c)
0001:0aef+     _asctime_
0001:0c08*     asctime_
0001:0c17*     _ctime_
0001:0c35      ctime_
Module: /mnt/sda5/.user/root/src/openwatcom-1.9/rel2/lib286/os2/clibl.lib(getenv.c)
0001:0c44      getenv_
Module: /mnt/sda5/.user/root/src/openwatcom-1.9/rel2/lib286/os2/clibl.lib(openos2.c)
0001:0e7e      open_
0001:0eb2      sopen_
Module: /mnt/sda5/.user/root/src/openwatcom-1.9/rel2/lib286/os2/clibl.lib(lseek.c)
0001:0edd      lseek_
Module: /mnt/sda5/.user/root/src/openwatcom-1.9/rel2/lib286/os2/clibl.lib(read.c)
0001:0f0e      read_
Module: /mnt/sda5/.user/root/src/openwatcom-1.9/rel2/lib286/os2/clibl.lib(close.c)
0001:0fee      close_
Module: /mnt/sda5/.user/root/src/openwatcom-1.9/rel2/lib286/os2/clibl.lib(statos2.c)
0001:1056      stat_
Module: /mnt/sda5/.user/root/src/openwatcom-1.9/rel2/lib286/os2/clibl.lib(fopen.c)
0001:1345+     __open_flags_
0001:154b+     _fsopen_
0001:15b0      fopen_
0001:1686*     freopen_
Module: /mnt/sda5/.user/root/src/openwatcom-1.9/rel2/lib286/os2/clibl.lib(fgets.c)
0001:16f9      fgets_
Module: /mnt/sda5/.user/root/src/openwatcom-1.9/rel2/lib286/os2/clibl.lib(fclose.c)
0001:1786      __doclose_
0001:1835      __shutdown_stream_
0001:184f      fclose_
0002:10d8+     ___RmTmpFileFn
Module: /mnt/sda5/.user/root/src/openwatcom-1.9/rel2/lib286/os2/clibl.lib(exit.c)
0001:189a+     __null_int23_exit_
0001:189b      exit_
0001:18cc*     _exit_
0002:0cb2+     ___int23_exit
0002:0cb6+     ___FPE_handler_exit
Module: /mnt/sda5/.user/root/src/openwatcom-1.9/rel2/lib286/os2/clibl.lib(cstart)
0002:0000*     __nullarea
0001:18f0      _cstart_
0001:18f0*     __DLLstart_
Module: /mnt/sda5/.user/root/src/openwatcom-1.9/rel2/lib286/os2/clibl.lib(cmodel)
0001:196c      _big_code_
0001:196c*     CodeModelMismatch
Module: /mnt/sda5/.user/root/src/openwatcom-1.9/rel2/lib286/os2/clibl.lib(argcv.c)
0002:10dc      __argv
0002:10e0      ___argv
0002:10e4      __argc
0002:10e6      ___argc
Module: /mnt/sda5/.user/root/src/openwatcom-1.9/rel2/lib286/os2/clibl.lib(fprtf.c)
0001:1986      __fprtf_
Module: /mnt/sda5/.user/root/src/openwatcom-1.9/rel2/lib286/os2/clibl.lib(initfile.c)
0001:1a4d      __InitFiles_
Module: /mnt/sda5/.user/root/src/openwatcom-1.9/rel2/lib286/os2/clibl.lib(ioexit.c)
0001:1b96*     fcloseall_
0001:1b9d      __full_io_exit_
Module: /mnt/sda5/.user/root/src/openwatcom-1.9/rel2/lib286/os2/clibl.lib(flushall.c)
0001:1ba7      __flushall_
0001:1c02      flushall_
Module: /mnt/sda5/.user/root/src/openwatcom-1.9/rel2/lib286/os2/clibl.lib(flush.c)
0001:1c07      __flush_
Module: /mnt/sda5/.user/root/src/openwatcom-1.9/rel2/lib286/os2/clibl.lib(maino16.c)
0001:1d38+     __null_FPE_handler_
0001:1d39      __OS2Main
0001:1e16      __exit_
0002:0cba*     ___FPE_handler
0002:10e8      __LpCmdLine
0002:10ec      __LpPgmName
0002:10f0+     __threadid
0002:10f4+     __nothread
0002:10f6      __cbyte2
0002:10f8      __STACKTOP
0002:10fa      __cbyte
0002:10fc+     __dynend
0002:10fe      __curbrk
0002:1100      __STACKLOW
0002:1102+     __HShift
0002:1104+     __osmajor
0002:1105+     __osminor
0002:1106      __osmode
Module: /mnt/sda5/.user/root/src/openwatcom-1.9/rel2/lib286/os2/clibl.lib(ioalloc.c)
0001:1e31      __ioalloc_
Module: /mnt/sda5/.user/root/src/openwatcom-1.9/rel2/lib286/os2/clibl.lib(seterrno.c)
0001:1ecb      __set_errno_
0001:1edf*     __set_EDOM_
0001:1ef1*     __set_ERANGE_
0001:1f03*     __set_EINVAL_
0001:1f18      __set_doserrno_
Module: /mnt/sda5/.user/root/src/openwatcom-1.9/rel2/lib286/os2/clibl.lib(gtctmos2.c)
0001:1f24      __getctime_
Module: /mnt/sda5/.user/root/src/openwatcom-1.9/rel2/lib286/os2/clibl.lib(mktime.c)
0001:1f82      mktime_
Module: /mnt/sda5/.user/root/src/openwatcom-1.9/rel2/lib286/os2/clibl.lib(localtim.c)
0001:203a      _localtime_
0001:20c7      localtime_
Module: /mnt/sda5/.user/root/src/openwatcom-1.9/rel2/lib286/os2/clibl.lib(environ.c)
0002:111a      ___env_mask
0002:111e      _environ
0002:1122*     __wenviron
Module: /mnt/sda5/.user/root/src/openwatcom-1.9/rel2/lib286/os2/clibl.lib(mbterm.c)
0001:20d6      _mbterm_
Module: /mnt/sda5/.user/root/src/openwatcom-1.9/rel2/lib286/os2/clibl.lib(mbsnextc.c)
0001:2118      _mbsnextc_
Module: /mnt/sda5/.user/root/src/openwatcom-1.9/rel2/lib286/os2/clibl.lib(mbcupper.c)
0001:2162      _mbctoupper_
Module: /mnt/sda5/.user/root/src/openwatcom-1.9/rel2/lib286/os2/clibl.lib(mbsinc.c)
0001:2185      _mbsinc_
Module: /mnt/sda5/.user/root/src/openwatcom-1.9/rel2/lib286/os2/clibl.lib(umaskval.c)
0002:0cbe      ___umaskval
Module: /mnt/sda5/.user/root/src/openwatcom-1.9/rel2/lib286/os2/clibl.lib(iomode.c)
0001:21c1      __GetIOMode_
0001:21e6      __SetIOMode_nogrow_
0002:0cc0      ___NFiles
0002:0cc2      ___init_mode
0002:0cea      ___io_mode
Module: /mnt/sda5/.user/root/src/openwatcom-1.9/rel2/lib286/os2/clibl.lib(isattos2.c)
0001:2209      isatty_
Module: /mnt/sda5/.user/root/src/openwatcom-1.9/rel2/lib286/os2/clibl.lib(stiomode.c)
0001:2236+     __grow_iomode_
0001:22f7+     __shrink_iomode_
0001:2332      __SetIOMode_
Module: /mnt/sda5/.user/root/src/openwatcom-1.9/rel2/lib286/os2/clibl.lib(dosret.c)
0001:2395*     _dosretax_
0001:239a*     _dosret0_
0001:23a1      __set_errno_dos_
0001:23c6*     __set_errno_dos_reterr_
Module: /mnt/sda5/.user/root/src/openwatcom-1.9/rel2/lib286/os2/clibl.lib(__lseek.c)
0001:23d1      __lseek_
Module: /mnt/sda5/.user/root/src/openwatcom-1.9/rel2/lib286/os2/clibl.lib(iomodtty.c)
0001:23f9      __ChkTTYIOMode_
0001:2437*     __IOMode_
Module: /mnt/sda5/.user/root/src/openwatcom-1.9/rel2/lib286/os2/clibl.lib(_clseos2.c)
0001:2447      __close_
Module: /mnt/sda5/.user/root/src/openwatcom-1.9/rel2/lib286/os2/clibl.lib(mbschr.c)
0001:2474      _mbschr_
Module: /mnt/sda5/.user/root/src/openwatcom-1.9/rel2/lib286/os2/clibl.lib(mbscmp.c)
0001:24f8      _mbscmp_
Module: /mnt/sda5/.user/root/src/openwatcom-1.9/rel2/lib286/os2/clibl.lib(mbspbrk.c)
0001:258f      _mbspbrk_
Module: /mnt/sda5/.user/root/src/openwatcom-1.9/rel2/lib286/os2/clibl.lib(fullpath.c)
0001:25e5+     _sys_fullpath_
0001:28a6      _fullpath_
Module: /mnt/sda5/.user/root/src/openwatcom-1.9/rel2/lib286/os2/clibl.lib(istable.c)
0002:080c      __IsTable
Module: /mnt/sda5/.user/root/src/openwatcom-1.9/rel2/lib286/os2/clibl.lib(tolower.c)
0001:2962      tolower_
Module: /mnt/sda5/.user/root/src/openwatcom-1.9/rel2/lib286/os2/clibl.lib(fstatos2.c)
0001:298b      fstat_
Module: /mnt/sda5/.user/root/src/openwatcom-1.9/rel2/lib286/os2/clibl.lib(errno.c)
0001:2b20      __get_errno_ptr_
0001:2b27      __get_doserrno_ptr_
0002:1128+     _errno
0002:112a+     __doserrno
Module: /mnt/sda5/.user/root/src/openwatcom-1.9/rel2/lib286/os2/clibl.lib(d2ttime.c)
0001:2b2e      _d2ttime_
Module: /mnt/sda5/.user/root/src/openwatcom-1.9/rel2/lib286/os2/clibl.lib(comtflag.c)
0001:2b92*     __set_commode_
0002:0df0      __commode
Module: /mnt/sda5/.user/root/src/openwatcom-1.9/rel2/lib286/os2/clibl.lib(fseek.c)
0001:2c07      fseek_
Module: /mnt/sda5/.user/root/src/openwatcom-1.9/rel2/lib286/os2/clibl.lib(chktty.c)
0001:2d53      __chktty_
Module: /mnt/sda5/.user/root/src/openwatcom-1.9/rel2/lib286/os2/clibl.lib(freefp.c)
0001:2d7e      __freefp_
0001:2df7      __purgefp_
Module: /mnt/sda5/.user/root/src/openwatcom-1.9/rel2/lib286/os2/clibl.lib(allocfp.c)
0001:2e38      __allocfp_
Module: /mnt/sda5/.user/root/src/openwatcom-1.9/rel2/lib286/os2/clibl.lib(fgetc.c)
0001:2f58+     __fill_buffer_
0001:304d      fgetc_
Module: /mnt/sda5/.user/root/src/openwatcom-1.9/rel2/lib286/os2/clibl.lib(ffree.c)
0001:30f2      _ffree_
0001:30f2      free_
Module: /mnt/sda5/.user/root/src/openwatcom-1.9/rel2/lib286/os2/clibl.lib(initrtns.c)
0001:3170      __InitRtns
0001:3170*     __FInitRtns
0001:31c9      __FiniRtns
0001:31c9*     __FFiniRtns
Module: /mnt/sda5/.user/root/src/openwatcom-1.9/rel2/lib286/os2/clibl.lib(dosseg)
0001:322c      __DOSseg__
Module: /mnt/sda5/.user/root/src/openwatcom-1.9/rel2/lib286/os2/clibl.lib(initargv.c)
0001:322d      __Init_Argv_
0001:328c+     _getargv_
0001:348e      __Fini_Argv_
Module: /mnt/sda5/.user/root/src/openwatcom-1.9/rel2/lib286/os2/clibl.lib(prtf.c)
0001:34b8      __prtf_
Module: /mnt/sda5/.user/root/src/openwatcom-1.9/rel2/lib286/os2/clibl.lib(nmalloc.c)
0001:426b      _nmalloc_
0002:0df2      ___nheapbeg
0002:0df4      ___MiniHeapRover
0002:0df6      ___LargestSizeB4MiniHeapRover
Module: /mnt/sda5/.user/root/src/openwatcom-1.9/rel2/lib286/os2/clibl.lib(fmalloc.c)
0001:4343      _fmalloc_
0001:4343      malloc_
0002:0df8+     ___fheap
0002:0dfa      ___fheapRover
0002:0dfc      ___LargestSizeB4Rover
Module: /mnt/sda5/.user/root/src/openwatcom-1.9/rel2/lib286/os2/clibl.lib(xmsgo16.c)
0001:444e+     __exit_with_msg_
0001:4496      __fatal_runtime_error_
Module: /mnt/sda5/.user/root/src/openwatcom-1.9/rel2/lib286/os2/clibl.lib(qwrit.c)
0001:44b3      __qwrite_
Module: /mnt/sda5/.user/root/src/openwatcom-1.9/rel2/lib286/os2/clibl.lib(fsync.c)
0001:4514      fsync_
Module: /mnt/sda5/.user/root/src/openwatcom-1.9/rel2/lib286/os2/clibl.lib(gtpidos2.c)
0001:4538      getpid_
Module: /mnt/sda5/.user/root/src/openwatcom-1.9/rel2/lib286/os2/clibl.lib(cmain086.c)
0001:4553      __CMain
Module: /mnt/sda5/.user/root/src/openwatcom-1.9/rel2/lib286/os2/clibl.lib(locmktim.c)
0001:457e      __local_mktime_
Module: /mnt/sda5/.user/root/src/openwatcom-1.9/rel2/lib286/os2/clibl.lib(gmtime.c)
0001:477f      __brktime_
0001:48e0+     _gmtime_
0001:4904*     gmtime_
Module: /mnt/sda5/.user/root/src/openwatcom-1.9/rel2/lib286/os2/clibl.lib(tzset.c)
0002:0dfe      ___start_dst
0002:0e10      ___end_dst
0002:0f24*     _tzname
0002:0f2c      _timezone
0002:0f30      _daylight
0002:0f32      ___dst_adjust
0001:4913*     __DontCacheOSTZ_
0001:492c*     __CacheOSTZ_
0001:4e90+     __parse_tz_
0001:505b      tzset_
Module: /mnt/sda5/.user/root/src/openwatcom-1.9/rel2/lib286/os2/clibl.lib(timeutil.c)
0001:51b3      __isindst_
Module: /mnt/sda5/.user/root/src/openwatcom-1.9/rel2/lib286/os2/clibl.lib(setenvp.c)
0001:54c5      __setenvp_
0001:55dd      __freeenvp_
Module: /mnt/sda5/.user/root/src/openwatcom-1.9/rel2/lib286/os2/clibl.lib(mbisdbcs.c)
0002:1146      ___IsDBCS
Module: /mnt/sda5/.user/root/src/openwatcom-1.9/rel2/lib286/os2/clibl.lib(mbislead.c)
0001:563b*     _ismbblead_
0002:1148      ___MBCSIsTable
Module: /mnt/sda5/.user/root/src/openwatcom-1.9/rel2/lib286/os2/clibl.lib(mbinit.c)
0001:5695      __mbinit_
0002:0f5a      ___MBCodePage
Module: /mnt/sda5/.user/root/src/openwatcom-1.9/rel2/lib286/os2/clibl.lib(mbdtoupp.c)
0001:5774      _mbdtoupper_
Module: /mnt/sda5/.user/root/src/openwatcom-1.9/rel2/lib286/os2/clibl.lib(toupper.c)
0001:5782      toupper_
Module: /mnt/sda5/.user/root/src/openwatcom-1.9/rel2/lib286/os2/clibl.lib(frealloc.c)
0001:5790*     _frealloc_
0001:5790      realloc_
Module: /mnt/sda5/.user/root/src/openwatcom-1.9/rel2/lib286/os2/clibl.lib(mbconv.c)
0001:5868      _mbvtop_
Module: /mnt/sda5/.user/root/src/openwatcom-1.9/rel2/lib286/os2/clibl.lib(mbclen.c)
0001:5882      _mbclen_
Module: /mnt/sda5/.user/root/src/openwatcom-1.9/rel2/lib286/os2/clibl.lib(mbccmp.c)
0001:58b0      _mbccmp_
Module: /mnt/sda5/.user/root/src/openwatcom-1.9/rel2/lib286/os2/clibl.lib(stk)
0001:5902      __STK
0001:5918*     __STKOVERFLOW_
Module: /mnt/sda5/.user/root/src/openwatcom-1.9/rel2/lib286/os2/clibl.lib(gtcwdos2.c)
0001:5928      getcwd_
Module: /mnt/sda5/.user/root/src/openwatcom-1.9/rel2/lib286/os2/clibl.lib(tell.c)
0001:59d3      tell_
Module: /mnt/sda5/.user/root/src/openwatcom-1.9/rel2/lib286/os2/clibl.lib(gtcheos2.c)
0001:59e4      getche_
Module: /mnt/sda5/.user/root/src/openwatcom-1.9/rel2/lib286/os2/clibl.lib(qread.c)
0001:5a0b      __qread_
Module: /mnt/sda5/.user/root/src/openwatcom-1.9/rel2/lib286/os2/clibl.lib(mem.c)
0001:5a30      __MemAllocator
0001:5af6      __MemFree
Module: /mnt/sda5/.user/root/src/openwatcom-1.9/rel2/lib286/os2/clibl.lib(nfree.c)
0001:5c4f      _nfree_
0002:124a+     ___MiniHeapFreeRover
Module: /mnt/sda5/.user/root/src/openwatcom-1.9/rel2/lib286/os2/clibl.lib(_getds)
0001:5d4a      __GETDS
Module: /mnt/sda5/.user/root/src/openwatcom-1.9/rel2/lib286/os2/clibl.lib(sgdef086)
0002:0f6a      __Start_XI
0002:0f82      __End_XI
0002:0f82      __Start_YI
0002:0f9a      __End_YI
Module: /mnt/sda5/.user/root/src/openwatcom-1.9/rel2/lib286/os2/clibl.lib(histsplt.c)
0002:124c      ___historical_splitparms
Module: /mnt/sda5/.user/root/src/openwatcom-1.9/rel2/lib286/os2/clibl.lib(___argc.c)
0002:124e      ____Argv
0002:1252      ____Argc
Module: /mnt/sda5/.user/root/src/openwatcom-1.9/rel2/lib286/os2/clibl.lib(wctomb.c)
0001:5d52      wctomb_
Module: /mnt/sda5/.user/root/src/openwatcom-1.9/rel2/lib286/os2/clibl.lib(itoa.c)
0001:5d82+     utoa_
0001:5ddd      itoa_
Module: /mnt/sda5/.user/root/src/openwatcom-1.9/rel2/lib286/os2/clibl.lib(i4m)
0001:5e02      __I4M
0001:5e02      __U4M
Module: /mnt/sda5/.user/root/src/openwatcom-1.9/rel2/lib286/os2/clibl.lib(strupr.c)
0001:5e1a      strupr_
Module: /mnt/sda5/.user/root/src/openwatcom-1.9/rel2/lib286/os2/clibl.lib(noefgfmt.c)
0002:0f5c      ___EFG_printf
0002:0f60*     ___EFG_scanf
Module: /mnt/sda5/.user/root/src/openwatcom-1.9/rel2/lib286/os2/clibl.lib(lltoa.c)
0001:5e4f      ulltoa_
0001:5f32*     lltoa_
Module: /mnt/sda5/.user/root/src/openwatcom-1.9/rel2/lib286/os2/clibl.lib(ltoa.c)
0001:5f94      ultoa_
0001:6001*     ltoa_
Module: /mnt/sda5/.user/root/src/openwatcom-1.9/rel2/lib286/os2/clibl.lib(nmemneed.c)
0001:6031      __nmemneed_
Module: /mnt/sda5/.user/root/src/openwatcom-1.9/rel2/lib286/os2/clibl.lib(grownear.c)
0001:60b9+     __LastFree_
0001:6133      __ExpandDGROUP_
Module: /mnt/sda5/.user/root/src/openwatcom-1.9/rel2/lib286/os2/clibl.lib(growseg.c)
0001:6242      __GrowSeg_
Module: /mnt/sda5/.user/root/src/openwatcom-1.9/rel2/lib286/os2/clibl.lib(allocseg.c)
0001:6349      __AllocSeg_
Module: /mnt/sda5/.user/root/src/openwatcom-1.9/rel2/lib286/os2/clibl.lib(fmemneed.c)
0001:63f0      __fmemneed_
Module: /mnt/sda5/.user/root/src/openwatcom-1.9/rel2/lib286/os2/clibl.lib(enterdb.c)
0001:63f3      __EnterWVIDEO_
0002:0f64+     ___WD_Present
Module: /mnt/sda5/.user/root/src/openwatcom-1.9/rel2/lib286/os2/clibl.lib(amblksiz.c)
0002:0f66      __amblksiz
Module: /mnt/sda5/.user/root/src/openwatcom-1.9/rel2/lib286/os2/clibl.lib(leapyear.c)
0001:6417      __leapyear_
0002:0778      ___diyr
0002:0792      ___dilyr
Module: /mnt/sda5/.user/root/src/openwatcom-1.9/rel2/lib286/os2/clibl.lib(i4d)
0001:6442*     __I4D
0001:6491      __U4D
Module: /mnt/sda5/.user/root/src/openwatcom-1.9/rel2/lib286/os2/clibl.lib(clearenv.c)
0001:6515      clearenv_
Module: /mnt/sda5/.user/root/src/openwatcom-1.9/rel2/lib286/os2/clibl.lib(fmsize.c)
0001:65f4*     _msize_
0001:65f4      _fmsize_
Module: /mnt/sda5/.user/root/src/openwatcom-1.9/rel2/lib286/os2/clibl.lib(nexpand.c)
0001:6605      __HeapManager_expand_
0001:677a      _nexpand_
Module: /mnt/sda5/.user/root/src/openwatcom-1.9/rel2/lib286/os2/clibl.lib(fexpand.c)
0001:67cb      _fexpand_
0001:67cb*     _expand_
Module: /mnt/sda5/.user/root/src/openwatcom-1.9/rel2/lib286/os2/clibl.lib(strncpy.c)
0001:6800      strncpy_
Module: /mnt/sda5/.user/root/src/openwatcom-1.9/rel2/lib286/os2/clibl.lib(putchos2.c)
0001:683c      putch_
Module: /mnt/sda5/.user/root/src/openwatcom-1.9/rel2/lib286/os2/clibl.lib(alphabet.c)
0002:07ac      ___Alphabet
Module: /mnt/sda5/.user/root/src/openwatcom-1.9/rel2/lib286/os2/clibl.lib(heapen.c)
0001:6862*     _heapenable_
0002:0f68      ___heap_enabled
Module: /mnt/sda5/.user/root/src/openwatcom-1.9/rel2/lib286/os2/clibl.lib(sbrk.c)
0001:6873*     sbrk_
0001:6883      __brk_
Module: /mnt/sda5/.user/root/src/openwatcom-1.9/rel2/lib286/os2/clibl.lib(bfree.c)
0001:68d4      _bfree_
Module: /mnt/sda5/.user/root/src/openwatcom-1.9/rel2/lib286/os2/clibl.lib(bexpand.c)
0001:68f9      _bexpand_


                        +----------------------+
                        |   Imported Symbols   |
                        +----------------------+

Symbol                              Module
======                              ======

DOSMEMAVAIL                         DOSCALLS
DOSGETINFOSEG                       DOSCALLS
DOSDEVCONFIG                        DOSCALLS
KBDCHARIN                           KBDCALLS
DOSOPEN                             DOSCALLS
DOSCLOSE                            DOSCALLS
DOSREAD                             DOSCALLS
DOSQCURDISK                         DOSCALLS
DOSFINDFIRST                        DOSCALLS
DOSFINDCLOSE                        DOSCALLS
DOSGETHUGESHIFT                     DOSCALLS
DOSGETMACHINEMODE                   DOSCALLS
DOSGETVERSION                       DOSCALLS
DOSEXIT                             DOSCALLS
DOSGETDATETIME                      DOSCALLS
DOSQHANDTYPE                        DOSCALLS
DOSCHGFILEPTR                       DOSCALLS
DOSQCURDIR                          DOSCALLS
DOSQFILEINFO                        DOSCALLS
VIOWRTTTY                           VIOCALLS
DOSWRITE                            DOSCALLS
DOSBUFRESET                         DOSCALLS
DOSGETPID                           DOSCALLS
DOSGETENV                           DOSCALLS
DOSGETDBCSEV                        NLS
DOSGETCP                            DOSCALLS
DOSREALLOCSEG                       DOSCALLS
DOSALLOCSEG                         DOSCALLS


                        +--------------------+
                        |   Libraries Used   |
                        +--------------------+

/mnt/sda5/.user/root/src/openwatcom-1.9/rel2/lib286/os2/os2.lib
/mnt/sda5/.user/root/src/openwatcom-1.9/rel2/lib286/os2/clibl.lib


                        +-----------------------+
                        |   Linker Statistics   |
                        +-----------------------+

Stack size:  1000 (4096.)
Memory size:  8bb0 (35760.)
Entry point address: 0001:18f0
Link time: 00:00.00
