Open Watcom Linker Version 1.9
Portions Copyright (c) 1985-2002 Sybase, Inc. All Rights Reserved.
Created on:       12/12/16 02:42:26
Executable Image: wprof.exe
creating an OS/2 32-bit executable


                        +------------+
                        |   Groups   |
                        +------------+

Group                           Address              Size
=====                           =======              ====

DGROUP                          0003:00000000        0000cf30



                        +--------------+
                        |   Segments   |
                        +--------------+

Segment                Class          Group          Address         Size
=======                =====          =====          =======         ====

_TEXT16                CODE           AUTO           0001:00000000   00000068
BEGTEXT                CODE           AUTO           0002:00000000   00000007
_TEXT                  CODE           AUTO           0002:00000010   0003fb12
_NULL                  BEGDATA        DGROUP         0003:00000000   00000004
_AFTERNULL             BEGDATA        DGROUP         0003:00000004   00000000
CONST                  DATA           DGROUP         0003:00000004   00000080
CONST2                 DATA           DGROUP         0003:00000084   00000000
_DATA                  DATA           DGROUP         0003:00000084   000024d8
XIB                    DATA           DGROUP         0003:0000255c   00000000
XI                     DATA           DGROUP         0003:0000255c   00000048
XIE                    DATA           DGROUP         0003:000025a4   00000000
YIB                    DATA           DGROUP         0003:000025a4   00000000
YI                     DATA           DGROUP         0003:000025a4   0000001e
YIE                    DATA           DGROUP         0003:000025c2   00000000
TIB                    DATA           DGROUP         0003:000025c2   00000000
TI                     DATA           DGROUP         0003:000025c2   00000000
TIE                    DATA           DGROUP         0003:000025c2   00000000
DATA                   DATA           DGROUP         0003:000025c2   00000000
_BSS                   BSS            DGROUP         0003:000025c4   00002960
stack                  STACK          DGROUP         0003:00004f30   00008000


                        +----------------+
                        |   Memory Map   |
                        +----------------+

* = unreferenced symbol
+ = symbol only referenced locally

Address        Symbol
=======        ======

Module: srcmgt.obj(/mnt/sda5/.user/root/src/openwatcom-1.9/bld/watcom/c/srcmgt.c)
0002:000000a0* FClearOpenSourceCache_
0002:000000c0  FOpenSource_
0002:00000150* FSize_
0002:00000180* FLastOffset_
0002:000001a0* FileIsRemote_
0002:000001b0* FGetName_
0002:000001c0  FDoneSource_
0002:000003d0* FCurrLine_
0002:000003e0  FReadLine_
0003:00000084+ _FileList
Module: aboutmsg.obj(/mnt/sda5/.user/root/src/openwatcom-1.9/bld/wprof/c/aboutmsg.c)
0002:00000530  AboutOpen_
0002:00000580* AboutClose_
0002:00000620  AboutSetOff_
0002:00000640  DlgAbout_
0003:00000090+ _AboutInfo
Module: clrsamps.obj(/mnt/sda5/.user/root/src/openwatcom-1.9/bld/wprof/c/clrsamps.c)
0002:00000700  ClearMassaged_
0002:00000760  ClearRoutineInfo_
0002:000007c0  ClearFileInfo_
0002:00000820  ClearModuleInfo_
0002:00000880  ClearSample_
0002:00000a80* ClearAllSamples_
Module: dipinter.obj(/mnt/sda5/.user/root/src/openwatcom-1.9/bld/wprof/c/dipinter.c)
0002:00000cb0  DIPCliImageUnload_
0002:00000cc0  DIPCliMapAddr_
0002:00000cd0  DIPCliSymCreate_
0002:00000ce0  DIPCliItemLocation_
0002:00000cf0  DIPCliAssignLocation_
0002:00000d00  DIPCliSameAddrSpace_
0002:00000d90  DIPCliAddrSection_
0002:00000da0  DIPCliStatus_
0002:00000db0  DIPCliCurrMAD_
0002:00000dc0  WPDipInit_
0002:00000e40  WPDipProc_
0002:00000e50  WPDipDestroyProc_
0002:00000e60  WPDipSetProc_
0002:00000e70  WPDipLoadInfo_
0002:00000f10  WPDipFini_
Module: diginter.obj(/mnt/sda5/.user/root/src/openwatcom-1.9/bld/wprof/c/diginter.c)
0002:00000fa0  DIGCliAlloc_
0002:00000fb0  DIGCliRealloc_
0002:00000fc0  DIGCliFree_
0002:00000fd0  DIGCliOpen_
0002:00001010  DIGCliSeek_
0002:00001020  DIGCliRead_
0002:00001030  DIGCliWrite_
0002:00001040  DIGCliClose_
0002:00001050  DIGCliRemove_
0002:00001060  DIGCliMachineData_
Module: dlgcnvt.obj(/mnt/sda5/.user/root/src/openwatcom-1.9/bld/wprof/c/dlgcnvt.c)
0003:000025c8  _ConvertFile
0002:000011a0  DlgGetConvert_
0003:00000298  _OptDIFFormat
0003:00000299+ _OptCommaFormat
Module: dlgoptn.obj(/mnt/sda5/.user/root/src/openwatcom-1.9/bld/wprof/c/dlgoptn.c)
0002:00001520  DlgGetOptions_
0003:000004cc+ _OptStretchGlobal
0003:000004cd+ _OptAbsBarGlobal
0003:000004ce+ _OptRelBarGlobal
0003:000004cf+ _OptSortCountGlobal
0003:000004d0+ _OptSortNameGlobal
0003:000004d1+ _OptGatherGlobal
0003:000004d4  _OptGatherCut
Module: dlgsamp.obj(/mnt/sda5/.user/root/src/openwatcom-1.9/bld/wprof/c/dlgsamp.c)
0002:00001890  WPSampFound_
0002:00001930  DlgOpenSample_
Module: getsamps.obj(/mnt/sda5/.user/root/src/openwatcom-1.9/bld/wprof/c/getsamps.c)
0002:00002290  GetSampleInfo_
0003:000026d0  _SIOData
0003:000026d4  _CurrSIOData
Module: madinter.obj(/mnt/sda5/.user/root/src/openwatcom-1.9/bld/wprof/c/madinter.c)
0002:000025e0  MADCliAddrSection_
0002:000025f0  MADCliAddString_
0002:000025f0  MADCliMemExpr_
0002:000025f0  MADCliAddrOvlReturn_
0002:00002600  MADCliAddrToString_
0002:000026a0  MADCliReadMem_
0002:000026e0  MADCliWriteMem_
0002:000026f0  MADCliString_
0002:00002740  MADCliRadixPrefix_
0002:00002760  MADCliNotify_
0002:00002780  MADCliSystemConfig_
0002:00002790  InitMADInfo_
0002:000027b0  FiniMADInfo_
0002:000027e0+ ReportMADFailure_
0002:00002920  SetCurrentMAD_
0003:000004dc  _DefSysConfig
0003:000026d8+ _MADStatus
Module: memutil.obj(/mnt/sda5/.user/root/src/openwatcom-1.9/bld/wprof/c/memutil.c)
0002:000029c0  ProfAlloc_
0002:000029c0  WndAlloc_
0002:000029d0  WndNoMemory_
0002:000029e0  WndFree_
0002:000029e0  ProfFree_
0002:000029f0  ProfRealloc_
0002:000029f0  WndRealloc_
0002:00002a10  ProfCAlloc_
0002:00002a30* WndMemFini_
0002:00002a30* WndMemInit_
Module: msg.obj(/mnt/sda5/.user/root/src/openwatcom-1.9/bld/wprof/c/msg.c)
0002:00002c30  ErrorMsg_
0002:00002c50  fatal_
Module: msgstr.obj(/mnt/sda5/.user/root/src/openwatcom-1.9/bld/wprof/c/msgstr.c)
0002:00002c90  __Literal_Assertion_Failed
0002:00002ca3  __Literal_Cannot_Open_Smp_File
0002:00002cbf  __Literal_Cannot_Process_Ovly
0002:00002ceb  __Literal_Dip_Find_Failed
0002:00002d11  __Literal_Dip_Info_Failed
0002:00002d43  __Literal_Dip_Init_Failed
0002:00002d76  __Literal_Dip_Load_Failed
0002:00002d9f  __Literal_Exe_Has_Changed
0002:00002dcb  __Literal_Exe_Not_Found
0002:00002de6  __Literal_Incompat_Smp_File
0002:00002e0a  __Literal_Incompat_Ver_Ovly
0002:00002e49  __Literal_Invalid_Smp_File
0002:00002e69  __Literal_Memfull
0002:00002e77  __Literal_Memfull_Realloc
0002:00002e93  __Literal_Smp_File_IO_Err
0002:00002eb9* __Literal_Usage
0002:00002ede  __Literal_Usage1
0002:00002f03  __Literal_Usage2
0002:00002f24  __Literal_Usage3
0002:00002f36  __Literal_Usage4
0002:00002f3d  __Literal_Usage5
0002:00002f47* __Literal_Usage6
0002:00002f5e* __Literal_Usage7
0002:00002f73* __Literal_Usage8
0002:00002f84  __Literal_Empty_Str
0002:00002f85  __Literal_File_Does_Not_Exist
0002:00002f9e* __Literal_Bad_System_Load
0002:00002fc4  __Literal_About_WPROF
0002:00002fd0  __Literal_WPROF_TITLE
0002:00002fe5  __Literal_Enter_Sample
0002:00002ffc* __Literal_OK_Str
0002:00002fff* __Literal_Cancel_Str
0002:00003006  __Literal_Unknown_Image
0002:00003017  __Literal_Unknown_Module
0002:00003029  __Literal_Unknown_File
0002:00003039  __Literal_Unknown_Routine
0002:0000304c  __Literal_Gathered_Images
0002:0000305f  __Literal_Gathered_Modules
0002:00003073  __Literal_Gathered_Files
0002:00003085  __Literal_Gathered_Routines
0002:0000309a  __Literal_No_Symbol_Info
0002:000030c0  __Literal_No_Routine_Names
0002:000030e0  __Literal_Src_File_Not_Found
0002:000030fb  __Literal_Src_File_Not_Known
0002:00003114  __Literal_Rel_Header
0002:00003119  __Literal_Abs_Header
0002:0000311e  __Literal_Sample_Data
0002:00003129* __Literal_Smp_File_Raw_Err
0002:0000315d  __Literal_Sample_Header
0002:00003167  __Literal_Image_Header
0002:00003170  __Literal_Module_Header
0002:0000317a  __Literal_File_Header
0002:00003182  __Literal_Routine_Header
0002:0000318d  __Literal_Source_Header
0002:0000319a  __Literal_Image_Names
0002:000031a6  __Literal_Module_Names
0002:000031b3  __Literal_File_Names
0002:000031be  __Literal_Routine_Names
0002:000031cc  __Literal_Source_Line
0002:000031d8  __Literal_Assembler_Instructions
0002:000031ef  __Literal_Options
0002:000031f7  __Literal_Cmd_Option_Not_Valid
0002:0000321d  __Literal_Unable_To_Open_Src
0002:00003238  __Literal_Unable_To_Open_Help
0002:00003256  __Literal_Convert_Data
0002:0000326d  __Literal_Convert_File_Name
0002:00003285  __Literal_Mad_Init_Failed
0002:000032b6  __Literal_LDS_FSEEK_FAILED
0002:000032c7  __Literal_LDS_FREAD_FAILED
0002:000032d8  __Literal_LDS_FOPEN_FAILED
0002:000032e9  __Literal_LMS_INVALID_MAD_VERSION
0002:0000330e  __Literal_LMS_INVALID_MAD
0002:00003330  __Literal_LMS_UNREGISTERED_MAD
0002:0000334d  __Literal_LMS_RECURSIVE_MAD_FAILURE
Module: rptsamps.obj(/mnt/sda5/.user/root/src/openwatcom-1.9/bld/wprof/c/rptsamps.c)
0002:000042d0  ReportSampleInfo_
Module: setsamps.obj(/mnt/sda5/.user/root/src/openwatcom-1.9/bld/wprof/c/setsamps.c)
0002:00004900  AddrCmp_
0002:00004920  GatherSetAll_
0002:00004a20  AbsSetAll_
0002:00004b90  RelSetAll_
0002:00004d00  StretchSetAll_
0002:00004e60  SortSetAll_
0002:00005850  SetSampleInfo_
Module: support.obj(/mnt/sda5/.user/root/src/openwatcom-1.9/bld/wprof/c/support.c)
0002:00005910  AsmSize_
0002:00005940  AsmFini_
0002:00005950  ExeOpen_
0002:00005960  ExeClose_
0002:00005a40  SetExeOffset_
0002:00006010  SetExeImage_
0002:00006060  SetExeFile_
0002:00006960  AddrImage_
0002:00006a30  MapAddressToActual_
0002:00006ab0+ MapAddressToMap_
0002:00006b40  MapAddressIntoSection_
0002:00007180  LoadImageOverlays_
0002:00007260  SetNumBytes_
0002:00007270  CodeAdvance_
0002:00007380  FormatAddr_
0002:00007400  GetFullInstruct_
0002:00007540  CnvAddr_
0002:000075f0  IsX86BigAddr_
0002:00007600  IsX86RealAddr_
0002:00007620  GetDataByte_
0002:00007640  EndOfSegment_
Module: utils.obj(/mnt/sda5/.user/root/src/openwatcom-1.9/bld/wprof/c/utils.c)
0002:00007670  ReplaceExt_
0002:000076d0  FindFile_
0002:000077b0  InitPaths_
0002:00007810+ AddPath_
0002:00007900  BigRead_
0002:00007910  Ring_
0003:00000624  _HelpPathList
0003:00000628+ _FilePathList
0003:0000062c* _DipExePathList
Module: wndimain.obj(/mnt/sda5/.user/root/src/openwatcom-1.9/bld/wprof/c/wndimain.c)
0002:00007930  WndInitWndMain_
Module: wpasmfil.obj(/mnt/sda5/.user/root/src/openwatcom-1.9/bld/wprof/c/wpasmfil.c)
0002:00007950  WPGetAsmLoc_
0002:000079d0  WPAsmOpen_
0002:00007d80  WPAsmClose_
0002:00007e20  WPAsmGetLine_
0002:00007f30  WPAsmFindSrcLine_
Module: wpavals.obj(/mnt/sda5/.user/root/src/openwatcom-1.9/bld/wprof/c/wpavals.c)
0003:00000630  _WndColours
0003:00000664  _WndNumColours
0003:00000668  _WndPlainAttr
0003:00000669  _WndTabStopAttr
0003:0000066a  _WndSelectedAttr
0003:0000066b  _WndCursorAttr
0003:0000066c* _WndStatusColour
0003:00000670  _WndFlags
0003:00000674  _WndStyle
Module: wpbar.obj(/mnt/sda5/.user/root/src/openwatcom-1.9/bld/wprof/c/wpbar.c)
0002:00007f70  GetCurrentAbsBar_
0002:00007fe0  GetCurrentRelBar_
0002:00008050  GetCurrentMaxBar_
0002:000080d0  FlipCurrentAbsBar_
0002:00008190  FlipCurrentRelBar_
0002:00008250  FlipCurrentMaxBar_
Module: wpcnvt.obj(/mnt/sda5/.user/root/src/openwatcom-1.9/bld/wprof/c/wpcnvt.c)
0002:000088d0  WPConvert_
Module: wpdriver.obj(/mnt/sda5/.user/root/src/openwatcom-1.9/bld/wprof/c/wpdriver.c)
0002:00008b40  WndMainMenuProc_
0002:00008bf0  OpenSample_
0003:00000798  _WndMainMenu
0003:00000810  _WndNumMenus
Module: wpgather.obj(/mnt/sda5/.user/root/src/openwatcom-1.9/bld/wprof/c/wpgather.c)
0002:00008c20  GetCurrentGather_
0002:00008c70  FlipCurrentGather_
0002:00008d00  GatherCurrent_
0002:00008d60+ GatherImage_
0002:00008e40+ GatherMod_
0002:00008f10+ GatherFile_
0002:00008fe0+ GatherRtn_
Module: wpgetrow.obj(/mnt/sda5/.user/root/src/openwatcom-1.9/bld/wprof/c/wpgetrow.c)
0002:000090b0  SImageGetImage_
0002:00009100  SModGetModule_
0002:00009150  SFileGetFile_
0002:000091a0  SRtnGetRoutine_
0002:000091f0  WPGetRow_
Module: wphelp.obj(/mnt/sda5/.user/root/src/openwatcom-1.9/bld/wprof/c/wphelp.c)
0002:000093e0  WPInitHelp_
0002:00009400  WPFiniHelp_
0002:00009420  WPProcHelp_
Module: wpmain.obj(/mnt/sda5/.user/root/src/openwatcom-1.9/bld/wprof/c/wpmain.c)
0002:000094a0  GUImain_
0002:000094e0  WndProcMacro_
Module: wpnumrow.obj(/mnt/sda5/.user/root/src/openwatcom-1.9/bld/wprof/c/wpnumrow.c)
0002:00009530  SampleNumRows_
Module: wppushin.obj(/mnt/sda5/.user/root/src/openwatcom-1.9/bld/wprof/c/wppushin.c)
0002:000095f0* WPPopPtr_
0002:00009610  WndDoInput_
0002:00009630+ WPPushEvent_
0002:00009660* WPPushPtrEvent_
0002:000096a0+ WPPopEvent_
Module: wpsamp.obj(/mnt/sda5/.user/root/src/openwatcom-1.9/bld/wprof/c/wpsamp.c)
0002:00009890  WPSampleOpen_
0002:0000af60+ WPZoomIn_
0002:0000b0d0+ WPBackOut_
0002:0000b0f0  WPDoPopUp_
0002:0000b120  WPFindDoPopUp_
0003:00000998+ _WPSampleInfo
Module: wpsort.obj(/mnt/sda5/.user/root/src/openwatcom-1.9/bld/wprof/c/wpsort.c)
0002:0000b480  GetCurrentSort_
0002:0000b4c0  SetCurrentSort_
0002:0000b520  SortCurrent_
0002:0000b560+ SortImage_
0002:0000b590+ SortMod_
0002:0000b5c0+ SortFile_
0002:0000b5f0+ SortRtn_
Module: wpstart.obj(/mnt/sda5/.user/root/src/openwatcom-1.9/bld/wprof/c/wpstart.c)
0003:00000a28  _WPWndInitDone
0003:00000a2c  _WProfDips
0002:0000b750  WPInit_
0002:0000b7d0  WPFini_
0003:00002ad4  _SamplePath
Module: wpsrcfil.obj(/mnt/sda5/.user/root/src/openwatcom-1.9/bld/wprof/c/wpsrcfil.c)
0002:0000bac0  WPSourceGetLine_
0002:0000bb40  WPSourceOpen_
0002:0000bca0  WPSourceClose_
0002:0000bcd0  WPGetMassgdSampData_
Module: wpwind.obj(/mnt/sda5/.user/root/src/openwatcom-1.9/bld/wprof/c/wpwind.c)
0002:0000bef0  WPGetClientHeight_
0002:0000bf10  WPGetClientWidth_
0002:0000bf40  WPAdjustRowHeight_
0002:0000bff0  WPSetRowHeight_
0002:0000c000  WPPixelTruncWidth_
0002:0000c020  WPPixelWidth_
Module: dipman.obj(/mnt/sda5/.user/root/src/openwatcom-1.9/bld/dig/c/dipman.c)
0002:0000c060* DCSymCreate_
0002:0000c060+ XDIPCliSymCreate_
0002:0000c080  DIPInit_
0002:0000c0d0  DIPLoad_
0002:0000c160* DIPRegister_
0002:0000c1c0* DIPFiniLatest_
0002:0000c220  DIPFini_
0002:0000c270  DIPHandleSize_
0002:0000c290  DIPMoreMem_
0002:0000c2d0* DIPCancel_
0002:0000c350+ FindImageMapSlot_
0002:0000c480  DIPCreateProcess_
0002:0000c5d0  DIPSetProcess_
0002:0000c5e0  DIPDestroyProcess_
0002:0000c610  DIPPriority_
0002:0000c660  DIPLoadInfo_
0002:0000c770  DIPMapInfo_
0002:0000c7d0* DIPUnloadInfo_
0002:0000c820* DIPImagePriority_
0002:0000c870+ WalkImageList_
0002:0000c930  WalkModList_
0002:0000c990* WalkTypeList_
0002:0000cc20+ WalkSymListEx_
0002:0000cc50  WalkSymList_
0002:0000cc70* WalkFileList_
0002:0000cd20  ImageExtra_
0002:0000cd70  ImageDIP_
0002:0000cdc0  ModName_
0002:0000ce20  ModSrcLang_
0002:0000ce80* ModHasInfo_
0002:0000cef0* ModDefault_
0002:0000cf60  ModAddr_
0002:0000cfd0* TypeMod_
0002:0000d020* TypeInfo_
0002:0000d0c0* TypeCreate_
0002:0000d0e0* TypePointer_
0002:0000d160* TypeBase_
0002:0000d210* TypeAddRef_
0002:0000d260* TypeRelease_
0002:0000d2b0* TypeFreeAll_
0002:0000d2f0* TypeArrayInfo_
0002:0000d370* TypeProcInfo_
0002:0000d3d0* TypePtrAddrSpace_
0002:0000d430* TypeThunkAdjust_
0002:0000d490* TypeCmp_
0002:0000d4f0* TypeName_
0002:0000d540* SymMod_
0002:0000d580  SymName_
0002:0000d5d0* SymType_
0002:0000d620  SymLocation_
0002:0000d660* SymValue_
0002:0000d6a0  SymInfo_
0002:0000d6f0* SymParmLocation_
0002:0000d740* SymObjType_
0002:0000d790* SymObjLocation_
0002:0000d7e0  SymCmp_
0002:0000d840* SymAddRef_
0002:0000d890* SymRelease_
0002:0000d8e0* SymFreeAll_
0002:0000d920* CueMod_
0002:0000d970  CueFile_
0002:0000d9b0  CueFileId_
0002:0000d9f0* CueAdjust_
0002:0000da50  CueLine_
0002:0000da90* CueColumn_
0002:0000dad0  CueAddr_
0002:0000db40  LineCue_
0002:0000dbd0  AddrCue_
0002:0000dc80  CueCmp_
0002:0000dce0  AddrMod_
0002:0000dda0  AddrSym_
0002:0000de60+ LookupSymEx_
0002:0000e0b0* LookupSym_
0002:0000e0c0* AddrScope_
0002:0000e160* ScopeOuter_
0003:00000a38  _DIPDefaults
0003:00000a5e+ _DIPClientInterface
Module: dipld.obj(/mnt/sda5/.user/root/src/openwatcom-1.9/bld/dig/c/os2v2/dipld.c)
0002:0000e410  DIPSysLoad_
0002:0000e580  DIPSysUnload_
Module: madman.obj(/mnt/sda5/.user/root/src/openwatcom-1.9/bld/dig/c/madman.c)
0003:00000aac+ _MADClientInterface
0002:0000e740  MADTypeInfoForHost_
0002:0000e7d0  MADInit_
0002:0000e820  MADRegister_
0002:0000e9a0  MADLoad_
0002:0000eb30+ MADUnload_
0002:0000eb80  MADLoaded_
0002:0000ebc0  MADActiveSet_
0002:0000ebf0* MADStateCreate_
0002:0000ec50* MADStateSet_
0002:0000ecc0* MADStateCopy_
0002:0000ece0+ MADStateDestroy_
0002:0000ed30  MADFini_
0002:0000ed60* MADWalk_
0002:0000ed90  MADNameFile_
0002:0000ee00* MADNameDescription_
0002:0000ee80  MADAddrAdd_
0002:0000eec0  MADAddrComp_
0002:0000eef0* MADAddrDiff_
0002:0000ef20* MADAddrMap_
0002:0000ef30* MADAddrFlat_
0002:0000ef40* MADAddrInterrupt_
0002:0000ef70* MADTypeWalk_
0002:0000efa0* MADTypeName_
0002:0000efc0* MADTypePreferredRadix_
0002:0000eff0* MADTypeForDIPType_
0002:0000f010  MADTypeInfo_
0002:0000f120  MADTypeDefault_
0002:0000fa50  MADTypeConvert_
0002:0000ff50  MADTypeToString_
0002:0000ffe0* MADTypeHandleToString_
0002:00010010* MADRegistersSize_
0002:00010020* MADRegistersHost_
0002:00010030* MADRegistersTarget_
0002:00010050* MADRegSetWalk_
0002:00010080* MADRegSetName_
0002:000100b0* MADRegSetLevel_
0002:000100c0* MADRegSetDisplayGrouping_
0002:000100e0* MADRegSetDisplayGetPiece_
0002:00010130* MADRegSetDisplayModify_
0002:00010150* MADRegSetDisplayToggleList_
0002:00010160* MADRegSetDisplayToggle_
0002:00010170* MADRegModified_
0002:00010190* MADRegInspectAddr_
0002:000101e0+ MADRegWalk_
0002:00010370* MADRegFullName_
0002:000103d0* MADRegSpecialGet_
0002:00010400* MADRegSpecialSet_
0002:00010430* MADRegSpecialName_
0002:00010460* MADRegFromContextItem_
0002:00010490* MADRegUpdateStart_
0002:000104c0* MADRegUpdateEnd_
0002:000104e0* MADCallStackGrowsUp_
0002:00010500* MADCallTypeList_
0002:00010520* MADCallBuildFrame_
0002:00010570* MADCallReturnReg_
0002:000105b0* MADCallParmRegList_
0002:000105e0* MADCallUpStackSize_
0002:000105f0* MADCallUpStackInit_
0002:00010620* MADCallUpStackLevel_
0002:00010660  MADDisasmDataSize_
0002:00010680* MADDisasmNameMax_
0002:000106a0  MADDisasm_
0002:00010710  MADDisasmFormat_
0002:00010730  MADDisasmInsSize_
0002:00010750* MADDisasmInsUndoable_
0002:00010780* MADDisasmControl_
0002:000107a0* MADDisasmInsNext_
0002:000107d0* MADDisasmInspectAddr_
0002:00010820* MADDisasmMemRefWalk_
0002:00010850* MADDisasmToggleList_
0002:00010860* MADDisasmToggle_
0002:00010880* MADTraceSize_
0002:000108a0* MADTraceInit_
0002:000108d0* MADTraceOne_
0002:00010900* MADTraceHaveRecursed_
0002:00010930* MADTraceSimulate_
0002:00010960* MADTraceFini_
0002:000109a0* MADUnexpectedBreak_
Module: madld.obj(/mnt/sda5/.user/root/src/openwatcom-1.9/bld/dig/c/os2v2/madld.c)
0002:00010be0  MADSysLoad_
0002:00010d50  MADSysUnload_
Module: i64.obj(/mnt/sda5/.user/root/src/openwatcom-1.9/bld/watcom/c/i64.c)
0002:00010d60* I32ToI64_
0002:00010d70  U32ToU64_
0002:00010d80  U64Neg_
0002:00010db0+ U64Add_
0002:00010dd0* U64IncDec_
0002:00010e00+ U64Sub_
0002:00010e20* U64Mul_
0002:00010e90  U64Div_
0002:00010f90* I64Div_
0002:00011040+ U64Cmp_
0002:00011080* U64Test_
0002:000110a0* I64Cmp_
0002:000110d0* I64Test_
0002:00011100* I64ShiftR_
0002:00011150+ U64ShiftR_
0002:000111b0* U64Shift_
0002:000111c0+ U64ShiftL_
Module: finger.obj(/mnt/sda5/.user/root/src/openwatcom-1.9/bld/wprof/c/finger.c)
0003:00000c3c  _AboutMessage
0003:00000c54  _AboutSize
Module: /mnt/sda5/.user/root/src/openwatcom-1.9/bld/aui/os2386/aui.lib(/mnt/sda5/.user/root/src/openwatcom-1.9/bld/aui/c/wndmeth.c)
0002:000112d0  NoScroll_
0002:000112d0* WndNoOpen_
0002:000112e0+ NoGetLine_
0002:000112f0  NoEndPaint_
0002:000112f0  NoBegPaint_
0002:000112f0  NoNotify_
0002:000112f0  NoModify_
0002:00011300  NoRefresh_
0002:00011310  NoMenuItem_
0002:00011320  NoNumRows_
0002:00011330  NoNextRow_
0002:00011340+ NoEventProc_
0002:00011360  WndMenuItem_
0002:00011380  WndFiniCacheLines_
0002:000113b0  WndKillCacheEntries_
0002:00011410  WndKillCacheLines_
0002:000115c0  WndSetCache_
0002:00011610* WndGetLineAbs_
0002:00011620  WndGetLine_
0002:00011730  WndFirstMenuItem_
0002:00011750* WndNoRow_
0002:00011760  WndModify_
0002:00011780  WndNotify_
0002:000117a0  WndBegPaint_
0002:000117c0  WndEndPaint_
0002:000117e0  WndRefresh_
0002:00011800  WndEvent_
0002:00011810  WndNumRows_
0002:00011820  WndNextRow_
0003:00000c58  _NoInfo
0003:00002d00+ _CacheLine
0003:00003e30+ _CacheCurr
Module: /mnt/sda5/.user/root/src/openwatcom-1.9/bld/aui/os2386/aui.lib(/mnt/sda5/.user/root/src/openwatcom-1.9/bld/aui/c/wndcreat.c)
0002:00011830* WndSetTitleSize_
0002:00011840* WndSetTitle_
0002:00011850* WndGetTitle_
0002:00011aa0  WndCreateWithStruct_
0002:00011ad0  WndCreateWithStructAndMenuRes_
0002:00011b00  WndInitCreateStruct_
0002:00011b40  WndCreate_
0002:00011b70  WndDestroy_
0002:00011bf0  WndClose_
0002:00011c10* WndSetMainMenuText_
0002:00011c40* WndSetIcon_
0003:00000c90  _WndMainMenuPtr
0003:00003e38  _WndPopupMenuPtr
Module: /mnt/sda5/.user/root/src/openwatcom-1.9/bld/aui/os2386/aui.lib(/mnt/sda5/.user/root/src/openwatcom-1.9/bld/aui/c/wndshrnk.c)
0002:00011c50* WndShrinkToMouse_
0002:00011de0* WndMinimizeWindow_
0002:00011df0* WndMaximizeWindow_
0002:00011e00  WndIsMinimized_
0002:00011e40* WndIsMaximized_
0002:00011e50* WndRestoreWindow_
0002:00011e60* WndGetRect_
0002:00011e70  WndShowWindow_
0002:00011e80  WndResizeWindow_
0002:00011e90  WndShowAll_
Module: /mnt/sda5/.user/root/src/openwatcom-1.9/bld/aui/os2386/aui.lib(/mnt/sda5/.user/root/src/openwatcom-1.9/bld/aui/c/wndutil.c)
0002:00011f10  WndCharCol_
0002:00011f40  WndLastCharCol_
0002:00011f60  WndPrevCharCol_
0002:00011f70* WndPrevChar_
0002:00011f80  WndCurrToGUIPoint_
0002:00011fa0  WndCoordToGUIPoint_
0002:00012010  WndPieceIsTab_
0002:00012040* WndPieceIsHot_
0002:00012070  WndFindActive_
0002:000120a0  WndValid_
0002:000120d0  WndDirty_
0002:000120e0  WndZapped_
0002:00012100  WndExtentX_
0002:00012120* WndFindClass_
0002:00012140  WndSetWndMax_
0002:00012190  WndNext_
0002:000121c0* WndForAllClass_
Module: /mnt/sda5/.user/root/src/openwatcom-1.9/bld/aui/os2386/aui.lib(/mnt/sda5/.user/root/src/openwatcom-1.9/bld/aui/c/wndmsg.c)
0002:00012200  WndDisplayMessage_
Module: /mnt/sda5/.user/root/src/openwatcom-1.9/bld/aui/os2386/aui.lib(/mnt/sda5/.user/root/src/openwatcom-1.9/bld/aui/c/guimain.c)
0003:00003e3c+ _WndScale
0003:00003e44  _WndMax
0003:00003e4c+ _WndScreen
0003:00003e54+ _WndClickHook
0003:00003e5c  _WndMain
0003:00003e60* _WndSwitches
0003:00000c94  _WndMaxDirtyRects
0003:00000c98+ _WndDClick
0003:00000c9c+ _WndIgnoreAllEvents
0002:00012230* WndGetDClick_
0002:00012240* WndSetDClick_
0002:000122c0* WndInitWithMenuRes_
0002:00012380  WndInit_
0002:00012390  WndShowWndMain_
0002:000123a0  WndFini_
0002:000123d0* WndInitNumRows_
0002:00012540* WndInstallClickHook_
0002:00012d80* WndArrowCursor_
0002:00012db0* WndSetCursor_
0002:00012de0  WndHourGlass_
0002:00012df0* WndHourCursor_
0002:00012e30  WndMainEventProc_
Module: /mnt/sda5/.user/root/src/openwatcom-1.9/bld/aui/os2386/aui.lib(/mnt/sda5/.user/root/src/openwatcom-1.9/bld/aui/c/wnddlg.c)
0002:00012ee0  DlgGetParent_
0002:00012f10  DlgOpen_
0002:00012f50* ResDlgOpen_
Module: /mnt/sda5/.user/root/src/openwatcom-1.9/bld/gui/ui/os2386/gui.lib(/mnt/sda5/.user/root/src/openwatcom-1.9/bld/gui/ui/c/guicheck.c)
0002:00012f90  GUIIsChecked_
0002:00012fe0  GUISetChecked_
Module: /mnt/sda5/.user/root/src/openwatcom-1.9/bld/gui/ui/os2386/gui.lib(/mnt/sda5/.user/root/src/openwatcom-1.9/bld/gui/c/guindlg.c)
0002:00013050  GUIDlgBuffGetText_
0002:000133c0* GUISetModalDlgs_
0002:000133d0  GUIDlgOpen_
0002:00013400  GUIModalDlgOpen_
0002:00013430* GUISysModalDlgOpen_
Module: /mnt/sda5/.user/root/src/openwatcom-1.9/bld/gui/ui/os2386/gui.lib(/mnt/sda5/.user/root/src/openwatcom-1.9/bld/gui/ui/c/guixedit.c)
0002:00013460  GUISetEditText_
0002:00013510  GUISetText_
0002:00013630* GUIClearText_
0002:00013640* GUISelectAll_
Module: /mnt/sda5/.user/root/src/openwatcom-1.9/bld/aui/os2386/aui.lib(/mnt/sda5/.user/root/src/openwatcom-1.9/bld/aui/c/wndfdlg.c)
0002:00013650+ DlgGetFileName_
0002:00013680  DlgFileBrowse_
Module: /mnt/sda5/.user/root/src/openwatcom-1.9/bld/gui/ui/os2386/gui.lib(/mnt/sda5/.user/root/src/openwatcom-1.9/bld/gui/ui/c/guifocus.c)
0002:000137b0  GUISetFocus_
Module: /mnt/sda5/.user/root/src/openwatcom-1.9/bld/gui/ui/os2386/gui.lib(/mnt/sda5/.user/root/src/openwatcom-1.9/bld/gui/ui/c/guixdlg.c)
0002:000137e0* GUISetJapanese_
0002:00013830  GUIDeleteDialog_
0002:00013870  GUIGetDlgByWnd_
0002:000138e0+ GUIGetControlId_
0002:00013940  GUIGetDialog_
0002:00013950  GUIGetField_
0002:00013990  GUIPushControlEvents_
0002:000139a0  GUIPopControlEvents_
0002:000139f0  GUIInsertDialog_
0002:00013a80  GUIRefreshControl_
0002:00013ae0  GUIGetList_
0002:00013b30  GUIGetFocus_
0002:00013ba0+ GUIDoFreeField_
0002:00013d00+ GUIDoAddControl_
0002:00013ff0  GUIDeleteField_
0002:00014160  GUIAddAControl_
0002:00014240  GUIResizeDialog_
0002:00014340  GUIFocusChangeNotify_
0002:00014390  GUIProcessControlNotify_
0002:00014420  GUIXCreateDialog_
0002:000146f0  GUIFreeDialog_
0002:00014740  GUICloseDialog_
0002:00014770  GUIGetDlgRect_
Module: /mnt/sda5/.user/root/src/openwatcom-1.9/rel2/lib386/math387r.lib(strtod.c)
0002:00014cdc+ __Strtold_
0002:00014e43  strtod_
Module: /mnt/sda5/.user/root/src/openwatcom-1.9/rel2/lib386/math387r.lib(fchop87)
0002:00014f88  __CHP
Module: /mnt/sda5/.user/root/src/openwatcom-1.9/rel2/lib386/os2/emu387.lib(386)
0002:00014fa0  __init_387_emulator
0002:00014fa1* __fini_387_emulator
Module: /mnt/sda5/.user/root/src/openwatcom-1.9/bld/gui/ui/os2386/gui.lib(/mnt/sda5/.user/root/src/openwatcom-1.9/bld/gui/ui/c/guixsys.c)
0002:00014fb0+ GUIWndGetEvent_
0002:00014fd0  uistartevent_
0002:00014fe0  uidoneevent_
0002:00015050  GUICleanup_
0002:00015110  GUIXMain_
0002:00015150  GUIXSetupWnd_
0002:00015180  GUISetBackgroundChar_
0002:00015190+ GUISetupStruct1_
0002:000151b0+ GUISetupStruct2_
0002:00015280  GUISetupStruct_
0002:000152b0  GUIXCreateWindow_
0003:00000db8  _GUICurrWnd
0003:00000dbc  _GUIAllEvents
Module: /mnt/sda5/.user/root/src/openwatcom-1.9/bld/gui/ui/os2386/gui.lib(/mnt/sda5/.user/root/src/openwatcom-1.9/bld/gui/c/guimem.c)
0002:000153d0* GUIMemPrintLine_
0002:000153d0* GUIMemPrtUsage_
0002:000153d0  GUIMemClose_
0002:000153d0  GUIMemOpen_
0002:000153d0* GUIMemRedirect_
0002:000153e0  GUIMemAlloc_
0002:000153f0  GUIMemFree_
0002:00015400  GUIMemRealloc_
Module: /mnt/sda5/.user/root/src/openwatcom-1.9/bld/gui/ui/os2386/gui.lib(/mnt/sda5/.user/root/src/openwatcom-1.9/bld/gui/c/guiisgui.c)
0002:00015410  GUIIsGUI_
Module: /mnt/sda5/.user/root/src/openwatcom-1.9/bld/gui/ui/os2386/gui.lib(/mnt/sda5/.user/root/src/openwatcom-1.9/bld/gui/ui/c/guihelp.c)
0002:00015430  GUIHelpInit_
0002:00015440  GUIHelpFini_
0002:00015460  GUIShowHelp_
0002:000154b0* GUIShowHtmlHelp_
0002:000154c0+ GUIDisplayHelp_
0002:00015510* GUIDisplayHelpId_
Module: /mnt/sda5/.user/root/src/openwatcom-1.9/bld/aui/os2386/aui.lib(/mnt/sda5/.user/root/src/openwatcom-1.9/bld/aui/c/wndstat.c)
0002:00015520  WndCreateStatusWindow_
0002:00015550* WndHaveStatusWindow_
0002:00015570* WndCloseStatusWindow_
0002:000155b0  WndStatusText_
0002:00015600  GUIClearStatusText_
0002:00015620  WndResetStatusText_
0002:00015630  WndInternalStatusText_
0003:00003e90+ _WndStatusString
Module: /mnt/sda5/.user/root/src/openwatcom-1.9/bld/aui/os2386/aui.lib(/mnt/sda5/.user/root/src/openwatcom-1.9/bld/aui/c/wndscrol.c)
0002:00015680* WndFixedThumb_
0002:000156b0* WndSetThumbPercent_
0002:000156c0* WndSetThumbPos_
0002:000156d0* WndSetVScrollRange_
0002:000156e0  WndResetScroll_
0002:000156f0* WndVScrollWidth_
0002:00015710* WndHasNumRows_
0002:00015720  WndSetThumb_
0002:00015890  WndScrollAbs_
0002:000158a0  WndScroll_
0002:000158c0  WndSetHScroll_
0002:00015910+ WndCurrHScrollPos_
0002:00015990  WndHScrollToCurr_
0002:000159b0  WndHScrollNotify_
Module: /mnt/sda5/.user/root/src/openwatcom-1.9/bld/aui/os2386/aui.lib(/mnt/sda5/.user/root/src/openwatcom-1.9/bld/aui/c/wndfront.c)
0002:000159f0  WndToFront_
0002:00015a00* WndRestoreToFront_
0002:00015a30  WndNextNonIconToFront_
0002:00015a50* WndChooseNew_
Module: /mnt/sda5/.user/root/src/openwatcom-1.9/bld/aui/os2386/aui.lib(/mnt/sda5/.user/root/src/openwatcom-1.9/bld/aui/c/wndcurr.c)
0002:00015a90  WndSetPoint_
0002:00015d30  WndGetCurrent_
0002:00015d60  WndNewCurrent_
0002:00015d90* WndMoveCurrent_
0002:00015df0  WndHasCurrent_
0002:00015e00  WndNoCurrent_
0002:00015e20* WndCurrRow_
0002:00015e50  WndNextCurrent_
0002:00015f30  WndPrevCurrent_
0002:00016050  WndFirstCurrent_
0002:00016070  WndLastCurrent_
0002:000160b0  WndCheckCurrentValid_
0002:00016150  WndCurrVisible_
0002:00016200  WndDirtyCurr_
0002:00016250  WndDirtyCurrChar_
0002:00016280  WndSetCurrCol_
Module: /mnt/sda5/.user/root/src/openwatcom-1.9/bld/gui/ui/os2386/gui.lib(/mnt/sda5/.user/root/src/openwatcom-1.9/bld/gui/ui/c/guidrawr.c)
0002:00016500* GUIDrawRect_
0002:00016520* GUIFillRect_
0002:00016540  GUIFillBar_
0002:00016560  GUIDrawLine_
0002:00016620* GUIDrawRectRGB_
0002:00016620* GUIFillRectRGB_
0002:00016630* GUIDrawLineRGB_
Module: /mnt/sda5/.user/root/src/openwatcom-1.9/bld/aui/os2386/aui.lib(/mnt/sda5/.user/root/src/openwatcom-1.9/bld/aui/c/wnddirt.c)
0002:00016790  WndDirtyScreenRange_
0002:000167b0  WndDirtyScreenChar_
0002:000167d0  WndDirtyScreenPiece_
0002:000167f0  WndAdjustDirt_
0002:00016820  WndDirtyScreenRow_
0002:00016840* WndDirtyRect_
0002:00016880  WndRowDirty_
0002:000168c0* WndRowDirtyImmed_
0002:00016900* WndPieceDirty_
0002:00016940* WndStopRefresh_
0002:00016950+ WndPaintDirt_
0002:00016cc0  WndFreshAll_
0003:00000ddc  _WndDoingRefresh
Module: /mnt/sda5/.user/root/src/openwatcom-1.9/bld/aui/os2386/aui.lib(/mnt/sda5/.user/root/src/openwatcom-1.9/bld/aui/c/wndpop.c)
0002:00016d30+ CalcMaxId_
0002:00016d80* NullPopupMenu_
0002:00016e10  WndAddPopupMenu_
0002:00016f10  WndNullPopItem_
0002:00017020+ WndSelPopPiece_
0002:00017260  WndSelPopItem_
0002:000172a0+ WndKeyPopItem_
0002:00017300  WndPopUp_
0002:00017380+ WndChangeMenuAll_
0002:00017400  WndMenuEnableAll_
0002:00017420  WndMenuGrayAll_
0002:00017450* WndMenuIgnoreAll_
0002:00017480* WndMenuRespectAll_
0002:000174a0+ DoMenuBitOn_
0002:00017530  WndMenuCheck_
0002:00017540  WndMenuEnable_
0002:00017560* WndMenuIgnore_
0002:00017570+ WndCreateFloatingPopup_
0002:000175c0  WndInvokePopUp_
0002:000176f0* WndKeyPopUp_
0002:00017720  WndRowPopUp_
0002:00017760* WndSetMainMenu_
0002:00017790  WndClick_
0002:00017860  WndSetPopup_
0002:000178f0* WndEnableMainMenu_
0002:00017950* WndCheckMainMenu_
Module: /mnt/sda5/.user/root/src/openwatcom-1.9/bld/aui/os2386/aui.lib(/mnt/sda5/.user/root/src/openwatcom-1.9/bld/aui/c/wndsel.c)
0002:000179a0  WndSelectEvent_
0002:00017a20  WndSelEnds_
0002:00017a60  WndSelected_
0002:00017ba0  WndSelSetStart_
0002:00017bd0  WndSelGetEndPiece_
0002:00017c10* WndSelSetEnd_
0002:00017c30  WndSelPieceChange_
0002:00017d10  WndSelChange_
0002:00017d30  WndNoSelect_
0002:00017dc0* WndSelRow_
0002:00017df0  SetWndMenuRow_
0002:00017e40  WndToSelectMode_
0002:00017e80  WndEndSelectEvent_
0003:00003ee4  _WndMenuRow
0003:00003ee8  _WndMenuPiece
Module: /mnt/sda5/.user/root/src/openwatcom-1.9/bld/gui/ui/os2386/gui.lib(/mnt/sda5/.user/root/src/openwatcom-1.9/bld/gui/ui/c/guicrect.c)
0002:00017e90  GUIGetClientRect_
0002:00017eb0* GUIGetPaintRect_
Module: /mnt/sda5/.user/root/src/openwatcom-1.9/bld/gui/ui/os2386/gui.lib(/mnt/sda5/.user/root/src/openwatcom-1.9/bld/gui/ui/c/guigscrl.c)
0002:00017ee0* GUIGetHScrollCol_
0002:00017f00* GUIGetVScrollRow_
0002:00017f20  GUIGetHScroll_
0002:00017f50* GUIGetVScroll_
Module: /mnt/sda5/.user/root/src/openwatcom-1.9/bld/gui/ui/os2386/gui.lib(/mnt/sda5/.user/root/src/openwatcom-1.9/bld/gui/ui/c/guirect.c)
0002:00017f80  GUIGetRect_
Module: /mnt/sda5/.user/root/src/openwatcom-1.9/bld/gui/ui/os2386/gui.lib(/mnt/sda5/.user/root/src/openwatcom-1.9/bld/gui/c/guipixel.c)
0002:00017ff0  GUITruncToPixel_
Module: /mnt/sda5/.user/root/src/openwatcom-1.9/rel2/lib386/math387r.lib(ldcvt.c)
0002:000180e6  _LDScale10x_
0002:0001868d  __LDcvt_
Module: /mnt/sda5/.user/root/src/openwatcom-1.9/bld/gui/ui/os2386/gui.lib(/mnt/sda5/.user/root/src/openwatcom-1.9/bld/gui/ui/c/guistext.c)
0002:00018ae0  GUISetWindowText_
0002:00018b00* GUIGetWindowTextLength_
0002:00018b30  GUIGetWindowText_
Module: /mnt/sda5/.user/root/src/openwatcom-1.9/bld/gui/ui/os2386/gui.lib(/mnt/sda5/.user/root/src/openwatcom-1.9/bld/gui/c/guicreat.c)
0002:00018b80  GUICreateWindow_
0003:00000e88  _GUIMDI
Module: /mnt/sda5/.user/root/src/openwatcom-1.9/bld/gui/ui/os2386/gui.lib(/mnt/sda5/.user/root/src/openwatcom-1.9/bld/gui/c/guiextra.c)
0002:00018be0  GUISetExtra_
0002:00018bf0  GUIGetExtra_
Module: /mnt/sda5/.user/root/src/openwatcom-1.9/bld/aui/os2386/aui.lib(/mnt/sda5/.user/root/src/openwatcom-1.9/bld/aui/c/wndclean.c)
0002:00018c00  WndCleanUp_
Module: /mnt/sda5/.user/root/src/openwatcom-1.9/bld/gui/ui/os2386/gui.lib(/mnt/sda5/.user/root/src/openwatcom-1.9/bld/gui/ui/c/guixwind.c)
0002:00018c40* GUIWantPartialRows_
0002:00018c60  GUIFreeWindowMemory_
0002:00018e00  GUIDestroyDialog_
0002:00018e10  GUICloseWnd_
0002:00018e40  GUIDestroyWnd_
0002:00018e50  GUIGetRow_
0002:00018e80* GUIGetCol_
0002:00018eb0* GUIShowWindowNA_
0002:00018eb0  GUIShowWindow_
0002:00018ec0* GUIHideWindow_
0002:00018ed0* GUIIsWindowVisible_
0002:00018ee0* GUIIsFirstInstance_
Module: /mnt/sda5/.user/root/src/openwatcom-1.9/bld/gui/ui/os2386/gui.lib(/mnt/sda5/.user/root/src/openwatcom-1.9/bld/gui/ui/c/guimenu.c)
0002:00019040  GUIFreeMenuItems_
0002:00019080+ GUIAllocMenuItems_
0002:00019240  GUIGetMenuPopupCount_
0002:00019280  GUIEnableMenuItem_
0002:000192f0  GUISetMenuText_
0002:00019380  GUICheckMenuItem_
0002:000193e0  GUIChangeMenu_
0002:00019460+ GUIGetNumIgnore_
0002:00019490  GUICreateMenuItems_
0002:00019520+ GUIAllocVBarMenu_
0002:00019850  GUICreateMenus_
0002:000198d0+ GUIFreeVBarMenu_
0002:00019900  GUIFreeMenus_
0002:00019940  GUISetBetweenTitles_
0002:00019950* GUIAppendMenuByOffset_
0002:00019a90  GUIDeleteMenuItem_
0002:00019b20  GUIDeleteToolbarMenuItem_
0002:00019b90  GUIResetMenus_
0002:00019c30* GUIEnableMenus_
0002:00019cc0+ GUIInsertMenu_
0002:00019d40* GUIInsertMenuByID_
0002:00019dc0* GUIAppendMenu_
0002:00019e10  GUIAppendToolbarMenu_
0002:00019e60+ AddMenuItemToPopup_
0002:00019ef0  GUIAppendMenuToPopup_
0002:00019f10  GUIInsertMenuToPopup_
Module: /mnt/sda5/.user/root/src/openwatcom-1.9/bld/gui/ui/os2386/gui.lib(/mnt/sda5/.user/root/src/openwatcom-1.9/bld/gui/ui/c/guisicon.c)
0002:00019f30  GUISetIcon_
Module: /mnt/sda5/.user/root/src/openwatcom-1.9/bld/gui/ui/os2386/gui.lib(/mnt/sda5/.user/root/src/openwatcom-1.9/bld/gui/ui/c/guimouse.c)
0002:00019f80  GUIGetMousePosn_
Module: /mnt/sda5/.user/root/src/openwatcom-1.9/bld/gui/ui/os2386/gui.lib(/mnt/sda5/.user/root/src/openwatcom-1.9/bld/gui/ui/c/guisize.c)
0002:0001a180* GUISetCheckResizeAreaForChildren_
0002:0001a1a0  GUICheckResizeAreaForChildren_
0002:0001a260  GUICheckResizeAreaForParent_
0002:0001a570  GUICheckMove_
0002:0001a700  GUICheckArea_
0002:0001a850  GUIWndMoveSize_
0002:0001a980+ GUICalcIconArea_
0002:0001ab50  GUIZoomWnd_
0002:0001ac90  GUIResizeWindow_
0002:0001ad30  GUISetRestoredSize_
0002:0001ad80* GUIGetRestoredSize_
0002:0001add0  GUIMinimizeWindow_
0002:0001adf0  GUIMaximizeWindow_
0002:0001ae10  GUIRestoreWindow_
0002:0001ae30  GUIIsMaximized_
0002:0001ae40  GUIIsMinimized_
Module: /mnt/sda5/.user/root/src/openwatcom-1.9/bld/gui/ui/os2386/gui.lib(/mnt/sda5/.user/root/src/openwatcom-1.9/bld/gui/c/guizlist.c)
0002:0001ae70  GUIDeleteFromList_
0002:0001aeb0  GUIFrontOfList_
0002:0001aed0  GUIGetFront_
0002:0001aee0  GUIGetNextWindow_
0002:0001af00  GUIIsValidWindow_
Module: /mnt/sda5/.user/root/src/openwatcom-1.9/bld/gui/ui/os2386/gui.lib(/mnt/sda5/.user/root/src/openwatcom-1.9/bld/gui/ui/c/guiclen.c)
0002:0001af30  GUICharLen_
0002:0001af40* GUIIsDBCS_
Module: /mnt/sda5/.user/root/src/openwatcom-1.9/bld/gui/ui/os2386/gui.lib(/mnt/sda5/.user/root/src/openwatcom-1.9/bld/gui/ui/c/guixtent.c)
0002:0001af50  GUIGetExtentX_
0002:0001afa0* GUIGetControlExtentX_
0002:0001afb0* GUIGetControlExtentY_
0002:0001afc0* GUIGetExtentY_
Module: /mnt/sda5/.user/root/src/openwatcom-1.9/bld/gui/ui/os2386/gui.lib(/mnt/sda5/.user/root/src/openwatcom-1.9/bld/gui/ui/c/guidirty.c)
0002:0001afe0  GUIWndDirty_
Module: /mnt/sda5/.user/root/src/openwatcom-1.9/bld/aui/os2386/aui.lib(/mnt/sda5/.user/root/src/openwatcom-1.9/bld/aui/c/wndresiz.c)
0002:0001b070  WndMainResized_
Module: /mnt/sda5/.user/root/src/openwatcom-1.9/bld/gui/ui/os2386/gui.lib(/mnt/sda5/.user/root/src/openwatcom-1.9/bld/gui/ui/c/guixdisp.c)
0002:0001b1a0+ DisplayMessage_
0002:0001b1d0+ GUIStrnDup_
0002:0001b240+ TabFilter_
0002:0001b4a0+ AdjustVert_
0002:0001b610  GUIDisplayMessage_
Module: /mnt/sda5/.user/root/src/openwatcom-1.9/bld/gui/ui/os2386/gui.lib(/mnt/sda5/.user/root/src/openwatcom-1.9/bld/gui/ui/c/guidbclk.c)
0002:0001b800  GUISetDClickRate_
Module: /mnt/sda5/.user/root/src/openwatcom-1.9/bld/gui/ui/os2386/gui.lib(/mnt/sda5/.user/root/src/openwatcom-1.9/bld/gui/c/guirscal.c)
0002:0001b820  GUIGetRoundScale_
Module: /mnt/sda5/.user/root/src/openwatcom-1.9/bld/gui/ui/os2386/gui.lib(/mnt/sda5/.user/root/src/openwatcom-1.9/bld/gui/c/guiscale.c)
0002:0001b880  GUISetScale_
0002:0001b8b0  GUIGetScale_
0002:0001b8e0  GUISetScreen_
0002:0001b900  GUIGetScreen_
0002:0001b930+ GUIConvert_
0002:0001b9c0  GUIConvertRect_
0002:0001ba00+ GUIConvertPoint_
0002:0001ba50* GUIScaleToScreen_
0002:0001ba70  GUIScaleToScreenR_
0002:0001ba90* GUIScreenToScale_
0002:0001bab0  GUIScreenToScaleR_
0002:0001bad0  GUIScaleToScreenRPt_
0002:0001baf0* GUIScreenToScaleRPt_
Module: /mnt/sda5/.user/root/src/openwatcom-1.9/bld/gui/ui/os2386/gui.lib(/mnt/sda5/.user/root/src/openwatcom-1.9/bld/gui/ui/c/guixinit.c)
0002:0001bb20  GUIGetWindowStyles_
0002:0001bb30  GUIWndInit_
0002:0001bc40* GUISetF10Menus_
0002:0001bc60  GUIIsInit_
Module: /mnt/sda5/.user/root/src/openwatcom-1.9/bld/gui/ui/os2386/gui.lib(/mnt/sda5/.user/root/src/openwatcom-1.9/bld/gui/c/guiimmdi.c)
0002:0001bc70  GUIMDIInitMenuOnly_
Module: /mnt/sda5/.user/root/src/openwatcom-1.9/bld/gui/ui/os2386/gui.lib(/mnt/sda5/.user/root/src/openwatcom-1.9/bld/gui/ui/c/guistub.c)
0002:0001bcc0* GUIGetEditSelect_
0002:0001bcc0* GUISetEditSelect_
0002:0001bcc0* GUIIsControlEnabled_
0002:0001bcc0* GUIEnableControl_
0002:0001bcc0* GUISetHorizontalExtent_
0002:0001bcc0  GUI3DDialogInit_
0002:0001bcc0* GUIFontsSupported_
0002:0001bcc0* GUISetSystemFont_
0002:0001bcc0* GUISetFontInfo_
0002:0001bcc0* GUIChangeFont_
0002:0001bcd0  GUISetMouseCursor_
0002:0001bcd0* GUIGetFontFromUser_
0002:0001bcd0* GUIGetFontInfo_
0002:0001bce0* GUIScrollCaret_
0002:0001bce0* GUIShowControl_
0002:0001bce0* GUIHideControl_
0002:0001bce0  GUIResetMouseCursor_
Module: /mnt/sda5/.user/root/src/openwatcom-1.9/bld/gui/ui/os2386/gui.lib(/mnt/sda5/.user/root/src/openwatcom-1.9/bld/gui/ui/c/guicolor.c)
0002:0001bd10  GUIXSetColours_
0002:0001bdd0* GUIGetBack_
0002:0001bde0* GUIGetFore_
0002:0001bdf0  GUIMakeColour_
0002:0001be00* GUISetWindowColours_
0002:0001be40  GUISetDialColours_
0002:0001c180  GUIResetDialColours_
0002:0001c1b0  GUISetBackgroundColour_
0002:0001c1d0* GUIGetDialogColours_
0002:0001c220* GUISetDialogColours_
0002:0001c260+ GetColour_
0002:0001c280  GUIXGetWindowColours_
0002:0001c2d0* GUIGetRGBFromUser_
0002:0001c2d0* GUIGetRGB_
0002:0001c2d0* GUISetRGB_
0002:0001c2e0* GUIGetWndColour_
0002:0001c320* GUISetWndColour_
Module: /mnt/sda5/.user/root/src/openwatcom-1.9/bld/aui/os2386/aui.lib(/mnt/sda5/.user/root/src/openwatcom-1.9/bld/aui/c/wndsysin.c)
0002:0001c350  WndSysInit_
Module: /mnt/sda5/.user/root/src/openwatcom-1.9/bld/aui/os2386/aui.lib(/mnt/sda5/.user/root/src/openwatcom-1.9/bld/aui/c/wndmnsz.c)
0002:0001c360  WndSetWndMainSize_
Module: /mnt/sda5/.user/root/src/openwatcom-1.9/bld/aui/os2386/aui.lib(/mnt/sda5/.user/root/src/openwatcom-1.9/bld/aui/c/wndbgch.c)
0003:0000117c  _WndBackgroundChar
Module: /mnt/sda5/.user/root/src/openwatcom-1.9/bld/gui/ui/os2386/gui.lib(/mnt/sda5/.user/root/src/openwatcom-1.9/bld/gui/ui/c/guixdraw.c)
0002:0001c390  GUIInitDrawingChars_
0002:0001c550  GUIGetCharacter_
0002:0001c570* GUISetCharacter_
0002:0001cd00  GUIWndRfrshArea_
0002:0001cea0  GUIWndUpdate_
0003:00003f0c  _DrawingChars
Module: /mnt/sda5/.user/root/src/openwatcom-1.9/bld/aui/os2386/aui.lib(/mnt/sda5/.user/root/src/openwatcom-1.9/bld/aui/c/wndshthk.c)
0002:0001cf00  WndShutDownHook_
Module: /mnt/sda5/.user/root/src/openwatcom-1.9/bld/gui/ui/os2386/gui.lib(/mnt/sda5/.user/root/src/openwatcom-1.9/bld/gui/ui/c/guigetnr.c)
0002:0001cf10  GUIGetNumRows_
Module: /mnt/sda5/.user/root/src/openwatcom-1.9/bld/gui/ui/os2386/gui.lib(/mnt/sda5/.user/root/src/openwatcom-1.9/bld/gui/ui/c/guitextm.c)
0002:0001cf20  GUIGetTextMetrics_
0002:0001cf50  GUIGetDlgTextMetrics_
0002:0001cf60* GUIGetMaxDialogSize_
Module: /mnt/sda5/.user/root/src/openwatcom-1.9/bld/gui/ui/os2386/gui.lib(/mnt/sda5/.user/root/src/openwatcom-1.9/bld/gui/ui/c/guirange.c)
0002:0001cfc0  GUISetHScrollRange_
0002:0001cff0* GUISetVScrollRange_
0002:0001d020* GUISetHScrollRangeCols_
0002:0001d040  GUISetVScrollRangeRows_
0002:0001d060+ GUIGetVScrollRangeRows_
0002:0001d080* GUIGetVScrollRange_
0002:0001d0b0+ GUIGetHScrollRangeCols_
0002:0001d0d0* GUIGetHScrollRange_
Module: /mnt/sda5/.user/root/src/openwatcom-1.9/bld/aui/os2386/aui.lib(/mnt/sda5/.user/root/src/openwatcom-1.9/bld/aui/c/wndrszhk.c)
0002:0001d100  WndResizeHook_
Module: /mnt/sda5/.user/root/src/openwatcom-1.9/bld/aui/os2386/aui.lib(/mnt/sda5/.user/root/src/openwatcom-1.9/bld/aui/c/wndchoos.c)
0002:0001d110  WndChooseEvent_
0002:0001d170* WndDoneChoose_
0002:0001d180  WndKeyEscape_
0002:0001d1a0* WndStartChoose_
0002:0001d1b0  WndSayMatchMode_
0002:0001d2e0  WndKeyChoose_
0002:0001d4d0  WndKeyRubOut_
Module: /mnt/sda5/.user/root/src/openwatcom-1.9/bld/aui/os2386/aui.lib(/mnt/sda5/.user/root/src/openwatcom-1.9/bld/aui/c/wndmouse.c)
0002:0001d570* WndGetMouseRow_
0002:0001d630  WndLButtonDown_
0002:0001d710  WndLButtonUp_
0002:0001d7e0  WndLDblClk_
0002:0001d860  WndRButtonDown_
0002:0001d960  WndRButtonUp_
0002:0001d9e0  WndMouseButtonIsDown_
0002:0001da00  WndIgnoreMouseMove_
0002:0001da20  WndMouseMove_
Module: /mnt/sda5/.user/root/src/openwatcom-1.9/bld/aui/os2386/aui.lib(/mnt/sda5/.user/root/src/openwatcom-1.9/bld/aui/c/wndcrsr.c)
0002:0001daa0+ WndAtTop_
0002:0001dc40  WndScrollUp_
0002:0001dc90  WndScrollDown_
0002:0001dce0  WndCursorUp_
0002:0001dd00  WndCursorDown_
0002:0001dd40  WndPageUp_
0002:0001dd60  WndPageDown_
0002:0001dd80  WndTabLeft_
0002:0001dde0  WndCursorLeft_
0002:0001de80  WndTabRight_
0002:0001dee0  WndCursorRight_
0002:0001df70  WndScrollTop_
0002:0001df90  WndScrollBottom_
0002:0001dfb0  WndCursorStart_
0002:0001dfc0  WndCursorEnd_
Module: /mnt/sda5/.user/root/src/openwatcom-1.9/bld/aui/os2386/aui.lib(/mnt/sda5/.user/root/src/openwatcom-1.9/bld/aui/c/wndfonhk.c)
0002:0001dfd0  WndFontHook_
Module: /mnt/sda5/.user/root/src/openwatcom-1.9/bld/gui/ui/os2386/gui.lib(/mnt/sda5/.user/root/src/openwatcom-1.9/bld/gui/ui/c/guistat.c)
0002:0001e040  GUICreateStatusWindow_
0002:0001e0c0  GUIResizeStatusWindow_
0002:0001e140  GUIDrawStatus_
0002:0001e1c0  GUIDrawStatusText_
0002:0001e220  GUIHasStatus_
0002:0001e230  GUIFreeStatus_
0002:0001e270  GUIResizeStatus_
0002:0001e2a0  GUICloseStatusWindow_
Module: /mnt/sda5/.user/root/src/openwatcom-1.9/bld/aui/os2386/aui.lib(/mnt/sda5/.user/root/src/openwatcom-1.9/bld/aui/c/wndpaint.c)
0002:0001e710+ WndPaintRows_
0002:0001e870  WndProcPaint_
0002:0001e890* WndForcePaint_
Module: /mnt/sda5/.user/root/src/openwatcom-1.9/bld/gui/ui/os2386/gui.lib(/mnt/sda5/.user/root/src/openwatcom-1.9/bld/gui/ui/c/guiflush.c)
0002:0001e8c0  GUIFlushKeys_
Module: /mnt/sda5/.user/root/src/openwatcom-1.9/bld/aui/os2386/aui.lib(/mnt/sda5/.user/root/src/openwatcom-1.9/bld/aui/c/wndchar.c)
0002:0001e8d0* WndSetIDChars_
0002:0001e8e0  WndIDChar_
0002:0001e930  WndKeyChar_
Module: /mnt/sda5/.user/root/src/openwatcom-1.9/bld/aui/os2386/aui.lib(/mnt/sda5/.user/root/src/openwatcom-1.9/bld/aui/c/wndqryhk.c)
0002:0001e940  WndQueryEndSessionHook_
Module: /mnt/sda5/.user/root/src/openwatcom-1.9/bld/aui/os2386/aui.lib(/mnt/sda5/.user/root/src/openwatcom-1.9/bld/aui/c/wndendhk.c)
0002:0001e950  WndEndSessionHook_
Module: /mnt/sda5/.user/root/src/openwatcom-1.9/bld/aui/os2386/aui.lib(/mnt/sda5/.user/root/src/openwatcom-1.9/bld/aui/c/wndtool.c)
0002:0001e960* WndCreateToolBar_
0002:0001e9d0* WndCreateToolBarWithTips_
0002:0001ea40* WndHaveToolBar_
0002:0001ea50* WndCloseToolBar_
0002:0001ea70* WndToolHeight_
0002:0001ea80* WndToolFixed_
0002:0001ea90  WndSetToolBar_
0003:00003f68+ _ToolHeight
Module: /mnt/sda5/.user/root/src/openwatcom-1.9/bld/aui/os2386/aui.lib(/mnt/sda5/.user/root/src/openwatcom-1.9/bld/aui/c/wndldstr.c)
0002:0001eab0  WndLoadString_
Module: /mnt/sda5/.user/root/src/openwatcom-1.9/bld/aui/os2386/aui.lib(/mnt/sda5/.user/root/src/openwatcom-1.9/bld/aui/c/wndspawn.c)
0002:0001eb10* Spawn_
0002:0001eb50  SpawnP_
0002:0001eb90* Suicide_
Module: /mnt/sda5/.user/root/src/openwatcom-1.9/bld/gui/ui/os2386/gui.lib(/mnt/sda5/.user/root/src/openwatcom-1.9/bld/gui/c/guidlg.c)
0002:0001ebf0  GUICreateDialog_
0002:0001ec00  GUICreateResDialog_
0002:0001ec20  GUICreateSysModalDialog_
Module: /mnt/sda5/.user/root/src/openwatcom-1.9/bld/gui/ui/os2386/gui.lib(/mnt/sda5/.user/root/src/openwatcom-1.9/bld/gui/ui/c/guigtext.c)
0002:0001ed00  GUIGetText_
0002:0001ed20  GUIGetListItem_
Module: /mnt/sda5/.user/root/src/openwatcom-1.9/bld/gui/ui/os2386/gui.lib(/mnt/sda5/.user/root/src/openwatcom-1.9/bld/gui/ui/c/guismetr.c)
0002:0001ed30  GUIGetSystemMetrics_
Module: /mnt/sda5/.user/root/src/openwatcom-1.9/bld/gui/ui/os2386/gui.lib(/mnt/sda5/.user/root/src/openwatcom-1.9/bld/gui/c/guisdef.c)
0003:00003f70  ___LITApplIcon
0003:00003f74  ___LITEmpty
0003:00003f78  ___LITBrightGreen
0003:00003f7c  ___LITOS2_Dialog_Font
0003:00003f80  ___LITBrightCyan
0003:00003f84  ___LITBrightBlue
0003:00003f88  ___LITBrightRed
0003:00003f8c  ___LITBlank
0003:00003f90  ___LITBrightYellow
0003:00003f94  ___LITTable_of_Contents
0003:00003f98  ___LITInternal_Last_Message
0003:00003f9c  ___LITBrightWhite
0003:00003fa0  ___LITBrightMagenta
0003:00003fa4  ___LITWhite
0003:00003fa8  ___LITWindows_Dialog_Font
0003:00003fac  ___LITGrey
0003:00003fb0  ___LITXNo
0003:00003fb4  ___LITXIgnore
0003:00003fb8  ___LITBlack
0003:00003fbc  ___LITFix_Toolbar_Hint
0003:00003fc0  ___LITCyan
0003:00003fc4  ___LITBrown
0003:00003fc8  ___LITBlue
0003:00003fcc  ___LITGreen
0003:00003fd0  ___LITExclamation
0003:00003fd4  ___LITXAbort
0003:00003fd8  ___LITWindow_Name_Hint
0003:00003fdc  ___LITColour
0003:00003fe0  ___LITXFix_Toolbar
0003:00003fe4  ___LITStop_Bang
0003:00003fe8  ___LITMagenta
0003:00003fec  ___LITRed
0003:00003ff0  ___LITXRetry
0003:00003ff4  ___LITSelect_Window
0003:00003ff8  ___LITXYes
0003:00003ffc  ___LITNexXt
0003:00004000  ___LITArrange_Icons_Hint
0003:00004004  ___LITClose
0003:00004008  ___LITFDlg_Open_Text
0003:0000400c  ___LITTile_Horz_Hint
0003:00004010  ___LITCascade_Hint
0003:00004014  ___LITTile_XVert
0003:00004018  ___LITTile_Vert_Hint
0003:0000401c  ___LITTile_XHorz
0003:00004020  ___LITRestore
0003:00004024  ___LITMove
0003:00004028  ___LITMore_Windows_Hint
0003:0000402c  ___LITXMore_Windows
0003:00004030  ___LITXClose
0003:00004034  ___LITSize
0003:00004038  ___LITXCascade
0003:0000403c  ___LITMinimize
0003:00004040  ___LITXArrange_Icons
0003:00004044  ___LITMaximize
0003:00004048  ___LITXFix_Tool_Bar
0003:0000404c  ___LITFile_Exists_Replace
0003:00004050  ___LITChange_XFont_
0003:00004054  ___LITCancel
0003:00004058  ___LITOpen_Failed
0003:0000405c  ___LITDrives_Colon
0003:00004060  ___LITFDlg_Save_Text
0003:00004064  ___LITList_Files_of_Type_Colon
0003:00004068  ___LITPen_Failed
0003:0000406c  ___LITFile_Name_Colon
0003:00004070  ___LITChange_Font_for_this_window
0003:00004074  ___LITMake_Tool_Bar_Fixed
0003:00004078  ___LITFloating_Toolbar
0003:0000407c  ___LITInternal_First_Message
0003:00004080  ___LITDirectories_Colon
0003:00004084  ___LITOK
Module: /mnt/sda5/.user/root/src/openwatcom-1.9/bld/ui/os2/os2386/ui.lib(/mnt/sda5/.user/root/src/openwatcom-1.9/bld/ui/c/uialloc.c)
0002:0001edd0* UIMemPrintLine_
0002:0001edd0* UIMemPrtUsage_
0002:0001edd0  UIMemClose_
0002:0001edd0  UIMemOpen_
0002:0001edd0* UIMemRedirect_
0002:0001edd1  uicalloc_
0002:0001edd6  uimalloc_
0002:0001eddb  uifree_
0002:0001ede0  uirealloc_
Module: /mnt/sda5/.user/root/src/openwatcom-1.9/bld/gui/ui/os2386/gui.lib(/mnt/sda5/.user/root/src/openwatcom-1.9/bld/gui/c/guiutil.c)
0002:0001edf0* GUIStripTrailingBlanks_
0002:0001ee70  GUIStrDup_
0002:0001eef0  GUIStoreArgs_
0002:0001ef10* GUIGetArgs_
0002:0001ef40* GUIIsRootWindow_
0002:0001ef60  GUIGetRootWindow_
Module: /mnt/sda5/.user/root/src/openwatcom-1.9/bld/ui/os2/os2386/ui.lib(/mnt/sda5/.user/root/src/openwatcom-1.9/bld/ui/c/uidialog.c)
0002:0001f57a  uiprintfield_
0002:0001f5be+ ui_split_line_
0002:0001f660+ uiinitdialog_
0002:0001f776* uifinidialog_
0002:0001f834  uireinitdialog_
0002:0001f8c6  uigetdialogarea_
0002:0001f8db  uibegdialog_
0002:0001f99f  uiupdatecombobox_
0002:0001fa0c  uiupdateedit_
0002:0001faa8+ pulldownfilter_
0002:0001fca6+ uidialogexitcurr_
0002:0001fcbd  uidialogsetcurr_
0002:0001fd0f  uimovefield_
0002:0001fd6b  uiredrawdialog_
0002:0001fda7  uiresizedialog_
0002:000201b9+ uihotkeyfilter_
0002:000202b6  uiprocessdialogevent_
0002:00020492  uidialog_
0002:0002059e  uifreedialog_
0002:000205ea  uienddialog_
0002:00020602* uidialogisdirty_
0002:00020612* uidialogsetdirty_
Module: /mnt/sda5/.user/root/src/openwatcom-1.9/bld/gui/ui/os2386/gui.lib(/mnt/sda5/.user/root/src/openwatcom-1.9/bld/gui/ui/c/guihotsp.c)
0002:00020630  GUICreateHot_
0002:000206b0  GUIFreeHotSpot_
0002:000206d0  GUISetHotSpotText_
Module: /mnt/sda5/.user/root/src/openwatcom-1.9/bld/gui/ui/os2386/gui.lib(/mnt/sda5/.user/root/src/openwatcom-1.9/bld/gui/ui/c/guifdlg.c)
0002:00020bb0+ Compare_
0002:000217a0+ ProcessOKorDClick_
0002:00021ab0+ GetFileNameEvent_
0002:00021c80  GUIGetFileName_
0002:00021ce0* GUIHookFileDlg_
Module: /mnt/sda5/.user/root/src/openwatcom-1.9/bld/gui/ui/os2386/gui.lib(/mnt/sda5/.user/root/src/openwatcom-1.9/bld/gui/ui/c/guicontr.c)
0002:00021db0  GUIAddControl_
0002:00021e50  GUIGetControl_
0002:00021e70  GUIGetControlByIndex_
0002:00021ed0  GUIInsertControl_
0002:00021f20* GUIDeleteControl_
0002:00021f90  GUIFreeAllControls_
0002:00022000* GUILimitEditText_
0002:00022010  GUIResizeControls_
0002:00022060  GUIProcessControlEvent_
0002:000220d0* GUIEnumControls_
0002:00022100* GUIGetControlClass_
0002:00022120+ GUIGetControlRect_
0002:00022170* GUIResizeControl_
0002:00022230* GUIIsControlVisible_
Module: /mnt/sda5/.user/root/src/openwatcom-1.9/bld/ui/os2/os2386/ui.lib(/mnt/sda5/.user/root/src/openwatcom-1.9/bld/ui/c/uilist.c)
0002:0002223b* uigetlist_
0002:00022244* uiputlist_
0002:00022251  uipushlist_
0002:0002228d* uichecklist_
0002:000222af  uipoplist_
0002:000222d3  uiinlist_
0002:0002232b* uiintoplist_
Module: /mnt/sda5/.user/root/src/openwatcom-1.9/bld/gui/ui/os2386/gui.lib(/mnt/sda5/.user/root/src/openwatcom-1.9/bld/gui/ui/c/guilistb.c)
0002:00022390  GUIClearListBox_
0002:000223b0  GUIListBoxDeleteItem_
0002:00022470  GUIFreeList_
0002:000224e0  GUIFillInListBox_
0002:00022500  GUICreateListBox_
0002:00022530  GUICreateEditMLE_
0002:00022600  GUIListSize_
0002:00022740  GUIListBoxAddText_
0002:000227a0  GUIListBoxAddTextList_
0002:00022820  GUIGetListBoxText_
0002:00022850  GUIListCurr_
0002:00022890  GUIListBoxTopIndex_
0002:000228c0* GUISetListItemData_
0002:000228c0* GUIDropDown_
0002:000228d0* GUIGetListItemData_
Module: /mnt/sda5/.user/root/src/openwatcom-1.9/bld/gui/ui/os2386/gui.lib(/mnt/sda5/.user/root/src/openwatcom-1.9/bld/gui/ui/c/guixutil.c)
0002:000228e0* GUISetRedraw_
0002:000228f0  GUIIsOpen_
0002:00022900  GUISetUseArea_
0002:00022950  GUISetUseWnd_
0002:00022960  GUIPtInRect_
0002:00022a20  GUIOverlap_
0002:00022a40  GUISetDialogArea_
0002:00022a90  GUIAdjustDialogArea_
0002:00022aa0  GUIGetSAREA_
0002:00022ad0  GUIGetClientSAREA_
0002:00022b00  GUISetArea_
0002:00022d10  GUIMakeEditCopy_
0002:00022d60  GUIRedrawTitle_
0002:00022d70  GUIMakeRelative_
0002:00022de0  GUIJustSetWindowText_
0002:00022e10* GUIInArea_
0002:00022e50  GUIDirtyArea_
0002:00022e60  GUIGetTopWnd_
0002:00022e80  GUIGetFirstSibling_
0002:00022ea0  GUIGetParentWindow_
0002:00022eb0  GUIXGetRootWindow_
0002:00022ed0  GUISetCursor_
0002:00022ef0* GUIUnHookF1_
0002:00022ef0* GUIHookF1_
Module: /mnt/sda5/.user/root/src/openwatcom-1.9/bld/gui/ui/os2386/gui.lib(/mnt/sda5/.user/root/src/openwatcom-1.9/bld/gui/c/guimkey.c)
0002:00022f10  GUIMapKey_
0002:00023370  GUIGetKeyState_
0003:00001488  _KeyState
Module: /mnt/sda5/.user/root/src/openwatcom-1.9/bld/gui/ui/os2386/gui.lib(/mnt/sda5/.user/root/src/openwatcom-1.9/bld/gui/ui/c/guirdlg.c)
0002:00023390+ GUIFreeDialogBoxControlPtrs_
0002:000233e0+ GUIFreeDialogBoxHeader_
0002:00023d40  GUICreateDialogFromRes_
Module: /mnt/sda5/.user/root/src/openwatcom-1.9/bld/ui/os2/os2386/ui.lib(/mnt/sda5/.user/root/src/openwatcom-1.9/bld/ui/c/uiyield.c)
0002:00023f85  uiyield_
Module: /mnt/sda5/.user/root/src/openwatcom-1.9/bld/gui/ui/os2386/gui.lib(/mnt/sda5/.user/root/src/openwatcom-1.9/bld/gui/ui/c/guixloop.c)
0003:00001494  _GUIUserEvents
0002:00024290  GUICreatePopup_
0002:000248f0  GUIGetMenuWindow_
0002:00024a60  GUIProcessEvent_
Module: /mnt/sda5/.user/root/src/openwatcom-1.9/bld/ui/os2/os2386/ui.lib(/mnt/sda5/.user/root/src/openwatcom-1.9/bld/ui/c/uiforce.c)
0002:00024ff6  forceevfini_
0002:00024ff6  forceevinit_
0002:00024ff7  uiforceevadd_
0002:00025039* uiforceevflush_
0002:00025077  forcedevent_
Module: /mnt/sda5/.user/root/src/openwatcom-1.9/rel2/lib386/math387r.lib(bufld386)
0002:000250a8  __ZBuf2LD
Module: /mnt/sda5/.user/root/src/openwatcom-1.9/rel2/lib386/math387r.lib(inf_nan.c)
0002:0002514b* ___f_infinity
0002:0002514f* ___f_posqnan
0002:00025153  ___d_infinity
0002:0002515b  ___d_posqnan
0002:00025163* ___ld_infinity
0002:0002516b* ___ld_posqnan
Module: /mnt/sda5/.user/root/src/openwatcom-1.9/bld/ui/os2/os2386/ui.lib(/mnt/sda5/.user/root/src/openwatcom-1.9/bld/ui/c/uimget.c)
0002:00025173  uivgetevent_
0002:00025173  uivget_
0002:0002517d* uiungetevent_
0002:0002518d* uiflushevent_
Module: /mnt/sda5/.user/root/src/openwatcom-1.9/bld/gui/ui/os2386/gui.lib(/mnt/sda5/.user/root/src/openwatcom-1.9/bld/gui/ui/c/guiuiev.c)
0002:000251a0  GUIUIProcessEvent_
Module: /mnt/sda5/.user/root/src/openwatcom-1.9/bld/gui/ui/os2386/gui.lib(/mnt/sda5/.user/root/src/openwatcom-1.9/bld/gui/c/guiev.c)
0002:000251b0  GUIDoneEventProcessing_
0002:000251b0  GUIStartEventProcessing_
Module: /mnt/sda5/.user/root/src/openwatcom-1.9/bld/gui/ui/os2386/gui.lib(/mnt/sda5/.user/root/src/openwatcom-1.9/bld/gui/ui/c/guildstr.c)
0002:00025220  GUIIsLoadStrInitialized_
0002:00025230  GUILoadStrInit_
0002:000252f0  GUILoadStrFini_
0002:00025320  GUILoadString_
0002:00025360  GUILoadDialogTemplate_
0002:000253b0  GUILoadMenuTemplate_
0003:000014e8  _WResRtns
Module: /mnt/sda5/.user/root/src/openwatcom-1.9/bld/gui/ui/os2386/gui.lib(/mnt/sda5/.user/root/src/openwatcom-1.9/bld/gui/c/guistr.c)
0002:00025450  GUIInitInternalStringTable_
0002:00025870  GUIFiniInternalStringTable_
Module: /mnt/sda5/.user/root/src/openwatcom-1.9/bld/gui/ui/os2386/gui.lib(/mnt/sda5/.user/root/src/openwatcom-1.9/bld/gui/c/guideath.c)
0002:00025b30  GUIDeath_
Module: /mnt/sda5/.user/root/src/openwatcom-1.9/bld/ui/os2/os2386/ui.lib(/mnt/sda5/.user/root/src/openwatcom-1.9/bld/ui/c/uirefer.c)
0002:00025b36  uirefresh_
Module: /mnt/sda5/.user/root/src/openwatcom-1.9/bld/ui/os2/os2386/ui.lib(/mnt/sda5/.user/root/src/openwatcom-1.9/bld/ui/c/uiinit.c)
0002:00025b3b  uistart_
0002:00025b6e* uiinit_
0002:00025b8a  uistop_
0002:00025b99* uifini_
0002:00025bb2  uiswap_
Module: /mnt/sda5/.user/root/src/openwatcom-1.9/bld/ui/os2/os2386/ui.lib(/mnt/sda5/.user/root/src/openwatcom-1.9/bld/ui/c/uiback.c)
0002:00025c4a  uirestorebackground_
0002:00025c77  openbackground_
0002:00025cac  closebackground_
0002:00025cb9+ uibackgroundbuffer_
0002:00025cf7* uiremovebackground_
0002:00025d30* uikeepbackground_
Module: /mnt/sda5/.user/root/src/openwatcom-1.9/bld/gui/ui/os2386/gui.lib(/mnt/sda5/.user/root/src/openwatcom-1.9/bld/gui/c/guihook.c)
0002:00025d80  GUISetHotSpotCleanup_
0002:00025d90  GUICleanupHotSpots_
0002:00025db0* GUISetXChangeTitle_
0002:00025dc0  GUIXChangeTitle_
0002:00025de0  GUISetXInitMDI_
0002:00025df0  GUIXInitMDI_
0002:00025e10  GUISetInitMDI_
0002:00025e20  GUIInitMDI_
0002:00025e40  GUIChangeMDITitle_
0002:00025e60  GUISetMDIChangeTitle_
0002:00025e70  GUISetMDIBroughtToFront_
0002:00025e80  GUIMDIBroughtToFront_
0002:00025ea0  GUISetMDIDelete_
0002:00025eb0  GUIMDIDelete_
0002:00025ed0  GUISetMDIResetMenus_
0002:00025ee0  GUIMDIResetMenus_
0002:00025f00  GUISetMDIDeleteMenuItem_
0002:00025f10  GUIMDIDeleteMenuItem_
0002:00025f30* GUISetEnableMDIActions_
0002:00025f40  GUIEnableMDIActions_
0002:00025f60* GUISetAddMDIActions_
0002:00025f70  GUIAddMDIActions_
Module: /mnt/sda5/.user/root/src/openwatcom-1.9/bld/gui/ui/os2386/gui.lib(/mnt/sda5/.user/root/src/openwatcom-1.9/bld/gui/ui/c/guisysfi.c)
0002:00025f90  GUISysFini_
Module: /mnt/sda5/.user/root/src/openwatcom-1.9/bld/gui/ui/os2386/gui.lib(/mnt/sda5/.user/root/src/openwatcom-1.9/bld/gui/c/guiextnm.c)
0002:00025fa0  GUIGetExtName_
0002:00025fc0* GUISetExtName_
Module: /mnt/sda5/.user/root/src/openwatcom-1.9/bld/gui/ui/os2386/gui.lib(/mnt/sda5/.user/root/src/openwatcom-1.9/bld/gui/c/guidead.c)
0002:00026010  GUIDead_
Module: /mnt/sda5/.user/root/src/openwatcom-1.9/bld/gui/ui/os2386/gui.lib(/mnt/sda5/.user/root/src/openwatcom-1.9/bld/gui/ui/c/guixmain.c)
0002:00026020  main_
0003:00001638  _GUIMainTouched
Module: /mnt/sda5/.user/root/src/openwatcom-1.9/bld/gui/ui/os2386/gui.lib(/mnt/sda5/.user/root/src/openwatcom-1.9/bld/gui/c/guifcrck.c)
0002:00026030  GUIFirstCrack_
Module: /mnt/sda5/.user/root/src/openwatcom-1.9/bld/gui/ui/os2386/gui.lib(/mnt/sda5/.user/root/src/openwatcom-1.9/bld/gui/ui/c/guigadgt.c)
0002:00026040  GUIUseGadget_
0002:000260a0  GUIDrawGadgetLine_
0002:00026230  GUISetShowGadget_
0002:000262d0  GUIGadgetFilter_
0002:000263a0  GUIInitGadget_
0002:000263e0  GUICreateGadget_
0002:000264f0  GUIGetScrollOffset_
Module: /mnt/sda5/.user/root/src/openwatcom-1.9/bld/gui/ui/os2386/gui.lib(/mnt/sda5/.user/root/src/openwatcom-1.9/bld/gui/c/guiwnclr.c)
0002:00026500  GUISetColours_
0002:00026520  GUIFreeColours_
0002:00026540  GUIGetNumWindowColours_
0002:00026550  GUIGetWindowColours_
Module: /mnt/sda5/.user/root/src/openwatcom-1.9/bld/ui/os2/os2386/ui.lib(/mnt/sda5/.user/root/src/openwatcom-1.9/bld/ui/c/uimenu.c)
0002:0002659e  uisetbetweentitles_
0002:000265a4  uialtchar_
0002:0002674d  uidisplayitem_
0002:00026a31  uidrawmenu_
0002:00026a96  uiclosepopup_
0002:00026aa7  uiopenpopup_
0002:00026c58+ process_menuevent_
0002:000271ab* uigeteventfrompos_
0002:00027217  menuevent_
0002:0002732e  uidescmenu_
0002:0002753e  uimenutitlebar_
0002:000275ad* uienablemenuitem_
0002:000275e4* uimenuindicators_
0002:000275fe  uisetmenudesc_
0002:0002768a  uimenuson_
0002:00027695  uimenuheight_
0002:000276ad  uimenudisable_
0002:000276cb  uimenuisdisabled_
0002:000276e0* uimenugetaltpressed_
0002:000276f5  uimenusetaltpressed_
0002:00027713  uinomenus_
0002:00027715  uimenubar_
0002:00027773* uimenus_
0002:000277b0* uiactivatemenus_
0002:000277d2* uiignorealt_
0002:000277e0  uigetcurrentmenu_
Module: /mnt/sda5/.user/root/src/openwatcom-1.9/bld/ui/os2/os2386/ui.lib(/mnt/sda5/.user/root/src/openwatcom-1.9/bld/ui/c/uidata.c)
0003:000016b8  _UIData
Module: /mnt/sda5/.user/root/src/openwatcom-1.9/bld/ui/os2/os2386/ui.lib(/mnt/sda5/.user/root/src/openwatcom-1.9/bld/ui/c/uivopen.c)
0002:00027870  uivopen_
0002:00027a36  uivclose_
0002:00027a6b  uivresize_
0002:00027b7e  uivmove_
Module: /mnt/sda5/.user/root/src/openwatcom-1.9/bld/ui/os2/os2386/ui.lib(/mnt/sda5/.user/root/src/openwatcom-1.9/bld/ui/c/uivhide.c)
0002:00027bc9  uivhide_
0002:00027bef  uivshow_
Module: /mnt/sda5/.user/root/src/openwatcom-1.9/bld/ui/os2/os2386/ui.lib(/mnt/sda5/.user/root/src/openwatcom-1.9/bld/ui/c/uigadget.c)
0003:000016bc  _VertScrollFrame
0003:000016be  _HorzScrollFrame
0003:000016c0  _SliderChar
0003:000016c2  _LeftPoint
0003:000016c4  _RightPoint
0003:000016c6  _UpPoint
0003:000016c8  _DownPoint
0002:00027c0f  uishowgadget_
0002:00027e31  uiinitgadget_
0002:00027e42  uidrawgadget_
0002:00027e64  uisetgadget_
0002:00027e70  uifinigadget_
0002:00027e71  uisetgadgetnodraw_
0002:00027e76  uigadgetfilter_
Module: /mnt/sda5/.user/root/src/openwatcom-1.9/bld/gui/ui/os2386/gui.lib(/mnt/sda5/.user/root/src/openwatcom-1.9/bld/gui/ui/c/guifront.c)
0002:00028150  GUIBringToFront_
0002:00028200* GUIActivateNC_
Module: /mnt/sda5/.user/root/src/openwatcom-1.9/bld/gui/ui/os2386/gui.lib(/mnt/sda5/.user/root/src/openwatcom-1.9/bld/gui/ui/c/guiwhole.c)
0002:00028250  GUIWholeWndDirty_
Module: /mnt/sda5/.user/root/src/openwatcom-1.9/bld/ui/os2/os2386/ui.lib(/mnt/sda5/.user/root/src/openwatcom-1.9/bld/ui/os2/c/uibmous.c)
0002:00028354  uisetmouse_
0002:0002837b  uimouse_
Module: /mnt/sda5/.user/root/src/openwatcom-1.9/bld/gui/ui/os2386/gui.lib(/mnt/sda5/.user/root/src/openwatcom-1.9/bld/help/c/helpopen.c)
0002:00028560+ do_init_
0002:00028680  helpinit_
0002:00028740  help_reinit_
0002:000287b0  helpfini_
0003:000016dc  _HelpFiles
Module: /mnt/sda5/.user/root/src/openwatcom-1.9/bld/gui/ui/os2386/gui.lib(/mnt/sda5/.user/root/src/openwatcom-1.9/bld/help/c/help.c)
0002:000288b0+ hlp_ut_screen_area_
0002:00028900+ hlp_ut_position_
0002:00028f50+ help_next_field_
0002:000290e0* Free_Stack_
0002:00029100+ help_in_tab_
0002:0002a560  showhelp_
0002:0002a7e0+ do_showhelp_
Module: /mnt/sda5/.user/root/src/openwatcom-1.9/rel2/lib386/os2/clib3r.lib(_strcmp)
0002:0002a9f0  strcmp_
Module: /mnt/sda5/.user/root/src/openwatcom-1.9/bld/aui/os2386/aui.lib(/mnt/sda5/.user/root/src/openwatcom-1.9/bld/aui/c/wndfref.c)
0002:0002ab30  WndForceRefresh_
Module: /mnt/sda5/.user/root/src/openwatcom-1.9/bld/gui/ui/os2386/gui.lib(/mnt/sda5/.user/root/src/openwatcom-1.9/bld/gui/ui/c/guithumb.c)
0002:0002abc0* GUISetHScrollThumb_
0002:0002ac00  GUISetVScrollThumb_
Module: /mnt/sda5/.user/root/src/openwatcom-1.9/bld/gui/ui/os2386/gui.lib(/mnt/sda5/.user/root/src/openwatcom-1.9/bld/gui/ui/c/guiscrol.c)
0002:0002ac40  GUIScroll_
0002:0002ad70+ SetScroll_
0002:0002ad90  GUIInitHScroll_
0002:0002adb0* GUIInitHScrollCol_
0002:0002add0* GUIInitVScroll_
0002:0002adf0  GUIInitVScrollRow_
0002:0002ae10  GUISetHScroll_
0002:0002ae30* GUISetHScrollCol_
0002:0002ae50* GUISetVScroll_
0002:0002ae70* GUISetVScrollRow_
Module: /mnt/sda5/.user/root/src/openwatcom-1.9/bld/gui/ui/os2386/gui.lib(/mnt/sda5/.user/root/src/openwatcom-1.9/bld/gui/ui/c/guidoscr.c)
0002:0002b000  GUIDoHScroll_
0002:0002b020  GUIDoVScroll_
0002:0002b040* GUIDoHScrollClip_
0002:0002b050  GUIDoVScrollClip_
Module: /mnt/sda5/.user/root/src/openwatcom-1.9/bld/gui/ui/os2386/gui.lib(/mnt/sda5/.user/root/src/openwatcom-1.9/bld/gui/ui/c/guistrin.c)
0002:0002b060  GUIGetStringPos_
Module: /mnt/sda5/.user/root/src/openwatcom-1.9/bld/ui/os2/os2386/ui.lib(/mnt/sda5/.user/root/src/openwatcom-1.9/bld/ui/c/uivfill.c)
0002:0002b0a9  uivfill_
Module: /mnt/sda5/.user/root/src/openwatcom-1.9/bld/ui/os2/os2386/ui.lib(/mnt/sda5/.user/root/src/openwatcom-1.9/bld/ui/c/uibox.c)
0002:0002b111  drawbox_
0002:0002b257  blowup_
0002:0002b32f  uidrawbox_
Module: /mnt/sda5/.user/root/src/openwatcom-1.9/bld/gui/ui/os2386/gui.lib(/mnt/sda5/.user/root/src/openwatcom-1.9/bld/gui/ui/c/guidrect.c)
0002:0002b3a0  GUIWndDirtyRect_
Module: /mnt/sda5/.user/root/src/openwatcom-1.9/bld/gui/ui/os2386/gui.lib(/mnt/sda5/.user/root/src/openwatcom-1.9/bld/gui/ui/c/guidrow.c)
0002:0002b4e0  GUIWndDirtyRow_
Module: /mnt/sda5/.user/root/src/openwatcom-1.9/bld/gui/ui/os2386/gui.lib(/mnt/sda5/.user/root/src/openwatcom-1.9/bld/gui/c/guidraw.c)
0002:0002b530  GUIDrawText_
0002:0002b580* GUIDrawTextPos_
0002:0002b5a0  GUIDrawTextExtent_
0002:0002b5f0* GUIDrawTextExtentPos_
0002:0002b610* GUIDrawTextRGB_
0002:0002b660* GUIDrawTextPosRGB_
0002:0002b680* GUIDrawTextExtentRGB_
0002:0002b6d0* GUIDrawTextExtentPosRGB_
Module: /mnt/sda5/.user/root/src/openwatcom-1.9/bld/gui/ui/os2386/gui.lib(/mnt/sda5/.user/root/src/openwatcom-1.9/bld/gui/c/guihot.c)
0002:0002b710* GUIInitHotSpots_
0002:0002b770* GUIGetNumHotSpots_
0002:0002b780  GUIGetHotSpotSize_
0003:0000433c  _GUINumHotSpots
Module: /mnt/sda5/.user/root/src/openwatcom-1.9/bld/aui/os2386/aui.lib(/mnt/sda5/.user/root/src/openwatcom-1.9/bld/aui/c/wndsfra.c)
0002:0002b7c0  WndStartFreshAll_
Module: /mnt/sda5/.user/root/src/openwatcom-1.9/bld/aui/os2386/aui.lib(/mnt/sda5/.user/root/src/openwatcom-1.9/bld/aui/c/wndefra.c)
0002:0002b7d0  WndEndFreshAll_
Module: /mnt/sda5/.user/root/src/openwatcom-1.9/bld/aui/os2386/aui.lib(/mnt/sda5/.user/root/src/openwatcom-1.9/bld/aui/c/wndmem.c)
0002:0002b7e0  WndMustAlloc_
0002:0002b800* WndMustRealloc_
Module: /mnt/sda5/.user/root/src/openwatcom-1.9/bld/gui/ui/os2386/gui.lib(/mnt/sda5/.user/root/src/openwatcom-1.9/bld/gui/c/guihflt.c)
0002:0002b820  GUICreateFloatingPopup_
Module: /mnt/sda5/.user/root/src/openwatcom-1.9/bld/gui/ui/os2386/gui.lib(/mnt/sda5/.user/root/src/openwatcom-1.9/bld/gui/ui/c/guixscal.c)
0002:0002b890  GUIGetScreenArea_
0002:0002b8c0  GUIMulDiv_
0002:0002b960  GUIScreenToScaleRect_
0002:0002b980  GUIScreenToScaleRectR_
0002:0002b9a0  GUIScaleToScreenRect_
0002:0002b9c0  GUIScaleToScreenRectR_
Module: /mnt/sda5/.user/root/src/openwatcom-1.9/rel2/lib386/math387r.lib(ldclass.c)
0002:0002b9db  __LDClass_
0002:0002ba2b* _FLClass_
Module: /mnt/sda5/.user/root/src/openwatcom-1.9/bld/gui/ui/os2386/gui.lib(/mnt/sda5/.user/root/src/openwatcom-1.9/bld/gui/c/guisetup.c)
0002:0002ba40  GUISetupWnd_
Module: /mnt/sda5/.user/root/src/openwatcom-1.9/bld/gui/ui/os2386/gui.lib(/mnt/sda5/.user/root/src/openwatcom-1.9/bld/gui/ui/c/guitool.c)
0002:0002ba90  GUIXCreateFixedToolbar_
0002:0002bef0  GUIXCreateToolBar_
0002:0002c0b0  GUIXCreateToolBarWithTips_
0002:0002c0e0  GUIXCloseToolBar_
0002:0002c1c0  GUIHasToolBar_
0002:0002c1d0  GUIToolBarFixed_
0002:0002c220* GUIChangeToolBar_
Module: /mnt/sda5/.user/root/src/openwatcom-1.9/bld/gui/ui/os2386/gui.lib(/mnt/sda5/.user/root/src/openwatcom-1.9/bld/gui/c/guihint.c)
0002:0002c3b0+ GUIHasHintType_
0002:0002c3e0  GUIDisplayHintText_
0002:0002c450* GUISetHintText_
0002:0002c470  GUIHasHintText_
0002:0002c490  GUIDeleteHintText_
0002:0002c580+ CountMenus_
0002:0002c5c0+ InsertHint_
0002:0002c620  GUIAppendHintText_
0002:0002c6a0  GUIInitHint_
0002:0002c770  GUIInitToolbarHint_
0002:0002c810  GUIFreeHint_
Module: /mnt/sda5/.user/root/src/openwatcom-1.9/bld/gui/ui/os2386/gui.lib(/mnt/sda5/.user/root/src/openwatcom-1.9/bld/gui/c/guihtool.c)
0002:0002c850* GUICreateFloatToolBar_
0002:0002c8b0  GUICreateToolBar_
0002:0002c910  GUICreateToolBarWithTips_
0002:0002c970  GUICloseToolBar_
Module: /mnt/sda5/.user/root/src/openwatcom-1.9/bld/gui/ui/os2386/gui.lib(/mnt/sda5/.user/root/src/openwatcom-1.9/bld/gui/ui/c/guifloat.c)
0002:0002ca00  GUIProcessMenuCurr_
0002:0002caf0  GUICreateMenuPopup_
0002:0002cd70  GUIXCreateFloatingPopup_
0002:0002cdc0* GUITrackFloatingPopup_
0003:00001994  _GUIPopupMenu
Module: /mnt/sda5/.user/root/src/openwatcom-1.9/bld/gui/ui/os2386/gui.lib(/mnt/sda5/.user/root/src/openwatcom-1.9/bld/gui/ui/c/guisysme.c)
0002:0002ce10  GUISetSystemMenuFlags_
0002:0002cec0  GUISetSystemMenu_
0002:0002cfc0  GUIProcessSysMenuEvent_
Module: /mnt/sda5/.user/root/src/openwatcom-1.9/bld/gui/ui/os2386/gui.lib(/mnt/sda5/.user/root/src/openwatcom-1.9/bld/gui/ui/c/guirmenu.c)
0002:0002d3d0  GUIFreeGUIMenuStruct_
0002:0002d580  GUICreateMenuStructFromRes_
Module: /mnt/sda5/.user/root/src/openwatcom-1.9/bld/ui/os2/os2386/ui.lib(/mnt/sda5/.user/root/src/openwatcom-1.9/bld/ui/c/uidirty.c)
0002:0002d631  dirtyarea_
0002:0002d6b3  dirtynext_
0002:0002d703  uidirty_
Module: /mnt/sda5/.user/root/src/openwatcom-1.9/bld/ui/os2/os2386/ui.lib(/mnt/sda5/.user/root/src/openwatcom-1.9/bld/ui/c/uimousev.c)
0003:00004340  _MouseCol
0003:00004342  _MouseRow
0003:00004344+ _MouseStatus
0003:00004346  _MouseOn
0002:0002d71e* uivmouseinstalled_
0002:0002d71e  uimouseinstalled_
0002:0002d726  uimouseforceoff_
0002:0002d737* uimouseforceon_
0002:0002d73e  uionmouse_
0002:0002d776  uioffmouse_
0002:0002d77d  uihidemouse_
0002:0002d7a4  mouseevent_
0002:0002d989  uimousepos_
0002:0002da6c  uivmousepos_
0002:0002dacb  uiswapmouse_
0002:0002daf9* uigetmrow_
0002:0002db00* uigetmcol_
0002:0002db07  uigetmouse_
0003:00004348  _MouseInstalled
Module: /mnt/sda5/.user/root/src/openwatcom-1.9/bld/ui/os2/os2386/ui.lib(/mnt/sda5/.user/root/src/openwatcom-1.9/bld/ui/c/uivscrn.c)
0002:0002db4a  findvscreen_
0002:0002dba0  uivdirty_
0002:0002dbae  uivsetactive_
0002:0002dbc6  uivsetcursor_
Module: /mnt/sda5/.user/root/src/openwatcom-1.9/bld/ui/os2/os2386/ui.lib(/mnt/sda5/.user/root/src/openwatcom-1.9/bld/ui/c/uichlen.c)
0002:0002dbf9  uicharlen_
0002:0002dc20  uiisdbcs_
0002:0002dc26  uionnec_
Module: /mnt/sda5/.user/root/src/openwatcom-1.9/rel2/lib386/os2/clib3r.lib(strcspn.c)
0002:0002dc30  strcspn_
Module: /mnt/sda5/.user/root/src/openwatcom-1.9/rel2/lib386/os2/clib3r.lib(strnset.c)
0002:0002dc80  strnset_
Module: /mnt/sda5/.user/root/src/openwatcom-1.9/bld/ui/os2/os2386/ui.lib(/mnt/sda5/.user/root/src/openwatcom-1.9/bld/ui/os2/c/uibios.c)
0002:0002dc97* uiset80col_
0002:0002dc9a+ initmonitor_
0002:0002ddb1  initbios_
0002:0002de84  uiclockdelay_
0002:0002de9e  finibios_
0002:0002dea8  physupdate_
0003:00001ad8  __osmode
Module: /mnt/sda5/.user/root/src/openwatcom-1.9/bld/gui/ui/os2386/gui.lib(/mnt/sda5/.user/root/src/openwatcom-1.9/bld/gui/ui/c/guigmous.c)
0002:0002df20  GUIInitGraphicsMouse_
0002:0002df30  GUIInitMouse_
0002:0002df60  GUIFiniMouse_
0002:0002df80* GUIGMouseOn_
0002:0002dfd0* GUIGMouseOff_
0002:0002dff0  GUIHasCharRemap_
Module: /mnt/sda5/.user/root/src/openwatcom-1.9/bld/gui/ui/os2386/gui.lib(/mnt/sda5/.user/root/src/openwatcom-1.9/bld/gui/ui/c/guisysin.c)
0002:0002e000  GUISysInit_
Module: /mnt/sda5/.user/root/src/openwatcom-1.9/bld/ui/os2/os2386/ui.lib(/mnt/sda5/.user/root/src/openwatcom-1.9/bld/ui/c/uiattr.c)
0003:00001ae5+ _VGAcolours
0003:00001b25+ _ui_vga_colour_attrs
0003:00001b4a+ _ui_colour_attrs
0003:00001b6f+ _ui_bw_attrs
0003:00001b94+ _ui_mono_attrs
0002:0002e021  uiattrs_
0002:0002e0b5* uivgaattrs_
0002:0002e0f0+ uisetblinkattr_
0002:0002e129* uigetblinkattr_
Module: /mnt/sda5/.user/root/src/openwatcom-1.9/bld/ui/os2/os2386/ui.lib(/mnt/sda5/.user/root/src/openwatcom-1.9/bld/ui/c/uigchar.c)
0002:0002e12f  DBCSCharacterMap_
0003:00001be0  _UiGChar
0003:00001c02+ _UiDBCSChar
0003:00001c24+ _UiNECChar
Module: /mnt/sda5/.user/root/src/openwatcom-1.9/bld/gui/ui/os2386/gui.lib(/mnt/sda5/.user/root/src/openwatcom-1.9/bld/gui/ui/c/guiximdi.c)
0002:0002e240  XFakeInitMDI_
Module: /mnt/sda5/.user/root/src/openwatcom-1.9/bld/gui/ui/os2386/gui.lib(/mnt/sda5/.user/root/src/openwatcom-1.9/bld/gui/c/guimdi.c)
0003:00001c78+ _GUIMDIMenuID
0003:00001c7c+ _Root
0002:0002e270* GUIGetRoot_
0002:0002e500  MDIDeleteMenu_
0002:0002e520  MDIResetMenus_
0002:0002e5a0* GUIEnableMDIMenus_
0002:0002e630  InitMDI_
0002:0002e780  ChangeTitle_
0002:0002e7c0  BroughtToFront_
0002:0002e830+ FindNextMDIMenuWindowNotInArray_
0002:0002e8a0  MDIDelete_
0002:0002eb50+ GUIGetNumChildWindows_
0002:0002eb80* GUIGetNumIconicWindows_
0002:0002ec00  GUIMDIMoreWindows_
0002:0002ec60  GUIMDIGetWindow_
Module: /mnt/sda5/.user/root/src/openwatcom-1.9/bld/ui/os2/os2386/ui.lib(/mnt/sda5/.user/root/src/openwatcom-1.9/bld/ui/c/uivstr.c)
0002:0002ec75  uitextfield_
0002:0002ed49  uivtextput_
0002:0002ed8f* uivrawput_
Module: /mnt/sda5/.user/root/src/openwatcom-1.9/bld/gui/ui/os2386/gui.lib(/mnt/sda5/.user/root/src/openwatcom-1.9/bld/gui/ui/c/guiicon.c)
0002:0002ee00  GUIDrawIcon_
Module: /mnt/sda5/.user/root/src/openwatcom-1.9/rel2/lib386/os2/clib3r.lib(strnicmp.c)
0002:0002eed0  strnicmp_
Module: /mnt/sda5/.user/root/src/openwatcom-1.9/bld/gui/ui/os2386/gui.lib(/mnt/sda5/.user/root/src/openwatcom-1.9/bld/gui/ui/c/guixbar.c)
0002:0002ef20  GUIDrawBar_
0002:0002ef90  GUIDrawBarGroup_
Module: /mnt/sda5/.user/root/src/openwatcom-1.9/bld/gui/ui/os2386/gui.lib(/mnt/sda5/.user/root/src/openwatcom-1.9/bld/gui/ui/c/guixhot.c)
0002:0002f010  GUIXInitHotSpots_
0002:0002f0a0  GUIDrawHotSpot_
0002:0002f0e0  GUIXCleanupHotSpots_
0003:00001c90  _GUIHotSpots
Module: /mnt/sda5/.user/root/src/openwatcom-1.9/bld/aui/os2386/aui.lib(/mnt/sda5/.user/root/src/openwatcom-1.9/bld/aui/c/wndtbatr.c)
0002:0002f110  WndMapTabAttr_
Module: /mnt/sda5/.user/root/src/openwatcom-1.9/bld/ui/os2/os2386/ui.lib(/mnt/sda5/.user/root/src/openwatcom-1.9/bld/ui/os2/c/uiget.c)
0002:0002f116  uiflush_
0002:0002f122  uiclock_
0002:0002f1a5  uiget_
0002:0002f1aa* uieventsource_
Module: /mnt/sda5/.user/root/src/openwatcom-1.9/rel2/lib386/os2/clib3r.lib(setjmp)
0002:0002f1f4  _setjmp_
0002:0002f22d  longjmp_
Module: /mnt/sda5/.user/root/src/openwatcom-1.9/rel2/lib386/os2/clib3r.lib(calloc.c)
0002:0002f2b0  calloc_
Module: /mnt/sda5/.user/root/src/openwatcom-1.9/bld/ui/os2/os2386/ui.lib(/mnt/sda5/.user/root/src/openwatcom-1.9/bld/ui/c/uiledit.c)
0002:0002f329  uiedittrim_
0002:0002f33b* uieditmarking_
0002:0002f36f  uibegedit_
0002:0002f483  uieditpushlist_
0002:0002f497  uieditpoplist_
0002:0002f4ed  uiledit_
0002:0002f5e1* uieditinsert_
0002:0002f65d  uiendedit_
0002:0002f6a5  uieditisdirty_
0002:0002f6cc* uieditautoclear_
0002:0002f6e1* uieditcursor_
0002:0002f6f2* uieditdirty_
0002:0002f6fc* uieditclean_
0003:00001c98+ _UIEdit
Module: /mnt/sda5/.user/root/src/openwatcom-1.9/bld/ui/os2/os2386/ui.lib(/mnt/sda5/.user/root/src/openwatcom-1.9/bld/ui/c/uimisc.c)
0002:0002f706  uisetscreenarea_
0002:0002f742  uisetarea_
0002:0002f78e  uiposition_
0002:0002f7e8  uiopen_
0002:0002f825  uiclose_
0002:0002f836  uicntrtext_
0002:0002f87a  uinocursor_
0002:0002f882  uicursor_
Module: /mnt/sda5/.user/root/src/openwatcom-1.9/bld/ui/os2/os2386/ui.lib(/mnt/sda5/.user/root/src/openwatcom-1.9/bld/ui/c/uilstbox.c)
0002:0002f88d  uigetlistelement_
0002:0002f8c5  uipaintlistbox_
0002:0002fa09+ checkitem_
0002:0002fa7a  uiupdatelistbox_
0002:0002faed  uiboxpushlist_
0002:0002faf7  uiboxpoplist_
0002:0002fb25  uilistsize_
0002:0002fb3d  uimovelistbox_
0002:0002fb5b  uibeglistbox_
0002:0002fc26  uiendlistbox_
0002:0002fccf+ charselect_
0002:0002fd3c  uilistbox_
Module: /mnt/sda5/.user/root/src/openwatcom-1.9/bld/ui/os2/os2386/ui.lib(/mnt/sda5/.user/root/src/openwatcom-1.9/bld/ui/c/uihotspt.c)
0002:0003012f  uidrawhottext_
0002:00030241  uihotspot_
0002:000303eb  uiposnhotspots_
0002:00030486  uiprinthotspots_
0002:000304aa* uioffhotspots_
0002:000304e5  uihotspotfilter_
0002:00030654  uiisdefaulthotspot_
Module: /mnt/sda5/.user/root/src/openwatcom-1.9/rel2/lib386/os2/clib3r.lib(strncat.c)
0002:00030680  strncat_
Module: /mnt/sda5/.user/root/src/openwatcom-1.9/bld/gui/ui/os2386/gui.lib(/mnt/sda5/.user/root/src/openwatcom-1.9/bld/gui/ui/c/uidchfld.c)
0002:000306c0  uidialogchangefield_
Module: /mnt/sda5/.user/root/src/openwatcom-1.9/bld/ui/os2/os2386/ui.lib(/mnt/sda5/.user/root/src/openwatcom-1.9/bld/ui/c/uidevent.c)
0002:000306c5  uidialogevent_
Module: /mnt/sda5/.user/root/src/openwatcom-1.9/bld/gui/ui/os2386/gui.lib(/mnt/sda5/.user/root/src/openwatcom-1.9/bld/help/c/dialcb.c)
0002:000306d0  uidialogcallback_
Module: /mnt/sda5/.user/root/src/openwatcom-1.9/rel2/lib386/os2/clib3r.lib(sdrveos2.c)
0002:000306e0  _dos_setdrive_
Module: /mnt/sda5/.user/root/src/openwatcom-1.9/rel2/lib386/os2/clib3r.lib(chdiros2.c)
0002:00030730  chdir_
Module: /mnt/sda5/.user/root/src/openwatcom-1.9/rel2/lib386/os2/clib3r.lib(_istrcc_.asm)
0002:0003074c  strcasecmp_
Module: /mnt/sda5/.user/root/src/openwatcom-1.9/rel2/lib386/os2/clib3r.lib(strtok.c)
0002:00030760  strtok_
Module: /mnt/sda5/.user/root/src/openwatcom-1.9/rel2/lib386/os2/clib3r.lib(gtcwdos2.c)
0002:00030820  getcwd_
Module: /mnt/sda5/.user/root/src/openwatcom-1.9/bld/gui/ui/os2386/gui.lib(/mnt/sda5/.user/root/src/openwatcom-1.9/bld/gui/ui/c/guixaddt.c)
0002:000308e0* GUIControlSetRedraw_
0002:00030950  GUIAddText_
0002:00030990* GUIAddTextList_
0002:000309d0* GUIDeleteItem_
0002:00030a00  GUIClearList_
0002:00030a60  GUIGetCurrSelect_
0002:00030ab0  GUISetCurrSelect_
0002:00030b00* GUIGetListSize_
0002:00030b30* GUIInsertText_
0002:00030b70* GUISetTopIndex_
0002:00030bc0* GUIGetTopIndex_
Module: /mnt/sda5/.user/root/src/openwatcom-1.9/rel2/lib386/os2/clib3r.lib(diros2.c)
0002:00030cb0+ __opendir_
0002:00030d60+ _opendir_
0002:00030ef0  opendir_
0002:00030f10  readdir_
0002:00030fd0  closedir_
0002:00031020* rewinddir_
Module: /mnt/sda5/.user/root/src/openwatcom-1.9/rel2/lib386/os2/clib3r.lib(strstr.c)
0002:00031060  strstr_
Module: /mnt/sda5/.user/root/src/openwatcom-1.9/bld/gui/ui/os2386/gui.lib(/mnt/sda5/.user/root/src/openwatcom-1.9/bld/gui/ui/c/guimapky.c)
0002:00031110  GUISetKeyState_
0002:00031140  GUIMapKeys_
Module: /mnt/sda5/.user/root/src/openwatcom-1.9/rel2/lib386/os2/clib3r.lib(itoa.c)
0002:00031620  utoa_
0002:00031670  itoa_
Module: /mnt/sda5/.user/root/src/openwatcom-1.9/bld/gui/ui/os2386/gui.lib(/mnt/sda5/.user/root/src/openwatcom-1.9/bld/gui/ui/c/guismove.c)
0002:000316e0  GUIStartMoveResize_
0002:00031710  GUIStartKeyboardMoveResize_
0002:000319e0* MoveResizeCancel_
0002:000319f0  GUIDoKeyboardMoveResize_
0002:00031ad0  GUIDoMoveResize_
0002:00031b30  GUIDoMoveResizeCheck_
Module: /mnt/sda5/.user/root/src/openwatcom-1.9/bld/gui/ui/os2386/gui.lib(/mnt/sda5/.user/root/src/openwatcom-1.9/bld/gui/ui/c/guikey.c)
0002:00031b80  GUIProcessAltMenuEvent_
Module: /mnt/sda5/.user/root/src/openwatcom-1.9/bld/gui/ui/os2386/gui.lib(/mnt/sda5/.user/root/src/openwatcom-1.9/bld/gui/ui/c/guixhook.c)
0002:00031c10  GUISetMDIProcessEvent_
0002:00031c20  GUIMDIProcessEvent_
Module: /mnt/sda5/.user/root/src/openwatcom-1.9/bld/ui/os2/os2386/ui.lib(/mnt/sda5/.user/root/src/openwatcom-1.9/bld/ui/c/uipget.c)
0002:00031c33  saveevent_
0002:00031c59  getprime_
0002:00031c81* uivgetprimevent_
0002:00031c81* uivgetprime_
0003:00004644  _Event
Module: /mnt/sda5/.user/root/src/openwatcom-1.9/bld/sdk/rc/wres/flat386/mf_r/wres.lib(loadfind.c)
0002:00031ca8  FindResources_
0003:00001d20  _FileShift
Module: /mnt/sda5/.user/root/src/openwatcom-1.9/bld/sdk/rc/wres/flat386/mf_r/wres.lib(loadstr.c)
0002:00031ee8+ WResLoadString2_
0002:00031f98  WResLoadString_
0002:00031fb0  OpenResFile_
0002:00031fc0+ InitResources2_
0002:00031fe8  InitResources_
0002:00031ff8* CloseResFile2_
0002:00032004  CloseResFile_
0002:0003201c* LoadstrInitStatics_
0003:00004648  _MainDir
Module: /mnt/sda5/.user/root/src/openwatcom-1.9/rel2/lib386/os2/clib3r.lib(iob.c)
0003:00001d24  ___iob
0003:00001f2c  __fmode
0003:0000464c  ___OpenStreams
0003:00004650  ___ClosedStreams
Module: /mnt/sda5/.user/root/src/openwatcom-1.9/bld/sdk/rc/wres/flat386/mf_r/wres.lib(loadres.c)
0002:00032064+ WResLoadResource2_
0002:00032124  WResLoadResource_
Module: /mnt/sda5/.user/root/src/openwatcom-1.9/bld/ui/os2/os2386/ui.lib(/mnt/sda5/.user/root/src/openwatcom-1.9/bld/ui/c/uirfrsh.c)
0002:000321e1  uidorefresh_
Module: /mnt/sda5/.user/root/src/openwatcom-1.9/bld/ui/os2/os2386/ui.lib(/mnt/sda5/.user/root/src/openwatcom-1.9/bld/ui/os2/c/uimous.c)
0002:00032267* mousespawnstart_
0002:0003226c* mousespawnend_
0002:0003234c  checkmouse_
0002:000323dd+ uimousespeed_
0002:0003268c  initmouse_
0002:000326ae  finimouse_
0002:000326f9  uisetmouseposn_
Module: /mnt/sda5/.user/root/src/openwatcom-1.9/bld/ui/os2/os2386/ui.lib(/mnt/sda5/.user/root/src/openwatcom-1.9/bld/ui/os2/c/uicurs.c)
0002:00032742  uioffcursor_
0002:00032a8c* uigetcursor_
0002:00032b83  uisetcursor_
0002:00032bc6  uiswapcursor_
0002:00032bda* uioncursor_
0002:00032bda  uifinicursor_
0002:00032c30  uiinitcursor_
Module: /mnt/sda5/.user/root/src/openwatcom-1.9/bld/ui/os2/os2386/ui.lib(/mnt/sda5/.user/root/src/openwatcom-1.9/bld/ui/c/uibfill.c)
0002:00032c60  bfill_
Module: /mnt/sda5/.user/root/src/openwatcom-1.9/bld/ui/os2/os2386/ui.lib(/mnt/sda5/.user/root/src/openwatcom-1.9/bld/ui/c/uibcopy.c)
0002:00032c97  uibcopy_
Module: /mnt/sda5/.user/root/src/openwatcom-1.9/bld/ui/os2/os2386/ui.lib(/mnt/sda5/.user/root/src/openwatcom-1.9/bld/ui/c/uiwin.c)
0002:00032d2e+ findspot_
0002:00032d93  closewindow_
0002:00032ddd  openwindow_
0002:00032e08  movewindow_
0002:00032e32  frontwindow_
Module: /mnt/sda5/.user/root/src/openwatcom-1.9/bld/ui/os2/os2386/ui.lib(/mnt/sda5/.user/root/src/openwatcom-1.9/bld/ui/c/uiballoc.c)
0002:00032e60  bframe_
0002:00032e6b  balloc_
0002:00032e8d  bunframe_
0002:00032e98  bfree_
Module: /mnt/sda5/.user/root/src/openwatcom-1.9/rel2/lib386/os2/clib3r.lib(cstart)
0002:00032ea0  _cstart_
Module: /mnt/sda5/.user/root/src/openwatcom-1.9/rel2/lib386/os2/clib3r.lib(argcv.c)
0003:00004674  __argc
0003:00004678  __argv
0003:0000467c  ___argc
0003:00004680  ___argv
Module: /mnt/sda5/.user/root/src/openwatcom-1.9/bld/ui/os2/os2386/ui.lib(/mnt/sda5/.user/root/src/openwatcom-1.9/bld/ui/c/uibstr.c)
0002:00032f00  bstring_
0002:00032f33  braw_
Module: /mnt/sda5/.user/root/src/openwatcom-1.9/bld/ui/os2/os2386/ui.lib(/mnt/sda5/.user/root/src/openwatcom-1.9/bld/ui/c/uipopup.c)
0002:00033226+ uicreatepopupdesc_
0002:00033411  uiposfloatingpopup_
0002:00033960  uicreatepopupinarea_
0002:00033983+ uicreatesubpopup_
0002:000339c9  uicreatesubpopupinarea_
0002:000339e9* uicreatepopup_
Module: /mnt/sda5/.user/root/src/openwatcom-1.9/bld/ui/os2/os2386/ui.lib(/mnt/sda5/.user/root/src/openwatcom-1.9/bld/ui/c/uivutil.c)
0002:00033a4f  isdialogue_
0002:00033a5f  isscreen_
0002:00033a91* uisetsnow_
Module: /mnt/sda5/.user/root/src/openwatcom-1.9/bld/gui/ui/os2386/gui.lib(/mnt/sda5/.user/root/src/openwatcom-1.9/bld/gui/ui/c/uimenucr.c)
0002:00033ab0  uimenucurr_
Module: /mnt/sda5/.user/root/src/openwatcom-1.9/bld/ui/os2/os2386/ui.lib(/mnt/sda5/.user/root/src/openwatcom-1.9/bld/ui/c/uicheck.c)
0002:00033aea  okarea_
0002:00033b18  oksubarea_
0002:00033b2b  okline_
0002:00033b51  okopen_
Module: /mnt/sda5/.user/root/src/openwatcom-1.9/bld/ui/os2/os2386/ui.lib(/mnt/sda5/.user/root/src/openwatcom-1.9/bld/ui/c/uibfake.c)
0002:00033b5c  bfake_
Module: /mnt/sda5/.user/root/src/openwatcom-1.9/bld/ui/os2/os2386/ui.lib(/mnt/sda5/.user/root/src/openwatcom-1.9/bld/ui/c/uiprot.c)
0002:00033b88  uiunprotect_
0002:00033baf  uiprotect_
Module: /mnt/sda5/.user/root/src/openwatcom-1.9/bld/gui/ui/os2386/gui.lib(/mnt/sda5/.user/root/src/openwatcom-1.9/bld/gui/ui/c/helpmem.c)
0002:00033bd0  HelpMemFree_
0002:00033be0  HelpMemAlloc_
0002:00033bf0  HelpMemRealloc_
Module: /mnt/sda5/.user/root/src/openwatcom-1.9/bld/gui/ui/os2386/gui.lib(/mnt/sda5/.user/root/src/openwatcom-1.9/bld/help/c/helpio.c)
0002:00033c00  HelpFileLen_
0002:00033c10  HelpRead_
0002:00033c20* HelpWrite_
0002:00033c30  HelpSeek_
0002:00033c40  HelpTell_
0002:00033c50  HelpOpen_
0002:00033cb0  HelpClose_
0002:00033cc0  HelpAccess_
0002:00033cf0  HelpGetCWD_
0002:00033d00  HelpSearchEnv_
Module: /mnt/sda5/.user/root/src/openwatcom-1.9/rel2/lib386/os2/clib3r.lib(splitpat.c)
0002:00033d50  _splitpath_
Module: /mnt/sda5/.user/root/src/openwatcom-1.9/bld/gui/ui/os2386/gui.lib(/mnt/sda5/.user/root/src/openwatcom-1.9/bld/help/c/search.c)
0002:000340a0  HelpFindFirst_
0002:00034130  HelpGetIndexedTopic_
0002:000341a0  HelpFindTopicOffset_
0002:00034210  InitHelpSearch_
0002:00034460  GetDefTopic_
0002:00034470* GetDescrip_
0002:00034480  FiniHelpSearch_
0003:00001fb8+ _curFile
0003:00004684+ _curPage
0003:00004a84+ _pageIndex
0003:00004a88+ _pageHeader
0003:00004a8c+ _stringBlock
Module: /mnt/sda5/.user/root/src/openwatcom-1.9/bld/ui/os2/os2386/ui.lib(/mnt/sda5/.user/root/src/openwatcom-1.9/bld/ui/c/uivattr.c)
0002:000344c0  uivattribute_
0002:00034506* uivattrflip_
Module: /mnt/sda5/.user/root/src/openwatcom-1.9/bld/ui/os2/os2386/ui.lib(/mnt/sda5/.user/root/src/openwatcom-1.9/bld/ui/c/uitab.c)
0002:000345ef  uitabfilter_
Module: /mnt/sda5/.user/root/src/openwatcom-1.9/bld/gui/ui/os2386/gui.lib(/mnt/sda5/.user/root/src/openwatcom-1.9/bld/help/c/dlg.c)
0002:00034930+ GetListBoxItem_
0002:00034a50  HelpDialogCallBack_
0002:00034ae0  SearchDlgFini_
0002:00034b10  HelpSearch_
Module: /mnt/sda5/.user/root/src/openwatcom-1.9/bld/gui/ui/os2386/gui.lib(/mnt/sda5/.user/root/src/openwatcom-1.9/bld/help/c/helpscan.c)
0002:00034e00+ freeHyperlinkInfo_
0002:00034e20  ScanLine_
Module: /mnt/sda5/.user/root/src/openwatcom-1.9/rel2/lib386/os2/clib3r.lib(atoi.c)
0002:00034fb0  atoi_
Module: /mnt/sda5/.user/root/src/openwatcom-1.9/bld/gui/ui/os2386/gui.lib(/mnt/sda5/.user/root/src/openwatcom-1.9/bld/help/c/vvscroll.c)
0002:00035000  vvscroll_
Module: /mnt/sda5/.user/root/src/openwatcom-1.9/rel2/lib386/os2/clib3r.lib(strncmp.c)
0002:000350f0  strncmp_
Module: /mnt/sda5/.user/root/src/openwatcom-1.9/bld/gui/ui/os2386/gui.lib(/mnt/sda5/.user/root/src/openwatcom-1.9/bld/help/c/msgbox.c)
0002:00035130  ShowMsgBox_
0003:00002080+ _helpMsgBox
Module: /mnt/sda5/.user/root/src/openwatcom-1.9/bld/ui/os2/os2386/ui.lib(/mnt/sda5/.user/root/src/openwatcom-1.9/bld/ui/c/uivmove.c)
0002:0003518b  uivmoveblock_
Module: /mnt/sda5/.user/root/src/openwatcom-1.9/bld/ui/os2/os2386/ui.lib(/mnt/sda5/.user/root/src/openwatcom-1.9/bld/ui/c/uibpix.c)
0002:000352c1  bpixel_
Module: /mnt/sda5/.user/root/src/openwatcom-1.9/bld/gui/ui/os2386/gui.lib(/mnt/sda5/.user/root/src/openwatcom-1.9/bld/gui/ui/c/guidrawt.c)
0002:00035300  GUIXDrawText_
0002:00035610  GUIXDrawTextRGB_
Module: /mnt/sda5/.user/root/src/openwatcom-1.9/bld/sdk/rc/wres/flat386/mf_r/wres.lib(resmenu.c)
0002:00035620* ResWriteMenuHeader_
0002:00035650* ResWriteMenuExHeader_
0002:000356b4+ ResWriteMenuItemPopup_
0002:00035704* ResWriteMenuExItemPopup_
0002:0003579c+ ResWriteMenuItemNormal_
0002:00035800* ResWriteMenuExItemNormal_
0002:00035888* ResWriteMenuItem_
0002:000358ac+ ResReadMenuHeader_
0002:000358ec* ResReadMenuExtraBytes_
0002:00035928* ResIsMenuEx_
0002:00035954* ResIsHeaderMenuEx_
0002:00035960* ResReadMenuExItem_
0002:00035a40* ResReadMenuItem_
0002:00035ac0* ResReadMenuItem32_
0002:00035b40  ResNewMenuItem_
0002:00035b7c  ResFreeMenuItem_
Module: /mnt/sda5/.user/root/src/openwatcom-1.9/bld/ui/os2/os2386/ui.lib(/mnt/sda5/.user/root/src/openwatcom-1.9/bld/ui/c/uiarea.c)
0002:00035bb4  dividearea_
Module: /mnt/sda5/.user/root/src/openwatcom-1.9/bld/ui/os2/os2386/ui.lib(/mnt/sda5/.user/root/src/openwatcom-1.9/bld/ui/os2/c/uikeyb.c)
0002:00035d68  uicheckshift_
0002:00035dc0  flushkey_
0002:00035dd2* kbdspawnstart_
0002:00035e01  keyboardevent_
0002:00035f51  initkeyboard_
0002:00035f51* kbdspawnend_
0002:00035fd9  finikeyboard_
0003:00004aac+ _SaveStatus
Module: /mnt/sda5/.user/root/src/openwatcom-1.9/rel2/lib386/os2/clib3r.lib(mbisdbcs.c)
0003:00004ab8  ___IsDBCS
Module: /mnt/sda5/.user/root/src/openwatcom-1.9/rel2/lib386/os2/clib3r.lib(mbislead.c)
0002:00036020* _ismbblead_
0003:00004abc  ___MBCSIsTable
Module: /mnt/sda5/.user/root/src/openwatcom-1.9/rel2/lib386/os2/clib3r.lib(nonibm.c)
0002:00036040* __is_nonIBM_
0003:000020f4  ___NonIBM
Module: /mnt/sda5/.user/root/src/openwatcom-1.9/rel2/lib386/os2/clib3r.lib(setbits.c)
0002:00036060  __setbits_
Module: /mnt/sda5/.user/root/src/openwatcom-1.9/rel2/lib386/os2/clib3r.lib(bits.c)
0002:000360a0  __Bits
Module: /mnt/sda5/.user/root/src/openwatcom-1.9/rel2/lib386/os2/clib3r.lib(thunk)
0002:000360bc  __TNK
0002:000360a8* __TNC
Module: /mnt/sda5/.user/root/src/openwatcom-1.9/rel2/lib386/os2/clib3r.lib(far16fun)
0002:0003610c  __Far16Func2
0002:00036155* __Far16Func
0002:000361a3* __Far16Pascal2
0002:000361ea* __Far16Pascal
0002:00036236* __Far16Cdecl2
0002:00036284* __Far16Cdecl
0002:000362d7  __FlatToFar16
0002:000362e0  __Far16ToFlat
Module: /mnt/sda5/.user/root/src/openwatcom-1.9/bld/gui/ui/os2386/gui.lib(/mnt/sda5/.user/root/src/openwatcom-1.9/bld/gui/ui/c/guienum.c)
0002:000362f0  GUIEnumChildWindows_
Module: /mnt/sda5/.user/root/src/openwatcom-1.9/bld/gui/ui/os2386/gui.lib(/mnt/sda5/.user/root/src/openwatcom-1.9/bld/gui/c/guipick.c)
0002:00036320+ GUIPickEvent_
0002:000363c0+ GUIDlgPickWithRtn_
0002:00036440  GUIDlgPick_
Module: /mnt/sda5/.user/root/src/openwatcom-1.9/rel2/lib386/os2/clib3r.lib(ljmphdl.c)
0003:00002170  ___longjmp_handler
Module: /mnt/sda5/.user/root/src/openwatcom-1.9/bld/ui/os2/os2386/ui.lib(/mnt/sda5/.user/root/src/openwatcom-1.9/bld/ui/c/uivline.c)
0002:0003657e  uiveditevent_
0002:0003670a* uiveditline_
0002:00036730  uiveditinit_
0002:0003677c  uiveditfini_
0003:00002174  _LineEvents
Module: /mnt/sda5/.user/root/src/openwatcom-1.9/rel2/lib386/os2/clib3r.lib(dosret.c)
0002:00036780* _dosretax_
0002:00036790* _dosret0_
0002:000367a0  __set_errno_dos_
0002:000367d0* __set_errno_dos_reterr_
Module: /mnt/sda5/.user/root/src/openwatcom-1.9/rel2/lib386/os2/clib3r.lib(maino32.c)
0003:000022a4+ ___FirstThreadData
0003:000022a8  ___GetThreadPtr
0003:000022ac  __AccessFileH
0003:000022b0  __ReleaseFileH
0003:000022b4  __AccessIOB
0003:000022b8  __ReleaseIOB
0003:000022bc  __AccessNHeap
0003:000022c0* __AccessFHeap
0003:000022c4  __ReleaseNHeap
0003:000022c8* __ReleaseFHeap
0002:000367e2  __threadstack_
0002:000367e9* __threadid_
0002:000367f0  __OS2MainInit_
0002:0003685f+ __OS2Init_
0002:0003689d* __OS2Fini_
0002:000368a5* __shutdown_stack_checking_
0002:000368ba  __exit_
0003:000022cc* __AccessTDList
0003:000022d0* __ReleaseTDList
0003:000022d4+ ___sig_init_rtn
0003:000022d8* ___sig_fini_rtn
0003:000022dc  __threadstksize
0003:000022e0  ___process_fini
0003:00004bc0  ___Is_DLL
0003:00004bc4+ ___saved_CS
Module: /mnt/sda5/.user/root/src/openwatcom-1.9/rel2/lib386/os2/clib3r.lib(seterrno.c)
0002:000368fe  __set_errno_
0002:0003690c* __set_EDOM_
0002:0003691a  __set_ERANGE_
0002:00036928* __set_EINVAL_
0002:0003693b  __set_doserrno_
Module: /mnt/sda5/.user/root/src/openwatcom-1.9/rel2/lib386/os2/clib3r.lib(mbsnextc.c)
0002:00036950  _mbsnextc_
Module: /mnt/sda5/.user/root/src/openwatcom-1.9/rel2/lib386/os2/clib3r.lib(mbsinc.c)
0002:00036990  _mbsinc_
Module: /mnt/sda5/.user/root/src/openwatcom-1.9/rel2/lib386/os2/clib3r.lib(strdup.c)
0002:000369c0  __clib_strdup_
Module: /mnt/sda5/.user/root/src/openwatcom-1.9/rel2/lib386/os2/clib3r.lib(alphabet.c)
0003:00000028  ___Alphabet
Module: /mnt/sda5/.user/root/src/openwatcom-1.9/bld/ui/os2/os2386/ui.lib(/mnt/sda5/.user/root/src/openwatcom-1.9/bld/ui/c/uiband.c)
0002:00036a26  uibandinit_
0002:00036a7a  uibandmove_
0002:00036a9d  uibandfini_
Module: /mnt/sda5/.user/root/src/openwatcom-1.9/bld/sdk/rc/wres/flat386/mf_r/wres.lib(wriidfn.c)
0002:00036ac0  WResInitIDFromNum_
Module: /mnt/sda5/.user/root/src/openwatcom-1.9/bld/sdk/rc/wres/flat386/mf_r/wres.lib(wrfindrs.c)
0002:00036ad0  __FindType_
0002:00036af4  __FindRes_
0002:00036b18  __FindLang_
0002:00036b54  WResFindResource_
Module: /mnt/sda5/.user/root/src/openwatcom-1.9/bld/sdk/rc/wres/flat386/mf_r/wres.lib(wrgetli.c)
0002:00036be0  WResGetLangInfo_
0002:00036bf4* WResGetFileInfo_
Module: /mnt/sda5/.user/root/src/openwatcom-1.9/bld/sdk/rc/wres/flat386/mf_r/wres.lib(ropenfro.c)
0002:00036c10  ResOpenFileRO_
Module: /mnt/sda5/.user/root/src/openwatcom-1.9/bld/sdk/rc/wres/flat386/mf_r/wres.lib(wrinitdi.c)
0002:00036c60  WResInitDir_
Module: /mnt/sda5/.user/root/src/openwatcom-1.9/bld/sdk/rc/wres/flat386/mf_r/wres.lib(wrreaddi.c)
0002:000373d8  WResReadDir_
0002:000373e4+ WResReadDir2_
Module: /mnt/sda5/.user/root/src/openwatcom-1.9/bld/sdk/rc/wres/flat386/mf_r/wres.lib(wrfreedi.c)
0002:000374a0+ __FreeLangList_
0002:000374cc+ __FreeResList_
0002:00037504  __FreeTypeList_
0002:0003753c  WResFreeDir_
Module: /mnt/sda5/.user/root/src/openwatcom-1.9/bld/sdk/rc/wres/flat386/mf_r/wres.lib(rclosef.c)
0002:00037560  ResCloseFile_
Module: /mnt/sda5/.user/root/src/openwatcom-1.9/rel2/lib386/os2/clib3r.lib(initfile.c)
0002:000375b0  __InitFiles_
Module: /mnt/sda5/.user/root/src/openwatcom-1.9/rel2/lib386/os2/clib3r.lib(ioexit.c)
0002:000376b0* fcloseall_
0002:000376c0  __full_io_exit_
Module: /mnt/sda5/.user/root/src/openwatcom-1.9/bld/ui/os2/os2386/ui.lib(/mnt/sda5/.user/root/src/openwatcom-1.9/bld/ui/os2/c/uisnow.c)
0002:000376cc* vertretrace_
0002:000376cd  issnow_
Module: /mnt/sda5/.user/root/src/openwatcom-1.9/bld/ui/os2/os2386/ui.lib(/mnt/sda5/.user/root/src/openwatcom-1.9/bld/ui/c/uifar.c)
0002:000376de  _farfill
0002:000376fa  _farcopy
0002:00037716  _farstring
0002:0003775c  _farattrib
0002:00037778  _farattrflip
Module: /mnt/sda5/.user/root/src/openwatcom-1.9/bld/ui/os2/os2386/ui.lib(/mnt/sda5/.user/root/src/openwatcom-1.9/bld/ui/c/uimem.c)
0002:00037794  faralloc_
0002:00037799  farfree_
Module: /mnt/sda5/.user/root/src/openwatcom-1.9/rel2/lib386/os2/clib3r.lib(main2o32.c)
0002:000377a0  __OS2Main
Module: /mnt/sda5/.user/root/src/openwatcom-1.9/rel2/lib386/os2/clib3r.lib(segdefns)
0002:00000003  ___begtext
0003:00000000* __nullarea
0003:0000255c  __Start_XI
0003:000025a4  __End_XI
0003:000025a4  __Start_YI
0003:000025c2  __End_YI
Module: /mnt/sda5/.user/root/src/openwatcom-1.9/rel2/lib386/os2/clib3r.lib(initargv.c)
0002:00037810  __Init_Argv_
0002:00037860+ _getargv_
0002:00037a00  __Fini_Argv_
Module: /mnt/sda5/.user/root/src/openwatcom-1.9/rel2/lib386/os2/clib3r.lib(toupper.c)
0002:00037a10  toupper_
Module: /mnt/sda5/.user/root/src/openwatcom-1.9/bld/ui/os2/os2386/ui.lib(/mnt/sda5/.user/root/src/openwatcom-1.9/bld/ui/c/uibarf.c)
0002:00037a1e  uibarf_
Module: /mnt/sda5/.user/root/src/openwatcom-1.9/rel2/lib386/os2/clib3r.lib(filelen.c)
0002:00037a20  filelength_
Module: /mnt/sda5/.user/root/src/openwatcom-1.9/rel2/lib386/os2/clib3r.lib(mbsnccnt.c)
0002:00037a80  _mbsnccnt_
Module: /mnt/sda5/.user/root/src/openwatcom-1.9/rel2/lib386/os2/clib3r.lib(mbsncpy.c)
0002:00037ab0  _mbsncpy_
Module: /mnt/sda5/.user/root/src/openwatcom-1.9/rel2/lib386/os2/clib3r.lib(mbsnbcnt.c)
0002:00037ad0  _mbsnbcnt_
Module: /mnt/sda5/.user/root/src/openwatcom-1.9/bld/ui/os2/os2386/ui.lib(/mnt/sda5/.user/root/src/openwatcom-1.9/bld/ui/c/uibattr.c)
0002:00037b31  battribute_
0002:00037b7f  battrflip_
Module: /mnt/sda5/.user/root/src/openwatcom-1.9/bld/sdk/rc/wres/flat386/mf_r/wres.lib(wrerror.c)
0002:00037bd0  WresRecordError_
Module: /mnt/sda5/.user/root/src/openwatcom-1.9/bld/sdk/rc/wres/flat386/mf_r/wres.lib(write.c)
0002:00037c0c  ResWriteUint8_
0002:00037c3c  ResWriteUint16_
0002:00037c6c  ResWriteUint32_
0002:00037c9c+ WResWriteWResIDNameUni_
0002:00037d84* WResWriteWResIDName_
0002:00037d90* WResWriteWResID_
0002:00037dd8* WResWriteTypeRecord_
0002:00037e1c* WResWriteResRecord_
0002:00037e60* WResWriteLangRecord_
0002:00037e90* WResWriteHeaderRecord_
0002:00037f00* WResWriteExtHeader_
0002:00037f30+ ResWriteStringLen_
0002:00037fb4  ResWriteString_
0002:00037fe0+ ResWriteNameOrOrdinal_
0002:000380d4* MResWriteResourceHeader_
0002:00038208* WriteInitStatics_
0003:000022e4+ _ConvToUnicode
Module: /mnt/sda5/.user/root/src/openwatcom-1.9/bld/sdk/rc/wres/flat386/mf_r/wres.lib(resseek.c)
0002:00038220* ResSeek_
0002:00038240  ResPadDWord_
Module: /mnt/sda5/.user/root/src/openwatcom-1.9/bld/sdk/rc/wres/flat386/mf_r/wres.lib(rduint32.c)
0002:000382a0  ResReadUint32_
Module: /mnt/sda5/.user/root/src/openwatcom-1.9/bld/sdk/rc/wres/flat386/mf_r/wres.lib(rduint16.c)
0002:000382f0  ResReadUint16_
Module: /mnt/sda5/.user/root/src/openwatcom-1.9/bld/sdk/rc/wres/flat386/mf_r/wres.lib(rrdstr.c)
0002:00038340  ResReadString_
0002:000383b0  ResRead32String_
Module: /mnt/sda5/.user/root/src/openwatcom-1.9/rel2/lib386/os2/clib3r.lib(mbinit.c)
0002:0003845d  __mbinit_
0003:000022e8  ___MBCodePage
Module: /mnt/sda5/.user/root/src/openwatcom-1.9/rel2/lib386/os2/clib3r.lib(stk)
0002:00038569  __STK
0002:00038559  __CHK
0002:00038598  __GRO
0002:00038588  __STKOVERFLOW_
Module: /mnt/sda5/.user/root/src/openwatcom-1.9/rel2/lib386/os2/clib3r.lib(itsto32.c)
0002:000385c0  __init_threadstksize_
Module: /mnt/sda5/.user/root/src/openwatcom-1.9/bld/ui/os2/os2386/ui.lib(/mnt/sda5/.user/root/src/openwatcom-1.9/bld/ui/c/uipad.c)
0002:000385cb  uipadblanks_
Module: /mnt/sda5/.user/root/src/openwatcom-1.9/bld/ui/os2/os2386/ui.lib(/mnt/sda5/.user/root/src/openwatcom-1.9/bld/ui/c/uivedit.c)
0002:00038638+ secondbyte_
0002:00038653  uieditevent_
Module: /mnt/sda5/.user/root/src/openwatcom-1.9/rel2/lib386/os2/clib3r.lib(crwdata)
0003:00002340  __osmajor
0003:00002341  __osminor
0003:0000230c* __LpDllName
0003:00002310* __LpwCmdLine
0003:00002314* __LpwPgmName
0003:00002318* __LpwDllName
0003:00002304  __LpCmdLine
0003:00002308  __LpPgmName
0003:000022fc* __dynend
0003:00002300  __curbrk
0003:0000231c* __STACKLOW
0003:00002320* __STACKTOP
0003:00002324  __ASTACKSIZ
0003:00002328  __ASTACKPTR
0003:0000232c* __cbyte
0003:00002330* __cbyte2
0003:00002334* __child
0003:0000233a  __Envptr
0003:0000233e* __Envseg
0003:00002338  __no87
0003:00002342* ___FPE_handler
Module: /mnt/sda5/.user/root/src/openwatcom-1.9/rel2/lib386/os2/clib3r.lib(cinit.c)
0002:00038a10  __CommonInit_
0003:00004ef8  ___hmodule
Module: /mnt/sda5/.user/root/src/openwatcom-1.9/rel2/lib386/os2/clib3r.lib(initrtns.c)
0002:00038a30  __InitRtns
0002:00038a80  __FiniRtns
Module: /mnt/sda5/.user/root/src/openwatcom-1.9/bld/sdk/rc/wres/flat386/mf_r/wres.lib(wridcmp.c)
0002:00038ae0  WResIDCmp_
Module: /mnt/sda5/.user/root/src/openwatcom-1.9/rel2/lib386/os2/clib3r.lib(setmd.c)
0002:00038b20  setmode_
Module: /mnt/sda5/.user/root/src/openwatcom-1.9/bld/sdk/rc/wres/flat386/mf_r/wres.lib(ralliae.c)
0002:00038c00  ResAddLLItemAtEnd_
Module: /mnt/sda5/.user/root/src/openwatcom-1.9/bld/sdk/rc/wres/flat386/mf_r/wres.lib(wrrfrr.c)
0002:00038c30  WResReadFixedResRecord_
0002:00038c70  WResReadFixedResRecord1_
0002:00038cb0  WResReadFixedResRecord2_
Module: /mnt/sda5/.user/root/src/openwatcom-1.9/bld/sdk/rc/wres/flat386/mf_r/wres.lib(wridexby.c)
0002:00038d30  WResIDExtraBytes_
Module: /mnt/sda5/.user/root/src/openwatcom-1.9/bld/sdk/rc/wres/flat386/mf_r/wres.lib(wrrewrid.c)
0002:00038d40  WResReadExtraWResID_
Module: /mnt/sda5/.user/root/src/openwatcom-1.9/bld/sdk/rc/wres/flat386/mf_r/wres.lib(wrrftr.c)
0002:00038da0  WResReadFixedTypeRecord_
0002:00038de8  WResReadFixedTypeRecord2_
Module: /mnt/sda5/.user/root/src/openwatcom-1.9/bld/sdk/rc/wres/flat386/mf_r/wres.lib(wrrhr.c)
0002:00038e60  WResReadHeaderRecord_
0002:00038ed8  WResReadExtHeader_
Module: /mnt/sda5/.user/root/src/openwatcom-1.9/bld/sdk/rc/wres/flat386/mf_r/wres.lib(mrrdrh.c)
0002:00038f20  M32ResReadResourceHeader_
0002:0003908c  MResReadResourceHeader_
Module: /mnt/sda5/.user/root/src/openwatcom-1.9/bld/sdk/rc/wres/flat386/mf_r/wres.lib(wrfree.c)
0002:00039130  MResFreeResourceHeader_
Module: /mnt/sda5/.user/root/src/openwatcom-1.9/bld/sdk/rc/wres/flat386/mf_r/wres.lib(wridfnoo.c)
0002:00039170  WResIDFromNameOrOrd_
Module: /mnt/sda5/.user/root/src/openwatcom-1.9/bld/sdk/rc/wres/flat386/mf_r/wres.lib(wraddres.c)
0002:000392e0* WResAddResource_
0002:0003933c  WResAddResource2_
Module: /mnt/sda5/.user/root/src/openwatcom-1.9/bld/sdk/rc/wres/flat386/mf_r/wres.lib(wriswrf.c)
0002:00039460  WResFindResType_
0002:000394f8* WResIsWResFile_
Module: /mnt/sda5/.user/root/src/openwatcom-1.9/rel2/lib386/os2/clib3r.lib(nmalloc.c)
0002:00039510  _nmalloc_
0002:00039510  malloc_
0003:00002348  ___nheapbeg
0003:0000234c  ___MiniHeapRover
0003:00002350  ___LargestSizeB4MiniHeapRover
Module: /mnt/sda5/.user/root/src/openwatcom-1.9/rel2/lib386/os2/clib3r.lib(xmsgo32.c)
0002:00039610+ __exit_with_msg_
0002:00039660  __fatal_runtime_error_
Module: /mnt/sda5/.user/root/src/openwatcom-1.9/rel2/lib386/os2/clib3r.lib(fclose.c)
0002:00039680  __doclose_
0002:00039720  __shutdown_stream_
0002:00039740  fclose_
0003:00004efc+ ___RmTmpFileFn
Module: /mnt/sda5/.user/root/src/openwatcom-1.9/rel2/lib386/os2/clib3r.lib(freefp.c)
0002:00039790  __freefp_
0002:000397e0  __purgefp_
Module: /mnt/sda5/.user/root/src/openwatcom-1.9/rel2/lib386/os2/clib3r.lib(fmemmove.c)
0002:00039810  _fmemmove_
Module: /mnt/sda5/.user/root/src/openwatcom-1.9/bld/ui/os2/os2386/ui.lib(/mnt/sda5/.user/root/src/openwatcom-1.9/bld/ui/c/uifmem.c)
0002:000398a0  uifaralloc_
0002:000398a8  uifarfree_
Module: /mnt/sda5/.user/root/src/openwatcom-1.9/rel2/lib386/os2/clib3r.lib(mthrdini.c)
0002:000398b0  __InitThreadData_
0003:00002354  ___ThreadDataSize
Module: /mnt/sda5/.user/root/src/openwatcom-1.9/rel2/lib386/os2/clib3r.lib(cmain386.c)
0002:000398d0  __CMain
Module: /mnt/sda5/.user/root/src/openwatcom-1.9/rel2/lib386/os2/clib3r.lib(dosseg)
0000:00001234  __DOSseg__
Module: /mnt/sda5/.user/root/src/openwatcom-1.9/rel2/lib386/os2/clib3r.lib(histsplt.c)
0003:00004f00  ___historical_splitparms
Module: /mnt/sda5/.user/root/src/openwatcom-1.9/rel2/lib386/os2/clib3r.lib(___argc.c)
0003:00004f04  ____Argc
0003:00004f08  ____Argv
Module: /mnt/sda5/.user/root/src/openwatcom-1.9/rel2/lib386/os2/clib3r.lib(__lseek.c)
0002:00039910  __lseek_
Module: /mnt/sda5/.user/root/src/openwatcom-1.9/rel2/lib386/os2/clib3r.lib(mbterm.c)
0002:00039940  _mbterm_
Module: /mnt/sda5/.user/root/src/openwatcom-1.9/rel2/lib386/os2/clib3r.lib(mbclen.c)
0002:00039980  _mbclen_
Module: /mnt/sda5/.user/root/src/openwatcom-1.9/rel2/lib386/os2/clib3r.lib(mbsnbcpy.c)
0002:000399b0  _mbsnbcpy_
Module: /mnt/sda5/.user/root/src/openwatcom-1.9/bld/sdk/rc/wres/flat386/mf_r/wres.lib(varstr.c)
0002:00039a10  VarStringStart_
0002:00039a44  VarStringAddChar_
0002:00039a9c  VarStringEnd_
Module: /mnt/sda5/.user/root/src/openwatcom-1.9/bld/sdk/rc/wres/flat386/mf_r/wres.lib(rduint8.c)
0002:00039b30  ResReadUint8_
Module: /mnt/sda5/.user/root/src/openwatcom-1.9/rel2/lib386/os2/clib3r.lib(amblksiz.c)
0003:00002358  __amblksiz
Module: /mnt/sda5/.user/root/src/openwatcom-1.9/bld/sdk/rc/wres/flat386/mf_r/wres.lib(wridnacm.c)
0002:00039bc0  WResIDNameCmp_
Module: /mnt/sda5/.user/root/src/openwatcom-1.9/rel2/lib386/os2/clib3r.lib(iomode.c)
0002:00039c10  __GetIOMode_
0002:00039c30  __SetIOMode_nogrow_
0003:0000235c  ___NFiles
0003:00002360  ___init_mode
0003:000023b0  ___io_mode
Module: /mnt/sda5/.user/root/src/openwatcom-1.9/rel2/lib386/os2/clib3r.lib(stiomode.c)
0002:00039c50  __grow_iomode_
0002:00039d20+ __shrink_iomode_
0002:00039da0  __SetIOMode_
Module: /mnt/sda5/.user/root/src/openwatcom-1.9/bld/sdk/rc/wres/flat386/mf_r/wres.lib(rrnamoor.c)
0002:00039e10  ResReadNameOrOrdinal_
0002:00039ef8  ResRead32NameOrOrdinal_
Module: /mnt/sda5/.user/root/src/openwatcom-1.9/bld/sdk/rc/wres/flat386/mf_r/wres.lib(wridfrst.c)
0002:00039fe0  WResIDFromStr_
Module: /mnt/sda5/.user/root/src/openwatcom-1.9/bld/sdk/rc/wres/flat386/mf_r/wres.lib(wridfrnu.c)
0002:0003a050  WResIDFromNum_
Module: /mnt/sda5/.user/root/src/openwatcom-1.9/bld/sdk/rc/wres/flat386/mf_r/wres.lib(wrfirres.c)
0002:0003a0b0* WResFirstResource_
0002:0003a0dc  WResSetEmptyWindow_
0002:0003a0f8  WResMakeWindow_
Module: /mnt/sda5/.user/root/src/openwatcom-1.9/rel2/lib386/os2/clib3r.lib(nmemneed.c)
0002:0003a110  __nmemneed_
Module: /mnt/sda5/.user/root/src/openwatcom-1.9/rel2/lib386/os2/clib3r.lib(mem.c)
0002:0003a120  __MemAllocator
0002:0003a1d0  __MemFree
Module: /mnt/sda5/.user/root/src/openwatcom-1.9/rel2/lib386/os2/clib3r.lib(grownear.c)
0002:0003a470  __ExpandDGROUP_
Module: /mnt/sda5/.user/root/src/openwatcom-1.9/rel2/lib386/os2/clib3r.lib(enterdb.c)
0002:0003a490  __EnterWVIDEO_
0003:000023b4+ ___WD_Present
Module: /mnt/sda5/.user/root/src/openwatcom-1.9/rel2/lib386/os2/clib3r.lib(_clseos2.c)
0002:0003a4c0  __close_
Module: /mnt/sda5/.user/root/src/openwatcom-1.9/rel2/lib386/os2/clib3r.lib(flush.c)
0002:0003a500  __flush_
Module: /mnt/sda5/.user/root/src/openwatcom-1.9/rel2/lib386/os2/clib3r.lib(hdlman.c)
0002:0003a600* __set_handles_
0002:0003a610* _grow_handles_
0003:000023b8  ___NHandles
Module: /mnt/sda5/.user/root/src/openwatcom-1.9/rel2/lib386/os2/clib3r.lib(iomodtty.c)
0002:0003a670  __ChkTTYIOMode_
0002:0003a6b0* __IOMode_
Module: /mnt/sda5/.user/root/src/openwatcom-1.9/rel2/lib386/os2/clib3r.lib(heapen.c)
0002:0003a6d0* _heapenable_
0003:000023bc  ___heap_enabled
Module: /mnt/sda5/.user/root/src/openwatcom-1.9/rel2/lib386/os2/clib3r.lib(nfree.c)
0002:0003a700  _nfree_
0002:0003a700  free_
0003:00004f10  ___MiniHeapFreeRover
Module: /mnt/sda5/.user/root/src/openwatcom-1.9/rel2/lib386/os2/clib3r.lib(nheapmin.c)
0002:0003a810  _nheapshrink_
0002:0003a810* _nheapmin_
0002:0003a810* _heapmin_
0002:0003a810* _heapshrink_
Module: /mnt/sda5/.user/root/src/openwatcom-1.9/rel2/lib386/os2/clib3r.lib(fsync.c)
0002:0003a900  fsync_
Module: /mnt/sda5/.user/root/src/openwatcom-1.9/rel2/lib386/os2/clib3r.lib(qwrit.c)
0002:0003a930  __qwrite_
Module: /mnt/sda5/.user/root/src/openwatcom-1.9/rel2/lib386/os2/clib3r.lib(isattos2.c)
0002:0003a9d0  isatty_
Module: /mnt/sda5/.user/root/src/openwatcom-1.9/rel2/lib386/os2/clib3r.lib(lseek.c)
0002:0003aa00  lseek_
Module: /mnt/sda5/.user/root/src/openwatcom-1.9/rel2/lib386/os2/clib3r.lib(openos2.c)
0002:0003abf0  open_
0002:0003ac10  sopen_
Module: /mnt/sda5/.user/root/src/openwatcom-1.9/rel2/lib386/os2/clib3r.lib(close.c)
0002:0003ac40  close_
Module: /mnt/sda5/.user/root/src/openwatcom-1.9/rel2/lib386/os2/clib3r.lib(read.c)
0002:0003ac50  read_
Module: /mnt/sda5/.user/root/src/openwatcom-1.9/rel2/lib386/os2/clib3r.lib(nrealloc.c)
0002:0003adc0* _nrealloc_
0002:0003adc0  realloc_
Module: /mnt/sda5/.user/root/src/openwatcom-1.9/rel2/lib386/os2/clib3r.lib(write.c)
0002:0003af40  write_
Module: /mnt/sda5/.user/root/src/openwatcom-1.9/rel2/lib386/os2/clib3r.lib(remove.c)
0002:0003b170  remove_
Module: /mnt/sda5/.user/root/src/openwatcom-1.9/rel2/lib386/os2/clib3r.lib(fopen.c)
0002:0003b180+ __open_flags_
0002:0003b390+ _fsopen_
0002:0003b3e0  fopen_
0002:0003b470* freopen_
Module: /mnt/sda5/.user/root/src/openwatcom-1.9/rel2/lib386/os2/clib3r.lib(sprintf.c)
0002:0003b4e0  sprintf_
Module: /mnt/sda5/.user/root/src/openwatcom-1.9/rel2/lib386/os2/clib3r.lib(fltused.c)
0003:000023c0  _fltused_
Module: /mnt/sda5/.user/root/src/openwatcom-1.9/rel2/lib386/os2/clib3r.lib(_8087)
0003:000023c4  __8087
0003:000023c5  __real87
Module: /mnt/sda5/.user/root/src/openwatcom-1.9/rel2/lib386/os2/clib3r.lib(statos2.c)
0002:0003b570  stat_
Module: /mnt/sda5/.user/root/src/openwatcom-1.9/rel2/lib386/os2/clib3r.lib(split2.c)
0002:0003b840  _splitpath2_
Module: /mnt/sda5/.user/root/src/openwatcom-1.9/rel2/lib386/os2/clib3r.lib(memset.c)
0002:0003b990  memset_
Module: /mnt/sda5/.user/root/src/openwatcom-1.9/rel2/lib386/os2/clib3r.lib(exit.c)
0002:0003b9a8+ __null_int23_exit_
0002:0003b9a9  exit_
0002:0003b9f9* _exit_
0003:000023c8+ ___int23_exit
0003:000023cc+ ___FPE_handler_exit
Module: /mnt/sda5/.user/root/src/openwatcom-1.9/rel2/lib386/os2/clib3r.lib(fprintf.c)
0002:0003ba10  fprintf_
Module: /mnt/sda5/.user/root/src/openwatcom-1.9/rel2/lib386/os2/clib3r.lib(stack386.c)
0002:0003ba40  stackavail_
Module: /mnt/sda5/.user/root/src/openwatcom-1.9/rel2/lib386/os2/clib3r.lib(fstatos2.c)
0002:0003ba90  fstat_
Module: /mnt/sda5/.user/root/src/openwatcom-1.9/rel2/lib386/os2/clib3r.lib(qsort.c)
0002:0003bc60  qsort_
Module: /mnt/sda5/.user/root/src/openwatcom-1.9/rel2/lib386/os2/clib3r.lib(tell.c)
0002:0003c310  tell_
Module: /mnt/sda5/.user/root/src/openwatcom-1.9/rel2/lib386/os2/clib3r.lib(accssos2.c)
0002:0003c330  access_
Module: /mnt/sda5/.user/root/src/openwatcom-1.9/rel2/lib386/os2/clib3r.lib(searchen.c)
0002:0003c390  _searchenv_
Module: /mnt/sda5/.user/root/src/openwatcom-1.9/rel2/lib386/os2/clib3r.lib(makepath.c)
0002:0003c4e0  _makepath_
Module: /mnt/sda5/.user/root/src/openwatcom-1.9/rel2/lib386/os2/clib3r.lib(getenv.c)
0002:0003c690  getenv_
Module: /mnt/sda5/.user/root/src/openwatcom-1.9/rel2/lib386/os2/clib3r.lib(snprintf.c)
0002:0003c760+ vsnprintf_
0002:0003c7c0  snprintf_
Module: /mnt/sda5/.user/root/src/openwatcom-1.9/rel2/lib386/os2/clib3r.lib(stricmp.c)
0002:0003c7f0  stricmp_
Module: /mnt/sda5/.user/root/src/openwatcom-1.9/rel2/lib386/os2/clib3r.lib(gtcmd.c)
0002:0003c870+ _bgetcmd_
0002:0003c8e0  getcmd_
Module: /mnt/sda5/.user/root/src/openwatcom-1.9/rel2/lib386/os2/clib3r.lib(istable.c)
0002:0003c900  __IsTable
Module: /mnt/sda5/.user/root/src/openwatcom-1.9/rel2/lib386/os2/clib3r.lib(tolower.c)
0002:0003ca10  tolower_
Module: /mnt/sda5/.user/root/src/openwatcom-1.9/rel2/lib386/os2/clib3r.lib(memmove.c)
0002:0003ca20  memmove_
Module: /mnt/sda5/.user/root/src/openwatcom-1.9/rel2/lib386/os2/clib3r.lib(strncpy.c)
0002:0003ca80  strncpy_
Module: /mnt/sda5/.user/root/src/openwatcom-1.9/rel2/lib386/os2/clib3r.lib(hugeval.c)
0002:0003cac0  __HugeValue
Module: /mnt/sda5/.user/root/src/openwatcom-1.9/rel2/lib386/os2/clib3r.lib(cmdname.c)
0002:0003cad0  _cmdname_
Module: /mnt/sda5/.user/root/src/openwatcom-1.9/rel2/lib386/os2/clib3r.lib(umaskval.c)
0003:000023d0  ___umaskval
Module: /mnt/sda5/.user/root/src/openwatcom-1.9/rel2/lib386/os2/clib3r.lib(os2fil64.c)
0003:000023d4  ___os2_DosOpenL
0003:000023d8+ ___os2_DosSetFilePtrL
0003:000023dc+ ___os2_DosSetFileSizeL
0003:000023e0+ ___os2_DosSetFileLocksL
Module: /mnt/sda5/.user/root/src/openwatcom-1.9/rel2/lib386/os2/clib3r.lib(nmsize.c)
0002:0003cbf0  _nmsize_
0002:0003cbf0* _msize_
Module: /mnt/sda5/.user/root/src/openwatcom-1.9/rel2/lib386/os2/clib3r.lib(nexpand.c)
0002:0003cc00  _nexpand_
0002:0003cc00* _expand_
0002:0003cc40+ __HeapManager_expand_
Module: /mnt/sda5/.user/root/src/openwatcom-1.9/rel2/lib386/os2/clib3r.lib(unlnkos2.c)
0002:0003ce00  unlink_
Module: /mnt/sda5/.user/root/src/openwatcom-1.9/rel2/lib386/os2/clib3r.lib(comtflag.c)
0002:0003ce20* __set_commode_
0003:000023e4  __commode
Module: /mnt/sda5/.user/root/src/openwatcom-1.9/rel2/lib386/os2/clib3r.lib(fseek.c)
0002:0003ce80  fseek_
Module: /mnt/sda5/.user/root/src/openwatcom-1.9/rel2/lib386/os2/clib3r.lib(chktty.c)
0002:0003cf90  __chktty_
Module: /mnt/sda5/.user/root/src/openwatcom-1.9/rel2/lib386/os2/clib3r.lib(allocfp.c)
0002:0003cfd0  __allocfp_
Module: /mnt/sda5/.user/root/src/openwatcom-1.9/rel2/lib386/os2/clib3r.lib(vsprintf.c)
0002:0003d0c0  vsprintf_
Module: /mnt/sda5/.user/root/src/openwatcom-1.9/rel2/lib386/os2/clib3r.lib(setefg.c)
0002:0003d0e0  __setEFGfmt_
Module: /mnt/sda5/.user/root/src/openwatcom-1.9/rel2/lib386/os2/clib3r.lib(chk8087.c)
0002:0003d100* _fpreset_
0002:0003d120* __init_8087_
0002:0003d130  __chk8087_
Module: /mnt/sda5/.user/root/src/openwatcom-1.9/rel2/lib386/os2/clib3r.lib(mbschr.c)
0002:0003d180  _mbschr_
Module: /mnt/sda5/.user/root/src/openwatcom-1.9/rel2/lib386/os2/clib3r.lib(mbscmp.c)
0002:0003d1e0  _mbscmp_
Module: /mnt/sda5/.user/root/src/openwatcom-1.9/rel2/lib386/os2/clib3r.lib(mbspbrk.c)
0002:0003d250  _mbspbrk_
Module: /mnt/sda5/.user/root/src/openwatcom-1.9/rel2/lib386/os2/clib3r.lib(fullpath.c)
0002:0003d2a0+ _sys_fullpath_
0002:0003d3e0  _fullpath_
Module: /mnt/sda5/.user/root/src/openwatcom-1.9/rel2/lib386/os2/clib3r.lib(errno.c)
0002:0003d460  __get_errno_ptr_
0002:0003d470* __get_doserrno_ptr_
Module: /mnt/sda5/.user/root/src/openwatcom-1.9/rel2/lib386/os2/clib3r.lib(d2ttime.c)
0002:0003d480  _d2ttime_
Module: /mnt/sda5/.user/root/src/openwatcom-1.9/rel2/lib386/os2/clib3r.lib(__stos)
0002:0003d500  __STOSB
0002:0003d537* __STOSD
Module: /mnt/sda5/.user/root/src/openwatcom-1.9/rel2/lib386/os2/clib3r.lib(fprtf.c)
0002:0003d5d0  __fprtf_
Module: /mnt/sda5/.user/root/src/openwatcom-1.9/rel2/lib386/os2/clib3r.lib(strlen.c)
0002:0003d690  strlen_
Module: /mnt/sda5/.user/root/src/openwatcom-1.9/rel2/lib386/os2/clib3r.lib(strcat.c)
0002:0003d6b0  strcat_
Module: /mnt/sda5/.user/root/src/openwatcom-1.9/rel2/lib386/os2/clib3r.lib(mbconv.c)
0002:0003d6e0  _mbvtop_
Module: /mnt/sda5/.user/root/src/openwatcom-1.9/rel2/lib386/os2/clib3r.lib(mbsdec.c)
0002:0003d700  _mbsdec_
Module: /mnt/sda5/.user/root/src/openwatcom-1.9/rel2/lib386/os2/clib3r.lib(environ.c)
0003:00004f14  ___env_mask
0003:00004f18  _environ
0003:00004f1c* __wenviron
Module: /mnt/sda5/.user/root/src/openwatcom-1.9/rel2/lib386/os2/clib3r.lib(mbcupper.c)
0002:0003d780  _mbctoupper_
Module: /mnt/sda5/.user/root/src/openwatcom-1.9/rel2/lib386/os2/clib3r.lib(prtf.c)
0002:0003d7a0  __prtf_
Module: /mnt/sda5/.user/root/src/openwatcom-1.9/rel2/lib386/os2/clib3r.lib(noefgfmt.c)
0003:000023e8  ___EFG_printf
0003:000023ec  ___EFG_scanf
Module: /mnt/sda5/.user/root/src/openwatcom-1.9/rel2/lib386/math387r.lib(efgfmt.c)
0002:0003e4b2  _EFG_Format_
Module: /mnt/sda5/.user/root/src/openwatcom-1.9/rel2/lib386/math387r.lib(cnvs2d.c)
0002:0003e61c  __cnvs2d_
Module: /mnt/sda5/.user/root/src/openwatcom-1.9/rel2/lib386/os2/clib3r.lib(8087cw.c)
0003:000023f0  __8087cw
Module: /mnt/sda5/.user/root/src/openwatcom-1.9/rel2/lib386/os2/clib3r.lib(init8087)
0002:0003e630  __x87id
Module: /mnt/sda5/.user/root/src/openwatcom-1.9/rel2/lib386/os2/clib3r.lib(mbccmp.c)
0002:0003e670  _mbccmp_
Module: /mnt/sda5/.user/root/src/openwatcom-1.9/rel2/lib386/os2/clib3r.lib(mktime.c)
0002:0003e6b0  mktime_
Module: /mnt/sda5/.user/root/src/openwatcom-1.9/rel2/lib386/os2/clib3r.lib(fputc.c)
0002:0003e740  fputc_
Module: /mnt/sda5/.user/root/src/openwatcom-1.9/rel2/lib386/os2/clib3r.lib(ioalloc.c)
0002:0003e820  __ioalloc_
Module: /mnt/sda5/.user/root/src/openwatcom-1.9/rel2/lib386/os2/clib3r.lib(setenvp.c)
0002:0003e8c0  __setenvp_
0002:0003e980  __freeenvp_
Module: /mnt/sda5/.user/root/src/openwatcom-1.9/rel2/lib386/os2/clib3r.lib(mbdtoupp.c)
0002:0003e9d0  _mbdtoupper_
Module: /mnt/sda5/.user/root/src/openwatcom-1.9/rel2/lib386/os2/clib3r.lib(wctomb.c)
0002:0003e9f0  wctomb_
Module: /mnt/sda5/.user/root/src/openwatcom-1.9/rel2/lib386/os2/clib3r.lib(strupr.c)
0002:0003ea20  strupr_
Module: /mnt/sda5/.user/root/src/openwatcom-1.9/rel2/lib386/os2/clib3r.lib(lltoa.c)
0002:0003ea40  ulltoa_
0002:0003eab0* lltoa_
Module: /mnt/sda5/.user/root/src/openwatcom-1.9/rel2/lib386/os2/clib3r.lib(ltoa.c)
0002:0003eae0  ultoa_
0002:0003eb30* ltoa_
Module: /mnt/sda5/.user/root/src/openwatcom-1.9/rel2/lib386/os2/clib3r.lib(rtcntrl.c)
0002:0003eb60* _SetLD64bit_
0002:0003eb70* _SetLD80bit_
0002:0003eb80  _LDisDouble_
Module: /mnt/sda5/.user/root/src/openwatcom-1.9/rel2/lib386/os2/clib3r.lib(locmktim.c)
0002:0003eb90  __local_mktime_
Module: /mnt/sda5/.user/root/src/openwatcom-1.9/rel2/lib386/os2/clib3r.lib(gmtime.c)
0002:0003ed10  __brktime_
0002:0003ee10+ _gmtime_
0002:0003ee30* gmtime_
Module: /mnt/sda5/.user/root/src/openwatcom-1.9/rel2/lib386/os2/clib3r.lib(tzset.c)
0003:000023f8  ___start_dst
0003:0000241c  ___end_dst
0003:00002544* _tzname
0003:0000254c  _timezone
0003:00002550  _daylight
0003:00002554  ___dst_adjust
0002:0003eea0* __DontCacheOSTZ_
0002:0003eeb0* __CacheOSTZ_
0002:0003f390+ __parse_tz_
0002:0003f5c0  tzset_
Module: /mnt/sda5/.user/root/src/openwatcom-1.9/rel2/lib386/os2/clib3r.lib(timeutil.c)
0002:0003f730  __isindst_
Module: /mnt/sda5/.user/root/src/openwatcom-1.9/rel2/lib386/os2/clib3r.lib(clearenv.c)
0002:0003fa60  clearenv_
Module: /mnt/sda5/.user/root/src/openwatcom-1.9/rel2/lib386/os2/clib3r.lib(leapyear.c)
0002:0003faf0  __leapyear_
0003:00000050  ___diyr
0003:0000006a  ___dilyr


                        +----------------------+
                        |   Imported Symbols   |
                        +----------------------+

Symbol                              Module
======                              ======

DosBeep                             DOSCALLS
DosLoadModule                       DOSCALLS
DosQueryProcAddr                    DOSCALLS
DosFreeModule                       DOSCALLS
DosQueryCurrentDisk                 DOSCALLS
DosError                            DOSCALLS
VIO16GETMODE                        VIOCALLS
VIO16GETCONFIG                      VIOCALLS
VIO16GETBUF                         VIOCALLS
VIO16SHOWBUF                        VIOCALLS
DosQuerySysInfo                     DOSCALLS
DosSleep                            DOSCALLS
DosUnwindException                  DOSCALLS
DosSetDefaultDisk                   DOSCALLS
DosSetCurrentDir                    DOSCALLS
DosQueryCurrentDir                  DOSCALLS
DosFindClose                        DOSCALLS
DosFindFirst                        DOSCALLS
DosFindNext                         DOSCALLS
MOU16GETNUMQUEEL                    MOUCALLS
MOU16READEVENTQUE                   MOUCALLS
MOU16OPEN                           MOUCALLS
MOU16GETNUMBUTTONS                  MOUCALLS
MOU16SETEVENTMASK                   MOUCALLS
DosGetInfoBlocks                    DOSCALLS
MOU16CLOSE                          MOUCALLS
VIO16GETCURTYPE                     VIOCALLS
VIO16SETCURTYPE                     VIOCALLS
VIO16SETCURPOS                      VIOCALLS
VIO16GETCURPOS                      VIOCALLS
VIO16READCELLSTR                    VIOCALLS
VIO16WRTNCELL                       VIOCALLS
KBD16CHARIN                         KBDCALLS
KBD16SETSTATUS                      KBDCALLS
KBD16GETSTATUS                      KBDCALLS
DosFlatToSel                        DOSCALLS
DosSelToFlat                        DOSCALLS
DosExit                             DOSCALLS
DosQueryDBCSEnv                     NLS
DosQueryCp                          DOSCALLS
DosWrite                            DOSCALLS
DosSetFilePtr                       DOSCALLS
DosSetRelMaxFH                      DOSCALLS
DosAllocMem                         DOSCALLS
DosClose                            DOSCALLS
DosFreeMem                          DOSCALLS
DosResetBuffer                      DOSCALLS
DosQueryHType                       DOSCALLS
DosOpen                             DOSCALLS
DosRead                             DOSCALLS
DosQueryFileInfo                    DOSCALLS
DosQueryPathInfo                    DOSCALLS
DosQueryModuleHandle                DOSCALLS
DosDelete                           DOSCALLS
DosDevConfig                        DOSCALLS


                        +--------------------+
                        |   Libraries Used   |
                        +--------------------+

/mnt/sda5/.user/root/src/openwatcom-1.9/bld/aui/os2386/aui.lib
/mnt/sda5/.user/root/src/openwatcom-1.9/bld/gui/ui/os2386/gui.lib
/mnt/sda5/.user/root/src/openwatcom-1.9/bld/ui/os2/os2386/ui.lib
/mnt/sda5/.user/root/src/openwatcom-1.9/rel2/lib386/os2/os2386.lib
/mnt/sda5/.user/root/src/openwatcom-1.9/bld/sdk/rc/wres/flat386/mf_r/wres.lib
/mnt/sda5/.user/root/src/openwatcom-1.9/rel2/lib386/math387r.lib
/mnt/sda5/.user/root/src/openwatcom-1.9/rel2/lib386/os2/emu387.lib
/mnt/sda5/.user/root/src/openwatcom-1.9/rel2/lib386/os2/clib3r.lib


                        +-----------------------+
                        |   Linker Statistics   |
                        +-----------------------+

Stack size:  8000 (32768.)
Memory size:  0004caba (314042.)
Entry point address: 0002:00032ea0
Link time: 00:00.00
