Open Watcom Linker Version 1.9
Portions Copyright (c) 1985-2002 Sybase, Inc. All Rights Reserved.
Created on:       12/12/16 02:29:02
Executable Image: epmlink.dll
creating an OS/2 32-bit dynamic link library


                        +------------+
                        |   Groups   |
                        +------------+

Group                           Address              Size
=====                           =======              ====

DGROUP                          0002:00000000        00000ba0



                        +--------------+
                        |   Segments   |
                        +--------------+

Segment                Class          Group          Address         Size
=======                =====          =====          =======         ====

BEGTEXT                CODE           AUTO           0001:00000000   00000007
_TEXT                  CODE           AUTO           0001:00000010   00004183
_NULL                  BEGDATA        DGROUP         0002:00000000   00000004
_AFTERNULL             BEGDATA        DGROUP         0002:00000004   00000000
CONST                  DATA           DGROUP         0002:00000004   00000000
CONST2                 DATA           DGROUP         0002:00000004   00000000
_DATA                  DATA           DGROUP         0002:00000004   0000020c
TIB                    DATA           DGROUP         0002:00000210   00000000
TI                     DATA           DGROUP         0002:00000210   00000000
TIE                    DATA           DGROUP         0002:00000210   00000000
XIB                    DATA           DGROUP         0002:00000210   00000000
XI                     DATA           DGROUP         0002:00000210   00000018
XIE                    DATA           DGROUP         0002:00000228   00000000
YIB                    DATA           DGROUP         0002:00000228   00000000
YI                     DATA           DGROUP         0002:00000228   0000000c
YIE                    DATA           DGROUP         0002:00000234   00000000
DATA                   DATA           DGROUP         0002:00000234   00000000
_BSS                   BSS            DGROUP         0002:00000234   00000961
STACK                  STACK          DGROUP         0002:00000ba0   00000000


                        +----------------+
                        |   Memory Map   |
                        +----------------+

* = unreferenced symbol
+ = symbol only referenced locally

Address        Symbol
=======        ======

Module: epmlink.obj(/mnt/sda5/.user/root/src/openwatcom-1.9/bld/editdll/epm/epmlink.c)
0001:00000630+ clientProc
0001:00000750+ EDITConnect
0001:000007b0+ EDITFile
0001:00000850+ EDITLocateError
0001:000008c0+ EDITLocate
0001:000008e0+ EDITShowWindow
0001:000008f0+ EDITDisconnect
0001:00000950* LibMain_
Module: /mnt/sda5/.user/root/src/openwatcom-1.9/rel2/lib386/os2/clib3r.lib(nmalloc.c)
0001:00000990  _nmalloc_
0001:00000990  malloc_
0002:0000001c  ___nheapbeg
0002:00000020  ___MiniHeapRover
0002:00000024  ___LargestSizeB4MiniHeapRover
Module: /mnt/sda5/.user/root/src/openwatcom-1.9/rel2/lib386/os2/clib3r.lib(_strcmp)
0001:00000a90  strcmp_
Module: /mnt/sda5/.user/root/src/openwatcom-1.9/rel2/lib386/os2/clib3r.lib(nfree.c)
0001:00000bd0  _nfree_
0001:00000bd0  free_
0002:0000024c  ___MiniHeapFreeRover
Module: /mnt/sda5/.user/root/src/openwatcom-1.9/rel2/lib386/os2/clib3r.lib(stricmp.c)
0001:00000ce0  stricmp_
Module: /mnt/sda5/.user/root/src/openwatcom-1.9/rel2/lib386/os2/clib3r.lib(splp.c)
0001:00000d20  spawnlp_
Module: /mnt/sda5/.user/root/src/openwatcom-1.9/rel2/lib386/os2/clib3r.lib(dstrt386)
0001:00000d36  __DLLstart_
0001:00000d36* __DLLstartw_
Module: /mnt/sda5/.user/root/src/openwatcom-1.9/rel2/lib386/os2/clib3r.lib(maino32.c)
0002:00000028  ___FirstThreadData
0002:0000002c  ___GetThreadPtr
0002:00000030  __AccessFileH
0002:00000034  __ReleaseFileH
0002:00000038  __AccessIOB
0002:0000003c  __ReleaseIOB
0002:00000040  __AccessNHeap
0002:00000044  __AccessFHeap
0002:00000048  __ReleaseNHeap
0002:0000004c  __ReleaseFHeap
0001:00000d98  __threadstack_
0001:00000d9f  __threadid_
0001:00000da6* __OS2MainInit_
0001:00000e15  __OS2Init_
0001:00000e53  __OS2Fini_
0001:00000e5b  __shutdown_stack_checking_
0001:00000e70  __exit_
0002:00000050  __AccessTDList
0002:00000054  __ReleaseTDList
0002:00000058  ___sig_init_rtn
0002:0000005c  ___sig_fini_rtn
0002:00000060  __threadstksize
0002:00000064  ___process_fini
0002:00000250  ___Is_DLL
0002:00000254+ ___saved_CS
Module: /mnt/sda5/.user/root/src/openwatcom-1.9/rel2/lib386/os2/clib3r.lib(nmemneed.c)
0001:00000ec0  __nmemneed_
Module: /mnt/sda5/.user/root/src/openwatcom-1.9/rel2/lib386/os2/clib3r.lib(mem.c)
0001:00000ed0  __MemAllocator
0001:00000f80  __MemFree
Module: /mnt/sda5/.user/root/src/openwatcom-1.9/rel2/lib386/os2/clib3r.lib(grownear.c)
0001:00001220  __ExpandDGROUP_
Module: /mnt/sda5/.user/root/src/openwatcom-1.9/rel2/lib386/os2/clib3r.lib(spvp.c)
0001:00001240  spawnvp_
Module: /mnt/sda5/.user/root/src/openwatcom-1.9/rel2/lib386/os2/clib3r.lib(dmaino32.c)
0001:0000124e  __LibMain
Module: /mnt/sda5/.user/root/src/openwatcom-1.9/rel2/lib386/os2/clib3r.lib(segdefns)
0001:00000003  ___begtext
0002:00000000* __nullarea
0002:00000210  __Start_XI
0002:00000228  __End_XI
0002:00000228  __Start_YI
0002:00000234  __End_YI
Module: /mnt/sda5/.user/root/src/openwatcom-1.9/rel2/lib386/os2/clib3r.lib(crwdata)
0002:000000ac  __osmajor
0002:000000ad  __osminor
0002:00000078  __LpDllName
0002:0000007c  __LpwCmdLine
0002:00000080  __LpwPgmName
0002:00000084  __LpwDllName
0002:00000070  __LpCmdLine
0002:00000074  __LpPgmName
0002:00000068* __dynend
0002:0000006c  __curbrk
0002:00000088* __STACKLOW
0002:0000008c* __STACKTOP
0002:00000090  __ASTACKSIZ
0002:00000094  __ASTACKPTR
0002:00000098* __cbyte
0002:0000009c* __cbyte2
0002:000000a0* __child
0002:000000a6  __Envptr
0002:000000aa* __Envseg
0002:000000a4  __no87
0002:000000ae* ___FPE_handler
Module: /mnt/sda5/.user/root/src/openwatcom-1.9/rel2/lib386/os2/clib3r.lib(cinit.c)
0001:00001470  __CommonInit_
0002:00000668  ___hmodule
Module: /mnt/sda5/.user/root/src/openwatcom-1.9/rel2/lib386/os2/clib3r.lib(initrtns.c)
0001:00001490  __InitRtns
0001:000014e0  __FiniRtns
Module: /mnt/sda5/.user/root/src/openwatcom-1.9/rel2/lib386/os2/clib3r.lib(amblksiz.c)
0002:000000b4  __amblksiz
Module: /mnt/sda5/.user/root/src/openwatcom-1.9/rel2/lib386/os2/clib3r.lib(heapen.c)
0001:00001540* _heapenable_
0002:000000b8  ___heap_enabled
Module: /mnt/sda5/.user/root/src/openwatcom-1.9/rel2/lib386/os2/clib3r.lib(nheapmin.c)
0001:00001570  _nheapshrink_
0001:00001570* _nheapmin_
0001:00001570* _heapmin_
0001:00001570  _heapshrink_
Module: /mnt/sda5/.user/root/src/openwatcom-1.9/rel2/lib386/os2/clib3r.lib(environ.c)
0002:0000066c  ___env_mask
0002:00000670  _environ
0002:00000674* __wenviron
Module: /mnt/sda5/.user/root/src/openwatcom-1.9/rel2/lib386/os2/clib3r.lib(spvpe.c)
0001:00001665  spawnvpe_
Module: /mnt/sda5/.user/root/src/openwatcom-1.9/rel2/lib386/os2/clib3r.lib(lmaino32.c)
0001:000017c0  LibMain
Module: /mnt/sda5/.user/root/src/openwatcom-1.9/rel2/lib386/os2/clib3r.lib(mthread.c)
0001:00001820+ __CloseSemaphore_
0001:00001890+ __AccessIOB_
0001:000018a0+ __ReleaseIOB_
0001:000018b0+ __AccessFileH_
0001:000018c0+ __ReleaseFileH_
0001:000018d0+ __AccessNHeap_
0001:000018e0+ __ReleaseNHeap_
0001:000018f0+ __AccessFHeap_
0001:00001900+ __ReleaseFHeap_
0001:00001910+ __AccessTDList_
0001:00001920+ __AccessSemaphore_
0001:00001980+ __ReleaseTDList_
0001:00001990+ __ReleaseSemaphore_
0001:000019c0+ __MultipleThread_
0001:00001a00  __AllocInitThreadData_
0001:00001a50  __FreeInitThreadData_
0001:00001a60  __OS2AddThread_
0001:00001ad0  __OS2RemoveThread_
0001:00001b20  __InitMultipleThread_
0002:000000bc+ ___AccessSema4
0002:000000c0+ ___ReleaseSema4
0002:000000c4+ ___CloseSema4
Module: /mnt/sda5/.user/root/src/openwatcom-1.9/rel2/lib386/os2/clib3r.lib(ddgrpo32.c)
0001:00001d80  __disallow_single_dgroup_
Module: /mnt/sda5/.user/root/src/openwatcom-1.9/rel2/lib386/os2/clib3r.lib(atouni.c)
0001:00001fd0  _atouni_
Module: /mnt/sda5/.user/root/src/openwatcom-1.9/rel2/lib386/os2/clib3r.lib(trdalloc.c)
0001:00002010  __InitThreadProcessing_
0001:00002030  __FiniThreadProcessing_
0002:00000a84  ___ThreadData
Module: /mnt/sda5/.user/root/src/openwatcom-1.9/rel2/lib386/os2/clib3r.lib(maxthrds.c)
0002:000000c8  ___MaxThreads
Module: /mnt/sda5/.user/root/src/openwatcom-1.9/rel2/lib386/os2/clib3r.lib(dosseg)
0000:00001234  __DOSseg__
Module: /mnt/sda5/.user/root/src/openwatcom-1.9/rel2/lib386/os2/clib3r.lib(setenvp.c)
0001:00002090  __setenvp_
0001:00002150  __freeenvp_
Module: /mnt/sda5/.user/root/src/openwatcom-1.9/rel2/lib386/os2/clib3r.lib(stk)
0001:000021b1* __STK
0001:000021a1  __CHK
0001:000021e0  __GRO
0001:000021d0* __STKOVERFLOW_
Module: /mnt/sda5/.user/root/src/openwatcom-1.9/rel2/lib386/os2/clib3r.lib(spve.c)
0001:00002250  spawnve_
Module: /mnt/sda5/.user/root/src/openwatcom-1.9/rel2/lib386/os2/clib3r.lib(getenv.c)
0001:000025e0  getenv_
Module: /mnt/sda5/.user/root/src/openwatcom-1.9/rel2/lib386/os2/clib3r.lib(strlen.c)
0001:00002670  strlen_
Module: /mnt/sda5/.user/root/src/openwatcom-1.9/rel2/lib386/os2/clib3r.lib(strchr.c)
0001:00002690  strchr_
Module: /mnt/sda5/.user/root/src/openwatcom-1.9/rel2/lib386/os2/clib3r.lib(seterrno.c)
0001:000026a9  __set_errno_
0001:000026b7* __set_EDOM_
0001:000026c5* __set_ERANGE_
0001:000026d3* __set_EINVAL_
0001:000026e6  __set_doserrno_
Module: /mnt/sda5/.user/root/src/openwatcom-1.9/rel2/lib386/os2/clib3r.lib(memcpy.c)
0001:00002700  memcpy_
Module: /mnt/sda5/.user/root/src/openwatcom-1.9/rel2/lib386/os2/clib3r.lib(dllmno32.c)
0001:00002720  DllMain
Module: /mnt/sda5/.user/root/src/openwatcom-1.9/rel2/lib386/os2/clib3r.lib(xmsgo32.c)
0001:00002730+ __exit_with_msg_
0001:00002780  __fatal_runtime_error_
Module: /mnt/sda5/.user/root/src/openwatcom-1.9/rel2/lib386/os2/clib3r.lib(trdlist.c)
0001:000027f0  __GetThreadData_
0001:00002900  __ReallocThreadData_
0001:00002a70  __AddThreadData_
0001:00002af0  __RemoveThreadData_
0001:00002b50* __ResizeThreadDataList_
0001:00002ba0  __FreeThreadDataList_
0001:00002bd0* __ActiveThreads_
Module: /mnt/sda5/.user/root/src/openwatcom-1.9/rel2/lib386/os2/clib3r.lib(mthrdini.c)
0001:00002bf0  __InitThreadData_
0002:000000e0  ___ThreadDataSize
Module: /mnt/sda5/.user/root/src/openwatcom-1.9/rel2/lib386/os2/clib3r.lib(calloc.c)
0001:00002c10  calloc_
Module: /mnt/sda5/.user/root/src/openwatcom-1.9/rel2/lib386/os2/clib3r.lib(register.c)
0001:00002c40  __initthread_
0001:00002c50* _beginthread_
0001:00002c60  _endthread_
0001:00002c70* __RegisterThreadData_
Module: /mnt/sda5/.user/root/src/openwatcom-1.9/rel2/lib386/os2/clib3r.lib(thrdmax.c)
0001:00002cc0  __GETMAXTHREADS
Module: /mnt/sda5/.user/root/src/openwatcom-1.9/rel2/lib386/os2/clib3r.lib(clearenv.c)
0001:00002cd0  clearenv_
Module: /mnt/sda5/.user/root/src/openwatcom-1.9/rel2/lib386/os2/clib3r.lib(accssos2.c)
0001:00002d60  access_
Module: /mnt/sda5/.user/root/src/openwatcom-1.9/rel2/lib386/os2/clib3r.lib(cenvarg.c)
0001:00002dc1  __cenvarg_
0001:00002ed5  __ccmdline_
Module: /mnt/sda5/.user/root/src/openwatcom-1.9/rel2/lib386/os2/clib3r.lib(exveos2.c)
0001:00002f11  execve_
0002:000000f0* ___p_overlay
Module: /mnt/sda5/.user/root/src/openwatcom-1.9/rel2/lib386/os2/clib3r.lib(stack386.c)
0001:00002f50  stackavail_
Module: /mnt/sda5/.user/root/src/openwatcom-1.9/rel2/lib386/os2/clib3r.lib(split2.c)
0001:00002fc0  _splitpath2_
Module: /mnt/sda5/.user/root/src/openwatcom-1.9/rel2/lib386/os2/clib3r.lib(makepath.c)
0001:00003130  _makepath_
Module: /mnt/sda5/.user/root/src/openwatcom-1.9/rel2/lib386/os2/clib3r.lib(_slashc.c)
0001:000032e0  __Slash_C_
Module: /mnt/sda5/.user/root/src/openwatcom-1.9/rel2/lib386/os2/clib3r.lib(spl.c)
0001:000032f0  spawnl_
Module: /mnt/sda5/.user/root/src/openwatcom-1.9/rel2/lib386/os2/clib3r.lib(dospnos2.c)
0001:000033d0  _dospawn_
Module: /mnt/sda5/.user/root/src/openwatcom-1.9/rel2/lib386/os2/clib3r.lib(strcpy.c)
0001:00003690  strcpy_
Module: /mnt/sda5/.user/root/src/openwatcom-1.9/rel2/lib386/os2/clib3r.lib(mbterm.c)
0001:000036c0  _mbterm_
Module: /mnt/sda5/.user/root/src/openwatcom-1.9/rel2/lib386/os2/clib3r.lib(mbsnextc.c)
0001:00003700  _mbsnextc_
Module: /mnt/sda5/.user/root/src/openwatcom-1.9/rel2/lib386/os2/clib3r.lib(mbcupper.c)
0001:00003740  _mbctoupper_
Module: /mnt/sda5/.user/root/src/openwatcom-1.9/rel2/lib386/os2/clib3r.lib(mbsinc.c)
0001:00003760  _mbsinc_
Module: /mnt/sda5/.user/root/src/openwatcom-1.9/rel2/lib386/os2/clib3r.lib(libmno32.c)
0001:00003790  __dll_initialize_
Module: /mnt/sda5/.user/root/src/openwatcom-1.9/rel2/lib386/os2/clib3r.lib(libterm.c)
0001:000037a0  __dll_terminate_
Module: /mnt/sda5/.user/root/src/openwatcom-1.9/rel2/lib386/os2/clib3r.lib(enterdb.c)
0001:000037b0  __EnterWVIDEO_
0002:000000f4+ ___WD_Present
Module: /mnt/sda5/.user/root/src/openwatcom-1.9/rel2/lib386/os2/clib3r.lib(nrealloc.c)
0001:000037e0* _nrealloc_
0001:000037e0  realloc_
Module: /mnt/sda5/.user/root/src/openwatcom-1.9/rel2/lib386/os2/clib3r.lib(memset.c)
0001:00003860  memset_
Module: /mnt/sda5/.user/root/src/openwatcom-1.9/rel2/lib386/os2/clib3r.lib(thredo32.c)
0001:00003920  __CBeginThread_
0001:000039c0  __CEndThread_
Module: /mnt/sda5/.user/root/src/openwatcom-1.9/rel2/lib386/os2/clib3r.lib(dosret.c)
0001:000039e0* _dosretax_
0001:000039f0* _dosret0_
0001:00003a00  __set_errno_dos_
0001:00003a30* __set_errno_dos_reterr_
Module: /mnt/sda5/.user/root/src/openwatcom-1.9/rel2/lib386/os2/clib3r.lib(exit.c)
0001:00003a3c+ __null_int23_exit_
0001:00003a3d* exit_
0001:00003a8d* _exit_
0002:000001fc  ___int23_exit
0002:00000200+ ___FPE_handler_exit
Module: /mnt/sda5/.user/root/src/openwatcom-1.9/rel2/lib386/os2/clib3r.lib(mbsnccnt.c)
0001:00003ab0  _mbsnccnt_
Module: /mnt/sda5/.user/root/src/openwatcom-1.9/rel2/lib386/os2/clib3r.lib(mbsncpy.c)
0001:00003ae0  _mbsncpy_
Module: /mnt/sda5/.user/root/src/openwatcom-1.9/rel2/lib386/os2/clib3r.lib(mbsnbcnt.c)
0001:00003b00  _mbsnbcnt_
Module: /mnt/sda5/.user/root/src/openwatcom-1.9/rel2/lib386/os2/clib3r.lib(mbconv.c)
0001:00003b70  _mbvtop_
Module: /mnt/sda5/.user/root/src/openwatcom-1.9/rel2/lib386/os2/clib3r.lib(mbclen.c)
0001:00003b90  _mbclen_
Module: /mnt/sda5/.user/root/src/openwatcom-1.9/rel2/lib386/os2/clib3r.lib(mbsdec.c)
0001:00003bc0  _mbsdec_
Module: /mnt/sda5/.user/root/src/openwatcom-1.9/rel2/lib386/os2/clib3r.lib(mbisdbcs.c)
0002:00000a90  ___IsDBCS
Module: /mnt/sda5/.user/root/src/openwatcom-1.9/rel2/lib386/os2/clib3r.lib(mbislead.c)
0001:00003c40* _ismbblead_
0002:00000a94  ___MBCSIsTable
Module: /mnt/sda5/.user/root/src/openwatcom-1.9/rel2/lib386/os2/clib3r.lib(toupper.c)
0001:00003c60  toupper_
Module: /mnt/sda5/.user/root/src/openwatcom-1.9/rel2/lib386/os2/clib3r.lib(mbinit.c)
0001:00003ca8  __mbinit_
0002:00000204  ___MBCodePage
Module: /mnt/sda5/.user/root/src/openwatcom-1.9/rel2/lib386/os2/clib3r.lib(mbdtoupp.c)
0001:00003da0  _mbdtoupper_
Module: /mnt/sda5/.user/root/src/openwatcom-1.9/rel2/lib386/os2/clib3r.lib(nmsize.c)
0001:00003dc0  _nmsize_
0001:00003dc0* _msize_
Module: /mnt/sda5/.user/root/src/openwatcom-1.9/rel2/lib386/os2/clib3r.lib(nexpand.c)
0001:00003dd0  _nexpand_
0001:00003dd0* _expand_
0001:00003e10+ __HeapManager_expand_
Module: /mnt/sda5/.user/root/src/openwatcom-1.9/rel2/lib386/os2/clib3r.lib(__stos)
0001:00003fd0  __STOSB
0001:00004007* __STOSD
Module: /mnt/sda5/.user/root/src/openwatcom-1.9/rel2/lib386/os2/clib3r.lib(chk8087.c)
0001:00004080  _fpreset_
0001:000040a0* __init_8087_
0001:000040b0  __chk8087_
Module: /mnt/sda5/.user/root/src/openwatcom-1.9/rel2/lib386/os2/clib3r.lib(mbsnbcpy.c)
0001:00004100  _mbsnbcpy_
Module: /mnt/sda5/.user/root/src/openwatcom-1.9/rel2/lib386/os2/clib3r.lib(_8087)
0002:00000208  __8087
0002:00000209  __real87
Module: /mnt/sda5/.user/root/src/openwatcom-1.9/rel2/lib386/os2/clib3r.lib(8087cw.c)
0002:0000020c  __8087cw
Module: /mnt/sda5/.user/root/src/openwatcom-1.9/rel2/lib386/os2/clib3r.lib(init8087)
0001:00004160  __x87id


                        +----------------------+
                        |   Imported Symbols   |
                        +----------------------+

Symbol                              Module
======                              ======

WinDdeInitiate                      PMWIN
DosAllocSharedMem                   DOSCALLS
WinQueryWindowProcess               PMWIN
DosGiveSharedMem                    DOSCALLS
WinDdePostMsg                       PMWIN
DosFreeMem                          DOSCALLS
WinCreateStdWindow                  PMWIN
WinSubclassWindow                   PMWIN
WinSetFocus                         PMWIN
WinDestroyWindow                    PMWIN
DosQuerySysInfo                     DOSCALLS
DosExit                             DOSCALLS
DosAllocMem                         DOSCALLS
DosGetInfoBlocks                    DOSCALLS
DosQueryModuleName                  DOSCALLS
DosCloseMutexSem                    DOSCALLS
DosReleaseMutexSem                  DOSCALLS
DosCreateMutexSem                   DOSCALLS
DosRequestMutexSem                  DOSCALLS
DosLoadModule                       DOSCALLS
DosQueryProcAddr                    DOSCALLS
DosOpen                             DOSCALLS
DosWrite                            DOSCALLS
DosClose                            DOSCALLS
DosQueryPathInfo                    DOSCALLS
DosQueryAppType                     DOSCALLS
DosExecPgm                          DOSCALLS
DosStartSession                     SESMGR
DosCreateQueue                      QUECALLS
DosReadQueue                        QUECALLS
DosCloseQueue                       QUECALLS
DosPostEventSem                     DOSCALLS
DosCreateEventSem                   DOSCALLS
DosCreateThread                     DOSCALLS
DosCloseEventSem                    DOSCALLS
DosWaitEventSem                     DOSCALLS
DosQueryDBCSEnv                     NLS
DosQueryCp                          DOSCALLS
DosDevConfig                        DOSCALLS


                        +--------------------+
                        |   Libraries Used   |
                        +--------------------+

/mnt/sda5/.user/root/src/openwatcom-1.9/rel2/lib386/os2/clib3r.lib
/mnt/sda5/.user/root/src/openwatcom-1.9/rel2/lib386/os2/os2386.lib


                        +-----------------------+
                        |   Linker Statistics   |
                        +-----------------------+

Stack size:  0000 (0.)
Memory size:  4d33 (19763.)
Link time: 00:00.00
