Open Watcom Linker Version 1.9
Portions Copyright (c) 1985-2002 Sybase, Inc. All Rights Reserved.
Created on:       12/12/16 02:38:35
Executable Image: ctags.exe
creating a Linux x86 executable


                        +------------+
                        |   Groups   |
                        +------------+

Group                           Address              Size
=====                           =======              ====

DGROUP                          0804e000             000022f8



                        +--------------+
                        |   Segments   |
                        +--------------+

Segment                Class          Group          Address         Size
=======                =====          =====          =======         ====

BEGTEXT                CODE           AUTO           08048100        00000007
_TEXT                  CODE           AUTO           08048110        00005cc9
_NULL                  BEGDATA        DGROUP         0804e000        00000004
_AFTERNULL             BEGDATA        DGROUP         0804e004        00000000
CONST                  DATA           DGROUP         0804e004        00000028
CONST2                 DATA           DGROUP         0804e02c        00000000
_DATA                  DATA           DGROUP         0804e02c        000002ec
XIB                    DATA           DGROUP         0804e318        00000000
XI                     DATA           DGROUP         0804e318        0000000c
XIE                    DATA           DGROUP         0804e324        00000000
YIB                    DATA           DGROUP         0804e324        00000000
YI                     DATA           DGROUP         0804e324        00000006
YIE                    DATA           DGROUP         0804e32a        00000000
TIB                    DATA           DGROUP         0804e32a        00000000
TI                     DATA           DGROUP         0804e32a        00000000
TIE                    DATA           DGROUP         0804e32a        00000000
DATA                   DATA           DGROUP         0804e32a        00000000
_BSS                   BSS            DGROUP         0804f000        000012f8


                        +----------------+
                        |   Memory Map   |
                        +----------------+

* = unreferenced symbol
+ = symbol only referenced locally

Address        Symbol
=======        ======

Module: ctags.obj(/mnt/sda5/.user/root/src/openwatcom-1.9/bld/vi/ctags/ctags.c)
080487a0       ErrorMsgExit_
08048de0       main_
08048eb0       IsTokenChar_
08048ed0       MyStricmp_
Module: scanc.obj(/mnt/sda5/.user/root/src/openwatcom-1.9/bld/vi/ctags/scanc.c)
08049200*      eatStuffBeforeOpenBrace_
08049380       ScanC_
Module: file.obj(/mnt/sda5/.user/root/src/openwatcom-1.9/bld/vi/ctags/file.c)
08049950       StartFile_
080499c0       EndFile_
080499e0       NewFileLine_
08049a00       GetChar_
08049a20       UnGetChar_
08049a30       RecordCurrentLineData_
08049af0       GetCurrentLineDataPtr_
08049b00       GetCurrentFileName_
08049b10       GetString_
Module: globals.obj(/mnt/sda5/.user/root/src/openwatcom-1.9/bld/vi/ctags/globals.c)
0804e0b4*      _OptEnvVar
080502b8       _TagCount
080502bc       _WantEnums
080502bd       _VerboseFlag
080502be       _WantClasses
080502bf       _WantProtos
080502c0       _WantUSE
080502c1       _WantAllDefines
080502c2       _WantMacros
080502c3       _WantTypedefs
Module: taglist.obj(/mnt/sda5/.user/root/src/openwatcom-1.9/bld/vi/ctags/taglist.c)
08049c60       AddTag_
08049ca0+      CompareStrings_
08049cb0       GenerateTagsFile_
08049d90       ReadExtraTags_
Module: scanfor.obj(/mnt/sda5/.user/root/src/openwatcom-1.9/bld/vi/ctags/scanfor.c)
08049e70       ScanFortran_
Module: scanasm.obj(/mnt/sda5/.user/root/src/openwatcom-1.9/bld/vi/ctags/scanasm.c)
0804a100       ScanAsm_
Module: /mnt/sda5/.user/root/src/openwatcom-1.9/rel2/lib386/linux/clib3r.lib(printf.c)
0804a1f0       printf_
Module: /mnt/sda5/.user/root/src/openwatcom-1.9/rel2/lib386/linux/clib3r.lib(iob.c)
0804e0b8       ___iob
080502c8       ___OpenStreams
080502cc       ___ClosedStreams
Module: /mnt/sda5/.user/root/src/openwatcom-1.9/rel2/lib386/linux/clib3r.lib(vfprintf.c)
0804a220       vfprintf_
Module: /mnt/sda5/.user/root/src/openwatcom-1.9/rel2/lib386/linux/clib3r.lib(exit.c)
0804a225       exit_
0804a237*      _exit_
Module: /mnt/sda5/.user/root/src/openwatcom-1.9/rel2/lib386/linux/clib3r.lib(fprintf.c)
0804a240       fprintf_
Module: /mnt/sda5/.user/root/src/openwatcom-1.9/rel2/lib386/linux/clib3r.lib(getopt.c)
0804e278+      _optind
0804e27c+      _opterr
0804e280+      ___altoptchar
0804a2c0       getopt_
080502d0       _optarg
080502d4+      _optopt
080502d8+      ___optchar
Module: /mnt/sda5/.user/root/src/openwatcom-1.9/rel2/lib386/linux/clib3r.lib(split2.c)
0804a560       _splitpath2_
Module: /mnt/sda5/.user/root/src/openwatcom-1.9/rel2/lib386/linux/clib3r.lib(fflush.c)
0804a630       fflush_
Module: /mnt/sda5/.user/root/src/openwatcom-1.9/rel2/lib386/linux/clib3r.lib(stricmp.c)
0804a640       stricmp_
Module: /mnt/sda5/.user/root/src/openwatcom-1.9/rel2/lib386/linux/clib3r.lib(opendir.c)
0804a680       opendir_
Module: /mnt/sda5/.user/root/src/openwatcom-1.9/rel2/lib386/linux/clib3r.lib(readdir.c)
0804a6c0       readdir_
Module: /mnt/sda5/.user/root/src/openwatcom-1.9/rel2/lib386/linux/clib3r.lib(stat.c)
0804a720       stat_
Module: /mnt/sda5/.user/root/src/openwatcom-1.9/rel2/lib386/linux/clib3r.lib(makepath.c)
0804a750       _makepath_
Module: /mnt/sda5/.user/root/src/openwatcom-1.9/rel2/lib386/linux/clib3r.lib(strlwr.c)
0804a8e0       strlwr_
Module: /mnt/sda5/.user/root/src/openwatcom-1.9/rel2/lib386/linux/clib3r.lib(closedir.c)
0804a900       closedir_
Module: /mnt/sda5/.user/root/src/openwatcom-1.9/rel2/lib386/linux/clib3r.lib(fopen.c)
0804a920+      __open_flags_
0804aac0+      _fsopen_
0804ab10       fopen_
0804ab90*      freopen_
Module: /mnt/sda5/.user/root/src/openwatcom-1.9/rel2/lib386/linux/clib3r.lib(fgets.c)
0804abf0       fgets_
Module: /mnt/sda5/.user/root/src/openwatcom-1.9/rel2/lib386/linux/clib3r.lib(istable.c)
0804ac60       __IsTable
Module: /mnt/sda5/.user/root/src/openwatcom-1.9/rel2/lib386/linux/clib3r.lib(fclose.c)
0804ad70       __doclose_
0804ade0       __shutdown_stream_
0804ae00       fclose_
Module: /mnt/sda5/.user/root/src/openwatcom-1.9/rel2/lib386/linux/clib3r.lib(cstart)
0804ae30       _cstart_
0804ae30*      _start
Module: /mnt/sda5/.user/root/src/openwatcom-1.9/rel2/lib386/linux/clib3r.lib(cmainlnx.c)
0804aea0       __LinuxMain
080502dc       __argc
080502e0+      __argv
Module: /mnt/sda5/.user/root/src/openwatcom-1.9/rel2/lib386/linux/clib3r.lib(strnicmp.c)
0804af30       strnicmp_
Module: /mnt/sda5/.user/root/src/openwatcom-1.9/rel2/lib386/linux/clib3r.lib(_strcmp)
0804af80       strcmp_
Module: /mnt/sda5/.user/root/src/openwatcom-1.9/rel2/lib386/linux/clib3r.lib(setvbuf.c)
0804b0c0       setvbuf_
Module: /mnt/sda5/.user/root/src/openwatcom-1.9/rel2/lib386/linux/clib3r.lib(ftell.c)
0804b120       ftell_
Module: /mnt/sda5/.user/root/src/openwatcom-1.9/rel2/lib386/linux/clib3r.lib(fgetc.c)
0804b170+      __fill_buffer_
0804b220       fgetc_
Module: /mnt/sda5/.user/root/src/openwatcom-1.9/rel2/lib386/linux/clib3r.lib(fseek.c)
0804b2e0       fseek_
Module: /mnt/sda5/.user/root/src/openwatcom-1.9/rel2/lib386/linux/clib3r.lib(nrealloc.c)
0804b3e0*      _nrealloc_
0804b3e0       realloc_
Module: /mnt/sda5/.user/root/src/openwatcom-1.9/rel2/lib386/linux/clib3r.lib(nmalloc.c)
0804b460       _nmalloc_
0804b460       malloc_
0804e288       ___nheapbeg
0804e28c       ___MiniHeapRover
0804e290       ___LargestSizeB4MiniHeapRover
Module: /mnt/sda5/.user/root/src/openwatcom-1.9/rel2/lib386/linux/clib3r.lib(sprintf.c)
0804b550       sprintf_
Module: /mnt/sda5/.user/root/src/openwatcom-1.9/rel2/lib386/linux/clib3r.lib(qsort.c)
0804b5d0       qsort_
Module: /mnt/sda5/.user/root/src/openwatcom-1.9/rel2/lib386/linux/clib3r.lib(nmsize.c)
0804bc80       _nmsize_
0804bc80       _msize_
Module: /mnt/sda5/.user/root/src/openwatcom-1.9/rel2/lib386/linux/clib3r.lib(fprtf.c)
0804bcb0       __fprtf_
Module: /mnt/sda5/.user/root/src/openwatcom-1.9/rel2/lib386/linux/clib3r.lib(initfile.c)
0804bd70       __InitFiles_
Module: /mnt/sda5/.user/root/src/openwatcom-1.9/rel2/lib386/linux/clib3r.lib(ioexit.c)
0804be70*      fcloseall_
0804be80       __full_io_exit_
Module: /mnt/sda5/.user/root/src/openwatcom-1.9/rel2/lib386/linux/clib3r.lib(initrtns.c)
0804bea0       __InitRtns
0804bef0       __FiniRtns
Module: /mnt/sda5/.user/root/src/openwatcom-1.9/rel2/lib386/linux/clib3r.lib(mainlnx.c)
0804e294+      ___FirstThreadData
0804e298+      ___GetThreadPtr
0804e29c*      __AccessFileH
0804e2a0*      __ReleaseFileH
0804e2a4*      __AccessIOB
0804e2a8*      __ReleaseIOB
0804e2ac*      __AccessNHeap
0804e2b0*      __AccessFHeap
0804e2b4*      __ReleaseNHeap
0804e2b8*      __ReleaseFHeap
0804bf50*      __threadid_
0804bf80*      __LinuxInit_
0804bf90       __exit_
0804e2bc*      __AccessTDList
0804e2c0*      __ReleaseTDList
Module: /mnt/sda5/.user/root/src/openwatcom-1.9/rel2/lib386/linux/clib3r.lib(flush.c)
0804bfb0       __flush_
Module: /mnt/sda5/.user/root/src/openwatcom-1.9/rel2/lib386/linux/clib3r.lib(flushall.c)
0804c080       __flushall_
0804c0c0       flushall_
Module: /mnt/sda5/.user/root/src/openwatcom-1.9/rel2/lib386/linux/clib3r.lib(openlnx.c)
0804c0d0       open_
0804c0f0       sopen_
Module: /mnt/sda5/.user/root/src/openwatcom-1.9/rel2/lib386/linux/clib3r.lib(nfree.c)
0804c110       _nfree_
0804c110       free_
080502e4+      ___MiniHeapFreeRover
Module: /mnt/sda5/.user/root/src/openwatcom-1.9/rel2/lib386/linux/clib3r.lib(getdents.c)
0804c210       sys_getdents_
Module: /mnt/sda5/.user/root/src/openwatcom-1.9/rel2/lib386/linux/clib3r.lib(errno.c)
0804c240       __get_errno_ptr_
080502e8+      _errno
Module: /mnt/sda5/.user/root/src/openwatcom-1.9/rel2/lib386/linux/clib3r.lib(close.c)
0804c250       close_
Module: /mnt/sda5/.user/root/src/openwatcom-1.9/rel2/lib386/linux/clib3r.lib(comtflag.c)
0804c280*      __set_commode_
0804e2c4       __commode
Module: /mnt/sda5/.user/root/src/openwatcom-1.9/rel2/lib386/linux/clib3r.lib(seterrno.c)
0804c28b       __set_errno_
0804c297*      __set_EDOM_
0804c2a3*      __set_ERANGE_
0804c2af*      __set_EINVAL_
Module: /mnt/sda5/.user/root/src/openwatcom-1.9/rel2/lib386/linux/clib3r.lib(tolower.c)
0804c2c0       tolower_
Module: /mnt/sda5/.user/root/src/openwatcom-1.9/rel2/lib386/linux/clib3r.lib(chktty.c)
0804c2d0       __chktty_
Module: /mnt/sda5/.user/root/src/openwatcom-1.9/rel2/lib386/linux/clib3r.lib(freefp.c)
0804c300       __freefp_
0804c340       __purgefp_
Module: /mnt/sda5/.user/root/src/openwatcom-1.9/rel2/lib386/linux/clib3r.lib(allocfp.c)
0804c370       __allocfp_
Module: /mnt/sda5/.user/root/src/openwatcom-1.9/rel2/lib386/linux/clib3r.lib(__lseek.c)
0804c430       __lseek_
Module: /mnt/sda5/.user/root/src/openwatcom-1.9/rel2/lib386/linux/clib3r.lib(segdefns)
08048103       ___begtext
0804e000*      __nullarea
0804e318       __Start_XI
0804e324       __End_XI
0804e324       __Start_YI
0804e32a       __End_YI
Module: /mnt/sda5/.user/root/src/openwatcom-1.9/rel2/lib386/linux/clib3r.lib(crwdata)
0804e2d0*      __LpCmdLine
0804e2d4       __LpPgmName
0804e2c8*      __dynend
0804e2cc       __curbrk
0804e2d8       __STACKLOW
0804e2dc       __STACKTOP
0804e2e0       __ASTACKSIZ
0804e2e4       __ASTACKPTR
0804e2e8*      __cbyte
0804e2ec*      __cbyte2
0804e2f0*      __child
0804e2f6*      __Envptr
0804e2fa*      __Envseg
0804e2f4*      __no87
0804e2fc*      ___FPE_handler
Module: /mnt/sda5/.user/root/src/openwatcom-1.9/rel2/lib386/linux/clib3r.lib(sbrklnx.c)
0804c460       sbrk_
0804c470       __brk_
0804c4a0*      brk_
Module: /mnt/sda5/.user/root/src/openwatcom-1.9/rel2/lib386/linux/clib3r.lib(environ.c)
080502ec       ___env_mask
080502f0       _environ
080502f4*      __wenviron
Module: /mnt/sda5/.user/root/src/openwatcom-1.9/rel2/lib386/linux/clib3r.lib(amblksiz.c)
0804e300       __amblksiz
Module: /mnt/sda5/.user/root/src/openwatcom-1.9/rel2/lib386/linux/clib3r.lib(ioalloc.c)
0804c4d0       __ioalloc_
Module: /mnt/sda5/.user/root/src/openwatcom-1.9/rel2/lib386/linux/clib3r.lib(tell.c)
0804c570       tell_
Module: /mnt/sda5/.user/root/src/openwatcom-1.9/rel2/lib386/linux/clib3r.lib(qreadunx.c)
0804c590       __qread_
Module: /mnt/sda5/.user/root/src/openwatcom-1.9/rel2/lib386/linux/clib3r.lib(lseek.c)
0804c5e0       lseek_
Module: /mnt/sda5/.user/root/src/openwatcom-1.9/rel2/lib386/linux/clib3r.lib(nexpand.c)
0804c5f0       _nexpand_
0804c5f0*      _expand_
0804c640+      __HeapManager_expand_
Module: /mnt/sda5/.user/root/src/openwatcom-1.9/rel2/lib386/linux/clib3r.lib(nmemneed.c)
0804c810       __nmemneed_
Module: /mnt/sda5/.user/root/src/openwatcom-1.9/rel2/lib386/linux/clib3r.lib(mem.c)
0804c820       __MemAllocator
0804c8d0       __MemFree
Module: /mnt/sda5/.user/root/src/openwatcom-1.9/rel2/lib386/linux/clib3r.lib(grownear.c)
0804ca90+      __LastFree_
0804cb10       __ExpandDGROUP_
Module: /mnt/sda5/.user/root/src/openwatcom-1.9/rel2/lib386/linux/clib3r.lib(vsprintf.c)
0804cc30       vsprintf_
Module: /mnt/sda5/.user/root/src/openwatcom-1.9/rel2/lib386/linux/clib3r.lib(fputc.c)
0804cc50       fputc_
Module: /mnt/sda5/.user/root/src/openwatcom-1.9/rel2/lib386/linux/clib3r.lib(prtf.c)
0804cce0       __prtf_
Module: /mnt/sda5/.user/root/src/openwatcom-1.9/rel2/lib386/linux/clib3r.lib(xmsglnx.c)
0804d800+      __exit_with_msg_
0804d850       __fatal_runtime_error_
Module: /mnt/sda5/.user/root/src/openwatcom-1.9/rel2/lib386/linux/clib3r.lib(mthrdini.c)
0804d870       __InitThreadData_
0804e304*      ___ThreadDataSize
Module: /mnt/sda5/.user/root/src/openwatcom-1.9/rel2/lib386/linux/clib3r.lib(sys_exit.c)
0804d880       sys_exit_
Module: /mnt/sda5/.user/root/src/openwatcom-1.9/rel2/lib386/linux/clib3r.lib(qwritunx.c)
0804d890       __qwrite_
Module: /mnt/sda5/.user/root/src/openwatcom-1.9/rel2/lib386/linux/clib3r.lib(fsync.c)
0804d8e0       fsync_
Module: /mnt/sda5/.user/root/src/openwatcom-1.9/rel2/lib386/linux/clib3r.lib(sys_open.c)
0804d910       sys_open_
Module: /mnt/sda5/.user/root/src/openwatcom-1.9/rel2/lib386/linux/clib3r.lib(isattlnx.c)
0804d940       isatty_
Module: /mnt/sda5/.user/root/src/openwatcom-1.9/rel2/lib386/linux/clib3r.lib(memset.c)
0804d980       memset_
Module: /mnt/sda5/.user/root/src/openwatcom-1.9/rel2/lib386/linux/clib3r.lib(dosseg)
00001234       __DOSseg__
Module: /mnt/sda5/.user/root/src/openwatcom-1.9/rel2/lib386/linux/clib3r.lib(sys_brk.c)
0804d9a0       sys_brk_
Module: /mnt/sda5/.user/root/src/openwatcom-1.9/rel2/lib386/linux/clib3r.lib(setenvp.c)
0804d9c0       __setenvp_
Module: /mnt/sda5/.user/root/src/openwatcom-1.9/rel2/lib386/linux/clib3r.lib(read.c)
0804da30       read_
Module: /mnt/sda5/.user/root/src/openwatcom-1.9/rel2/lib386/linux/clib3r.lib(heapen.c)
0804da60*      _heapenable_
0804e308       ___heap_enabled
Module: /mnt/sda5/.user/root/src/openwatcom-1.9/rel2/lib386/linux/clib3r.lib(itoa.c)
0804da70+      utoa_
0804dac0       itoa_
Module: /mnt/sda5/.user/root/src/openwatcom-1.9/rel2/lib386/linux/clib3r.lib(strupr.c)
0804daf0       strupr_
Module: /mnt/sda5/.user/root/src/openwatcom-1.9/rel2/lib386/linux/clib3r.lib(noefgfmt.c)
0804e30c       ___EFG_printf
0804e310*      ___EFG_scanf
Module: /mnt/sda5/.user/root/src/openwatcom-1.9/rel2/lib386/linux/clib3r.lib(lltoa.c)
0804db60       ulltoa_
0804dbd0*      lltoa_
Module: /mnt/sda5/.user/root/src/openwatcom-1.9/rel2/lib386/linux/clib3r.lib(ltoa.c)
0804dc00       ultoa_
0804dc50*      ltoa_
Module: /mnt/sda5/.user/root/src/openwatcom-1.9/rel2/lib386/linux/clib3r.lib(write.c)
0804dc80       write_
Module: /mnt/sda5/.user/root/src/openwatcom-1.9/rel2/lib386/linux/clib3r.lib(enterdb.c)
0804dcb0       __EnterWVIDEO_
0804e314+      ___WD_Present
Module: /mnt/sda5/.user/root/src/openwatcom-1.9/rel2/lib386/linux/clib3r.lib(tcgattr.c)
0804dce0       tcgetattr_
Module: /mnt/sda5/.user/root/src/openwatcom-1.9/rel2/lib386/linux/clib3r.lib(__stos)
0804dcf0       __STOSB
0804dd27*      __STOSD
Module: /mnt/sda5/.user/root/src/openwatcom-1.9/rel2/lib386/linux/clib3r.lib(alphabet.c)
0804e004       ___Alphabet
Module: /mnt/sda5/.user/root/src/openwatcom-1.9/rel2/lib386/linux/clib3r.lib(ioctl.c)
0804dda0       ioctl_


                        +--------------------+
                        |   Libraries Used   |
                        +--------------------+

/mnt/sda5/.user/root/src/openwatcom-1.9/rel2/lib386/linux/clib3r.lib


                        +-----------------------+
                        |   Linker Statistics   |
                        +-----------------------+

Stack size:  1000 (4096.)
Memory size:  7fd1 (32721.)
Entry point address: 0804ae30
Link time: 00:00.00
