Open Watcom Linker Version 1.9
Portions Copyright (c) 1985-2002 Sybase, Inc. All Rights Reserved.
Created on:       12/12/16 02:29:55
Executable Image: cvpack.exe
creating an OS/2 32-bit executable


                        +------------+
                        |   Groups   |
                        +------------+

Group                           Address              Size
=====                           =======              ====

DGROUP                          0003:00000000        0002ecf0



                        +--------------+
                        |   Segments   |
                        +--------------+

Segment                Class          Group          Address         Size
=======                =====          =====          =======         ====

_TEXT16                CODE           AUTO           0001:00000000   00000068
BEGTEXT                CODE           AUTO           0002:00000000   00000007
_TEXT                  CODE           AUTO           0002:00000010   00021e65
_NULL                  BEGDATA        DGROUP         0003:00000000   00000004
_AFTERNULL             BEGDATA        DGROUP         0003:00000004   00000000
CONST                  DATA           DGROUP         0003:00000004   00000480
CONST2                 DATA           DGROUP         0003:00000490   0000982c
_DATA                  DATA           DGROUP         0003:00009cc0   000029bc
XIB                    DATA           DGROUP         0003:0000c67c   00000000
XI                     DATA           DGROUP         0003:0000c67c   00000054
XIE                    DATA           DGROUP         0003:0000c6d0   00000000
YIB                    DATA           DGROUP         0003:0000c6d0   00000000
YI                     DATA           DGROUP         0003:0000c6d0   0000001e
YIE                    DATA           DGROUP         0003:0000c6ee   00000000
TIB                    DATA           DGROUP         0003:0000c6ee   00000000
TI                     DATA           DGROUP         0003:0000c6ee   00000000
TIE                    DATA           DGROUP         0003:0000c6ee   00000000
DATA                   DATA           DGROUP         0003:0000c6ee   00000000
_BSS                   BSS            DGROUP         0003:0000c6f0   000105fc
STACK                  STACK          DGROUP         0003:0001ccf0   00012000


                        +----------------+
                        |   Memory Map   |
                        +----------------+

* = unreferenced symbol
+ = symbol only referenced locally

Address        Symbol
=======        ======

Module: cvpack.obj(/mnt/sda5/.user/root/src/openwatcom-1.9/bld/cvpack/cpp/cvpack.cpp)
0002:00001140+ W?$dt:FileError$n()_
0002:00001150  W?$dt:OutOfMemory$n()_
0002:00001160  W?$dt:MiscError$n()_
0002:00001170  W?$ct:WCExcept$n()_
0002:00001180  W?$dt:WCExcept$n()_
0002:00001200+ W?$dt:TypeIndexMap$n()_
0002:000012a0  W?$ct:WCIsvListBase$n()_
0002:00001300+ W?$dt:Retriever$n()_
0002:00001390+ W?$dt:ODirectory$n()_
0002:00001430+ W?$dt:ExeMaker$n()_
0002:00001440+ W?$ct:TypeArray$n()_
0002:00001480  W?$dt:TypeArray$n()_
0002:000014f0  W?$dt:GlobalTypeArray$n()_
0002:000015f0+ W?$ct:LocalTypeArray$n()_
0002:00001740+ W?$dt:LocalTypeArray$n()_
0002:00001880+ W?$ct:SstGlobalTypes$n()_
0002:000019d0+ W?$dt:SstGlobalTypes$n()_
0002:00001ba0+ W?$ct:SstGlobalSym$n()_
0002:00001c40+ W?$dt:SstGlobalSym$n()_
0002:00001cd0+ W?$dt:CVpack$n()_
0002:00001dd0+ W?$dt:SymbolDistributor$n()_
0002:00000070  W?NumLeafLength$n(pnxa)ui
0002:000000b0+ W?ConvertFName$n(pna)v
0002:00000130+ W?outOfMemory$n()v
0002:00000150+ W?DoExeCode$:CVpack$n()v
0002:000001f0+ W?DoSstModule$:CVpack$n()ui
0002:00000280+ W?DumpSig$:CVpack$n()v
0002:000002a0* W?DoSrcModule$:CVpack$n(ui)ui
0002:00000320+ W?DoSegMap$:CVpack$n()ui
0002:000003c0+ W?DoAlignSym$:CVpack$n(pn$SstAlignSym$$ui)v
0002:00000400+ W?DoGlobalSym$:CVpack$n(rn$SstGlobalSym$$ui)v
0002:00000450+ W?DoStaticSym$:CVpack$n(rn$SstGlobalSym$$ui)v
0002:000004a0+ W?DoDirectory$:CVpack$n()v
0002:00001ee0  W?$ct:MiscError$n(rnx$0$)_
0002:00001f00  W?$ct:OutOfMemory$n(rnx$0$)_
0002:00001f20+ W?$ct:FileError$n(rnx$0$)_
0002:00001f40  W?$ct:RetrieveError$n(rnx$0$)_
0002:00001f50  W?$dt:RetrieveError$n()_
0002:00001f60  W?$ct:CVpackError$n(rnx$0$)_
0002:00001f70  W?$dt:CVpackError$n()_
0002:00001f80  W?base_init_upto$:WCBareVectorBase$::1n$__304un0mappingStruct$:TypeIndexMap$$n(i)v
0002:00001fc0  W?$dt:WCBareVectorBase$::1n$__304un0mappingStruct$:TypeIndexMap$$n()_
0002:00002040  W?base_init_upto$:WCBareVectorBase$::1npnvn(i)v
0002:00002080  W?$dt:WCBareVectorBase$::1npnvn()_
0002:00002100  W?$dt:WCVectorBase$::1npnvn()_
0002:00002120  W?$dt:WCOrderedVectorBase$::1npnvn()_
0002:00002140  W?base_find$:WCOrderedVectorBase$::1npnvn.x(rnxpnv$find_type$:WCVectorBase$::1npnv$pni)i
0002:000021a0  W?base_init_upto$:WCPtrVectorBase$::1n$LFTypeRecord$$1n$WCOrderedVectorBase$::1npnv$n(i)v
0002:000021e0  W?$dt:WCPtrVectorBase$::1n$LFTypeRecord$$1n$WCOrderedVectorBase$::1npnv$n()_
0002:00002200  W?$dt:WCValVector$::1n$__304un0mappingStruct$:TypeIndexMap$$n()_
0002:000022a0+ W?$dt:WCValVector$::1npnvn()_
0002:00002340+ W?$ct:WCPtrVector$::1n$SymbolStruct$$n(ui)_
0002:000023b0+ W?$dt:WCPtrVector$::1n$SymbolStruct$$n()_
0002:00002470  W?base_init_upto$:WCPtrVector$::1n$SymbolStruct$$n(i)v
0002:000024b0  W?base_equivalent$:WCPtrOrderedVector$::1n$LFTypeRecord$$n.x(rnxpnvrnxpnv)i
0002:000024c0  W?$ct:WCPtrOrderedVector$::1n$LFTypeRecord$$n(uiui)_
0002:00002570  W?$dt:WCPtrOrderedVector$::1n$LFTypeRecord$$n()_
0002:00002620  W?$dt:MyValBoundVector$::1n$__304un0mappingStruct$:TypeIndexMap$$n()_
0002:00002710  W?WCListDelete$:WCIsvSListBase$::1n$WCNIsvSLink$::1npn$cv_dir_entry$$$n(pn$WCSLink$$)v
0002:00002770  W?$dt:WCIsvSListBase$::1n$WCNIsvSLink$::1npn$cv_dir_entry$$$n()_
0002:00002790  W?WCListDelete$:WCIsvSListBase$::1n$WCNIsvSLink$::1npn$LFSubField$$$n(pn$WCSLink$$)v
0002:000027f0  W?$dt:WCIsvSListBase$::1n$WCNIsvSLink$::1npn$LFSubField$$$n()_
0002:00002810  W?WCListDelete$:WCIsvSListBase$::1n$WCNIsvSLink$::1npn$my_ct_mlist$$$n(pn$WCSLink$$)v
0002:00002870  W?$dt:WCIsvSListBase$::1n$WCNIsvSLink$::1npn$my_ct_mlist$$$n()_
0002:00002890  W?WCListDelete$:WCIsvSListBase$::1n$WCNIsvSLink$::1nus$n(pn$WCSLink$$)v
0002:000028f0  W?$dt:WCIsvSListBase$::1n$WCNIsvSLink$::1nus$n()_
0002:00002910  W?WCListDelete$:WCIsvSListBase$::1n$WCNIsvSLink$::1npn$LFGlobalTypeRecord$$$n(pn$WCSLink$$)v
0002:00002970  W?$dt:WCIsvSListBase$::1n$WCNIsvSLink$::1npn$LFGlobalTypeRecord$$$n()_
0002:00002990  W?WCListDelete$:WCIsvSListBase$::1n$WCNIsvSLink$::1npn$LFTypeRecord$$$n(pn$WCSLink$$)v
0002:000029f0  W?$dt:WCIsvSListBase$::1n$WCNIsvSLink$::1npn$LFTypeRecord$$$n()_
0002:00002a10  W?WCListDelete$:WCIsvSListBase$::1n$WCNIsvSLink$::1npn$SymbolStruct$$$n(pn$WCSLink$$)v
0002:00002a70  W?$dt:WCIsvSListBase$::1n$WCNIsvSLink$::1npn$SymbolStruct$$$n()_
0002:00002a90  W?WCListDelete$:WCIsvSListBase$::1n$WCNIsvSLink$::1npn$chain_table$:NameHashTable$$$n(pn$WCSLink$$)v
0002:00002af0  W?$dt:WCIsvSListBase$::1n$WCNIsvSLink$::1npn$chain_table$:NameHashTable$$$n()_
0002:00002b10  W?WCListDelete$:WCIsvSListBase$::1n$WCNIsvSLink$::1npn$offset_table$:AddrHashTable$$$n(pn$WCSLink$$)v
0002:00002b70  W?$dt:WCIsvSListBase$::1n$WCNIsvSLink$::1npn$offset_table$:AddrHashTable$$$n()_
0002:00002b90  W?WCListDelete$:WCValListBase$::1npn$cv_dir_entry$$1n$WCIsvSListBase$::1n$WCNIsvSLink$::1npn$2$$$1n$4::1npn$2$$n(pn$WCSLink$$)v
0002:00002bb0  W?$dt:WCValListBase$::1npn$cv_dir_entry$$1n$WCIsvSListBase$::1n$WCNIsvSLink$::1npn$1$$$1n$3::1npn$1$$n()_
0002:00002c40  W?WCListDelete$:WCValListBase$::1npn$LFSubField$$1n$WCIsvSListBase$::1n$WCNIsvSLink$::1npn$2$$$1n$4::1npn$2$$n(pn$WCSLink$$)v
0002:00002c60  W?$dt:WCValListBase$::1npn$LFSubField$$1n$WCIsvSListBase$::1n$WCNIsvSLink$::1npn$1$$$1n$3::1npn$1$$n()_
0002:00002cf0  W?WCListDelete$:WCValListBase$::1npn$my_ct_mlist$$1n$WCIsvSListBase$::1n$WCNIsvSLink$::1npn$2$$$1n$4::1npn$2$$n(pn$WCSLink$$)v
0002:00002d10  W?$dt:WCValListBase$::1npn$my_ct_mlist$$1n$WCIsvSListBase$::1n$WCNIsvSLink$::1npn$1$$$1n$3::1npn$1$$n()_
0002:00002da0  W?WCListDelete$:WCValListBase$::1nus1n$WCIsvSListBase$::1n$WCNIsvSLink$::1nus$$1n$3::1nus$n(pn$WCSLink$$)v
0002:00002dc0  W?$dt:WCValListBase$::1nus1n$WCIsvSListBase$::1n$WCNIsvSLink$::1nus$$1n$2::1nus$n()_
0002:00002e50  W?WCListDelete$:WCValListBase$::1npn$LFGlobalTypeRecord$$1n$WCIsvSListBase$::1n$WCNIsvSLink$::1npn$2$$$1n$4::1npn$2$$n(pn$WCSLink$$)v
0002:00002e70  W?$dt:WCValListBase$::1npn$LFGlobalTypeRecord$$1n$WCIsvSListBase$::1n$WCNIsvSLink$::1npn$1$$$1n$3::1npn$1$$n()_
0002:00002f00  W?WCListDelete$:WCValListBase$::1npn$LFTypeRecord$$1n$WCIsvSListBase$::1n$WCNIsvSLink$::1npn$2$$$1n$4::1npn$2$$n(pn$WCSLink$$)v
0002:00002f20  W?$dt:WCValListBase$::1npn$LFTypeRecord$$1n$WCIsvSListBase$::1n$WCNIsvSLink$::1npn$1$$$1n$3::1npn$1$$n()_
0002:00002fb0  W?WCListDelete$:WCValListBase$::1npn$SymbolStruct$$1n$WCIsvSListBase$::1n$WCNIsvSLink$::1npn$2$$$1n$4::1npn$2$$n(pn$WCSLink$$)v
0002:00002fd0  W?$dt:WCValListBase$::1npn$SymbolStruct$$1n$WCIsvSListBase$::1n$WCNIsvSLink$::1npn$1$$$1n$3::1npn$1$$n()_
0002:00003060  W?WCListDelete$:WCValListBase$::1npn$chain_table$:NameHashTable$$1n$WCIsvSListBase$::1n$WCNIsvSLink$::1npn$2:3$$$1n$5::1npn$2:3$$n(pn$WCSLink$$)v
0002:00003080  W?$dt:WCValListBase$::1npn$chain_table$:NameHashTable$$1n$WCIsvSListBase$::1n$WCNIsvSLink$::1npn$1:2$$$1n$4::1npn$1:2$$n()_
0002:00003110  W?WCListDelete$:WCValListBase$::1npn$offset_table$:AddrHashTable$$1n$WCIsvSListBase$::1n$WCNIsvSLink$::1npn$2:3$$$1n$5::1npn$2:3$$n(pn$WCSLink$$)v
0002:00003130  W?$dt:WCValListBase$::1npn$offset_table$:AddrHashTable$$1n$WCIsvSListBase$::1n$WCNIsvSLink$::1npn$1:2$$$1n$4::1npn$1:2$$n()_
0002:000031c0+ W?$dt:WCPtrListBase$::1n$cv_dir_entry$$1n$WCValSList$::1npn$1$$n()_
0002:00003230  W?clearAndDestroy$:WCPtrListBase$::1n$cv_dir_entry$$1n$WCValSList$::1npn$2$$n()v
0002:00003260  W?clearAndDestroy$:WCPtrListBase$::1n$LFSubField$$1n$WCValSList$::1npn$2$$n()v
0002:000032a0  W?clearAndDestroy$:WCPtrListBase$::1n$my_ct_mlist$$1n$WCValSList$::1npn$2$$n()v
0002:000032d0  W?$dt:WCPtrListBase$::1n$LFTypeRecord$$1n$WCValSList$::1npn$1$$n()_
0002:00003340  W?$dt:WCPtrListBase$::1n$SymbolStruct$$1n$WCValSList$::1npn$1$$n()_
0002:000033b0  W?clearAndDestroy$:WCPtrListBase$::1n$SymbolStruct$$1n$WCValSList$::1npn$2$$n()v
0002:000033f0  W?clearAndDestroy$:WCPtrListBase$::1n$chain_table$:NameHashTable$$1n$WCValSList$::1npn$2:3$$n()v
0002:00003420  W?clearAndDestroy$:WCPtrListBase$::1n$offset_table$:AddrHashTable$$1n$WCValSList$::1npn$2:3$$n()v
0002:00003450+ W?base_equivalent$:WCValSList$::1npn$cv_dir_entry$$n.x(rnxpn$2$rnxpn$2$)i
0002:00003460+ W?$dt:WCValSList$::1npn$cv_dir_entry$$n()_
0002:00003500  W?base_equivalent$:WCValSList$::1npn$LFTypeRecord$$n.x(rnxpn$2$rnxpn$2$)i
0002:00003510  W?$dt:WCValSList$::1npn$LFTypeRecord$$n()_
0002:000035b0  W?base_equivalent$:WCValSList$::1npn$SymbolStruct$$n.x(rnxpn$2$rnxpn$2$)i
0002:000035c0  W?$dt:WCValSList$::1npn$SymbolStruct$$n()_
0002:00003660+ W?base_equivalent$:WCPtrSList$::1n$cv_dir_entry$$n.x(rnxpn$2$rnxpn$2$)i
0002:00003670+ W?$ct:WCPtrSList$::1n$cv_dir_entry$$n()_
0002:00003710+ W?$dt:WCPtrSList$::1n$cv_dir_entry$$n()_
0002:000037d0  W?base_equivalent$:WCPtrSList$::1n$LFTypeRecord$$n.x(rnxpn$2$rnxpn$2$)i
0002:000037e0  W?$ct:WCPtrSList$::1n$LFTypeRecord$$n()_
0002:00003880  W?$dt:WCPtrSList$::1n$LFTypeRecord$$n()_
0002:00003940  W?base_equivalent$:WCPtrSList$::1n$SymbolStruct$$n.x(rnxpn$2$rnxpn$2$)i
0002:00003950  W?$ct:WCPtrSList$::1n$SymbolStruct$$n()_
0002:000039f0  W?$dt:WCPtrSList$::1n$SymbolStruct$$n()_
0002:00003ab0  W?resize$:WCBareVectorBase$::1npnvn(ui)i
0002:00003b60  W?base_index_check$:WCVectorBase$::1npnvn.x(i)i
0002:00003be0  W?resize$:WCVectorBase$::1npnvn(ui)i
0002:00003c10  W?$ct:WCPtrVectorBase$::1n$LFTypeRecord$$1n$WCOrderedVectorBase$::1npnv$n(uiui)_
0002:00003ca0  W?$ct:WCValVector$::1n$__304un0mappingStruct$:TypeIndexMap$$n(ui)_
0002:00003cb0  W?$od:WCValVector$::1n$__304un0mappingStruct$:TypeIndexMap$$n(i)rn$1:2$
0002:00003d20+ W?$ct:WCValVector$::1npnvn(ui)_
0002:00003d30  W?$ct:MyValBoundVector$::1n$__304un0mappingStruct$:TypeIndexMap$$n(usui)_
0002:00003db0  W?insert$:WCValListBase$::1nus1n$WCIsvSListBase$::1n$WCNIsvSLink$::1nus$$1n$3::1nus$n(rnxus)i
0002:00003de0  W?insert$:WCValListBase$::1npn$LFGlobalTypeRecord$$1n$WCIsvSListBase$::1n$WCNIsvSLink$::1npn$2$$$1n$4::1npn$2$$n(rnxpn$2$)i
0002:00003e10  W?get$:WCValListBase$::1npn$LFGlobalTypeRecord$$1n$WCIsvSListBase$::1n$WCNIsvSLink$::1npn$2$$$1n$4::1npn$2$$n(i)pn$2$
0002:00003e40  W?append$:WCValListBase$::1npn$LFTypeRecord$$1n$WCIsvSListBase$::1n$WCNIsvSLink$::1npn$2$$$1n$4::1npn$2$$n(rnxpn$2$)i
0002:00003e70  W?append$:WCValListBase$::1npn$SymbolStruct$$1n$WCIsvSListBase$::1n$WCNIsvSLink$::1npn$2$$$1n$4::1npn$2$$n(rnxpn$2$)i
0002:00003ea0+ W?$ct:WCPtrListBase$::1n$cv_dir_entry$$1n$WCValSList$::1npn$1$$n(pn(ui)pnvpn(pnvui)v)_
0002:00003f50  W?$ct:WCPtrListBase$::1n$LFTypeRecord$$1n$WCValSList$::1npn$1$$n(pn(ui)pnvpn(pnvui)v)_
0002:00004000  W?$ct:WCPtrListBase$::1n$SymbolStruct$$1n$WCValSList$::1npn$1$$n(pn(ui)pnvpn(pnvui)v)_
0002:000040b0+ W?$ct:WCValSList$::1npn$cv_dir_entry$$n(pn(ui)pnvpn(pnvui)v)_
0002:00004160  W?$ct:WCValSList$::1npn$LFTypeRecord$$n(pn(ui)pnvpn(pnvui)v)_
0002:00004210  W?$ct:WCValSList$::1npn$SymbolStruct$$n(pn(ui)pnvpn(pnvui)v)_
0002:000042c0  W?$ct:WCBareVectorBase$::1n$__304un0mappingStruct$:TypeIndexMap$$n(ui)_
0002:00004350  W?resize$:WCBareVectorBase$::1n$__304un0mappingStruct$:TypeIndexMap$$n(ui)i
0002:00004430  W?$ct:WCBareVectorBase$::1npnvn(ui)_
0002:000044c0  W?base_insert_at$:WCVectorBase$::1npnvn(irnxpnv)i
0002:000045b0  W?$ct:WCOrderedVectorBase$::1npnvn(uiui)_
0002:00004630+ W?$ct:WCValListBase$::1npn$cv_dir_entry$$1n$WCIsvSListBase$::1n$WCNIsvSLink$::1npn$1$$$1n$3::1npn$1$$n(pn(ui)pnvpn(pnvui)v)_
0002:000046d0  W?get$:WCValListBase$::1npn$cv_dir_entry$$1n$WCIsvSListBase$::1n$WCNIsvSLink$::1npn$2$$$1n$4::1npn$2$$n(i)pn$2$
0002:00004700  W?get$:WCValListBase$::1npn$LFSubField$$1n$WCIsvSListBase$::1n$WCNIsvSLink$::1npn$2$$$1n$4::1npn$2$$n(i)pn$2$
0002:00004730  W?get$:WCValListBase$::1npn$my_ct_mlist$$1n$WCIsvSListBase$::1n$WCNIsvSLink$::1npn$2$$$1n$4::1npn$2$$n(i)pn$2$
0002:00004760  W?WCListNew$:WCValListBase$::1nus1n$WCIsvSListBase$::1n$WCNIsvSLink$::1nus$$1n$3::1nus$n(rnxus)pn$3::1nus$
0002:000047a0  W?WCListNew$:WCValListBase$::1npn$LFGlobalTypeRecord$$1n$WCIsvSListBase$::1n$WCNIsvSLink$::1npn$2$$$1n$4::1npn$2$$n(rnxpn$2$)pn$4::1npn$2$$
0002:000047e0  W?$ct:WCValListBase$::1npn$LFTypeRecord$$1n$WCIsvSListBase$::1n$WCNIsvSLink$::1npn$1$$$1n$3::1npn$1$$n(pn(ui)pnvpn(pnvui)v)_
0002:00004880  W?WCListNew$:WCValListBase$::1npn$LFTypeRecord$$1n$WCIsvSListBase$::1n$WCNIsvSLink$::1npn$2$$$1n$4::1npn$2$$n(rnxpn$2$)pn$4::1npn$2$$
0002:000048c0  W?$ct:WCValListBase$::1npn$SymbolStruct$$1n$WCIsvSListBase$::1n$WCNIsvSLink$::1npn$1$$$1n$3::1npn$1$$n(pn(ui)pnvpn(pnvui)v)_
0002:00004960  W?WCListNew$:WCValListBase$::1npn$SymbolStruct$$1n$WCIsvSListBase$::1n$WCNIsvSLink$::1npn$2$$$1n$4::1npn$2$$n(rnxpn$2$)pn$4::1npn$2$$
0002:000049a0  W?get$:WCValListBase$::1npn$SymbolStruct$$1n$WCIsvSListBase$::1n$WCNIsvSLink$::1npn$2$$$1n$4::1npn$2$$n(i)pn$2$
0002:000049d0  W?get$:WCValListBase$::1npn$chain_table$:NameHashTable$$1n$WCIsvSListBase$::1n$WCNIsvSLink$::1npn$2:3$$$1n$5::1npn$2:3$$n(i)pn$2:3$
0002:00004a00  W?get$:WCValListBase$::1npn$offset_table$:AddrHashTable$$1n$WCIsvSListBase$::1n$WCNIsvSLink$::1npn$2:3$$$1n$5::1npn$2:3$$n(i)pn$2:3$
0002:00004a30  W?$ct:WCVectorBase$::1npnvn(uiui)_
0002:00004aa0+ W?$ct:WCIsvSListBase$::1n$WCNIsvSLink$::1npn$cv_dir_entry$$$n()_
0003:00001840  W?$Wvf0Co4:WCExcept$$nx[]pn()v
0003:00001850  W?$Wvf0Ho4:WCIsvListBase$$nx[]pn()v
0003:00001860  W?$Wvf0Dos:TypeArray$$nx[]pn()v
0003:00001870  W?$Wvf0Jos:GlobalTypeArray$$nx[]pn()v
0003:00001880+ W?$Wvf0Ios:LocalTypeArray$$nx[]pn()v
0003:00001890+ W?$Wvf0Jo6e:SstGlobalTypes$$nx[]pn()v
0003:000018a0  W?$Wvf0Do0:MiscError$$nx[]pn()v
0003:000018b0  W?$Wvf0Fo0:OutOfMemory$$nx[]pn()v
0003:000018c0  W?$Wvf0Do0:FileError$$nx[]pn()v
0003:000018d0  W?$Wvf0Ho0:RetrieveError$$nx[]pn()v
0003:000018e0  W?$Wvf0Fo0:CVpackError$$nx[]pn()v
0003:000018f0  W?$Wvf10o4:WCBareVectorBase$::1n$__304un0mappingStruct$:TypeIndexMap$$$nx[]pn()v
0003:00001900  W?$Wvf0Ro4:WCBareVectorBase$::1npnv$nx[]pn()v
0003:00001910  W?$Wvf0No4:WCVectorBase$::1npnv$nx[]pn()v
0003:00001930  W?$Wvf0Uo4:WCOrderedVectorBase$::1npnv$nx[]pn()v
0003:00001950  W?$Wvf17o4:WCPtrVectorBase$::1n$LFTypeRecord$$1n$WCOrderedVectorBase$::1npnv$$nx[]pn()v
0003:00001970  W?$Wvf0vo4:WCValVector$::1n$__304un0mappingStruct$:TypeIndexMap$$$nx[]pn()v
0003:00001980+ W?$Wvf0Mo4:WCValVector$::1npnv$nx[]pn()v
0003:00001990+ W?$Wvf0Yo4:WCPtrVector$::1n$SymbolStruct$$$nx[]pn()v
0003:000019a0  W?$Wvf0fo4:WCPtrOrderedVector$::1n$LFTypeRecord$$$nx[]pn()v
0003:000019c0  W?$Wvf10o4:MyValBoundVector$::1n$__304un0mappingStruct$:TypeIndexMap$$$nx[]pn()v
0003:000019d0  W?$Wvf0vo4:WCIsvSListBase$::1n$WCNIsvSLink$::1npn$cv_dir_entry$$$$nx[]pn()v
0003:000019e0  W?$Wvf0to4:WCIsvSListBase$::1n$WCNIsvSLink$::1npn$LFSubField$$$$nx[]pn()v
0003:000019f0  W?$Wvf0uo4:WCIsvSListBase$::1n$WCNIsvSLink$::1npn$my_ct_mlist$$$$nx[]pn()v
0003:00001a00  W?$Wvf0go4:WCIsvSListBase$::1n$WCNIsvSLink$::1nus$$nx[]pn()v
0003:00001a10  W?$Wvf11o4:WCIsvSListBase$::1n$WCNIsvSLink$::1npn$LFGlobalTypeRecord$$$$nx[]pn()v
0003:00001a20  W?$Wvf0vo4:WCIsvSListBase$::1n$WCNIsvSLink$::1npn$LFTypeRecord$$$$nx[]pn()v
0003:00001a30  W?$Wvf0vo4:WCIsvSListBase$::1n$WCNIsvSLink$::1npn$SymbolStruct$$$$nx[]pn()v
0003:00001a40  W?$Wvf19o4:WCIsvSListBase$::1n$WCNIsvSLink$::1npn$chain_table$:NameHashTable$$$$nx[]pn()v
0003:00001a50  W?$Wvf1Ao4:WCIsvSListBase$::1n$WCNIsvSLink$::1npn$offset_table$:AddrHashTable$$$$nx[]pn()v
0003:00001a60  W?$Wvf1ao4:WCValListBase$::1npn$cv_dir_entry$$1n$WCIsvSListBase$::1n$WCNIsvSLink$::1npn$1$$$1n$3::1npn$1$$$nx[]pn()v
0003:00001a70  W?$Wvf1Yo4:WCValListBase$::1npn$LFSubField$$1n$WCIsvSListBase$::1n$WCNIsvSLink$::1npn$1$$$1n$3::1npn$1$$$nx[]pn()v
0003:00001a80  W?$Wvf1Zo4:WCValListBase$::1npn$my_ct_mlist$$1n$WCIsvSListBase$::1n$WCNIsvSLink$::1npn$1$$$1n$3::1npn$1$$$nx[]pn()v
0003:00001a90  W?$Wvf1Fo4:WCValListBase$::1nus1n$WCIsvSListBase$::1n$WCNIsvSLink$::1nus$$1n$2::1nus$$nx[]pn()v
0003:00001aa0  W?$Wvf1go4:WCValListBase$::1npn$LFGlobalTypeRecord$$1n$WCIsvSListBase$::1n$WCNIsvSLink$::1npn$1$$$1n$3::1npn$1$$$nx[]pn()v
0003:00001ab0  W?$Wvf1ao4:WCValListBase$::1npn$LFTypeRecord$$1n$WCIsvSListBase$::1n$WCNIsvSLink$::1npn$1$$$1n$3::1npn$1$$$nx[]pn()v
0003:00001ac0  W?$Wvf1ao4:WCValListBase$::1npn$SymbolStruct$$1n$WCIsvSListBase$::1n$WCNIsvSLink$::1npn$1$$$1n$3::1npn$1$$$nx[]pn()v
0003:00001ad0  W?$Wvf1so4:WCValListBase$::1npn$chain_table$:NameHashTable$$1n$WCIsvSListBase$::1n$WCNIsvSLink$::1npn$1:2$$$1n$4::1npn$1:2$$$nx[]pn()v
0003:00001ae0  W?$Wvf1to4:WCValListBase$::1npn$offset_table$:AddrHashTable$$1n$WCIsvSListBase$::1n$WCNIsvSLink$::1npn$1:2$$$1n$4::1npn$1:2$$$nx[]pn()v
0003:00001af0+ W?$Wvf0yo4:WCPtrListBase$::1n$cv_dir_entry$$1n$WCValSList$::1npn$1$$$nx[]pn()v
0003:00001b00  W?$Wvf0yo4:WCPtrListBase$::1n$LFTypeRecord$$1n$WCValSList$::1npn$1$$$nx[]pn()v
0003:00001b10  W?$Wvf0yo4:WCPtrListBase$::1n$SymbolStruct$$1n$WCValSList$::1npn$1$$$nx[]pn()v
0003:00001b20+ W?$Wvf0Zo4:WCValSList$::1npn$cv_dir_entry$$$nx[]pn()v
0003:00001b30  W?$Wvf0Zo4:WCValSList$::1npn$LFTypeRecord$$$nx[]pn()v
0003:00001b40  W?$Wvf0Zo4:WCValSList$::1npn$SymbolStruct$$$nx[]pn()v
0003:00001b50+ W?$Wvf0Xo4:WCPtrSList$::1n$cv_dir_entry$$$nx[]pn()v
0003:00001b60  W?$Wvf0Xo4:WCPtrSList$::1n$LFTypeRecord$$$nx[]pn()v
0003:00001b70  W?$Wvf0Xo4:WCPtrSList$::1n$SymbolStruct$$$nx[]pn()v
0003:00001b80  W?$Wcm012$nx[]uc
0003:00001b90+ W?$Wcm014$nx[]uc
0003:00001ba0+ W?$Wcm016$nx[]uc
0003:00001bb0  W?$Wcm015$nx[]uc
0003:00001bc0+ W?$Wcm017$nx[]uc
0003:00001bd0  W?$Wcm013$nx[]uc
0003:00001be0+ W?$Wcm0212$nx[]uc
0003:00001bf0+ W?$Wcm0216$nx[]uc
0003:00001c00+ W?$Wcm0222$nx[]uc
0003:00001c10+ W?$Wcm0221$nx[]uc
0003:00001c20+ W?$Wcm0231$nx[]uc
0003:00001c30+ W?$Wcm0230$nx[]uc
0003:00001c40+ W?$Wcm0241$nx[]uc
0003:00001c50+ W?$Wcm0240$nx[]uc
0003:00001c60  W?$Wth0Hnrn$OutOfMemory$$$nx[]uc
0003:00001c80  W?$Wth0Fnrn$MiscError$$$nx[]uc
0003:00001ca0+ W?$Wth0Fnrn$FileError$$$nx[]uc
0003:00001cd0  W?$Wts0Cn$WCExcept$$$nx[]uc
0003:00001cf0  W?$Wts0Fn$CVpackError$$$nx[]uc
0003:00001d10  W?$Wts0Xn$WCPtrSList$::1n$LFTypeRecord$$$$nx[]uc
0003:00001d30  W?$Wts0Jn$GlobalTypeArray$$$nx[]uc
0003:00001d50+ W?$Wts0In$LocalTypeArray$$$nx[]uc
0003:00001d70+ W?$Wts0In$SstGlobalTypes$$$nx[]uc
0003:00001d90+ W?$Wts0Gn$TypeIndexMap$$$nx[]uc
0003:00001db0  W?$Wts0Fn$OutOfMemory$$$nx[]uc
0003:00001dd0  W?$Wts0Dn$MiscError$$$nx[]uc
0003:00001df0+ W?$Wts0Gn$SstGlobalSym$$$nx[]uc
0003:00001e10+ W?$Wts0Ln$SymbolDistributor$$$nx[]uc
0003:00001e30  W?$Wts0Hn$ifstream$:std$$$nx[]uc
0003:00001e50+ W?$Wts0Dn$FileError$$$nx[]uc
0003:00001e70  W?$Wts0Hn$RetrieveError$$$nx[]uc
0003:00001e90+ W?$Wts0An$CVpack$$$nx[]uc
0003:00001eb0  W?$Wts0vn$WCValVector$::1n$__304un0mappingStruct$:TypeIndexMap$$$$nx[]uc
0003:00001ed0+ W?$Wts0Mn$WCValVector$::1npnv$$nx[]uc
0003:00001ef0+ W?$Wts0Yn$WCPtrVector$::1n$SymbolStruct$$$$nx[]uc
0003:00001f10  W?$Wts0fn$WCPtrOrderedVector$::1n$LFTypeRecord$$$$nx[]uc
0003:00001f30  W?$Wts10n$MyValBoundVector$::1n$__304un0mappingStruct$:TypeIndexMap$$$$nx[]uc
0003:00001f50+ W?$Wts0Zn$WCValSList$::1npn$cv_dir_entry$$$$nx[]uc
0003:00001f70  W?$Wts0Zn$WCValSList$::1npn$LFTypeRecord$$$$nx[]uc
0003:00001f90  W?$Wts0Zn$WCValSList$::1npn$SymbolStruct$$$$nx[]uc
0003:00001fb0+ W?$Wts0Xn$WCPtrSList$::1n$cv_dir_entry$$$$nx[]uc
0003:00009cd8  W?$Wti0W$WCPtrSList$::1n$SymbolStruct$$$$n[]uc
0003:00009d00+ W?$Wti0W$WCPtrSList$::1n$cv_dir_entry$$$$n[]uc
0003:00009d28  W?$Wti0Y$WCValSList$::1npn$SymbolStruct$$$$n[]uc
0003:00009d50  W?$Wti0Y$WCValSList$::1npn$LFTypeRecord$$$$n[]uc
0003:00009d78+ W?$Wti0Y$WCValSList$::1npn$cv_dir_entry$$$$n[]uc
0003:00009da0  W?$Wti0z$MyValBoundVector$::1n$__304un0mappingStruct$:TypeIndexMap$$$$n[]uc
0003:00009de4  W?$Wti0e$WCPtrOrderedVector$::1n$LFTypeRecord$$$$n[]uc
0003:00009e14+ W?$Wti0X$WCPtrVector$::1n$SymbolStruct$$$$n[]uc
0003:00009e3c+ W?$Wti0L$WCValVector$::1npnv$$n[]uc
0003:00009e58  W?$Wti0u$WCValVector$::1n$__304un0mappingStruct$:TypeIndexMap$$$$n[]uc
0003:00009e98+ W?$Wti09$CVpack$$$n[]uc
0003:00009ea8  W?$Wti0G$RetrieveError$$$n[]uc
0003:00009ec0+ W?$Wti0C$FileError$$$n[]uc
0003:00009ed4  W?$Wti0G$ifstream$:std$$$n[]uc
0003:00009eec+ W?$Wti0K$SymbolDistributor$$$n[]uc
0003:00009f08+ W?$Wti0F$SstGlobalSym$$$n[]uc
0003:00009f1c  W?$Wti0C$MiscError$$$n[]uc
0003:00009f30  W?$Wti0E$OutOfMemory$$$n[]uc
0003:00009f44+ W?$Wti0F$TypeIndexMap$$$n[]uc
0003:00009f58+ W?$Wti0H$SstGlobalTypes$$$n[]uc
0003:00009f70+ W?$Wti0H$LocalTypeArray$$$n[]uc
0003:00009f88  W?$Wti0I$GlobalTypeArray$$$n[]uc
0003:00009fa0  W?$Wti0W$WCPtrSList$::1n$LFTypeRecord$$$$n[]uc
0003:00009fc8  W?$Wti0E$CVpackError$$$n[]uc
0002:00004b20  W?$ct:WCIsvSListBase$::1n$WCNIsvSLink$::1npn$LFTypeRecord$$$n()_
0002:00004ba0  W?$ct:WCIsvSListBase$::1n$WCNIsvSLink$::1npn$SymbolStruct$$$n()_
0002:00004c20  W?.tdtor$:ofstream$:std$n()pnv
0002:00004c30  W?.tdtor$:ifstream$:std$n()pnv
0002:00000560+ W?DoPublics$:CVpack$n(uiui)v
0002:000007c0+ W?DoLibraries$:CVpack$n()v
0002:00000840+ W?DoGlobalTypes$:CVpack$n(rn$SstGlobalTypes$$)v
0002:00000890+ W?CreatePackExe$:CVpack$n()v
0002:00000dc0  main_
0003:00001fd0  W?$Wts0Xn$WCPtrSList$::1n$SymbolStruct$$$$nx[]uc
0003:00009fdc  W?$Wti0B$WCExcept$$$n[]uc
0003:0000c7f0  W?TypeMap$n$TypeIndexMap$$
Module: retrieve.obj(/mnt/sda5/.user/root/src/openwatcom-1.9/bld/cvpack/cpp/retrieve.cpp)
0002:00005480+ W?$ct:DebugInfoError$n()_
0002:00005490+ W?$dt:DebugInfoError$n()_
0002:000054a0  W?$dt:InternalError$n()_
0002:00004c40  W?$ra:cv_dir_entry$n.x(rnx$0$)q
0002:00004c60+ W?$ct:Directory$n(rn$ifstream$:std$$l)_
0002:00004d30* W?CompMod$:Directory$n(ulul)i
0002:00004d50+ W?CompSub$:Directory$n(usus)i
0002:00004d80+ W?IsModule$:Directory$n(us)q
0002:00004da0+ W?IsModuleBasis$:Directory$n(usus)q
0002:00004dc0+ W?Compare$:Directory$n(pnxvpnxv)i
0002:00004e20+ W?GetDirInfo$:Directory$n(rn$__2c62hldir_info$$$$TE$$ul)q
0002:00004e70+ W?IsAtSubsection$:Directory$n($$TE$$)q
0002:00004e90  W?$dt:Directory$n()_
0002:00004ec0+ W?GetBasePos$:Retriever$n()l
0002:00004f40+ W?GetPEDebugDirCVEntryPos$:Retriever$n()l
0002:00004fc0+ W?GetDirPos$:Retriever$n()l
0002:00005020  W?SeekRead$:Retriever$n(pnvlui)ul
0002:000050e0  W?$ct:Retriever$n(rn$ifstream$:std$$)_
0002:000051d0+ W?CheckSig$:Retriever$n()v
0002:00005260+ W?LocalPageOff$:Retriever$n.x(ul)ul
0002:00005270* W?IsCrossPage$:Retriever$n.x(rnx$__2c62hldir_info$$)q
0002:00005290+ W?ReadPage$:Retriever$n(ul)v
0002:000052d0* W?IsInCurrentPage$:Retriever$n.x(ul)q
0002:000052f0* W?Read$:Retriever$n(rnx$__2c62hldir_info$$)pna
0002:000054f0  W?$ct:InternalError$n(rnx$0$)_
0002:00005510+ W?$ct:CVSigError$n()_
0002:00005520+ W?$ct:CVSigError$n(rnx$0$)_
0002:00005530+ W?$dt:CVSigError$n()_
0002:00005540+ W?$ct:DebugInfoError$n(rnx$0$)_
0003:00002030+ W?$Wvf0Io0:DebugInfoError$$nx[]pn()v
0003:00002040  W?$Wvf0Ho0:InternalError$$nx[]pn()v
0003:00002050+ W?$Wvf0Eo0:CVSigError$$nx[]pn()v
0003:00002060  W?$Wth0Jnrn$InternalError$$$nx[]uc
0003:00002080+ W?$Wth0Knrn$DebugInfoError$$$nx[]uc
0003:000020b0+ W?$Wth0Gnrn$CVSigError$$$nx[]uc
0003:000020e0  W?$Wts0Hn$InternalError$$$nx[]uc
0003:00002100+ W?$Wts0In$DebugInfoError$$$nx[]uc
0003:0000a010+ W?$Wti0D$CVSigError$$$n[]uc
0003:0000a030+ W?$Wti0H$DebugInfoError$$$n[]uc
0002:000053a0  W?ReadSubsection$:Retriever$n(rnpnarnul$$TE$$ul)q
0002:00005460  W?IsAtSubsection$:Retriever$n($$TE$$)q
0003:00002120+ W?$Wts0En$CVSigError$$$nx[]uc
0003:0000a050  W?$Wti0G$InternalError$$$n[]uc
0003:00009ff0+ W?_orderTable$:Directory$n[]uc
0003:0000c810+ W?_inputBuffer$:Retriever$n[]a
Module: cverror.obj(/mnt/sda5/.user/root/src/openwatcom-1.9/bld/cvpack/cpp/cverror.cpp)
0002:00005550  W?ErrorPrint$:CVpackError$n.x()v
0002:00005570  W?ErrorPrint$:RetrieveError$n.x()v
0002:000055a0  W?ErrorPrint$:WriteError$n.x()v
0002:000055d0  W?$ct:FileError$n(pnxa)_
0002:000055e0  W?ErrorPrint$:FileError$n.x()v
0002:00005610  W?ErrorPrint$:DebugInfoError$n.x()v
0002:00005640  W?ErrorPrint$:CVSigError$n.x()v
0002:00005670  W?$ct:OutOfMemory$n(ui)_
0002:00005680  W?ErrorPrint$:OutOfMemory$n.x()v
0002:000056b0  W?$ct:InternalError$n(pnxa)_
0002:000056c0  W?ErrorPrint$:InternalError$n.x()v
0002:000056f0  W?$ct:MiscError$n(pnxa)_
0002:00005700  W?ErrorPrint$:MiscError$n.x()v
Module: packtype.obj(/mnt/sda5/.user/root/src/openwatcom-1.9/bld/cvpack/cpp/packtype.cpp)
0002:00009600  W?$ct:WCIterExcept$n()_
0002:00009610  W?$dt:WCIterExcept$n()_
0002:00009690  W?$ct:WCListIterBase$n(pn$WCIsvListBase$$)_
0002:00009700  W?$dt:WCListIterBase$n()_
0002:00009750  W?$dt:VariantString$n()_
0002:00009770+ W?$dt:LFLeafStruct$n()_
0002:00009820+ W?FixTypeIndex$:LFLeafStruct$n()v
0002:00009830+ W?IsEqual$:LFLeafStruct$n.x(rnx$1$)q
0002:00009840+ W?DerivedPut$:LFLeafStruct$n.x(rn$ExeMaker$$)v
0002:00009850+ W?$dt:LFSubField$n()_
0002:00009900+ W?FixTypeIndex$:LFSubField$n()v
0002:00009910+ W?IsSubFieldEqual$:LFSubField$n.x(rnx$1$)q
0002:00009920+ W?DerivedPut$:LFSubField$n.x(rn$ExeMaker$$)v
0002:00009930+ W?$ct:LFNotTrans$n()_
0002:000099a0+ W?$dt:LFNotTrans$n()_
0002:00009a50+ W?$ct:LFNull$n()_
0002:00009ac0+ W?$dt:LFNull$n()_
0002:00009b70+ W?$dt:LFModifier$n()_
0002:00009c20+ W?$dt:LFPointer$n()_
0002:00009cd0+ W?$dt:LFArray$n()_
0002:00009d80+ W?$dt:LFClass$n()_
0002:00009e30+ W?$dt:LFUnion$n()_
0002:00009ee0+ W?$dt:LFEnum$n()_
0002:00009f90+ W?$dt:LFProcedure$n()_
0002:0000a040+ W?$dt:LFMFunction$n()_
0002:0000a0f0+ W?$dt:LFVtShape$n()_
0002:0000a1a0+ W?$dt:LFCobol0$n()_
0002:0000a250+ W?$dt:LFCobol1$n()_
0002:0000a300+ W?$dt:LFBArray$n()_
0002:0000a3b0+ W?$dt:LFLabel$n()_
0002:0000a460+ W?$dt:LFDimArray$n()_
0002:0000a510+ W?$dt:LFVftPath$n()_
0002:0000a5d0+ W?$dt:LFArgList$n()_
0002:0000a690+ W?$dt:LFDefArg$n()_
0002:0000a740+ W?$dt:LFFieldList$n()_
0002:0000a850+ W?$dt:LFDerived$n()_
0002:0000a910+ W?$dt:LFBitField$n()_
0002:0000a9c0+ W?$dt:LFMethodList$n()_
0002:0000aaa0+ W?$dt:LFDimConu$n()_
0002:0000ab50+ W?$dt:LFDimConlu$n()_
0002:0000ac00+ W?$dt:LFBClass$n()_
0002:0000acb0+ W?$dt:LFVBClass$n()_
0002:0000ad60+ W?$dt:LFEnumerate$n()_
0002:0000ae10+ W?$dt:LFFriendFcn$n()_
0002:0000aec0+ W?$dt:LFIndex$n()_
0002:0000af70+ W?$dt:LFMember$n()_
0002:0000b020+ W?$dt:LFMethod$n()_
0002:0000b0d0+ W?$dt:LFNestedType$n()_
0002:0000b180+ W?$dt:LFVFuncTab$n()_
0002:0000b230+ W?$dt:LFFriendCls$n()_
0002:0000b2e0+ W?$dt:LFOneMethod$n()_
0002:0000b390+ W?$dt:LFVFuncOff$n()_
0002:00005820* W?$ra:LFLeafStruct$n.x(rnx$0$)q
0002:00005840+ W?$ra:LFSubField$n.x(rnx$0$)q
0002:00005860+ W?$ra:my_ct_mlist$n.x(rnx$0$)q
0002:00005880+ W?$ct:LFLeafStruct$n(uspnxaui)_
0002:000058d0  W?IsEquivalent$:LFLeafStruct$n.x(rnx$1$)q
0002:00005920  W?Error$:LFLeafStruct$n(pnxaui)pn$1$
0002:00005940  W?SetLocalTypeArray$:LFLeafStruct$n(rn$TypeArray$$)v
0002:00005950  W?SetGlobalTypeArray$:LFLeafStruct$n(rn$TypeArray$$)v
0002:00005960  W?Put$:LFLeafStruct$n.x(rn$ExeMaker$$)v
0002:000059a0+ W?TypeEqual$:LFLeafStruct$n(usus)q
0002:00005a50+ W?TypeListEqual$:LFLeafStruct$n(pnxuspnxusui)q
0002:00005a80+ W?AttrEqual$:LFLeafStruct$n($cv_fldattr$$$2$)q
0002:00005b00+ W?AttrEqual$:LFLeafStruct$n($cv_attrib$$$2$)q
0002:00005b50+ W?AttrEqual$:LFLeafStruct$n($cv_ptrattr$$$2$)q
0002:00005bf0+ W?AttrEqual$:LFLeafStruct$n($cv_sprop$$$2$)q
0002:00005ce0+ W?$ct:LFSubField$n(usuipnxaui)_
0002:00005d50+ W?IsEqual$:LFModifier$n.x(rnx$LFLeafStruct$$)q
0002:00005d90+ W?IsEqual$:LFPointer$n.x(rnx$LFLeafStruct$$)q
0002:00005de0+ W?IsEqual$:LFArray$n.x(rnx$LFLeafStruct$$)q
0002:00005e20+ W?IsEqual$:LFClass$n.x(rnx$LFLeafStruct$$)q
0002:00005e70+ W?IsEqual$:LFUnion$n.x(rnx$LFLeafStruct$$)q
0002:00005eb0+ W?IsEqual$:LFEnum$n.x(rnx$LFLeafStruct$$)q
0002:00005f00+ W?IsEqual$:LFProcedure$n.x(rnx$LFLeafStruct$$)q
0002:00005f50+ W?IsEqual$:LFMFunction$n.x(rnx$LFLeafStruct$$)q
0002:00005fc0+ W?IsEqual$:LFLabel$n.x(rnx$LFLeafStruct$$)q
0002:00005fc0+ W?IsEqual$:LFVtShape$n.x(rnx$LFLeafStruct$$)q
0002:00005fd0+ W?IsEqual$:LFDefArg$n.x(rnx$LFLeafStruct$$)q
0002:00005fd0+ W?IsEqual$:LFBArray$n.x(rnx$LFLeafStruct$$)q
0002:00005fd0+ W?IsEqual$:LFCobol0$n.x(rnx$LFLeafStruct$$)q
0002:00005ff0+ W?IsEqual$:LFDimArray$n.x(rnx$LFLeafStruct$$)q
0002:00006030+ W?IsEqual$:LFVftPath$n.x(rnx$LFLeafStruct$$)q
0002:00006060+ W?IsEqual$:LFArgList$n.x(rnx$LFLeafStruct$$)q
0002:00006090+ W?IsEqual$:LFDerived$n.x(rnx$LFLeafStruct$$)q
0002:000060c0+ W?IsEqual$:LFBitField$n.x(rnx$LFLeafStruct$$)q
0002:000060f0+ W?IsEqual$:LFMethodList$n.x(rnx$LFLeafStruct$$)q
0002:000062a0+ W?IsEqual$:LFDimConu$n.x(rnx$LFLeafStruct$$)q
0002:000062d0+ W?IsEqual$:LFDimConlu$n.x(rnx$LFLeafStruct$$)q
0002:00006300+ W?IsSubFieldEqual$:LFBClass$n.x(rnx$LFSubField$$)q
0002:00006340+ W?IsSubFieldEqual$:LFVBClass$n.x(rnx$LFSubField$$)q
0002:00006390+ W?IsSubFieldEqual$:LFEnumerate$n.x(rnx$LFSubField$$)q
0002:000063b0+ W?IsSubFieldEqual$:LFFriendCls$n.x(rnx$LFSubField$$)q
0002:000063b0+ W?IsSubFieldEqual$:LFVFuncTab$n.x(rnx$LFSubField$$)q
0002:000063b0+ W?IsSubFieldEqual$:LFNestedType$n.x(rnx$LFSubField$$)q
0002:000063b0+ W?IsSubFieldEqual$:LFIndex$n.x(rnx$LFSubField$$)q
0002:000063b0+ W?IsSubFieldEqual$:LFFriendFcn$n.x(rnx$LFSubField$$)q
0002:000063d0+ W?IsSubFieldEqual$:LFMember$n.x(rnx$LFSubField$$)q
0002:00006410+ W?IsSubFieldEqual$:LFMethod$n.x(rnx$LFSubField$$)q
0002:00006440+ W?IsSubFieldEqual$:LFOneMethod$n.x(rnx$LFSubField$$)q
0002:00006480+ W?IsSubFieldEqual$:LFVFuncOff$n.x(rnx$LFSubField$$)q
0002:000064b0+ W?IsEqual$:LFSubField$n.x(rnx$LFLeafStruct$$)q
0002:000064d0+ W?IsEqual$:LFFieldList$n.x(rnx$LFLeafStruct$$)q
0002:00006640+ W?FixTypeList$:LFLeafStruct$n(pnusui)v
0002:00006670+ W?FixTypeIndex$:LFModifier$n()v
0002:00006690+ W?FixTypeIndex$:LFPointer$n()v
0002:000066b0+ W?FixTypeIndex$:LFArray$n()v
0002:000066e0+ W?FixTypeIndex$:LFClass$n()v
0002:00006720+ W?FixTypeIndex$:LFUnion$n()v
0002:00006740+ W?FixTypeIndex$:LFEnum$n()v
0002:00006770+ W?FixTypeIndex$:LFProcedure$n()v
0002:000067a0+ W?FixTypeIndex$:LFMFunction$n()v
0002:000067f0+ W?FixTypeIndex$:LFCobol0$n()v
0002:00006810+ W?FixTypeIndex$:LFCobol1$n()v
0002:00006820+ W?FixTypeIndex$:LFBArray$n()v
0002:00006840+ W?FixTypeIndex$:LFLabel$n()v
0002:00006850+ W?FixTypeIndex$:LFDimArray$n()v
0002:00006880+ W?FixTypeIndex$:LFVftPath$n()v
0002:00006890+ W?FixTypeIndex$:LFArgList$n()v
0002:000068a0+ W?FixTypeIndex$:LFDefArg$n()v
0002:000068c0+ W?FixTypeIndex$:LFFieldList$n()v
0002:00006990+ W?FixTypeIndex$:LFDerived$n()v
0002:000069a0+ W?FixTypeIndex$:LFBitField$n()v
0002:000069c0+ W?FixTypeIndex$:LFMethodList$n()v
0002:00006aa0+ W?FixTypeIndex$:LFDimConu$n()v
0002:00006ac0+ W?FixTypeIndex$:LFDimConlu$n()v
0002:00006ae0+ W?FixTypeIndex$:LFBClass$n()v
0002:00006b00+ W?FixTypeIndex$:LFVBClass$n()v
0002:00006b30+ W?FixTypeIndex$:LFEnumerate$n()v
0002:00006b40+ W?FixTypeIndex$:LFFriendFcn$n()v
0002:00006b60+ W?FixTypeIndex$:LFIndex$n()v
0002:00006b80+ W?FixTypeIndex$:LFMember$n()v
0002:00006ba0+ W?FixTypeIndex$:LFMethod$n()v
0002:00006bc0+ W?FixTypeIndex$:LFNestedType$n()v
0002:00006be0+ W?FixTypeIndex$:LFVFuncTab$n()v
0002:00006c00+ W?FixTypeIndex$:LFFriendCls$n()v
0002:00006c20+ W?FixTypeIndex$:LFOneMethod$n()v
0002:00006c40+ W?FixTypeIndex$:LFVFuncOff$n()v
0002:00006c60  W?Construct$:LFNotTrans$n(pnxaui)pn$LFLeafStruct$$
0002:00006d10  W?Construct$:LFNull$n(pnxaui)pn$LFLeafStruct$$
0002:00006dc0  W?Construct$:LFModifier$n(pnxaui)pn$LFLeafStruct$$
0002:00006e90  W?Construct$:LFPointer$n(pnxaui)pn$LFLeafStruct$$
0002:00006fb0  W?Construct$:LFArray$n(pnxaui)pn$LFLeafStruct$$
0002:00007080  W?Construct$:LFClass$n(pnxaui)pn$LFLeafStruct$$
0002:00007170  W?Construct$:LFUnion$n(pnxaui)pn$LFLeafStruct$$
0002:00007250  W?Construct$:LFEnum$n(pnxaui)pn$LFLeafStruct$$
0002:00007340  W?Construct$:LFProcedure$n(pnxaui)pn$LFLeafStruct$$
0002:00007420  W?Construct$:LFMFunction$n(pnxaui)pn$LFLeafStruct$$
0002:00007520  W?Construct$:LFVtShape$n(pnxaui)pn$LFLeafStruct$$
0002:000075e0  W?Construct$:LFCobol0$n(pnxaui)pn$LFLeafStruct$$
0002:000076a0  W?Construct$:LFCobol1$n(pnxaui)pn$LFLeafStruct$$
0002:00007760  W?Construct$:LFBArray$n(pnxaui)pn$LFLeafStruct$$
0002:00007820  W?Construct$:LFLabel$n(pnxaui)pn$LFLeafStruct$$
0002:000078e0  W?Construct$:LFDimArray$n(pnxaui)pn$LFLeafStruct$$
0002:000079b0  W?Construct$:LFVftPath$n(pnxaui)pn$LFLeafStruct$$
0002:00007ab0  W?Construct$:LFArgList$n(pnxaui)pn$LFLeafStruct$$
0002:00007bb0  W?Construct$:LFDefArg$n(pnxaui)pn$LFLeafStruct$$
0002:00007c70  W?Construct$:LFDerived$n(pnxaui)pn$LFLeafStruct$$
0002:00007d70  W?Construct$:LFBitField$n(pnxaui)pn$LFLeafStruct$$
0002:00007e40  W?Construct$:LFMethodList$n(pnxaui)pn$LFLeafStruct$$
0002:00007ff0  W?Construct$:LFDimConu$n(pnxaui)pn$LFLeafStruct$$
0002:000080c0  W?Construct$:LFDimConlu$n(pnxaui)pn$LFLeafStruct$$
0002:00008190+ W?$ct:LFFieldList$n(pnxaui)_
0002:00008290+ W?ConvertIndex$:LFFieldList$n(us)ui
0002:000082d0  W?Construct$:LFFieldList$n(pnxaui)pn$LFLeafStruct$$
0002:00008350+ W?Error$:LFSubField$n(pnxa)pn$1$
0002:00008380+ W?PadLen$:LFSubField$n(pnxa)uc
0002:000083a0+ W?Construct$:LFBClass$n(pnxa)pn$LFSubField$$
0002:00008490+ W?Construct$:LFVBClass$n(pnxa)pn$LFSubField$$
0002:00008590+ W?Construct$:LFEnumerate$n(pnxa)pn$LFSubField$$
0002:00008690+ W?Construct$:LFFriendFcn$n(pnxa)pn$LFSubField$$
0002:00008770+ W?Construct$:LFIndex$n(pnxa)pn$LFSubField$$
0002:00008840+ W?Construct1$:LFMember$n(pnxa)pn$LFSubField$$
0002:00008940+ W?Construct2$:LFMember$n(pnxa)pn$LFSubField$$
0002:00008a30+ W?Construct$:LFMethod$n(pnxa)pn$LFSubField$$
0002:00008b20+ W?Construct$:LFNestedType$n(pnxa)pn$LFSubField$$
0002:00008c00+ W?Construct$:LFVFuncTab$n(pnxa)pn$LFSubField$$
0002:00008cd0+ W?Construct$:LFFriendCls$n(pnxa)pn$LFSubField$$
0002:00008da0+ W?Construct$:LFOneMethod$n(pnxa)pn$LFSubField$$
0002:00008e90+ W?Construct$:LFVFuncOff$n(pnxa)pn$LFSubField$$
0002:00008f60+ W?DerivedPut$:LFNotTrans$n.x(rn$ExeMaker$$)v
0002:00008f80+ W?DerivedPut$:LFNull$n.x(rn$ExeMaker$$)v
0002:00008fa0+ W?DerivedPut$:LFModifier$n.x(rn$ExeMaker$$)v
0002:00008fc0+ W?DerivedPut$:LFPointer$n.x(rn$ExeMaker$$)v
0002:00009010+ W?DerivedPut$:LFArray$n.x(rn$ExeMaker$$)v
0002:00009030+ W?DerivedPut$:LFClass$n.x(rn$ExeMaker$$)v
0002:00009050+ W?DerivedPut$:LFUnion$n.x(rn$ExeMaker$$)v
0002:00009070+ W?DerivedPut$:LFEnum$n.x(rn$ExeMaker$$)v
0002:00009090+ W?DerivedPut$:LFProcedure$n.x(rn$ExeMaker$$)v
0002:000090b0+ W?DerivedPut$:LFMFunction$n.x(rn$ExeMaker$$)v
0002:000090d0+ W?DerivedPut$:LFVtShape$n.x(rn$ExeMaker$$)v
0002:000090f0+ W?DerivedPut$:LFCobol0$n.x(rn$ExeMaker$$)v
0002:00009110+ W?DerivedPut$:LFBArray$n.x(rn$ExeMaker$$)v
0002:00009130+ W?DerivedPut$:LFLabel$n.x(rn$ExeMaker$$)v
0002:00009150+ W?DerivedPut$:LFDimArray$n.x(rn$ExeMaker$$)v
0002:00009170+ W?DerivedPut$:LFVftPath$n.x(rn$ExeMaker$$)v
0002:000091a0+ W?DerivedPut$:LFArgList$n.x(rn$ExeMaker$$)v
0002:000091d0+ W?DerivedPut$:LFDefArg$n.x(rn$ExeMaker$$)v
0002:000091f0+ W?DerivedPut$:LFFieldList$n.x(rn$ExeMaker$$)v
0002:000092d0+ W?DerivedPut$:LFDerived$n.x(rn$ExeMaker$$)v
0002:00009300+ W?DerivedPut$:LFBitField$n.x(rn$ExeMaker$$)v
0002:00009320+ W?DerivedPut$:LFMethodList$n.x(rn$ExeMaker$$)v
0002:00009440+ W?DerivedPut$:LFDimConu$n.x(rn$ExeMaker$$)v
0002:00009460+ W?DerivedPut$:LFDimConlu$n.x(rn$ExeMaker$$)v
0002:00009480+ W?DerivedPut$:LFBClass$n.x(rn$ExeMaker$$)v
0002:000094a0+ W?DerivedPut$:LFVBClass$n.x(rn$ExeMaker$$)v
0002:000094c0+ W?DerivedPut$:LFEnumerate$n.x(rn$ExeMaker$$)v
0002:000094e0+ W?DerivedPut$:LFFriendFcn$n.x(rn$ExeMaker$$)v
0002:00009500+ W?DerivedPut$:LFIndex$n.x(rn$ExeMaker$$)v
0002:00009520+ W?DerivedPut$:LFMember$n.x(rn$ExeMaker$$)v
0002:00009540+ W?DerivedPut$:LFMethod$n.x(rn$ExeMaker$$)v
0002:00009560+ W?DerivedPut$:LFNestedType$n.x(rn$ExeMaker$$)v
0002:00009580+ W?DerivedPut$:LFVFuncTab$n.x(rn$ExeMaker$$)v
0002:000095a0+ W?DerivedPut$:LFFriendCls$n.x(rn$ExeMaker$$)v
0002:0000b510+ W?$ct:__2ghtsf$:cv_sprop$n(rnx$0:1$)_
0002:0000b5a0+ W?$ct:__902tsf$:cv_fldattr$n(rnx$0:1$)_
0002:0000b5f0+ W?$ct:__101t1f$:cv_ptrattr$n(rnx$0:1$)_
0002:0000b660+ W?$ct:__ru3sof$:cv_attrib$n(rnx$0:1$)_
0002:0000b6b0+ W?$dt:WCPtrListBase$::1n$LFSubField$$1n$WCValSList$::1npn$1$$n()_
0002:0000b720+ W?$dt:WCPtrListBase$::1n$my_ct_mlist$$1n$WCValSList$::1npn$1$$n()_
0002:0000b790+ W?base_equivalent$:WCValSList$::1npn$LFSubField$$n.x(rnxpn$2$rnxpn$2$)i
0002:0000b7a0+ W?$dt:WCValSList$::1npn$LFSubField$$n()_
0002:0000b840+ W?base_equivalent$:WCValSList$::1npn$my_ct_mlist$$n.x(rnxpn$2$rnxpn$2$)i
0002:0000b850+ W?$dt:WCValSList$::1npn$my_ct_mlist$$n()_
0002:0000b8f0+ W?base_equivalent$:WCPtrSList$::1n$LFSubField$$n.x(rnxpn$2$rnxpn$2$)i
0002:0000b900+ W?$ct:WCPtrSList$::1n$LFSubField$$n()_
0002:0000b9a0+ W?$dt:WCPtrSList$::1n$LFSubField$$n()_
0002:0000ba60+ W?base_equivalent$:WCPtrSList$::1n$my_ct_mlist$$n.x(rnxpn$2$rnxpn$2$)i
0002:0000ba70+ W?$ct:WCPtrSList$::1n$my_ct_mlist$$n()_
0002:0000bb10+ W?$dt:WCPtrSList$::1n$my_ct_mlist$$n()_
0002:0000bbd0+ W?$dt:WCValListIterBase$::1npn$my_ct_mlist$$1n$WCPtrSList$::1n$1$$1n$WCNIsvSLink$::1npn$1$$n()_
0002:0000bc30+ W?current$:WCValListIterBase$::1npn$my_ct_mlist$$1n$WCPtrSList$::1n$2$$1n$WCNIsvSLink$::1npn$2$$n.x()pn$2$
0002:0000bc50+ W?$dt:WCValListIterBase$::1npn$LFSubField$$1n$WCPtrSList$::1n$1$$1n$WCNIsvSLink$::1npn$1$$n()_
0002:0000bcb0+ W?current$:WCValListIterBase$::1npn$LFSubField$$1n$WCPtrSList$::1n$2$$1n$WCNIsvSLink$::1npn$2$$n.x()pn$2$
0002:0000bcd0+ W?$dt:WCPtrSListIter$::1n$my_ct_mlist$$n()_
0002:0000bd70+ W?$dt:WCPtrSListIter$::1n$LFSubField$$n()_
0002:0000be10+ W?$dt:WCPtrConstSListIter$::1n$my_ct_mlist$$n()_
0002:0000bed0+ W?$dt:WCPtrConstSListIter$::1n$LFSubField$$n()_
0002:0000bf90+ W?append$:WCValListBase$::1npn$LFSubField$$1n$WCIsvSListBase$::1n$WCNIsvSLink$::1npn$2$$$1n$4::1npn$2$$n(rnxpn$2$)i
0002:0000bfc0+ W?append$:WCValListBase$::1npn$my_ct_mlist$$1n$WCIsvSListBase$::1n$WCNIsvSLink$::1npn$2$$$1n$4::1npn$2$$n(rnxpn$2$)i
0002:0000bff0+ W?$ct:WCPtrListBase$::1n$LFSubField$$1n$WCValSList$::1npn$1$$n(pn(ui)pnvpn(pnvui)v)_
0002:0000c0a0+ W?$ct:WCValSList$::1npn$LFSubField$$n(pn(ui)pnvpn(pnvui)v)_
0002:0000c150+ W?$ct:WCValSList$::1npn$my_ct_mlist$$n(pn(ui)pnvpn(pnvui)v)_
0002:0000c200+ W?$ct:WCValListBase$::1npn$LFSubField$$1n$WCIsvSListBase$::1n$WCNIsvSLink$::1npn$1$$$1n$3::1npn$1$$n(pn(ui)pnvpn(pnvui)v)_
0002:0000c2a0+ W?WCListNew$:WCValListBase$::1npn$LFSubField$$1n$WCIsvSListBase$::1n$WCNIsvSLink$::1npn$2$$$1n$4::1npn$2$$n(rnxpn$2$)pn$4::1npn$2$$
0002:0000c2e0+ W?$ct:WCValListBase$::1npn$my_ct_mlist$$1n$WCIsvSListBase$::1n$WCNIsvSLink$::1npn$1$$$1n$3::1npn$1$$n(pn(ui)pnvpn(pnvui)v)_
0002:0000c380+ W?WCListNew$:WCValListBase$::1npn$my_ct_mlist$$1n$WCIsvSListBase$::1n$WCNIsvSLink$::1npn$2$$$1n$4::1npn$2$$n(rnxpn$2$)pn$4::1npn$2$$
0002:0000c3c0+ W?$ct:WCIsvSListBase$::1n$WCNIsvSLink$::1npn$LFSubField$$$n()_
0003:00003a70  W?$Wvf0Go4:WCIterExcept$$nx[]pn()v
0003:00003a80  W?$Wvf0Io4:WCListIterBase$$nx[]pn()v
0003:00003a90+ W?$Wvf0Eoc:LFNotTrans$$nx[]pn()v
0003:00003ab0+ W?$Wvf0Aoc:LFNull$$nx[]pn()v
0003:00003ad0+ W?$Wvf0Eoc:LFModifier$$nx[]pn()v
0003:00003af0+ W?$Wvf0Doc:LFPointer$$nx[]pn()v
0003:00003b10+ W?$Wvf0Boc:LFArray$$nx[]pn()v
0003:00003b30+ W?$Wvf0Boc:LFClass$$nx[]pn()v
0003:00003b50+ W?$Wvf0Boc:LFUnion$$nx[]pn()v
0003:00003b70+ W?$Wvf0Aoc:LFEnum$$nx[]pn()v
0003:00003b90+ W?$Wvf0Foc:LFProcedure$$nx[]pn()v
0003:00003bb0+ W?$Wvf0Foc:LFMFunction$$nx[]pn()v
0003:00003bd0+ W?$Wvf0Doc:LFVtShape$$nx[]pn()v
0003:00003bf0+ W?$Wvf0Coc:LFCobol0$$nx[]pn()v
0003:00003c10+ W?$Wvf0Coc:LFCobol1$$nx[]pn()v
0003:00003c30+ W?$Wvf0Coc:LFBArray$$nx[]pn()v
0003:00003c50+ W?$Wvf0Boc:LFLabel$$nx[]pn()v
0003:00003c70+ W?$Wvf0Eoc:LFDimArray$$nx[]pn()v
0003:00003c90+ W?$Wvf0Doc:LFVftPath$$nx[]pn()v
0003:00003cb0+ W?$Wvf0Doc:LFArgList$$nx[]pn()v
0003:00003cd0+ W?$Wvf0Coc:LFDefArg$$nx[]pn()v
0003:00003cf0+ W?$Wvf0Foc:LFFieldList$$nx[]pn()v
0003:00003d10+ W?$Wvf0Doc:LFDerived$$nx[]pn()v
0003:00003d30+ W?$Wvf0Eoc:LFBitField$$nx[]pn()v
0003:00003d50+ W?$Wvf0Goc:LFMethodList$$nx[]pn()v
0003:00003d70+ W?$Wvf0Doc:LFDimConu$$nx[]pn()v
0003:00003d90+ W?$Wvf0Eoc:LFDimConlu$$nx[]pn()v
0003:00003db0+ W?$Wvf0Coc:LFBClass$$nx[]pn()v
0003:00003dd0+ W?$Wvf0Doc:LFVBClass$$nx[]pn()v
0003:00003df0+ W?$Wvf0Foc:LFEnumerate$$nx[]pn()v
0003:00003e10+ W?$Wvf0Foc:LFFriendFcn$$nx[]pn()v
0003:00003e30+ W?$Wvf0Boc:LFIndex$$nx[]pn()v
0003:00003e50+ W?$Wvf0Coc:LFMember$$nx[]pn()v
0003:00003e70+ W?$Wvf0Coc:LFMethod$$nx[]pn()v
0003:00003e90+ W?$Wvf0Goc:LFNestedType$$nx[]pn()v
0003:00003eb0+ W?$Wvf0Eoc:LFVFuncTab$$nx[]pn()v
0003:00003ed0+ W?$Wvf0Foc:LFFriendCls$$nx[]pn()v
0003:00003ef0+ W?$Wvf0Foc:LFOneMethod$$nx[]pn()v
0003:00003f10+ W?$Wvf0Eoc:LFVFuncOff$$nx[]pn()v
0003:00003f30+ W?$Wvf0Goc:LFLeafStruct$$nx[]pn()v
0003:00003f50+ W?$Wvf0Eoc:LFSubField$$nx[]pn()v
0003:00003f70+ W?$Wvf0wo4:WCPtrListBase$::1n$LFSubField$$1n$WCValSList$::1npn$1$$$nx[]pn()v
0003:00003f80+ W?$Wvf0xo4:WCPtrListBase$::1n$my_ct_mlist$$1n$WCValSList$::1npn$1$$$nx[]pn()v
0003:00003f90+ W?$Wvf0Xo4:WCValSList$::1npn$LFSubField$$$nx[]pn()v
0003:00003fa0+ W?$Wvf0Yo4:WCValSList$::1npn$my_ct_mlist$$$nx[]pn()v
0003:00003fb0+ W?$Wvf0Vo4:WCPtrSList$::1n$LFSubField$$$nx[]pn()v
0003:00003fc0+ W?$Wvf0Wo4:WCPtrSList$::1n$my_ct_mlist$$$nx[]pn()v
0003:00003fd0+ W?$Wvf1Qo4:WCValListIterBase$::1npn$my_ct_mlist$$1n$WCPtrSList$::1n$1$$1n$WCNIsvSLink$::1npn$1$$$nx[]pn()v
0003:00003fe0+ W?$Wvf1Po4:WCValListIterBase$::1npn$LFSubField$$1n$WCPtrSList$::1n$1$$1n$WCNIsvSLink$::1npn$1$$$nx[]pn()v
0003:00003ff0+ W?$Wvf0ao4:WCPtrSListIter$::1n$my_ct_mlist$$$nx[]pn()v
0003:00004000+ W?$Wvf0Zo4:WCPtrSListIter$::1n$LFSubField$$$nx[]pn()v
0003:00004010+ W?$Wvf0fo4:WCPtrConstSListIter$::1n$my_ct_mlist$$$nx[]pn()v
0003:00004020+ W?$Wvf0eo4:WCPtrConstSListIter$::1n$LFSubField$$$nx[]pn()v
0003:00004030  W?$Wts0Gn$WCIterExcept$$$nx[]uc
0003:00004050+ W?$Wts0Gn$LFLeafStruct$$$nx[]uc
0003:00004070+ W?$Wts0En$LFSubField$$$nx[]uc
0003:00004090+ W?$Wts0En$LFNotTrans$$$nx[]uc
0003:000040b0+ W?$Wts0An$LFNull$$$nx[]uc
0003:000040d0+ W?$Wts0En$LFModifier$$$nx[]uc
0003:000040f0+ W?$Wts0Dn$LFPointer$$$nx[]uc
0003:00004110+ W?$Wts0Bn$LFArray$$$nx[]uc
0003:00004130+ W?$Wts0Bn$LFClass$$$nx[]uc
0003:00004150+ W?$Wts0Bn$LFUnion$$$nx[]uc
0003:00004170+ W?$Wts0An$LFEnum$$$nx[]uc
0003:00004190+ W?$Wts0Fn$LFProcedure$$$nx[]uc
0003:000041b0+ W?$Wts0Fn$LFMFunction$$$nx[]uc
0003:000041d0+ W?$Wts0Dn$LFVtShape$$$nx[]uc
0003:000041f0+ W?$Wts0Cn$LFCobol0$$$nx[]uc
0003:00004210+ W?$Wts0Cn$LFCobol1$$$nx[]uc
0003:00004230+ W?$Wts0Cn$LFBArray$$$nx[]uc
0003:00004250+ W?$Wts0Bn$LFLabel$$$nx[]uc
0003:00004270+ W?$Wts0En$LFDimArray$$$nx[]uc
0003:00004290+ W?$Wts0Dn$LFVftPath$$$nx[]uc
0003:000042b0+ W?$Wts0Dn$LFArgList$$$nx[]uc
0003:000042d0+ W?$Wts0Cn$LFDefArg$$$nx[]uc
0003:000042f0+ W?$Wts0Fn$LFFieldList$$$nx[]uc
0003:00004310+ W?$Wts0Dn$LFDerived$$$nx[]uc
0003:00004330+ W?$Wts0En$LFBitField$$$nx[]uc
0003:00004350+ W?$Wts0Gn$LFMethodList$$$nx[]uc
0003:00004370+ W?$Wts0Dn$LFDimConu$$$nx[]uc
0003:00004390+ W?$Wts0En$LFDimConlu$$$nx[]uc
0003:000043b0+ W?$Wts0Cn$LFBClass$$$nx[]uc
0003:000043d0+ W?$Wts0Dn$LFVBClass$$$nx[]uc
0003:000043f0+ W?$Wts0Fn$LFEnumerate$$$nx[]uc
0003:00004410+ W?$Wts0Fn$LFFriendFcn$$$nx[]uc
0003:00004430+ W?$Wts0Bn$LFIndex$$$nx[]uc
0003:00004450+ W?$Wts0Cn$LFMember$$$nx[]uc
0003:00004470+ W?$Wts0Cn$LFMethod$$$nx[]uc
0003:00004490+ W?$Wts0Gn$LFNestedType$$$nx[]uc
0003:000044b0+ W?$Wts0En$LFVFuncTab$$$nx[]uc
0003:000044d0+ W?$Wts0Fn$LFFriendCls$$$nx[]uc
0003:000044f0+ W?$Wts0Fn$LFOneMethod$$$nx[]uc
0003:00004510+ W?$Wts0En$LFVFuncOff$$$nx[]uc
0003:00004530+ W?$Wts0fn$WCPtrConstSListIter$::1n$my_ct_mlist$$$$nx[]uc
0003:00004550+ W?$Wts0en$WCPtrConstSListIter$::1n$LFSubField$$$$nx[]uc
0003:00004570+ W?$Wts0Zn$WCPtrSListIter$::1n$LFSubField$$$$nx[]uc
0003:00004590+ W?$Wts0Xn$WCValSList$::1npn$LFSubField$$$$nx[]uc
0003:000045b0+ W?$Wts0Yn$WCValSList$::1npn$my_ct_mlist$$$$nx[]uc
0003:000045d0+ W?$Wts0Vn$WCPtrSList$::1n$LFSubField$$$$nx[]uc
0003:000045f0+ W?$Wts0Wn$WCPtrSList$::1n$my_ct_mlist$$$$nx[]uc
0003:0000a0a4+ W?$Wti0Z$WCPtrSListIter$::1n$my_ct_mlist$$$$n[]uc
0003:0000a0cc+ W?$Wti0V$WCPtrSList$::1n$my_ct_mlist$$$$n[]uc
0003:0000a0f0+ W?$Wti0U$WCPtrSList$::1n$LFSubField$$$$n[]uc
0003:0000a114+ W?$Wti0X$WCValSList$::1npn$my_ct_mlist$$$$n[]uc
0003:0000a13c+ W?$Wti0W$WCValSList$::1npn$LFSubField$$$$n[]uc
0003:0000a164+ W?$Wti0Y$WCPtrSListIter$::1n$LFSubField$$$$n[]uc
0003:0000a18c+ W?$Wti0d$WCPtrConstSListIter$::1n$LFSubField$$$$n[]uc
0003:0000a1b8+ W?$Wti0e$WCPtrConstSListIter$::1n$my_ct_mlist$$$$n[]uc
0003:0000a1e8+ W?$Wti0D$LFVFuncOff$$$n[]uc
0003:0000a1fc+ W?$Wti0E$LFOneMethod$$$n[]uc
0003:0000a210+ W?$Wti0E$LFFriendCls$$$n[]uc
0003:0000a224+ W?$Wti0D$LFVFuncTab$$$n[]uc
0003:0000a238+ W?$Wti0F$LFNestedType$$$n[]uc
0003:0000a24c+ W?$Wti0B$LFMethod$$$n[]uc
0003:0000a25c+ W?$Wti0B$LFMember$$$n[]uc
0003:0000a26c+ W?$Wti0A$LFIndex$$$n[]uc
0003:0000a27c+ W?$Wti0E$LFFriendFcn$$$n[]uc
0003:0000a290+ W?$Wti0E$LFEnumerate$$$n[]uc
0003:0000a2a4+ W?$Wti0C$LFVBClass$$$n[]uc
0003:0000a2b8+ W?$Wti0B$LFBClass$$$n[]uc
0003:0000a2c8+ W?$Wti0D$LFDimConlu$$$n[]uc
0003:0000a2dc+ W?$Wti0C$LFDimConu$$$n[]uc
0003:0000a2f0+ W?$Wti0F$LFMethodList$$$n[]uc
0003:0000a304+ W?$Wti0D$LFBitField$$$n[]uc
0003:0000a318+ W?$Wti0C$LFDerived$$$n[]uc
0003:0000a32c+ W?$Wti0E$LFFieldList$$$n[]uc
0003:0000a340+ W?$Wti0B$LFDefArg$$$n[]uc
0003:0000a350+ W?$Wti0C$LFArgList$$$n[]uc
0003:0000a364+ W?$Wti0C$LFVftPath$$$n[]uc
0003:0000a378+ W?$Wti0D$LFDimArray$$$n[]uc
0003:0000a38c+ W?$Wti0A$LFLabel$$$n[]uc
0003:0000a39c+ W?$Wti0B$LFBArray$$$n[]uc
0003:0000a3ac+ W?$Wti0B$LFCobol1$$$n[]uc
0003:0000a3bc+ W?$Wti0B$LFCobol0$$$n[]uc
0003:0000a3cc+ W?$Wti0C$LFVtShape$$$n[]uc
0003:0000a3e0+ W?$Wti0E$LFMFunction$$$n[]uc
0003:0000a3f4+ W?$Wti0E$LFProcedure$$$n[]uc
0003:0000a408+ W?$Wti09$LFEnum$$$n[]uc
0003:0000a418+ W?$Wti0A$LFUnion$$$n[]uc
0003:0000a428+ W?$Wti0A$LFClass$$$n[]uc
0003:0000a438+ W?$Wti0A$LFArray$$$n[]uc
0003:0000a448+ W?$Wti0C$LFPointer$$$n[]uc
0003:0000a45c+ W?$Wti0D$LFModifier$$$n[]uc
0003:0000a470+ W?$Wti09$LFNull$$$n[]uc
0003:0000a480+ W?$Wti0D$LFNotTrans$$$n[]uc
0003:0000a494+ W?$Wti0D$LFSubField$$$n[]uc
0003:0000a4a8+ W?$Wti0F$LFLeafStruct$$$n[]uc
0003:0000a4bc  W?$Wti0F$WCIterExcept$$$n[]uc
0002:0000c440+ W?$ct:WCIsvSListBase$::1n$WCNIsvSLink$::1npn$my_ct_mlist$$$n()_
0002:000095c0+ W?DerivedPut$:LFOneMethod$n.x(rn$ExeMaker$$)v
0002:000095e0+ W?DerivedPut$:LFVFuncOff$n.x(rn$ExeMaker$$)v
0003:00004610+ W?$Wts0an$WCPtrSListIter$::1n$my_ct_mlist$$$$nx[]uc
0003:0000a068+ W?_subFieldConstructorTable$:LFFieldList$n[]pn(pnxa)pn$LFSubField$$
0003:0001c810+ W?_localTypeArray$:LFLeafStruct$npn$TypeArray$$
0003:0001c814+ W?_globalTypeArray$:LFLeafStruct$npn$TypeArray$$
Module: subsect.obj(/mnt/sda5/.user/root/src/openwatcom-1.9/bld/cvpack/cpp/subsect.cpp)
0002:0000dbd0  W?$ct:VariantString$n(pnxaui)_
0002:0000dc20  W?$ct:WCListIterBase$n()_
0002:0000dc90+ W?base_reset$:WCListIterBase$n()v
0002:0000dca0  W?$ct:SymbolStruct$n()_
0002:0000dcf0  W?$dt:SymbolStruct$n()_
0002:0000dda0  W?CodeSegment$:SymbolStruct$n.x()ui
0002:0000ddb0  W?DataSegment$:SymbolStruct$n.x()ui
0002:0000ddc0  W?MemOffset$:SymbolStruct$n.x()ui
0002:0000ddd0  W?SetParent$:SymbolStruct$n(ul)v
0002:0000dde0  W?SetNext$:SymbolStruct$n(ul)v
0002:0000ddf0  W?SetEnd$:SymbolStruct$n(ul)v
0002:0000de00  W?FixType$:SymbolStruct$n()v
0002:0000de10  W?IsStartSym$:SymbolStruct$n.x()q
0002:0000de20  W?cSum$:SymbolStruct$n.x()ul
0002:0000de40  W?Name$:SymbolStruct$n.x()pnxa
0002:0000de50  W?DerivedPut$:SymbolStruct$n.x(rn$ExeMaker$$)v
0002:0000de60  W?SetNext$:CSStartSearch$n(ul)v
0002:0000de70  W?$dt:CSStartSearch$n()_
0002:0000df20+ W?$dt:CSPageAlign$n()_
0002:0000dfd0+ W?$dt:NameHashTable$n()_
0002:0000e010+ W?$dt:AddrHashTable$n()_
0002:0000c540+ W?FixUpTypes$:SstGlobalTypes$n(us)v
0002:0000c590+ W?ProcessTypes$:SstGlobalTypes$n(pn$LFTypeRecord$$)v
0002:0000c6d0  W?LoadTypes$:SstGlobalTypes$n(rn$Retriever$$ul)q
0002:0000ca90+ W?Append$:SstGlobalTypes$n(pn$LFTypeRecord$$)v
0002:0000cb20  W?Put$:SstGlobalTypes$n.x(rn$ExeMaker$$)v
0002:0000cc10+ W?DumpPageAlign$:SymbolSubsection$n(rn$ExeMaker$$uiuc)ui
0002:0000cc80+ W?PageAlign$:SymbolSubsection$n(rn$ExeMaker$$uiul)ui
0002:0000ccb0+ W?PadCount$:SymbolSubsection$n(uiul)ui
0002:0000ccd0+ W?InsertOneRecord$:SstAlignSym$n(pn$SymbolStruct$$)i
0002:0000cdf0  W?Insert$:SstAlignSym$n(pn$SymbolStruct$$)i
0002:0000d050  W?Put$:SstAlignSym$n.x(rn$ExeMaker$$)v
0002:0000d140  W?Put$:SstGlobalSym$n(rn$ExeMaker$$ui)v
0002:0000d440+ W?Find$:NameHashTable$n.x(rnx$WCPtrSList$::1n$chain_table$:1$$ul)pn$SymbolStruct$$
0002:0000d560+ W?TryToInsert$:NameHashTable$n(pn$SymbolStruct$$)q
0002:0000d6d0+ W?Put$:NameHashTable$n.x(rn$ExeMaker$$)v
0002:0000e0f0+ W?$dt:WCPtrListBase$::1n$chain_table$:NameHashTable$$1n$WCValSList$::1npn$1:2$$n()_
0002:0000e160+ W?$dt:WCPtrListBase$::1n$offset_table$:AddrHashTable$$1n$WCValSList$::1npn$1:2$$n()_
0002:0000e1d0+ W?base_equivalent$:WCValSList$::1npn$chain_table$:NameHashTable$$n.x(rnxpn$2:3$rnxpn$2:3$)i
0002:0000e1e0+ W?$dt:WCValSList$::1npn$chain_table$:NameHashTable$$n()_
0002:0000e280+ W?base_equivalent$:WCValSList$::1npn$offset_table$:AddrHashTable$$n.x(rnxpn$2:3$rnxpn$2:3$)i
0002:0000e290+ W?$dt:WCValSList$::1npn$offset_table$:AddrHashTable$$n()_
0002:0000e330+ W?base_equivalent$:WCPtrSList$::1n$chain_table$:NameHashTable$$n.x(rnxpn$2:3$rnxpn$2:3$)i
0002:0000e350+ W?$ct:WCPtrSList$::1n$chain_table$:NameHashTable$$n()_
0002:0000e3f0+ W?$dt:WCPtrSList$::1n$chain_table$:NameHashTable$$n()_
0002:0000e4b0+ W?base_equivalent$:WCPtrSList$::1n$offset_table$:AddrHashTable$$n.x(rnxpn$2:3$rnxpn$2:3$)i
0002:0000e4d0+ W?$ct:WCPtrSList$::1n$offset_table$:AddrHashTable$$n()_
0002:0000e570+ W?$dt:WCPtrSList$::1n$offset_table$:AddrHashTable$$n()_
0002:0000e630+ W?$ct:WCStack$::1npn$SymbolStruct$$1n$WCPtrSList$::1n$1$$n()_
0002:0000e6e0+ W?$dt:WCStack$::1npn$SymbolStruct$$1n$WCPtrSList$::1n$1$$n()_
0002:0000e7b0  W?$dt:WCValListIterBase$::1npn$LFTypeRecord$$1n$WCPtrSList$::1n$1$$1n$WCNIsvSLink$::1npn$1$$n()_
0002:0000e810  W?current$:WCValListIterBase$::1npn$LFTypeRecord$$1n$WCPtrSList$::1n$2$$1n$WCNIsvSLink$::1npn$2$$n.x()pn$2$
0002:0000e830+ W?$dt:WCValListIterBase$::1npn$SymbolStruct$$1n$WCPtrSList$::1n$1$$1n$WCNIsvSLink$::1npn$1$$n()_
0002:0000e890+ W?current$:WCValListIterBase$::1npn$SymbolStruct$$1n$WCPtrSList$::1n$2$$1n$WCNIsvSLink$::1npn$2$$n.x()pn$2$
0002:0000e8b0+ W?$dt:WCValListIterBase$::1npn$chain_table$:NameHashTable$$1n$WCPtrSList$::1n$1:2$$1n$WCNIsvSLink$::1npn$1:2$$n()_
0002:0000e910+ W?current$:WCValListIterBase$::1npn$chain_table$:NameHashTable$$1n$WCPtrSList$::1n$2:3$$1n$WCNIsvSLink$::1npn$2:3$$n.x()pn$2:3$
0002:0000e930+ W?$dt:WCValListIterBase$::1npn$offset_table$:AddrHashTable$$1n$WCPtrSList$::1n$1:2$$1n$WCNIsvSLink$::1npn$1:2$$n()_
0002:0000e990+ W?current$:WCValListIterBase$::1npn$offset_table$:AddrHashTable$$1n$WCPtrSList$::1n$2:3$$1n$WCNIsvSLink$::1npn$2:3$$n.x()pn$2:3$
0002:0000e9b0  W?$dt:WCPtrSListIter$::1n$LFTypeRecord$$n()_
0002:0000ea50+ W?$dt:WCPtrSListIter$::1n$SymbolStruct$$n()_
0002:0000eaf0+ W?$dt:WCPtrSListIter$::1n$chain_table$:NameHashTable$$n()_
0002:0000eb90+ W?$dt:WCPtrSListIter$::1n$offset_table$:AddrHashTable$$n()_
0002:0000ec30+ W?$dt:WCPtrConstSListIter$::1n$SymbolStruct$$n()_
0002:0000ecf0+ W?$ct:WCPtrConstSListIter$::1n$chain_table$:NameHashTable$$n()_
0002:0000ed90+ W?$dt:WCPtrConstSListIter$::1n$chain_table$:NameHashTable$$n()_
0002:0000ee50+ W?$ct:WCPtrConstSListIter$::1n$offset_table$:AddrHashTable$$n()_
0002:0000eef0+ W?$dt:WCPtrConstSListIter$::1n$offset_table$:AddrHashTable$$n()_
0002:0000efb0+ W?insert$:WCValListBase$::1npn$SymbolStruct$$1n$WCIsvSListBase$::1n$WCNIsvSLink$::1npn$2$$$1n$4::1npn$2$$n(rnxpn$2$)i
0002:0000efe0+ W?append$:WCValListBase$::1npn$chain_table$:NameHashTable$$1n$WCIsvSListBase$::1n$WCNIsvSLink$::1npn$2:3$$$1n$5::1npn$2:3$$n(rnxpn$2:3$)i
0002:0000f010+ W?append$:WCValListBase$::1npn$offset_table$:AddrHashTable$$1n$WCIsvSListBase$::1n$WCNIsvSLink$::1npn$2:3$$$1n$5::1npn$2:3$$n(rnxpn$2:3$)i
0002:0000f040+ W?$ct:WCPtrListBase$::1n$chain_table$:NameHashTable$$1n$WCValSList$::1npn$1:2$$n(pn(ui)pnvpn(pnvui)v)_
0002:0000f0f0+ W?$ct:WCPtrListBase$::1n$offset_table$:AddrHashTable$$1n$WCValSList$::1npn$1:2$$n(pn(ui)pnvpn(pnvui)v)_
0002:0000f1a0+ W?$ct:WCValSList$::1npn$chain_table$:NameHashTable$$n(pn(ui)pnvpn(pnvui)v)_
0002:0000f250+ W?$ct:WCValSList$::1npn$offset_table$:AddrHashTable$$n(pn(ui)pnvpn(pnvui)v)_
0002:0000f300+ W?$ct:WCPtrSListIter$::1n$chain_table$:NameHashTable$$n()_
0002:0000f380+ W?$ct:WCPtrSListIter$::1n$offset_table$:AddrHashTable$$n()_
0002:0000f400+ W?clear$:WCBareVectorBase$::1npnvn()v
0002:0000f410+ W?$od:WCValVector$::1npnvn(i)rnpnv
0002:0000f480+ W?clearAndDestroy$:WCIsvSListBase$::1n$WCNIsvSLink$::1npn$LFTypeRecord$$$n()v
0002:0000f490+ W?isEmpty$:WCIsvSListBase$::1n$WCNIsvSLink$::1npn$SymbolStruct$$$n.x()i
0002:0000f4a0+ W?find$:WCValListBase$::1npn$SymbolStruct$$1n$WCIsvSListBase$::1n$WCNIsvSLink$::1npn$2$$$1n$4::1npn$2$$n.x(i)pn$2$
0002:0000f4b0+ W?$ct:WCValListBase$::1npn$chain_table$:NameHashTable$$1n$WCIsvSListBase$::1n$WCNIsvSLink$::1npn$1:2$$$1n$4::1npn$1:2$$n(pn(ui)pnvpn(pnvui)v)_
0002:0000f550+ W?WCListNew$:WCValListBase$::1npn$chain_table$:NameHashTable$$1n$WCIsvSListBase$::1n$WCNIsvSLink$::1npn$2:3$$$1n$5::1npn$2:3$$n(rnxpn$2:3$)pn$5::1npn$2:3$$
0002:0000f590+ W?$ct:WCValListBase$::1npn$offset_table$:AddrHashTable$$1n$WCIsvSListBase$::1n$WCNIsvSLink$::1npn$1:2$$$1n$4::1npn$1:2$$n(pn(ui)pnvpn(pnvui)v)_
0002:0000f630+ W?WCListNew$:WCValListBase$::1npn$offset_table$:AddrHashTable$$1n$WCIsvSListBase$::1n$WCNIsvSLink$::1npn$2:3$$$1n$5::1npn$2:3$$n(rnxpn$2:3$)pn$5::1npn$2:3$$
0002:0000f670+ W?$ct:WCValListIterBase$::1npn$chain_table$:NameHashTable$$1n$WCPtrSList$::1n$1:2$$1n$WCNIsvSLink$::1npn$1:2$$n()_
0002:0000f6e0+ W?$ct:WCValListIterBase$::1npn$offset_table$:AddrHashTable$$1n$WCPtrSList$::1n$1:2$$1n$WCNIsvSLink$::1npn$1:2$$n()_
0003:00005480  W?$Wvf0Gok:SymbolStruct$$nx[]pn()v
0003:000054c0  W?$Wvf0Hok:CSStartSearch$$nx[]pn()v
0003:00005500+ W?$Wvf0Fok:CSPageAlign$$nx[]pn()v
0003:00005540+ W?$Wvf1Eo4:WCPtrListBase$::1n$chain_table$:NameHashTable$$1n$WCValSList$::1npn$1:2$$$nx[]pn()v
0003:00005550+ W?$Wvf1Fo4:WCPtrListBase$::1n$offset_table$:AddrHashTable$$1n$WCValSList$::1npn$1:2$$$nx[]pn()v
0003:00005560+ W?$Wvf0no4:WCValSList$::1npn$chain_table$:NameHashTable$$$nx[]pn()v
0003:00005570+ W?$Wvf0oo4:WCValSList$::1npn$offset_table$:AddrHashTable$$$nx[]pn()v
0003:00005580+ W?$Wvf0lo4:WCPtrSList$::1n$chain_table$:NameHashTable$$$nx[]pn()v
0003:00005590+ W?$Wvf0mo4:WCPtrSList$::1n$offset_table$:AddrHashTable$$$nx[]pn()v
0003:000055a0+ W?$Wvf0so4:WCStack$::1npn$SymbolStruct$$1n$WCPtrSList$::1n$1$$$nx[]pn()v
0003:000055b0  W?$Wvf1Ro4:WCValListIterBase$::1npn$LFTypeRecord$$1n$WCPtrSList$::1n$1$$1n$WCNIsvSLink$::1npn$1$$$nx[]pn()v
0003:000055c0+ W?$Wvf1Ro4:WCValListIterBase$::1npn$SymbolStruct$$1n$WCPtrSList$::1n$1$$1n$WCNIsvSLink$::1npn$1$$$nx[]pn()v
0003:000055d0+ W?$Wvf1jo4:WCValListIterBase$::1npn$chain_table$:NameHashTable$$1n$WCPtrSList$::1n$1:2$$1n$WCNIsvSLink$::1npn$1:2$$$nx[]pn()v
0003:000055e0+ W?$Wvf1ko4:WCValListIterBase$::1npn$offset_table$:AddrHashTable$$1n$WCPtrSList$::1n$1:2$$1n$WCNIsvSLink$::1npn$1:2$$$nx[]pn()v
0003:000055f0  W?$Wvf0bo4:WCPtrSListIter$::1n$LFTypeRecord$$$nx[]pn()v
0003:00005600+ W?$Wvf0bo4:WCPtrSListIter$::1n$SymbolStruct$$$nx[]pn()v
0003:00005610+ W?$Wvf0po4:WCPtrSListIter$::1n$chain_table$:NameHashTable$$$nx[]pn()v
0003:00005620+ W?$Wvf0qo4:WCPtrSListIter$::1n$offset_table$:AddrHashTable$$$nx[]pn()v
0003:00005630+ W?$Wvf0go4:WCPtrConstSListIter$::1n$SymbolStruct$$$nx[]pn()v
0003:00005640+ W?$Wvf0uo4:WCPtrConstSListIter$::1n$chain_table$:NameHashTable$$$nx[]pn()v
0003:00005650+ W?$Wvf0vo4:WCPtrConstSListIter$::1n$offset_table$:AddrHashTable$$$nx[]pn()v
0003:00005660  W?$Wts0Gn$SymbolStruct$$$nx[]uc
0003:00005680  W?$Wts0Hn$CSStartSearch$$$nx[]uc
0003:000056a0+ W?$Wts0Fn$CSPageAlign$$$nx[]uc
0003:000056c0+ W?$Wts0ln$WCPtrSList$::1n$chain_table$:NameHashTable$$$$nx[]uc
0003:000056e0+ W?$Wts0mn$WCPtrSList$::1n$offset_table$:AddrHashTable$$$$nx[]uc
0003:00005700+ W?$Wts0sn$WCStack$::1npn$SymbolStruct$$1n$WCPtrSList$::1n$1$$$$nx[]uc
0003:00005720  W?$Wts0bn$WCPtrSListIter$::1n$LFTypeRecord$$$$nx[]uc
0003:00005740+ W?$Wts0gn$WCPtrConstSListIter$::1n$SymbolStruct$$$$nx[]uc
0003:00005760+ W?$Wts0Hn$NameHashTable$$$nx[]uc
0003:00005780+ W?$Wts0Hn$AddrHashTable$$$nx[]uc
0003:000057a0+ W?$Wts0un$WCPtrConstSListIter$::1n$chain_table$:NameHashTable$$$$nx[]uc
0003:000057c0+ W?$Wts0vn$WCPtrConstSListIter$::1n$offset_table$:AddrHashTable$$$$nx[]uc
0003:000057e0+ W?$Wts0nn$WCValSList$::1npn$chain_table$:NameHashTable$$$$nx[]uc
0003:00005800+ W?$Wts0on$WCValSList$::1npn$offset_table$:AddrHashTable$$$$nx[]uc
0003:00005820+ W?$Wts0bn$WCPtrSListIter$::1n$SymbolStruct$$$$nx[]uc
0003:00005840+ W?$Wts0pn$WCPtrSListIter$::1n$chain_table$:NameHashTable$$$$nx[]uc
0003:0000a4e0+ W?$Wti0p$WCPtrSListIter$::1n$offset_table$:AddrHashTable$$$$n[]uc
0003:0000a518+ W?$Wti0o$WCPtrSListIter$::1n$chain_table$:NameHashTable$$$$n[]uc
0003:0000a54f+ W?$Wti0a$WCPtrSListIter$::1n$SymbolStruct$$$$n[]uc
0003:0000a578+ W?$Wti0n$WCValSList$::1npn$offset_table$:AddrHashTable$$$$n[]uc
0003:0000a5ae+ W?$Wti0m$WCValSList$::1npn$chain_table$:NameHashTable$$$$n[]uc
0003:0000a5e3+ W?$Wti0u$WCPtrConstSListIter$::1n$offset_table$:AddrHashTable$$$$n[]uc
0003:0000a620+ W?$Wti0t$WCPtrConstSListIter$::1n$chain_table$:NameHashTable$$$$n[]uc
0003:0000a65c+ W?$Wti0G$AddrHashTable$$$n[]uc
0003:0000a671+ W?$Wti0G$NameHashTable$$$n[]uc
0003:0000a686+ W?$Wti0f$WCPtrConstSListIter$::1n$SymbolStruct$$$$n[]uc
0003:0000a6b4  W?$Wti0a$WCPtrSListIter$::1n$LFTypeRecord$$$$n[]uc
0003:0000a6dd+ W?$Wti0r$WCStack$::1npn$SymbolStruct$$1n$WCPtrSList$::1n$1$$$$n[]uc
0003:0000a717+ W?$Wti0l$WCPtrSList$::1n$offset_table$:AddrHashTable$$$$n[]uc
0003:0000a74b+ W?$Wti0k$WCPtrSList$::1n$chain_table$:NameHashTable$$$$n[]uc
0003:0000a77e+ W?$Wti0E$CSPageAlign$$$n[]uc
0003:0000a791  W?$Wti0G$CSStartSearch$$$n[]uc
0003:0000a7a6  W?$Wti0F$SymbolStruct$$$n[]uc
0002:0000f750+ W?$ct:WCIsvSListBase$::1n$WCNIsvSLink$::1npn$chain_table$:NameHashTable$$$n()_
0002:0000f7d0+ W?$ct:WCIsvSListBase$::1n$WCNIsvSLink$::1npn$offset_table$:AddrHashTable$$$n()_
0002:0000d890+ W?TryToInsert$:AddrHashTable$n(pn$SymbolStruct$$)q
0002:0000d960+ W?Compare$:AddrHashTable$n(pnxvpnxv)i
0002:0000d990+ W?Put$:AddrHashTable$n.x(rn$ExeMaker$$)v
0003:00005860+ W?$Wts0qn$WCPtrSListIter$::1n$offset_table$:AddrHashTable$$$$nx[]uc
0003:0001c818  W?symStack$:SstAlignSym$n$WCStack$::1npn$SymbolStruct$$1n$WCPtrSList$::1n$3$$$
Module: cssymbol.obj(/mnt/sda5/.user/root/src/openwatcom-1.9/bld/cvpack/cpp/cssymbol.cpp)
0002:00012220+ W?$dt:CSCompile$n()_
0002:000122e0+ W?$dt:CSRegister$n()_
0002:00012390+ W?FixType$:CSRegister$n()v
0002:000123b0+ W?$dt:CSConstant$n()_
0002:00012480+ W?FixType$:CSConstant$n()v
0002:000124a0+ W?$dt:CSUdt$n()_
0002:00012550+ W?FixType$:CSUdt$n()v
0002:00012570+ W?$dt:CSEndBlock$n()_
0002:00012620+ W?$dt:CSObjName$n()_
0002:000126d0+ W?$dt:CSEndOfArg$n()_
0002:00012780+ W?$dt:CSCobolUdt$n()_
0002:00012830+ W?FixType$:CSCobolUdt$n()v
0002:00012850+ W?$dt:CSManyReg$n()_
0002:00012920+ W?FixType$:CSManyReg$n()v
0002:00012940+ W?$dt:CSReturn$n()_
0002:00012a10+ W?$dt:CSEntryThis$n()_
0002:00012ae0+ W?$dt:CSBPRel16$n()_
0002:00012b90+ W?FixType$:CSBPRel16$n()v
0002:00012bb0+ W?$dt:CSLData16$n()_
0002:00012c60+ W?DataSegment$:CSLData16$n.x()ui
0002:00012c70+ W?MemOffset$:CSLData16$n.x()ui
0002:00012c80+ W?FixType$:CSLData16$n()v
0002:00012ca0+ W?$dt:CSPub16$n()_
0002:00012d50+ W?DataSegment$:CSPub16$n.x()ui
0002:00012d60+ W?CodeSegment$:CSPub16$n.x()ui
0002:00012d70+ W?MemOffset$:CSPub16$n.x()ui
0002:00012d80+ W?FixType$:CSPub16$n()v
0002:00012da0+ W?$dt:CSLProc16$n()_
0002:00012e50+ W?CodeSegment$:CSLProc16$n.x()ui
0002:00012e60+ W?MemOffset$:CSLProc16$n.x()ui
0002:00012e70+ W?IsStartSym$:CSLProc16$n.x()q
0002:00012e80+ W?SetParent$:CSLProc16$n(ul)v
0002:00012e90+ W?SetNext$:CSLProc16$n(ul)v
0002:00012ea0+ W?SetEnd$:CSLProc16$n(ul)v
0002:00012eb0+ W?FixType$:CSLProc16$n()v
0002:00012ed0+ W?$dt:CSThunk16$n()_
0002:00012f80+ W?IsStartSym$:CSThunk16$n.x()q
0002:00012f90+ W?CodeSegment$:CSThunk16$n.x()ui
0002:00012fa0+ W?MemOffset$:CSThunk16$n.x()ui
0002:00012fb0+ W?SetParent$:CSThunk16$n(ul)v
0002:00012fc0+ W?SetNext$:CSThunk16$n(ul)v
0002:00012fd0+ W?SetEnd$:CSThunk16$n(ul)v
0002:00012fe0+ W?$dt:CSBlock16$n()_
0002:00013090+ W?IsStartSym$:CSBlock16$n.x()q
0002:000130a0+ W?CodeSegment$:CSBlock16$n.x()ui
0002:000130b0+ W?MemOffset$:CSBlock16$n.x()ui
0002:000130c0+ W?SetParent$:CSBlock16$n(ul)v
0002:000130d0+ W?SetEnd$:CSBlock16$n(ul)v
0002:000130e0+ W?$dt:CSWith16$n()_
0002:000131a0+ W?IsStartSym$:CSWith16$n.x()q
0002:000131b0+ W?CodeSegment$:CSWith16$n.x()ui
0002:000131c0+ W?MemOffset$:CSWith16$n.x()ui
0002:000131d0+ W?SetParent$:CSWith16$n(ul)v
0002:000131e0+ W?SetEnd$:CSWith16$n(ul)v
0002:000131f0+ W?$dt:CSLabel16$n()_
0002:000132a0+ W?CodeSegment$:CSLabel16$n.x()ui
0002:000132b0+ W?MemOffset$:CSLabel16$n.x()ui
0002:000132c0+ W?$dt:CSCExModel16$n()_
0002:00013390+ W?$dt:CSVftPath16$n()_
0002:00013440+ W?DataSegment$:CSVftPath16$n.x()ui
0002:00013450+ W?MemOffset$:CSVftPath16$n.x()ui
0002:00013460+ W?FixType$:CSVftPath16$n()v
0002:00013490+ W?$dt:CSRegRel16$n()_
0002:00013540+ W?FixType$:CSRegRel16$n()v
0002:00013560+ W?$dt:CSBPRel32$n()_
0002:00013610+ W?FixType$:CSBPRel32$n()v
0002:00013630+ W?$dt:CSLData32$n()_
0002:000136e0+ W?DataSegment$:CSLData32$n.x()ui
0002:000136f0+ W?MemOffset$:CSLData32$n.x()ui
0002:00013700+ W?FixType$:CSLData32$n()v
0002:00013720+ W?$dt:CSPub32$n()_
0002:000137d0+ W?DataSegment$:CSPub32$n.x()ui
0002:000137e0+ W?CodeSegment$:CSPub32$n.x()ui
0002:000137f0+ W?MemOffset$:CSPub32$n.x()ui
0002:00013800+ W?FixType$:CSPub32$n()v
0002:00013820+ W?$dt:CSPub32_new$n()_
0002:000138d0+ W?DataSegment$:CSPub32_new$n.x()ui
0002:000138e0+ W?CodeSegment$:CSPub32_new$n.x()ui
0002:000138f0+ W?MemOffset$:CSPub32_new$n.x()ui
0002:00013900+ W?FixType$:CSPub32_new$n()v
0002:00013920+ W?$dt:CSLProc32$n()_
0002:000139d0+ W?CodeSegment$:CSLProc32$n.x()ui
0002:000139e0+ W?MemOffset$:CSLProc32$n.x()ui
0002:000139f0+ W?IsStartSym$:CSLProc32$n.x()q
0002:00013a00+ W?SetParent$:CSLProc32$n(ul)v
0002:00013a10+ W?SetNext$:CSLProc32$n(ul)v
0002:00013a20+ W?SetEnd$:CSLProc32$n(ul)v
0002:00013a30+ W?FixType$:CSLProc32$n()v
0002:00013a50+ W?$dt:CSThunk32$n()_
0002:00013b00+ W?IsStartSym$:CSThunk32$n.x()q
0002:00013b10+ W?CodeSegment$:CSThunk32$n.x()ui
0002:00013b20+ W?MemOffset$:CSThunk32$n.x()ui
0002:00013b30+ W?SetParent$:CSThunk32$n(ul)v
0002:00013b40+ W?SetNext$:CSThunk32$n(ul)v
0002:00013b50+ W?SetEnd$:CSThunk32$n(ul)v
0002:00013b60+ W?$dt:CSBlock32$n()_
0002:00013c10+ W?IsStartSym$:CSBlock32$n.x()q
0002:00013c20+ W?CodeSegment$:CSBlock32$n.x()ui
0002:00013c30+ W?MemOffset$:CSBlock32$n.x()ui
0002:00013c40+ W?SetParent$:CSBlock32$n(ul)v
0002:00013c50+ W?SetEnd$:CSBlock32$n(ul)v
0002:00013c60+ W?$dt:CSWith32$n()_
0002:00013d20+ W?IsStartSym$:CSWith32$n.x()q
0002:00013d30+ W?CodeSegment$:CSWith32$n.x()ui
0002:00013d40+ W?MemOffset$:CSWith32$n.x()ui
0002:00013d50+ W?SetParent$:CSWith32$n(ul)v
0002:00013d60+ W?SetEnd$:CSWith32$n(ul)v
0002:00013d70+ W?$dt:CSLabel32$n()_
0002:00013e20+ W?CodeSegment$:CSLabel32$n.x()ui
0002:00013e30+ W?MemOffset$:CSLabel32$n.x()ui
0002:00013e40+ W?$dt:CSCExModel32$n()_
0002:00013f10+ W?$dt:CSVftPath32$n()_
0002:00013fc0+ W?DataSegment$:CSVftPath32$n.x()ui
0002:00013fd0+ W?MemOffset$:CSVftPath32$n.x()ui
0002:00013fe0+ W?FixType$:CSVftPath32$n()v
0002:00014010+ W?$dt:CSRegRel32$n()_
0002:000140c0+ W?FixType$:CSRegRel32$n()v
0002:000140e0+ W?$dt:CSLThread32$n()_
0002:00014190+ W?DataSegment$:CSLThread32$n.x()ui
0002:000141a0+ W?MemOffset$:CSLThread32$n.x()ui
0002:000141b0+ W?FixType$:CSLThread32$n()v
0002:0000f850  W?$ra:SymbolStruct$n.x(rnx$0$)q
0002:0000f870  W?$ct:SymbolStruct$n(usus)_
0002:0000f900+ W?$ct:SymbolStruct$n($s_common$$)_
0002:0000f9a0+ W?$ct:SymbolStruct$n($s_common$$pnxaui)_
0002:0000fa40+ W?byt_toupper$:SymbolStruct$n(uc)uc
0002:0000fa50+ W?dwrd_toupper$:SymbolStruct$n(ul)ul
0002:0000fa60  W?checkSum$:SymbolStruct$n(pnxa)ul
0002:0000fad0  W?Error$:SymbolStruct$n(pnxa)pn$1$
0002:0000fb00  W?Construct$:CSCompile$n(pnxa)pn$SymbolStruct$$
0002:0000fc10  W?Construct$:CSRegister$n(pnxa)pn$SymbolStruct$$
0002:0000fcf0  W?Construct$:CSConstant$n(pnxa)pn$SymbolStruct$$
0002:0000fe10  W?Construct$:CSUdt$n(pnxa)pn$SymbolStruct$$
0002:0000fee0  W?Construct$:CSStartSearch$n(pnxa)pn$SymbolStruct$$
0002:0000ffb0  W?Construct$:CSEndBlock$n(pnxa)pn$SymbolStruct$$
0002:00010060  W?Construct$:CSSkipRecord$n(pnxa)pn$SymbolStruct$$
0002:00010070  W?Construct$:CSObjName$n(pnxa)pn$SymbolStruct$$
0002:00010140  W?Construct$:CSEndOfArg$n(pnxa)pn$SymbolStruct$$
0002:000101f0  W?Construct$:CSCobolUdt$n(pnxa)pn$SymbolStruct$$
0002:000102c0  W?Construct$:CSManyReg$n(pnxa)pn$SymbolStruct$$
0002:000103d0  W?Construct$:CSReturn$n(pnxa)pn$SymbolStruct$$
0002:000104f0  W?Construct$:CSEntryThis$n(pnxa)pn$SymbolStruct$$
0002:00010610  W?Construct$:CSBPRel16$n(pnxa)pn$SymbolStruct$$
0002:000106f0  W?Construct$:CSLData16$n(pnxa)pn$SymbolStruct$$
0002:000107d0  W?Construct$:CSPub16$n(pnxa)pn$SymbolStruct$$
0002:000108b0  W?Construct$:CSLProc16$n(pnxa)pn$SymbolStruct$$
0002:000109c0  W?Construct$:CSThunk16$n(pnxa)pn$SymbolStruct$$
0002:00010ac0  W?Construct$:CSBlock16$n(pnxa)pn$SymbolStruct$$
0002:00010ba0  W?Construct$:CSWith16$n(pnxa)pn$SymbolStruct$$
0002:00010ca0  W?Construct$:CSLabel16$n(pnxa)pn$SymbolStruct$$
0002:00010d80  W?Construct$:CSCExModel16$n(pnxa)pn$SymbolStruct$$
0002:00010e90  W?Construct$:CSVftPath16$n(pnxa)pn$SymbolStruct$$
0002:00010f60  W?Construct$:CSRegRel16$n(pnxa)pn$SymbolStruct$$
0002:00011040  W?Construct$:CSBPRel32$n(pnxa)pn$SymbolStruct$$
0002:00011120  W?Construct$:CSLData32$n(pnxa)pn$SymbolStruct$$
0002:00011200  W?Construct$:CSPub32$n(pnxa)pn$SymbolStruct$$
0002:000112e0  W?Construct$:CSPub32_new$n(pnxa)pn$SymbolStruct$$
0002:000113c0  W?Construct$:CSLProc32$n(pnxa)pn$SymbolStruct$$
0002:000114d0  W?Construct$:CSThunk32$n(pnxa)pn$SymbolStruct$$
0002:000115c0  W?Construct$:CSBlock32$n(pnxa)pn$SymbolStruct$$
0002:000116a0  W?Construct$:CSWith32$n(pnxa)pn$SymbolStruct$$
0002:000117a0  W?Construct$:CSLabel32$n(pnxa)pn$SymbolStruct$$
0002:00011870  W?Construct$:CSCExModel32$n(pnxa)pn$SymbolStruct$$
0002:00011980  W?Construct$:CSVftPath32$n(pnxa)pn$SymbolStruct$$
0002:00011a50  W?Construct$:CSRegRel32$n(pnxa)pn$SymbolStruct$$
0002:00011b30  W?Construct$:CSLThread32$n(pnxa)pn$SymbolStruct$$
0002:00011c20+ W?DerivedPut$:CSCompile$n.x(rn$ExeMaker$$)v
0002:00011c50+ W?DerivedPut$:CSRegister$n.x(rn$ExeMaker$$)v
0002:00011c70+ W?DerivedPut$:CSConstant$n.x(rn$ExeMaker$$)v
0002:00011ca0+ W?DerivedPut$:CSUdt$n.x(rn$ExeMaker$$)v
0002:00011cc0  W?DerivedPut$:CSStartSearch$n.x(rn$ExeMaker$$)v
0002:00011ce0+ W?DerivedPut$:CSObjName$n.x(rn$ExeMaker$$)v
0002:00011d00+ W?DerivedPut$:CSCobolUdt$n.x(rn$ExeMaker$$)v
0002:00011d20+ W?DerivedPut$:CSManyReg$n.x(rn$ExeMaker$$)v
0002:00011d50+ W?DerivedPut$:CSReturn$n.x(rn$ExeMaker$$)v
0002:00011d80+ W?DerivedPut$:CSEntryThis$n.x(rn$ExeMaker$$)v
0002:00011d90  W?Put$:SymbolStruct$n.x(rn$ExeMaker$$)v
0002:00011e00+ W?DerivedPut$:CSBPRel16$n.x(rn$ExeMaker$$)v
0002:00011e20+ W?DerivedPut$:CSLData16$n.x(rn$ExeMaker$$)v
0002:00011e40+ W?DerivedPut$:CSPub16$n.x(rn$ExeMaker$$)v
0002:00011e60+ W?DerivedPut$:CSLProc16$n.x(rn$ExeMaker$$)v
0002:00011e80+ W?DerivedPut$:CSThunk16$n.x(rn$ExeMaker$$)v
0002:00011ea0+ W?DerivedPut$:CSBlock16$n.x(rn$ExeMaker$$)v
0002:00011ec0+ W?DerivedPut$:CSWith16$n.x(rn$ExeMaker$$)v
0002:00011ee0+ W?DerivedPut$:CSLabel16$n.x(rn$ExeMaker$$)v
0002:00011f00+ W?DerivedPut$:CSCExModel16$n.x(rn$ExeMaker$$)v
0002:00011f30+ W?DerivedPut$:CSVftPath16$n.x(rn$ExeMaker$$)v
0002:00011f50+ W?DerivedPut$:CSRegRel16$n.x(rn$ExeMaker$$)v
0002:00011f70+ W?DerivedPut$:CSBPRel32$n.x(rn$ExeMaker$$)v
0002:00011f90+ W?DerivedPut$:CSLData32$n.x(rn$ExeMaker$$)v
0002:00011fb0+ W?DerivedPut$:CSPub32$n.x(rn$ExeMaker$$)v
0002:00011fd0+ W?DerivedPut$:CSPub32_new$n.x(rn$ExeMaker$$)v
0002:00011ff0+ W?DerivedPut$:CSLProc32$n.x(rn$ExeMaker$$)v
0002:00012010+ W?DerivedPut$:CSThunk32$n.x(rn$ExeMaker$$)v
0002:00012030+ W?DerivedPut$:CSBlock32$n.x(rn$ExeMaker$$)v
0002:00012050+ W?DerivedPut$:CSWith32$n.x(rn$ExeMaker$$)v
0002:00012070+ W?DerivedPut$:CSLabel32$n.x(rn$ExeMaker$$)v
0002:00012090+ W?DerivedPut$:CSCExModel32$n.x(rn$ExeMaker$$)v
0002:000120c0+ W?DerivedPut$:CSVftPath32$n.x(rn$ExeMaker$$)v
0002:000120e0+ W?DerivedPut$:CSRegRel32$n.x(rn$ExeMaker$$)v
0002:00012100+ W?DerivedPut$:CSLThread32$n.x(rn$ExeMaker$$)v
0002:00012120  W?DerivedPut$:CSProcRef$n.x(rn$ExeMaker$$)v
0002:00012180  W?DerivedPut$:CSDataRef$n.x(rn$ExeMaker$$)v
0002:00014250+ W?$ct:__sspdf$:cv_proc$n(rnx$0:1$)_
0002:000142b0+ W?$ct:__uiq7nf$:__8tjdl6cv_return_flags$n(rnx$0:1$)_
0002:000142e0+ W?$ct:__101t1f$:__6bn8u8cv_compile$n(rnx$0:1$)_
0003:00006a30+ W?$Wvf0Dok:CSCompile$$nx[]pn()v
0003:00006a70+ W?$Wvf0Eok:CSRegister$$nx[]pn()v
0003:00006ab0+ W?$Wvf0Eok:CSConstant$$nx[]pn()v
0003:00006af0+ W?$Wvf09ok:CSUdt$$nx[]pn()v
0003:00006b30+ W?$Wvf0Eok:CSEndBlock$$nx[]pn()v
0003:00006b70+ W?$Wvf0Dok:CSObjName$$nx[]pn()v
0003:00006bb0+ W?$Wvf0Eok:CSEndOfArg$$nx[]pn()v
0003:00006bf0+ W?$Wvf0Eok:CSCobolUdt$$nx[]pn()v
0003:00006c30+ W?$Wvf0Dok:CSManyReg$$nx[]pn()v
0003:00006c70+ W?$Wvf0Cok:CSReturn$$nx[]pn()v
0003:00006cb0+ W?$Wvf0Fok:CSEntryThis$$nx[]pn()v
0003:00006cf0+ W?$Wvf0Dok:CSBPRel16$$nx[]pn()v
0003:00006d30+ W?$Wvf0Dok:CSLData16$$nx[]pn()v
0003:00006d70+ W?$Wvf0Bok:CSPub16$$nx[]pn()v
0003:00006db0+ W?$Wvf0Dok:CSLProc16$$nx[]pn()v
0003:00006df0+ W?$Wvf0Dok:CSThunk16$$nx[]pn()v
0003:00006e30+ W?$Wvf0Dok:CSBlock16$$nx[]pn()v
0003:00006e70+ W?$Wvf0Cok:CSWith16$$nx[]pn()v
0003:00006eb0+ W?$Wvf0Dok:CSLabel16$$nx[]pn()v
0003:00006ef0+ W?$Wvf0Gok:CSCExModel16$$nx[]pn()v
0003:00006f30+ W?$Wvf0Fok:CSVftPath16$$nx[]pn()v
0003:00006f70+ W?$Wvf0Eok:CSRegRel16$$nx[]pn()v
0003:00006fb0+ W?$Wvf0Dok:CSBPRel32$$nx[]pn()v
0003:00006ff0+ W?$Wvf0Dok:CSLData32$$nx[]pn()v
0003:00007030+ W?$Wvf0Bok:CSPub32$$nx[]pn()v
0003:00007070+ W?$Wvf0Fok:CSPub32_new$$nx[]pn()v
0003:000070b0+ W?$Wvf0Dok:CSLProc32$$nx[]pn()v
0003:000070f0+ W?$Wvf0Dok:CSThunk32$$nx[]pn()v
0003:00007130+ W?$Wvf0Dok:CSBlock32$$nx[]pn()v
0003:00007170+ W?$Wvf0Cok:CSWith32$$nx[]pn()v
0003:000071b0+ W?$Wvf0Dok:CSLabel32$$nx[]pn()v
0003:000071f0+ W?$Wvf0Gok:CSCExModel32$$nx[]pn()v
0003:00007230+ W?$Wvf0Fok:CSVftPath32$$nx[]pn()v
0003:00007270+ W?$Wvf0Eok:CSRegRel32$$nx[]pn()v
0003:000072b0+ W?$Wvf0Fok:CSLThread32$$nx[]pn()v
0003:000072f0+ W?$Wts0Dn$CSCompile$$$nx[]uc
0003:00007310+ W?$Wts0En$CSRegister$$$nx[]uc
0003:00007330+ W?$Wts0En$CSConstant$$$nx[]uc
0003:00007350+ W?$Wts09n$CSUdt$$$nx[]uc
0003:00007370+ W?$Wts0En$CSEndBlock$$$nx[]uc
0003:00007390+ W?$Wts0Dn$CSObjName$$$nx[]uc
0003:000073b0+ W?$Wts0En$CSEndOfArg$$$nx[]uc
0003:000073d0+ W?$Wts0En$CSCobolUdt$$$nx[]uc
0003:000073f0+ W?$Wts0Dn$CSManyReg$$$nx[]uc
0003:00007410+ W?$Wts0Cn$CSReturn$$$nx[]uc
0003:00007430+ W?$Wts0Fn$CSEntryThis$$$nx[]uc
0003:00007450+ W?$Wts0Dn$CSBPRel16$$$nx[]uc
0003:00007470+ W?$Wts0Dn$CSLData16$$$nx[]uc
0003:00007490+ W?$Wts0Bn$CSPub16$$$nx[]uc
0003:000074b0+ W?$Wts0Dn$CSLProc16$$$nx[]uc
0003:000074d0+ W?$Wts0Dn$CSThunk16$$$nx[]uc
0003:000074f0+ W?$Wts0Dn$CSBlock16$$$nx[]uc
0003:00007510+ W?$Wts0Cn$CSWith16$$$nx[]uc
0003:00007530+ W?$Wts0Dn$CSLabel16$$$nx[]uc
0003:00007550+ W?$Wts0Gn$CSCExModel16$$$nx[]uc
0003:00007570+ W?$Wts0Fn$CSVftPath16$$$nx[]uc
0003:00007590+ W?$Wts0En$CSRegRel16$$$nx[]uc
0003:000075b0+ W?$Wts0Dn$CSBPRel32$$$nx[]uc
0003:000075d0+ W?$Wts0Dn$CSLData32$$$nx[]uc
0003:000075f0+ W?$Wts0Bn$CSPub32$$$nx[]uc
0003:00007610+ W?$Wts0Fn$CSPub32_new$$$nx[]uc
0003:00007630+ W?$Wts0Dn$CSLProc32$$$nx[]uc
0003:00007650+ W?$Wts0Dn$CSThunk32$$$nx[]uc
0003:00007670+ W?$Wts0Dn$CSBlock32$$$nx[]uc
0003:00007690+ W?$Wts0Cn$CSWith32$$$nx[]uc
0003:000076b0+ W?$Wts0Dn$CSLabel32$$$nx[]uc
0003:000076d0+ W?$Wts0Gn$CSCExModel32$$$nx[]uc
0003:000076f0+ W?$Wts0Fn$CSVftPath32$$$nx[]uc
0003:00007710+ W?$Wts0En$CSRegRel32$$$nx[]uc
0003:00007730+ W?$Wts0Fn$CSLThread32$$$nx[]uc
0003:0000a7cc+ W?$Wti0E$CSLThread32$$$n[]uc
0003:0000a7e0+ W?$Wti0D$CSRegRel32$$$n[]uc
0003:0000a7f4+ W?$Wti0E$CSVftPath32$$$n[]uc
0003:0000a808+ W?$Wti0F$CSCExModel32$$$n[]uc
0003:0000a81c+ W?$Wti0C$CSLabel32$$$n[]uc
0003:0000a830+ W?$Wti0B$CSWith32$$$n[]uc
0003:0000a840+ W?$Wti0C$CSBlock32$$$n[]uc
0003:0000a854+ W?$Wti0C$CSThunk32$$$n[]uc
0003:0000a868+ W?$Wti0C$CSLProc32$$$n[]uc
0003:0000a87c+ W?$Wti0E$CSPub32_new$$$n[]uc
0003:0000a890+ W?$Wti0A$CSPub32$$$n[]uc
0003:0000a8a0+ W?$Wti0C$CSLData32$$$n[]uc
0003:0000a8b4+ W?$Wti0C$CSBPRel32$$$n[]uc
0003:0000a8c8+ W?$Wti0D$CSRegRel16$$$n[]uc
0003:0000a8dc+ W?$Wti0E$CSVftPath16$$$n[]uc
0003:0000a8f0+ W?$Wti0F$CSCExModel16$$$n[]uc
0003:0000a904+ W?$Wti0C$CSLabel16$$$n[]uc
0003:0000a918+ W?$Wti0B$CSWith16$$$n[]uc
0003:0000a928+ W?$Wti0C$CSBlock16$$$n[]uc
0003:0000a93c+ W?$Wti0C$CSThunk16$$$n[]uc
0003:0000a950+ W?$Wti0C$CSLProc16$$$n[]uc
0003:0000a964+ W?$Wti0A$CSPub16$$$n[]uc
0003:0000a974+ W?$Wti0C$CSLData16$$$n[]uc
0003:0000a988+ W?$Wti0C$CSBPRel16$$$n[]uc
0003:0000a99c+ W?$Wti0E$CSEntryThis$$$n[]uc
0003:0000a9b0+ W?$Wti0B$CSReturn$$$n[]uc
0003:0000a9c0+ W?$Wti0C$CSManyReg$$$n[]uc
0003:0000a9d4+ W?$Wti0D$CSCobolUdt$$$n[]uc
0003:0000a9e8+ W?$Wti0D$CSEndOfArg$$$n[]uc
0003:0000a9fc+ W?$Wti0C$CSObjName$$$n[]uc
0003:0000aa10+ W?$Wti0D$CSEndBlock$$$n[]uc
0003:0000aa24+ W?$Wti08$CSUdt$$$n[]uc
0003:0000aa34+ W?$Wti0D$CSConstant$$$n[]uc
0003:0000aa48+ W?$Wti0D$CSRegister$$$n[]uc
0003:0000aa5c+ W?$Wti0C$CSCompile$$$n[]uc
0002:000121e0  W?DerivedPut$:CSPageAlign$n.x(rn$ExeMaker$$)v
0003:0000a7bc+ W?_padTable$:SymbolStruct$n[]pna
Module: makeexe.obj(/mnt/sda5/.user/root/src/openwatcom-1.9/bld/cvpack/cpp/makeexe.cpp)
0002:000144c0+ W?$dt:WriteError$n()_
0002:000144d0+ W?$ct:WriteError$n(rnx$0$)_
0002:000144f0+ W?$dt:WCValListIterBase$::1npn$cv_dir_entry$$1n$WCPtrSList$::1n$1$$1n$WCNIsvSLink$::1npn$1$$n()_
0002:00014550+ W?current$:WCValListIterBase$::1npn$cv_dir_entry$$1n$WCPtrSList$::1n$2$$1n$WCNIsvSLink$::1npn$2$$n.x()pn$2$
0002:00014570+ W?$dt:WCPtrSListIter$::1n$cv_dir_entry$$n()_
0002:00014610+ W?$dt:WCPtrConstSListIter$::1n$cv_dir_entry$$n()_
0002:000146d0+ W?append$:WCValListBase$::1npn$cv_dir_entry$$1n$WCIsvSListBase$::1n$WCNIsvSLink$::1npn$2$$$1n$4::1npn$2$$n(rnxpn$2$)i
0002:00014700+ W?WCListNew$:WCValListBase$::1npn$cv_dir_entry$$1n$WCIsvSListBase$::1n$WCNIsvSLink$::1npn$2$$$1n$4::1npn$2$$n(rnxpn$2$)pn$4::1npn$2$$
0003:00007ab0+ W?$Wvf0Eo0:WriteError$$nx[]pn()v
0003:00007ac0+ W?$Wvf1Ro4:WCValListIterBase$::1npn$cv_dir_entry$$1n$WCPtrSList$::1n$1$$1n$WCNIsvSLink$::1npn$1$$$nx[]pn()v
0003:00007ad0+ W?$Wvf0bo4:WCPtrSListIter$::1n$cv_dir_entry$$$nx[]pn()v
0003:00007ae0+ W?$Wvf0go4:WCPtrConstSListIter$::1n$cv_dir_entry$$$nx[]pn()v
0003:00007af0+ W?$Wth0Gnrn$WriteError$$$nx[]uc
0003:00007b10+ W?$Wts0gn$WCPtrConstSListIter$::1n$cv_dir_entry$$$$nx[]uc
0003:00007b30+ W?$Wts0En$WriteError$$$nx[]uc
0003:0000aa6d+ W?$Wti0a$WCPtrSListIter$::1n$cv_dir_entry$$$$n[]uc
0003:0000aa96+ W?$Wti0D$WriteError$$$n[]uc
0003:0000aaa8+ W?$Wti0f$WCPtrConstSListIter$::1n$cv_dir_entry$$$$n[]uc
0002:00014350  W?Insert$:ODirectory$n($$TE$$usulul)v
0002:00014390  W?Put$:ODirectory$n(rn$ExeMaker$$)v
0002:00014480  W?Write$:ExeMaker$n(pnxaui)v
0003:00007b50+ W?$Wts0bn$WCPtrSListIter$::1n$cv_dir_entry$$$$nx[]uc
Module: symdis.obj(/mnt/sda5/.user/root/src/openwatcom-1.9/bld/cvpack/cpp/symdis.cpp)
0002:00014c70+ W?$dt:CSProcRef$n()_
0002:00014d30+ W?cSum$:CSProcRef$n.x()ul
0002:00014d40+ W?DataSegment$:CSProcRef$n.x()ui
0002:00014d50+ W?MemOffset$:CSProcRef$n.x()ui
0002:00014d60+ W?Name$:CSProcRef$n.x()pnxa
0002:00014d70+ W?$dt:CSDataRef$n()_
0002:00014e30+ W?cSum$:CSDataRef$n.x()ul
0002:00014e40+ W?DataSegment$:CSDataRef$n.x()ui
0002:00014e50+ W?MemOffset$:CSDataRef$n.x()ui
0002:00014e60+ W?Name$:CSDataRef$n.x()pnxa
0002:00014f00+ W?isEmpty$:WCValListBase$::1npn$SymbolStruct$$1n$WCIsvSListBase$::1n$WCNIsvSLink$::1npn$2$$$1n$4::1npn$2$$n.x()i
0003:00007f30+ W?$Wvf0Dok:CSProcRef$$nx[]pn()v
0003:00007f70+ W?$Wvf0Dok:CSDataRef$$nx[]pn()v
0003:00007fb0+ W?$Wts0Dn$CSProcRef$$$nx[]uc
0003:0000ab98+ W?$Wti0C$CSDataRef$$$n[]uc
0003:0000abac+ W?$Wti0C$CSProcRef$$$n[]uc
0002:00014740+ W?Build$:SymbolDistributor$n.x(pnxauirn$SstAlignSym$$)v
0002:00014be0  W?Distribute$:SymbolDistributor$n.x(uirn$SstAlignSym$$)q
0003:00007fd0+ W?$Wts0Dn$CSDataRef$$$nx[]uc
0003:0000aad8  W?_symConstructorTable$:SymbolDistributor$n[]pn(pnxa)pn$SymbolStruct$$
Module: typemap.obj(/mnt/sda5/.user/root/src/openwatcom-1.9/bld/cvpack/cpp/typemap.cpp)
0002:00015390+ W?$od:WCValVector$::1n$__304un0mappingStruct$:TypeIndexMap$$n.x(i)rnx$1:2$
0002:000153e0+ W?base_index_check$:WCBareVectorBase$::1n$__304un0mappingStruct$:TypeIndexMap$$n.x(i)i
0002:00014f10  W?$ct:TypeIndexMap$n(uius)_
0002:00014fd0  W?Insert$:TypeIndexMap$n(usus)v
0002:00015120  W?Lookup$:TypeIndexMap$n.x(us)us
0002:00015210  W?Reset$:TypeIndexMap$n(ui)v
Module: typearay.obj(/mnt/sda5/.user/root/src/openwatcom-1.9/bld/cvpack/cpp/typearay.cpp)
0002:00015910+ W?$dt:GlobalTypeContainer$n()_
0002:00015920+ W?$ct:GlobalListContainer$n()_
0002:000159c0+ W?$dt:GlobalListContainer$n()_
0002:00015a90+ W?Find$:GlobalListContainer$n(pn$LFTypeRecord$$)rn$WCPtrSList$::1n$2$$
0002:00015aa0+ W?Insert$:GlobalListContainer$n(pn$LFTypeRecord$$)v
0002:00015ac0+ W?$ct:GlobalHashContainer$n()_
0002:00015b40+ W?$dt:GlobalHashContainer$n()_
0002:00015c00+ W?Find$:GlobalHashContainer$n(pn$LFTypeRecord$$)rn$WCPtrSList$::1n$2$$
0002:00015410+ W?Insert$:GlobalHashContainer$n(pn$LFTypeRecord$$)v
0002:00015460+ W?Rehash$:GlobalHashContainer$n()v
0002:000155f0+ W?HFn$:GlobalHashContainer$n(rn$VariantString$$)ul
0002:00015630  W?$ct:GlobalTypeArray$n()_
0002:00015860  W?DerivedInsert$:GlobalTypeArray$n(pn$LFTypeRecord$$)v
0002:00015c60  W?$ct:WCPtrSListIter$::1n$LFTypeRecord$$n()_
0002:00015ce0+ W?$ct:WCValListIterBase$::1npn$LFTypeRecord$$1n$WCPtrSList$::1n$1$$1n$WCNIsvSLink$::1npn$1$$n()_
0003:00008760+ W?$Wvf0No0:GlobalListContainer$$nx[]pn()v
0003:00008770+ W?$Wvf0No0:GlobalHashContainer$$nx[]pn()v
0003:00008780+ W?$Wts0Nn$GlobalListContainer$$$nx[]uc
0003:000087a0+ W?$Wts0Nn$GlobalHashContainer$$$nx[]uc
0003:0000abbd+ W?$Wti0M$GlobalHashContainer$$$n[]uc
0003:0000abd8+ W?$Wti0M$GlobalListContainer$$$n[]uc
0002:00015880  W?Find$:GlobalTypeArray$n(pn$LFTypeRecord$$)rn$WCPtrSList$::1n$2$$
0002:000158d0  W?DerivedInsert$:LocalTypeArray$n(pn$LFTypeRecord$$)v
Module: typercrd.obj(/mnt/sda5/.user/root/src/openwatcom-1.9/bld/cvpack/cpp/typercrd.cpp)
0002:00016280+ W?$dt:LFTypeRecord$n()_
0002:00016300+ W?IsEquivalent$:LFTypeRecord$n(rn$1$)q
0002:00016320+ W?$dt:LFGlobalTypeRecord$n()_
0002:000163b0+ W?$ct:Recorder$n()_
0002:00016450+ W?$dt:Recorder$n()_
0002:000164d0+ W?$ct:MyNodeStack$n()_
0002:00016570+ W?$dt:MyNodeStack$n()_
0002:00015e20  W?$ra:LFTypeRecord$n.x(rnx$0$)q
0002:00015e40+ W?ConvertIndex$:LFTypeRecord$n(us)ui
0002:00015e70  W?$ct:LFTypeRecord$n(uspnxa)_
0002:00015ec0+ W?$ct:LFTypeRecord$n(pn$0$)_
0002:00015ef0  W?$ct:LFGlobalTypeRecord$n(uspnxa)_
0002:00015f60  W?$ct:LFGlobalTypeRecord$n(pn$LFTypeRecord$$)_
0002:000165f0+ W?$dt:WCPtrListBase$::1n$LFGlobalTypeRecord$$1n$WCValSList$::1npn$1$$n()_
0002:00016660+ W?base_equivalent$:WCValSList$::1nusn.x(rnxusrnxus)i
0002:00016670+ W?$dt:WCValSList$::1nusn()_
0002:00016710+ W?base_equivalent$:WCValSList$::1npn$LFGlobalTypeRecord$$n.x(rnxpn$2$rnxpn$2$)i
0002:00016720+ W?$dt:WCValSList$::1npn$LFGlobalTypeRecord$$n()_
0002:000167c0+ W?base_equivalent$:WCPtrSList$::1n$LFGlobalTypeRecord$$n.x(rnxpn$2$rnxpn$2$)i
0002:000167d0+ W?$ct:WCPtrSList$::1n$LFGlobalTypeRecord$$n()_
0002:00016870+ W?$dt:WCPtrSList$::1n$LFGlobalTypeRecord$$n()_
0002:00016930+ W?$dt:WCValListIterBase$::1npn$LFGlobalTypeRecord$$1n$WCPtrSList$::1n$1$$1n$WCNIsvSLink$::1npn$1$$n()_
0002:00016990+ W?current$:WCValListIterBase$::1npn$LFGlobalTypeRecord$$1n$WCPtrSList$::1n$2$$1n$WCNIsvSLink$::1npn$2$$n.x()pn$2$
0002:000169b0+ W?$dt:WCPtrSListIter$::1n$LFGlobalTypeRecord$$n()_
0002:00016a50+ W?$ct:WCStack$::1nus1n$WCValSList$::1nus$n()_
0002:00016b00+ W?$dt:WCStack$::1nus1n$WCValSList$::1nus$n()_
0002:00016bc0+ W?get$:WCValListBase$::1nus1n$WCIsvSListBase$::1n$WCNIsvSLink$::1nus$$1n$3::1nus$n(i)us
0002:00016bf0+ W?$ct:WCPtrListBase$::1n$LFGlobalTypeRecord$$1n$WCValSList$::1npn$1$$n(pn(ui)pnvpn(pnvui)v)_
0002:00016ca0+ W?$ct:WCValSList$::1nusn()_
0002:00016d50+ W?$ct:WCValSList$::1npn$LFGlobalTypeRecord$$n(pn(ui)pnvpn(pnvui)v)_
0002:00016e00+ W?clearAndDestroy$:WCIsvSListBase$::1n$WCNIsvSLink$::1nus$n()v
0002:00016e10+ W?entries$:WCIsvSListBase$::1n$WCNIsvSLink$::1npn$LFGlobalTypeRecord$$$n.x()i
0002:00016e20+ W?$ct:WCValListBase$::1nus1n$WCIsvSListBase$::1n$WCNIsvSLink$::1nus$$1n$2::1nus$n(pn(ui)pnvpn(pnvui)v)_
0002:00016ec0+ W?$ct:WCValListBase$::1npn$LFGlobalTypeRecord$$1n$WCIsvSListBase$::1n$WCNIsvSLink$::1npn$1$$$1n$3::1npn$1$$n(pn(ui)pnvpn(pnvui)v)_
0003:00008e60+ W?$Wvf0Goc:LFTypeRecord$$nx[]pn()v
0003:00008e70+ W?$Wvf0Moc:LFGlobalTypeRecord$$nx[]pn()v
0003:00008e80+ W?$Wvf14o4:WCPtrListBase$::1n$LFGlobalTypeRecord$$1n$WCValSList$::1npn$1$$$nx[]pn()v
0003:00008e90+ W?$Wvf0Ko4:WCValSList$::1nus$nx[]pn()v
0003:00008ea0+ W?$Wvf0fo4:WCValSList$::1npn$LFGlobalTypeRecord$$$nx[]pn()v
0003:00008eb0+ W?$Wvf0do4:WCPtrSList$::1n$LFGlobalTypeRecord$$$nx[]pn()v
0003:00008ec0+ W?$Wvf1Xo4:WCValListIterBase$::1npn$LFGlobalTypeRecord$$1n$WCPtrSList$::1n$1$$1n$WCNIsvSLink$::1npn$1$$$nx[]pn()v
0003:00008ed0+ W?$Wvf0ho4:WCPtrSListIter$::1n$LFGlobalTypeRecord$$$nx[]pn()v
0003:00008ee0+ W?$Wvf0co4:WCStack$::1nus1n$WCValSList$::1nus$$nx[]pn()v
0003:00008ef0+ W?$Wts0Gn$LFTypeRecord$$$nx[]uc
0003:00008f10+ W?$Wts0Mn$LFGlobalTypeRecord$$$nx[]uc
0003:00008f30+ W?$Wts0Fn$MyNodeStack$$$nx[]uc
0003:00008f50+ W?$Wts0Cn$Recorder$$$nx[]uc
0003:00008f70+ W?$Wts0hn$WCPtrSListIter$::1n$LFGlobalTypeRecord$$$$nx[]uc
0003:00008f90+ W?$Wts0Kn$WCValSList$::1nus$$nx[]uc
0003:00008fb0+ W?$Wts0fn$WCValSList$::1npn$LFGlobalTypeRecord$$$$nx[]uc
0003:00008fd0+ W?$Wts0dn$WCPtrSList$::1n$LFGlobalTypeRecord$$$$nx[]uc
0003:0000aca0+ W?$Wti0b$WCStack$::1nus1n$WCValSList$::1nus$$$n[]uc
0003:0000accc+ W?$Wti0c$WCPtrSList$::1n$LFGlobalTypeRecord$$$$n[]uc
0003:0000acf8+ W?$Wti0e$WCValSList$::1npn$LFGlobalTypeRecord$$$$n[]uc
0003:0000ad28+ W?$Wti0J$WCValSList$::1nus$$n[]uc
0003:0000ad40+ W?$Wti0g$WCPtrSListIter$::1n$LFGlobalTypeRecord$$$$n[]uc
0003:0000ad70+ W?$Wti0B$Recorder$$$n[]uc
0003:0000ad80+ W?$Wti0E$MyNodeStack$$$n[]uc
0003:0000ad94+ W?$Wti0L$LFGlobalTypeRecord$$$n[]uc
0003:0000adb0+ W?$Wti0F$LFTypeRecord$$$n[]uc
0002:00016f60+ W?$ct:WCIsvSListBase$::1n$WCNIsvSLink$::1nus$n()_
0002:00016fe0+ W?$ct:WCIsvSListBase$::1n$WCNIsvSLink$::1npn$LFGlobalTypeRecord$$$n()_
0002:00015fd0+ W?IsEquivalent$:LFGlobalTypeRecord$n(rn$LFTypeRecord$$)q
0002:000160f0+ W?RewindAndUndo$:Recorder$n()v
0002:00016130+ W?MarkLoop$:MyNodeStack$n(pn$LFGlobalTypeRecord$$)v
0003:00008ff0+ W?$Wts0cn$WCStack$::1nus1n$WCValSList$::1nus$$$nx[]uc
0003:0000ac14+ W?_typeConstructorTable$:LFTypeRecord$n[]pn(pnxaui)pn$LFLeafStruct$$
0003:0001c830+ W?_nodeStack$:LFGlobalTypeRecord$n$MyNodeStack$$
0003:0001c848+ W?_recorder$:LFGlobalTypeRecord$n$Recorder$$
Module: common.obj(/mnt/sda5/.user/root/src/openwatcom-1.9/bld/cvpack/cpp/common.cpp)
0002:00017060  W?ToTypeIndex$n(ui)ui
0002:00017070  W?ToTableIndex$n(us)ui
0002:00017080  W?PrefixStrLen$n(pnxa)ui
0002:00017090  W?Warning$n(pnxa)v
Module: /mnt/sda5/.user/root/src/openwatcom-1.9/rel2/lib386/os2/plbx3r.lib(FSHAND)
0002:000170cb  __wcpp_4_fs_handler_
Module: /mnt/sda5/.user/root/src/openwatcom-1.9/rel2/lib386/os2/plbx3r.lib(stablcl.cpp)
0002:000170e0  __wcpp_4_lcl_register__
Module: /mnt/sda5/.user/root/src/openwatcom-1.9/rel2/lib386/os2/plbx3r.lib(opdel.cpp)
0002:000170f0  W?$dln(pnv)v
Module: /mnt/sda5/.user/root/src/openwatcom-1.9/rel2/lib386/os2/plbx3r.lib(dtorarst.cpp)
0002:00017100  __wcpp_4_dtor_array_store__
Module: /mnt/sda5/.user/root/src/openwatcom-1.9/rel2/lib386/os2/plbx3r.lib(opdelarr.cpp)
0002:00017130  W?$dan(pnv)v
Module: /mnt/sda5/.user/root/src/openwatcom-1.9/rel2/lib386/os2/plbx3r.lib(ifsdestr.cpp)
0003:00009080  W?$Wvf0Io22:ifstream$:std$$nx[]pn()v
0003:00009090  W?$Wvf0Io2e:ifstream$:std$$nx[]pn()v
0003:000090a0  W?$Wvf0Io40:ifstream$:std$$nx[]pn()v
0003:0000adc4  W?$Wti0F$istream$:std$$$n[]uc
0003:0000add8  W?$Wti0J$fstreambase$:std$$$n[]uc
0003:0000adf0  W?$Wti0B$ios$:std$$$n[]uc
0002:00017240  W?$Wvt0Y.@dt:ifstream$:std$o26$:0:1$dtn()_$:istream$:std$n()pnv
0002:00017250  W?$Wvt0W.@dt:ifstream$:std$c$:0:1$dtn()_$:ios$:std$n()pnv
0002:00017260  W?.tdtor$:istream$:std$n()pnv
0002:00017270  W?.tdtor$:fstreambase$:std$n()pnv
0002:00017280  W?.tdtor$:ios$:std$n()pnv
0002:00017140  W?$dt:ifstream$:std$n()_
0003:000090b0  W?$Wva0Ho0:ifstream$:std$$nx[]uc
Module: /mnt/sda5/.user/root/src/openwatcom-1.9/rel2/lib386/os2/plbx3r.lib(ofsdestr.cpp)
0003:00009170  W?$Wvf0Io22:ofstream$:std$$nx[]pn()v
0003:00009180  W?$Wvf0Io2a:ofstream$:std$$nx[]pn()v
0003:00009190  W?$Wvf0Io3r:ofstream$:std$$nx[]pn()v
0003:000091a0+ W?$Wts0Hn$ofstream$:std$$$nx[]uc
0003:0000ae00  W?$Wti0F$ostream$:std$$$n[]uc
0002:00017390  W?$Wvt0Y.@dt:ofstream$:std$o26$:0:1$dtn()_$:ostream$:std$n()pnv
0002:000173a0  W?$Wvt0W.@dt:ofstream$:std$c$:0:1$dtn()_$:ios$:std$n()pnv
0002:000173b0  W?.tdtor$:ostream$:std$n()pnv
0002:00017290  W?$dt:ofstream$:std$n()_
0003:000091c0  W?$Wva0Ho0:ofstream$:std$$nx[]uc
0003:0000ae14  W?$Wti0G$ofstream$:std$$$n[]uc
Module: /mnt/sda5/.user/root/src/openwatcom-1.9/rel2/lib386/os2/plbx3r.lib(stabthrw.cpp)
0002:00017ba0+ W?$ct:exception$:std$n()_
0002:00017bf0+ W?$ct:exception$:std$n(rnx$0:1$)_
0002:00017c40+ W?$ct:exception$:std$n(pnxa)_
0002:00017c90+ W?$dt:exception$:std$n()_
0002:00017d20+ W?what$:exception$:std$n.x()pnxa
0002:00017d60+ W?$ct:bad_exception$:std$n()_
0002:00017dc0+ W?$ct:bad_exception$:std$n(rnx$0:1$)_
0002:00017e10+ W?$dt:bad_exception$:std$n()_
0003:00009300+ W?$Wvf0Io4:exception$:std$$nx[]pn()v
0003:00009310+ W?$Wvf0Mo4:bad_exception$:std$$nx[]pn()v
0003:00009320+ W?$Wth0Onrn$bad_exception$:std$$$nx[]uc
0003:00009340+ W?$Wts0In$exception$:std$$$nx[]uc
0003:00009360+ W?$Wts0Mn$bad_exception$:std$$$nx[]uc
0003:00009380+ W?$Wts0Hn$_EXC_PR_FNEXC$$$nx[]uc
0003:000093a0+ W?$Wts0Gn$_EXC_PR_DTOR$$$nx[]uc
0003:000093c0  W?$Wts0Gn$_EXC_PR_FREE$$$nx[]uc
0003:000093e0  W?$Wts0Bn$_EXC_PR$$$nx[]uc
0003:00009400+ W?$Wva0Mo0:bad_exception$:std$$nx[]uc
0003:0000ae29  W?$Wti0A$_EXC_PR$$$n[]uc
0003:0000ae38  W?$Wti0F$_EXC_PR_FREE$$$n[]uc
0003:0000ae4c+ W?$Wti0F$_EXC_PR_DTOR$$$n[]uc
0003:0000ae60+ W?$Wti0G$_EXC_PR_FNEXC$$$n[]uc
0003:0000ae75+ W?$Wti0L$bad_exception$:std$$$n[]uc
0002:00017ec0+ W?.tcctor$:bad_exception$:std$n(rnx$1:2$)rn$1:2$
0002:00017ed0+ W?.tdtor$:bad_exception$:std$n()pnv
0002:00017ee0+ W?.tdtor$:exception$:std$n()pnv
0002:00017a58* __wcpp_4_rethrow__
0002:00017a9c  __wcpp_4_catch_done__
0002:00017b04  __wcpp_4_throw__
0002:00017b4c* __wcpp_4_throw_zero__
0003:00009420+ W?$Wva0Io0:exception$:std$$nx[]uc
0003:0000ae8f+ W?$Wti0H$exception$:std$$$n[]uc
Module: /mnt/sda5/.user/root/src/openwatcom-1.9/rel2/lib386/os2/plbx3r.lib(opnewarr.cpp)
0002:00017ef0  W?$nan(ui)pnv
Module: /mnt/sda5/.user/root/src/openwatcom-1.9/rel2/lib386/os2/plbx3r.lib(osttellp.cpp)
0002:00017f00  W?tellp$:ostream$:std$n()l
Module: /mnt/sda5/.user/root/src/openwatcom-1.9/rel2/lib386/os2/plbx3r.lib(ostspsto.cpp)
0002:00017f40  W?seekp$:ostream$:std$n(li)rn$1:2$
Module: /mnt/sda5/.user/root/src/openwatcom-1.9/rel2/lib386/os2/plbx3r.lib(ioicerr.cpp)
0003:0001c898  W?cerr$:std$n$ostream$:1$
0003:00009460  W?$Wts0Cn$stdiobuf$$$nx[]uc
0003:00009480  W?$Wts0Gn$ostream$:std$$$nx[]uc
0003:0000aed5+ W?$Wti0G$cerr_initfini$$$n[]uc
0002:00018050  W?.tdtor$:stdiobuf$n()pnv
0002:00018024+ W?$ct:cerr_initfini$n()_
0002:00018038+ W?$dt:cerr_initfini$n()_
0003:000094a0+ W?$Wts0Hn$cerr_initfini$$$nx[]uc
0003:0000aeea  W?$Wti0B$stdiobuf$$$n[]uc
Module: /mnt/sda5/.user/root/src/openwatcom-1.9/rel2/lib386/os2/plbx3r.lib(ostincch.cpp)
0002:00018060  W?$ob:ostream$:std$n(pnxa)rn$0:1$
Module: /mnt/sda5/.user/root/src/openwatcom-1.9/rel2/lib386/os2/plbx3r.lib(ostflush.cpp)
0002:000180e0  W?flush$:ostream$:std$n()rn$1:2$
Module: /mnt/sda5/.user/root/src/openwatcom-1.9/rel2/lib386/os2/plbx3r.lib(opnew.cpp)
0002:00018120  W?$nwn(ui)pnv
Module: /mnt/sda5/.user/root/src/openwatcom-1.9/rel2/lib386/os2/plbx3r.lib(fsbclose.cpp)
0002:00018170  W?close$:fstreambase$:std$n()v
Module: /mnt/sda5/.user/root/src/openwatcom-1.9/rel2/lib386/os2/plbx3r.lib(stabdtor.cpp)
0002:00018460  __wcpp_4_destruct_internal__
0002:00018480  __wcpp_4_destruct_all__
0002:00018484* __wcpp_4_destruct__
Module: /mnt/sda5/.user/root/src/openwatcom-1.9/rel2/lib386/os2/plbx3r.lib(setnwhdl.cpp)
0002:000184b0  W?set_new_handler$n(pn()v)pn()v
Module: /mnt/sda5/.user/root/src/openwatcom-1.9/rel2/lib386/os2/clib3r.lib(setjmp)
0002:000184c0  _setjmp_
0002:000184f9  longjmp_
Module: /mnt/sda5/.user/root/src/openwatcom-1.9/rel2/lib386/os2/clib3r.lib(stricmp.c)
0002:00018580  stricmp_
Module: /mnt/sda5/.user/root/src/openwatcom-1.9/rel2/lib386/os2/plbx3r.lib(flfoprot.cpp)
0003:000094c0  W?openprot$:filebuf$:std$nxi
Module: /mnt/sda5/.user/root/src/openwatcom-1.9/rel2/lib386/os2/plbx3r.lib(ifsconnm.cpp)
0003:00009510  W?$Wvb0Ho0:ifstream$:std$$nx[]ui
0003:00009518  W?$Wvb0Io26:ifstream$:std$$nx[]ui
0002:000185c0  W?$ct:ifstream$:std$n(pnxaii)_
Module: /mnt/sda5/.user/root/src/openwatcom-1.9/rel2/lib386/os2/plbx3r.lib(ioicout.cpp)
0003:0001c918  W?cout$:std$n$ostream$:1$
0003:0000af2c+ W?$Wti0G$cout_initfini$$$n[]uc
0002:000186e4+ W?$ct:cout_initfini$n()_
0002:000186ec+ W?$dt:cout_initfini$n()_
0003:00009550+ W?$Wts0Hn$cout_initfini$$$nx[]uc
Module: /mnt/sda5/.user/root/src/openwatcom-1.9/rel2/lib386/os2/plbx3r.lib(manendl.cpp)
0002:00018700  W?endl$:std$n(rn$ostream$:1$)rn$2:1$
Module: /mnt/sda5/.user/root/src/openwatcom-1.9/rel2/lib386/os2/plbx3r.lib(ostinomn.cpp)
0002:00018720  W?$ob:ostream$:std$n(pn(rn$0:1$)rn$0:1$)rn$0:1$
Module: /mnt/sda5/.user/root/src/openwatcom-1.9/rel2/lib386/os2/clib3r.lib(tmpnm.c)
0002:000187b0  tmpnam_
Module: /mnt/sda5/.user/root/src/openwatcom-1.9/rel2/lib386/os2/plbx3r.lib(ofsconnm.cpp)
0003:000095b4+ W?$Wvb0Ho0:ofstream$:std$$nx[]ui
0003:000095bc+ W?$Wvb0Io26:ofstream$:std$$nx[]ui
0002:00018880  W?$ct:ofstream$:std$n(pnxaii)_
Module: /mnt/sda5/.user/root/src/openwatcom-1.9/rel2/lib386/os2/clib3r.lib(remove.c)
0002:00018950  remove_
Module: /mnt/sda5/.user/root/src/openwatcom-1.9/rel2/lib386/os2/clib3r.lib(renamos2.c)
0002:00018960  rename_
Module: /mnt/sda5/.user/root/src/openwatcom-1.9/rel2/lib386/os2/clib3r.lib(errno.c)
0002:00018980  __get_errno_ptr_
0002:00018990* __get_doserrno_ptr_
Module: /mnt/sda5/.user/root/src/openwatcom-1.9/rel2/lib386/os2/clib3r.lib(strerror.c)
0002:00018cc0  strerror_
0002:00018ce0* _strerror_
0003:0000af44+ __sys_errlist
0003:0000afe8+ __sys_nerr
Module: /mnt/sda5/.user/root/src/openwatcom-1.9/rel2/lib386/os2/clib3r.lib(exit.c)
0002:00018da3+ __null_int23_exit_
0002:00018da4  exit_
0002:00018df4* _exit_
0003:0000afec+ ___int23_exit
0003:0000aff0+ ___FPE_handler_exit
Module: /mnt/sda5/.user/root/src/openwatcom-1.9/rel2/lib386/os2/plbx3r.lib(opnewp.cpp)
0002:00018e10  W?$nwn(uipnv)pnv
Module: /mnt/sda5/.user/root/src/openwatcom-1.9/rel2/lib386/os2/plbx3r.lib(wcexcept.cpp)
0002:00018e20  W?base_throw_empty_container$:WCExcept$n.x()v
0002:00018e48  W?base_throw_index_range$:WCExcept$n.x()v
0002:00018e70  W?base_throw_not_empty$:WCExcept$n()v
0002:00018ea8* W?base_throw_not_unique$:WCExcept$n.x()v
0002:00018ed0  W?base_throw_out_of_memory$:WCExcept$n.x()v
0002:00018ef8  W?base_throw_resize_required$:WCExcept$n.x()v
0002:00018f20* W?base_throw_zero_buckets$:WCExcept$n.x()v
0002:00018f48  W?base_throw_iter_range$:WCIterExcept$n.x()v
0002:00018f70  W?base_throw_undef_item$:WCIterExcept$n.x()v
0002:00018fc0+ W?$ct:failure$:WCIterExcept$n(rnx$0:1$)_
0002:00018fd0+ W?$dt:failure$:WCIterExcept$n()_
0002:00018fe0+ W?$ct:failure$:WCExcept$n(rnx$0:1$)_
0002:00018ff0+ W?$dt:failure$:WCExcept$n()_
0003:000095d0+ W?$Wth0Nnrn$failure$:WCExcept$$$nx[]uc
0003:000095f0+ W?$Wth0Rnrn$failure$:WCIterExcept$$$nx[]uc
0003:00009610+ W?$Wts0Ln$failure$:WCExcept$$$nx[]uc
0003:00009630  W?$Wts0Mn$__WATCOM_exception$$$nx[]uc
0003:0000aff4+ W?$Wti0O$failure$:WCIterExcept$$$n[]uc
0003:0000b011  W?$Wti0L$__WATCOM_exception$$$n[]uc
0002:00019000  W?$ct:__WATCOM_exception$n(rnx$0$)_
0002:00019010  W?$dt:__WATCOM_exception$n()_
0002:00018f98  W?base_throw_undef_iter$:WCIterExcept$n.x()v
0003:00009650+ W?$Wts0Pn$failure$:WCIterExcept$$$nx[]uc
0003:0000b02b+ W?$Wti0K$failure$:WCExcept$$$n[]uc
Module: /mnt/sda5/.user/root/src/openwatcom-1.9/rel2/lib386/os2/clib3r.lib(memset.c)
0002:00019020  memset_
Module: /mnt/sda5/.user/root/src/openwatcom-1.9/rel2/lib386/os2/plbx3r.lib(wclist.cpp)
0003:000096b0+ W?$Wva0Ho0:WCIsvListBase$$nx[]uc
0003:0000b044+ W?$Wti0G$WCIsvListBase$$$n[]uc
0002:00019040+ W?base_next$:WCIsvListBase$n.x(pnx$WCSLink$$i)pn$2$
0002:0001905c  W?base_insert$:WCIsvListBase$n(pn$WCSLink$$)v
0002:00019080+ W?base_index_check$:WCIsvListBase$n.x(i)i
0002:000190b8+ W?base_bfind$:WCIsvListBase$n.x(i)pn$WCSLink$$
0002:000190d0  W?base_sfind$:WCIsvListBase$n.x(i)pn$WCSLink$$
0002:000190e0+ W?base_dfind$:WCIsvListBase$n.x(i)pn$WCDLink$$
0002:0001912c  W?base_sget$:WCIsvListBase$n(i)pn$WCSLink$$
0002:00019164* W?base_dget$:WCIsvListBase$n(i)pn$WCDLink$$
0002:000191ac* W?base_index$:WCIsvListBase$n.x(pnx$WCSLink$$)i
0002:000191f4+ W?base_clear$:WCIsvListBase$n()v
0002:00019204  W?base_destroy$:WCIsvListBase$n()v
0002:00019248  W?$dt:WCIsvListBase$n()_
0002:000192ac  W?base_advance$:WCListIterBase$n(i)pn$WCSLink$$
0002:0001934c* W?base_retreat$:WCListIterBase$n(i)pn$WCDLink$$
0002:000193f0* W?base_tail_hit$:WCListIterBase$n(pn$WCSLink$$)pn$2$
0002:0001940c* W?base_tail_unhit$:WCListIterBase$n(pn$WCSLink$$)v
0003:000096d0+ W?$Wva0Co0:WCExcept$$nx[]uc
Module: /mnt/sda5/.user/root/src/openwatcom-1.9/rel2/lib386/os2/plbx3r.lib(pure_err.cpp)
0002:00019420  __wcpp_4_pure_error__
Module: /mnt/sda5/.user/root/src/openwatcom-1.9/rel2/lib386/os2/plbx3r.lib(undefed.cpp)
0002:00019450  __wcpp_4_undefed_cdtor__
Module: /mnt/sda5/.user/root/src/openwatcom-1.9/rel2/lib386/os2/clib3r.lib(cstart)
0002:00019462  _cstart_
Module: /mnt/sda5/.user/root/src/openwatcom-1.9/rel2/lib386/os2/clib3r.lib(argcv.c)
0003:0001ca64  __argc
0003:0001ca68  __argv
0003:0001ca6c  ___argc
0003:0001ca70  ___argv
Module: /mnt/sda5/.user/root/src/openwatcom-1.9/rel2/lib386/os2/plbx3r.lib(moddtorr.cpp)
0003:0000c6d6  ___wcpp_4_data_module_dtor_ref_
Module: /mnt/sda5/.user/root/src/openwatcom-1.9/rel2/lib386/os2/plbx3r.lib(fsroot.cpp)
0003:0000c6a0  ___wcpp_4_data_init_fs_root_
Module: /mnt/sda5/.user/root/src/openwatcom-1.9/rel2/lib386/os2/plbx3r.lib(cppdata.cpp)
0003:0001ca74  __wint_thread_data
0003:0001ca98  __compiled_under_OS2
Module: /mnt/sda5/.user/root/src/openwatcom-1.9/rel2/lib386/os2/plbx3r.lib(istsgstp.cpp)
0002:000194d0  W?seekg$:istream$:std$n(l)rn$1:2$
Module: /mnt/sda5/.user/root/src/openwatcom-1.9/rel2/lib386/os2/plbx3r.lib(istread.cpp)
0002:00019530  W?read$:istream$:std$n(pnai)rn$1:2$
Module: /mnt/sda5/.user/root/src/openwatcom-1.9/rel2/lib386/os2/clib3r.lib(qsort.c)
0002:00019620  qsort_
Module: /mnt/sda5/.user/root/src/openwatcom-1.9/rel2/lib386/os2/plbx3r.lib(istsgsto.cpp)
0002:00019cd0  W?seekg$:istream$:std$n(li)rn$1:2$
Module: /mnt/sda5/.user/root/src/openwatcom-1.9/rel2/lib386/os2/plbx3r.lib(isttellg.cpp)
0002:00019d20  W?tellg$:istream$:std$n()l
Module: /mnt/sda5/.user/root/src/openwatcom-1.9/rel2/lib386/os2/plbx3r.lib(iosclear.cpp)
0002:00019d50  W?clear$:ios$:std$n(i)i
Module: /mnt/sda5/.user/root/src/openwatcom-1.9/rel2/lib386/os2/plbx3r.lib(ifsconfd.cpp)
0002:00019d70  W?$ct:ifstream$:std$n(i)_
Module: /mnt/sda5/.user/root/src/openwatcom-1.9/rel2/lib386/os2/clib3r.lib(strncmp.c)
0002:00019e40  strncmp_
Module: /mnt/sda5/.user/root/src/openwatcom-1.9/rel2/lib386/os2/plbx3r.lib(ostinulo.cpp)
0002:00019e70  W?$ob:ostream$:std$n(ul)rn$0:1$
Module: /mnt/sda5/.user/root/src/openwatcom-1.9/rel2/lib386/os2/plbx3r.lib(ctorarst.cpp)
0002:0001a2d0+ W?$ct:_RTDTOR$n()_
0002:00019fa0+ W?$dt:_CTAS$n()_
0002:0001a2e0+ W?$ct:_CTAS$n()_
0002:0001a144* __wcpp_4_ctor_array_storage_1m__
0002:0001a190* __wcpp_4_ctor_array_storage_1s__
0002:0001a1dc* __wcpp_4_ctor_array_storage_2s__
0002:0001a228* __wcpp_4_ctor_array_storage_gm__
0002:0001a27c  __wcpp_4_ctor_array_storage_gs__
0003:00009760+ W?$Wts09n$_CTAS$$$nx[]uc
0003:0000b05c+ W?$Wti08$_CTAS$$$n[]uc
Module: /mnt/sda5/.user/root/src/openwatcom-1.9/rel2/lib386/os2/clib3r.lib(lrotl.c)
0002:0001a2f0  _lrotl_
Module: /mnt/sda5/.user/root/src/openwatcom-1.9/rel2/lib386/os2/plbx3r.lib(ostwrite.cpp)
0002:0001a300  W?write$:ostream$:std$n(pnxai)rn$1:2$
Module: /mnt/sda5/.user/root/src/openwatcom-1.9/rel2/lib386/os2/plbx3r.lib(fsregist.cpp)
0002:0001a3e0+ W?findHandler$n(pnuc)pnuc
0002:0001a3f8+ __wcpp_4_dispatch_dummy__
0002:0001a41c  __wcpp_4_fs_lookup__
0002:0001a4ec  __wcpp_4_fs_handler_rtn_
Module: /mnt/sda5/.user/root/src/openwatcom-1.9/rel2/lib386/os2/plbx3r.lib(stabmod.cpp)
0002:0001a5d0  __wcpp_4_module_dtor__
0002:0001a5fc  __wcpp_4_mod_register__
Module: /mnt/sda5/.user/root/src/openwatcom-1.9/rel2/lib386/os2/clib3r.lib(nfree.c)
0002:0001a610  _nfree_
0002:0001a610  free_
0003:0001ca9c  ___MiniHeapFreeRover
Module: /mnt/sda5/.user/root/src/openwatcom-1.9/rel2/lib386/os2/plbx3r.lib(stabadt.cpp)
0002:0001a720+ W?dtor_the_array$n(pn$_RTARCTOR$$)pnv
0002:0001a764  W?$dt:_RTARCTOR$n()_
0002:0001a77c  __wcpp_4_dtor_array__
0003:00009790  W?$Wts0Dn$_RTARCTOR$$$nx[]uc
0003:0000b06c  W?$Wti0C$_RTARCTOR$$$n[]uc
Module: /mnt/sda5/.user/root/src/openwatcom-1.9/rel2/lib386/os2/plbx3r.lib(istdestr.cpp)
0003:000097f0  W?$Wvf0Go8:istream$:std$$nx[]pn()v
0003:00009800  W?$Wvf0Ho1p:istream$:std$$nx[]pn()v
0003:00009810+ W?$Wts0Gn$istream$:std$$$nx[]uc
0002:0001a8c0  W?$Wvt0V.@dt:istream$:std$c$:0:1$dtn()_$:ios$:std$n()pnv
0002:0001a7f0  W?$dt:istream$:std$n()_
0003:00009830  W?$Wva0Go0:istream$:std$$nx[]uc
Module: /mnt/sda5/.user/root/src/openwatcom-1.9/rel2/lib386/os2/plbx3r.lib(fsbdestr.cpp)
0003:000098b0  W?$Wvf0Lo22:fstreambase$:std$$nx[]pn()v
0003:000098c0  W?$Wvf0Lo3j:fstreambase$:std$$nx[]pn()v
0003:000098d0+ W?$Wts0Kn$fstreambase$:std$$$nx[]uc
0002:0001a9b0  W?$Wvt0Z.@dt:fstreambase$:std$c$:0:1$dtn()_$:ios$:std$n()pnv
0002:0001a9c0  W?.tdtor$:filebuf$:std$n()pnv
0002:0001a8d0  W?$dt:fstreambase$:std$n()_
0003:000098f0  W?$Wva0Ko0:fstreambase$:std$$nx[]uc
Module: /mnt/sda5/.user/root/src/openwatcom-1.9/rel2/lib386/os2/plbx3r.lib(iosdestr.cpp)
0003:00009940  W?$Wvf0Do19:ios$:std$$nx[]pn()v
0003:00009950+ W?$Wts0Cn$ios$:std$$$nx[]uc
0002:0001a9d0  W?$dt:ios$:std$n()_
0003:00009970  W?$Wva0Co0:ios$:std$$nx[]uc
Module: /mnt/sda5/.user/root/src/openwatcom-1.9/rel2/lib386/os2/plbx3r.lib(ostdestr.cpp)
0003:000099c0  W?$Wvf0Go4:ostream$:std$$nx[]pn()v
0003:000099d0  W?$Wvf0Ho1l:ostream$:std$$nx[]pn()v
0002:0001ab30  W?$Wvt0V.@dt:ostream$:std$c$:0:1$dtn()_$:ios$:std$n()pnv
0002:0001aa60  W?$dt:ostream$:std$n()_
0003:000099e0  W?$Wva0Go0:ostream$:std$$nx[]uc
Module: /mnt/sda5/.user/root/src/openwatcom-1.9/rel2/lib386/os2/plbx3r.lib(exc_pr.cpp)
0002:0001ab40  W?$ct:_EXC_PR$n(pn$_RTCTL$$pn$RW_DTREG$$$EXCSTATE$$)_
0002:0001ab6c  W?$dt:_EXC_PR$n()_
0002:0001ab7c  W?$ct:_EXC_PR_FREE$n(pn$_RTCTL$$pn$RW_DTREG$$$EXCSTATE$$pn$ACTIVE_EXC$$)_
0002:0001ab90  W?$dt:_EXC_PR_FREE$n()_
0002:0001abc8  W?$ct:_EXC_PR_DTOR$n(pn$_RTCTL$$pn$RW_DTREG$$$EXCSTATE$$pn$ACTIVE_EXC$$)_
0002:0001abd8  W?$ct:_EXC_PR_FNEXC$n(pn$_RTCTL$$pn$RW_DTREG$$pn$2$pn$ACTIVE_EXC$$)_
0002:0001abf8  W?$dt:_EXC_PR_FNEXC$n()_
0002:0001ac00  W?$dt:_EXC_PR_DTOR$n()_
Module: /mnt/sda5/.user/root/src/openwatcom-1.9/rel2/lib386/os2/plbx3r.lib(vfun_err.cpp)
0002:0001ac30  __wcpp_4_undef_vfun__
Module: /mnt/sda5/.user/root/src/openwatcom-1.9/rel2/lib386/os2/plbx3r.lib(unexpect.cpp)
0002:0001ac60  W?unexpected$:std$n()v
Module: /mnt/sda5/.user/root/src/openwatcom-1.9/rel2/lib386/os2/plbx3r.lib(callterm.cpp)
0002:0001ad00  __wcpp_4_corrupted_stack__
0002:0001ad14  __wcpp_4_call_terminate__
Module: /mnt/sda5/.user/root/src/openwatcom-1.9/rel2/lib386/os2/plbx3r.lib(tsequiv.cpp)
0002:0001ad40  __wcpp_4_ts_refed__
0002:0001ad58+ __wcpp_4_ts_pnted__
0002:0001ad8c  __wcpp_4_ts_equiv__
Module: /mnt/sda5/.user/root/src/openwatcom-1.9/rel2/lib386/os2/plbx3r.lib(pgmthrd.cpp)
0002:0001ae70  __wcpp_4_pgm_thread__
Module: /mnt/sda5/.user/root/src/openwatcom-1.9/rel2/lib386/os2/plbx3r.lib(stabinit.cpp)
0002:0001aea0  __wcpp_4_exc_setup__
Module: /mnt/sda5/.user/root/src/openwatcom-1.9/rel2/lib386/os2/clib3r.lib(stack386.c)
0002:0001af40  stackavail_
Module: /mnt/sda5/.user/root/src/openwatcom-1.9/rel2/lib386/os2/plbx3r.lib(fatalerr.cpp)
0002:0001af60  __wcpp_4_fatal_runtime_error__
Module: /mnt/sda5/.user/root/src/openwatcom-1.9/rel2/lib386/os2/clib3r.lib(stk)
0002:0001af99  __STK
0002:0001af89  __CHK
0002:0001afc8  __GRO
0002:0001afb8  __STKOVERFLOW_
Module: /mnt/sda5/.user/root/src/openwatcom-1.9/rel2/lib386/os2/plbx3r.lib(allocexc.cpp)
0002:0001b014  __wcpp_4_alloc_exc__
0002:0001b268  __wcpp_4_free_exc__
0002:0001b2a0  __wcpp_4_find_active__
0002:0001b2bc  __wcpp_4_dtor_free_exc__
Module: /mnt/sda5/.user/root/src/openwatcom-1.9/rel2/lib386/os2/plbx3r.lib(stabtrav.cpp)
0002:0001b380  __wcpp_4_stab_entry__
0002:0001b398* __wcpp_4_stab_trav_comp__
0002:0001b47c  __wcpp_4_stab_trav_init__
0002:0001b4a0  __wcpp_4_stab_trav_next__
0002:0001b4f8  __wcpp_4_stab_trav_move__
Module: /mnt/sda5/.user/root/src/openwatcom-1.9/rel2/lib386/os2/plbx3r.lib(ostopfx.cpp)
0002:0001b510  W?do_opfx$:ostream$:std$n()i
Module: /mnt/sda5/.user/root/src/openwatcom-1.9/rel2/lib386/os2/plbx3r.lib(iossetst.cpp)
0002:0001b5b0+ W?$ct:failure$:ios$:std$n(rnx$0:1:2$)_
0002:0001b5c0+ W?$dt:failure$:ios$:std$n()_
0003:00009a50+ W?$Wth0Nnrn$failure$:ios$:std$$$nx[]uc
0003:00009a70+ W?$Wts0Ln$failure$:ios$:std$$$nx[]uc
0002:0001b580  W?setstate$:ios$:std$n(i)v
0003:0000b090+ W?$Wti0K$failure$:ios$:std$$$n[]uc
Module: /mnt/sda5/.user/root/src/openwatcom-1.9/rel2/lib386/os2/clib3r.lib(iobaddr.c)
0002:0001b5d0  __get_std_stream_
0002:0001b5d0* __get_std_file_
Module: /mnt/sda5/.user/root/src/openwatcom-1.9/rel2/lib386/os2/plbx3r.lib(sdfconfp.cpp)
0003:00009a88  W?$Wvf0Do19:stdiobuf$$nx[]pn()v
0003:0000b0ac  W?$Wti0H$streambuf$:std$$$n[]uc
0002:0001b5f0  W?$ct:stdiobuf$n(pn$__iobuf$$)_
0003:00009ab8  W?$Wva0Co0:stdiobuf$$nx[]uc
Module: /mnt/sda5/.user/root/src/openwatcom-1.9/rel2/lib386/os2/plbx3r.lib(ostconsf.cpp)
0003:00009af0  W?$Wvb0Go0:ostream$:std$$nx[]ui
0002:0001b600  W?$ct:ostream$:std$n(pn$streambuf$:1$)_
Module: /mnt/sda5/.user/root/src/openwatcom-1.9/rel2/lib386/os2/plbx3r.lib(sdfdestr.cpp)
0002:0001b770  W?.tdtor$:streambuf$:std$n()pnv
0002:0001b6a0  W?$dt:stdiobuf$n()_
Module: /mnt/sda5/.user/root/src/openwatcom-1.9/rel2/lib386/os2/plbx3r.lib(iouwrtit.cpp)
0002:0001b780  W?writeitem$:__WATCOM_ios$n(rn$ostream$:std$$pnxaii)i
Module: /mnt/sda5/.user/root/src/openwatcom-1.9/rel2/lib386/os2/clib3r.lib(nmalloc.c)
0002:0001bad0  _nmalloc_
0002:0001bad0  malloc_
0003:0000b0c4  ___nheapbeg
0003:0000b0c8  ___MiniHeapRover
0003:0000b0cc  ___LargestSizeB4MiniHeapRover
Module: /mnt/sda5/.user/root/src/openwatcom-1.9/rel2/lib386/os2/plbx3r.lib(flfclose.cpp)
0002:0001bbd0  W?close$:filebuf$:std$n()pn$1:2$
Module: /mnt/sda5/.user/root/src/openwatcom-1.9/rel2/lib386/os2/clib3r.lib(ljmphdl.c)
0003:0000b0d0  ___longjmp_handler
Module: /mnt/sda5/.user/root/src/openwatcom-1.9/rel2/lib386/os2/plbx3r.lib(fsbconnm.cpp)
0003:00009b6c  W?$Wvb0Ko0:fstreambase$:std$$nx[]ui
0002:0001bc20  W?$ct:fstreambase$:std$n(pnxaii)_
Module: /mnt/sda5/.user/root/src/openwatcom-1.9/rel2/lib386/os2/plbx3r.lib(istconde.cpp)
0003:00009b74+ W?$Wvb0Go0:istream$:std$$nx[]ui
0002:0001bd10  W?$ct:istream$:std$n()_
Module: /mnt/sda5/.user/root/src/openwatcom-1.9/rel2/lib386/os2/plbx3r.lib(iosconde.cpp)
0002:0001bd60  W?$ct:ios$:std$n()_
Module: /mnt/sda5/.user/root/src/openwatcom-1.9/rel2/lib386/os2/plbx3r.lib(ostput.cpp)
0002:0001bd70  W?put$:ostream$:std$n(a)rn$1:2$
Module: /mnt/sda5/.user/root/src/openwatcom-1.9/rel2/lib386/os2/clib3r.lib(gtpidos2.c)
0002:0001be10  getpid_
Module: /mnt/sda5/.user/root/src/openwatcom-1.9/rel2/lib386/os2/clib3r.lib(maino32.c)
0003:0000b0d4+ ___FirstThreadData
0003:0000b0d8  ___GetThreadPtr
0003:0000b0dc  __AccessFileH
0003:0000b0e0  __ReleaseFileH
0003:0000b0e4  __AccessIOB
0003:0000b0e8  __ReleaseIOB
0003:0000b0ec  __AccessNHeap
0003:0000b0f0* __AccessFHeap
0003:0000b0f4  __ReleaseNHeap
0003:0000b0f8* __ReleaseFHeap
0002:0001be39  __threadstack_
0002:0001be40* __threadid_
0002:0001be47  __OS2MainInit_
0002:0001beb6+ __OS2Init_
0002:0001bef4* __OS2Fini_
0002:0001befc* __shutdown_stack_checking_
0002:0001bf11  __exit_
0003:0000b0fc* __AccessTDList
0003:0000b100* __ReleaseTDList
0003:0000b104+ ___sig_init_rtn
0003:0000b108* ___sig_fini_rtn
0003:0000b10c  __threadstksize
0003:0000b110  ___process_fini
0003:0001caa0  ___Is_DLL
0003:0001caa4+ ___saved_CS
Module: /mnt/sda5/.user/root/src/openwatcom-1.9/rel2/lib386/os2/clib3r.lib(accssos2.c)
0002:0001bf60  access_
Module: /mnt/sda5/.user/root/src/openwatcom-1.9/rel2/lib386/os2/clib3r.lib(seterrno.c)
0002:0001bfb2  __set_errno_
0002:0001bfc0* __set_EDOM_
0002:0001bfce* __set_ERANGE_
0002:0001bfdc* __set_EINVAL_
0002:0001bfef  __set_doserrno_
Module: /mnt/sda5/.user/root/src/openwatcom-1.9/rel2/lib386/os2/plbx3r.lib(ostconde.cpp)
0002:0001c000  W?$ct:ostream$:std$n()_
Module: /mnt/sda5/.user/root/src/openwatcom-1.9/rel2/lib386/os2/clib3r.lib(unlnkos2.c)
0002:0001c040  unlink_
Module: /mnt/sda5/.user/root/src/openwatcom-1.9/rel2/lib386/os2/clib3r.lib(dosret.c)
0002:0001c060* _dosretax_
0002:0001c070* _dosret0_
0002:0001c080  __set_errno_dos_
0002:0001c0b0* __set_errno_dos_reterr_
Module: /mnt/sda5/.user/root/src/openwatcom-1.9/rel2/lib386/os2/clib3r.lib(strncpy.c)
0002:0001c0c0  strncpy_
Module: /mnt/sda5/.user/root/src/openwatcom-1.9/rel2/lib386/os2/clib3r.lib(initrtns.c)
0002:0001c110  __InitRtns
0002:0001c160  __FiniRtns
Module: /mnt/sda5/.user/root/src/openwatcom-1.9/rel2/lib386/os2/clib3r.lib(__stos)
0002:0001c1c0  __STOSB
0002:0001c1f7* __STOSD
Module: /mnt/sda5/.user/root/src/openwatcom-1.9/rel2/lib386/os2/plbx3r.lib(prwdata.cpp)
0003:0001cba8  __wint_pure_error_flag
0003:0001cbaa  __wint_undef_vfun_flag
0003:0001cbac  __wint_module_init
Module: /mnt/sda5/.user/root/src/openwatcom-1.9/rel2/lib386/os2/clib3r.lib(main2o32.c)
0002:0001c270  __OS2Main
Module: /mnt/sda5/.user/root/src/openwatcom-1.9/rel2/lib386/os2/clib3r.lib(segdefns)
0002:00000003  ___begtext
0003:00000000* __nullarea
0003:0000c67c  __Start_XI
0003:0000c6d0  __End_XI
0003:0000c6d0  __Start_YI
0003:0000c6ee  __End_YI
Module: /mnt/sda5/.user/root/src/openwatcom-1.9/rel2/lib386/os2/clib3r.lib(initargv.c)
0002:0001c2e0  __Init_Argv_
0002:0001c330+ _getargv_
0002:0001c4d0  __Fini_Argv_
Module: /mnt/sda5/.user/root/src/openwatcom-1.9/rel2/lib386/os2/plbx3r.lib(istipfx.cpp)
0002:0001c4e0  W?ipfx$:istream$:std$n(i)i
Module: /mnt/sda5/.user/root/src/openwatcom-1.9/rel2/lib386/os2/plbx3r.lib(stfdsgtn.cpp)
0002:0001c520  W?do_sgetn$:streambuf$:std$n(pnai)i
Module: /mnt/sda5/.user/root/src/openwatcom-1.9/rel2/lib386/os2/plbx3r.lib(istdipfx.cpp)
0002:0001c5a0  W?do_ipfx$:istream$:std$n(i)i
Module: /mnt/sda5/.user/root/src/openwatcom-1.9/rel2/lib386/os2/plbx3r.lib(istdread.cpp)
0002:0001c630  W?do_read$:istream$:std$n(pnai)rn$1:2$
Module: /mnt/sda5/.user/root/src/openwatcom-1.9/rel2/lib386/os2/plbx3r.lib(fsbconfd.cpp)
0002:0001c6e0  W?$ct:fstreambase$:std$n(i)_
Module: /mnt/sda5/.user/root/src/openwatcom-1.9/rel2/lib386/os2/plbx3r.lib(ioufgtba.cpp)
0002:0001c7c0  W?__FlagsToBase$n(l)i
Module: /mnt/sda5/.user/root/src/openwatcom-1.9/rel2/lib386/os2/plbx3r.lib(ostadpre.cpp)
0002:0001c7f0  W?__AddPrefix$n(apnarniil)v
Module: /mnt/sda5/.user/root/src/openwatcom-1.9/rel2/lib386/os2/clib3r.lib(ltoa.c)
0002:0001c850  ultoa_
0002:0001c8a0* ltoa_
Module: /mnt/sda5/.user/root/src/openwatcom-1.9/rel2/lib386/os2/clib3r.lib(strupr.c)
0002:0001c8d0  strupr_
Module: /mnt/sda5/.user/root/src/openwatcom-1.9/rel2/lib386/os2/plbx3r.lib(tssize.cpp)
0002:0001c914  __wcpp_4_ts_size__
Module: /mnt/sda5/.user/root/src/openwatcom-1.9/rel2/lib386/os2/plbx3r.lib(stabactv.cpp)
0002:0001c950  __wcpp_4_ctor_varray__
Module: /mnt/sda5/.user/root/src/openwatcom-1.9/rel2/lib386/os2/plbx3r.lib(stabact.cpp)
0002:0001c9f0  __wcpp_4_ctor_array__
Module: /mnt/sda5/.user/root/src/openwatcom-1.9/rel2/lib386/os2/plbx3r.lib(stfdspun.cpp)
0002:0001ca90  W?do_sputn$:streambuf$:std$n(pnxai)i
Module: /mnt/sda5/.user/root/src/openwatcom-1.9/rel2/lib386/os2/plbx3r.lib(stabdisp.cpp)
0002:0001cd2c  __wcpp_4_dispatchable__
Module: /mnt/sda5/.user/root/src/openwatcom-1.9/rel2/lib386/os2/clib3r.lib(mem.c)
0002:0001cd80  __MemAllocator
0002:0001ce30  __MemFree
Module: /mnt/sda5/.user/root/src/openwatcom-1.9/rel2/lib386/os2/plbx3r.lib(flfdestr.cpp)
0003:00009c10  W?$Wvf0Ho19:filebuf$:std$$nx[]pn()v
0003:00009c40+ W?$Wts0Gn$filebuf$:std$$$nx[]uc
0002:0001cf70  W?$dt:filebuf$:std$n()_
0003:00009c60  W?$Wva0Go0:filebuf$:std$$nx[]uc
0003:0000b218  W?$Wti0F$filebuf$:std$$$n[]uc
Module: /mnt/sda5/.user/root/src/openwatcom-1.9/rel2/lib386/os2/plbx3r.lib(ioufrxal.cpp)
0002:0001d040  W?free_xalloc_storage$:__WATCOM_ios$n(pn$ios$:std$$)v
Module: /mnt/sda5/.user/root/src/openwatcom-1.9/rel2/lib386/os2/plbx3r.lib(termnate.cpp)
0002:0001d060  W?terminate$:std$n()v
Module: /mnt/sda5/.user/root/src/openwatcom-1.9/rel2/lib386/os2/clib3r.lib(_strcmp)
0002:0001d0a0  strcmp_
Module: /mnt/sda5/.user/root/src/openwatcom-1.9/rel2/lib386/os2/clib3r.lib(enterdb.c)
0002:0001d1e0  __EnterWVIDEO_
0003:0000b22c+ ___WD_Present
Module: /mnt/sda5/.user/root/src/openwatcom-1.9/rel2/lib386/os2/clib3r.lib(xmsgo32.c)
0002:0001d210  __exit_with_msg_
0002:0001d260  __fatal_runtime_error_
Module: /mnt/sda5/.user/root/src/openwatcom-1.9/rel2/lib386/os2/plbx3r.lib(areaexc.cpp)
0003:0000b230  ___EXC_AREA
Module: /mnt/sda5/.user/root/src/openwatcom-1.9/rel2/lib386/os2/plbx3r.lib(bittest.cpp)
0002:0001d280  __wcpp_4_bit_test__
0002:0001d2a0  __wcpp_4_bit_off__
Module: /mnt/sda5/.user/root/src/openwatcom-1.9/rel2/lib386/os2/clib3r.lib(flush.c)
0002:0001d2c0  __flush_
Module: /mnt/sda5/.user/root/src/openwatcom-1.9/rel2/lib386/os2/plbx3r.lib(iosfail.cpp)
0002:0001d3c0  W?$ct:failure$:ios$:std$n(i)_
Module: /mnt/sda5/.user/root/src/openwatcom-1.9/rel2/lib386/os2/clib3r.lib(iob.c)
0003:0000c240  ___iob
0003:0000c448  __fmode
0003:0001cbb4  ___OpenStreams
0003:0001cbb8  ___ClosedStreams
Module: /mnt/sda5/.user/root/src/openwatcom-1.9/rel2/lib386/os2/plbx3r.lib(stfpbfai.cpp)
0002:0001d3d0  W?pbackfail$:streambuf$:std$n(i)i
Module: /mnt/sda5/.user/root/src/openwatcom-1.9/rel2/lib386/os2/plbx3r.lib(sdfoverf.cpp)
0002:0001d3e0  W?overflow$:stdiobuf$n(i)i
Module: /mnt/sda5/.user/root/src/openwatcom-1.9/rel2/lib386/os2/plbx3r.lib(sdfundrf.cpp)
0002:0001d540  W?underflow$:stdiobuf$n()i
Module: /mnt/sda5/.user/root/src/openwatcom-1.9/rel2/lib386/os2/plbx3r.lib(stfsbuf.cpp)
0002:0001d660  W?setbuf$:streambuf$:std$n(pnai)pn$1:2$
Module: /mnt/sda5/.user/root/src/openwatcom-1.9/rel2/lib386/os2/plbx3r.lib(stfseekp.cpp)
0002:0001d6b0  W?seekpos$:streambuf$:std$n(li)l
Module: /mnt/sda5/.user/root/src/openwatcom-1.9/rel2/lib386/os2/plbx3r.lib(sdfsync.cpp)
0002:0001d6c0  W?sync$:stdiobuf$n()i
Module: /mnt/sda5/.user/root/src/openwatcom-1.9/rel2/lib386/os2/plbx3r.lib(stfdoall.cpp)
0002:0001d6f0  W?doallocate$:streambuf$:std$n()i
Module: /mnt/sda5/.user/root/src/openwatcom-1.9/rel2/lib386/os2/plbx3r.lib(stfconde.cpp)
0003:00009c7c  W?$Wvf0Jo19:streambuf$:std$$nx[]pn()v
0002:0001d730  W?$ct:streambuf$:std$n()_
0003:00009cac  W?$Wva0Io0:streambuf$:std$$nx[]uc
Module: /mnt/sda5/.user/root/src/openwatcom-1.9/rel2/lib386/os2/plbx3r.lib(iosinit.cpp)
0002:0001d780  W?init$:ios$:std$n(pn$streambuf$:2$)v
Module: /mnt/sda5/.user/root/src/openwatcom-1.9/rel2/lib386/os2/plbx3r.lib(stfdestr.cpp)
0002:0001d7d0  W?$dt:streambuf$:std$n()_
Module: /mnt/sda5/.user/root/src/openwatcom-1.9/rel2/lib386/os2/clib3r.lib(nmemneed.c)
0002:0001d7f0  __nmemneed_
Module: /mnt/sda5/.user/root/src/openwatcom-1.9/rel2/lib386/os2/clib3r.lib(grownear.c)
0002:0001d960  __ExpandDGROUP_
Module: /mnt/sda5/.user/root/src/openwatcom-1.9/rel2/lib386/os2/clib3r.lib(close.c)
0002:0001d980  close_
Module: /mnt/sda5/.user/root/src/openwatcom-1.9/rel2/lib386/os2/plbx3r.lib(flfconde.cpp)
0002:0001d990  W?$ct:filebuf$:std$n()_
Module: /mnt/sda5/.user/root/src/openwatcom-1.9/rel2/lib386/os2/plbx3r.lib(flfopen.cpp)
0002:0001d9b0  W?open$:filebuf$:std$n(pnxaii)pn$1:2$
Module: /mnt/sda5/.user/root/src/openwatcom-1.9/rel2/lib386/os2/clib3r.lib(crwdata)
0003:0000c490  __osmajor
0003:0000c491  __osminor
0003:0000c45c* __LpDllName
0003:0000c460* __LpwCmdLine
0003:0000c464* __LpwPgmName
0003:0000c468* __LpwDllName
0003:0000c454  __LpCmdLine
0003:0000c458  __LpPgmName
0003:0000c44c* __dynend
0003:0000c450  __curbrk
0003:0000c46c* __STACKLOW
0003:0000c470* __STACKTOP
0003:0000c474  __ASTACKSIZ
0003:0000c478  __ASTACKPTR
0003:0000c47c  __cbyte
0003:0000c480  __cbyte2
0003:0000c484* __child
0003:0000c48a  __Envptr
0003:0000c48e* __Envseg
0003:0000c488* __no87
0003:0000c492* ___FPE_handler
Module: /mnt/sda5/.user/root/src/openwatcom-1.9/rel2/lib386/os2/clib3r.lib(cinit.c)
0002:0001da50  __CommonInit_
0003:0001cbbc  ___hmodule
Module: /mnt/sda5/.user/root/src/openwatcom-1.9/rel2/lib386/os2/clib3r.lib(mthrdini.c)
0002:0001da60  __InitThreadData_
0003:0000c498  ___ThreadDataSize
Module: /mnt/sda5/.user/root/src/openwatcom-1.9/rel2/lib386/os2/clib3r.lib(cmain386.c)
0002:0001da80  __CMain
Module: /mnt/sda5/.user/root/src/openwatcom-1.9/rel2/lib386/os2/clib3r.lib(dosseg)
0000:00001234  __DOSseg__
Module: /mnt/sda5/.user/root/src/openwatcom-1.9/rel2/lib386/os2/clib3r.lib(histsplt.c)
0003:0001cbc0  ___historical_splitparms
Module: /mnt/sda5/.user/root/src/openwatcom-1.9/rel2/lib386/os2/clib3r.lib(___argc.c)
0003:0001cbc4  ____Argc
0003:0001cbc8  ____Argv
Module: /mnt/sda5/.user/root/src/openwatcom-1.9/rel2/lib386/os2/plbx3r.lib(manws.cpp)
0002:0001dac0  W?ws$:std$n(rn$istream$:1$)rn$2:1$
Module: /mnt/sda5/.user/root/src/openwatcom-1.9/rel2/lib386/os2/plbx3r.lib(flfattac.cpp)
0002:0001daf0  W?attach$:filebuf$:std$n(i)pn$1:2$
Module: /mnt/sda5/.user/root/src/openwatcom-1.9/rel2/lib386/os2/clib3r.lib(alphabet.c)
0003:00000428  ___Alphabet
Module: /mnt/sda5/.user/root/src/openwatcom-1.9/rel2/lib386/os2/plbx3r.lib(flfpbfai.cpp)
0002:0001db30  W?pbackfail$:filebuf$:std$n(i)i
Module: /mnt/sda5/.user/root/src/openwatcom-1.9/rel2/lib386/os2/plbx3r.lib(flfoverf.cpp)
0002:0001dbf0  W?overflow$:filebuf$:std$n(i)i
Module: /mnt/sda5/.user/root/src/openwatcom-1.9/rel2/lib386/os2/plbx3r.lib(flfundrf.cpp)
0002:0001de10  W?underflow$:filebuf$:std$n()i
Module: /mnt/sda5/.user/root/src/openwatcom-1.9/rel2/lib386/os2/plbx3r.lib(flfsetbf.cpp)
0002:0001df20  W?setbuf$:filebuf$:std$n(pnai)pn$streambuf$:2$
Module: /mnt/sda5/.user/root/src/openwatcom-1.9/rel2/lib386/os2/plbx3r.lib(flfseeko.cpp)
0002:0001df80  W?seekoff$:filebuf$:std$n(lii)l
Module: /mnt/sda5/.user/root/src/openwatcom-1.9/rel2/lib386/os2/plbx3r.lib(flfsync.cpp)
0002:0001dfd0  W?sync$:filebuf$:std$n()i
Module: /mnt/sda5/.user/root/src/openwatcom-1.9/rel2/lib386/os2/clib3r.lib(liballoc.c)
0002:0001e070  _plib_malloc_
0002:0001e080  _plib_free_
Module: /mnt/sda5/.user/root/src/openwatcom-1.9/rel2/lib386/os2/clib3r.lib(__lseek.c)
0002:0001e090  __lseek_
Module: /mnt/sda5/.user/root/src/openwatcom-1.9/rel2/lib386/os2/clib3r.lib(fsync.c)
0002:0001e0c0  fsync_
Module: /mnt/sda5/.user/root/src/openwatcom-1.9/rel2/lib386/os2/clib3r.lib(qwrit.c)
0002:0001e0f0  __qwrite_
Module: /mnt/sda5/.user/root/src/openwatcom-1.9/rel2/lib386/os2/clib3r.lib(initfile.c)
0002:0001e1c0  __InitFiles_
Module: /mnt/sda5/.user/root/src/openwatcom-1.9/rel2/lib386/os2/clib3r.lib(ioexit.c)
0002:0001e2c0* fcloseall_
0002:0001e2d0  __full_io_exit_
Module: /mnt/sda5/.user/root/src/openwatcom-1.9/rel2/lib386/os2/clib3r.lib(fwrite.c)
0002:0001e2e0  fwrite_
Module: /mnt/sda5/.user/root/src/openwatcom-1.9/rel2/lib386/os2/clib3r.lib(memmove.c)
0002:0001e4f0  memmove_
Module: /mnt/sda5/.user/root/src/openwatcom-1.9/rel2/lib386/os2/clib3r.lib(fgetc.c)
0002:0001e550+ __fill_buffer_
0002:0001e650  fgetc_
Module: /mnt/sda5/.user/root/src/openwatcom-1.9/rel2/lib386/os2/plbx3r.lib(stfsetb.cpp)
0002:0001e710  W?setb$:streambuf$:std$n(pnapnai)v
Module: /mnt/sda5/.user/root/src/openwatcom-1.9/rel2/lib386/os2/clib3r.lib(amblksiz.c)
0003:0000c49c  __amblksiz
Module: /mnt/sda5/.user/root/src/openwatcom-1.9/rel2/lib386/os2/clib3r.lib(heapen.c)
0002:0001e770* _heapenable_
0003:0000c4a0  ___heap_enabled
Module: /mnt/sda5/.user/root/src/openwatcom-1.9/rel2/lib386/os2/clib3r.lib(nheapmin.c)
0002:0001e7a0  _nheapshrink_
0002:0001e7a0* _nheapmin_
0002:0001e7a0* _heapmin_
0002:0001e7a0* _heapshrink_
Module: /mnt/sda5/.user/root/src/openwatcom-1.9/rel2/lib386/os2/clib3r.lib(_clseos2.c)
0002:0001e890  __close_
Module: /mnt/sda5/.user/root/src/openwatcom-1.9/rel2/lib386/os2/clib3r.lib(plusopen.c)
0002:0001e8d0  __plusplus_open_
Module: /mnt/sda5/.user/root/src/openwatcom-1.9/rel2/lib386/os2/plbx3r.lib(istpeek.cpp)
0002:0001e9a0  W?peek$:istream$:std$n()i
Module: /mnt/sda5/.user/root/src/openwatcom-1.9/rel2/lib386/os2/clib3r.lib(isspace.c)
0002:0001ea00  isspace_
Module: /mnt/sda5/.user/root/src/openwatcom-1.9/rel2/lib386/os2/plbx3r.lib(istget.cpp)
0002:0001ea10  W?get$:istream$:std$n()i
Module: /mnt/sda5/.user/root/src/openwatcom-1.9/rel2/lib386/os2/clib3r.lib(plusfsta.c)
0002:0001ea90  __plusplus_fstat_
Module: /mnt/sda5/.user/root/src/openwatcom-1.9/rel2/lib386/os2/clib3r.lib(lseek.c)
0002:0001ead0  lseek_
Module: /mnt/sda5/.user/root/src/openwatcom-1.9/rel2/lib386/os2/clib3r.lib(write.c)
0002:0001ec00  write_
Module: /mnt/sda5/.user/root/src/openwatcom-1.9/rel2/lib386/os2/clib3r.lib(tell.c)
0002:0001ee30  tell_
Module: /mnt/sda5/.user/root/src/openwatcom-1.9/rel2/lib386/os2/clib3r.lib(read.c)
0002:0001ee50  read_
Module: /mnt/sda5/.user/root/src/openwatcom-1.9/rel2/lib386/os2/clib3r.lib(iomode.c)
0002:0001efc0  __GetIOMode_
0002:0001efe0  __SetIOMode_nogrow_
0003:0000c4a4  ___NFiles
0003:0000c4a8  ___init_mode
0003:0000c4f8  ___io_mode
Module: /mnt/sda5/.user/root/src/openwatcom-1.9/rel2/lib386/os2/clib3r.lib(fclose.c)
0002:0001f000+ __doclose_
0002:0001f0a0  __shutdown_stream_
0002:0001f0c0* fclose_
0003:0001cbcc+ ___RmTmpFileFn
Module: /mnt/sda5/.user/root/src/openwatcom-1.9/rel2/lib386/os2/clib3r.lib(freefp.c)
0002:0001f110  __freefp_
0002:0001f160  __purgefp_
Module: /mnt/sda5/.user/root/src/openwatcom-1.9/rel2/lib386/os2/clib3r.lib(ioalloc.c)
0002:0001f190  __ioalloc_
Module: /mnt/sda5/.user/root/src/openwatcom-1.9/rel2/lib386/os2/clib3r.lib(fputc.c)
0002:0001f230  fputc_
Module: /mnt/sda5/.user/root/src/openwatcom-1.9/rel2/lib386/os2/clib3r.lib(flushall.c)
0002:0001f310  __flushall_
0002:0001f350* flushall_
Module: /mnt/sda5/.user/root/src/openwatcom-1.9/rel2/lib386/os2/clib3r.lib(gtcheos2.c)
0002:0001f360  getche_
Module: /mnt/sda5/.user/root/src/openwatcom-1.9/rel2/lib386/os2/clib3r.lib(qread.c)
0002:0001f390  __qread_
Module: /mnt/sda5/.user/root/src/openwatcom-1.9/rel2/lib386/os2/clib3r.lib(statos2.c)
0002:0001f41e  stat_
Module: /mnt/sda5/.user/root/src/openwatcom-1.9/rel2/lib386/os2/clib3r.lib(openos2.c)
0002:0001f860  open_
0002:0001f880  sopen_
Module: /mnt/sda5/.user/root/src/openwatcom-1.9/rel2/lib386/os2/clib3r.lib(istable.c)
0002:0001f8b0  __IsTable
Module: /mnt/sda5/.user/root/src/openwatcom-1.9/rel2/lib386/os2/clib3r.lib(stiomode.c)
0002:0001f9c0  __grow_iomode_
0002:0001fa90+ __shrink_iomode_
0002:0001fb10  __SetIOMode_
Module: /mnt/sda5/.user/root/src/openwatcom-1.9/rel2/lib386/os2/clib3r.lib(iomodtty.c)
0002:0001fb80  __ChkTTYIOMode_
0002:0001fbc0* __IOMode_
Module: /mnt/sda5/.user/root/src/openwatcom-1.9/rel2/lib386/os2/clib3r.lib(chktty.c)
0002:0001fbe0  __chktty_
Module: /mnt/sda5/.user/root/src/openwatcom-1.9/rel2/lib386/os2/clib3r.lib(getchos2.c)
0002:0001fc20  getch_
Module: /mnt/sda5/.user/root/src/openwatcom-1.9/rel2/lib386/os2/clib3r.lib(putchos2.c)
0002:0001fce0  putch_
Module: /mnt/sda5/.user/root/src/openwatcom-1.9/rel2/lib386/os2/clib3r.lib(mbschr.c)
0002:0001fd30  _mbschr_
Module: /mnt/sda5/.user/root/src/openwatcom-1.9/rel2/lib386/os2/clib3r.lib(mbscmp.c)
0002:0001fd90  _mbscmp_
Module: /mnt/sda5/.user/root/src/openwatcom-1.9/rel2/lib386/os2/clib3r.lib(mbspbrk.c)
0002:0001fe00  _mbspbrk_
Module: /mnt/sda5/.user/root/src/openwatcom-1.9/rel2/lib386/os2/clib3r.lib(fullpath.c)
0002:0001fe50+ _sys_fullpath_
0002:0001ff90  _fullpath_
Module: /mnt/sda5/.user/root/src/openwatcom-1.9/rel2/lib386/os2/clib3r.lib(mbsinc.c)
0002:00020010  _mbsinc_
Module: /mnt/sda5/.user/root/src/openwatcom-1.9/rel2/lib386/os2/clib3r.lib(tolower.c)
0002:00020040  tolower_
Module: /mnt/sda5/.user/root/src/openwatcom-1.9/rel2/lib386/os2/clib3r.lib(fstatos2.c)
0002:00020080  fstat_
Module: /mnt/sda5/.user/root/src/openwatcom-1.9/rel2/lib386/os2/clib3r.lib(d2ttime.c)
0002:00020200  _d2ttime_
Module: /mnt/sda5/.user/root/src/openwatcom-1.9/rel2/lib386/os2/clib3r.lib(umaskval.c)
0003:0000c4fc  ___umaskval
Module: /mnt/sda5/.user/root/src/openwatcom-1.9/rel2/lib386/os2/clib3r.lib(os2fil64.c)
0003:0000c500  ___os2_DosOpenL
0003:0000c504+ ___os2_DosSetFilePtrL
0003:0000c508+ ___os2_DosSetFileSizeL
0003:0000c50c+ ___os2_DosSetFileLocksL
Module: /mnt/sda5/.user/root/src/openwatcom-1.9/rel2/lib386/os2/clib3r.lib(isattos2.c)
0002:00020370  isatty_
Module: /mnt/sda5/.user/root/src/openwatcom-1.9/rel2/lib386/os2/clib3r.lib(nrealloc.c)
0002:000203a0* _nrealloc_
0002:000203a0  realloc_
Module: /mnt/sda5/.user/root/src/openwatcom-1.9/rel2/lib386/os2/clib3r.lib(hdlman.c)
0002:00020420* __set_handles_
0002:00020430* _grow_handles_
0003:0000c510  ___NHandles
Module: /mnt/sda5/.user/root/src/openwatcom-1.9/rel2/lib386/os2/clib3r.lib(thunk)
0002:0002049c  __TNK
0002:00020488* __TNC
Module: /mnt/sda5/.user/root/src/openwatcom-1.9/rel2/lib386/os2/clib3r.lib(far16fun)
0002:000204ec  __Far16Func2
0002:00020535* __Far16Func
0002:00020583* __Far16Pascal2
0002:000205ca* __Far16Pascal
0002:00020616* __Far16Cdecl2
0002:00020664* __Far16Cdecl
0002:000206b7  __FlatToFar16
0002:000206c0* __Far16ToFlat
Module: /mnt/sda5/.user/root/src/openwatcom-1.9/rel2/lib386/os2/clib3r.lib(mbconv.c)
0002:000206d0  _mbvtop_
Module: /mnt/sda5/.user/root/src/openwatcom-1.9/rel2/lib386/os2/clib3r.lib(mbclen.c)
0002:000206f0  _mbclen_
Module: /mnt/sda5/.user/root/src/openwatcom-1.9/rel2/lib386/os2/clib3r.lib(mbterm.c)
0002:00020720  _mbterm_
Module: /mnt/sda5/.user/root/src/openwatcom-1.9/rel2/lib386/os2/clib3r.lib(mbccmp.c)
0002:00020760  _mbccmp_
Module: /mnt/sda5/.user/root/src/openwatcom-1.9/rel2/lib386/os2/clib3r.lib(mbsnextc.c)
0002:000207a0  _mbsnextc_
Module: /mnt/sda5/.user/root/src/openwatcom-1.9/rel2/lib386/os2/clib3r.lib(gtcwdos2.c)
0002:000207e0  getcwd_
Module: /mnt/sda5/.user/root/src/openwatcom-1.9/rel2/lib386/os2/clib3r.lib(mbisdbcs.c)
0003:0001cbd4  ___IsDBCS
Module: /mnt/sda5/.user/root/src/openwatcom-1.9/rel2/lib386/os2/clib3r.lib(mbislead.c)
0002:000208a0* _ismbblead_
0003:0001cbd8  ___MBCSIsTable
Module: /mnt/sda5/.user/root/src/openwatcom-1.9/rel2/lib386/os2/clib3r.lib(mktime.c)
0002:000208c0  mktime_
Module: /mnt/sda5/.user/root/src/openwatcom-1.9/rel2/lib386/os2/clib3r.lib(nmsize.c)
0002:00020950  _nmsize_
0002:00020950* _msize_
Module: /mnt/sda5/.user/root/src/openwatcom-1.9/rel2/lib386/os2/clib3r.lib(nexpand.c)
0002:00020960  _nexpand_
0002:00020960* _expand_
0002:000209a0+ __HeapManager_expand_
Module: /mnt/sda5/.user/root/src/openwatcom-1.9/rel2/lib386/os2/clib3r.lib(itsto32.c)
0002:00020b60  __init_threadstksize_
Module: /mnt/sda5/.user/root/src/openwatcom-1.9/rel2/lib386/os2/clib3r.lib(mbinit.c)
0002:00020ba5  __mbinit_
0003:0000c514  ___MBCodePage
Module: /mnt/sda5/.user/root/src/openwatcom-1.9/rel2/lib386/os2/clib3r.lib(locmktim.c)
0002:00020ca0  __local_mktime_
Module: /mnt/sda5/.user/root/src/openwatcom-1.9/rel2/lib386/os2/clib3r.lib(gmtime.c)
0002:00020e20  __brktime_
0002:00020f20+ _gmtime_
0002:00020f40* gmtime_
Module: /mnt/sda5/.user/root/src/openwatcom-1.9/rel2/lib386/os2/clib3r.lib(tzset.c)
0003:0000c518  ___start_dst
0003:0000c53c  ___end_dst
0003:0000c664* _tzname
0003:0000c66c  _timezone
0003:0000c670  _daylight
0003:0000c674  ___dst_adjust
0002:00020fb0* __DontCacheOSTZ_
0002:00020fc0* __CacheOSTZ_
0002:000214a0+ __parse_tz_
0002:000216d0  tzset_
Module: /mnt/sda5/.user/root/src/openwatcom-1.9/rel2/lib386/os2/clib3r.lib(timeutil.c)
0002:00021840  __isindst_
Module: /mnt/sda5/.user/root/src/openwatcom-1.9/rel2/lib386/os2/clib3r.lib(leapyear.c)
0002:00021b70  __leapyear_
0003:00000450  ___diyr
0003:0000046a  ___dilyr
Module: /mnt/sda5/.user/root/src/openwatcom-1.9/rel2/lib386/os2/clib3r.lib(getenv.c)
0002:00021bb0  getenv_
Module: /mnt/sda5/.user/root/src/openwatcom-1.9/rel2/lib386/os2/clib3r.lib(environ.c)
0003:0001ccdc  ___env_mask
0003:0001cce0  _environ
0003:0001cce4* __wenviron
Module: /mnt/sda5/.user/root/src/openwatcom-1.9/rel2/lib386/os2/clib3r.lib(mbcupper.c)
0002:00021c40  _mbctoupper_
Module: /mnt/sda5/.user/root/src/openwatcom-1.9/rel2/lib386/os2/clib3r.lib(setenvp.c)
0002:00021c60  __setenvp_
0002:00021d20  __freeenvp_
Module: /mnt/sda5/.user/root/src/openwatcom-1.9/rel2/lib386/os2/clib3r.lib(toupper.c)
0002:00021d70  toupper_
Module: /mnt/sda5/.user/root/src/openwatcom-1.9/rel2/lib386/os2/clib3r.lib(mbdtoupp.c)
0002:00021d80  _mbdtoupper_
Module: /mnt/sda5/.user/root/src/openwatcom-1.9/rel2/lib386/os2/clib3r.lib(clearenv.c)
0002:00021da0  clearenv_
Module: /mnt/sda5/.user/root/src/openwatcom-1.9/rel2/lib386/os2/plbx3r.lib(stfseeko.cpp)
0002:00021e30  W?seekoff$:streambuf$:std$n(lii)l
Module: /mnt/sda5/.user/root/src/openwatcom-1.9/rel2/lib386/os2/plbx3r.lib(stfsync.cpp)
0002:00021e40  W?sync$:streambuf$:std$n()i


                        +----------------------+
                        |   Imported Symbols   |
                        +----------------------+

Symbol                              Module
======                              ======

DosUnwindException                  DOSCALLS
DosRaiseException                   DOSCALLS
DosMove                             DOSCALLS
DosGetInfoBlocks                    DOSCALLS
DosQuerySysInfo                     DOSCALLS
DosExit                             DOSCALLS
DosQueryPathInfo                    DOSCALLS
DosDelete                           DOSCALLS
DosWrite                            DOSCALLS
DosAllocMem                         DOSCALLS
DosSetFilePtr                       DOSCALLS
DosResetBuffer                      DOSCALLS
DosFreeMem                          DOSCALLS
DosClose                            DOSCALLS
DosRead                             DOSCALLS
DosQueryCurrentDisk                 DOSCALLS
DosFindFirst                        DOSCALLS
DosFindClose                        DOSCALLS
DosOpen                             DOSCALLS
DosSetRelMaxFH                      DOSCALLS
KBD16CHARIN                         KBDCALLS
VIO16WRTTTY                         VIOCALLS
DosQueryHType                       DOSCALLS
DosQueryFileInfo                    DOSCALLS
DosQueryModuleHandle                DOSCALLS
DosQueryProcAddr                    DOSCALLS
DosFlatToSel                        DOSCALLS
DosSelToFlat                        DOSCALLS
DosQueryCurrentDir                  DOSCALLS
DosQueryDBCSEnv                     NLS
DosQueryCp                          DOSCALLS


                        +--------------------+
                        |   Libraries Used   |
                        +--------------------+

/mnt/sda5/.user/root/src/openwatcom-1.9/rel2/lib386/os2/clib3r.lib
/mnt/sda5/.user/root/src/openwatcom-1.9/rel2/lib386/os2/plbx3r.lib
/mnt/sda5/.user/root/src/openwatcom-1.9/rel2/lib386/os2/os2386.lib


                        +-----------------------+
                        |   Linker Statistics   |
                        +-----------------------+

Stack size:  00012000 (73728.)
Memory size:  00050bcd (330701.)
Entry point address: 0002:00019462
Link time: 00:00.00
