Open Watcom Linker Version 1.9
Portions Copyright (c) 1985-2002 Sybase, Inc. All Rights Reserved.
Created on:       12/12/16 02:40:58
Executable Image: madx86.mad
creating a Phar Lap relocatable executable


                        +------------+
                        |   Groups   |
                        +------------+

Group                           Address              Size
=====                           =======              ====

DGROUP                          00019b84             00000a6c



                        +--------------+
                        |   Segments   |
                        +--------------+

Segment                Class          Group          Address         Size
=======                =====          =====          =======         ====

_TEXT                  CODE           AUTO           00000000        00019b83
CONST                  DATA           DGROUP         00019b84        00000000
CONST2                 DATA           DGROUP         00019b84        00000101
_DATA                  DATA           DGROUP         00019c88        0000084c
_BSS                   BSS            DGROUP         0001a4d4        0000011c


                        +----------------+
                        |   Memory Map   |
                        +----------------+

* = unreferenced symbol
+ = symbol only referenced locally

Address        Symbol
=======        ======

Module: madimp.obj(/mnt/sda5/.user/root/src/openwatcom-1.9/bld/mad/c/madimp.c)
00000000*      _Signature
00000010*      MADLOAD
00000030*      MCAlloc_
00000040*      MCRealloc_
00000050*      MCFree_
00000060*      MCOpen_
00000070*      MCSeek_
00000080*      MCRead_
00000090*      MCClose_
000000a0       MCReadMem_
000000d0       MCWriteMem_
00000100       MCString_
00000110*      MCAddString_
00000120       MCRadixPrefix_
00000130       MCNotify_
00000140       MCMachineData_
00000180       MCAddrToString_
000001c0       MCMemExpr_
000001d0       MCAddrSection_
000001e0       MCAddrOvlReturn_
000001f0       MCSystemConfig_
00000200       MCTypeInfoForHost_
00000210*      MCTypeConvert_
00000230       MCTypeToString_
00000250*      MCStatus_
00019c88+      _MadImpInterface
0001a4d4*      __nullarea
0001a4d8+      _MadClient
Module: disentry.obj(/mnt/sda5/.user/root/src/openwatcom-1.9/bld/ndisasm/core/c/disentry.c)
00000270       _X86MaxInsName
00000271+      _DisStringTable
00000e84       _DisInstructionTable
000043d4+      _DisRegisterTable
00004460       _DisRefTypeTable
00004490       _X86RangeTable
000046b8       _X86RangeTablePos
000046d0+      _DisSelectorTable
0000c3a0       SEX_
0000c3c0       DisGetString_
0000c410*      DisDummyHandler_
0000c420       DisInit_
0000c440       DisFini_
0000c450       DisDecodeInit_
0000c4c0       DisDecode_
0000c610       DisAddReg_
0000c650+      DisOpFormat_
0000c830       DisFormat_
0000c990       DisInsNameMax_
0000c9a0*      DisInsSizeInc_
Module: disx86.obj(/mnt/sda5/.user/root/src/openwatcom-1.9/bld/ndisasm/core/c/disx86.c)
0000c9f4       _X86Data
0000cab0       X86PrefixFwait_
0000cb30       X86PrefixOpnd_
0000cb50       X86PrefixAddr_
0000cb70       X86PrefixRepe_
0000cb80       X86PrefixRepne_
0000cb90       X86PrefixLock_
0000cba0       X86PrefixCS_
0000cbb0       X86PrefixSS_
0000cbc0       X86PrefixDS_
0000cbd0       X86PrefixES_
0000cbe0       X86PrefixFS_
0000cbf0       X86PrefixGS_
0000cc20+      X86GetRegister_D_
0000cc70+      X86GetRegister_W_
0000ccc0+      X86GetRegister_B_
0000cd10+      X86FGetSTReg_
0000cd60+      X86GetMMReg_
0000cdb0+      X86GetXMMReg_
0000cdf0+      X86GetCRegister_
0000ce30+      X86GetDRegister_
0000ce70+      X86GetTRegister_
0000ceb0+      X86GetSRegister_
0000cee0+      X86GetRegister_
0000cf70+      X86GetRegisterAddr_
0000d950+      X86GetRefType_
0000dad0+      X86FGetRefType_
0000daf0+      X86FGetRefTypeEnv_
0000dd20+      X86GetRegModRM_B_
0000ddd0       X86SReg_8_
0000dea0       X86NoOp_8_
0000e010       X86String_8_
0000e210       X86ImmAcc_8_
0000e2b0       X86MemAbsAcc_8_
0000e390       X86Abs_8_
0000e3b0       X86Rel_8_
0000e3d0       X86Imm_8_
0000e550       X86ImmReg_8_
0000e590       X86ImmImm_8_
0000e5e0       X86Reg_8_
0000e710       X86AccAcc_8_
0000e770       X86JmpCC_8_
0000e800       X86Shift_16_
0000e8b0       X86SReg_16_
0000e990       X86NoOp_16_
0000e9a0       X86ModRM_16_
0000ea90       X86ModRMImm_16_
0000eb80*      X86ModRMAcc_16_
0000ebe0       X86RegModRM_16_
0000ec40       X86RegModRM_test_
0000eca0       X86RegModRM_bound_
0000ed00       X86RegModRM_16B_
0000edf0       X86Reg_16_
0000ee10       X86JmpCC_16_
0000ee30       X86SRegModRM_16_
0000ef10       X86SetCC_
0000ef60       X86MovCC_24_
0000efd0       X86CRegReg_24_
0000f080       X86DRegReg_24_
0000f130       X86TRegReg_24_
0000f1e0       X86ModRMImm_24_
0000f250       X86NoOp_24_
0000f260       X86ModRM_24_
0000f2e0       X86RegModRM_24_
0000f340       X86RegModRM_24B_
0000f560       X86RegModRM_24C_
0000f630       X86FTypeCond_
0000f660       X86FType3_
0000f720       X86FType3B_
0000f750       X86FType3C_
0000f780       X86FType2_
0000f7f0       X86FTypeFSTSWAX_
0000f830       X86FType4_
0000f890       X86FType1_
0000f9b0       X86FTypeEnv_
0000fb70       X86MMRegModRM_
0000fbc0       X86MMRegModRMImm_
0000fc20       X86MMRegModRM_Rev_
0000fc70       X86MMRegImm_
0000fca0       X86XMMRegModRM_
0000fcf0       X86XMMRegModRMImm_
0000fd50       X86XMMRegModRM_Rev_
0000fda0       X86XMMRegImm_
0000fde0       X86XMMRegModRM64_
0000fe30       X86XMMRegModRM64Imm_
0000fe90       X86XMMRegModRM64_Rev_
0000fee0       X86XMMRegModRM32_
0000ff30       X86XMMRegModRM32Imm_
0000ff90       X86XMMRegModRM32_Rev_
0000ffe0       X86RegModRM32_Rev_
00010040       X86MMRegModRMMixed_
00010130       X86MMRegModRMMixedImm_
000101c0       X86MMRegModRMMixed_Rev_
00010220       X86XMMRegModRMMixed_
000102e0       X86XMMRegModRMMixedImm_
00010370       X86XMMRegModRMMixed_Rev_
000103d0       X86RegModRMMixed_
000104d0       X86RegModRMMixedImm_
00010560       X86_3DNow_
00010dd0*      DisAddUnixReg_
Module: x86addr.obj(/mnt/sda5/.user/root/src/openwatcom-1.9/bld/mad/x86/c/x86addr.c)
00011470       MIAddrAdd_
000114c0       MIAddrComp_
00011590       MIAddrDiff_
00011600       MIAddrMap_
00011650       MIAddrFlat_
00011680       MIAddrInterrupt_
000116f0       AddrCharacteristics_
Module: x86ctrl.obj(/mnt/sda5/.user/root/src/openwatcom-1.9/bld/mad/x86/c/x86ctrl.c)
00011720       MIInit_
00011740       MIFini_
00011750       MIStateSize_
00011760       MIStateInit_
00011790       MIStateSet_
000117a0       MIStateCopy_
0001a4dc       _MADState
Module: x86types.obj(/mnt/sda5/.user/root/src/openwatcom-1.9/bld/mad/x86/c/x86types.c)
00011c00       MITypeWalk_
00011ce0       MITypeName_
00011cf0       MITypePreferredRadix_
00011d10       MITypeInfo_
00011d90       MITypeDefault_
00011e60       MITypeToString_
00011f00       MITypeForDIPType_
00012000       MITypeConvert_
Module: x86reg.obj(/mnt/sda5/.user/root/src/openwatcom-1.9/bld/mad/x86/c/x86reg.c)
00012238       _CPU_eax
0001224c       _CPU_ebx
00012260       _CPU_ecx
00012274       _CPU_edx
00012288+      _CPU_esi
0001229c+      _CPU_edi
000122b0+      _CPU_ebp
000122c4+      _CPU_esp
000122d8+      _CPU_eip
000122ec+      _CPU_efl
00012300       _CPU_ax
00012314       _CPU_bx
00012328       _CPU_cx
0001233c       _CPU_dx
00012350+      _CPU_si
00012364+      _CPU_di
00012378+      _CPU_bp
0001238c+      _CPU_sp
000123a0+      _CPU_ip
000123b4+      _CPU_fl
000123c8+      _CPU_al
000123dc+      _CPU_bl
000123f0+      _CPU_cl
00012404+      _CPU_dl
00012418+      _CPU_ah
0001242c+      _CPU_bh
00012440+      _CPU_ch
00012454+      _CPU_dh
00012468+      _CPU_cs
0001247c+      _CPU_ds
00012490+      _CPU_es
000124a4+      _CPU_ss
000124b8+      _CPU_fs
000124cc+      _CPU_gs
000124e0+      _CPU_vm
000124f4+      _CPU_rf
00012508+      _CPU_nt
0001251c+      _CPU_iopl
00012530+      _CPU_o
00012544+      _CPU_d
00012558+      _CPU_i
0001256c+      _CPU_s
00012580+      _CPU_z
00012594+      _CPU_a
000125a8+      _CPU_p
000125bc+      _CPU_c
000125d0+      _FPU_st0
000125e4+      _FPU_st1
000125f8+      _FPU_st2
0001260c+      _FPU_st3
00012620+      _FPU_st4
00012634+      _FPU_st5
00012648+      _FPU_st6
0001265c+      _FPU_st7
00012670+      _FPU_sw
00012684+      _FPU_cw
00012698+      _FPU_tag
000126ac+      _FPU_tag0
000126c0+      _FPU_tag1
000126d4+      _FPU_tag2
000126e8+      _FPU_tag3
000126fc+      _FPU_tag4
00012710+      _FPU_tag5
00012724+      _FPU_tag6
00012738+      _FPU_tag7
0001274c+      _FPU_iptr
00012760+      _FPU_optr
00012774+      _FPU_ie
00012788+      _FPU_de
0001279c+      _FPU_ze
000127b0+      _FPU_oe
000127c4+      _FPU_ue
000127d8+      _FPU_pe
000127ec+      _FPU_sf
00012800+      _FPU_c0
00012814+      _FPU_es
00012828+      _FPU_c1
0001283c+      _FPU_c2
00012850+      _FPU_st
00012864+      _FPU_c3
00012878+      _FPU_b
0001288c+      _FPU_im
000128a0+      _FPU_dm
000128b4+      _FPU_zm
000128c8+      _FPU_om
000128dc+      _FPU_um
000128f0+      _FPU_pm
00012904+      _FPU_iem
00012918+      _FPU_pc
0001292c+      _FPU_rc
00012940+      _FPU_ic
00012aac+      _MMX0_b0
00012ac0+      _MMX0_b1
00012ad4+      _MMX0_b2
00012ae8+      _MMX0_b3
00012afc+      _MMX0_b4
00012b10+      _MMX0_b5
00012b24+      _MMX0_b6
00012b38+      _MMX0_b7
00012b4c+      _MMX0_w0
00012b60+      _MMX0_w1
00012b74+      _MMX0_w2
00012b88+      _MMX0_w3
00012b9c+      _MMX0_d0
00012bb0+      _MMX0_d1
00012bc4+      _MMX0_q0
00012c18+      _MMX1_b0
00012c2c+      _MMX1_b1
00012c40+      _MMX1_b2
00012c54+      _MMX1_b3
00012c68+      _MMX1_b4
00012c7c+      _MMX1_b5
00012c90+      _MMX1_b6
00012ca4+      _MMX1_b7
00012cb8+      _MMX1_w0
00012ccc+      _MMX1_w1
00012ce0+      _MMX1_w2
00012cf4+      _MMX1_w3
00012d08+      _MMX1_d0
00012d1c+      _MMX1_d1
00012d30+      _MMX1_q0
00012d84+      _MMX2_b0
00012d98+      _MMX2_b1
00012dac+      _MMX2_b2
00012dc0+      _MMX2_b3
00012dd4+      _MMX2_b4
00012de8+      _MMX2_b5
00012dfc+      _MMX2_b6
00012e10+      _MMX2_b7
00012e24+      _MMX2_w0
00012e38+      _MMX2_w1
00012e4c+      _MMX2_w2
00012e60+      _MMX2_w3
00012e74+      _MMX2_d0
00012e88+      _MMX2_d1
00012e9c+      _MMX2_q0
00012ef0+      _MMX3_b0
00012f04+      _MMX3_b1
00012f18+      _MMX3_b2
00012f2c+      _MMX3_b3
00012f40+      _MMX3_b4
00012f54+      _MMX3_b5
00012f68+      _MMX3_b6
00012f7c+      _MMX3_b7
00012f90+      _MMX3_w0
00012fa4+      _MMX3_w1
00012fb8+      _MMX3_w2
00012fcc+      _MMX3_w3
00012fe0+      _MMX3_d0
00012ff4+      _MMX3_d1
00013008+      _MMX3_q0
0001305c+      _MMX4_b0
00013070+      _MMX4_b1
00013084+      _MMX4_b2
00013098+      _MMX4_b3
000130ac+      _MMX4_b4
000130c0+      _MMX4_b5
000130d4+      _MMX4_b6
000130e8+      _MMX4_b7
000130fc+      _MMX4_w0
00013110+      _MMX4_w1
00013124+      _MMX4_w2
00013138+      _MMX4_w3
0001314c+      _MMX4_d0
00013160+      _MMX4_d1
00013174+      _MMX4_q0
000131c8+      _MMX5_b0
000131dc+      _MMX5_b1
000131f0+      _MMX5_b2
00013204+      _MMX5_b3
00013218+      _MMX5_b4
0001322c+      _MMX5_b5
00013240+      _MMX5_b6
00013254+      _MMX5_b7
00013268+      _MMX5_w0
0001327c+      _MMX5_w1
00013290+      _MMX5_w2
000132a4+      _MMX5_w3
000132b8+      _MMX5_d0
000132cc+      _MMX5_d1
000132e0+      _MMX5_q0
00013334+      _MMX6_b0
00013348+      _MMX6_b1
0001335c+      _MMX6_b2
00013370+      _MMX6_b3
00013384+      _MMX6_b4
00013398+      _MMX6_b5
000133ac+      _MMX6_b6
000133c0+      _MMX6_b7
000133d4+      _MMX6_w0
000133e8+      _MMX6_w1
000133fc+      _MMX6_w2
00013410+      _MMX6_w3
00013424+      _MMX6_d0
00013438+      _MMX6_d1
0001344c+      _MMX6_q0
000134a0+      _MMX7_b0
000134b4+      _MMX7_b1
000134c8+      _MMX7_b2
000134dc+      _MMX7_b3
000134f0+      _MMX7_b4
00013504+      _MMX7_b5
00013518+      _MMX7_b6
0001352c+      _MMX7_b7
00013540+      _MMX7_w0
00013554+      _MMX7_w1
00013568+      _MMX7_w2
0001357c+      _MMX7_w3
00013590+      _MMX7_d0
000135a4+      _MMX7_d1
000135b8+      _MMX7_q0
0001360c+      _MMX_mm0
00013620+      _MMX_mm1
00013634+      _MMX_mm2
00013648+      _MMX_mm3
0001365c+      _MMX_mm4
00013670+      _MMX_mm5
00013684+      _MMX_mm6
00013698+      _MMX_mm7
000136d0+      _XMM0_b0
000136e4+      _XMM0_b1
000136f8+      _XMM0_b2
0001370c+      _XMM0_b3
00013720+      _XMM0_b4
00013734+      _XMM0_b5
00013748+      _XMM0_b6
0001375c+      _XMM0_b7
00013770+      _XMM0_b8
00013784+      _XMM0_b9
00013798+      _XMM0_b10
000137ac+      _XMM0_b11
000137c0+      _XMM0_b12
000137d4+      _XMM0_b13
000137e8+      _XMM0_b14
000137fc+      _XMM0_b15
00013810+      _XMM0_w0
00013824+      _XMM0_w1
00013838+      _XMM0_w2
0001384c+      _XMM0_w3
00013860+      _XMM0_w4
00013874+      _XMM0_w5
00013888+      _XMM0_w6
0001389c+      _XMM0_w7
000138b0+      _XMM0_d0
000138c4+      _XMM0_d1
000138d8+      _XMM0_d2
000138ec+      _XMM0_d3
00013900+      _XMM0_q0
00013914+      _XMM0_q1
000139a4+      _XMM1_b0
000139b8+      _XMM1_b1
000139cc+      _XMM1_b2
000139e0+      _XMM1_b3
000139f4+      _XMM1_b4
00013a08+      _XMM1_b5
00013a1c+      _XMM1_b6
00013a30+      _XMM1_b7
00013a44+      _XMM1_b8
00013a58+      _XMM1_b9
00013a6c+      _XMM1_b10
00013a80+      _XMM1_b11
00013a94+      _XMM1_b12
00013aa8+      _XMM1_b13
00013abc+      _XMM1_b14
00013ad0+      _XMM1_b15
00013ae4+      _XMM1_w0
00013af8+      _XMM1_w1
00013b0c+      _XMM1_w2
00013b20+      _XMM1_w3
00013b34+      _XMM1_w4
00013b48+      _XMM1_w5
00013b5c+      _XMM1_w6
00013b70+      _XMM1_w7
00013b84+      _XMM1_d0
00013b98+      _XMM1_d1
00013bac+      _XMM1_d2
00013bc0+      _XMM1_d3
00013bd4+      _XMM1_q0
00013be8+      _XMM1_q1
00013c78+      _XMM2_b0
00013c8c+      _XMM2_b1
00013ca0+      _XMM2_b2
00013cb4+      _XMM2_b3
00013cc8+      _XMM2_b4
00013cdc+      _XMM2_b5
00013cf0+      _XMM2_b6
00013d04+      _XMM2_b7
00013d18+      _XMM2_b8
00013d2c+      _XMM2_b9
00013d40+      _XMM2_b10
00013d54+      _XMM2_b11
00013d68+      _XMM2_b12
00013d7c+      _XMM2_b13
00013d90+      _XMM2_b14
00013da4+      _XMM2_b15
00013db8+      _XMM2_w0
00013dcc+      _XMM2_w1
00013de0+      _XMM2_w2
00013df4+      _XMM2_w3
00013e08+      _XMM2_w4
00013e1c+      _XMM2_w5
00013e30+      _XMM2_w6
00013e44+      _XMM2_w7
00013e58+      _XMM2_d0
00013e6c+      _XMM2_d1
00013e80+      _XMM2_d2
00013e94+      _XMM2_d3
00013ea8+      _XMM2_q0
00013ebc+      _XMM2_q1
00013f4c+      _XMM3_b0
00013f60+      _XMM3_b1
00013f74+      _XMM3_b2
00013f88+      _XMM3_b3
00013f9c+      _XMM3_b4
00013fb0+      _XMM3_b5
00013fc4+      _XMM3_b6
00013fd8+      _XMM3_b7
00013fec+      _XMM3_b8
00014000+      _XMM3_b9
00014014+      _XMM3_b10
00014028+      _XMM3_b11
0001403c+      _XMM3_b12
00014050+      _XMM3_b13
00014064+      _XMM3_b14
00014078+      _XMM3_b15
0001408c+      _XMM3_w0
000140a0+      _XMM3_w1
000140b4+      _XMM3_w2
000140c8+      _XMM3_w3
000140dc+      _XMM3_w4
000140f0+      _XMM3_w5
00014104+      _XMM3_w6
00014118+      _XMM3_w7
0001412c+      _XMM3_d0
00014140+      _XMM3_d1
00014154+      _XMM3_d2
00014168+      _XMM3_d3
0001417c+      _XMM3_q0
00014190+      _XMM3_q1
00014220+      _XMM4_b0
00014234+      _XMM4_b1
00014248+      _XMM4_b2
0001425c+      _XMM4_b3
00014270+      _XMM4_b4
00014284+      _XMM4_b5
00014298+      _XMM4_b6
000142ac+      _XMM4_b7
000142c0+      _XMM4_b8
000142d4+      _XMM4_b9
000142e8+      _XMM4_b10
000142fc+      _XMM4_b11
00014310+      _XMM4_b12
00014324+      _XMM4_b13
00014338+      _XMM4_b14
0001434c+      _XMM4_b15
00014360+      _XMM4_w0
00014374+      _XMM4_w1
00014388+      _XMM4_w2
0001439c+      _XMM4_w3
000143b0+      _XMM4_w4
000143c4+      _XMM4_w5
000143d8+      _XMM4_w6
000143ec+      _XMM4_w7
00014400+      _XMM4_d0
00014414+      _XMM4_d1
00014428+      _XMM4_d2
0001443c+      _XMM4_d3
00014450+      _XMM4_q0
00014464+      _XMM4_q1
000144f4+      _XMM5_b0
00014508+      _XMM5_b1
0001451c+      _XMM5_b2
00014530+      _XMM5_b3
00014544+      _XMM5_b4
00014558+      _XMM5_b5
0001456c+      _XMM5_b6
00014580+      _XMM5_b7
00014594+      _XMM5_b8
000145a8+      _XMM5_b9
000145bc+      _XMM5_b10
000145d0+      _XMM5_b11
000145e4+      _XMM5_b12
000145f8+      _XMM5_b13
0001460c+      _XMM5_b14
00014620+      _XMM5_b15
00014634+      _XMM5_w0
00014648+      _XMM5_w1
0001465c+      _XMM5_w2
00014670+      _XMM5_w3
00014684+      _XMM5_w4
00014698+      _XMM5_w5
000146ac+      _XMM5_w6
000146c0+      _XMM5_w7
000146d4+      _XMM5_d0
000146e8+      _XMM5_d1
000146fc+      _XMM5_d2
00014710+      _XMM5_d3
00014724+      _XMM5_q0
00014738+      _XMM5_q1
000147c8+      _XMM6_b0
000147dc+      _XMM6_b1
000147f0+      _XMM6_b2
00014804+      _XMM6_b3
00014818+      _XMM6_b4
0001482c+      _XMM6_b5
00014840+      _XMM6_b6
00014854+      _XMM6_b7
00014868+      _XMM6_b8
0001487c+      _XMM6_b9
00014890+      _XMM6_b10
000148a4+      _XMM6_b11
000148b8+      _XMM6_b12
000148cc+      _XMM6_b13
000148e0+      _XMM6_b14
000148f4+      _XMM6_b15
00014908+      _XMM6_w0
0001491c+      _XMM6_w1
00014930+      _XMM6_w2
00014944+      _XMM6_w3
00014958+      _XMM6_w4
0001496c+      _XMM6_w5
00014980+      _XMM6_w6
00014994+      _XMM6_w7
000149a8+      _XMM6_d0
000149bc+      _XMM6_d1
000149d0+      _XMM6_d2
000149e4+      _XMM6_d3
000149f8+      _XMM6_q0
00014a0c+      _XMM6_q1
00014a9c+      _XMM7_b0
00014ab0+      _XMM7_b1
00014ac4+      _XMM7_b2
00014ad8+      _XMM7_b3
00014aec+      _XMM7_b4
00014b00+      _XMM7_b5
00014b14+      _XMM7_b6
00014b28+      _XMM7_b7
00014b3c+      _XMM7_b8
00014b50+      _XMM7_b9
00014b64+      _XMM7_b10
00014b78+      _XMM7_b11
00014b8c+      _XMM7_b12
00014ba0+      _XMM7_b13
00014bb4+      _XMM7_b14
00014bc8+      _XMM7_b15
00014bdc+      _XMM7_w0
00014bf0+      _XMM7_w1
00014c04+      _XMM7_w2
00014c18+      _XMM7_w3
00014c2c+      _XMM7_w4
00014c40+      _XMM7_w5
00014c54+      _XMM7_w6
00014c68+      _XMM7_w7
00014c7c+      _XMM7_d0
00014c90+      _XMM7_d1
00014ca4+      _XMM7_d2
00014cb8+      _XMM7_d3
00014ccc+      _XMM7_q0
00014ce0+      _XMM7_q1
00014d70+      _XMM_xmm0
00014d84+      _XMM_xmm1
00014d98+      _XMM_xmm2
00014dac+      _XMM_xmm3
00014dc0+      _XMM_xmm4
00014dd4+      _XMM_xmm5
00014de8+      _XMM_xmm6
00014dfc+      _XMM_xmm7
00014e10+      _XMM_mxcsr
00014e24+      _XMM_mxcsr_ie
00014e38+      _XMM_mxcsr_de
00014e4c+      _XMM_mxcsr_ze
00014e60+      _XMM_mxcsr_oe
00014e74+      _XMM_mxcsr_ue
00014e88+      _XMM_mxcsr_pe
00014e9c+      _XMM_mxcsr_daz
00014eb0+      _XMM_mxcsr_im
00014ec4+      _XMM_mxcsr_dm
00014ed8+      _XMM_mxcsr_zm
00014eec+      _XMM_mxcsr_om
00014f00+      _XMM_mxcsr_um
00014f14+      _XMM_mxcsr_pm
00014f28+      _XMM_mxcsr_rc
00014f3c+      _XMM_mxcsr_fz
000152b0       MIRegistersSize_
000152c0       MIRegistersHost_
00015300       MIRegistersTarget_
00015340       MIRegSetWalk_
000153d0       MIRegSetName_
000153e0       MIRegSetLevel_
00015670       MIRegSetDisplayGrouping_
00016220       MIRegSetDisplayGetPiece_
00016250       MIRegSetDisplayModify_
000164f0       RegDispType_
00016730       MIRegModified_
000169a0       MIRegInspectAddr_
00016ae0       MIRegSetDisplayToggleList_
00016af0       MIRegSetDisplayToggle_
00016bd0       MIRegWalk_
00016cc0       GetRegSP_
00016cf0+      GetRegFP_
00016d20       GetRegIP_
00016d50       MIRegSpecialGet_
00016d90       MIRegSpecialSet_
00016dd0       MIRegSpecialName_
00016f70       MIRegFromContextItem_
00016f80       MIRegUpdateStart_
00016f90       MIRegUpdateEnd_
00017170       RegInit_
00017180       RegFini_
Module: x86call.obj(/mnt/sda5/.user/root/src/openwatcom-1.9/bld/mad/x86/c/x86call.c)
00017210       MICallUpStackSize_
00017210       MICallStackGrowsUp_
00017220       MICallTypeList_
00017230       MICallBuildFrame_
00017340       MICallReturnReg_
00017370       MICallParmRegList_
00017460+      GetFarAddr_
00017ce0       MICallUpStackInit_
00017cf0       MICallUpStackLevel_
Module: x86disas.obj(/mnt/sda5/.user/root/src/openwatcom-1.9/bld/mad/x86/c/x86disas.c)
0001a5dc       _DbgAddr
00017e30       MIDisasmDataSize_
00017e40       MIDisasmNameMax_
00017e50       DoCode_
00017ea0       DecodeIns_
00017ee0       GetDisasmPrev_
00017fc0       MIDisasm_
00018020       MIDisasmFormat_
00018180       MIDisasmInsSize_
00018190       MIDisasmInsUndoable_
00018220+      DisasmControl_
00018220       MIDisasmControl_
000185c0       MIDisasmInsNext_
000187c0+      GetSegRegOverride_
00018820+      MemReference_
00018a40       DoDisasmMemRefWalk_
00018be0       MIDisasmMemRefWalk_
00018c00       MIDisasmToggleList_
00018c10       MIDisasmToggle_
00018cd0       MIDisasmInspectAddr_
00018dd0       CnvRadix_
00018e60       JmpLabel_
00018ef0       ToSegStr_
00018fe0       GetDataWord_
00019010       GetDataLong_
00019040       InitCache_
00019090       DisCliGetData_
00019100       DisCliValueString_
00019290       DisasmInit_
000192c0       DisasmFini_
Module: x86trace.obj(/mnt/sda5/.user/root/src/openwatcom-1.9/bld/mad/x86/c/x86trace.c)
000192e0       MITraceSize_
000192f0       MITraceInit_
00019300       MITraceHaveRecursed_
000196d0       MITraceOne_
00019790       MITraceSimulate_
000197c0       MITraceFini_
00019870       MIUnexpectedBreak_
Module: /mnt/sda5/.user/root/src/openwatcom-1.9/rel2/lib386/dos/clib3r.lib(toupper.c)
000199b0       toupper_
Module: /mnt/sda5/.user/root/src/openwatcom-1.9/rel2/lib386/dos/clib3r.lib(memset.c)
000199c0       memset_
Module: /mnt/sda5/.user/root/src/openwatcom-1.9/rel2/lib386/dos/clib3r.lib(strupr.c)
000199e0       strupr_
Module: /mnt/sda5/.user/root/src/openwatcom-1.9/rel2/lib386/dos/clib3r.lib(memmove.c)
00019a00       memmove_
Module: /mnt/sda5/.user/root/src/openwatcom-1.9/rel2/lib386/dos/clib3r.lib(strncmp.c)
00019a60       strncmp_
Module: /mnt/sda5/.user/root/src/openwatcom-1.9/rel2/lib386/dos/clib3r.lib(strnicmp.c)
00019a90       strnicmp_
Module: /mnt/sda5/.user/root/src/openwatcom-1.9/rel2/lib386/dos/clib3r.lib(istable.c)
00019b84       __IsTable
Module: /mnt/sda5/.user/root/src/openwatcom-1.9/rel2/lib386/dos/clib3r.lib(__stos)
00019ae0       __STOSB
00019b17*      __STOSD


                        +--------------------+
                        |   Libraries Used   |
                        +--------------------+

/mnt/sda5/.user/root/src/openwatcom-1.9/rel2/lib386/dos/clib3r.lib


                        +-----------------------+
                        |   Linker Statistics   |
                        +-----------------------+

Stack size:  1000 (4096.)
Memory size:  0001a5f0 (108016.)
Entry point address: 00000000
Link time: 00:00.00
