Open Watcom Linker Version 1.9
Portions Copyright (c) 1985-2002 Sybase, Inc. All Rights Reserved.
Created on:       12/12/15 18:41:13
Executable Image: pbide.dll
creating a Windows NT dynamic link library


                        +------------+
                        |   Groups   |
                        +------------+

Group                           Address              Size
=====                           =======              ====

.idata                          00410000             00000888
DGROUP                          00411000             00007690



                        +--------------+
                        |   Segments   |
                        +--------------+

Segment                Class          Group          Address         Size
=======                =====          =====          =======         ====

BEGTEXT                CODE           AUTO           00401000        00000007
_TEXT                  CODE           AUTO           00401010        0000e21f
TRANSFER CODE          CODE           AUTO           0040f230        000001e0
.idata                 .idata         .idata         00410000        00000888
_NULL                  BEGDATA        DGROUP         00411000        00000004
_AFTERNULL             BEGDATA        DGROUP         00411004        00000000
CONST                  DATA           DGROUP         00411004        000015ec
CONST2                 DATA           DGROUP         004125f0        00000c68
_DATA                  DATA           DGROUP         00413258        00000640
XIB                    DATA           DGROUP         00413898        00000000
XI                     DATA           DGROUP         00413898        0000001e
XIE                    DATA           DGROUP         004138b6        00000000
YIB                    DATA           DGROUP         004138b6        00000000
YI                     DATA           DGROUP         004138b6        0000001e
YIE                    DATA           DGROUP         004138d4        00000000
TIB                    DATA           DGROUP         004138d4        00000000
TI                     DATA           DGROUP         004138d4        00000000
TIE                    DATA           DGROUP         004138d4        00000000
DATA                   DATA           DGROUP         004138d4        00000000
_BSS                   BSS            DGROUP         00414000        0000468c
STACK                  STACK          DGROUP         00418690        00000000


                        +----------------+
                        |   Memory Map   |
                        +----------------+

* = unreferenced symbol
+ = symbol only referenced locally

Address        Symbol
=======        ======

Module: pbide.obj(/mnt/sda5/.user/root/src/openwatcom-1.9/bld/pbide/wig/c/pbide.c)
00401010*      _DLLMain@12
00401020+      WatIDE_GetVersion
00401050+      WatIDE_DirIsOk
004010f0+      WatIDE_GetFunctionName
00401140+      WatIDE_RunWig
004011e0+      WatIDE_FiniErrInfo
004011f0+      _FindWatIDEHwnd@8
004013d0+      _DdeProc@32
004015c0+      WatIDE_RunIDE
00401600+      WatIDE_CloseIDE
Module: errdll.obj(/mnt/sda5/.user/root/src/openwatcom-1.9/bld/pbide/wig/c/errdll.c)
00401650       GetErrInfo_
00401660       FreeErrInfo_
00401670       InitError_
004016b0       FiniError_
004016f0+      fmtErr_
004017c0       Error_
00401800       Warning_
00414420       _ErrorEnv
Module: keywords.obj(/mnt/sda5/.user/root/src/openwatcom-1.9/bld/pbide/wig/c/keywords.c)
00401880       GetStmntCnt_
004018d0       IsPtrType_
004019b0       ConvertRetType_
004019d0       ConvertVarType_
00401a10       ConvertParmType_
00401a90*      FindStmt_
0041138c       _Statements
0041153c       _DataTypes
Module: scanner.obj(/mnt/sda5/.user/root/src/openwatcom-1.9/bld/pbide/wig/c/scanner.c)
00401c40*      yyparse_
00401c40       wig_parse_
004025c0       InitLex_
00402670       FiniLex_
004026b0+      compKeywords_
004026c0+      checkKeyWord_
00402720+      yylex_
00402b40       GetParsedLine_
00402b50*      LineFinished_
00402b60       FinishLine_
00402b90       GetToEOS_
00416480+      _yylval
00416494*      _yyvp
00416498+      _yyval
Module: mem.obj(/mnt/sda5/.user/root/src/openwatcom-1.9/bld/pbide/wig/c/mem.c)
00402bf0       FiniMem_
00402bf0       InitMem_
00402c00       MemMalloc_
00402c20       MemRealloc_
00402c40       MemFree_
00402c50       MemStrDup_
Module: hashtab.obj(/mnt/sda5/.user/root/src/openwatcom-1.9/bld/pbide/wig/c/hashtab.c)
00402ca0       NewHashTable_
00402cd0       DestroyHashTable_
00402d20       InsertHashValue_
00402db0+      HashByte_
00402dd0       HashString_
00402df0       FindHashEntry_
Module: srusuprt.obj(/mnt/sda5/.user/root/src/openwatcom-1.9/bld/pbide/wig/c/srusuprt.c)
00402e30       yyerror_
00402ed0       GetConstructor_
00402ee0       GetDestructor_
00402f60       FreeSru_
00402fe0       InitSru_
004030b0       SetHeader_
00403150       SetComment_
00403150       UserCode_
00403170       SetReturn_
004031c0       SetFunction_
00403250       SetSubroutine_
004032a0       StartSubProgram_
00403330       EndSubProgram_
00403470       FiniParmList_
004035b0       AddParm_
00403670       StartSection_
004036c0       SetDefaultAccess_
004036d0       EndSection_
004036f0       AddDataMethod2_
00403710       AddDataMethod_
004037c0       RegisterEvent_
00403cd0       DoPostProcessing_
00403fe0       FiniSru_
00404050       GenCPPInterface_
00404070       ProcessStatement_
Module: gen_cpp.obj(/mnt/sda5/.user/root/src/openwatcom-1.9/bld/pbide/wig/c/gen_cpp.c)
00404650       GenerateCPPFiles_
00404720       GenerateCoverFnName_
Module: options.obj(/mnt/sda5/.user/root/src/openwatcom-1.9/bld/pbide/wig/c/options.c)
00416928       _Options
00405f30       GetInputFile_
00405f40*      GetErrorFile_
00405f50       GetOutputFile_
00405f60       GetCoverFile_
00405f70       GetHeaderFile_
00405f80       GetCodeFile_
00405f90       GetClass_
00405fa0       GetLibName_
00405fb0       GetParentClass_
00405fd0       GetParentHeader_
00405fe0       GetLmainName_
00405ff0       GetHash_
00406080+      getFname_
00406150       SetBaseName_
00406270+      PostProcessOptions_
00406380       ProcessOptions_
Module: list.obj(/mnt/sda5/.user/root/src/openwatcom-1.9/bld/pbide/wig/c/list.c)
00406770       NewList_
004067a0       AddToList_
004067f0       FreeList_
00406830       GetListItem_
00406850       GetListCount_
Module: filelist.obj(/mnt/sda5/.user/root/src/openwatcom-1.9/bld/pbide/wig/c/filelist.c)
00406860       InitFileList_
00406860       FiniFileList_
004068a0       WigOpenFile_
004068e0       WigCloseFile_
Module: wig.obj(/mnt/sda5/.user/root/src/openwatcom-1.9/bld/pbide/wig/c/wig.c)
00406920       Wigmain_
Module: /usr/src/openwatcom-1.9/rel2/lib386/nt/clib3r.lib(dirwnt.c)
00406a30+      __opendir_
00406ab0+      _opendir_
00406c40       opendir_
00406c60*      readdir_
00406d10       closedir_
00406d60*      rewinddir_
Module: /usr/src/openwatcom-1.9/rel2/lib386/nt/clib3r.lib(splitpat.c)
00406de0       _splitpath_
Module: /usr/src/openwatcom-1.9/rel2/lib386/nt/clib3r.lib(makepath.c)
00406ed0       _makepath_
Module: /usr/src/openwatcom-1.9/rel2/lib386/nt/clib3r.lib(sprintf.c)
00407080       sprintf_
Module: /usr/src/openwatcom-1.9/rel2/lib386/nt/clib3r.lib(remove.c)
004070b0       remove_
Module: /usr/src/openwatcom-1.9/rel2/lib386/nt/clib3r.lib(_strcmp)
004070c0       strcmp_
Module: /usr/src/openwatcom-1.9/rel2/lib386/nt/clib3r.lib(strncmp.c)
00407200       strncmp_
Module: /usr/src/openwatcom-1.9/rel2/lib386/nt/clib3r.lib(getenv.c)
00407230       getenv_
Module: /usr/src/openwatcom-1.9/rel2/lib386/nt/clib3r.lib(dstrt386)
004072ba       __DLLstart_
004072ba*      __DLLstartw_
004072ba*      _DllMainCRTStartup@12
004072ba*      _wDllMainCRTStartup@12
Module: /usr/src/openwatcom-1.9/rel2/lib386/nt/clib3r.lib(vsprintf.c)
00407340       vsprintf_
Module: /usr/src/openwatcom-1.9/rel2/lib386/nt/clib3r.lib(setjmp)
00407358       _setjmp_
00407391       longjmp_
Module: /usr/src/openwatcom-1.9/rel2/lib386/nt/clib3r.lib(printf.c)
00407420       printf_
Module: /usr/src/openwatcom-1.9/rel2/lib386/nt/clib3r.lib(itoa.c)
00407450+      utoa_
004074a0       itoa_
Module: /usr/src/openwatcom-1.9/rel2/lib386/nt/clib3r.lib(errno.c)
004074d0       __get_errno_ptr_
004074e0*      __get_doserrno_ptr_
Module: /usr/src/openwatcom-1.9/rel2/lib386/nt/clib3r.lib(fgetc.c)
004074f0       __fill_buffer_
004075f0       fgetc_
Module: /usr/src/openwatcom-1.9/rel2/lib386/nt/clib3r.lib(memset.c)
004076b0       memset_
Module: /usr/src/openwatcom-1.9/rel2/lib386/nt/clib3r.lib(fclose.c)
004076d0       __doclose_
00407770       __shutdown_stream_
00407790       fclose_
004173bc+      ___RmTmpFileFn
Module: /usr/src/openwatcom-1.9/rel2/lib386/nt/clib3r.lib(stricmp.c)
004077e0       stricmp_
Module: /usr/src/openwatcom-1.9/rel2/lib386/nt/clib3r.lib(bsearch.c)
00407820       bsearch_
Module: /usr/src/openwatcom-1.9/rel2/lib386/nt/clib3r.lib(istable.c)
004078a0       __IsTable
Module: /usr/src/openwatcom-1.9/rel2/lib386/nt/clib3r.lib(ungetc.c)
004079b0       ungetc_
Module: /usr/src/openwatcom-1.9/rel2/lib386/nt/clib3r.lib(atoi.c)
00407a80       atoi_
Module: /usr/src/openwatcom-1.9/rel2/lib386/nt/clib3r.lib(nmalloc.c)
00407ad0       _nmalloc_
00407ad0       malloc_
004132ec       ___nheapbeg
004132f0       ___MiniHeapRover
004132f4       ___LargestSizeB4MiniHeapRover
Module: /usr/src/openwatcom-1.9/rel2/lib386/nt/clib3r.lib(nrealloc.c)
00407bd0*      _nrealloc_
00407bd0       realloc_
Module: /usr/src/openwatcom-1.9/rel2/lib386/nt/clib3r.lib(nfree.c)
00407c50       _nfree_
00407c50       free_
004173c0       ___MiniHeapFreeRover
Module: /usr/src/openwatcom-1.9/rel2/lib386/nt/clib3r.lib(tolower.c)
00407d60       tolower_
Module: /usr/src/openwatcom-1.9/rel2/lib386/nt/clib3r.lib(strnicmp.c)
00407d70       strnicmp_
Module: /usr/src/openwatcom-1.9/rel2/lib386/nt/clib3r.lib(stackwnt.c)
00407dc0       stackavail_
Module: /usr/src/openwatcom-1.9/rel2/lib386/nt/clib3r.lib(stk)
00407dd1*      __CHK
00407de1*      __STK
00407e00*      __STKOVERFLOW_
00407e10       __GRO
00407e30*      __alloca_probe
Module: /usr/src/openwatcom-1.9/rel2/lib386/nt/clib3r.lib(fprintf.c)
00407e50       fprintf_
Module: /usr/src/openwatcom-1.9/rel2/lib386/nt/clib3r.lib(accsswnt.c)
00407e80       access_
Module: /usr/src/openwatcom-1.9/rel2/lib386/nt/clib3r.lib(fputs.c)
00407eb0       fputs_
Module: /usr/src/openwatcom-1.9/rel2/lib386/nt/clib3r.lib(strncpy.c)
00407f50       strncpy_
Module: /usr/src/openwatcom-1.9/rel2/lib386/nt/clib3r.lib(fgets.c)
00407f90       fgets_
Module: /usr/src/openwatcom-1.9/rel2/lib386/nt/clib3r.lib(fseek.c)
00408050       fseek_
Module: /usr/src/openwatcom-1.9/rel2/lib386/nt/clib3r.lib(fread.c)
00408160       fread_
Module: /usr/src/openwatcom-1.9/rel2/lib386/nt/clib3r.lib(renamwnt.c)
00408340       rename_
Module: /usr/src/openwatcom-1.9/rel2/lib386/nt/clib3r.lib(strstr.c)
00408360       strstr_
Module: /usr/src/openwatcom-1.9/rel2/lib386/nt/clib3r.lib(puts.c)
00408410       puts_
Module: /usr/src/openwatcom-1.9/rel2/lib386/nt/clib3r.lib(fopen.c)
00408440+      __open_flags_
00408650+      _fsopen_
004086a0       fopen_
00408730*      freopen_
Module: /usr/src/openwatcom-1.9/rel2/lib386/nt/clib3r.lib(mbsnextc.c)
004087a0       _mbsnextc_
Module: /usr/src/openwatcom-1.9/rel2/lib386/nt/clib3r.lib(mbsinc.c)
004087e0       _mbsinc_
Module: /usr/src/openwatcom-1.9/rel2/lib386/nt/clib3r.lib(ntdirinf.c)
00408810+      __MakeDOSDT_
00408840*      __FromDOSDT_
00408870       __GetNTDirInfo_
004088b0       __NTFindNextFileWithAttr_
Module: /usr/src/openwatcom-1.9/rel2/lib386/nt/clib3r.lib(dosret.c)
00408910*      _dosretax_
00408920*      _dosret0_
00408930       __set_errno_dos_
00408960*      __set_errno_dos_reterr_
00408970       __set_errno_nt_
00408980*      __set_errno_nt_reterr_
Module: /usr/src/openwatcom-1.9/rel2/lib386/nt/clib3r.lib(strdup.c)
004089a0       __clib_strdup_
Module: /usr/src/openwatcom-1.9/rel2/lib386/nt/clib3r.lib(mbsnccnt.c)
004089e0       _mbsnccnt_
Module: /usr/src/openwatcom-1.9/rel2/lib386/nt/clib3r.lib(mbsncpy.c)
00408a10       _mbsncpy_
Module: /usr/src/openwatcom-1.9/rel2/lib386/nt/clib3r.lib(mbsnbcnt.c)
00408a30       _mbsnbcnt_
Module: /usr/src/openwatcom-1.9/rel2/lib386/nt/clib3r.lib(mbconv.c)
00408aa0       _mbvtop_
Module: /usr/src/openwatcom-1.9/rel2/lib386/nt/clib3r.lib(mbclen.c)
00408ac0       _mbclen_
Module: /usr/src/openwatcom-1.9/rel2/lib386/nt/clib3r.lib(mbsdec.c)
00408af0       _mbsdec_
Module: /usr/src/openwatcom-1.9/rel2/lib386/nt/clib3r.lib(unlnkwnt.c)
00408b70       unlink_
Module: /usr/src/openwatcom-1.9/rel2/lib386/nt/clib3r.lib(environ.c)
004173c4       ___env_mask
004173c8       _environ
004173cc       __wenviron
Module: /usr/src/openwatcom-1.9/rel2/lib386/nt/clib3r.lib(mbterm.c)
00408b90       _mbterm_
Module: /usr/src/openwatcom-1.9/rel2/lib386/nt/clib3r.lib(mbcupper.c)
00408bd0       _mbctoupper_
Module: /usr/src/openwatcom-1.9/rel2/lib386/nt/clib3r.lib(dmainwnt.c)
00408c10       __LibMain@12
Module: /usr/src/openwatcom-1.9/rel2/lib386/nt/clib3r.lib(segdefns)
00401003       ___begtext
00411000*      __nullarea
00413898       __Start_XI
004138b6       __End_XI
004138b6       __Start_YI
004138d4       __End_YI
Module: /usr/src/openwatcom-1.9/rel2/lib386/nt/clib3r.lib(prtf.c)
00408dc0       __prtf_
Module: /usr/src/openwatcom-1.9/rel2/lib386/nt/clib3r.lib(ljmphdl.c)
0041340c       ___longjmp_handler
Module: /usr/src/openwatcom-1.9/rel2/lib386/nt/clib3r.lib(iob.c)
00413410       ___iob
00413618       __fmode
004173d4       ___OpenStreams
004173d8       ___ClosedStreams
Module: /usr/src/openwatcom-1.9/rel2/lib386/nt/clib3r.lib(fprtf.c)
00409ac0       __fprtf_
Module: /usr/src/openwatcom-1.9/rel2/lib386/nt/clib3r.lib(alphabet.c)
004125c8       ___Alphabet
Module: /usr/src/openwatcom-1.9/rel2/lib386/nt/clib3r.lib(mainwnt.c)
0041361c       ___TlsIndex
00413620       ___FirstThreadData
00413624       ___GetThreadPtr
00413628       __AccessFileH
0041362c       __ReleaseFileH
00413630       __AccessIOB
00413634       __ReleaseIOB
00413638       __AccessNHeap
0041363c       __AccessFHeap
00413640       __ReleaseNHeap
00409b90*      __threadid_
00409bb0+      __sig_null_rtn_
00409bc0       __NTInit_
00409da0       __NTFini_
00409e00*      __NTMainInit_
00409e60       __exit_
00413644       __ReleaseFHeap
00413648       __AccessTDList
0041364c       __ReleaseTDList
00413650       __AccessFList
00413654       __ReleaseFList
00413658       __ThreadExitRtn
0041365c       ___sig_init_rtn
00413660       ___sig_fini_rtn
00413664+      ___process_fini
004173e4       ___Is_DLL
Module: /usr/src/openwatcom-1.9/rel2/lib386/nt/clib3r.lib(flushall.c)
00409eb0       __flushall_
00409ef0*      flushall_
Module: /usr/src/openwatcom-1.9/rel2/lib386/nt/clib3r.lib(gtchewnt.c)
00409f00       getche_
Module: /usr/src/openwatcom-1.9/rel2/lib386/nt/clib3r.lib(ioalloc.c)
00409f30       __ioalloc_
Module: /usr/src/openwatcom-1.9/rel2/lib386/nt/clib3r.lib(qread.c)
00409fd0       __qread_
Module: /usr/src/openwatcom-1.9/rel2/lib386/nt/clib3r.lib(seterrno.c)
0040a037       __set_errno_
0040a045*      __set_EDOM_
0040a053*      __set_ERANGE_
0040a061*      __set_EINVAL_
0040a074       __set_doserrno_
Module: /usr/src/openwatcom-1.9/rel2/lib386/nt/clib3r.lib(__stos)
0040a090       __STOSB
0040a0c7*      __STOSD
Module: /usr/src/openwatcom-1.9/rel2/lib386/nt/clib3r.lib(__lseek.c)
0040a140       __lseek_
Module: /usr/src/openwatcom-1.9/rel2/lib386/nt/clib3r.lib(_clsewnt.c)
0040a180       __close_
Module: /usr/src/openwatcom-1.9/rel2/lib386/nt/clib3r.lib(flush.c)
0040a1e0       __flush_
Module: /usr/src/openwatcom-1.9/rel2/lib386/nt/clib3r.lib(freefp.c)
0040a2e0       __freefp_
0040a330       __purgefp_
Module: /usr/src/openwatcom-1.9/rel2/lib386/nt/clib3r.lib(nmemneed.c)
0040a360       __nmemneed_
Module: /usr/src/openwatcom-1.9/rel2/lib386/nt/clib3r.lib(mem.c)
0040a370       __MemAllocator
0040a420       __MemFree
Module: /usr/src/openwatcom-1.9/rel2/lib386/nt/clib3r.lib(grownear.c)
0040a6c0       __ExpandDGROUP_
Module: /usr/src/openwatcom-1.9/rel2/lib386/nt/clib3r.lib(nmsize.c)
0040a6e0       _nmsize_
0040a6e0*      _msize_
Module: /usr/src/openwatcom-1.9/rel2/lib386/nt/clib3r.lib(nexpand.c)
0040a6f0       _nexpand_
0040a6f0*      _expand_
0040a730+      __HeapManager_expand_
Module: /usr/src/openwatcom-1.9/rel2/lib386/nt/clib3r.lib(xmsgwnt.c)
0040a8f0+      __exit_with_msg_
0040a950       __fatal_runtime_error_
Module: /usr/src/openwatcom-1.9/rel2/lib386/nt/clib3r.lib(fgtattr.c)
0040a970       __fixed_GetFileAttributesA_
Module: /usr/src/openwatcom-1.9/rel2/lib386/nt/clib3r.lib(fputc.c)
0040aa10       fputc_
Module: /usr/src/openwatcom-1.9/rel2/lib386/nt/clib3r.lib(lseek.c)
0040aaf0       lseek_
Module: /usr/src/openwatcom-1.9/rel2/lib386/nt/clib3r.lib(tell.c)
0040ab40       tell_
Module: /usr/src/openwatcom-1.9/rel2/lib386/nt/clib3r.lib(comtflag.c)
0040ab60*      __set_commode_
00413668       __commode
Module: /usr/src/openwatcom-1.9/rel2/lib386/nt/clib3r.lib(openwnt.c)
0040ad70*      open_
0040ad90       sopen_
Module: /usr/src/openwatcom-1.9/rel2/lib386/nt/clib3r.lib(chktty.c)
0040adc0       __chktty_
Module: /usr/src/openwatcom-1.9/rel2/lib386/nt/clib3r.lib(allocfp.c)
0040ae00       __allocfp_
Module: /usr/src/openwatcom-1.9/rel2/lib386/nt/clib3r.lib(mbisdbcs.c)
00417a00       ___IsDBCS
Module: /usr/src/openwatcom-1.9/rel2/lib386/nt/clib3r.lib(mbislead.c)
0040aed0*      _ismbblead_
00417a04       ___MBCSIsTable
Module: /usr/src/openwatcom-1.9/rel2/lib386/nt/clib3r.lib(mbsnbcpy.c)
0040aef0       _mbsnbcpy_
Module: /usr/src/openwatcom-1.9/rel2/lib386/nt/clib3r.lib(setenvp.c)
0040af50       __setenvp_
0040b010       __freeenvp_
Module: /usr/src/openwatcom-1.9/rel2/lib386/nt/clib3r.lib(lmainwnt.c)
0040b060       _LibMain@12
Module: /usr/src/openwatcom-1.9/rel2/lib386/nt/clib3r.lib(initrtns.c)
0040b090       __InitRtns
0040b0e0       __FiniRtns
Module: /usr/src/openwatcom-1.9/rel2/lib386/nt/clib3r.lib(rdllmwnt.c)
0041366c       __pRawDllMain
Module: /usr/src/openwatcom-1.9/rel2/lib386/nt/clib3r.lib(mthread.c)
0040b2d0+      __CloseSemaphore_
0040b310+      __AccessIOB_
0040b320+      __ReleaseIOB_
0040b330+      __AccessFileH_
0040b340+      __ReleaseFileH_
0040b350+      __AccessNHeap_
0040b360+      __ReleaseNHeap_
0040b370+      __AccessFHeap_
0040b380+      __ReleaseFHeap_
0040b390+      __AccessTDList_
0040b3a0+      __ReleaseTDList_
0040b3b0+      __AccessFList_
0040b3c0+      __AccessSemaphore_
0040b420+      __ReleaseFList_
0040b430+      __ReleaseSemaphore_
0040b460+      __MultipleThread_
0040b4b0       __AllocInitThreadData_
0040b500       __FreeInitThreadData_
0040b510       __NTThreadInit_
0040b580       __NTAddThread_
0040b5d0       __NTRemoveThread_
0040b660       __InitMultipleThread_
00413670+      ___AccessSema4
00413674+      ___ReleaseSema4
00413678+      ___CloseSema4
Module: /usr/src/openwatcom-1.9/rel2/lib386/nt/clib3r.lib(ddgrpwnt.c)
0040b910       __disallow_single_dgroup_
Module: /usr/src/openwatcom-1.9/rel2/lib386/nt/clib3r.lib(cinit.c)
0040b9e0       __CommonInit_
Module: /usr/src/openwatcom-1.9/rel2/lib386/nt/clib3r.lib(dosseg)
00001234       __DOSseg__
Module: /usr/src/openwatcom-1.9/rel2/lib386/nt/clib3r.lib(wctomb.c)
0040b9f0       wctomb_
Module: /usr/src/openwatcom-1.9/rel2/lib386/nt/clib3r.lib(strupr.c)
0040ba30       strupr_
Module: /usr/src/openwatcom-1.9/rel2/lib386/nt/clib3r.lib(noefgfmt.c)
0041367c       ___EFG_printf
00413680*      ___EFG_scanf
Module: /usr/src/openwatcom-1.9/rel2/lib386/nt/clib3r.lib(lltoa.c)
0040baa0       ulltoa_
0040bb10*      lltoa_
Module: /usr/src/openwatcom-1.9/rel2/lib386/nt/clib3r.lib(ltoa.c)
0040bb40       ultoa_
0040bb90*      ltoa_
Module: /usr/src/openwatcom-1.9/rel2/lib386/nt/clib3r.lib(initfile.c)
0040bbf0       __InitFiles_
Module: /usr/src/openwatcom-1.9/rel2/lib386/nt/clib3r.lib(ioexit.c)
0040bcf0*      fcloseall_
0040bd00       __full_io_exit_
Module: /usr/src/openwatcom-1.9/rel2/lib386/nt/clib3r.lib(hdlman.c)
00413684+      ___NHandles
00413688+      ___OSHandles
0041368c+      ___FakeHandles
0040bd10+      __growPOSIXHandles_
0040bdb0       __allocPOSIXHandle_
0040be70       __freePOSIXHandle_
0040be90       __getOSHandle_
0040bea0       __setOSHandle_
0040bef0+      __NTGetFakeHandle_
0040bf60       __initPOSIXHandles_
0040c040*      __set_handles_
0040c050*      _grow_handles_
Module: /usr/src/openwatcom-1.9/rel2/lib386/nt/clib3r.lib(crwdata)
004136dc       __osmajor
004136dd       __osminor
004136de       __osbuild
004136e0       __osver
004136e4       __winmajor
004136e8       __winminor
004136ec       __winver
004136a8       __LpDllName
004136ac       __LpwCmdLine
004136b0       __LpwPgmName
004136b4       __LpwDllName
004136a0       __LpCmdLine
004136a4       __LpPgmName
00413698*      __dynend
0041369c       __curbrk
004136b8*      __STACKLOW
004136bc       __STACKTOP
004136c0*      __ASTACKSIZ
004136c4*      __ASTACKPTR
004136c8       __cbyte
004136cc*      __cbyte2
004136d0*      __child
004136d6       __Envptr
004136da*      __Envseg
004136d4*      __no87
004136f0       ___FPE_handler
Module: /usr/src/openwatcom-1.9/rel2/lib386/nt/clib3r.lib(getmodfn.c)
0040c090       __lib_GetModuleFileNameW_
Module: /usr/src/openwatcom-1.9/rel2/lib386/nt/clib3r.lib(ustrdup.c)
0040c121       __clib_wcsdup_
Module: /usr/src/openwatcom-1.9/rel2/lib386/nt/clib3r.lib(excptwnt.c)
0040c7b0+      ___ReportException@4
0040cc00       __DefaultExceptionHandler_
0040cc40+      ___ExceptionFilter
0040ce50       __NewExceptionFilter_
0040ce80       __DoneExceptionFilter_
004136f4       ___oscode_check_func
004136f8       ___raise_func
00418670*      _sw
00418674+      ___ExceptionHandled
00418675+      ___ReportInvoked
Module: /usr/src/openwatcom-1.9/rel2/lib386/nt/clib3r.lib(stklmwnt.c)
0040cec0       __init_stack_limits_
Module: /usr/src/openwatcom-1.9/rel2/lib386/nt/clib3r.lib(getchwnt.c)
0040d030       getch_
Module: /usr/src/openwatcom-1.9/rel2/lib386/nt/clib3r.lib(putchwnt.c)
0040d0a0       putch_
Module: /usr/src/openwatcom-1.9/rel2/lib386/nt/clib3r.lib(iomode.c)
0040d0f0       __GetIOMode_
0040d110       __SetIOMode_nogrow_
00413714       ___NFiles
00413718       ___init_mode
00413768       ___io_mode
Module: /usr/src/openwatcom-1.9/rel2/lib386/nt/clib3r.lib(fsync.c)
0040d130       fsync_
Module: /usr/src/openwatcom-1.9/rel2/lib386/nt/clib3r.lib(qwrit.c)
0040d180       __qwrite_
Module: /usr/src/openwatcom-1.9/rel2/lib386/nt/clib3r.lib(amblksiz.c)
0041376c       __amblksiz
Module: /usr/src/openwatcom-1.9/rel2/lib386/nt/clib3r.lib(heapen.c)
0040d260*      _heapenable_
00413770       ___heap_enabled
Module: /usr/src/openwatcom-1.9/rel2/lib386/nt/clib3r.lib(nheapmin.c)
0040d290       _nheapshrink_
0040d290*      _nheapmin_
0040d290*      _heapmin_
0040d290       _heapshrink_
Module: /usr/src/openwatcom-1.9/rel2/lib386/nt/clib3r.lib(enterdb.c)
0040d380       __EnterWVIDEO_
00413774+      ___WD_Present
Module: /usr/src/openwatcom-1.9/rel2/lib386/nt/clib3r.lib(stiomode.c)
0040d3b0       __grow_iomode_
0040d480+      __shrink_iomode_
0040d4c0       __SetIOMode_
Module: /usr/src/openwatcom-1.9/rel2/lib386/nt/clib3r.lib(ntfio.c)
0040d530*      __GetNTCreateAttr_
0040d570       __GetNTAccessAttr_
0040d5a0       __GetNTShareAttr_
Module: /usr/src/openwatcom-1.9/rel2/lib386/nt/clib3r.lib(umaskval.c)
00413778       ___umaskval
Module: /usr/src/openwatcom-1.9/rel2/lib386/nt/clib3r.lib(isattwnt.c)
0040d600       isatty_
Module: /usr/src/openwatcom-1.9/rel2/lib386/nt/clib3r.lib(mbinit.c)
0040d656       __mbinit_
0041377c       ___MBCodePage
Module: /usr/src/openwatcom-1.9/rel2/lib386/nt/clib3r.lib(dofilstr.c)
0040d770       __ParsePosixHandleStr_
Module: /usr/src/openwatcom-1.9/rel2/lib386/nt/clib3r.lib(clearenv.c)
0040d890       clearenv_
Module: /usr/src/openwatcom-1.9/rel2/lib386/nt/clib3r.lib(lmn2wnt.c)
0040d920       _DllMain@12
Module: /usr/src/openwatcom-1.9/rel2/lib386/nt/clib3r.lib(calloc.c)
0040d930       calloc_
Module: /usr/src/openwatcom-1.9/rel2/lib386/nt/clib3r.lib(trdlist.c)
0040d9a0       __GetThreadData_
0040d9f0       __ReallocThreadData_
0040dae0       __AddThreadData_
0040db60       __RemoveThreadData_
0040dbc0*      __ResizeThreadDataList_
0040dbf0       __FreeThreadDataList_
0040dc20*      __ActiveThreads_
Module: /usr/src/openwatcom-1.9/rel2/lib386/nt/clib3r.lib(mthrdini.c)
0040dc40       __InitThreadData_
00413784       ___ThreadDataSize
Module: /usr/src/openwatcom-1.9/rel2/lib386/nt/clib3r.lib(trdalloc.c)
0040dc70       __FiniThreadProcessing_
Module: /usr/src/openwatcom-1.9/rel2/lib386/nt/clib3r.lib(ustrlen.c)
0040dc75       wcslen_
Module: /usr/src/openwatcom-1.9/rel2/lib386/nt/clib3r.lib(memcpy.c)
0040dc90       memcpy_
Module: /usr/src/openwatcom-1.9/rel2/lib386/nt/clib3r.lib(conutwnt.c)
0040dcc0       __NTRealKey_
0040dd70       __NTConsoleInput_
0040dd80       __NTConsoleOutput_
Module: /usr/src/openwatcom-1.9/rel2/lib386/nt/clib3r.lib(fclex387.c)
0040dd90       _ClearFPE_
Module: /usr/src/openwatcom-1.9/rel2/lib386/nt/clib3r.lib(signlwnt.c)
00413790+      __SignalTable
0040dda0+      __SetSignalFunc_
0040ddf0+      __GetSignalFunc_
0040de20+      __GetSignalOSCode_
0040de50+      __CheckSignalExCode_
0040df90+      __sigabort_
0040dfa0       __sigfpe_handler_
0040dff0*      signal_
0040e080+      raise_
0040e0f0+      __SigInit_
0040e140+      __SigFini_
0040e180+      __sig_init_
Module: /usr/src/openwatcom-1.9/rel2/lib386/nt/clib3r.lib(iomodtty.c)
0040e1a0       __ChkTTYIOMode_
0040e1e0*      __IOMode_
Module: /usr/src/openwatcom-1.9/rel2/lib386/nt/clib3r.lib(strtol.c)
0040e420*      strtoul_
0040e430       strtol_
Module: /usr/src/openwatcom-1.9/rel2/lib386/nt/clib3r.lib(putenv.c)
0040e440       putenv_
0040e6d0       __putenv_
Module: /usr/src/openwatcom-1.9/rel2/lib386/nt/clib3r.lib(register.c)
0040e850       __initthread_
0040e860*      _beginthread_
0040e870       _endthread_
0040e880*      __RegisterThreadData_
Module: /usr/src/openwatcom-1.9/rel2/lib386/nt/clib3r.lib(abort.c)
0040e8d9*      abort_
0040e8eb       __terminate_
00413894       ___abort
Module: /usr/src/openwatcom-1.9/rel2/lib386/nt/clib3r.lib(mbschr.c)
0040e900       _mbschr_
Module: /usr/src/openwatcom-1.9/rel2/lib386/nt/clib3r.lib(mbslen.c)
0040e960       _mbslen_
Module: /usr/src/openwatcom-1.9/rel2/lib386/nt/clib3r.lib(mbstowcs.c)
0040e990       mbstowcs_
Module: /usr/src/openwatcom-1.9/rel2/lib386/nt/clib3r.lib(uputenv.c)
0040ea10*      _wputenv_
0040ec30       __wputenv_
Module: /usr/src/openwatcom-1.9/rel2/lib386/nt/clib3r.lib(toupper.c)
0040ed30       toupper_
Module: /usr/src/openwatcom-1.9/rel2/lib386/nt/clib3r.lib(memmove.c)
0040ed40       memmove_
Module: /usr/src/openwatcom-1.9/rel2/lib386/nt/clib3r.lib(thredwnt.c)
0040ee50       __CBeginThread_
0040eef0       __CEndThread_
Module: /usr/src/openwatcom-1.9/rel2/lib386/nt/clib3r.lib(mbccmp.c)
0040ef30       _mbccmp_
Module: /usr/src/openwatcom-1.9/rel2/lib386/nt/clib3r.lib(mbtowc.c)
0040ef70       mbtowc_
Module: /usr/src/openwatcom-1.9/rel2/lib386/nt/clib3r.lib(ustrchr.c)
0040f000       wcschr_
Module: /usr/src/openwatcom-1.9/rel2/lib386/nt/clib3r.lib(setenvar.c)
0040f020       __lib_SetEnvironmentVariableW_
Module: /usr/src/openwatcom-1.9/rel2/lib386/nt/clib3r.lib(crtwenv.c)
0040f110       __create_wide_environment_
Module: /usr/src/openwatcom-1.9/rel2/lib386/nt/clib3r.lib(wcstombs.c)
0040f180       wcstombs_
Module: /usr/src/openwatcom-1.9/rel2/lib386/nt/clib3r.lib(utoupper.c)
0040f21f       towupper_


                        +----------------------+
                        |   Imported Symbols   |
                        +----------------------+

Symbol                              Module
======                              ======

_GetClassNameA@12                   USER32.DLL
_GetWindowTextA@12                  USER32.DLL
_WinExec@8                          KERNEL32.DLL
_DdeInitializeA@16                  USER32.DLL
_DdeDisconnect@4                    USER32.DLL
_DdeUninitialize@4                  USER32.DLL
_IsWindow@4                         USER32.DLL
_DdeCreateStringHandleA@12          USER32.DLL
_DdeFreeStringHandle@8              USER32.DLL
_DdeConnect@16                      USER32.DLL
_DdeGetLastError@4                  USER32.DLL
_DdeClientTransaction@32            USER32.DLL
_SetForegroundWindow@4              USER32.DLL
_EnumWindows@8                      USER32.DLL
_PostMessageA@16                    USER32.DLL
_RtlUnwind@16                       KERNEL32.DLL
_FindClose@4                        KERNEL32.DLL
_FindFirstFileA@8                   KERNEL32.DLL
_FindNextFileA@8                    KERNEL32.DLL
_GetLastError@0                     KERNEL32.DLL
_MoveFileA@8                        KERNEL32.DLL
_FileTimeToLocalFileTime@8          KERNEL32.DLL
_FileTimeToDosDateTime@12           KERNEL32.DLL
_DosDateTimeToFileTime@12           KERNEL32.DLL
_LocalFileTimeToFileTime@8          KERNEL32.DLL
_DeleteFileA@4                      KERNEL32.DLL
_CharUpperA@4                       USER32.DLL
_GetEnvironmentStringsA@0           KERNEL32.DLL
_GetVersion@0                       KERNEL32.DLL
_GetModuleFileNameA@12              KERNEL32.DLL
_GetCommandLineA@0                  KERNEL32.DLL
_GetCommandLineW@0                  KERNEL32.DLL
_FreeEnvironmentStringsA@4          KERNEL32.DLL
_GetModuleHandleA@4                 KERNEL32.DLL
_ExitProcess@4                      KERNEL32.DLL
_ReadFile@20                        KERNEL32.DLL
_SetFilePointer@16                  KERNEL32.DLL
_CloseHandle@4                      KERNEL32.DLL
_VirtualAlloc@16                    KERNEL32.DLL
_GetStdHandle@4                     KERNEL32.DLL
_WriteFile@20                       KERNEL32.DLL
_GetFileAttributesA@4               KERNEL32.DLL
_CreateFileA@28                     KERNEL32.DLL
_InitializeCriticalSection@4        KERNEL32.DLL
_DeleteCriticalSection@4            KERNEL32.DLL
_LeaveCriticalSection@4             KERNEL32.DLL
_GetCurrentThreadId@0               KERNEL32.DLL
_EnterCriticalSection@4             KERNEL32.DLL
_TlsGetValue@4                      KERNEL32.DLL
_SetLastError@4                     KERNEL32.DLL
_TlsAlloc@0                         KERNEL32.DLL
_TlsFree@4                          KERNEL32.DLL
_TlsSetValue@8                      KERNEL32.DLL
_MessageBoxA@16                     USER32.DLL
_WideCharToMultiByte@32             KERNEL32.DLL
_SetStdHandle@8                     KERNEL32.DLL
_CreateEventA@16                    KERNEL32.DLL
_GetModuleFileNameW@12              KERNEL32.DLL
_MultiByteToWideChar@24             KERNEL32.DLL
_LoadLibraryA@4                     KERNEL32.DLL
_GetProcAddress@8                   KERNEL32.DLL
_SetUnhandledExceptionFilter@4      KERNEL32.DLL
_UnhandledExceptionFilter@4         KERNEL32.DLL
_VirtualQuery@12                    KERNEL32.DLL
_ReadConsoleInputA@16               KERNEL32.DLL
_GetConsoleMode@8                   KERNEL32.DLL
_SetConsoleMode@8                   KERNEL32.DLL
_WriteConsoleA@20                   KERNEL32.DLL
_FlushFileBuffers@4                 KERNEL32.DLL
_VirtualFree@12                     KERNEL32.DLL
_GetFileType@4                      KERNEL32.DLL
_GetACP@0                           KERNEL32.DLL
_GetOEMCP@0                         KERNEL32.DLL
_GetCPInfo@8                        KERNEL32.DLL
_SetConsoleCtrlHandler@8            KERNEL32.DLL
_SetEnvironmentVariableA@8          KERNEL32.DLL
_CreateThread@24                    KERNEL32.DLL
_ResumeThread@4                     KERNEL32.DLL
_ExitThread@4                       KERNEL32.DLL
_SetEnvironmentVariableW@8          KERNEL32.DLL


                        +--------------------+
                        |   Libraries Used   |
                        +--------------------+

/usr/src/openwatcom-1.9/rel2/lib386/nt/kernel32.lib
/usr/src/openwatcom-1.9/rel2/lib386/nt/user32.lib
/usr/src/openwatcom-1.9/rel2/lib386/nt/clib3r.lib


                        +-----------------------+
                        |   Linker Statistics   |
                        +-----------------------+

Stack size:  0000 (0.)
Memory size:  00016328 (90920.)
Entry point address: 004072ba
Link time: 00:00.00
