Open Watcom Linker Version 1.9
Portions Copyright (c) 1985-2002 Sybase, Inc. All Rights Reserved.
Created on:       12/12/16 02:42:03
Executable Image: wv.exe
creating a Windows 16-bit executable


                        +------------+
                        |   Groups   |
                        +------------+

Group                           Address              Size
=====                           =======              ====

DGROUP                          000a:0000            0000d210



                        +--------------+
                        |   Segments   |
                        +--------------+

Segment                Class          Group          Address         Size
=======                =====          =====          =======         ====

autoenv_TEXT           CODE           AUTO           0001:0000       000002ee
wininit_TEXT           CODE           AUTO           0001:02f0       00000143
winchk_TEXT            CODE           AUTO           0001:0440       00000003
wincmd_TEXT            CODE           AUTO           0001:0450       000000e5
winfilio_TEXT          CODE           AUTO           0001:0540       0000019b
winlkup_TEXT           CODE           AUTO           0001:06e0       000000b1
winscrn_TEXT           CODE           AUTO           0001:07a0       0000030a
fingmsg_TEXT           CODE           AUTO           0001:0ab0       000002b1
dipman_TEXT            CODE           AUTO           0001:0d70       000030f4
dipld_TEXT             CODE           AUTO           0001:3e70       000001bf
madman_TEXT            CODE           AUTO           0001:4030       00002ff0
madld_TEXT             CODE           AUTO           0001:7020       000001bf
i64_TEXT               CODE           AUTO           0001:71e0       00000a83
trpsupp_TEXT           CODE           AUTO           0001:7c70       00000429
trpld_TEXT             CODE           AUTO           0001:80a0       000003b4
dumb_TEXT              CODE           AUTO           0001:8460       0000028f
spawn_TEXT             CODE           AUTO           0001:86f0       00000146
dbgchain_TEXT          CODE           AUTO           0001:8840       000008d2
dbgvar_TEXT            CODE           AUTO           0001:9120       00004cb9
dbgvset_TEXT           CODE           AUTO           0001:dde0       00000967
dbgass_TEXT            CODE           AUTO           0001:e750       000000e8
dbgimg_TEXT            CODE           AUTO           0001:e840       000000fa
dbglist_TEXT           CODE           AUTO           0001:e940       00000023
dbgpend_TEXT           CODE           AUTO           0001:e970       00000153
ambigsym_TEXT          CODE           AUTO           0001:ead0       00000321
addarith_TEXT          CODE           AUTO           0001:ee00       00000315
dbgbrk_TEXT            CODE           AUTO           0002:0000       0000331f
dbgcall_TEXT           CODE           AUTO           0002:3320       00000672
dbgcall2_TEXT          CODE           AUTO           0002:39a0       000002f7
dbgcmd_TEXT            CODE           AUTO           0002:3ca0       0000008c
dbgcmdln_TEXT          CODE           AUTO           0002:3d30       000008f9
dbgdot_TEXT            CODE           AUTO           0002:4630       0000013f
dbgexec_TEXT           CODE           AUTO           0002:4770       00000d2b
dbgexpr_TEXT           CODE           AUTO           0002:54a0       00001448
dbgexpr2_TEXT          CODE           AUTO           0002:68f0       00000cf7
dbgexpr3_TEXT          CODE           AUTO           0002:75f0       00001436
dbgexpr4_TEXT          CODE           AUTO           0002:8a30       00002855
dbgfile_TEXT           CODE           AUTO           0002:b290       00000d98
dbghook_TEXT           CODE           AUTO           0002:c030       000002a0
dbginvk_TEXT           CODE           AUTO           0002:c2d0       000007f0
dbglkup_TEXT           CODE           AUTO           0002:cac0       00000c6f
dbgloc_TEXT            CODE           AUTO           0002:d730       00000a0b
dbglog_TEXT            CODE           AUTO           0002:e140       00000219
dbgmain_TEXT           CODE           AUTO           0002:e360       00000824
dbgmem_TEXT            CODE           AUTO           0002:eb90       0000045b
memtypes_TEXT          CODE           AUTO           0002:eff0       00000358
dbgmisc_TEXT           CODE           AUTO           0003:0000       00000f5f
dbgovl_TEXT            CODE           AUTO           0003:0f60       00000435
dbgparse_TEXT          CODE           AUTO           0003:13a0       0000049e
dbgprint_TEXT          CODE           AUTO           0003:1840       000014c2
dbgreg_TEXT            CODE           AUTO           0003:2d10       000019ba
dbgscan_TEXT           CODE           AUTO           0003:46d0       000012fb
dbgshow_TEXT           CODE           AUTO           0003:59d0       00000458
dbgsrc_TEXT            CODE           AUTO           0003:5e30       0000055c
dbgstdio_TEXT          CODE           AUTO           0003:6390       000000d2
dbgsys_TEXT            CODE           AUTO           0003:6470       00000110
dbgutil_TEXT           CODE           AUTO           0003:6580       00000d17
dbg_dbg_TEXT           CODE           AUTO           0003:72a0       00000b82
dbgprog_TEXT           CODE           AUTO           0003:7e30       00002de3
strutil_TEXT           CODE           AUTO           0003:ac20       000004b5
stub_TEXT              CODE           AUTO           0003:b0e0       0000000f
dbgwalk_TEXT           CODE           AUTO           0003:b0f0       000002dd
dynmem_TEXT            CODE           AUTO           0003:b3d0       000002cb
dbgsem_TEXT            CODE           AUTO           0003:b6a0       00001e73
dbgtrace_TEXT          CODE           AUTO           0003:d520       00000f4f
dbgexins_TEXT          CODE           AUTO           0003:e470       0000007f
dbgexdat_TEXT          CODE           AUTO           0003:e4f0       00000198
dbgmodfy_TEXT          CODE           AUTO           0003:e690       000001ba
dbgtback_TEXT          CODE           AUTO           0003:e850       000002ce
dbgerr_TEXT            CODE           AUTO           0003:eb20       000002d6
namelist_TEXT          CODE           AUTO           0003:ee00       0000078f
modlist_TEXT           CODE           AUTO           0003:f590       0000054d
sortlist_TEXT          CODE           AUTO           0003:fae0       0000037c
remmisc_TEXT           CODE           AUTO           0004:0000       000002de
remcore_TEXT           CODE           AUTO           0004:02e0       00000fb1
remfinfo_TEXT          CODE           AUTO           0004:12a0       0000017b
remenv_TEXT            CODE           AUTO           0004:1420       000001b8
remfile_TEXT           CODE           AUTO           0004:15e0       0000082c
remthrd_TEXT           CODE           AUTO           0004:1e10       0000025b
removl_TEXT            CODE           AUTO           0004:2070       000003a0
ldsupp_TEXT            CODE           AUTO           0004:2410       0000022e
doserr_TEXT            CODE           AUTO           0004:2640       0000004a
diginter_TEXT          CODE           AUTO           0004:2690       00000102
dipinter_TEXT          CODE           AUTO           0004:27a0       00000f7d
madinter_TEXT          CODE           AUTO           0004:3720       00000798
dbglit_TEXT            CODE           AUTO           0004:3ec0       00000023
dbginsty_TEXT          CODE           AUTO           0004:3ef0       0000037c
dbgdata_TEXT           CODE           AUTO           0004:4270       00000000
dbgevent_TEXT          CODE           AUTO           0004:4270       000006b7
dbgdll_TEXT            CODE           AUTO           0004:4930       00000243
dlgscan_TEXT           CODE           AUTO           0004:4b80       0000022a
dbgset_TEXT            CODE           AUTO           0004:4db0       000013dc
srcmgt_TEXT            CODE           AUTO           0004:6190       0000074a
dbgupdt_TEXT           CODE           AUTO           0004:68e0       00000121
symcomp_TEXT           CODE           AUTO           0004:6a10       00000273
litengin_TEXT          CODE           AUTO           0004:6c90       00001a1f
litwd_TEXT             CODE           AUTO           0004:86b0       00000dc9
dui_TEXT               CODE           AUTO           0004:9480       00000481
dbgwset_TEXT           CODE           AUTO           0004:9910       00000b86
dbginsp_TEXT           CODE           AUTO           0004:a4a0       00000915
dbgicon_TEXT           CODE           AUTO           0004:adc0       00000064
dbgdisp_TEXT           CODE           AUTO           0004:ae30       00000cc9
dbgpaint_TEXT          CODE           AUTO           0004:bb00       00000783
dbgcap_TEXT            CODE           AUTO           0004:c290       00000136
wndalloc_TEXT          CODE           AUTO           0004:c3d0       00000056
dlgambig_TEXT          CODE           AUTO           0004:c430       0000005c
dlgscomp_TEXT          CODE           AUTO           0004:c490       00000246
modcomp_TEXT           CODE           AUTO           0004:c6e0       0000017f
wndsys_TEXT            CODE           AUTO           0004:c860       0000097f
wnddump_TEXT           CODE           AUTO           0004:d1e0       00000357
dbgintrn_TEXT          CODE           AUTO           0004:d540       00000000
dlgabout_TEXT          CODE           AUTO           0004:d540       00000098
dlgstk_TEXT            CODE           AUTO           0004:d5e0       00000143
dlgayn_TEXT            CODE           AUTO           0004:d730       000000d2
dlgsrc_TEXT            CODE           AUTO           0004:d810       00000041
dlgdll_TEXT            CODE           AUTO           0004:d860       00000041
dlglist_TEXT           CODE           AUTO           0004:d8b0       000003e5
dlgfile_TEXT           CODE           AUTO           0004:dca0       00000719
dlgnewp_TEXT           CODE           AUTO           0004:e3c0       00000200
dlgexpr_TEXT           CODE           AUTO           0004:e5c0       00000404
dlgbreak_TEXT          CODE           AUTO           0004:e9d0       00000b23
dlgvarx_TEXT           CODE           AUTO           0004:f500       000001ff
dlgcmd_TEXT            CODE           AUTO           0004:f700       00000196
dlgnewws_TEXT          CODE           AUTO           0004:f8a0       00000112
wndhelp_TEXT           CODE           AUTO           0004:f9c0       00000245
wndmenu_TEXT           CODE           AUTO           0005:0000       000012ea
dbgwfpu_TEXT           CODE           AUTO           0005:12f0       00000060
dbgwmac_TEXT           CODE           AUTO           0005:1350       00000fdf
dbgwglob_TEXT          CODE           AUTO           0005:2330       00000389
dbgwfunc_TEXT          CODE           AUTO           0005:26c0       0000079e
dbgwcall_TEXT          CODE           AUTO           0005:2e60       00000549
dbgwmod_TEXT           CODE           AUTO           0005:33b0       0000088b
dbgwsrch_TEXT          CODE           AUTO           0005:3c40       00000a4c
dbgwdlg_TEXT           CODE           AUTO           0005:4690       000003fe
dbgwfil_TEXT           CODE           AUTO           0005:4a90       00001de8
dbgwass_TEXT           CODE           AUTO           0005:6880       00002737
dbgwimg_TEXT           CODE           AUTO           0005:8fc0       000004cf
dbgwbrk_TEXT           CODE           AUTO           0005:9490       00000617
dbgwio_TEXT            CODE           AUTO           0005:9ab0       00000972
dbgwrep_TEXT           CODE           AUTO           0005:a430       0000044d
dbgwmem_TEXT           CODE           AUTO           0005:a880       00002263
dbgwregs_TEXT          CODE           AUTO           0005:caf0       00000035
dbgwmmx_TEXT           CODE           AUTO           0005:cb30       00000060
dbgwxmm_TEXT           CODE           AUTO           0005:cb90       00000060
dbgwmadr_TEXT          CODE           AUTO           0005:cbf0       00000e89
dbgwtogl_TEXT          CODE           AUTO           0005:da80       0000018f
dbgwvar_TEXT           CODE           AUTO           0005:dc10       00001c1e
dbgwthrd_TEXT          CODE           AUTO           0005:f830       00000369
dlgwind_TEXT           CODE           AUTO           0006:0000       000004b4
dbgwdata_TEXT          CODE           AUTO           0006:04c0       00000000
dlgoptn_TEXT           CODE           AUTO           0006:04c0       000003d8
dbgtool_TEXT           CODE           AUTO           0006:08a0       000000a6
dbgfing_TEXT           CODE           AUTO           0006:0950       0000031c
helpio_TEXT            CODE           AUTO           0006:0c70       000000e4
guimain_TEXT           CODE           AUTO           0006:0d60       00000d69
guigsysh_TEXT          CODE           AUTO           0006:1ad0       00000003
uikeyb_TEXT            CODE           AUTO           0006:1ad3       0000042d
uibios_TEXT            CODE           AUTO           0006:1f00       000000e2
swap_TEXT              CODE           AUTO           0006:1ff0       00000588
wndutil_TEXT           CODE           AUTO           0006:2580       000003d4
guigmous_TEXT          CODE           AUTO           0006:2960       000000c4
uiinit_TEXT            CODE           AUTO           0006:2a24       000000a2
uidata_TEXT            CODE           AUTO           0006:2ac6       00000000
uirfrsh_TEXT           CODE           AUTO           0006:2ac6       0000019b
wndmem_TEXT            CODE           AUTO           0006:2c70       00000055
_TEXT                  CODE           AUTO           0006:2cd0       0000a9f9
wndstat_TEXT           CODE           AUTO           0006:d6d0       000001cf
wndhist_TEXT           CODE           AUTO           0006:d8a0       00000387
wndcreat_TEXT          CODE           AUTO           0006:dc30       00000621
wnddirt_TEXT           CODE           AUTO           0006:e260       000007e6
wndshrnk_TEXT          CODE           AUTO           0006:ea50       00000363
guiisgui_TEXT          CODE           AUTO           0006:edc0       00000003
guismetr_TEXT          CODE           AUTO           0006:edd0       000000c5
wndmsg_TEXT            CODE           AUTO           0006:eea0       00000045
wndldstr_TEXT          CODE           AUTO           0006:eef0       00000075
guiclen_TEXT           CODE           AUTO           0006:ef70       00000018
wndfront_TEXT          CODE           AUTO           0006:ef90       0000011f
dlgsrch_TEXT           CODE           AUTO           0006:f0b0       00000674
wndcurr_TEXT           CODE           AUTO           0006:f730       000008a3
wndpaint_TEXT          CODE           AUTO           0007:0000       0000071c
wndcrsr_TEXT           CODE           AUTO           0007:0720       00000652
wndfont_TEXT           CODE           AUTO           0007:0d80       00000088
guimem_TEXT            CODE           AUTO           0007:0e10       0000002d
wndrect_TEXT           CODE           AUTO           0007:0e40       00000219
guistub_TEXT           CODE           AUTO           0007:1060       0000001d
guimin_TEXT            CODE           AUTO           0007:1080       0000002d
wndtool_TEXT           CODE           AUTO           0007:10b0       00000190
guicolor_TEXT          CODE           AUTO           0007:1240       000007e4
wndcolor_TEXT          CODE           AUTO           0007:1a30       000000cb
dlgpick_TEXT           CODE           AUTO           0007:1b00       000000dd
guipick_TEXT           CODE           AUTO           0007:1be0       0000015b
wnddlg_TEXT            CODE           AUTO           0007:1d40       00000184
guindlg_TEXT           CODE           AUTO           0007:1ed0       00000497
guifocus_TEXT          CODE           AUTO           0007:2370       00000050
guixedit_TEXT          CODE           AUTO           0007:23c0       000002a3
wndsrch_TEXT           CODE           AUTO           0007:2670       00000751
wndpop_TEXT            CODE           AUTO           0007:2dd0       0000103e
guispawn_TEXT          CODE           AUTO           0007:3e10       00000036
wndgadgt_TEXT          CODE           AUTO           0007:3e50       00000095
guihot_TEXT            CODE           AUTO           0007:3ef0       00000102
guiflush_TEXT          CODE           AUTO           0007:4000       0000000c
wndmeth_TEXT           CODE           AUTO           0007:4010       000006ab
guiextra_TEXT          CODE           AUTO           0007:46c0       0000001f
guixdlg_TEXT           CODE           AUTO           0007:46e0       000016fd
guixaddt_TEXT          CODE           AUTO           0007:5de0       0000039e
guigtext_TEXT          CODE           AUTO           0007:6180       00000131
guistext_TEXT          CODE           AUTO           0007:62c0       000000e3
wndfdlg_TEXT           CODE           AUTO           0007:63b0       00000166
guicontr_TEXT          CODE           AUTO           0007:6520       0000076c
dlgnew_TEXT            CODE           AUTO           0007:6c90       000001a9
guicheck_TEXT          CODE           AUTO           0007:6e40       0000010e
guihelp_TEXT           CODE           AUTO           0007:6f50       000000df
wndsel_TEXT            CODE           AUTO           0007:7030       000005ac
wndscrol_TEXT          CODE           AUTO           0007:75e0       000004fc
wndchar_TEXT           CODE           AUTO           0007:7ae0       00000085
guiwnclr_TEXT          CODE           AUTO           0007:7b70       000000bb
guidbclk_TEXT          CODE           AUTO           0007:7c30       00000016
guirscal_TEXT          CODE           AUTO           0007:7c50       00000065
guiscale_TEXT          CODE           AUTO           0007:7cc0       00000266
wndstyle_TEXT          CODE           AUTO           0007:7f30       00000000
guixinit_TEXT          CODE           AUTO           0007:7f30       00000138
guiimmdi_TEXT          CODE           AUTO           0007:8070       0000005b
guimenu_TEXT           CODE           AUTO           0007:80d0       000015f6
wndimain_TEXT          CODE           AUTO           0007:96d0       0000000c
wndmnsz_TEXT           CODE           AUTO           0007:96e0       00000021
wndbgch_TEXT           CODE           AUTO           0007:9710       00000000
guixdraw_TEXT          CODE           AUTO           0007:9710       00000d03
guixsys_TEXT           CODE           AUTO           0007:a420       0000059d
guixwind_TEXT          CODE           AUTO           0007:a9c0       00000421
guigetnr_TEXT          CODE           AUTO           0007:adf0       0000000d
guitextm_TEXT          CODE           AUTO           0007:ae00       00000096
guicrect_TEXT          CODE           AUTO           0007:aea0       00000069
guirange_TEXT          CODE           AUTO           0007:af10       000001c0
wndchoos_TEXT          CODE           AUTO           0007:b0d0       00000554
wndmouse_TEXT          CODE           AUTO           0007:b630       00000568
guistat_TEXT           CODE           AUTO           0007:bba0       0000046d
wndqryhk_TEXT          CODE           AUTO           0007:c010       00000003
wndendhk_TEXT          CODE           AUTO           0007:c020       00000001
uimous_TEXT            CODE           AUTO           0007:c021       000002a2
uicurs_TEXT            CODE           AUTO           0007:c2c3       000000fa
guixtent_TEXT          CODE           AUTO           0007:c3c0       000000af
guidirty_TEXT          CODE           AUTO           0007:c470       0000009a
guizlist_TEXT          CODE           AUTO           0007:c510       0000017c
uimousev_TEXT          CODE           AUTO           0007:c68c       000004aa
uialloc_TEXT           CODE           AUTO           0007:cb36       00000038
uigchar_TEXT           CODE           AUTO           0007:cb6e       00000091
uiattr_TEXT            CODE           AUTO           0007:cbff       00000123
uiback_TEXT            CODE           AUTO           0007:cd22       0000026e
uiforce_TEXT           CODE           AUTO           0007:cf90       000000c8
uiarea_TEXT            CODE           AUTO           0007:d058       000001bd
wndfref_TEXT           CODE           AUTO           0007:d220       0000001b
guicreat_TEXT          CODE           AUTO           0007:d240       00000081
guisicon_TEXT          CODE           AUTO           0007:d2d0       0000008c
guidrect_TEXT          CODE           AUTO           0007:d360       00000172
guidrow_TEXT           CODE           AUTO           0007:d4e0       0000006c
guiscrol_TEXT          CODE           AUTO           0007:d550       000002f4
guidraw_TEXT           CODE           AUTO           0007:d850       00000220
guidoscr_TEXT          CODE           AUTO           0007:da70       000001f3
guipixel_TEXT          CODE           AUTO           0007:dc70       0000002a
guirect_TEXT           CODE           AUTO           0007:dca0       00000085
guimouse_TEXT          CODE           AUTO           0007:dd30       0000006b
guisize_TEXT           CODE           AUTO           0007:dda0       000012e4
guixdisp_TEXT          CODE           AUTO           0007:f090       00000802
guildstr_TEXT          CODE           AUTO           0007:f8a0       0000022b
uichlen_TEXT           CODE           AUTO           0007:facb       0000002a
guifront_TEXT          CODE           AUTO           0007:fb00       00000147
guistrin_TEXT          CODE           AUTO           0007:fc50       00000062
guixbar_TEXT           CODE           AUTO           0007:fcc0       000000f4
guidrawr_TEXT          CODE           AUTO           0008:0000       00000549
guixhot_TEXT           CODE           AUTO           0008:0550       00000153
guitool_TEXT           CODE           AUTO           0008:06b0       00000b23
guihtool_TEXT          CODE           AUTO           0008:11e0       00000181
uimenu_TEXT            CODE           AUTO           0008:1361       00001697
guiwhole_TEXT          CODE           AUTO           0008:2a00       00000045
uigadget_TEXT          CODE           AUTO           0008:2a45       000006d7
guisdef_TEXT           CODE           AUTO           0008:3120       00000000
guidlg_TEXT            CODE           AUTO           0008:3120       000000bd
uidialog_TEXT          CODE           AUTO           0008:31dd       000022b3
guiutil_TEXT           CODE           AUTO           0008:5490       00000212
guihotsp_TEXT          CODE           AUTO           0008:56b0       00000166
rxwrap_TEXT            CODE           AUTO           0008:5820       0000133b
guihflt_TEXT           CODE           AUTO           0008:6b60       00000083
uispawn_TEXT           CODE           AUTO           0008:6be3       0000002d
uiblank_TEXT           CODE           AUTO           0008:6c10       000000d2
uidirty_TEXT           CODE           AUTO           0008:6ce2       00000128
guihook_TEXT           CODE           AUTO           0008:6e10       000001f4
uiget_TEXT             CODE           AUTO           0008:7004       000000dd
uilist_TEXT            CODE           AUTO           0008:70e1       00000183
guilistb_TEXT          CODE           AUTO           0008:7270       00000853
guixutil_TEXT          CODE           AUTO           0008:7ad0       00000832
guimkey_TEXT           CODE           AUTO           0008:8310       0000032e
guirdlg_TEXT           CODE           AUTO           0008:8640       000010fd
uiyield_TEXT           CODE           AUTO           0008:973d       00000001
guixloop_TEXT          CODE           AUTO           0008:9740       00000f8a
guifdlg_TEXT           CODE           AUTO           0008:a6d0       000018df
guixscal_TEXT          CODE           AUTO           0008:bfb0       000001d4
helpopen_TEXT          CODE           AUTO           0008:c190       0000052d
help_TEXT              CODE           AUTO           0008:c6c0       000025be
guithumb_TEXT          CODE           AUTO           0008:ec80       00000154
guigscrl_TEXT          CODE           AUTO           0008:ede0       000000d7
guiximdi_TEXT          CODE           AUTO           0008:eec0       0000009d
guimdi_TEXT            CODE           AUTO           0008:ef60       00000b23
guifloat_TEXT          CODE           AUTO           0009:0000       00000611
guihint_TEXT           CODE           AUTO           0009:0620       0000082a
guisysme_TEXT          CODE           AUTO           0009:0e50       00000285
guirmenu_TEXT          CODE           AUTO           0009:10e0       00000961
uivstr_TEXT            CODE           AUTO           0009:1a41       000001af
guigadgt_TEXT          CODE           AUTO           0009:1bf0       000005c4
uivfill_TEXT           CODE           AUTO           0009:21b4       0000008b
guiicon_TEXT           CODE           AUTO           0009:2240       0000010c
uimget_TEXT            CODE           AUTO           0009:234c       0000002e
guiuiev_TEXT           CODE           AUTO           0009:2380       00000001
guiev_TEXT             CODE           AUTO           0009:2390       00000001
guistr_TEXT            CODE           AUTO           0009:23a0       00000743
guideath_TEXT          CODE           AUTO           0009:2af0       00000004
guiextnm_TEXT          CODE           AUTO           0009:2b00       0000006e
guidead_TEXT           CODE           AUTO           0009:2b70       00000004
guixmain_TEXT          CODE           AUTO           0009:2b80       00000019
guifcrck_TEXT          CODE           AUTO           0009:2ba0       00000003
uivopen_TEXT           CODE           AUTO           0009:2ba3       0000050f
uivhide_TEXT           CODE           AUTO           0009:30b2       0000005c
uibmous_TEXT           CODE           AUTO           0009:310e       000000cd
uivscrn_TEXT           CODE           AUTO           0009:31db       0000010b
uibfill_TEXT           CODE           AUTO           0009:32e6       00000048
uibcopy_TEXT           CODE           AUTO           0009:332e       0000006d
uiwin_TEXT             CODE           AUTO           0009:339b       00000323
uiballoc_TEXT          CODE           AUTO           0009:36be       0000007d
guisetup_TEXT          CODE           AUTO           0009:3740       00000087
guidrawt_TEXT          CODE           AUTO           0009:37d0       0000039b
uivmove_TEXT           CODE           AUTO           0009:3b6b       0000016e
loadfind_TEXT          CODE           AUTO           0009:3ce0       00000125
loadstr_TEXT           CODE           AUTO           0009:3e10       00000313
loadres_TEXT           CODE           AUTO           0009:4130       0000019d
uibox_TEXT             CODE           AUTO           0009:42cd       0000034b
uibstr_TEXT            CODE           AUTO           0009:4618       0000008c
uipopup_TEXT           CODE           AUTO           0009:46a4       00000c88
uivutil_TEXT           CODE           AUTO           0009:532c       0000004f
uimenucr_TEXT          CODE           AUTO           0009:5380       0000000c
uipget_TEXT            CODE           AUTO           0009:538c       0000005d
uiprot_TEXT            CODE           AUTO           0009:53e9       00000069
uiledit_TEXT           CODE           AUTO           0009:5452       00000591
uimisc_TEXT            CODE           AUTO           0009:59e3       00000255
uilstbox_TEXT          CODE           AUTO           0009:5c38       00000b52
uihotspt_TEXT          CODE           AUTO           0009:678a       000006ee
uidchfld_TEXT          CODE           AUTO           0009:6e80       0000000c
uidevent_TEXT          CODE           AUTO           0009:6e8c       0000000c
dialcb_TEXT            CODE           AUTO           0009:6ea0       0000000e
guimapky_TEXT          CODE           AUTO           0009:6eb0       00000390
guismove_TEXT          CODE           AUTO           0009:7240       00000461
guikey_TEXT            CODE           AUTO           0009:76b0       000000ca
guixhook_TEXT          CODE           AUTO           0009:7780       0000002e
helpmem_TEXT           CODE           AUTO           0009:77b0       00000024
search_TEXT            CODE           AUTO           0009:77e0       0000084d
uivattr_TEXT           CODE           AUTO           0009:802d       000000c4
uitab_TEXT             CODE           AUTO           0009:80f1       00000536
dlg_TEXT               CODE           AUTO           0009:8630       0000047c
helpscan_TEXT          CODE           AUTO           0009:8ab0       00000455
vvscroll_TEXT          CODE           AUTO           0009:8f10       000000ec
msgbox_TEXT            CODE           AUTO           0009:9000       00000069
guienum_TEXT           CODE           AUTO           0009:9070       0000006e
resmenu_TEXT           CODE           AUTO           0009:90e0       0000070c
uicheck_TEXT           CODE           AUTO           0009:97ec       000000cb
uibfake_TEXT           CODE           AUTO           0009:98b7       00000052
uisnow_TEXT            CODE           AUTO           0009:9909       00000054
uifar_TEXT             CODE           AUTO           0009:995d       0000022c
uimem_TEXT             CODE           AUTO           0009:9b89       00000018
wriidfn_TEXT           CODE           AUTO           0009:9bb0       00000009
wrfindrs_TEXT          CODE           AUTO           0009:9bc0       000001bf
wrgetli_TEXT           CODE           AUTO           0009:9d80       0000004e
ropenfro_TEXT          CODE           AUTO           0009:9dd0       0000002d
wrinitdi_TEXT          CODE           AUTO           0009:9e00       00000054
wrreaddi_TEXT          CODE           AUTO           0009:9e60       00000905
wrfreedi_TEXT          CODE           AUTO           0009:a770       00000169
rclosef_TEXT           CODE           AUTO           0009:a8e0       0000001d
uibpix_TEXT            CODE           AUTO           0009:a8fd       0000004f
uivline_TEXT           CODE           AUTO           0009:a94c       0000046d
uiband_TEXT            CODE           AUTO           0009:adb9       000000e4
uibattr_TEXT           CODE           AUTO           0009:ae9d       000000c8
wrerror_TEXT           CODE           AUTO           0009:af70       00000001
write_TEXT             CODE           AUTO           0009:af80       000006f1
resseek_TEXT           CODE           AUTO           0009:b680       000000b1
rduint32_TEXT          CODE           AUTO           0009:b740       00000044
rduint16_TEXT          CODE           AUTO           0009:b790       00000044
rrdstr_TEXT            CODE           AUTO           0009:b7e0       0000011c
uibarf_TEXT            CODE           AUTO           0009:b8fc       00000001
wridcmp_TEXT           CODE           AUTO           0009:b900       0000003e
ralliae_TEXT           CODE           AUTO           0009:b940       00000085
wrrfrr_TEXT            CODE           AUTO           0009:b9d0       000000e5
wridexby_TEXT          CODE           AUTO           0009:bac0       00000015
wrrewrid_TEXT          CODE           AUTO           0009:bae0       00000051
wrrftr_TEXT            CODE           AUTO           0009:bb40       000000a5
wrrhr_TEXT             CODE           AUTO           0009:bbf0       000000c3
mrrdrh_TEXT            CODE           AUTO           0009:bcc0       000002d1
wrfree_TEXT            CODE           AUTO           0009:bfa0       0000004e
wridfnoo_TEXT          CODE           AUTO           0009:bff0       0000001d
wraddres_TEXT          CODE           AUTO           0009:c010       000003de
wriswrf_TEXT           CODE           AUTO           0009:c3f0       000000c5
uipad_TEXT             CODE           AUTO           0009:c4b5       00000022
uivedit_TEXT           CODE           AUTO           0009:c4d7       0000054f
varstr_TEXT            CODE           AUTO           0009:ca30       00000185
rduint8_TEXT           CODE           AUTO           0009:cbc0       00000044
wridnacm_TEXT          CODE           AUTO           0009:cc10       000000cc
rrnamoor_TEXT          CODE           AUTO           0009:cce0       00000205
wridfrnu_TEXT          CODE           AUTO           0009:cef0       00000070
wridfrst_TEXT          CODE           AUTO           0009:cf60       00000070
wrfirres_TEXT          CODE           AUTO           0009:cfd0       000000b9
FAR_DATA               FAR_DATA       AUTO           000a:0000       00000000
_NULL                  BEGDATA        DGROUP         000a:0000       00000010
AFX_NULL               BEGDATA        DGROUP         000a:0010       00000000
CONST                  DATA           DGROUP         000a:0010       0000020c
CONST2                 DATA           DGROUP         000a:021c       0000013a
_DATA                  DATA           DGROUP         000a:0360       00004b20
XIB                    DATA           DGROUP         000a:4e80       00000000
XI                     DATA           DGROUP         000a:4e80       00000036
XIE                    DATA           DGROUP         000a:4eb6       00000000
YIB                    DATA           DGROUP         000a:4eb6       00000000
YI                     DATA           DGROUP         000a:4eb6       0000001e
YIE                    DATA           DGROUP         000a:4ed4       00000000
STRINGS                DATA           DGROUP         000a:4ed4       00000000
DATA                   DATA           DGROUP         000a:4ed4       00000000
BCSD                   DATA           DGROUP         000a:4ed4       00000000
_BSS                   BSS            DGROUP         000a:4ee0       00004730
STACK                  STACK          DGROUP         000a:9610       00003c00


                        +----------------+
                        |   Memory Map   |
                        +----------------+

* = unreferenced symbol
+ = symbol only referenced locally

Address        Symbol
=======        ======

Module: autoenv.obj(/mnt/sda5/.user/root/src/openwatcom-1.9/bld/watcom/c/autoenv.c)
0001:0156      watcom_setup_env_
Module: wininit.obj(/mnt/sda5/.user/root/src/openwatcom-1.9/bld/wv/win/c/wininit.c)
0001:02f0*     TellWinHandle_
0001:0334      GUImain_
0001:0386      GUISysInit_
0001:038a      GUISysFini_
0001:0396      WndCleanUp_
0001:03b0      GetCmdArg_
0001:03b4      _fork_
0001:03c2      SetCmdArgStart_
0001:03cc      KillDebugger_
0001:03d8      GrabHandlers_
0001:03fa      RestoreHandlers_
0001:0408      TBreak_
0001:0412      PopErrBox_
0001:0432      SysSetMemLimit_
000a:0360+     _ToldWinHandle
000a:0362*     _MainHwnd
Module: winchk.obj(/mnt/sda5/.user/root/src/openwatcom-1.9/bld/wv/win/c/winchk.c)
0001:0440      CheckPointMem_
0001:0442      CheckPointRestore_
Module: wincmd.obj(/mnt/sda5/.user/root/src/openwatcom-1.9/bld/wv/win/c/wincmd.c)
0001:0466      OptDelim_
0001:0474      SetNumLines_
0001:04a0      SetNumColumns_
0001:04ba      ProcSysOption_
0001:052a      ProcSysOptInit_
Module: winfilio.obj(/mnt/sda5/.user/root/src/openwatcom-1.9/bld/wv/win/c/winfilio.c)
0001:0540      LocalErrMsg_
0001:054c      LocalOpen_
0001:05c2      LocalRead_
0001:05f8      LocalWrite_
0001:062e      LocalSeek_
0001:0680      LocalClose_
0001:06a6      LocalErase_
0001:06d8      LocalHandle_
000a:03b8      _LclFile
000a:03be      _LclPathSep
Module: winlkup.obj(/mnt/sda5/.user/root/src/openwatcom-1.9/bld/wv/win/c/winlkup.c)
0001:06e0+     DOSEnvFind_
0001:0756      EnvLkup_
Module: winscrn.obj(/mnt/sda5/.user/root/src/openwatcom-1.9/bld/wv/win/c/winscrn.c)
0001:07a0      InitHookFunc_
0001:07b8      FiniHookFunc_
0001:07ba      RingBell_
0001:07d0      ForceLines_
0001:07d4      SwapScrnLines_
0001:07d8      ConfigScreen_
0001:083c      SysGUI_
0001:083c      UsrScrnMode_
0001:083e*     DbgScrnMode_
0001:0840      DebugScreen_
0001:0866      DebugScreenRecover_
0001:086a      UserScreen_
0001:087a      SaveMainWindowPos_
0001:0886      FiniScreen_
0001:08c4      InitScreen_
0001:0a7c      uifaralloc_
0001:0a88      uifarfree_
0001:0a94      uirefresh_
000a:03c0      _ScrnMode
000a:03c2      _ScrnLines
000a:03c4*     _WndUseGMouse
000a:4ee6      _BrkPending
000a:4ee8      _FlipMech
000a:4ee9      _WantFast
Module: fingmsg.obj(/mnt/sda5/.user/root/src/openwatcom-1.9/bld/wv/c/fingmsg.c)
0001:0cd2      InitAboutMessage_
0001:0d42      FiniAboutMessage_
000a:03d0      _AboutMessage
000a:040c      _FingMessageSize
000a:040e      _AboutSize
Module: dipman.obj(/mnt/sda5/.user/root/src/openwatcom-1.9/bld/dig/c/dipman.c)
0001:0d7c      DCSymCreate_
0001:0da6+     XDIPCliSymCreate_
0001:0dba      DIPInit_
0001:0e06      DIPLoad_
0001:0eb6      DIPRegister_
0001:0f2c*     DIPFiniLatest_
0001:0f96      DIPFini_
0001:0ff6      DIPHandleSize_
0001:100e      DIPMoreMem_
0001:105c      DIPCancel_
0001:10e8+     FindImageMapSlot_
0001:1306      DIPCreateProcess_
0001:1500*     DIPSetProcess_
0001:1518      DIPDestroyProcess_
0001:154c      DIPPriority_
0001:1596      DIPLoadInfo_
0001:171a      DIPMapInfo_
0001:1790      DIPUnloadInfo_
0001:17f2      DIPImagePriority_
0001:184e      WalkImageList_
0001:197c      WalkModList_
0001:1a20*     WalkTypeList_
0001:1d2c+     WalkSymListEx_
0001:1d72      WalkSymList_
0001:1dc4      WalkFileList_
0001:1e9c      ImageExtra_
0001:1ef6      ImageDIP_
0001:1f54      ModName_
0001:1fd2      ModSrcLang_
0001:2042      ModHasInfo_
0001:20b6      ModDefault_
0001:2134      ModAddr_
0001:21dc      TypeMod_
0001:225a      TypeInfo_
0001:236e      TypeCreate_
0001:2380      TypePointer_
0001:2418      TypeBase_
0001:251e*     TypeAddRef_
0001:25a8*     TypeRelease_
0001:2632*     TypeFreeAll_
0001:269c      TypeArrayInfo_
0001:2772      TypeProcInfo_
0001:2820      TypePtrAddrSpace_
0001:28b8      TypeThunkAdjust_
0001:2970*     TypeCmp_
0001:2a10      TypeName_
0001:2aa2      SymMod_
0001:2b18      SymName_
0001:2bb0      SymType_
0001:2c56      SymLocation_
0001:2ce0      SymValue_
0001:2d6a      SymInfo_
0001:2df4      SymParmLocation_
0001:2e80      SymObjType_
0001:2f22      SymObjLocation_
0001:2fac*     SymCmp_
0001:304c*     SymAddRef_
0001:30d6*     SymRelease_
0001:3160*     SymFreeAll_
0001:31ca      CueMod_
0001:3242      CueFile_
0001:32c8      CueFileId_
0001:3336      CueAdjust_
0001:33d2      CueLine_
0001:3450      CueColumn_
0001:34cc      CueAddr_
0001:3574      LineCue_
0001:3634      AddrCue_
0001:3706*     CueCmp_
0001:37a6      AddrMod_
0001:38d4      AddrSym_
0001:39b0+     LookupSymEx_
0001:3cd2      LookupSym_
0001:3cf4      AddrScope_
0001:3db0      ScopeOuter_
000a:0412      _DIPDefaults
000a:0438+     _DIPClientInterface
Module: dipld.obj(/mnt/sda5/.user/root/src/openwatcom-1.9/bld/dig/c/win/dipld.c)
0001:3e76      DIPSysUnload_
0001:3ea0      DIPSysLoad_
000a:5004+     _DIPLastHandle
Module: madman.obj(/mnt/sda5/.user/root/src/openwatcom-1.9/bld/dig/c/madman.c)
000a:0490+     _MADClientInterface
0001:4256      MADInit_
0001:42a6      MADRegister_
0001:44dc      MADLoad_
0001:46d0+     MADUnload_
0001:474c      MADLoaded_
0001:47a2      MADActiveSet_
0001:47e8*     MADStateCreate_
0001:4888*     MADStateSet_
0001:4964*     MADStateCopy_
0001:4994+     MADStateDestroy_
0001:4a0a      MADFini_
0001:4a52      MADWalk_
0001:4aa6      MADNameFile_
0001:4b3a      MADNameDescription_
0001:4be6      MADAddrAdd_
0001:4c6a      MADAddrComp_
0001:4cc0      MADAddrDiff_
0001:4cfc      MADAddrMap_
0001:4d3e      MADAddrFlat_
0001:4d68      MADAddrInterrupt_
0001:4dc4      MADTypeWalk_
0001:4e12      MADTypeName_
0001:4e38      MADTypePreferredRadix_
0001:4e5e      MADTypeForDIPType_
0001:4e92      MADTypeInfo_
0001:4eb4      MADTypeInfoForHost_
0001:4fcc      MADTypeDefault_
0001:5b1c      MADTypeConvert_
0001:60f4      MADTypeToString_
0001:61a8      MADTypeHandleToString_
0001:61fa      MADRegistersSize_
0001:6220      MADRegistersHost_
0001:624a      MADRegistersTarget_
0001:629a      MADRegSetWalk_
0001:62e8      MADRegSetName_
0001:632c      MADRegSetLevel_
0001:6362      MADRegSetDisplayGrouping_
0001:638c      MADRegSetDisplayGetPiece_
0001:63f8      MADRegSetDisplayModify_
0001:643c      MADRegSetDisplayToggleList_
0001:6466      MADRegSetDisplayToggle_
0001:649a      MADRegModified_
0001:64dc      MADRegInspectAddr_
0001:657e      MADRegWalk_
0001:6814      MADRegFullName_
0001:68a2      MADRegSpecialGet_
0001:68d6      MADRegSpecialSet_
0001:690c      MADRegSpecialName_
0001:6950      MADRegFromContextItem_
0001:6974      MADRegUpdateStart_
0001:69ac      MADRegUpdateEnd_
0001:69dc      MADCallStackGrowsUp_
0001:69fe      MADCallTypeList_
0001:6a22      MADCallBuildFrame_
0001:6a7a      MADCallReturnReg_
0001:6ab8      MADCallParmRegList_
0001:6aea      MADCallUpStackSize_
0001:6b10      MADCallUpStackInit_
0001:6b44      MADCallUpStackLevel_
0001:6b98      MADDisasmDataSize_
0001:6bb8      MADDisasmNameMax_
0001:6bec      MADDisasm_
0001:6c70      MADDisasmFormat_
0001:6cb2      MADDisasmInsSize_
0001:6cdc      MADDisasmInsUndoable_
0001:6d06      MADDisasmControl_
0001:6d3a      MADDisasmInsNext_
0001:6d76      MADDisasmInspectAddr_
0001:6df0      MADDisasmMemRefWalk_
0001:6e44      MADDisasmToggleList_
0001:6e68      MADDisasmToggle_
0001:6e88      MADTraceSize_
0001:6eac      MADTraceInit_
0001:6ee0      MADTraceOne_
0001:6f24      MADTraceHaveRecursed_
0001:6f66      MADTraceSimulate_
0001:6fa6      MADTraceFini_
0001:6fee      MADUnexpectedBreak_
Module: madld.obj(/mnt/sda5/.user/root/src/openwatcom-1.9/bld/dig/c/win/madld.c)
0001:7026      MADSysUnload_
0001:7050      MADSysLoad_
000a:5018+     _MADLastHandle
Module: i64.obj(/mnt/sda5/.user/root/src/openwatcom-1.9/bld/watcom/c/i64.c)
0001:71e0      I32ToI64_
0001:7208      U32ToU64_
0001:721e      U64Neg_
0001:727a      U64Add_
0001:72f4*     U64IncDec_
0001:734c      U64Sub_
0001:7384      U64Mul_
0001:742c      U64Div_
0001:75ca      I64Div_
0001:76a8      U64Cmp_
0001:7724      U64Test_
0001:774a      I64Cmp_
0001:77ce      I64Test_
0001:7808      I64ShiftR_
0001:78d4      U64ShiftR_
0001:799a      U64ShiftL_
0001:7a60+     U64Shift_
0001:7a88*     U64Cnv10_
0001:7b94*     U64Cnv8_
0001:7bfc*     U64Cnv16_
Module: trpsupp.obj(/mnt/sda5/.user/root/src/openwatcom-1.9/bld/dig/c/trpsupp.c)
0001:7c70      TrapSetFailCallBack_
0001:7c78*     TrapSetAccessCallBack_
0001:7c80*     TrapFailAllRequests_
0001:7c8a      TrapSimpAccess_
0001:7cee      TrapAccess_
0001:8064+     ReqFuncProxy_
000a:5020      _ReqFunc
000a:5024      _TrapVer
Module: trpld.obj(/mnt/sda5/.user/root/src/openwatcom-1.9/bld/dig/c/win/trpld.c)
000a:5034+     _SetHardMode
000a:503c      _HookFunc
000a:5044+     _UnLockInput
000a:504c      _InfoFunction
000a:5050+     _HardModeRequired
000a:5052+     _toolhelp
0001:80b2      KillTrap_
0001:811a      LoadTrap_
0001:8440      DoHardModeCheck_
Module: dumb.obj(/mnt/sda5/.user/root/src/openwatcom-1.9/bld/dig/c/dumb.c)
0001:84fc+     ReqConnect_
0001:8510+     ReqSimpleStub_
0001:8514+     ReqGet_supplementary_service_
0001:853a+     ReqMap_addr_
0001:8572+     ReqChecksum_mem_
0001:858c+     ReqProg_load_
0001:85a6+     ReqProg_kill_
0001:85c0+     ReqSet_watch_
0001:85e6+     ReqSet_break_
0001:8600+     ReqGet_next_alias_
0001:861a+     ReqRead_user_keyboard_
0001:862e+     ReqGet_lib_name_
0001:8648+     ReqRedirect_stdin_
0001:8662+     ReqRedirect_stdout_
0001:867c+     ReqSplit_cmd_
0001:8696+     DUMBREQUEST
0001:86ca      LoadDumbTrap_
000a:5060+     _Out_Mx_Ptr
Module: spawn.obj(/mnt/sda5/.user/root/src/openwatcom-1.9/bld/wv/c/spawn.c)
0001:870e      Spawn_
0001:8758      SpawnP_
0001:87a6      SpawnPP_
0001:880a      Suicide_
Module: dbgchain.obj(/mnt/sda5/.user/root/src/openwatcom-1.9/bld/wv/c/dbgchain.c)
0001:8848      FindNextIns_
0001:8e26      InitTraceBack_
0001:8e56      FiniTraceBack_
0001:8ec6      UpdateTraceBack_
0001:8f8a      GetCallChain_
0001:8fdc      ShowCalls_
0001:909c      UnWindToFrame_
Module: dbgvar.obj(/mnt/sda5/.user/root/src/openwatcom-1.9/bld/wv/c/dbgvar.c)
000a:508c      _TypeDisplay
0001:91fc      VarDisplayIsStruct_
0001:925e      VarDisplayIsHidden_
0001:9286      VarDisplaySetHidden_
0001:92b8      VarDisplayFlipHide_
0001:9352      VarDisplayUpdate_
0001:93ba      VarDisplayShowMembers_
0001:93ce      VarDisplaySetMembers_
0001:93ea+     VarDisplaySetBits_
0001:9412+     VarDisplayFindParent_
0001:9480      VarDisplayDirty_
0001:94b8      VarDisplayInit_
0001:94c2      VarDisplayedOnTop_
0001:94ee      VarDisplayOnTop_
0001:9642      VarDisplayFini_
0001:97d4      VarDisplayAddStruct_
0001:98da      VarDisplayAddField_
0001:9a16      VarDisplayAlias_
0001:9b02      VarDisplayType_
0001:9c58      VarErrState_
0001:9c7a      VarOldErrState_
0001:9d14+     VarNodeInvalid_
0001:a3f2      VarKillExprSPCache_
0001:a700      VarExpand_
0001:ac1e+     VarExpandNode_
0001:ac50+     VarFirstExpandNode_
0001:ad46*     VarFirstNode_
0001:ae00+     VarNextRowNode_
0001:ae4e      VarNextVisibleSibling_
0001:b2aa      VarFindRowNode_
0001:b300      VarRowTotal_
0001:b3ac      VarFindRoot_
0001:b504      VarFindRow_
0001:b58e      VarDoneRow_
0001:b752+     VarBaseName_
0001:b7f6      VarBuildName_
0001:bb28      VarDeExpand_
0001:bbee      VarAllNodesInvalid_
0001:bc30      VarAdd1_
0001:bd44      VarExpandRow_
0001:be1c      VarExpandRowNoCollapse_
0001:bee2      VarGetStackClass_
0001:bf20      VarExpandable_
0001:bf2e      VarIsPointer_
0001:bf3e      VarPrintText_
0001:c008      VarDelete_
0001:c1ae*     VarDisplayIsHex_
0001:c1c2      VarDisplaySetHex_
0001:c1e2      VarDisplaySetArrayHex_
0001:c23c*     VarDisplayIsDecimal_
0001:c250      VarDisplaySetDecimal_
0001:c270      VarDisplaySetArrayDec_
0001:c2ca*     VarDisplayIsChar_
0001:c2de      VarDisplaySetChar_
0001:c2f8*     VarDisplayIsString_
0001:c30c      VarDisplaySetString_
0001:c326*     VarDisplayIsPointer_
0001:c33a      VarDisplaySetPointer_
0001:c352      VarBreakOnWrite_
0001:c38c      VarAddWatch_
0001:c3ba      VarAddNodeToScope_
0001:c488*     VarFindRootRow_
0001:c524+     VarNewDisplayRadix_
0001:c54e      VarNewCurrRadix_
0001:c566+     VarGetOnTop_
0001:c590+     VarGetGadget_
0001:c644*     VarSetGadget_
0001:c654*     VarSetOnTop_
0001:c8fa+     VarGetValue_
0001:cbee+     VarSetValue_
0001:d100      VarDeleteAllScopes_
0001:d154      VarDeleteAScope_
0001:d24c      VarUnMap_
0001:d332      VarReMap_
0001:d43c      VarInitInfo_
0001:d47a      VarFiniInfo_
0001:d4c8      VarOkToCache_
0001:d4ea      VarInfoRefresh_
0001:d71a      VarInspectPointer_
0001:d76c      VarInspectMemory_
0001:d79c*     VarInspectCode_
0001:d7cc      VarIsLValue_
0001:d7fe+     VarGetDepths_
0001:d864      VarRefreshVisible_
0001:da50      VarDoAssign_
0001:db0a      VarGetDisplayPiece_
0001:dd2a      VarParentIsArray_
000a:5097      _VarError
Module: dbgvset.obj(/mnt/sda5/.user/root/src/openwatcom-1.9/bld/wv/c/dbgvset.c)
0001:ddf6+     Attributes_
0001:e436      TypeSet_
0001:e592      TypeConf_
Module: dbgass.obj(/mnt/sda5/.user/root/src/openwatcom-1.9/bld/wv/c/dbgass.c)
0001:e7fc      InsMemRef_
Module: dbgimg.obj(/mnt/sda5/.user/root/src/openwatcom-1.9/bld/wv/c/dbgimg.c)
0001:e840      ImgSymName_
0001:e902      ImgSort_
Module: dbglist.obj(/mnt/sda5/.user/root/src/openwatcom-1.9/bld/wv/c/dbglist.c)
0001:e940      ConfigEvent_
0001:e952      ConfigCalls_
Module: dbgpend.obj(/mnt/sda5/.user/root/src/openwatcom-1.9/bld/wv/c/dbgpend.c)
0001:ea62      DoProcPending_
0001:ea7a      ProcInput_
0001:eaa2      DoInput_
Module: ambigsym.obj(/mnt/sda5/.user/root/src/openwatcom-1.9/bld/wv/c/ambigsym.c)
0001:ead6      SymPickText_
0001:ebaa      Disambiguate_
Module: addarith.obj(/mnt/sda5/.user/root/src/openwatcom-1.9/bld/wv/c/addarith.c)
0001:ee00      AddAliasInfo_
0001:ee78      FreeAliasInfo_
0001:eebc      DeAlias_
0001:ef0c      AddrComp_
0001:efbc      AddrAdd_
0001:f004      AddrAddWrap_
0001:f04a      AddrDiff_
0001:f090      SameAddrSpace_
Module: dbgbrk.obj(/mnt/sda5/.user/root/src/openwatcom-1.9/bld/wv/c/dbgbrk.c)
0002:0046      InitBPs_
0002:0122      InsertBPs_
0002:0310      RemoveBPs_
0002:0380      GetBPAddr_
0002:043a      GetBPText_
0002:051c      FindBreakByLine_
0002:05f6      FindBreak_
0002:07be      DispBPMsg_
0002:0e7c      ActPoint_
0002:0eac      BrkEnableAll_
0002:0ef6      BrkDisableAll_
0002:0f3e      RemovePoint_
0002:102e      RemoveBreak_
0002:1060      BrkClearAll_
0002:109e      BPsDeac_
0002:1112      BPsUnHit_
0002:1174      RecordNewPoint_
0002:1192      RecordPointStart_
0002:11da      RecordClearPoint_
0002:11f8      GetBreakOnImageCmd_
0002:1278+     ShowBPs_
0002:1360      ProcBreak_
0002:177e      CopySourceLine_
0002:17c2      GetBPSymAddr_
0002:185e      SetPointAddr_
0002:1b5e      BrkCheckWatchLimit_
0002:1e9c      AddBreak_
0002:1f4a      ToggleBreak_
0002:2014      BrkAddrRefresh_
0002:2094+     SetBPCountDown_
0002:20c6*     GetBPAutoDestruct_
0002:20da*     SetBPAutoDestruct_
0002:20f6*     SetBPCondition_
0002:2182*     SetBPPatch_
0002:2258*     SetBPResume_
0002:226e*     GetBPCountDown_
0002:227e*     GetBPCondition_
0002:229a*     GetBPPatch_
0002:22ec*     GetBPResume_
0002:2740      BreakWrite_
0002:2886*     BreakOnRawMemory_
0002:28da      BreakOnExprSP_
0002:296a      PointFini_
0002:2a5e      CheckBPErrors_
0002:2ab4      BrkCmdError_
0002:2af0      CheckBPs_
0002:2eaa      UpdateWPs_
0002:2f16      InsertWPs_
0002:2fb0      SaveBreaksToFile_
0002:2fe4      RestoreBreaksFromFile_
0002:3050      FindFirstCue_
0002:3090      BreakAllModEntries_
0002:31d4      ClearAllModBreaks_
0002:324a*     GetRowAddrDirectly_
0002:32de*     GetBPAt_
0002:3314*     GetBPsCount_
Module: dbgcall.obj(/mnt/sda5/.user/root/src/openwatcom-1.9/bld/wv/c/dbgcall.c)
0002:3346      FiniCall_
0002:3606      CallSet_
0002:3616      CallConf_
0002:36fc      ProcCall_
Module: dbgcall2.obj(/mnt/sda5/.user/root/src/openwatcom-1.9/bld/wv/c/dbgcall2.c)
0002:39a0      FreezeRegs_
0002:39f0      UnFreezeRegs_
0002:3ac0      PerformExplicitCall_
0002:3c54      PerformCall_
Module: dbgcmd.obj(/mnt/sda5/.user/root/src/openwatcom-1.9/bld/wv/c/dbgcmd.c)
0002:3d12      DoCmd_
Module: dbgcmdln.obj(/mnt/sda5/.user/root/src/openwatcom-1.9/bld/wv/c/dbgcmdln.c)
000a:51ca      _DownLoadTask
0002:3d38+     SetupChar_
0002:3d94*     NextChar_
0002:3da4+     OptError_
0002:3e2e+     SkipSpaces_
0002:3e4a      HasEquals_
0002:3e68+     WantEquals_
0002:3e98+     GetValueLong_
0002:3efa      GetValue_
0002:3f24+     GetMemory_
0002:3ffc*     GetItem_
0002:400c+     GetFileName_
0002:404c+     GetRawItem_
0002:44f6      ProcCmd_
Module: dbgdot.obj(/mnt/sda5/.user/root/src/openwatcom-1.9/bld/wv/c/dbgdot.c)
0002:4630      GetDotAddr_
0002:4670      SetCodeLoc_
0002:4698*     SetDataLoc_
0002:46b2      SetCodeDot_
0002:46ee      SetDataDot_
0002:471c      GetCodeDot_
0002:4746      GetDataDot_
Module: dbgexec.obj(/mnt/sda5/.user/root/src/openwatcom-1.9/bld/wv/c/dbgexec.c)
0002:4814      SetProgState_
0002:497a      SetMsgText_
0002:4ea8      ExecProg_
0002:51b8      ReportTrap_
0002:5302      Execute_
0002:541c      Go_
Module: dbgexpr.obj(/mnt/sda5/.user/root/src/openwatcom-1.9/bld/wv/c/dbgexpr.c)
0002:54a0      InitLC_
0002:5598      CreateLC_
0002:55f8+     FreeLC_
0002:565c      MoveLC_
0002:56a8+     DupLC_
0002:56ce      CreateEntry_
0002:5794      AllocatedString_
0002:57f8      DeleteEntry_
0002:587e      StkEntry_
0002:5904      MoveSP_
0002:5918      SwapStack_
0002:5a50      FreezeStack_
0002:5a9a      UnFreezeStack_
0002:5b30+     DupStringVal_
0002:5bc2      DupStack_
0002:5d0c      PushName_
0002:5d34      PushNum_
0002:5d66      PushNum64_
0002:5d96      PushRealNum_
0002:5dce      PushSymHandle_
0002:5df8      ExprSetAddrInfo_
0002:5e80      PushAddr_
0002:5ec0      PushLocation_
0002:5f0e      CombineEntries_
0002:5fba      MoveTH_
0002:6026      PushType_
0002:608a      PushInt_
0002:60fc      PushString_
0002:614e      PopEntry_
0002:6236      TstEQ_
0002:63b8      TstLT_
0002:651a      TstTrue_
0002:6546      TstExist_
0002:659c      MakeAddr_
0002:6662      FreePgmStack_
0002:66f4      ExprPurge_
0002:677a      MarkArrayOrder_
0002:678a      StartSubscript_
0002:67a0      AddSubscript_
0002:689a      EndSubscript_
000a:0974      _ExprSP
Module: dbgexpr2.obj(/mnt/sda5/.user/root/src/openwatcom-1.9/bld/wv/c/dbgexpr2.c)
0002:69c4      ClassifyType_
0002:69f2      ClassifyEntry_
0002:6b1c      ExprGetSymList_
0002:6bd2      ExprSymbol_
0002:6c84      NameResolve_
0002:6d26      SymResolve_
0002:6e90      LValue_
0002:6ede      ClassNum_
0002:708e      ExprResolve_
0002:72c0      LRValue_
0002:7596      RValue_
0002:75aa      ExprValue_
Module: dbgexpr3.obj(/mnt/sda5/.user/root/src/openwatcom-1.9/bld/wv/c/dbgexpr3.c)
0002:7678+     ConvIdx_
0002:779e      FromItem_
0002:7a58      ToItem_
0002:8472      ConvertTo_
0002:88d0      BinOp_
0002:88f4      AddOp_
0002:8936      ToItemMAD_
Module: dbgexpr4.obj(/mnt/sda5/.user/root/src/openwatcom-1.9/bld/wv/c/dbgexpr4.c)
0002:8a5a      DoPlus_
0002:8c30      DoMinus_
0002:8dfe      DoMul_
0002:8f7c      DoDiv_
0002:921a      DoMod_
0002:92fa      DoAnd_
0002:93a2      DoOr_
0002:944a      DoXor_
0002:94f2      DoShift_
0002:95c0      DoAddr_
0002:96c8      DoAPoints_
0002:9858      DoPoints_
0002:9a52      DoConvert_
0002:9aa2      DoLConvert_
0002:9b90      DoMakeComplex_
0002:9ca8      DoStringConcat_
0002:9e26      DoGivenField_
0002:9f60      DoField_
0002:a23c      DoScope_
0002:a3c2      DoAssign_
0002:aaf2      DoCall_
Module: dbgfile.obj(/mnt/sda5/.user/root/src/openwatcom-1.9/bld/wv/c/dbgfile.c)
0002:b29c      RealFName_
0002:b326      FileLoc_
0002:b3d6      ReadStream_
0002:b414      ReadText_
0002:b420      WriteStream_
0002:b45e      WriteText_
0002:b4a2      SeekStream_
0002:b4ea      FileOpen_
0002:b59c      FileClose_
0002:b5de      FileRemove_
0002:b610      WriteToPgmScreen_
0002:b628      FileHandleInfo_
0002:b634      SysErrMsg_
0002:b686      StashErrCode_
0002:b6cc*     GetLastErr_
0002:b6d0*     GetSystemErrCode_
0002:b6ec*     GetSystemHandle_
0002:b700      IsAbsolutePath_
0002:b77a      AppendPathDelim_
0002:b7f6      SkipPathInfo_
0002:b846      ExtPointer_
0002:b8ba      MakeFileName_
0002:ba0c      LclStringToFullName_
0002:bc64      FullPathOpen_
0002:bc7e      LocalFullPathOpen_
0002:bd10      FindWritable_
0002:be7c      PathOpen_
0002:be94      LocalPathOpen_
0002:beac      SysFileInit_
0002:befa      PathFini_
0002:bfca      PathInit_
Module: dbghook.obj(/mnt/sda5/.user/root/src/openwatcom-1.9/bld/wv/c/dbghook.c)
0002:c032      InitHook_
0002:c040      FiniHook_
0002:c06c      ProcHook_
0002:c102      ConfigHook_
0002:c192      HookNotify_
0002:c210      HookPendingPush_
Module: dbginvk.obj(/mnt/sda5/.user/root/src/openwatcom-1.9/bld/wv/c/dbginvk.c)
0002:c2d8      ImplicitSet_
0002:c302      ImplicitConf_
0002:c828      Invoke_
0002:c8e4      ProfileInvoke_
0002:c97c      ProcInvoke_
0002:ca82      CreateInvokeFile_
0002:cab0      InvokeAFile_
Module: dbglkup.obj(/mnt/sda5/.user/root/src/openwatcom-1.9/bld/wv/c/dbglkup.c)
0002:cbd4      InitLook_
0002:cc1a      FiniLook_
0002:cc2e      LookCaseSet_
0002:cc7a      LookSet_
0002:cec6      LookConf_
0002:cfac      Lookup_
0002:d100      LookupModName_
0002:d210      LookupImageName_
0002:d2d6      LookupSymList_
0002:d53e      FreeSymHandle_
0002:d594      PurgeSymHandles_
0002:d6b0      FindNullSym_
0002:d6c6      SetWDPresent_
Module: dbgloc.obj(/mnt/sda5/.user/root/src/openwatcom-1.9/bld/wv/c/dbgloc.c)
0002:d730      LocationCreate_
0002:d7a0      LocationAppend_
0002:d816      LocationSet_
0002:d834      LocationAdd_
0002:e04e      LocationAssign_
Module: dbglog.obj(/mnt/sda5/.user/root/src/openwatcom-1.9/bld/wv/c/dbglog.c)
0002:e14c      LogInit_
0002:e154      LogFini_
0002:e172      LogLine_
0002:e29c      LogStart_
0002:e2aa      LogEnd_
0002:e302      ProcLog_
Module: dbgmain.obj(/mnt/sda5/.user/root/src/openwatcom-1.9/bld/wv/c/dbgmain.c)
0002:e408      GetCmdName_
0002:e428+     DebugInit_
0002:e546      ReportTask_
0002:e5d6      ChkBreak_
0002:e61a      ProcACmd_
0002:e784      DebugMain_
0002:e802      DebugExit_
0002:e81a      DebugFini_
0002:e8c8      InitCapabilities_
0002:e922+     CapabilitiesGet8ByteBreakpointSupport_
0002:e9a8+     CapabilitiesSet8ByteBreakpointSupport_
0002:ea46+     CapabilitiesGetExactBreakpointSupport_
0002:ead6      CapabilitiesSetExactBreakpointSupport_
000a:0d24+     _SuppCapabilitiesId
Module: dbgmem.obj(/mnt/sda5/.user/root/src/openwatcom-1.9/bld/wv/c/dbgmem.c)
0002:eb9a      ChangeMemUndoable_
0002:ec56      ProgPeekWrap_
0002:ecf8      ItemSize_
0002:ef88      ItemGetMAD_
0002:efba      ItemPutMAD_
Module: memtypes.obj(/mnt/sda5/.user/root/src/openwatcom-1.9/bld/wv/c/memtypes.c)
0002:f132      MemInitTypes_
0002:f1d8      MemFiniTypes_
0002:f260      GetMADMaxFormatWidth_
Module: dbgmisc.obj(/mnt/sda5/.user/root/src/openwatcom-1.9/bld/wv/c/dbgmisc.c)
0003:0000      Flip_
0003:002c      ProcFlip_
0003:009a      ConfigFlip_
0003:00f2      ProcRemark_
0003:011a      ProcDo_
0003:0130      ProcAssign_
0003:01aa      GoToAddr_
0003:0204      StepIntoFunction_
0003:0242      SkipToAddr_
0003:028e      GoToReturn_
0003:02e2      ProcGo_
0003:0586      ProcSkip_
0003:05ba      ProcIf_
0003:06c4      ProcWhile_
0003:0760      ProcError_
0003:07d0      ProcQuit_
0003:0882      MakeThdCurr_
0003:09a0      IsThdCurr_
0003:0b10      GetNextTID_
0003:0b8c      NameThread_
0003:0cea      CheckForNewThreads_
0003:0d82      FindThread_
0003:0dc0      ProcThread_
0003:0f1c      FreeThreads_
Module: dbgovl.obj(/mnt/sda5/.user/root/src/openwatcom-1.9/bld/wv/c/dbgovl.c)
0003:0f60      InitOvlState_
0003:1044      FiniOvlState_
0003:107c      InvalidateTblCache_
0003:1082      SectIsLoaded_
0003:112a      SectLoad_
0003:11b8      SectTblRead_
0003:11de      SetStateOvlSect_
0003:1218      TransOvlRetAddr_
0003:123e      RemapSection_
0003:125a      AddrSection_
0003:12ee      AddrFix_
0003:133a      AddrFloat_
Module: dbgparse.obj(/mnt/sda5/.user/root/src/openwatcom-1.9/bld/wv/c/dbgparse.c)
0003:13ec      SetUpExpr_
0003:13f6      EvalLValExpr_
0003:140a      EvalExpr_
0003:142c      NormalExpr_
0003:1450      ChkExpr_
0003:1464      ReqU64Expr_
0003:14da      ReqLongExpr_
0003:14f6      ReqExpr_
0003:1510      OptExpr_
0003:1548      MakeMemoryAddr_
0003:1622      ReqMemAddr_
0003:1670      CallExpr_
0003:16b8      OptMemAddr_
0003:16e0      SetTokens_
0003:1704      LangInit_
0003:1722      LangFini_
0003:1810      LangLoad_
Module: dbgprint.obj(/mnt/sda5/.user/root/src/openwatcom-1.9/bld/wv/c/dbgprint.c)
0003:1846      StartPrintBuff_
0003:18e0      EndPrintBuff_
0003:1f3c      PrintChar_
0003:20b2      PrintString_
0003:20be      ForcePrintString_
0003:29a4      PrintValue_
0003:2b92      DoPrintList_
0003:2bfc      ChkPrintList_
0003:2c60      ProcPrint_
Module: dbgreg.obj(/mnt/sda5/.user/root/src/openwatcom-1.9/bld/wv/c/dbgreg.c)
0003:2d1e      DefAddr_
0003:2dbc      GetRegIP_
0003:2dee      SetRegIP_
0003:2e30      RecordSetRegIP_
0003:2e82      SetRegSP_
0003:2eb4+     SetRegBP_
0003:2ee6      GetRegSP_
0003:2f30      GetRegBP_
0003:30a4      SetMemBefore_
0003:30d4      SetMemAfter_
0003:32b0      ResizeRegData_
0003:3524      ClearMachState_
0003:35f8      InitMachState_
0003:3676      FiniMachState_
0003:36b2      SetupMachState_
0003:3774      CopyMachState_
0003:3806      AllocMachState_
0003:388a      FreeMachState_
0003:38b0      CollapseMachState_
0003:39ca      CheckStackPos_
0003:3a2e      AdvMachState_
0003:3bca      ChangeMem_
0003:3d02      UndoLevel_
0003:3d92      SetStackPos_
0003:3e46      MoveStackPos_
0003:3eb0      GetStackPos_
0003:3eb4      PosMachState_
0003:41b6      LastMachState_
0003:41f8      LastStackPos_
0003:4210      ProcRegister_
0003:424e      ProcUndo_
0003:4298+     GetActionString_
0003:42f4*     GetUndoString_
0003:431e*     GetRedoString_
0003:4362      ProcStackPos_
0003:4394      GoHome_
0003:43c4      ParseRegSet_
0003:4534      RegValue_
0003:459a      RegNewValue_
000a:0da6      _CurrRegSize
Module: dbgscan.obj(/mnt/sda5/.user/root/src/openwatcom-1.9/bld/wv/c/dbgscan.c)
0003:4832      InitScan_
0003:4882      FiniScan_
0003:48c6      ScanPos_
0003:48ce      ScanLen_
0003:48d6      ScanCmd_
0003:4aa0      ScanType_
0003:4b1e      ScanCall_
0003:4bc2      ScanEOC_
0003:4c40      TokenName_
0003:4d7a      Recog_
0003:4dca      ScanQuote_
0003:4e46      ScanItem_
0003:4f06      ReqEOC_
0003:4f30      FlushEOC_
0003:5290      NamePos_
0003:52a8      NameLen_
0003:53fa      ReScan_
0003:542e      ScanExpr_
0003:5448      AddActualChar_
0003:54e6      AddChar_
0003:54fc      AddCEscapeChar_
0003:55ae      Scan_
0003:5664      RawScanInit_
0003:567a      RawScanChar_
0003:5684      RawScanAdvance_
0003:5698      RawScanFini_
0003:56b4      IntNumVal_
0003:56de      RealNumVal_
0003:570a      NewCurrRadix_
0003:5718      SetCurrRadix_
0003:573a      RestoreRadix_
0003:5754      DefaultRadixSet_
0003:576e      RadixSet_
0003:5808      RadixConf_
0003:583e      FindRadixSpec_
0003:58be      AddHexSpec_
0003:592a      ForceSym2Num_
000a:0dc2      _scan_string
000a:0dc4      _StringStart
000a:0dc8      _StringLength
000a:0dca      _ScanCCharNum
Module: dbgshow.obj(/mnt/sda5/.user/root/src/openwatcom-1.9/bld/wv/c/dbgshow.c)
0003:59d6      GetCmdEntry_
0003:5a22      ConfigCmdList_
0003:5b52      ConfigLine_
0003:5bbc      DoConfig_
0003:5dae      ProcShow_
0003:5e06      SaveConfigToFile_
0003:5e1c      RestoreConfigFromFile_
Module: dbgsrc.obj(/mnt/sda5/.user/root/src/openwatcom-1.9/bld/wv/c/dbgsrc.c)
0003:5e36      FreeRing_
0003:5e70      InitSource_
0003:5e7a      FiniSource_
0003:5e96      DeleteRing_
0003:5f1c      InsertRing_
0003:5f88      RingEnd_
0003:5fb8      AddSourceSpec_
0003:5fea      SourceName_
0003:5fee      NextSourceSpec_
0003:600e      SourceSet_
0003:60d2      SourceConf_
0003:617e      OpenSrcFile_
Module: dbgstdio.obj(/mnt/sda5/.user/root/src/openwatcom-1.9/bld/wv/c/dbgstdio.c)
0003:6448      StdInNew_
0003:6456      StdOutNew_
Module: dbgsys.obj(/mnt/sda5/.user/root/src/openwatcom-1.9/bld/wv/c/dbgsys.c)
0003:6470+     DoSystem_
0003:6500      ProcSystem_
Module: dbgutil.obj(/mnt/sda5/.user/root/src/openwatcom-1.9/bld/wv/c/dbgutil.c)
0003:6580      DefaultSize_
0003:66cc      CnvULongHex_
0003:66ee      CnvLongDec_
0003:6710      CnvULongDec_
0003:6732      CnvLong_
0003:6758      CnvULong_
0003:677e      AddrTypeToString_
0003:6804      AddrToIOString_
0003:683c      AddrToString_
0003:687c      QualifiedSymName_
0003:69aa      CnvAddr_
0003:6b3a      CnvNearestAddr_
0003:6b88      StrAddr_
0003:6bde      UniqStrAddr_
0003:6c38      LineAddr_
0003:6d08      Ring_
0003:6d1e      Warn_
0003:6d78      AllocCmdList_
0003:6dc6      FreeCmdList_
0003:6dea      LockCmdList_
0003:6dfe      TypeInpStack_
0003:6e1e      ClearInpStack_
0003:6e40      SetInpStack_
0003:6e6a      PopInpStack_
0003:6f1a      PushInpStack_
0003:703e      CopyInpFlags_
0003:70aa      PushCmdList_
0003:70ce      PurgeInpStack_
0003:7120      FreezeInpStack_
0003:7148      UnAsm_
0003:71a4      ModImageName_
0003:71e8      DupStrLen_
0003:7240      DupStr_
0003:7274      RegFindData_
Module: dbg_dbg.obj(/mnt/sda5/.user/root/src/openwatcom-1.9/bld/wv/c/dbg_dbg.c)
0003:77e0      LookupRegName_
0003:7864      LookupInternalName_
0003:791a      LookupUserName_
0003:79bc      PurgeUserNames_
0003:7a2c      CreateSym_
0003:7b7e      InternalValue_
Module: dbgprog.obj(/mnt/sda5/.user/root/src/openwatcom-1.9/bld/wv/c/dbgprog.c)
0003:7e7c      InitCmd_
0003:8096      FindLocalDebugInfo_
0003:8290*     DownLoadCode_
0003:82b0      FiniCmd_
0003:82c6      InitLocalInfo_
0003:82d0      FiniLocalInfo_
0003:82ee      ImagePrimary_
0003:82f6      ImageEntry_
0003:8320      DefAddrSpaceForMod_
0003:8398      DefAddrSpaceForAddr_
0003:846a      MapAddrForImage_
0003:85d0      UnMapAddress_
0003:875c      UnMapPoints_
0003:87cc      FreeImage_
0003:8a32      GetLastImageName_
0003:8f9e      UnLoadSymInfo_
0003:9000      ReLoadSymInfo_
0003:9036      ReMapImageAddress_
0003:9132+     ReMapAddress_
0003:93c6      ReMapPoints_
0003:94fa*     LoadDeferredSymbols_
0003:957e      AddLibInfo_
0003:96d4      SetProgStartHook_
0003:98f0      LoadProg_
0003:998a      ReleaseProgOvlay_
0003:9a4a      InitMappableAddr_
0003:9a5e      FiniMappableAddr_
0003:9a84      GetProgName_
0003:9c56      GetProgArgs_
0003:9c66*     SetSymName_
0003:9d82      LoadNewProg_
0003:a14a      ReStart_
0003:a908      SymUserModLoad_
0003:aa52      SymUserModUnload_
0003:ab02      ProcNew_
0003:ab42      RecordNewProg_
000a:5c8c+     _LocalDebugInfo
Module: strutil.obj(/mnt/sda5/.user/root/src/openwatcom-1.9/bld/wv/c/strutil.c)
0003:ac20      StrCopy_
0003:ac56      StrTrim_
0003:ac92      FmtStr_
0003:b0a6      Format_
Module: stub.obj(/mnt/sda5/.user/root/src/openwatcom-1.9/bld/wv/c/stub.c)
0003:b0e0*     __RAISE
0003:b0e2*     _matherr_
Module: dbgwalk.obj(/mnt/sda5/.user/root/src/openwatcom-1.9/bld/wv/c/dbgwalk.c)
0003:b176      SSLWalk_
Module: dynmem.obj(/mnt/sda5/.user/root/src/openwatcom-1.9/bld/wv/c/dynmem.c)
0003:b41e      __fmemneed_
0003:b442      DbgAlloc_
0003:b44e      DbgMustAlloc_
0003:b48a      DbgRealloc_
0003:b496      DbgFree_
0003:b4ae      ChkAlloc_
0003:b4e6      MemFini_
0003:b5be+     MemExpand_
0003:b660      MemInit_
0003:b66c      ExtraAlloc_
0003:b678*     ExtraRealloc_
0003:b684      ExtraFree_
Module: dbgsem.obj(/mnt/sda5/.user/root/src/openwatcom-1.9/bld/wv/c/dbgsem.c)
000a:650e      _ScanSavePtr
0003:ce1a*     SemAllowClosestLine_
0003:d340      SSLSemantic_
0003:d3da      SSLError_
0003:d400      SSLOutToken_
0003:d4fe      SSLNextToken_
0003:d50e      SSLCurrToken_
Module: dbgtrace.obj(/mnt/sda5/.user/root/src/openwatcom-1.9/bld/wv/c/dbgtrace.c)
0003:d52e      ResizeTraceData_
0003:d644      TraceStart_
0003:d674      TraceHow_
0003:d75c      TraceSimulate_
0003:d7a4      TraceModifications_
0003:d7fa      TraceStop_
0003:d810      TraceKill_
0003:d846      SourceStep_
0003:dae4+     CheckForDLLThunk_
0003:db7c      TraceCheck_
0003:df70+     PerformTrace_
0003:e166      HasLineInfo_
0003:e1be      ExecTrace_
0003:e2d0      ProcTrace_
0003:e3c0      FiniTrace_
0003:e3f8      LevelSet_
0003:e43e      LevelConf_
Module: dbgexins.obj(/mnt/sda5/.user/root/src/openwatcom-1.9/bld/wv/c/dbgexins.c)
0003:e470      AsmExam_
0003:e4b0      SrcExam_
Module: dbgexdat.obj(/mnt/sda5/.user/root/src/openwatcom-1.9/bld/wv/c/dbgexdat.c)
0003:e63c      ProcExamine_
Module: dbgmodfy.obj(/mnt/sda5/.user/root/src/openwatcom-1.9/bld/wv/c/dbgmodfy.c)
0003:e7a6      ProcModify_
Module: dbgtback.obj(/mnt/sda5/.user/root/src/openwatcom-1.9/bld/wv/c/dbgtback.c)
0003:e850      FixOvlRetAddr_
0003:e888      WalkCallChain_
0003:ead6      ReturnAddress_
Module: dbgerr.obj(/mnt/sda5/.user/root/src/openwatcom-1.9/bld/wv/c/dbgerr.c)
0003:eb28      Error_
0003:edda      PrevError_
Module: namelist.obj(/mnt/sda5/.user/root/src/openwatcom-1.9/bld/wv/c/namelist.c)
0003:f2a4      NameListAddModules_
0003:f3e0      NameListInit_
0003:f404      NameListFree_
0003:f470      NameListNumRows_
0003:f48e      NameListName_
0003:f52a      NameListAddr_
0003:f582      NameListHandle_
Module: modlist.obj(/mnt/sda5/.user/root/src/openwatcom-1.9/bld/wv/c/modlist.c)
0003:f590      ModHasSourceInfo_
0003:f6ba      ModCompare_
0003:f7f0      ModListAddModules_
0003:f8dc      ModListInit_
0003:f946      ModListFree_
0003:f998      ModListNumRows_
0003:f9b6      ModListMod_
0003:f9ee      ModListName_
0003:fa4e      ModFirstAddr_
Module: sortlist.obj(/mnt/sda5/.user/root/src/openwatcom-1.9/bld/watcom/c/sortlist.c)
0003:fe00      SortLinkedList_
Module: remmisc.obj(/mnt/sda5/.user/root/src/openwatcom-1.9/bld/wv/c/remmisc.c)
000a:6572      _MaxPacketLen
0004:0020      InitSuppServices_
0004:0052      FiniSuppServices_
0004:005e      InitTrap_
0004:01a8      GetSuppId_
0004:0224      RemoteSuspend_
0004:024e      RemoteResume_
0004:0278      RemoteErrMsg_
0004:02a0      FiniTrap_
Module: remcore.obj(/mnt/sda5/.user/root/src/openwatcom-1.9/bld/wv/c/remcore.c)
0004:03ec      FiniCache_
0004:040a      InitCache_
0004:047e*     HaveCache_
0004:0540      ProgPeek_
0004:0586      ProgPoke_
0004:0678*     ProgChkSum_
0004:06d6      PortPeek_
0004:0720      PortPoke_
0004:07de      ReadDbgRegs_
0004:0880      WriteDbgRegs_
0004:0894+     ArgsLen_
0004:08ac      ClearMachineDataCache_
0004:08cc      DoLoad_
0004:0a22      KillProgOvlay_
0004:0ab6      MakeProgRun_
0004:0b8a      Redirect_
0004:0c1c      RemoteMapAddr_
0004:0c9c      RemoteSetUserScreen_
0004:0cc6      RemoteSetDebugScreen_
0004:0cf0      RemoteReadUserKey_
0004:0d24      RemoteGetLibName_
0004:0d8e      RemoteGetMsgText_
0004:0de0      RemoteMachineData_
0004:0f7a      RemoteSetBreak_
0004:0fc8      RemoteRestoreBreak_
0004:101c      RemoteSetWatch_
0004:108a      RemoteRestoreWatch_
0004:10d8      RemoteSplitCmd_
0004:1158      CheckSegAlias_
0004:11a6      GetSysConfig_
0004:11d2      InitCoreSupp_
0004:1232      FiniCoreSupp_
0004:1258      TrapClientString_
Module: remfinfo.obj(/mnt/sda5/.user/root/src/openwatcom-1.9/bld/wv/c/remfinfo.c)
0004:12aa      InitFileInfoSupp_
0004:12d0      RemoteGetFileDate_
0004:1376      RemoteSetFileDate_
Module: remenv.obj(/mnt/sda5/.user/root/src/openwatcom-1.9/bld/wv/c/remenv.c)
0004:142c      InitEnvSupp_
0004:1452*     RemoteSetEnvironmentVariable_
0004:1512*     RemoteGetEnvironmentVariable_
Module: remfile.obj(/mnt/sda5/.user/root/src/openwatcom-1.9/bld/wv/c/remfile.c)
0004:15e6+     GetCachedHandle_
0004:161c+     InitHandleCache_
0004:163a+     AddCachedHandle_
0004:1672+     DelCachedHandle_
0004:16ac      InitFileSupp_
0004:170a      HaveRemoteFiles_
0004:171a      RemoteStringToFullName_
0004:182e      RemoteOpen_
0004:19d6      MaxRemoteWriteSize_
0004:1a44      RemoteWrite_
0004:1a70      RemoteWriteConsole_
0004:1b26*     MaxRemoteReadSize_
0004:1b2e      RemoteRead_
0004:1bc4      RemoteSeek_
0004:1c76      RemoteClose_
0004:1cf2      RemoteErase_
0004:1d82      RemoteFork_
000a:6614      _RemFile
Module: remthrd.obj(/mnt/sda5/.user/root/src/openwatcom-1.9/bld/wv/c/remthrd.c)
0004:1e18      InitThreadSupp_
0004:1e3e      RemoteGetNextThread_
0004:1eba      RemoteSetThreadWithErr_
0004:1f46      RemoteSetThread_
0004:1f60      RemoteFreezeThread_
0004:1fbc      RemoteThawThread_
0004:2018      RemoteThdName_
000a:6620+     _SuppThreadId
Module: removl.obj(/mnt/sda5/.user/root/src/openwatcom-1.9/bld/wv/c/removl.c)
0004:207a      InitOvlSupp_
0004:20a0      RemoteOvlSectSize_
0004:20f2      RemoteOvlSectPos_
0004:21ee      RemoteSectTblRead_
0004:222c      RemoteSectTblWrite_
0004:2288      RemoteOvlTransAddr_
0004:2354      RemoteOvlRetAddr_
Module: ldsupp.obj(/mnt/sda5/.user/root/src/openwatcom-1.9/bld/wv/c/ldsupp.c)
0004:2438      LDToD_
0004:246a      DToLD_
0004:2496      LDToS_
0004:24f4      SToLD_
0004:2516      LDCmp_
0004:255e      LDAdd_
0004:2596      LDSub_
0004:25ce      LDMul_
0004:2606      LDDiv_
Module: doserr.obj(/mnt/sda5/.user/root/src/openwatcom-1.9/bld/wv/c/doserr.c)
0004:264a      GetDOSErrMsg_
000a:0ee0+     _DosErrMsgs
Module: diginter.obj(/mnt/sda5/.user/root/src/openwatcom-1.9/bld/wv/c/diginter.c)
0004:2690      DIGCliAlloc_
0004:26a6      DIGCliRealloc_
0004:26bc      DIGCliFree_
0004:26d2      DIGCliOpen_
0004:26ea      DIGCliSeek_
0004:2702      DIGCliRead_
0004:2718      DIGCliWrite_
0004:272e      DIGCliClose_
0004:2744      DIGCliRemove_
0004:275c      DIGCliMachineData_
Module: dipinter.obj(/mnt/sda5/.user/root/src/openwatcom-1.9/bld/wv/c/dipinter.c)
0004:27b2      DIPCliImageUnload_
0004:27e6      DIPCliMapAddr_
0004:280c      DIPCliSymCreate_
0004:2862      MadTypeToDipTypeInfo_
0004:28e6      RegLocation_
0004:2962      DIPCliItemLocation_
0004:2c82      DIPCliAssignLocation_
0004:2ca4      DIPCliSameAddrSpace_
0004:2ce0      DIPCliAddrSection_
0004:2cfa      DIPCliStatus_
0004:2d08      DIPCliCurrMAD_
0004:2d14      DeAliasAddrMod_
0004:2d40      DeAliasAddrSym_
0004:2d76      DeAliasAddrScope_
0004:2dac      DeAliasAddrCue_
0004:3494+     WVTYPEADDREF
0004:349e+     WVTYPERELEASE
0004:34a8+     WVTYPEFREEALL
0004:34b2+     WVSYMADDREF
0004:34bc+     WVSYMRELEASE
0004:34c6+     WVSYMFREEALL
0004:34d0      DIPMsgText_
0004:354a      InitDbgInfo_
0004:36c2      FiniDbgInfo_
0004:36d4      IsInternalMod_
0004:36f8      IsInternalModName_
Module: madinter.obj(/mnt/sda5/.user/root/src/openwatcom-1.9/bld/wv/c/madinter.c)
0004:372a      MADCliAddrSection_
0004:3744      MADCliAddrOvlReturn_
0004:3766      MADCliAddrToString_
0004:37e2      MADCliMemExpr_
0004:3860      MADCliReadMem_
0004:388a      MADCliWriteMem_
0004:38b4      MADCliString_
0004:392a      MADCliAddString_
0004:3938      MADCliRadixPrefix_
0004:39c6      MADCliNotify_
0004:3a48      MADCliSystemConfig_
0004:3a56      InitMADInfo_
0004:3a78      FiniMADInfo_
0004:3a84      GetMADTypeHandleDefaultAt_
0004:3ab0      GetMADTypeDefaultAt_
0004:3ade      GetMADTypeDefault_
0004:3b24      ReportMADFailure_
0004:3c42      CheckMADChange_
0004:3d48      GetMADNormalizedString_
0004:3d62      GetMADTypeNameForCmd_
0004:3dc0      FindMADTypeHandle_
0004:3e88      FindMAD_
Module: dbglit.obj(/mnt/sda5/.user/root/src/openwatcom-1.9/bld/wv/c/dbglit.c)
0004:3ec0      InitLiterals_
0004:3ed2      FiniLiterals_
Module: dbginsty.obj(/mnt/sda5/.user/root/src/openwatcom-1.9/bld/wv/c/dbginsty.c)
0004:3efe      BreakOnSelected_
0004:3f2e      ScanSelectedExpr_
0004:3f78      WndGetExprSPInspectType_
0004:4170      WndEvalInspectExpr_
Module: dbgdata.obj(/mnt/sda5/.user/root/src/openwatcom-1.9/bld/wv/c/dbgdata.c)
000a:6640      _DbgTmpBrk
000a:66a0      _SysConfig
000a:66a8      _UserTmpBrk
000a:6708      _NilAddr
000a:6710      _DipFiles
000a:6738      _NameBuff
000a:673c      _SrchHistory
000a:6740      _InpStack
000a:6744      _ContextMod
000a:6748      _CodeAddrMod
000a:674c      _ExecThd
000a:6750      _TxtBuff
000a:6754      _CmdStart
000a:6758      _CmdHistory
000a:675c      _DbgImageList
000a:6760      _BrkList
000a:6764      _HeadThd
000a:6768      _MemSize
000a:676c      _InvokeFile
000a:6770      _PgmStackUsage
000a:6784      _DbgRegs
000a:6788      _SrcSpec
000a:678c      _PrevRegs
000a:6790      _TrpFile
000a:6794      _InitCmdList
000a:6798      _Context
000a:6882      _DbgSwitches
000a:688c      _OvlSize
000a:11e0      _Supports8ByteBreakpoints
000a:11e2      _SupportsExactBreakpoints
000a:11e4      _Language
000a:11e8      _NestedCallLevel
000a:11ec      _WndFlags
000a:11f0      _DbgBuffers
000a:161a      _OnOffNameTab
000a:688e      _CheckSize
000a:6890      _DIPStatus
000a:6892      _TaskId
000a:6894      _SkipCount
000a:6896      _InvCount
000a:6898      _ExprAddrDepth
000a:689a      _CurrRadix
000a:689b      _DbgLevel
000a:689c      _ActiveWindowLevel
000a:689d      _DefRadix
000a:689e      _CurrToken
000a:689f      _ScrnState
Module: dbgevent.obj(/mnt/sda5/.user/root/src/openwatcom-1.9/bld/wv/c/dbgevent.c)
0004:4318      RecordInit_
0004:4322      RecordFini_
0004:4358      ShowReplay_
0004:43ca      OkToSaveReplay_
0004:43e6      SaveReplayToFile_
0004:43fc      RestoreReplayFromFile_
0004:44ca      ProcRecord_
0004:454e      RecordStart_
0004:45a4      ReplayTo_
0004:46ac      CheckEventRecorded_
0004:46d6      RecordEvent_
0004:4802      RecordAsynchEvent_
0004:480e      RecordGo_
0004:482c      RecordCommand_
0004:489a      SetRecord_
0004:48ba      GetEventAddress_
000a:68a4      _EventList
Module: dbgdll.obj(/mnt/sda5/.user/root/src/openwatcom-1.9/bld/wv/c/dbgdll.c)
0004:4930      DLLMatch_
0004:49d2      DLLListName_
0004:49d6      NextDLLList_
0004:49f6      AddDLLList_
0004:4a2e      BreakOnImageLoad_
0004:4a98      InitDLLList_
0004:4aa2      FiniDLLList_
0004:4ac0      RecordClearDLLBreaks_
0004:4b1a      RecordSetDLLBreaks_
000a:68b0      _DLLList
Module: dlgscan.obj(/mnt/sda5/.user/root/src/openwatcom-1.9/bld/wv/c/dlgscan.c)
0004:4cdc      DlgScanLong_
0004:4cf0*     DlgScanSyntax_
0004:4d12      DlgScanCodeAddr_
0004:4d26      DlgScanDataAddr_
0004:4d3a      DlgScanGivenAddr_
0004:4d4e      DlgScanAny_
0004:4d62      DlgScanString_
0004:4d96      DlgScanModName_
Module: dbgset.obj(/mnt/sda5/.user/root/src/openwatcom-1.9/bld/wv/c/dbgset.c)
0004:4e28      SwitchOnOff_
0004:4e68      ShowSwitch_
0004:4ec6      ProcSet_
0004:4ee6      ConfigSet_
0004:5098      LangSetInit_
0004:50f6      LangSetFini_
0004:5110      NewLang_
0004:57b2      PendingToggles_
0004:5f4a      SupportFini_
0004:611c      IsSupportRoutine_
Module: srcmgt.obj(/mnt/sda5/.user/root/src/openwatcom-1.9/bld/watcom/c/srcmgt.c)
0004:628c      FClearOpenSourceCache_
0004:62c0      FOpenSource_
0004:63b2      FSize_
0004:63ea      FLastOffset_
0004:6406      FileIsRemote_
0004:642a      FGetName_
0004:643a      FDoneSource_
0004:6748      FCurrLine_
0004:6754      FReadLine_
000a:1880+     _FileList
Module: dbgupdt.obj(/mnt/sda5/.user/root/src/openwatcom-1.9/bld/wv/c/dbgupdt.c)
0004:68e0      DbgUpdate_
Module: symcomp.obj(/mnt/sda5/.user/root/src/openwatcom-1.9/bld/wv/c/symcomp.c)
0004:6a10      SymCompInit_
0004:6b60      SymCompFini_
0004:6bb4      SymCompMatches_
000a:1890+     _SortedNames
Module: litengin.obj(/mnt/sda5/.user/root/src/openwatcom-1.9/bld/wv/c/litengin.c)
000a:68e0      __LITMSTR_SIGNED
000a:68e4      __LITMSTR_HALF
000a:68e8      __LITMSTR_HWORD
000a:68ec      __LITMSTR_MMX
000a:68f0      __LITMSTR_XMM
000a:68f4      __LITMSTR_UNSIGNED
000a:68f8      __LITMSTR_DBLW
000a:68fc      __LITMSTR_INT
000a:6900      __LITMSTR_MPSEUDOINS
000a:6904      __LITMSTR_REG_USER
000a:6908      __LITMSTR_REG_SYMBOLIC
000a:690c      __LITMSTR_MVAX
000a:6910      __LITMSTR_F_FLOAT
000a:6914      __LITMSTR_G_FLOAT
000a:6918      __LITMSTR_D_FLOAT
000a:691c      __LITMSTR_VAX
000a:6920      __LITMSTR_REG_NUMERIC
000a:6924      __LITMSTR_IEEE
000a:6928      __LITMSTR_PSEUDOINS
000a:692c      __LITMSTR_MSYMBOLIC
000a:6930      __LITMSTR_INT64
000a:6934      __LITMSTR_N64_PTR
000a:6938      __LITMSTR_AFFINE
000a:693c      __LITMSTR_RAWINS
000a:6940      __LITMSTR_MOS
000a:6944      __LITMSTR_REG_OS
000a:6948      __LITMSTR_UNSIGNED64
000a:694c      __LITMSTR_PCDOUBLE
000a:6950      __LITMSTR_DOWN
000a:6954      __LITMSTR_UP
000a:6958      __LITMSTR_CHOP
000a:695c      __LITMSTR_ZERO
000a:6960      __LITMSTR_PCEXTENDED
000a:6964      __LITMSTR_EMPTY
000a:6968      __LITMSTR_HEX
000a:696c      __LITMSTR_REG_NORMAL
000a:6970      __LITMSTR_REG_EXTENDED
000a:6974      __LITMSTR_PCZERO
000a:6978      __LITMSTR_VALID
000a:697c      __LITMSTR_PROJECTIVE
000a:6980      __LITMSTR_MHEX
000a:6984      __LITMSTR_SPECIAL
000a:6988      __LITMSTR_PCSINGLE
000a:698c      __LITMSTR_DECIMAL
000a:6990      __LITMSTR_MEXTENDED
000a:6994      __LITMSTR_NEAREST
000a:6998      __LITMSTR_UPPER
000a:699c      __LITMSTR_MINSIDE
000a:69a0      __LITMSTR_OUTSIDE
000a:69a4      __LITMSTR_MUPPER
000a:69a8      __LITMSTR_INSIDE
000a:69ac      __LITMSTR_FPU
000a:69b0      __LITMSTR_FAR
000a:69b4      __LITMSTR_LOWER
000a:69b8      __LITMSTR_INTERRUPT
000a:69bc      __LITMSTR_FLOAT
000a:69c0      __LITMSTR_N32_PTR
000a:69c4      __LITMSTR_CPU
000a:69c8      __LITMSTR_F32_PTR
000a:69cc      __LITMSTR_NONE
000a:69d0      __LITMSTR_F16_PTR
000a:69d4      __LITMSTR_EXTENDED
000a:69d8      __LITMSTR_EMULATOR
000a:69dc      __LITMSTR_DOUBLE
000a:69e0      __LITMSTR_NEAR
000a:69e4      __LITERR_CANT_RESTART
000a:69e8      __LITMSTR_CHAR
000a:69ec      __LITMSTR_UCHAR
000a:69f0      __LITMSTR_QWORD
000a:69f4      __LITERR_AMBIG_SRC_FILE
000a:69f8      __LITMSTR_NIL
000a:69fc      __LITMSTR_LWORD
000a:6a00      __LITERR_NO_SRC_FILE
000a:6a04      __LITMSTR_N16_PTR
000a:6a08      __LITMSTR_LONG
000a:6a0c      __LITERR_BAD_PARSE_VERSION
000a:6a10      __LITMSTR_ULONG
000a:6a14      __LITERR_WANT_MODULE
000a:6a18      __LITERR_REMOTE_LINK_BROKEN
000a:6a1c      __LITMSTR_WORD
000a:6a20      __LITMSTR_DWORD
000a:6a24      __LITMSTR_SHORT
000a:6a28      __LITMSTR_BYTE
000a:6a2c      __LITMSTR_USHORT
000a:6a30      __LITERR_NEAR_TOKEN
000a:6a34      __LITERR_NO_RETURN_ADDRESS
000a:6a38      __LITERR_CALL_NOT_ALLOWED
000a:6a3c      __LITERR_NO_ACCESS
000a:6a40      __LITERR_NO_OBJECT_FOR_CALL
000a:6a44      __LITERR_NO_IMAGE
000a:6a48      __LITERR_EXECUTING_AT
000a:6a4c      __LITERR_NOT_PRINTABLE
000a:6a50      __LITERR_STK_UNDERFL
000a:6a54      __LITERR_TOO_MANY_SCANRESTORE
000a:6a58      __LITERR_PARSE_FILE
000a:6a5c      __LITERR_INVALID_OPERATOR
000a:6a60      __LITERR_NOT_WATCH_SIZE
000a:6a64      __LITERR_CALLED_FROM
000a:6a68      __LITERR_STK_OVERFL
000a:6a6c      __LITERR_NEAR_END_OF_LINE
000a:6a70      __LITERR_BAD_HOOK
000a:6a74      __LITERR_NEAR_END_OF_COMMAND
000a:6a78      __LITERR_TOO_MANY_SCANSAVE
000a:6a7c      __LITERR_CHAR_STAR_STAR
000a:6a80      __LITERR_BAD_SUBSTRING_INDEX
000a:6a84      __LITERR_CANT_KILL_PROGRAM
000a:6a88      __LITERR_WANT_END_STRING
000a:6a8c      __LITERR_EXPR_TOO_LONG
000a:6a90      __LITERR_NO_OVL_STATE
000a:6a94      __LITERR_NO_READ_PORT
000a:6a98      __LITERR_ZERO_MOD
000a:6a9c      __LITERR_NO_LANG
000a:6aa0      __LITERR_NO_WRITE_MEM
000a:6aa4      __LITERR_ZERO_DIV
000a:6aa8      __LITERR_NO_WRITE_PORT
000a:6aac      __LITERR_NO_MAKE_CURR_THREAD
000a:6ab0      __LITERR_WANT_COMMAND_LIST
000a:6ab4      __LITERR_NO_READ_MEM
000a:6ab8      __LITERR_TOO_MANY_CALLS
000a:6abc      __LITERR_NO_SUCH_THREAD
000a:6ac0      __LITERR_EXPR_STACK_OVER
000a:6ac4      __LITERR_CANT_SET_ALL_THREADS
000a:6ac8      __LITERR_UNKNOWN_SYMBOL
000a:6acc      __LITERR_NO_SUCH_POINT
000a:6ad0      __LITERR_VOID_BASE
000a:6ad4      __LITERR_SYS_FAIL
000a:6ad8      __LITERR_CANNOT_RESTORE_STDOUT
000a:6adc      __LITERR_FILE_NOT_OPEN
000a:6ae0      __LITERR_NEED_ADDRESS
000a:6ae4      __LITERR_SYM_NOT_CREATED
000a:6ae8      __LITERR_INCONSISTENT_GO
000a:6aec      __LITERR_NO_ROUTINE
000a:6af0      __LITERR_POINT_EXISTS
000a:6af4      __LITERR_TOO_MANY_PARMS
000a:6af8      __LITERR_DUPLICATE_TYPE_SPEC
000a:6afc      __LITERR_ILL_TYPE
000a:6b00      __LITERR_CANNOT_RESTORE_STDIN
000a:6b04      __LITERR_ILLEGAL_TYPE_SPEC
000a:6b08      __LITERR_NO_MODULE
000a:6b0c      __LITERR_TYPE_CONVERSION
000a:6b10      __LITERR_DBG_INTERRUPT
000a:6b14      __LITERR_WANT_EOC
000a:6b18      __LITERR_NO_MEMORY_FOR_EXPR
000a:6b1c      __LITERR_NO_MEMORY_FOR_DEBUG
000a:6b20      __LITERR_LOG_NOT_STARTED
000a:6b24      __LITERR_LOG_STARTED
000a:6b28      __LITERR_NO_MEMORY
000a:6b2c      __LITERR_NO_SOURCE_INFO
000a:6b30      __LITERR_WANT_ON_OFF
000a:6b34      __LITERR_WANT_REG_NAME
000a:6b38      __LITERR_NO_MEMORY_FOR_WINDOW
000a:6b3c      __LITERR_WANT_TOKEN
000a:6b40      __LITERR_WANT_NAME
000a:6b44      __LITERR_BAD_OPTION
000a:6b48      __LITERR_NO_CODE
000a:6b4c      __LITERR_WANT_OPERAND
000a:6b50+     __LITERR_BAD_TYPE_NAME
000a:6b54      __LITERR_WANT_FILENAME
000a:6b58      __LITERR_BAD_CALL_TYPE
000a:6b5c      __LITERR_WANT_LOOKUP_ITEM
000a:6b60      __LITLDS_INFO_BAD_VERSION
000a:6b64      __LITIO
000a:6b68      __LITBAD_TRAP_FILE
000a:6b6c      __LITLDS_INFO_INVALID
000a:6b70      __LITDIP_load_failed
000a:6b74      __LITNo_DIPs_Found
000a:6b78      __LITLMS_FREAD_FAILED
000a:6b7c      __LITSym_Info_Load_Failed
000a:6b80      __LITERR_GENERIC
000a:6b84      __LITLMS_INVALID_MAD_VERSION
000a:6b88      __LITERR_BAD_SUBCOMMAND
000a:6b8c      __LITERR_BAD_COMMAND
000a:6b90      __LITOUT_OF_DOS_MEMORY
000a:6b94      __LITINCORRECT_TRAP_FILE_VERSION
000a:6b98      __LITLMS_UNREGISTERED_MAD
000a:6b9c      __LITERR_BAD_RADIX
000a:6ba0      __LITLMS_INVALID_MAD
000a:6ba4      __LITCANT_LOAD_TRAP_FILE
000a:6ba8      __LITLMS_RECURSIVE_MAD_FAILURE
000a:6bac      __LITStr_ACTION_MODIFY_REGISTER
000a:6bb0      __LITUnknown_type
000a:6bb4      __LITLDS_INVALID_DIP_VERSION
000a:6bb8      __LITStr_ACTION_MODIFY_MEMORY
000a:6bbc      __LITinherited_members
000a:6bc0      __LITLDS_FSEEK_FAILED
000a:6bc4      __LITLDS_FREAD_FAILED
000a:6bc8      __LITLDS_FWRITE_FAILED
000a:6bcc      __LITStr_ACTION_THREAD_CHANGE
000a:6bd0      __LITLDS_TOO_MANY_DIPS
000a:6bd4      __LITStr_ACTION_MODIFY_IP
000a:6bd8      __LITLDS_NO_MEM
000a:6bdc      __LITStr_ACTION_ASSIGNMENT
000a:6be0      __LITLDS_INVALID_DIP
000a:6be4      __LITStr_ACTION_MODIFY_VARIABLE
000a:6be8      __LITStr_ACTION_EXECUTE
000a:6bec      __LITImage_Not_Loaded
000a:6bf0      __LITLDS_FOPEN_FAILED
000a:6bf4      __LITStruct
000a:6bf8      __LITfield
000a:6bfc      __LITTask_Exception
000a:6c00      __LITUser_Interupt
000a:6c04      __LITDead
000a:6c08      __LITNo_Visible_Members
000a:6c0c      __LITBottom_Of_Stack
000a:6c10      __LITThread_Not_Exist
000a:6c14      __LITRunnable
000a:6c18      __LITTop_Of_Stack
000a:6c1c      __LITDLL_UnLoaded
000a:6c20      __LITFrozen
000a:6c24      __LITArray
000a:6c28      __LITNew_Task
000a:6c2c      __LITNo_More_Undos
000a:6c30      __LITCurrent
000a:6c34      __LITNo_Task
000a:6c38      __LITDLL_Loaded
000a:6c3c      __LITBreak_on_DLL_Load
000a:6c40      __LITTask_Not_Loaded
000a:6c44      __LITSTARTUP_No_Recog_Optn
000a:6c48      __LITEnd_Of_Line
000a:6c4c      __LITDebugger_Startup_Error
000a:6c50+     __LITMSG_Unexpected_Break
000a:6c54      __LITMap_Selector
000a:6c58      __LITSTARTUP_Expect_Eql
000a:6c5c      __LITInternal_Error
000a:6c60      __LITNewVal
000a:6c64      __LITSTARTUP_MAD_Not_Init
000a:6c68      __LITSTARTUP_Num_Too_Big
000a:6c6c      __LITMap_Named_Selector
000a:6c70      __LITBreak_on_execute
000a:6c74      __LITNum_Name
000a:6c78      __LITTask_Completed
000a:6c7c      __LITBreak_on_write
000a:6c80      __LITOldVal
000a:6c84      __LITNew_Expression
000a:6c88      __LITSym_Name_Name
000a:6c8c      __LITSTARTUP_Invalid_Num
000a:6c90      __LITWARN_ONLY_MAX_EXPAND_ARRAY_ELEMENTS
000a:6c94      __LITQuest_Marks
000a:6c98      __LITEmpty
000a:6c9c      __LITSTARTUP_Expect_Brace
000a:6ca0      __LITSTARTUP_Loading_PRS
000a:6ca4      __LITSTARTUP_Invalid_Option
000a:6ca8      __LITSTARTUP_Expect_End_Env_Str
000a:6cac      __LITSTARTUP_DIP_Not_Init
000a:6cb0      __LITSTARTUP_DIP_Not_Register
0004:6c90      InitEngineLiterals_
0004:7b12      FiniEngineLiterals_
000a:6cb4+     __LITWARN_Unable_To_Remap_Tmp
000a:6cb8      __LITWARN_No_Nxt_Src_Ln
Module: litwd.obj(/mnt/sda5/.user/root/src/openwatcom-1.9/bld/wv/c/litwd.c)
000a:6cc0      __LITDOS_invalid_drive
000a:6cc4+     __LITUnable_to_get_rm_sel
000a:6cc8+     __LITUnable_to_alloc_DOS_mem
000a:6ccc      __LITDOS_remove_cd
000a:6cd0      __LITDOS_not_same_device
000a:6cd4      __LITDOS_access_denied
000a:6cd8      __LITDOS_too_many_open_files
000a:6cdc      __LITDOS_invalid_format
000a:6ce0      __LITDOS_memory_control
000a:6ce4      __LITDOS_invalid_address
000a:6ce8+     __LITERR_NOT_PROCEDURE
000a:6cec      __LITDOS_invalid_environment
000a:6cf0      __LITDOS_path_not_found
000a:6cf4+     __LITERR_CANT_GET_RV
000a:6cf8      __LITDOS_invalid_handle
000a:6cfc      __LITDOS_invalid_access_code
000a:6d00      __LITDOS_insufficient_memory
000a:6d04      __LITDOS_invalid_function
000a:6d08      __LITERR_RX_10
000a:6d0c      __LITERR_RX_11
000a:6d10      __LITERR_RX_12
000a:6d14      __LITERR_RX_13
000a:6d18      __LITDOS_file_not_found
000a:6d1c      __LITDOS_invalid_data
000a:6d20      __LITERR_RX_7
000a:6d24      __LITERR_RX_4
000a:6d28      __LITERR_RX_5
000a:6d2c      __LITERR_RX_2
000a:6d30      __LITERR_RX_3
000a:6d34      __LITERR_RX_1
000a:6d38      __LITERR_MACRO_NOT_VALID
000a:6d3c      __LITERR_WANT_MENU_ITEM
000a:6d40+     __LITUnable_to_init_ui
000a:6d44      __LITERR_BAD_TAB
000a:6d48      __LITERR_BAD_DCLICK
000a:6d4c      __LITERR_BAD_ARRAY_INDEX
000a:6d50      __LITERR_WIND_NOT_OPEN
000a:6d54      __LITERR_BAD_COLOUR_ATTR
000a:6d58      __LITERR_BAD_WIND_NAME
000a:6d5c      __LITERR_MATCH_NOT_SUPPORTED
000a:6d60      __LITERR_RX_8
000a:6d64      __LITERR_RX_9
000a:6d68      __LITERR_RX_6
000a:6d6c      __LITWindowXMM
000a:6d70      __LITID
000a:6d74      __LITWindowReplay
000a:6d78      __LITNo_Source_Line
000a:6d7c      __LITWindowFPU
000a:6d80      __LITNo_text_to_complete
000a:6d84      __LITWindowAccelerator
000a:6d88      __LITWindowModules
000a:6d8c      __LITWindowSearch
000a:6d90      __LITWindowMMX
000a:6d94      __LITWindowGlobal_Functions
000a:6d98      __LITWindowCalls
000a:6d9c      __LITExecutable_File
000a:6da0      __LITWindowFunctions
000a:6da4      __LITERR_BAD_WINDOW_ATTR
000a:6da8      __LITDebug_Information_Type
000a:6dac      __LITDebug_Information
000a:6db0      __LITNo_Match_Found
000a:6db4      __LITState
000a:6db8      __LITWindowLocals
000a:6dbc      __LITWindowAssembly
000a:6dc0      __LITWindowWatches
000a:6dc4      __LITWindowStack
000a:6dc8      __LITWindowRegisters
000a:6dcc      __LITWindowGlobals
000a:6dd0      __LITWindowCurrent
000a:6dd4      __LITWindowLog
000a:6dd8      __LITWindowImages
000a:6ddc      __LITWindowFile_Variables
000a:6de0      __LITWindowFileView
000a:6de4      __LITWindowVariable
000a:6de8      __LITWindowThreads
000a:6dec      __LITWindowBinary
000a:6df0      __LITWindowMemory
000a:6df4      __LITWindowSource
000a:6df8      __LITWindowIO_Ports
000a:6dfc      __LITWindowTmpFile
000a:6e00      __LITWindowBrk
000a:6e04      __LITBreakpoint_File_Name
000a:6e08      __LITDLL_Name
000a:6e0c      __LITCancel
000a:6e10      __LITSymbol_List
000a:6e14      __LITConfiguration_File_Name
000a:6e18      __LITSymbol_File
000a:6e1c      __LITThe_WATCOM_Debugger
000a:6e20      __LITOK
000a:6e24      __LITError
000a:6e28      __LITAbout_The_WATCOM_Debugger
000a:6e2c      __LITModules
000a:6e30      __LITDlgBreak
000a:6e34      __LITReplay_File_Name
000a:6e38      __LITWindowAll
000a:6e3c      __LITXModule_
000a:6e40      __LITNew_Source
000a:6e44      __LITProgram_Name
000a:6e48      __LITGoWhere
000a:6e4c      __LITXSymbol_
000a:6e50      __LITEnter_New_Command
000a:6e54      __LITEnter_Window
000a:6e58      __LITmac_main_menu
000a:6e5c+     __LITThe_WATCOM_Debugger_for_PowerBuilder
000a:6e60      __LITMacro_Type
000a:6e64      __LITmac_command_string
000a:6e68      __LITMac_Window
000a:6e6c      __LITRedefine_Key
000a:6e70      __LITmac_popup_menu
000a:6e74      __LITNew_Offset
000a:6e78      __LITDefinition
000a:6e7c      __LITNew_Port_Addr
000a:6e80      __LITNew_Line
000a:6e84      __LITPress_the_Key
000a:6e88      __LITNew_Addr
000a:6e8c      __LITMem_Addr
000a:6e90      __LITNew_Module
000a:6e94      __LITEnter_File_Name
000a:6e98      __LITKey_Name
000a:6e9c+     __LITPowerBuilder_Not_Running
000a:6ea0      __LITWARN_Asynch_Event
000a:6ea4      __LITWARN_Cycle_Detected
000a:6ea8      __LITWARN_Losing_Redo
000a:6eac      __LITWARN_Incomplete_Undo
0004:86b0      DUIInitLiterals_
0004:8e58      DUIFiniLiterals_
000a:6eb0+     __LITPowerBuilder_Debugger_Already_Running
000a:6eb4      __LITWARN_Program_Will_Slow
000a:6eb8+     __LITWARN_Unable_To_Remap
000a:6ebc      __LITWARN_Kill_PowerBuilder
000a:6ec0+     __LITFirst_UI_Message
000a:6ec4      __LITWARN_Source_Not_Available
Module: dui.obj(/mnt/sda5/.user/root/src/openwatcom-1.9/bld/wv/c/dui.c)
0004:9488      DUIUpdate_
0004:94aa      DUIStatusText_
0004:94b6      DUIMsgBox_
0004:94c2      DUIDlgTxt_
0004:94ce      DUIInfoBox_
0004:94da      DUIStop_
0004:94e6      DUIClose_
0004:94f2      DUIInit_
0004:9576      DUIFini_
0004:95ce      DUIFreshAll_
0004:95da      DUIStopRefresh_
0004:95e8      DUIShow_
0004:9634      DUIWndUser_
0004:9640      DUIWndDebug_
0004:964c      DUIShowLogWindow_
0004:965e      ReqWndName_
0004:9698      DUIGetMonitorType_
0004:96ce      DUIScreenSizeY_
0004:96d2      DUIScreenSizeX_
0004:96d6      DUIErrorBox_
0004:96f2      DUIArrowCursor_
0004:9700      DUILoadString_
0004:970c      DUIAskIfAsynchOk_
0004:9740      DUIFlushKeys_
0004:974c      DUIPlayDead_
0004:975a      DUISysEnd_
0004:9768      DUISysStart_
0004:9774      DUIRingBell_
0004:9780      DUIProcPendingPaint_
0004:978c      DUIInfoRelease_
0004:97aa      DUIHourGlass_
0004:97b6      WndDoInput_
0004:97c6      DUIExitCriticalSection_
0004:97c6      DUIEnterCriticalSection_
0004:97c8      DUIGetSourceLine_
0004:982e      DUIIsDBCS_
0004:983a      DUIEnvLkup_
0004:984c      DUIDirty_
0004:985e      DUISrcOrAsmInspect_
0004:9878      DUIAddrInspect_
0004:9892      DUIRemoveBreak_
0004:989e      StartupErr_
0004:98b2      DUICopyCopied_
0004:98b2      DUICopySize_
0004:98b4*     DUISymbolsCancelled_
0004:98b4      DUICopyCancelled_
0004:98b8      DUIImageLoaded_
Module: dbgwset.obj(/mnt/sda5/.user/root/src/openwatcom-1.9/bld/wv/c/dbgwset.c)
0004:99b6      DClickSet_
0004:9a0a      DClickConf_
0004:9a36      InputSet_
0004:9aa8      InputConf_
0004:9af6      LookUpCtrlKey_
0004:9b6e      KeyName_
0004:9e40      MacAddDel_
0004:a028      MacroSet_
0004:a12a      MacroConf_
0004:a1f4      FiniMacros_
0004:a288      TabIntervalGet_
0004:a28c      TabIntervalSet_
0004:a2a6      TabSet_
0004:a304      TabConf_
0004:a338      SearchSet_
0004:a40a      SearchConf_
Module: dbginsp.obj(/mnt/sda5/.user/root/src/openwatcom-1.9/bld/wv/c/dbginsp.c)
0004:a4ce      WndTmpFileInspect_
0004:a628      WndFileInspect_
0004:a738      WndFuncInspect_
0004:a766      WndGblFuncInspect_
0004:a796      WndGblVarInspect_
0004:a7c6      WndMemInspect_
0004:a822      WndIOInspect_
0004:a856      WndAddrInspect_
0004:a878      WndAsmInspect_
0004:aa28      WndSrcInspect_
0004:aa70      WndSrcOrAsmInspect_
0004:aaaa      WndNewSrcInspect_
0004:aac6      WndModInspect_
0004:ab70      WndModListInspect_
0004:acac      WndInspectExprSP_
0004:ace0      WndInspect_
0004:ad2a      WndClassInspect_
0004:ad56      WndVarInspect_
Module: dbgicon.obj(/mnt/sda5/.user/root/src/openwatcom-1.9/bld/wv/c/dbgicon.c)
000a:1b48      _MainIcon
000a:1b50      _AsmIcon
000a:1b58      _BrkIcon
000a:1b60      _CallIcon
000a:1b68      _FPUIcon
000a:1b70      _MMXIcon
000a:1b78      _XMMIcon
000a:1b80      _FuncIcon
000a:1b88      _GlobIcon
000a:1b90      _AclIcon
000a:1b98      _ImgIcon
000a:1ba0      _IOIcon
000a:1ba8      _LogIcon
000a:1bb0      _MemIcon
000a:1bb8      _ModIcon
000a:1bc0      _RegIcon
000a:1bc8      _RepIcon
000a:1bd0      _SrcIcon
000a:1bd8      _SrchIcon
000a:1be0      _StkIcon
000a:1be8      _TrdIcon
000a:1bf0      _VarIcon
000a:1bf8      _LocIcon
000a:1c00      _WatIcon
Module: dbgdisp.obj(/mnt/sda5/.user/root/src/openwatcom-1.9/bld/wv/c/dbgdisp.c)
0004:ae6e      ScanStatus_
0004:aeea      GetWndFont_
0004:af1a      WndFontHook_
0004:af70      WndMainClientSize_
0004:af84      WndMainResized_
0004:b02e      WndResizeHook_
0004:b0ae      InitFont_
0004:b0ca      FiniFont_
0004:b154      ProcFont_
0004:b2b0      ConfigFont_
0004:b2e2*     FontChange_
0004:b744      ProcDisplay_
0004:b840      ConfigDisp_
000a:6f58+     _WndMainRect
000a:6f60      _WndPosition
Module: dbgpaint.obj(/mnt/sda5/.user/root/src/openwatcom-1.9/bld/wv/c/dbgpaint.c)
000a:1c52      _WndStatusColour
000a:1c54      _WndPlainAttr
000a:1c55      _WndSelectedAttr
000a:1c56      _WndCursorAttr
000a:1c69      _WndColours
000a:1c92      _WndNumColours
0004:bb50      WndMapTabAttr_
0004:bc24      ProcPaint_
0004:be0c      ProcPendingPaint_
0004:bed6      FiniPaint_
0004:bf0c      GetWndColours_
0004:c20c      ConfigPaint_
0004:c282      InitPaint_
000a:1e0c*     _WndTabStopAttr
Module: dbgcap.obj(/mnt/sda5/.user/root/src/openwatcom-1.9/bld/wv/c/dbgcap.c)
0004:c290      CaptureError_
0004:c2f0      ProcCapture_
Module: wndalloc.obj(/mnt/sda5/.user/root/src/openwatcom-1.9/bld/wv/c/wndalloc.c)
0004:c3d0      WndNoMemory_
0004:c3ea      WndAlloc_
0004:c3f6      WndRealloc_
0004:c402      WndFree_
0004:c40e*     WndMemFini_
0004:c41a      WndMemInit_
Module: dlgambig.obj(/mnt/sda5/.user/root/src/openwatcom-1.9/bld/wv/c/dlgambig.c)
0004:c432      DUIDisambiguate_
Module: dlgscomp.obj(/mnt/sda5/.user/root/src/openwatcom-1.9/bld/wv/c/dlgscomp.c)
0004:c4d8      DlgGetMatchString_
0004:c56c      SymComplete_
Module: modcomp.obj(/mnt/sda5/.user/root/src/openwatcom-1.9/bld/wv/c/modcomp.c)
0004:c71a      ModComplete_
Module: wndsys.obj(/mnt/sda5/.user/root/src/openwatcom-1.9/bld/wv/c/wndsys.c)
000a:1e20      _WndGadgetHint
000a:1e6c      _WndGadgetArray
000a:1fa4      _WndGadgetArraySize
000a:1fa6      _WndGadgetSecondary
000a:1fa8      _WndGadgetAttr
000a:2120+     _WndNormal
000a:2128      _WndLong
000a:2130+     _WndMemMetrics
000a:2138+     _WndWide
000a:2140+     _WndWideLong
000a:2148+     _WndFileMetrics
000a:2150      _WndMetrics
000a:21cc*     _NoMetrics
0004:c904      DbgWndSearch_
0004:c912+     ProcPUINYI_
0004:c930      ProcWndSearch_
0004:c95e+     ProcWndTabLeft_
0004:c970+     ProcWndTabRight_
0004:c982      ProcSearchAll_
0004:c9c0+     ProcWndPopUp_
0004:c9d4      ProcWndFindNext_
0004:c9ea      ProcWndFindPrev_
0004:ca26      ProcWindow_
0004:ca6c      WndSysStart_
0004:ca78      WndSysEnd_
0004:ca84      WndStop_
0004:ca9a      WndUser_
0004:caec      WndDebug_
0004:cb4a      WndRedraw_
0004:cc90      WndProcMacro_
0004:cd76      WndSysInit_
0004:cdac      SetUnderLine_
0004:cde6      SetGadgetLine_
0004:cdfc      FiniGadget_
0004:ce36      InitGadget_
0004:cea6      OpenGadget_
0004:ced6      CheckOpenGadget_
0004:cf26      WndStartFreshAll_
0004:cf32      WndEndFreshAll_
0004:cf3e      WndFlushKeys_
0004:cf4a      WndMsgBox_
0004:cf72      WndInfoBox_
0004:cfa4      WndSetOpenNoShow_
0004:cfaa      DbgTitleWndCreate_
0004:d17e      DbgWndCreate_
0004:d1b8      WndRXError_
000a:71c4      _MaxGadgetLength
Module: wnddump.obj(/mnt/sda5/.user/root/src/openwatcom-1.9/bld/wv/c/wnddump.c)
0004:d480      WndDumpPrompt_
0004:d4a4      WndDumpFile_
0004:d520      WndDumpLog_
Module: dlgabout.obj(/mnt/sda5/.user/root/src/openwatcom-1.9/bld/wv/c/dlgabout.c)
0004:d542      DlgAbout_
Module: dlgstk.obj(/mnt/sda5/.user/root/src/openwatcom-1.9/bld/wv/c/dlgstk.c)
0004:d6a2      DlgUpTheStack_
0004:d6b0      DlgBackInTime_
0004:d6f0      DlgIncompleteUndo_
Module: dlgayn.obj(/mnt/sda5/.user/root/src/openwatcom-1.9/bld/wv/c/dlgayn.c)
0004:d7d0      DlgAreYouNuts_
Module: dlgsrc.obj(/mnt/sda5/.user/root/src/openwatcom-1.9/bld/wv/c/dlgsrc.c)
0004:d810      DlgSource_
Module: dlgdll.obj(/mnt/sda5/.user/root/src/openwatcom-1.9/bld/wv/c/dlgdll.c)
0004:d860      DlgBreakDLL_
Module: dlglist.obj(/mnt/sda5/.user/root/src/openwatcom-1.9/bld/wv/c/dlglist.c)
0004:dc3e      DlgList_
Module: dlgfile.obj(/mnt/sda5/.user/root/src/openwatcom-1.9/bld/wv/c/dlgfile.c)
0004:de56      SetLastExe_
0004:de6e*     GetLastExe_
0004:de76*     SetLastCfg_
0004:ded6      InitBrowse_
0004:df44      FiniBrowse_
0004:e070      ProcConfigFile_
0004:e0c4      WndShutDownHook_
0004:e15a      ConfigSave_
0004:e1d4      BreakSave_
0004:e244      ReplaySave_
0004:e2c2      FileBrowse_
0004:e304      ExeBrowse_
0004:e32e      SymBrowse_
0004:e350      AllBrowse_
0004:e37a      GetDmpName_
Module: dlgnewp.obj(/mnt/sda5/.user/root/src/openwatcom-1.9/bld/wv/c/dlgnewp.c)
0004:e582      DlgNewProg_
Module: dlgexpr.obj(/mnt/sda5/.user/root/src/openwatcom-1.9/bld/wv/c/dlgexpr.c)
0004:e612      DlgGetLong_
0004:e62e      DlgGetCodeAddr_
0004:e64a      DlgGetDataAddr_
0004:e666      DlgSetLong_
0004:e734      DlgLongExpr_
0004:e780      DlgAnyExpr_
0004:e7f0      DlgCodeAddr_
0004:e834      DlgDataAddr_
0004:e878      DlgGivenAddr_
0004:e8a6      DlgModName_
0004:e90e      DlgString_
0004:e936      DlgMadTypeExpr_
Module: dlgbreak.obj(/mnt/sda5/.user/root/src/openwatcom-1.9/bld/wv/c/dlgbreak.c)
0004:f3b4      DlgBreak_
Module: dlgvarx.obj(/mnt/sda5/.user/root/src/openwatcom-1.9/bld/wv/c/dlgvarx.c)
0004:f680      DlgVarExpand_
Module: dlgcmd.obj(/mnt/sda5/.user/root/src/openwatcom-1.9/bld/wv/c/dlgcmd.c)
0004:f86e      DlgCmd_
Module: dlgnewws.obj(/mnt/sda5/.user/root/src/openwatcom-1.9/bld/wv/c/dlgnewws.c)
0004:f988      DlgNewWithMod_
0004:f99e      DlgNewWithSym_
Module: wndhelp.obj(/mnt/sda5/.user/root/src/openwatcom-1.9/bld/wv/c/wndhelp.c)
0004:fa00      InitHelp_
0004:fa32      FiniHelp_
0004:fb58      DoProcHelp_
0004:fbf8      ProcHelp_
Module: wndmenu.obj(/mnt/sda5/.user/root/src/openwatcom-1.9/bld/wv/c/wndmenu.c)
0005:0002      PlayDead_
0005:017a      GetMenuLabel_
0005:02c8      AccelMenuItem_
0005:0526      ProcAccel_
0005:0632      SetBrkMenuItems_
0005:067c      SetLogMenuItems_
0005:069c      SetMADMenuItems_
0005:072a      SetTargMenuItems_
0005:0798      InitMenus_
0005:07d8      FiniMenus_
0005:07ea      WndMenuSetHotKey_
0005:08d8      AddMenuAccel_
0005:0a5e      WndMainMenuProc_
000a:2842      _WndMainMenu
000a:28f6      _WndNumMenus
000a:28f8      _WndInfoTab
000a:2974      _MainTab
Module: dbgwfpu.obj(/mnt/sda5/.user/root/src/openwatcom-1.9/bld/wv/c/dbgwfpu.c)
0005:12f0      FPUChangeOptions_
0005:130a      WndFPUOpen_
Module: dbgwmac.obj(/mnt/sda5/.user/root/src/openwatcom-1.9/bld/wv/c/dbgwmac.c)
0005:15a2      MacKeyHit_
0005:22f8      WndMacOpen_
000a:2a84      _MacInfo
Module: dbgwglob.obj(/mnt/sda5/.user/root/src/openwatcom-1.9/bld/wv/c/dbgwglob.c)
0005:239e+     GlobMenuItem_
0005:24d2+     GlobNumRows_
0005:24ec+     GlobGetLine_
0005:254c      GlobNewMod_
0005:2586+     GlobRefresh_
0005:25e6+     GlobEventProc_
0005:264e      GlobChangeOptions_
0005:2668      DoWndGlobOpen_
0005:26aa      WndGlobOpen_
000a:2aba+     _GlobMenu
000a:2b14      _GlobInfo
Module: dbgwfunc.obj(/mnt/sda5/.user/root/src/openwatcom-1.9/bld/wv/c/dbgwfunc.c)
0005:2b90      FuncNewMod_
0005:2da4      FuncChangeOptions_
0005:2dbe      DoWndFuncOpen_
0005:2e32      WndFuncOpen_
0005:2e48      WndGblFuncOpen_
000a:2bb6      _FuncInfo
Module: dbgwcall.obj(/mnt/sda5/.user/root/src/openwatcom-1.9/bld/wv/c/dbgwcall.c)
0005:337a      WndCallOpen_
000a:2c58      _CallInfo
Module: dbgwmod.obj(/mnt/sda5/.user/root/src/openwatcom-1.9/bld/wv/c/dbgwmod.c)
0005:39ca      ModNewHandle_
0005:3bd0      ModChangeOptions_
0005:3bea      DoWndModOpen_
0005:3c2c      WndModOpen_
000a:2d0c      _ModInfo
Module: dbgwsrch.obj(/mnt/sda5/.user/root/src/openwatcom-1.9/bld/wv/c/dbgwsrch.c)
0005:4674      WndSrchOpen_
000a:2d54      _SrchInfo
Module: dbgwdlg.obj(/mnt/sda5/.user/root/src/openwatcom-1.9/bld/wv/c/dbgwdlg.c)
0005:4790      DlgInfoRelease_
0005:4918      WndDlgTxt_
0005:49a4      WndDlgFini_
0005:4a48      WndDlgOpen_
000a:2d9c      _LogInfo
Module: dbgwfil.obj(/mnt/sda5/.user/root/src/openwatcom-1.9/bld/wv/c/dbgwfil.c)
0005:4aa6      SrcJoinAsm_
0005:4abc      SrcNewAsmNotify_
0005:4b72      SrcFreeAsm_
0005:5476      FileOpenGadget_
0005:5532      FileBreakGadget_
0005:5d42      SrcMoveDot_
0005:5ee4      SrcWndFind_
0005:5f94      SrcHasFileOpen_
0005:63ea      DoWndFileOpen_
0005:66c6      DoWndSrcOpen_
0005:66fe      WndSrcOpen_
0005:67ae      ProcView_
000a:2ece      _FileInfo
Module: dbgwass.obj(/mnt/sda5/.user/root/src/openwatcom-1.9/bld/wv/c/dbgwass.c)
0005:6d90      AsmJoinSrc_
0005:6da6      AsmNewSrcNotify_
0005:705e      AsmMoveDot_
0005:722c      AsmWndFind_
0005:727e      AsmFreeSrc_
0005:73e2      AsmOpenGadget_
0005:8e24      AsmChangeOptions_
0005:8e3c      DoWndAsmOpen_
0005:8f68      WndAsmOpen_
000a:3000      _AsmInfo
Module: dbgwimg.obj(/mnt/sda5/.user/root/src/openwatcom-1.9/bld/wv/c/dbgwimg.c)
0005:945e      WndImgOpen_
000a:30a2      _ImgInfo
Module: dbgwbrk.obj(/mnt/sda5/.user/root/src/openwatcom-1.9/bld/wv/c/dbgwbrk.c)
0005:9a60      WndBrkOpen_
000a:3168      _BrkInfo
Module: dbgwio.obj(/mnt/sda5/.user/root/src/openwatcom-1.9/bld/wv/c/dbgwio.c)
0005:a0f0      SetIOMenuItems_
0005:a112      InitIOWindow_
0005:a208      FiniIOWindow_
0005:a28a      IONewAddr_
0005:a2c2      DoWndIOOpen_
0005:a3c6      WndIOOpen_
000a:3210      _IOInfo
Module: dbgwrep.obj(/mnt/sda5/.user/root/src/openwatcom-1.9/bld/wv/c/dbgwrep.c)
0005:a854      WndRepOpen_
000a:327c      _RepInfo
Module: dbgwmem.obj(/mnt/sda5/.user/root/src/openwatcom-1.9/bld/wv/c/dbgwmem.c)
0005:af88      MemSetLength_
0005:af9a      MemSetFollow_
0005:c624      InitMemWindow_
0005:c74a      FiniMemWindow_
0005:c94a      DoWndMemOpen_
0005:c9e0      WndMemOpen_
0005:ca00      WndStkOpen_
0005:ca8a      DoWndBinOpen_
000a:3400      _BinInfo
000a:3436      _MemInfo
000a:346c+     _StkInfo
Module: dbgwregs.obj(/mnt/sda5/.user/root/src/openwatcom-1.9/bld/wv/c/dbgwregs.c)
0005:caf0      RegChangeOptions_
0005:cb0a      WndRegOpen_
Module: dbgwmmx.obj(/mnt/sda5/.user/root/src/openwatcom-1.9/bld/wv/c/dbgwmmx.c)
0005:cb30      MMXChangeOptions_
0005:cb4a      WndMMXOpen_
Module: dbgwxmm.obj(/mnt/sda5/.user/root/src/openwatcom-1.9/bld/wv/c/dbgwxmm.c)
0005:cb90      XMMChangeOptions_
0005:cbaa      WndXMMOpen_
Module: dbgwmadr.obj(/mnt/sda5/.user/root/src/openwatcom-1.9/bld/wv/c/dbgwmadr.c)
0005:da0c      MadRegChangeOptions_
0005:da28      WndMadRegOpen_
000a:34d8      _MadRegInfo
Module: dbgwtogl.obj(/mnt/sda5/.user/root/src/openwatcom-1.9/bld/wv/c/dbgwtogl.c)
0005:da80      WndAppendToggles_
0005:dbba      WndDeleteToggles_
Module: dbgwvar.obj(/mnt/sda5/.user/root/src/openwatcom-1.9/bld/wv/c/dbgwvar.c)
0005:dcd4      WndVarAdd_
0005:f1da      VarSaveWndToScope_
0005:f232      VarRestoreWndFromScope_
0005:f570      VarInfoRelease_
0005:f58a      VarUnMapScopes_
0005:f5a2      VarFreeScopes_
0005:f602      VarReMapScopes_
0005:f624      VarChangeOptions_
0005:f750      WndVarOpen_
0005:f75c      WndWatOpen_
0005:f76a      WndLclOpen_
0005:f778      WndFSVOpen_
0005:f81a      GraphicDisplay_
000a:37e0      _VarInfo
Module: dbgwthrd.obj(/mnt/sda5/.user/root/src/openwatcom-1.9/bld/wv/c/dbgwthrd.c)
0005:fb68      WndTrdOpen_
000a:3850      _TrdInfo
Module: dlgwind.obj(/mnt/sda5/.user/root/src/openwatcom-1.9/bld/wv/c/dlgwind.c)
0006:0476      DlgWndSet_
Module: dbgwdata.obj(/mnt/sda5/.user/root/src/openwatcom-1.9/bld/wv/c/dbgwdata.c)
000a:3890      _WndOpenTab
000a:390c      _WndNameTab
000a:7a70      _WndMacroList
Module: dlgoptn.obj(/mnt/sda5/.user/root/src/openwatcom-1.9/bld/wv/c/dlgoptn.c)
0006:085a      DlgOptSet_
Module: dbgtool.obj(/mnt/sda5/.user/root/src/openwatcom-1.9/bld/wv/c/dbgtool.c)
0006:08a2      InitToolBar_
0006:08da      FiniToolBar_
0006:08fe      WndToolOpen_
0006:092e      WndToolClose_
Module: dbgfing.obj(/mnt/sda5/.user/root/src/openwatcom-1.9/bld/wv/c/dbgfing.c)
0006:0952      FingClose_
0006:0b3a      FingOpen_
Module: helpio.obj(/mnt/sda5/.user/root/src/openwatcom-1.9/bld/wv/c/helpio.c)
0006:0c70      HelpFileLen_
0006:0c98      HelpRead_
0006:0ca4*     HelpWrite_
0006:0cb0      HelpSeek_
0006:0cd2      HelpTell_
0006:0cea      HelpOpen_
0006:0d08      HelpClose_
0006:0d16      HelpAccess_
0006:0d3c      HelpGetCWD_
0006:0d46      HelpSearchEnv_
Module: /mnt/sda5/.user/root/src/openwatcom-1.9/bld/aui/wini86/aui.lib(/mnt/sda5/.user/root/src/openwatcom-1.9/bld/aui/c/guimain.c)
000a:7a80+     _WndClickHook
000a:7a84      _WndScale
000a:7a8c      _WndMain
000a:7a90      _WndMax
000a:7a94*     _WndSwitches
000a:7a98      _WndScreen
000a:3ad0      _WndMaxDirtyRects
000a:3ad2+     _WndDClick
000a:3ad4      _WndIgnoreAllEvents
0006:0d62      WndGetDClick_
0006:0d66      WndSetDClick_
0006:0e94      WndInit_
0006:0ea2*     WndInitWithMenuRes_
0006:0eac      WndShowWndMain_
0006:0ec2      WndFini_
0006:0f00*     WndInitNumRows_
0006:1112      WndInstallClickHook_
0006:19c2+     WndHourCursor_
0006:1a12      WndArrowCursor_
0006:1a3c+     WndSetCursor_
0006:1a6e      WndHourGlass_
0006:1a88      WndMainEventProc_
Module: /mnt/sda5/.user/root/src/openwatcom-1.9/bld/gui/ui/wini86/gui.lib(/mnt/sda5/.user/root/src/openwatcom-1.9/bld/gui/ui/c/guigsysh.c)
0006:1ad0      GUIGetSysHandle_
Module: /mnt/sda5/.user/root/src/openwatcom-1.9/bld/ui/win/wini86/ui.lib(/mnt/sda5/.user/root/src/openwatcom-1.9/bld/ui/win/c/uikeyb.c)
0006:1b62+     PickOne_
0006:1d7d      HookRtn_
0006:1d95*     getkey_
0006:1da5*     checkkey_
0006:1dab      flushkey_
0006:1dbe      uicheckshift_
0006:1dbe*     checkshift_
0006:1dc2      initkeyboard_
0006:1ddb      finikeyboard_
0006:1dee      keyboardevent_
0006:1ea9*     WindowsMessageLoop_
Module: /mnt/sda5/.user/root/src/openwatcom-1.9/bld/ui/win/wini86/ui.lib(/mnt/sda5/.user/root/src/openwatcom-1.9/bld/ui/win/c/uibios.c)
0006:1f00      win_uisetmono_
0006:1f15      win_uisetcolor_
0006:1f28+     initmonitor_
0006:1f46      initbios_
0006:1fc0      uiclockdelay_
0006:1fd1      finibios_
0006:1fe1      physupdate_
Module: /mnt/sda5/.user/root/src/openwatcom-1.9/bld/gui/ui/wini86/gui.lib(/mnt/sda5/.user/root/src/openwatcom-1.9/bld/gui/ui/c/swap.c)
0006:2478      ToGraphical_
0006:24c4      ToCharacter_
0006:2510      InitSwapper_
0006:254e      FiniSwapper_
Module: /mnt/sda5/.user/root/src/openwatcom-1.9/bld/aui/wini86/aui.lib(/mnt/sda5/.user/root/src/openwatcom-1.9/bld/aui/c/wndutil.c)
0006:2580      WndCharCol_
0006:25b2      WndLastCharCol_
0006:25e0      WndPrevCharCol_
0006:25f6*     WndPrevChar_
0006:260e      WndCurrToGUIPoint_
0006:2622      WndCoordToGUIPoint_
0006:26b6      WndPieceIsTab_
0006:26e4*     WndPieceIsHot_
0006:2712      WndFindActive_
0006:275a      WndValid_
0006:279e      WndDirty_
0006:27cc      WndZapped_
0006:27f0      WndExtentX_
0006:282a      WndFindClass_
0006:286c      WndSetWndMax_
0006:28be      WndNext_
0006:28fc      WndForAllClass_
Module: /mnt/sda5/.user/root/src/openwatcom-1.9/bld/gui/ui/wini86/gui.lib(/mnt/sda5/.user/root/src/openwatcom-1.9/bld/gui/ui/c/guigmous.c)
0006:2960      GUIInitGraphicsMouse_
0006:2962      GUIInitMouse_
0006:2990      GUIFiniMouse_
0006:29b0      GUIGMouseOn_
0006:2a04      GUIGMouseOff_
0006:2a20      GUIHasCharRemap_
Module: /mnt/sda5/.user/root/src/openwatcom-1.9/bld/ui/win/wini86/ui.lib(/mnt/sda5/.user/root/src/openwatcom-1.9/bld/ui/c/uiinit.c)
0006:2a24      uistart_
0006:2a5f*     uiinit_
0006:2a7f      uistop_
0006:2a95*     uifini_
0006:2ab5      uiswap_
Module: /mnt/sda5/.user/root/src/openwatcom-1.9/bld/ui/win/wini86/ui.lib(/mnt/sda5/.user/root/src/openwatcom-1.9/bld/ui/c/uidata.c)
000a:3b76      _UIData
Module: /mnt/sda5/.user/root/src/openwatcom-1.9/bld/ui/win/wini86/ui.lib(/mnt/sda5/.user/root/src/openwatcom-1.9/bld/ui/c/uirfrsh.c)
0006:2bb2      uidorefresh_
Module: /mnt/sda5/.user/root/src/openwatcom-1.9/bld/aui/wini86/aui.lib(/mnt/sda5/.user/root/src/openwatcom-1.9/bld/aui/c/wndmem.c)
0006:2c70      WndMustAlloc_
0006:2c9e      WndMustRealloc_
Module: /mnt/sda5/.user/root/src/openwatcom-1.9/rel2/lib286/win/math87l.lib(ldcvt.c)
0006:2dec      _LDScale10x_
0006:33da      __LDcvt_
Module: /mnt/sda5/.user/root/src/openwatcom-1.9/rel2/lib286/win/emu87.lib(initemuw.asm)
0000:8000*     FJSRQQ
0000:0632*     FISRQQ
0000:1632      FIERQQ
0000:5c32      FIDRQQ
0000:a23d      FIWRQQ
0000:c000*     FJCRQQ
0000:4000*     FJARQQ
0000:0e32*     FICRQQ
0000:fe32*     FIARQQ
0006:3936      __init_87_emulator
0006:3975*     __fini_87_emulator
0006:3984*     _userfpe
Module: /mnt/sda5/.user/root/src/openwatcom-1.9/rel2/lib286/win/math87l.lib(fchop87)
0006:3994      __CHP
Module: /mnt/sda5/.user/root/src/openwatcom-1.9/rel2/lib286/win/math87l.lib(gcvt.c)
0006:39bb      gcvt_
Module: /mnt/sda5/.user/root/src/openwatcom-1.9/rel2/lib286/win/math87l.lib(strtod.c)
0006:4056+     __Strtold_
0006:421d      strtod_
Module: /mnt/sda5/.user/root/src/openwatcom-1.9/bld/aui/wini86/aui.lib(/mnt/sda5/.user/root/src/openwatcom-1.9/bld/aui/c/wndstat.c)
0006:d6d0      WndCreateStatusWindow_
0006:d6fa      WndHaveStatusWindow_
0006:d72c      WndCloseStatusWindow_
0006:d780      WndStatusText_
0006:d7f2      GUIClearStatusText_
0006:d822      WndResetStatusText_
0006:d834      WndInternalStatusText_
000a:7b06+     _WndStatusString
Module: /mnt/sda5/.user/root/src/openwatcom-1.9/bld/aui/wini86/aui.lib(/mnt/sda5/.user/root/src/openwatcom-1.9/bld/aui/c/wndhist.c)
0006:d8a0      WndInitHistory_
0006:d8ea      WndFiniHistory_
0006:d996      WndSaveToHistory_
0006:da84      WndPrevFromHistory_
0006:db70      WndNextFromHistory_
Module: /mnt/sda5/.user/root/src/openwatcom-1.9/bld/aui/wini86/aui.lib(/mnt/sda5/.user/root/src/openwatcom-1.9/bld/aui/c/wndcreat.c)
000a:7b60      _WndPopupMenuPtr
0006:dc32*     WndSetTitleSize_
0006:dc42      WndSetTitle_
0006:dc5c      WndGetTitle_
0006:e01c      WndCreateWithStruct_
0006:e05c      WndCreateWithStructAndMenuRes_
0006:e096      WndInitCreateStruct_
0006:e0e6*     WndCreate_
0006:e12e      WndDestroy_
0006:e1d0      WndClose_
0006:e1f8      WndSetMainMenuText_
0006:e238      WndSetIcon_
000a:3c10      _WndMainMenuPtr
Module: /mnt/sda5/.user/root/src/openwatcom-1.9/bld/aui/wini86/aui.lib(/mnt/sda5/.user/root/src/openwatcom-1.9/bld/aui/c/wnddirt.c)
0006:e39e      WndDirtyScreenRange_
0006:e3ba      WndDirtyScreenChar_
0006:e3d6      WndDirtyScreenPiece_
0006:e3ee      WndAdjustDirt_
0006:e424      WndDirtyScreenRow_
0006:e444*     WndDirtyRect_
0006:e498      WndRowDirty_
0006:e4d8      WndRowDirtyImmed_
0006:e53a      WndPieceDirty_
0006:e584      WndStopRefresh_
0006:e58e+     WndPaintDirt_
0006:e9b8      WndFreshAll_
000a:3c14      _WndDoingRefresh
Module: /mnt/sda5/.user/root/src/openwatcom-1.9/bld/aui/wini86/aui.lib(/mnt/sda5/.user/root/src/openwatcom-1.9/bld/aui/c/wndshrnk.c)
0006:ea50      WndShrinkToMouse_
0006:ebf2      WndMinimizeWindow_
0006:ec0c      WndMaximizeWindow_
0006:ec26      WndIsMinimized_
0006:ec78      WndIsMaximized_
0006:ec92      WndRestoreWindow_
0006:ecac      WndGetRect_
0006:ecc6      WndShowWindow_
0006:ece0      WndResizeWindow_
0006:ecfa      WndShowAll_
Module: /mnt/sda5/.user/root/src/openwatcom-1.9/bld/gui/ui/wini86/gui.lib(/mnt/sda5/.user/root/src/openwatcom-1.9/bld/gui/c/guiisgui.c)
0006:edc0      GUIIsGUI_
Module: /mnt/sda5/.user/root/src/openwatcom-1.9/bld/gui/ui/wini86/gui.lib(/mnt/sda5/.user/root/src/openwatcom-1.9/bld/gui/ui/c/guismetr.c)
0006:edd0      GUIGetSystemMetrics_
Module: /mnt/sda5/.user/root/src/openwatcom-1.9/bld/aui/wini86/aui.lib(/mnt/sda5/.user/root/src/openwatcom-1.9/bld/aui/c/wndmsg.c)
0006:eea0      WndDisplayMessage_
Module: /mnt/sda5/.user/root/src/openwatcom-1.9/bld/aui/wini86/aui.lib(/mnt/sda5/.user/root/src/openwatcom-1.9/bld/aui/c/wndldstr.c)
0006:eef0      WndLoadString_
Module: /mnt/sda5/.user/root/src/openwatcom-1.9/bld/gui/ui/wini86/gui.lib(/mnt/sda5/.user/root/src/openwatcom-1.9/bld/gui/ui/c/guiclen.c)
0006:ef70      GUICharLen_
0006:ef7c      GUIIsDBCS_
Module: /mnt/sda5/.user/root/src/openwatcom-1.9/bld/aui/wini86/aui.lib(/mnt/sda5/.user/root/src/openwatcom-1.9/bld/aui/c/wndfront.c)
0006:ef90      WndToFront_
0006:efaa      WndRestoreToFront_
0006:efde      WndNextNonIconToFront_
0006:f034      WndChooseNew_
Module: /mnt/sda5/.user/root/src/openwatcom-1.9/bld/aui/wini86/aui.lib(/mnt/sda5/.user/root/src/openwatcom-1.9/bld/aui/c/dlgsrch.c)
0006:f160+     RXEvent_
0006:f1b0      DlgClickHistory_
0006:f1ec      DlgSetHistory_
0006:f346      DlgHistoryKey_
0006:f4fe+     SrchEvent_
0006:f6d6      DlgSearch_
0006:f6e6      DlgSearchAll_
000a:3c16      _SrchIgnoreCase
000a:3c17      _SrchMagicChars
000a:3c2b      _SrchRX
000a:3c2c      _SrchIgnoreMagic
Module: /mnt/sda5/.user/root/src/openwatcom-1.9/bld/aui/wini86/aui.lib(/mnt/sda5/.user/root/src/openwatcom-1.9/bld/aui/c/wndcurr.c)
0006:f730      WndSetPoint_
0006:f984      WndGetCurrent_
0006:f9c2      WndNewCurrent_
0006:f9fe      WndMoveCurrent_
0006:fa64      WndHasCurrent_
0006:fa7a      WndNoCurrent_
0006:fa9c*     WndCurrRow_
0006:fab8      WndNextCurrent_
0006:fbc2      WndPrevCurrent_
0006:fcfe      WndFirstCurrent_
0006:fd1e      WndLastCurrent_
0006:fd62      WndCheckCurrentValid_
0006:fe20      WndCurrVisible_
0006:ff00      WndDirtyCurr_
0006:ff70      WndDirtyCurrChar_
0006:ffc4      WndSetCurrCol_
Module: /mnt/sda5/.user/root/src/openwatcom-1.9/bld/aui/wini86/aui.lib(/mnt/sda5/.user/root/src/openwatcom-1.9/bld/aui/c/wndpaint.c)
0007:0556+     WndPaintRows_
0007:06d0      WndProcPaint_
0007:06e8      WndForcePaint_
Module: /mnt/sda5/.user/root/src/openwatcom-1.9/bld/aui/wini86/aui.lib(/mnt/sda5/.user/root/src/openwatcom-1.9/bld/aui/c/wndcrsr.c)
0007:0720+     WndAtTop_
0007:0974      WndScrollUp_
0007:097e      WndCursorUp_
0007:099a      WndScrollDown_
0007:09a4      WndCursorDown_
0007:09e2      WndPageUp_
0007:0a04      WndPageDown_
0007:0a24      WndTabLeft_
0007:0b90      WndCursorLeft_
0007:0b9a      WndTabRight_
0007:0cd8      WndCursorRight_
0007:0ce2      WndScrollTop_
0007:0d12      WndScrollBottom_
0007:0d3e      WndCursorStart_
0007:0d58      WndCursorEnd_
Module: /mnt/sda5/.user/root/src/openwatcom-1.9/bld/aui/wini86/aui.lib(/mnt/sda5/.user/root/src/openwatcom-1.9/bld/aui/c/wndfont.c)
0007:0d80      WndSetFontInfo_
0007:0db4      WndSetSysFont_
0007:0dde      WndGetFontInfo_
Module: /mnt/sda5/.user/root/src/openwatcom-1.9/bld/gui/ui/wini86/gui.lib(/mnt/sda5/.user/root/src/openwatcom-1.9/bld/gui/c/guimem.c)
0007:0e10*     GUIMemPrtUsage_
0007:0e10      GUIMemClose_
0007:0e10      GUIMemOpen_
0007:0e10*     GUIMemRedirect_
0007:0e12      GUIMemAlloc_
0007:0e1e      GUIMemFree_
0007:0e2a      GUIMemRealloc_
0007:0e36*     GUIMemPrintLine_
Module: /mnt/sda5/.user/root/src/openwatcom-1.9/bld/aui/wini86/aui.lib(/mnt/sda5/.user/root/src/openwatcom-1.9/bld/aui/c/wndrect.c)
0007:0f64      WndPosToRect_
0007:0fe8      WndRectToPos_
Module: /mnt/sda5/.user/root/src/openwatcom-1.9/bld/gui/ui/wini86/gui.lib(/mnt/sda5/.user/root/src/openwatcom-1.9/bld/gui/ui/c/guistub.c)
0007:1060*     GUIIsControlEnabled_
0007:1060      GUIEnableControl_
0007:1060*     GUISetHorizontalExtent_
0007:1060      GUI3DDialogInit_
0007:1060      GUIFontsSupported_
0007:1060      GUISetSystemFont_
0007:1060      GUISetFontInfo_
0007:1060*     GUIChangeFont_
0007:1064      GUISetMouseCursor_
0007:1064      GUIGetFontFromUser_
0007:1064      GUIGetFontInfo_
0007:1068*     GUIScrollCaret_
0007:1068*     GUIShowControl_
0007:1068*     GUIHideControl_
0007:1068      GUIResetMouseCursor_
0007:106a*     GUISetEditSelect_
0007:1074*     GUIGetEditSelect_
Module: /mnt/sda5/.user/root/src/openwatcom-1.9/bld/gui/ui/wini86/gui.lib(/mnt/sda5/.user/root/src/openwatcom-1.9/bld/gui/c/guimin.c)
0007:1080      GUIGetMinSize_
Module: /mnt/sda5/.user/root/src/openwatcom-1.9/bld/aui/wini86/aui.lib(/mnt/sda5/.user/root/src/openwatcom-1.9/bld/aui/c/wndtool.c)
0007:10b0*     WndCreateToolBar_
0007:113a      WndCreateToolBarWithTips_
0007:11c4      WndHaveToolBar_
0007:11e0      WndCloseToolBar_
0007:1214      WndToolHeight_
0007:1218      WndToolFixed_
0007:1226      WndSetToolBar_
000a:7b66+     _ToolHeight
Module: /mnt/sda5/.user/root/src/openwatcom-1.9/bld/gui/ui/wini86/gui.lib(/mnt/sda5/.user/root/src/openwatcom-1.9/bld/gui/ui/c/guicolor.c)
0007:1264      GUIXSetColours_
0007:145c*     GUIGetBack_
0007:1466*     GUIGetFore_
0007:146a      GUIMakeColour_
0007:1480      GUISetWindowColours_
0007:14f6      GUISetDialColours_
0007:1810      GUIResetDialColours_
0007:183c      GUISetBackgroundColour_
0007:1850      GUIGetDialogColours_
0007:188a      GUISetDialogColours_
0007:18ca+     GetColour_
0007:18ea      GUIXGetWindowColours_
0007:1958*     GUIGetRGBFromUser_
0007:1958*     GUIGetRGB_
0007:1958*     GUISetRGB_
0007:195c*     GUIGetWndColour_
0007:19c0*     GUISetWndColour_
Module: /mnt/sda5/.user/root/src/openwatcom-1.9/bld/aui/wini86/aui.lib(/mnt/sda5/.user/root/src/openwatcom-1.9/bld/aui/c/wndcolor.c)
0007:1a30      WndSetColours_
0007:1aae*     WndBackGround_
Module: /mnt/sda5/.user/root/src/openwatcom-1.9/bld/aui/wini86/aui.lib(/mnt/sda5/.user/root/src/openwatcom-1.9/bld/aui/c/dlgpick.c)
0007:1b3e      DlgPickWithRtn2_
0007:1b76+     DoDlgPick_
0007:1b8c      DlgPickWithRtn_
0007:1bb0+     DlgPickText_
0007:1bc0*     DlgPick_
Module: /mnt/sda5/.user/root/src/openwatcom-1.9/bld/gui/ui/wini86/gui.lib(/mnt/sda5/.user/root/src/openwatcom-1.9/bld/gui/c/guipick.c)
0007:1be0      GUIPickEvent_
0007:1ca0      GUIDlgPickWithRtn_
0007:1d26      GUIDlgPick_
Module: /mnt/sda5/.user/root/src/openwatcom-1.9/bld/aui/wini86/aui.lib(/mnt/sda5/.user/root/src/openwatcom-1.9/bld/aui/c/wnddlg.c)
0007:1de2      DlgGetParent_
0007:1e14      DlgOpen_
0007:1e72      ResDlgOpen_
Module: /mnt/sda5/.user/root/src/openwatcom-1.9/bld/gui/ui/wini86/gui.lib(/mnt/sda5/.user/root/src/openwatcom-1.9/bld/gui/c/guindlg.c)
0007:1ed0      GUIDlgBuffGetText_
0007:22d6*     GUISetModalDlgs_
0007:22da      GUIDlgOpen_
0007:230a      GUIModalDlgOpen_
0007:2336*     GUISysModalDlgOpen_
Module: /mnt/sda5/.user/root/src/openwatcom-1.9/bld/gui/ui/wini86/gui.lib(/mnt/sda5/.user/root/src/openwatcom-1.9/bld/gui/ui/c/guifocus.c)
0007:2370      GUISetFocus_
Module: /mnt/sda5/.user/root/src/openwatcom-1.9/bld/gui/ui/wini86/gui.lib(/mnt/sda5/.user/root/src/openwatcom-1.9/bld/gui/ui/c/guixedit.c)
0007:23c0      GUISetEditText_
0007:24a6      GUISetText_
0007:264e      GUIClearText_
0007:2660      GUISelectAll_
Module: /mnt/sda5/.user/root/src/openwatcom-1.9/bld/aui/wini86/aui.lib(/mnt/sda5/.user/root/src/openwatcom-1.9/bld/aui/c/wndsrch.c)
0007:2672      WndSetSrchItem_
0007:26e8      WndCompileRX_
0007:2710      WndFreeRX_
0007:271c      WndSetMagicStr_
0007:278e      WndRXFind_
0007:2874      WndSearch_
000a:3d4e      _WndDoingSearch
Module: /mnt/sda5/.user/root/src/openwatcom-1.9/bld/aui/wini86/aui.lib(/mnt/sda5/.user/root/src/openwatcom-1.9/bld/aui/c/wndpop.c)
0007:2dd0+     CalcMaxId_
0007:2e32      NullPopupMenu_
0007:2ef6      WndAddPopupMenu_
0007:307c      WndNullPopItem_
0007:321a+     WndSelPopPiece_
0007:34bc      WndSelPopItem_
0007:3514+     WndKeyPopItem_
0007:3592*     WndPopUp_
0007:365a      WndChangeMenuAll_
0007:36ce      WndMenuEnableAll_
0007:36fe      WndMenuGrayAll_
0007:372e*     WndMenuIgnoreAll_
0007:375e*     WndMenuRespectAll_
0007:378e+     DoMenuBitOn_
0007:3832      WndMenuCheck_
0007:3844      WndMenuEnable_
0007:3868      WndMenuIgnore_
0007:387a      WndCreateFloatingPopup_
0007:38f4      WndInvokePopUp_
0007:3a70      WndKeyPopUp_
0007:3ab0      WndRowPopUp_
0007:3b0c*     WndSetMainMenu_
0007:3b48      WndClick_
0007:3c7c      WndSetPopup_
0007:3d24      WndEnableMainMenu_
0007:3d9c      WndCheckMainMenu_
Module: /mnt/sda5/.user/root/src/openwatcom-1.9/bld/gui/ui/wini86/gui.lib(/mnt/sda5/.user/root/src/openwatcom-1.9/bld/gui/ui/c/guispawn.c)
0007:3e10      GUISpawnStart_
0007:3e22      GUISpawnEnd_
Module: /mnt/sda5/.user/root/src/openwatcom-1.9/bld/aui/wini86/aui.lib(/mnt/sda5/.user/root/src/openwatcom-1.9/bld/aui/c/wndgadgt.c)
0007:3e50      WndGetGadgetSize_
0007:3e5e      WndSetGadgetLine_
0007:3ecc      WndGadgetInit_
Module: /mnt/sda5/.user/root/src/openwatcom-1.9/bld/gui/ui/wini86/gui.lib(/mnt/sda5/.user/root/src/openwatcom-1.9/bld/gui/c/guihot.c)
0007:3f16      GUIInitHotSpots_
0007:3f92*     GUIGetNumHotSpots_
0007:3f96      GUIGetHotSpotSize_
000a:7ba8      _GUINumHotSpots
Module: /mnt/sda5/.user/root/src/openwatcom-1.9/bld/gui/ui/wini86/gui.lib(/mnt/sda5/.user/root/src/openwatcom-1.9/bld/gui/ui/c/guiflush.c)
0007:4000      GUIFlushKeys_
Module: /mnt/sda5/.user/root/src/openwatcom-1.9/bld/aui/wini86/aui.lib(/mnt/sda5/.user/root/src/openwatcom-1.9/bld/aui/c/wndmeth.c)
0007:4012      WndNoOpen_
0007:4016      NoEndPaint_
0007:4016      NoBegPaint_
0007:4016      NoNotify_
0007:4016      NoModify_
0007:4018+     NoGetLine_
0007:4022      NoRefresh_
0007:402e      NoMenuItem_
0007:4036      NoScroll_
0007:403a      NoNumRows_
0007:403e      NoNextRow_
0007:4044      NoEventProc_
0007:406a      WndMenuItem_
0007:40aa      WndFiniCacheLines_
0007:40d8      WndKillCacheEntries_
0007:412e      WndKillCacheLines_
0007:4324      WndSetCache_
0007:4348      WndGetLine_
0007:44dc      WndGetLineAbs_
0007:450a      WndFirstMenuItem_
0007:4526*     WndNoRow_
0007:452a      WndModify_
0007:4566      WndNotify_
0007:45a2      WndBegPaint_
0007:45de      WndEndPaint_
0007:461a      WndRefresh_
0007:4646      WndEvent_
0007:4670      WndNumRows_
0007:4692      WndNextRow_
000a:3d52      _NoInfo
000a:7baa+     _CacheLine
000a:8762+     _CacheCurr
Module: /mnt/sda5/.user/root/src/openwatcom-1.9/bld/gui/ui/wini86/gui.lib(/mnt/sda5/.user/root/src/openwatcom-1.9/bld/gui/c/guiextra.c)
0007:46c0      GUISetExtra_
0007:46d0      GUIGetExtra_
Module: /mnt/sda5/.user/root/src/openwatcom-1.9/bld/gui/ui/wini86/gui.lib(/mnt/sda5/.user/root/src/openwatcom-1.9/bld/gui/ui/c/guixdlg.c)
0007:46e0*     GUISetJapanese_
0007:4762      GUIDeleteDialog_
0007:4800      GUIGetDlgByWnd_
0007:48e2+     GUIGetControlId_
0007:497e      GUIGetDialog_
0007:49a8      GUIGetField_
0007:4a32      GUIPushControlEvents_
0007:4a46      GUIPopControlEvents_
0007:4ad2      GUIInsertDialog_
0007:4b98      GUIRefreshControl_
0007:4c02      GUIGetList_
0007:4c6e      GUIGetFocus_
0007:4cf8+     GUIDoFreeField_
0007:4f0c+     GUIDoAddControl_
0007:5350      GUIDeleteField_
0007:55c6      GUIAddAControl_
0007:573e      GUIResizeDialog_
0007:5848      GUIFocusChangeNotify_
0007:58da      GUIProcessControlNotify_
0007:5962      GUIXCreateDialog_
0007:5ce4      GUIFreeDialog_
0007:5d2a      GUICloseDialog_
0007:5d5a      GUIGetDlgRect_
Module: /mnt/sda5/.user/root/src/openwatcom-1.9/bld/gui/ui/wini86/gui.lib(/mnt/sda5/.user/root/src/openwatcom-1.9/bld/gui/ui/c/guixaddt.c)
0007:5de0*     GUIControlSetRedraw_
0007:5e90      GUIAddText_
0007:5ed4      GUIAddTextList_
0007:5f18      GUIDeleteItem_
0007:5f4c      GUIClearList_
0007:5fb2      GUIGetCurrSelect_
0007:6004      GUISetCurrSelect_
0007:6064      GUIGetListSize_
0007:6098*     GUIInsertText_
0007:60da*     GUISetTopIndex_
0007:6136*     GUIGetTopIndex_
Module: /mnt/sda5/.user/root/src/openwatcom-1.9/bld/gui/ui/wini86/gui.lib(/mnt/sda5/.user/root/src/openwatcom-1.9/bld/gui/ui/c/guigtext.c)
0007:6290      GUIGetText_
0007:62a2      GUIGetListItem_
Module: /mnt/sda5/.user/root/src/openwatcom-1.9/bld/gui/ui/wini86/gui.lib(/mnt/sda5/.user/root/src/openwatcom-1.9/bld/gui/ui/c/guistext.c)
0007:62c0      GUISetWindowText_
0007:62f2*     GUIGetWindowTextLength_
0007:632e      GUIGetWindowText_
Module: /mnt/sda5/.user/root/src/openwatcom-1.9/bld/aui/wini86/aui.lib(/mnt/sda5/.user/root/src/openwatcom-1.9/bld/aui/c/wndfdlg.c)
0007:63b2+     DlgGetFileName_
0007:63f6      DlgFileBrowse_
Module: /mnt/sda5/.user/root/src/openwatcom-1.9/bld/gui/ui/wini86/gui.lib(/mnt/sda5/.user/root/src/openwatcom-1.9/bld/gui/ui/c/guicontr.c)
0007:6520      GUIAddControl_
0007:6632      GUIGetControl_
0007:6676      GUIGetControlByIndex_
0007:6762      GUIInsertControl_
0007:6808*     GUIDeleteControl_
0007:6898      GUIFreeAllControls_
0007:697a      GUILimitEditText_
0007:697e      GUIResizeControls_
0007:69f0      GUIProcessControlEvent_
0007:6a82*     GUIEnumControls_
0007:6ae0*     GUIGetControlClass_
0007:6b18+     GUIGetControlRect_
0007:6b88*     GUIResizeControl_
0007:6c72*     GUIIsControlVisible_
Module: /mnt/sda5/.user/root/src/openwatcom-1.9/bld/aui/wini86/aui.lib(/mnt/sda5/.user/root/src/openwatcom-1.9/bld/aui/c/dlgnew.c)
0007:6c92      DlgNewEvent_
0007:6d48      DlgNewWithCtl_
0007:6dc6      DlgNew_
Module: /mnt/sda5/.user/root/src/openwatcom-1.9/bld/gui/ui/wini86/gui.lib(/mnt/sda5/.user/root/src/openwatcom-1.9/bld/gui/ui/c/guicheck.c)
0007:6e40      GUIIsChecked_
0007:6e9e      GUISetChecked_
Module: /mnt/sda5/.user/root/src/openwatcom-1.9/bld/gui/ui/wini86/gui.lib(/mnt/sda5/.user/root/src/openwatcom-1.9/bld/gui/ui/c/guihelp.c)
0007:6f50      GUIHelpInit_
0007:6f5c      GUIHelpFini_
0007:6f6e      GUIShowHelp_
0007:6fc8      GUIShowHtmlHelp_
0007:6fd2+     GUIDisplayHelp_
0007:7026*     GUIDisplayHelpId_
Module: /mnt/sda5/.user/root/src/openwatcom-1.9/bld/aui/wini86/aui.lib(/mnt/sda5/.user/root/src/openwatcom-1.9/bld/aui/c/wndsel.c)
0007:7030      WndSelectEvent_
0007:70c0      WndSelEnds_
0007:7126      WndSelected_
0007:72a4      WndSelSetStart_
0007:72d2      WndSelGetEndPiece_
0007:731a*     WndSelSetEnd_
0007:7340      WndSelPieceChange_
0007:7452      WndSelChange_
0007:7480      WndNoSelect_
0007:7524*     WndSelRow_
0007:7540      SetWndMenuRow_
0007:757e      WndToSelectMode_
0007:75d0      WndEndSelectEvent_
000a:8764      _WndMenuRow
000a:8766      _WndMenuPiece
Module: /mnt/sda5/.user/root/src/openwatcom-1.9/bld/aui/wini86/aui.lib(/mnt/sda5/.user/root/src/openwatcom-1.9/bld/aui/c/wndscrol.c)
0007:75e0      WndFixedThumb_
0007:7612      WndSetThumbPercent_
0007:762c      WndSetThumbPos_
0007:7646      WndSetVScrollRange_
0007:766a      WndResetScroll_
0007:767e      WndVScrollWidth_
0007:7698*     WndHasNumRows_
0007:76c0      WndSetThumb_
0007:77c4      WndScroll_
0007:7922      WndScrollAbs_
0007:7952      WndSetHScroll_
0007:79a4+     WndCurrHScrollPos_
0007:7a5c      WndHScrollToCurr_
0007:7a88      WndHScrollNotify_
Module: /mnt/sda5/.user/root/src/openwatcom-1.9/bld/aui/wini86/aui.lib(/mnt/sda5/.user/root/src/openwatcom-1.9/bld/aui/c/wndchar.c)
0007:7ae4      WndSetIDChars_
0007:7afc      WndIDChar_
0007:7b58      WndKeyChar_
Module: /mnt/sda5/.user/root/src/openwatcom-1.9/bld/gui/ui/wini86/gui.lib(/mnt/sda5/.user/root/src/openwatcom-1.9/bld/gui/c/guiwnclr.c)
0007:7b70      GUISetColours_
0007:7ba4      GUIFreeColours_
0007:7bd6      GUIGetNumWindowColours_
0007:7be2      GUIGetWindowColours_
Module: /mnt/sda5/.user/root/src/openwatcom-1.9/bld/gui/ui/wini86/gui.lib(/mnt/sda5/.user/root/src/openwatcom-1.9/bld/gui/ui/c/guidbclk.c)
0007:7c30      GUISetDClickRate_
Module: /mnt/sda5/.user/root/src/openwatcom-1.9/bld/gui/ui/wini86/gui.lib(/mnt/sda5/.user/root/src/openwatcom-1.9/bld/gui/c/guirscal.c)
0007:7c50      GUIGetRoundScale_
Module: /mnt/sda5/.user/root/src/openwatcom-1.9/bld/gui/ui/wini86/gui.lib(/mnt/sda5/.user/root/src/openwatcom-1.9/bld/gui/c/guiscale.c)
0007:7cc0      GUISetScale_
0007:7ce2      GUIGetScale_
0007:7d04      GUISetScreen_
0007:7d14      GUIGetScreen_
0007:7d36+     GUIConvert_
0007:7dd6      GUIConvertRect_
0007:7e2e+     GUIConvertPoint_
0007:7e86*     GUIScaleToScreen_
0007:7ea2      GUIScaleToScreenR_
0007:7ebe*     GUIScreenToScale_
0007:7eda      GUIScreenToScaleR_
0007:7ef6      GUIScaleToScreenRPt_
0007:7f0e*     GUIScreenToScaleRPt_
Module: /mnt/sda5/.user/root/src/openwatcom-1.9/bld/aui/wini86/aui.lib(/mnt/sda5/.user/root/src/openwatcom-1.9/bld/aui/c/wndstyle.c)
000a:3e50      _WndStyle
Module: /mnt/sda5/.user/root/src/openwatcom-1.9/bld/gui/ui/wini86/gui.lib(/mnt/sda5/.user/root/src/openwatcom-1.9/bld/gui/ui/c/guixinit.c)
0007:7f30      GUIGetWindowStyles_
0007:7f34      GUIWndInit_
0007:804a*     GUISetF10Menus_
0007:8064      GUIIsInit_
Module: /mnt/sda5/.user/root/src/openwatcom-1.9/bld/gui/ui/wini86/gui.lib(/mnt/sda5/.user/root/src/openwatcom-1.9/bld/gui/c/guiimmdi.c)
0007:8070      GUIMDIInitMenuOnly_
Module: /mnt/sda5/.user/root/src/openwatcom-1.9/bld/gui/ui/wini86/gui.lib(/mnt/sda5/.user/root/src/openwatcom-1.9/bld/gui/ui/c/guimenu.c)
0007:8292      GUIFreeMenuItems_
0007:8304+     GUIAllocMenuItems_
0007:85c2      GUIGetMenuPopupCount_
0007:861a      GUIEnableMenuItem_
0007:86a0      GUISetMenuText_
0007:8758      GUICheckMenuItem_
0007:87de      GUIChangeMenu_
0007:8898+     GUIGetNumIgnore_
0007:88c0      GUICreateMenuItems_
0007:89aa+     GUIAllocVBarMenu_
0007:8df8      GUICreateMenus_
0007:8e92+     GUIFreeVBarMenu_
0007:8ed2      GUIFreeMenus_
0007:8f24      GUISetBetweenTitles_
0007:8f30*     GUIAppendMenuByOffset_
0007:9112      GUIDeleteMenuItem_
0007:91a2      GUIDeleteToolbarMenuItem_
0007:9244      GUIResetMenus_
0007:932e*     GUIEnableMenus_
0007:93d8+     GUIInsertMenu_
0007:9486*     GUIInsertMenuByID_
0007:9518*     GUIAppendMenu_
0007:9584      GUIAppendToolbarMenu_
0007:95d2+     AddMenuItemToPopup_
0007:966e      GUIAppendMenuToPopup_
0007:969a      GUIInsertMenuToPopup_
Module: /mnt/sda5/.user/root/src/openwatcom-1.9/bld/aui/wini86/aui.lib(/mnt/sda5/.user/root/src/openwatcom-1.9/bld/aui/c/wndimain.c)
0007:96d0      WndInitWndMain_
Module: /mnt/sda5/.user/root/src/openwatcom-1.9/bld/aui/wini86/aui.lib(/mnt/sda5/.user/root/src/openwatcom-1.9/bld/aui/c/wndmnsz.c)
0007:96e0      WndSetWndMainSize_
Module: /mnt/sda5/.user/root/src/openwatcom-1.9/bld/aui/wini86/aui.lib(/mnt/sda5/.user/root/src/openwatcom-1.9/bld/aui/c/wndbgch.c)
000a:3e68      _WndBackgroundChar
Module: /mnt/sda5/.user/root/src/openwatcom-1.9/bld/gui/ui/wini86/gui.lib(/mnt/sda5/.user/root/src/openwatcom-1.9/bld/gui/ui/c/guixdraw.c)
0007:9710      GUIInitDrawingChars_
0007:985a      GUIGetCharacter_
0007:9870*     GUISetCharacter_
0007:a13a      GUIWndRfrshArea_
0007:a38e      GUIWndUpdate_
000a:8778      _DrawingChars
Module: /mnt/sda5/.user/root/src/openwatcom-1.9/bld/gui/ui/wini86/gui.lib(/mnt/sda5/.user/root/src/openwatcom-1.9/bld/gui/ui/c/guixsys.c)
0007:a420+     GUIWndGetEvent_
0007:a442      uistartevent_
0007:a44e      uidoneevent_
0007:a4be+     GUICleanup_
0007:a59a      GUIXMain_
0007:a5de      GUIXSetupWnd_
0007:a602      GUISetBackgroundChar_
0007:a610+     GUISetupStruct1_
0007:a652+     GUISetupStruct2_
0007:a782      GUISetupStruct_
0007:a7d0      GUIXCreateWindow_
000a:3eb0      _GUICurrWnd
000a:3eb4      _GUIAllEvents
Module: /mnt/sda5/.user/root/src/openwatcom-1.9/bld/gui/ui/wini86/gui.lib(/mnt/sda5/.user/root/src/openwatcom-1.9/bld/gui/ui/c/guixwind.c)
0007:aa64*     GUIWantPartialRows_
0007:aa66      GUIFreeWindowMemory_
0007:acda      GUIDestroyDialog_
0007:acea      GUICloseWnd_
0007:ad2a      GUIDestroyWnd_
0007:ad38      GUIGetRow_
0007:ad6c*     GUIGetCol_
0007:ada6      GUIShowWindow_
0007:adb2*     GUIShowWindowNA_
0007:adbe*     GUIHideWindow_
0007:adca*     GUIIsWindowVisible_
0007:adde*     GUIIsFirstInstance_
Module: /mnt/sda5/.user/root/src/openwatcom-1.9/bld/gui/ui/wini86/gui.lib(/mnt/sda5/.user/root/src/openwatcom-1.9/bld/gui/ui/c/guigetnr.c)
0007:adf0      GUIGetNumRows_
Module: /mnt/sda5/.user/root/src/openwatcom-1.9/bld/gui/ui/wini86/gui.lib(/mnt/sda5/.user/root/src/openwatcom-1.9/bld/gui/ui/c/guitextm.c)
0007:ae00      GUIGetTextMetrics_
0007:ae40      GUIGetDlgTextMetrics_
0007:ae58*     GUIGetMaxDialogSize_
Module: /mnt/sda5/.user/root/src/openwatcom-1.9/bld/gui/ui/wini86/gui.lib(/mnt/sda5/.user/root/src/openwatcom-1.9/bld/gui/ui/c/guicrect.c)
0007:aea0      GUIGetClientRect_
0007:aece*     GUIGetPaintRect_
Module: /mnt/sda5/.user/root/src/openwatcom-1.9/bld/gui/ui/wini86/gui.lib(/mnt/sda5/.user/root/src/openwatcom-1.9/bld/gui/ui/c/guirange.c)
0007:af3c      GUISetHScrollRange_
0007:af86*     GUISetVScrollRange_
0007:afd0*     GUISetHScrollRangeCols_
0007:b000      GUISetVScrollRangeRows_
0007:b030+     GUIGetVScrollRangeRows_
0007:b056*     GUIGetVScrollRange_
0007:b080+     GUIGetHScrollRangeCols_
0007:b0a6*     GUIGetHScrollRange_
Module: /mnt/sda5/.user/root/src/openwatcom-1.9/bld/aui/wini86/aui.lib(/mnt/sda5/.user/root/src/openwatcom-1.9/bld/aui/c/wndchoos.c)
0007:b0d0      WndChooseEvent_
0007:b138*     WndDoneChoose_
0007:b14a      WndKeyEscape_
0007:b178*     WndStartChoose_
0007:b184      WndSayMatchMode_
0007:b560      WndKeyChoose_
0007:b56a      WndKeyRubOut_
Module: /mnt/sda5/.user/root/src/openwatcom-1.9/bld/aui/wini86/aui.lib(/mnt/sda5/.user/root/src/openwatcom-1.9/bld/aui/c/wndmouse.c)
0007:b630*     WndGetMouseRow_
0007:b726      WndLButtonDown_
0007:b808      WndLButtonUp_
0007:b8e0      WndLDblClk_
0007:b95e      WndRButtonDown_
0007:ba52      WndRButtonUp_
0007:baea      WndMouseButtonIsDown_
0007:bafc      WndIgnoreMouseMove_
0007:bb1e      WndMouseMove_
Module: /mnt/sda5/.user/root/src/openwatcom-1.9/bld/gui/ui/wini86/gui.lib(/mnt/sda5/.user/root/src/openwatcom-1.9/bld/gui/ui/c/guistat.c)
0007:bc08      GUICreateStatusWindow_
0007:bce2      GUIResizeStatusWindow_
0007:bd76      GUIDrawStatus_
0007:be3e      GUIDrawStatusText_
0007:bec4      GUIHasStatus_
0007:bee2      GUIFreeStatus_
0007:bf46      GUIResizeStatus_
0007:bf84      GUICloseStatusWindow_
Module: /mnt/sda5/.user/root/src/openwatcom-1.9/bld/aui/wini86/aui.lib(/mnt/sda5/.user/root/src/openwatcom-1.9/bld/aui/c/wndqryhk.c)
0007:c010      WndQueryEndSessionHook_
Module: /mnt/sda5/.user/root/src/openwatcom-1.9/bld/aui/wini86/aui.lib(/mnt/sda5/.user/root/src/openwatcom-1.9/bld/aui/c/wndendhk.c)
0007:c020      WndEndSessionHook_
Module: /mnt/sda5/.user/root/src/openwatcom-1.9/bld/ui/win/wini86/ui.lib(/mnt/sda5/.user/root/src/openwatcom-1.9/bld/ui/win/c/uimous.c)
0007:c021      checkmouse_
0007:c092      initmouse_
0007:c1c5      finimouse_
0007:c1d8      uisetmouseposn_
0007:c20b      WindowsMouseEvent_
000a:3ec0+     _MouseTime
Module: /mnt/sda5/.user/root/src/openwatcom-1.9/bld/ui/win/wini86/ui.lib(/mnt/sda5/.user/root/src/openwatcom-1.9/bld/ui/win/c/uicurs.c)
0007:c2c3      uiinitcursor_
0007:c2f6      uisetcursor_
0007:c399      uioffcursor_
0007:c3bc      uifinicursor_
0007:c3bc      uiswapcursor_
000a:3ec4      _VIDPort
Module: /mnt/sda5/.user/root/src/openwatcom-1.9/bld/gui/ui/wini86/gui.lib(/mnt/sda5/.user/root/src/openwatcom-1.9/bld/gui/ui/c/guixtent.c)
0007:c3c0      GUIGetExtentX_
0007:c420+     GUIGetExtentY_
0007:c442*     GUIGetControlExtentX_
0007:c45a*     GUIGetControlExtentY_
Module: /mnt/sda5/.user/root/src/openwatcom-1.9/bld/gui/ui/wini86/gui.lib(/mnt/sda5/.user/root/src/openwatcom-1.9/bld/gui/ui/c/guidirty.c)
0007:c470      GUIWndDirty_
Module: /mnt/sda5/.user/root/src/openwatcom-1.9/bld/gui/ui/wini86/gui.lib(/mnt/sda5/.user/root/src/openwatcom-1.9/bld/gui/c/guizlist.c)
0007:c550      GUIDeleteFromList_
0007:c5e0      GUIFrontOfList_
0007:c60c      GUIGetFront_
0007:c614      GUIGetNextWindow_
0007:c63e      GUIIsValidWindow_
Module: /mnt/sda5/.user/root/src/openwatcom-1.9/bld/ui/win/wini86/ui.lib(/mnt/sda5/.user/root/src/openwatcom-1.9/bld/ui/c/uimousev.c)
000a:87cc      _MouseCol
000a:87ce      _MouseRow
000a:87d0      _MouseStatus
000a:87d2      _MouseOn
0007:c68c*     uivmouseinstalled_
0007:c68c      uimouseinstalled_
0007:c6b4*     uimouseforceoff_
0007:c6c5*     uimouseforceon_
0007:c6ca      uionmouse_
0007:c6e3      uioffmouse_
0007:c6e9      uihidemouse_
0007:c707      mouseevent_
0007:c8df      uimousepos_
0007:ca1e      uivmousepos_
0007:ca9f      uiswapmouse_
0007:cad1*     uigetmrow_
0007:cad5*     uigetmcol_
0007:cad9      uigetmouse_
000a:87d4      _MouseInstalled
Module: /mnt/sda5/.user/root/src/openwatcom-1.9/bld/ui/win/wini86/ui.lib(/mnt/sda5/.user/root/src/openwatcom-1.9/bld/ui/c/uialloc.c)
0007:cb36*     UIMemPrtUsage_
0007:cb36      UIMemClose_
0007:cb36      UIMemOpen_
0007:cb36*     UIMemRedirect_
0007:cb37      uicalloc_
0007:cb43      uimalloc_
0007:cb4f      uifree_
0007:cb5b      uirealloc_
0007:cb67*     UIMemPrintLine_
Module: /mnt/sda5/.user/root/src/openwatcom-1.9/bld/ui/win/wini86/ui.lib(/mnt/sda5/.user/root/src/openwatcom-1.9/bld/ui/c/uigchar.c)
0007:cb6e      DBCSCharacterMap_
000a:3f02      _UiGChar
000a:3f24+     _UiDBCSChar
000a:3f46+     _UiNECChar
Module: /mnt/sda5/.user/root/src/openwatcom-1.9/bld/ui/win/wini86/ui.lib(/mnt/sda5/.user/root/src/openwatcom-1.9/bld/ui/c/uiattr.c)
000a:3f69+     _VGAcolours
000a:3fa9+     _ui_vga_colour_attrs
000a:3fce+     _ui_colour_attrs
000a:3ff3+     _ui_bw_attrs
000a:4018+     _ui_mono_attrs
0007:cbff      uiattrs_
0007:cca5*     uivgaattrs_
0007:cce5+     uisetblinkattr_
0007:cd1e*     uigetblinkattr_
Module: /mnt/sda5/.user/root/src/openwatcom-1.9/bld/ui/win/wini86/ui.lib(/mnt/sda5/.user/root/src/openwatcom-1.9/bld/ui/c/uiback.c)
0007:cdc6      uirestorebackground_
0007:ce0c      openbackground_
0007:ce56      closebackground_
0007:ce6e+     uibackgroundbuffer_
0007:ced0*     uiremovebackground_
0007:cf2c*     uikeepbackground_
Module: /mnt/sda5/.user/root/src/openwatcom-1.9/bld/ui/win/wini86/ui.lib(/mnt/sda5/.user/root/src/openwatcom-1.9/bld/ui/c/uiforce.c)
0007:cfc7      forceevfini_
0007:cfc7      forceevinit_
0007:cfc8      uiforceevadd_
0007:cfff*     uiforceevflush_
0007:d031      forcedevent_
Module: /mnt/sda5/.user/root/src/openwatcom-1.9/bld/ui/win/wini86/ui.lib(/mnt/sda5/.user/root/src/openwatcom-1.9/bld/ui/c/uiarea.c)
0007:d062      dividearea_
Module: /mnt/sda5/.user/root/src/openwatcom-1.9/rel2/lib286/win/math87l.lib(ldclass.c)
0006:43aa      __LDClass_
0006:4402*     _FLClass_
Module: /mnt/sda5/.user/root/src/openwatcom-1.9/rel2/lib286/win/math87l.lib(bufld086)
0006:4416      __ZBuf2LD
Module: /mnt/sda5/.user/root/src/openwatcom-1.9/rel2/lib286/win/math87l.lib(inf_nan.c)
000a:021c*     ___f_infinity
000a:0220*     ___f_posqnan
000a:0224      ___d_infinity
000a:022c      ___d_posqnan
000a:0234*     ___ld_infinity
000a:023c*     ___ld_posqnan
Module: /mnt/sda5/.user/root/src/openwatcom-1.9/bld/aui/wini86/aui.lib(/mnt/sda5/.user/root/src/openwatcom-1.9/bld/aui/c/wndfref.c)
0007:d220      WndForceRefresh_
Module: /mnt/sda5/.user/root/src/openwatcom-1.9/bld/gui/ui/wini86/gui.lib(/mnt/sda5/.user/root/src/openwatcom-1.9/bld/gui/c/guicreat.c)
0007:d240      GUICreateWindow_
000a:4070      _GUIMDI
Module: /mnt/sda5/.user/root/src/openwatcom-1.9/bld/gui/ui/wini86/gui.lib(/mnt/sda5/.user/root/src/openwatcom-1.9/bld/gui/ui/c/guisicon.c)
0007:d2d0      GUISetIcon_
Module: /mnt/sda5/.user/root/src/openwatcom-1.9/bld/gui/ui/wini86/gui.lib(/mnt/sda5/.user/root/src/openwatcom-1.9/bld/gui/ui/c/guidrect.c)
0007:d360      GUIWndDirtyRect_
Module: /mnt/sda5/.user/root/src/openwatcom-1.9/bld/gui/ui/wini86/gui.lib(/mnt/sda5/.user/root/src/openwatcom-1.9/bld/gui/ui/c/guidrow.c)
0007:d4e0      GUIWndDirtyRow_
Module: /mnt/sda5/.user/root/src/openwatcom-1.9/bld/gui/ui/wini86/gui.lib(/mnt/sda5/.user/root/src/openwatcom-1.9/bld/gui/ui/c/guiscrol.c)
0007:d550      GUIScroll_
0007:d6fe+     SetScroll_
0007:d71c      GUIInitHScroll_
0007:d742*     GUIInitHScrollCol_
0007:d766*     GUIInitVScroll_
0007:d78c      GUIInitVScrollRow_
0007:d7b0      GUISetHScroll_
0007:d7d6*     GUISetHScrollCol_
0007:d7fa*     GUISetVScroll_
0007:d820*     GUISetVScrollRow_
Module: /mnt/sda5/.user/root/src/openwatcom-1.9/bld/gui/ui/wini86/gui.lib(/mnt/sda5/.user/root/src/openwatcom-1.9/bld/gui/c/guidraw.c)
0007:d850      GUIDrawText_
0007:d8aa*     GUIDrawTextPos_
0007:d8d4      GUIDrawTextExtent_
0007:d92e*     GUIDrawTextExtentPos_
0007:d958*     GUIDrawTextRGB_
0007:d9b8*     GUIDrawTextPosRGB_
0007:d9e4*     GUIDrawTextExtentRGB_
0007:da44*     GUIDrawTextExtentPosRGB_
Module: /mnt/sda5/.user/root/src/openwatcom-1.9/bld/gui/ui/wini86/gui.lib(/mnt/sda5/.user/root/src/openwatcom-1.9/bld/gui/ui/c/guidoscr.c)
0007:dc16      GUIDoHScroll_
0007:dc2a      GUIDoVScroll_
0007:dc3e*     GUIDoHScrollClip_
0007:dc50      GUIDoVScrollClip_
Module: /mnt/sda5/.user/root/src/openwatcom-1.9/bld/gui/ui/wini86/gui.lib(/mnt/sda5/.user/root/src/openwatcom-1.9/bld/gui/c/guipixel.c)
0007:dc70      GUITruncToPixel_
Module: /mnt/sda5/.user/root/src/openwatcom-1.9/bld/gui/ui/wini86/gui.lib(/mnt/sda5/.user/root/src/openwatcom-1.9/bld/gui/ui/c/guirect.c)
0007:dca0      GUIGetRect_
Module: /mnt/sda5/.user/root/src/openwatcom-1.9/bld/gui/ui/wini86/gui.lib(/mnt/sda5/.user/root/src/openwatcom-1.9/bld/gui/ui/c/guimouse.c)
0007:dd30      GUIGetMousePosn_
Module: /mnt/sda5/.user/root/src/openwatcom-1.9/bld/gui/ui/wini86/gui.lib(/mnt/sda5/.user/root/src/openwatcom-1.9/bld/gui/ui/c/guisize.c)
0007:e00c*     GUISetCheckResizeAreaForChildren_
0007:e02e      GUICheckResizeAreaForChildren_
0007:e126      GUICheckResizeAreaForParent_
0007:e530      GUICheckMove_
0007:e734      GUICheckArea_
0007:e8ae      GUIWndMoveSize_
0007:ea66+     GUICalcIconArea_
0007:ecb0      GUIZoomWnd_
0007:ee4e      GUIResizeWindow_
0007:ef16      GUISetRestoredSize_
0007:ef74*     GUIGetRestoredSize_
0007:efdc      GUIMinimizeWindow_
0007:f004      GUIMaximizeWindow_
0007:f02c      GUIRestoreWindow_
0007:f05c      GUIIsMaximized_
0007:f070      GUIIsMinimized_
Module: /mnt/sda5/.user/root/src/openwatcom-1.9/bld/gui/ui/wini86/gui.lib(/mnt/sda5/.user/root/src/openwatcom-1.9/bld/gui/ui/c/guixdisp.c)
0007:f12e+     DisplayMessage_
0007:f172+     GUIStrnDup_
0007:f216+     TabFilter_
0007:f522+     AdjustVert_
0007:f688      GUIDisplayMessage_
Module: /mnt/sda5/.user/root/src/openwatcom-1.9/bld/gui/ui/wini86/gui.lib(/mnt/sda5/.user/root/src/openwatcom-1.9/bld/gui/ui/c/guildstr.c)
0007:f8c8      GUIIsLoadStrInitialized_
0007:f8cc      GUILoadStrInit_
0007:f988      GUILoadStrFini_
0007:f9ba      GUILoadString_
0007:fa00      GUILoadDialogTemplate_
0007:fa66      GUILoadMenuTemplate_
000a:420c      _WResRtns
Module: /mnt/sda5/.user/root/src/openwatcom-1.9/bld/ui/win/wini86/ui.lib(/mnt/sda5/.user/root/src/openwatcom-1.9/bld/ui/c/uichlen.c)
0007:facb      uicharlen_
0007:faed      uiisdbcs_
0007:faf1      uionnec_
Module: /mnt/sda5/.user/root/src/openwatcom-1.9/bld/gui/ui/wini86/gui.lib(/mnt/sda5/.user/root/src/openwatcom-1.9/bld/gui/ui/c/guifront.c)
0007:fb00      GUIBringToFront_
0007:fbe4*     GUIActivateNC_
Module: /mnt/sda5/.user/root/src/openwatcom-1.9/bld/gui/ui/wini86/gui.lib(/mnt/sda5/.user/root/src/openwatcom-1.9/bld/gui/ui/c/guistrin.c)
0007:fc50      GUIGetStringPos_
Module: /mnt/sda5/.user/root/src/openwatcom-1.9/bld/gui/ui/wini86/gui.lib(/mnt/sda5/.user/root/src/openwatcom-1.9/bld/gui/ui/c/guixbar.c)
0007:fcc0      GUIDrawBar_
0007:fd42      GUIDrawBarGroup_
Module: /mnt/sda5/.user/root/src/openwatcom-1.9/bld/gui/ui/wini86/gui.lib(/mnt/sda5/.user/root/src/openwatcom-1.9/bld/gui/ui/c/guidrawr.c)
0008:03a0*     GUIDrawRect_
0008:03d8*     GUIFillRect_
0008:0410      GUIFillBar_
0008:0448      GUIDrawLine_
0008:052c*     GUIFillRectRGB_
0008:0536*     GUIDrawRectRGB_
0008:0540*     GUIDrawLineRGB_
Module: /mnt/sda5/.user/root/src/openwatcom-1.9/bld/gui/ui/wini86/gui.lib(/mnt/sda5/.user/root/src/openwatcom-1.9/bld/gui/ui/c/guixhot.c)
0008:0550      GUIXInitHotSpots_
0008:0622      GUIDrawHotSpot_
0008:066c      GUIXCleanupHotSpots_
000a:4230      _GUIHotSpots
Module: /mnt/sda5/.user/root/src/openwatcom-1.9/bld/gui/ui/wini86/gui.lib(/mnt/sda5/.user/root/src/openwatcom-1.9/bld/gui/ui/c/guitool.c)
0008:06b0      GUIXCreateFixedToolbar_
0008:0c56      GUIXCreateToolBar_
0008:0f88      GUIXCreateToolBarWithTips_
0008:0fc4      GUIXCloseToolBar_
0008:110a      GUIHasToolBar_
0008:1128      GUIToolBarFixed_
0008:117e*     GUIChangeToolBar_
Module: /mnt/sda5/.user/root/src/openwatcom-1.9/bld/gui/ui/wini86/gui.lib(/mnt/sda5/.user/root/src/openwatcom-1.9/bld/gui/c/guihtool.c)
0008:11e0*     GUICreateFloatToolBar_
0008:1250      GUICreateToolBar_
0008:12be      GUICreateToolBarWithTips_
0008:1330      GUICloseToolBar_
Module: /mnt/sda5/.user/root/src/openwatcom-1.9/bld/ui/win/wini86/ui.lib(/mnt/sda5/.user/root/src/openwatcom-1.9/bld/ui/c/uimenu.c)
0008:1361      uisetbetweentitles_
0008:1365      uialtchar_
0008:156e      uidisplayitem_
0008:191b      uidrawmenu_
0008:19b6      uiclosepopup_
0008:19d6      uiopenpopup_
0008:1c19+     process_menuevent_
0008:2172*     uigeteventfrompos_
0008:2224      menuevent_
0008:233c      uidescmenu_
0008:2624      uimenutitlebar_
0008:26a8*     uienablemenuitem_
0008:26f0*     uimenuindicators_
0008:270e      uisetmenudesc_
0008:2744      uimenubar_
0008:2818      uimenuson_
0008:2830      uimenuheight_
0008:2857      uimenudisable_
0008:2881      uimenuisdisabled_
0008:28a2*     uimenugetaltpressed_
0008:28c3      uimenusetaltpressed_
0008:28e5      uinomenus_
0008:28f6*     uimenus_
0008:2961*     uiactivatemenus_
0008:2994*     uiignorealt_
0008:29ad      uigetcurrentmenu_
Module: /mnt/sda5/.user/root/src/openwatcom-1.9/bld/gui/ui/wini86/gui.lib(/mnt/sda5/.user/root/src/openwatcom-1.9/bld/gui/ui/c/guiwhole.c)
0008:2a00      GUIWholeWndDirty_
Module: /mnt/sda5/.user/root/src/openwatcom-1.9/bld/ui/win/wini86/ui.lib(/mnt/sda5/.user/root/src/openwatcom-1.9/bld/ui/c/uigadget.c)
000a:42c0      _VertScrollFrame
000a:42c2      _HorzScrollFrame
000a:42c4      _SliderChar
000a:42c6      _LeftPoint
000a:42c8      _RightPoint
000a:42ca      _UpPoint
000a:42cc      _DownPoint
0008:2d8f      uiinitgadget_
0008:2da8      uidrawgadget_
0008:2db7      uishowgadget_
0008:2dde      uisetgadget_
0008:2dec      uifinigadget_
0008:2ded      uisetgadgetnodraw_
0008:2df6      uigadgetfilter_
Module: /mnt/sda5/.user/root/src/openwatcom-1.9/bld/gui/ui/wini86/gui.lib(/mnt/sda5/.user/root/src/openwatcom-1.9/bld/gui/c/guisdef.c)
000a:8880      ___LITApplIcon
000a:8884      ___LITEmpty
000a:8888      ___LITOS2_Dialog_Font
000a:888c      ___LITBlank
000a:8890      ___LITTable_of_Contents
000a:8894      ___LITInternal_Last_Message
000a:8898      ___LITWindows_Dialog_Font
000a:889c      ___LITBrightGreen
000a:88a0      ___LITBlack
000a:88a4      ___LITBrightCyan
000a:88a8      ___LITCyan
000a:88ac      ___LITBrightBlue
000a:88b0      ___LITBrown
000a:88b4      ___LITBlue
000a:88b8      ___LITBrightRed
000a:88bc      ___LITGreen
000a:88c0      ___LITBrightYellow
000a:88c4      ___LITExclamation
000a:88c8      ___LITBrightWhite
000a:88cc      ___LITColour
000a:88d0      ___LITStop_Bang
000a:88d4      ___LITBrightMagenta
000a:88d8      ___LITWhite
000a:88dc      ___LITMagenta
000a:88e0      ___LITRed
000a:88e4      ___LITGrey
000a:88e8      ___LITArrange_Icons_Hint
000a:88ec      ___LITXNo
000a:88f0      ___LITXIgnore
000a:88f4      ___LITFix_Toolbar_Hint
000a:88f8      ___LITTile_Horz_Hint
000a:88fc      ___LITCascade_Hint
000a:8900      ___LITXAbort
000a:8904      ___LITTile_XVert
000a:8908      ___LITWindow_Name_Hint
000a:890c      ___LITTile_Vert_Hint
000a:8910      ___LITTile_XHorz
000a:8914      ___LITMore_Windows_Hint
000a:8918      ___LITXMore_Windows
000a:891c      ___LITXFix_Toolbar
000a:8920      ___LITXCascade
000a:8924      ___LITXArrange_Icons
000a:8928      ___LITXRetry
000a:892c      ___LITSelect_Window
000a:8930      ___LITXYes
000a:8934      ___LITFile_Exists_Replace
000a:8938      ___LITNexXt
000a:893c      ___LITClose
000a:8940      ___LITCancel
000a:8944      ___LITFDlg_Open_Text
000a:8948      ___LITOpen_Failed
000a:894c      ___LITDrives_Colon
000a:8950      ___LITFDlg_Save_Text
000a:8954      ___LITList_Files_of_Type_Colon
000a:8958      ___LITPen_Failed
000a:895c      ___LITFile_Name_Colon
000a:8960      ___LITRestore
000a:8964      ___LITMove
000a:8968      ___LITXClose
000a:896c      ___LITSize
000a:8970      ___LITMinimize
000a:8974      ___LITDirectories_Colon
000a:8978      ___LITMaximize
000a:897c      ___LITOK
000a:8980      ___LITXFix_Tool_Bar
000a:8984      ___LITChange_XFont_
000a:8988      ___LITChange_Font_for_this_window
000a:898c      ___LITMake_Tool_Bar_Fixed
000a:8990      ___LITFloating_Toolbar
000a:8994      ___LITInternal_First_Message
Module: /mnt/sda5/.user/root/src/openwatcom-1.9/bld/gui/ui/wini86/gui.lib(/mnt/sda5/.user/root/src/openwatcom-1.9/bld/gui/c/guidlg.c)
0008:3192      GUICreateDialog_
0008:31ae      GUICreateResDialog_
0008:31c0      GUICreateSysModalDialog_
Module: /mnt/sda5/.user/root/src/openwatcom-1.9/bld/ui/win/wini86/ui.lib(/mnt/sda5/.user/root/src/openwatcom-1.9/bld/ui/c/uidialog.c)
0008:3add      uiprintfield_
0008:3b4f+     ui_split_line_
0008:3c16+     uiinitdialog_
0008:3d9c*     uifinidialog_
0008:3ec4      uireinitdialog_
0008:400e      uigetdialogarea_
0008:4042      uibegdialog_
0008:41d4      uiupdatecombobox_
0008:426d      uiupdateedit_
0008:43b5+     pulldownfilter_
0008:467e+     uidialogexitcurr_
0008:46a7      uidialogsetcurr_
0008:4747      uimovefield_
0008:47e9      uiredrawdialog_
0008:4864      uiresizedialog_
0008:4eac+     uihotkeyfilter_
0008:5013      uiprocessdialogevent_
0008:528d      uidialog_
0008:53da      uifreedialog_
0008:5439      uienddialog_
0008:5461*     uidialogisdirty_
0008:547a*     uidialogsetdirty_
Module: /mnt/sda5/.user/root/src/openwatcom-1.9/bld/gui/ui/wini86/gui.lib(/mnt/sda5/.user/root/src/openwatcom-1.9/bld/gui/c/guiutil.c)
0008:5490*     GUIStripTrailingBlanks_
0008:555e      GUIStrDup_
0008:5620      GUIStoreArgs_
0008:5632*     GUIGetArgs_
0008:5672*     GUIIsRootWindow_
0008:5696      GUIGetRootWindow_
Module: /mnt/sda5/.user/root/src/openwatcom-1.9/bld/gui/ui/wini86/gui.lib(/mnt/sda5/.user/root/src/openwatcom-1.9/bld/gui/ui/c/guihotsp.c)
0008:56b0      GUICreateHot_
0008:5784      GUIFreeHotSpot_
0008:57b4      GUISetHotSpotText_
Module: /mnt/sda5/.user/root/src/openwatcom-1.9/bld/aui/wini86/aui.lib(/mnt/sda5/.user/root/src/openwatcom-1.9/bld/aui/c/rxwrap.c)
000a:89be      _RegExpError
0008:587a      RegComp_
0008:6530      RegExec_
0008:6b44*     RegAnchor_
000a:4318      _SrchMetaChars
000a:4326+     _RealTabs
Module: /mnt/sda5/.user/root/src/openwatcom-1.9/bld/gui/ui/wini86/gui.lib(/mnt/sda5/.user/root/src/openwatcom-1.9/bld/gui/c/guihflt.c)
0008:6b60      GUICreateFloatingPopup_
Module: /mnt/sda5/.user/root/src/openwatcom-1.9/bld/ui/win/wini86/ui.lib(/mnt/sda5/.user/root/src/openwatcom-1.9/bld/ui/win/c/uispawn.c)
0008:6be3      uispawnstart_
0008:6c04      uispawnend_
Module: /mnt/sda5/.user/root/src/openwatcom-1.9/bld/ui/win/wini86/ui.lib(/mnt/sda5/.user/root/src/openwatcom-1.9/bld/ui/c/uiblank.c)
0008:6c89*     uiblankattr_
0008:6cad*     uiblankarea_
0008:6cc7      uiblankscreen_
Module: /mnt/sda5/.user/root/src/openwatcom-1.9/bld/ui/win/wini86/ui.lib(/mnt/sda5/.user/root/src/openwatcom-1.9/bld/ui/c/uidirty.c)
0008:6ce2      dirtyarea_
0008:6d6a      dirtynext_
0008:6de6      uidirty_
Module: /mnt/sda5/.user/root/src/openwatcom-1.9/bld/gui/ui/wini86/gui.lib(/mnt/sda5/.user/root/src/openwatcom-1.9/bld/gui/c/guihook.c)
0008:6e10      GUISetHotSpotCleanup_
0008:6e18      GUICleanupHotSpots_
0008:6e38*     GUISetXChangeTitle_
0008:6e40      GUIXChangeTitle_
0008:6e64      GUISetXInitMDI_
0008:6e6c      GUIXInitMDI_
0008:6e92      GUISetInitMDI_
0008:6e9a      GUIInitMDI_
0008:6ebe      GUIChangeMDITitle_
0008:6ee2      GUISetMDIChangeTitle_
0008:6eea      GUISetMDIBroughtToFront_
0008:6ef2      GUIMDIBroughtToFront_
0008:6f16      GUISetMDIDelete_
0008:6f1e      GUIMDIDelete_
0008:6f42      GUISetMDIResetMenus_
0008:6f4a      GUIMDIResetMenus_
0008:6f7c      GUISetMDIDeleteMenuItem_
0008:6f84      GUIMDIDeleteMenuItem_
0008:6fa8*     GUISetEnableMDIActions_
0008:6fb0      GUIEnableMDIActions_
0008:6fd6*     GUISetAddMDIActions_
0008:6fde      GUIAddMDIActions_
Module: /mnt/sda5/.user/root/src/openwatcom-1.9/bld/ui/win/wini86/ui.lib(/mnt/sda5/.user/root/src/openwatcom-1.9/bld/ui/win/c/uiget.c)
0008:7004      uiflush_
0008:7015      uiclock_
0008:7027+     uieventsource_
0008:70d3      uiget_
Module: /mnt/sda5/.user/root/src/openwatcom-1.9/bld/ui/win/wini86/ui.lib(/mnt/sda5/.user/root/src/openwatcom-1.9/bld/ui/c/uilist.c)
0008:70e1*     uigetlist_
0008:70f0*     uiputlist_
0008:70ff      uipushlist_
0008:716a+     uichecklist_
0008:7197      uipoplist_
0008:71cf      uiinlist_
0008:723c*     uiintoplist_
Module: /mnt/sda5/.user/root/src/openwatcom-1.9/bld/gui/ui/wini86/gui.lib(/mnt/sda5/.user/root/src/openwatcom-1.9/bld/gui/ui/c/guilistb.c)
0008:72b8      GUIClearListBox_
0008:72e4      GUIListBoxDeleteItem_
0008:742e      GUIFreeList_
0008:74e0      GUIFillInListBox_
0008:750e      GUICreateListBox_
0008:755a      GUICreateEditMLE_
0008:7684      GUIListSize_
0008:7880      GUIListBoxAddText_
0008:7902      GUIListBoxAddTextList_
0008:79b2      GUIGetListBoxText_
0008:79f4      GUIListCurr_
0008:7a60      GUIListBoxTopIndex_
0008:7ab0*     GUIDropDown_
0008:7ab4*     GUISetListItemData_
0008:7abe*     GUIGetListItemData_
Module: /mnt/sda5/.user/root/src/openwatcom-1.9/bld/gui/ui/wini86/gui.lib(/mnt/sda5/.user/root/src/openwatcom-1.9/bld/gui/ui/c/guixutil.c)
0008:7ad0*     GUISetRedraw_
0008:7ad4      GUIIsOpen_
0008:7ae0      GUISetUseArea_
0008:7b7e      GUISetUseWnd_
0008:7b9c      GUIPtInRect_
0008:7c74      GUIOverlap_
0008:7cae      GUISetDialogArea_
0008:7d36      GUIAdjustDialogArea_
0008:7d50      GUIGetSAREA_
0008:7d9a      GUIGetClientSAREA_
0008:7de0      GUISetArea_
0008:801a      GUIMakeEditCopy_
0008:807e      GUIRedrawTitle_
0008:8096      GUIMakeRelative_
0008:813c      GUIJustSetWindowText_
0008:818c*     GUIInArea_
0008:81d4      GUIDirtyArea_
0008:81f0      GUIGetTopWnd_
0008:8224      GUIGetFirstSibling_
0008:825e      GUIGetParentWindow_
0008:827c      GUIXGetRootWindow_
0008:82be      GUISetCursor_
0008:82e4*     GUIUnHookF1_
0008:82e4*     GUIHookF1_
Module: /mnt/sda5/.user/root/src/openwatcom-1.9/bld/gui/ui/wini86/gui.lib(/mnt/sda5/.user/root/src/openwatcom-1.9/bld/gui/c/guimkey.c)
0008:8310      GUIMapKey_
0008:861a      GUIGetKeyState_
000a:43d8      _KeyState
Module: /mnt/sda5/.user/root/src/openwatcom-1.9/bld/gui/ui/wini86/gui.lib(/mnt/sda5/.user/root/src/openwatcom-1.9/bld/gui/ui/c/guirdlg.c)
0008:8640+     GUIFreeDialogBoxControlPtrs_
0008:86ae+     GUIFreeDialogBoxHeader_
0008:9446      GUICreateDialogFromRes_
Module: /mnt/sda5/.user/root/src/openwatcom-1.9/bld/ui/win/wini86/ui.lib(/mnt/sda5/.user/root/src/openwatcom-1.9/bld/ui/c/uiyield.c)
0008:973d      uiyield_
Module: /mnt/sda5/.user/root/src/openwatcom-1.9/bld/gui/ui/wini86/gui.lib(/mnt/sda5/.user/root/src/openwatcom-1.9/bld/gui/ui/c/guixloop.c)
000a:43e8      _GUIUserEvents
0008:9a86      GUICreatePopup_
0008:a0c6      GUIGetMenuWindow_
0008:a242      GUIProcessEvent_
Module: /mnt/sda5/.user/root/src/openwatcom-1.9/bld/gui/ui/wini86/gui.lib(/mnt/sda5/.user/root/src/openwatcom-1.9/bld/gui/ui/c/guifdlg.c)
0008:abf4+     Compare_
0008:b912+     ProcessOKorDClick_
0008:bc4e+     GetFileNameEvent_
0008:be8c      GUIGetFileName_
0008:beea*     GUIHookFileDlg_
Module: /mnt/sda5/.user/root/src/openwatcom-1.9/bld/gui/ui/wini86/gui.lib(/mnt/sda5/.user/root/src/openwatcom-1.9/bld/gui/ui/c/guixscal.c)
0008:bfb0      GUIGetScreenArea_
0008:bfec      GUIMulDiv_
0008:c112      GUIScreenToScaleRect_
0008:c126      GUIScreenToScaleRectR_
0008:c13e      GUIScaleToScreenRect_
0008:c162      GUIScaleToScreenRectR_
Module: /mnt/sda5/.user/root/src/openwatcom-1.9/bld/gui/ui/wini86/gui.lib(/mnt/sda5/.user/root/src/openwatcom-1.9/bld/help/c/helpopen.c)
0008:c386+     do_init_
0008:c4c8      helpinit_
0008:c5f2      help_reinit_
0008:c66a      helpfini_
000a:453a      _HelpFiles
Module: /mnt/sda5/.user/root/src/openwatcom-1.9/bld/gui/ui/wini86/gui.lib(/mnt/sda5/.user/root/src/openwatcom-1.9/bld/help/c/help.c)
0008:c70a+     hlp_ut_screen_area_
0008:c780+     hlp_ut_position_
0008:d004+     help_next_field_
0008:d1de+     Free_Stack_
0008:d20a+     help_in_tab_
0008:e772      showhelp_
0008:e9de+     do_showhelp_
Module: /mnt/sda5/.user/root/src/openwatcom-1.9/bld/gui/ui/wini86/gui.lib(/mnt/sda5/.user/root/src/openwatcom-1.9/bld/gui/ui/c/guithumb.c)
0008:ed38*     GUISetHScrollThumb_
0008:ed86      GUISetVScrollThumb_
Module: /mnt/sda5/.user/root/src/openwatcom-1.9/bld/gui/ui/wini86/gui.lib(/mnt/sda5/.user/root/src/openwatcom-1.9/bld/gui/ui/c/guigscrl.c)
0008:ede0*     GUIGetHScrollCol_
0008:ee04*     GUIGetVScrollRow_
0008:ee28      GUIGetHScroll_
0008:ee70*     GUIGetVScroll_
Module: /mnt/sda5/.user/root/src/openwatcom-1.9/bld/gui/ui/wini86/gui.lib(/mnt/sda5/.user/root/src/openwatcom-1.9/bld/gui/ui/c/guiximdi.c)
0008:ef28      XFakeInitMDI_
Module: /mnt/sda5/.user/root/src/openwatcom-1.9/bld/gui/ui/wini86/gui.lib(/mnt/sda5/.user/root/src/openwatcom-1.9/bld/gui/c/guimdi.c)
000a:46e4+     _GUIMDIMenuID
000a:46e8+     _Root
0008:ef60*     GUIGetRoot_
0008:f23a      MDIDeleteMenu_
0008:f248      MDIResetMenus_
0008:f2e4*     GUIEnableMDIMenus_
0008:f374      InitMDI_
0008:f500      ChangeTitle_
0008:f540      BroughtToFront_
0008:f5d0+     FindNextMDIMenuWindowNotInArray_
0008:f668      MDIDelete_
0008:f948+     GUIGetNumChildWindows_
0008:f970*     GUIGetNumIconicWindows_
0008:f9f0      GUIMDIMoreWindows_
0008:fa64      GUIMDIGetWindow_
Module: /mnt/sda5/.user/root/src/openwatcom-1.9/bld/gui/ui/wini86/gui.lib(/mnt/sda5/.user/root/src/openwatcom-1.9/bld/gui/ui/c/guifloat.c)
0009:00a6      GUIProcessMenuCurr_
0009:01be      GUICreateMenuPopup_
0009:0566      GUIXCreateFloatingPopup_
0009:05c0*     GUITrackFloatingPopup_
000a:4708      _GUIPopupMenu
Module: /mnt/sda5/.user/root/src/openwatcom-1.9/bld/gui/ui/wini86/gui.lib(/mnt/sda5/.user/root/src/openwatcom-1.9/bld/gui/c/guihint.c)
0009:0808+     GUIHasHintType_
0009:084a      GUIDisplayHintText_
0009:08da*     GUISetHintText_
0009:08f4      GUIHasHintText_
0009:091e      GUIDeleteHintText_
0009:0a7a+     CountMenus_
0009:0ade+     InsertHint_
0009:0b88      GUIAppendHintText_
0009:0c38      GUIInitHint_
0009:0d3a      GUIInitToolbarHint_
0009:0e1c      GUIFreeHint_
Module: /mnt/sda5/.user/root/src/openwatcom-1.9/bld/gui/ui/wini86/gui.lib(/mnt/sda5/.user/root/src/openwatcom-1.9/bld/gui/ui/c/guisysme.c)
0009:0e5a      GUISetSystemMenuFlags_
0009:0f50      GUISetSystemMenu_
0009:1068      GUIProcessSysMenuEvent_
Module: /mnt/sda5/.user/root/src/openwatcom-1.9/bld/gui/ui/wini86/gui.lib(/mnt/sda5/.user/root/src/openwatcom-1.9/bld/gui/ui/c/guirmenu.c)
0009:167c      GUIFreeGUIMenuStruct_
0009:1922      GUICreateMenuStructFromRes_
Module: /mnt/sda5/.user/root/src/openwatcom-1.9/bld/ui/win/wini86/ui.lib(/mnt/sda5/.user/root/src/openwatcom-1.9/bld/ui/c/uivstr.c)
0009:1a41      uitextfield_
0009:1b24      uivtextput_
0009:1b82*     uivrawput_
Module: /mnt/sda5/.user/root/src/openwatcom-1.9/bld/gui/ui/wini86/gui.lib(/mnt/sda5/.user/root/src/openwatcom-1.9/bld/gui/ui/c/guigadgt.c)
0009:1bf0      GUIUseGadget_
0009:1c6e      GUIDrawGadgetLine_
0009:1e6a      GUISetShowGadget_
0009:1f40      GUIGadgetFilter_
0009:2024      GUIInitGadget_
0009:2076      GUICreateGadget_
0009:21b0      GUIGetScrollOffset_
Module: /mnt/sda5/.user/root/src/openwatcom-1.9/bld/ui/win/wini86/ui.lib(/mnt/sda5/.user/root/src/openwatcom-1.9/bld/ui/c/uivfill.c)
0009:21b4      uivfill_
Module: /mnt/sda5/.user/root/src/openwatcom-1.9/bld/gui/ui/wini86/gui.lib(/mnt/sda5/.user/root/src/openwatcom-1.9/bld/gui/ui/c/guiicon.c)
0009:2240      GUIDrawIcon_
Module: /mnt/sda5/.user/root/src/openwatcom-1.9/bld/ui/win/wini86/ui.lib(/mnt/sda5/.user/root/src/openwatcom-1.9/bld/ui/c/uimget.c)
0009:234c      uivget_
0009:234c      uivgetevent_
0009:235d*     uiungetevent_
0009:2369*     uiflushevent_
Module: /mnt/sda5/.user/root/src/openwatcom-1.9/bld/gui/ui/wini86/gui.lib(/mnt/sda5/.user/root/src/openwatcom-1.9/bld/gui/ui/c/guiuiev.c)
0009:2380      GUIUIProcessEvent_
Module: /mnt/sda5/.user/root/src/openwatcom-1.9/bld/gui/ui/wini86/gui.lib(/mnt/sda5/.user/root/src/openwatcom-1.9/bld/gui/c/guiev.c)
0009:2390      GUIDoneEventProcessing_
0009:2390      GUIStartEventProcessing_
Module: /mnt/sda5/.user/root/src/openwatcom-1.9/bld/gui/ui/wini86/gui.lib(/mnt/sda5/.user/root/src/openwatcom-1.9/bld/gui/c/guistr.c)
0009:23f6      GUIInitInternalStringTable_
0009:2790      GUIFiniInternalStringTable_
Module: /mnt/sda5/.user/root/src/openwatcom-1.9/bld/gui/ui/wini86/gui.lib(/mnt/sda5/.user/root/src/openwatcom-1.9/bld/gui/c/guideath.c)
0009:2af0      GUIDeath_
Module: /mnt/sda5/.user/root/src/openwatcom-1.9/bld/gui/ui/wini86/gui.lib(/mnt/sda5/.user/root/src/openwatcom-1.9/bld/gui/c/guiextnm.c)
0009:2b00      GUIGetExtName_
0009:2b12*     GUISetExtName_
Module: /mnt/sda5/.user/root/src/openwatcom-1.9/bld/gui/ui/wini86/gui.lib(/mnt/sda5/.user/root/src/openwatcom-1.9/bld/gui/c/guidead.c)
0009:2b70      GUIDead_
Module: /mnt/sda5/.user/root/src/openwatcom-1.9/bld/gui/ui/wini86/gui.lib(/mnt/sda5/.user/root/src/openwatcom-1.9/bld/gui/ui/c/guixmain.c)
0009:2b80      WINMAIN
000a:47f2      _GUIMainTouched
Module: /mnt/sda5/.user/root/src/openwatcom-1.9/bld/gui/ui/wini86/gui.lib(/mnt/sda5/.user/root/src/openwatcom-1.9/bld/gui/c/guifcrck.c)
0009:2ba0      GUIFirstCrack_
Module: /mnt/sda5/.user/root/src/openwatcom-1.9/bld/ui/win/wini86/ui.lib(/mnt/sda5/.user/root/src/openwatcom-1.9/bld/ui/c/uivopen.c)
0009:2c13      uivopen_
0009:2e89      uivclose_
0009:2ed0      uivresize_
0009:3051      uivmove_
Module: /mnt/sda5/.user/root/src/openwatcom-1.9/bld/ui/win/wini86/ui.lib(/mnt/sda5/.user/root/src/openwatcom-1.9/bld/ui/c/uivhide.c)
0009:30b2      uivhide_
0009:30e7      uivshow_
Module: /mnt/sda5/.user/root/src/openwatcom-1.9/bld/ui/win/wini86/ui.lib(/mnt/sda5/.user/root/src/openwatcom-1.9/bld/ui/win/c/uibmous.c)
0009:3195      uisetmouse_
0009:31b4      uimouse_
Module: /mnt/sda5/.user/root/src/openwatcom-1.9/bld/ui/win/wini86/ui.lib(/mnt/sda5/.user/root/src/openwatcom-1.9/bld/ui/c/uivscrn.c)
0009:31db      findvscreen_
0009:3267      uivdirty_
0009:3284      uivsetactive_
0009:32ab      uivsetcursor_
Module: /mnt/sda5/.user/root/src/openwatcom-1.9/rel2/lib286/win/clibl.lib(calloc.c)
0006:44de      calloc_
Module: /mnt/sda5/.user/root/src/openwatcom-1.9/bld/ui/win/wini86/ui.lib(/mnt/sda5/.user/root/src/openwatcom-1.9/bld/ui/c/uibfill.c)
0009:32e6      bfill_
Module: /mnt/sda5/.user/root/src/openwatcom-1.9/bld/ui/win/wini86/ui.lib(/mnt/sda5/.user/root/src/openwatcom-1.9/bld/ui/c/uibcopy.c)
0009:332e      uibcopy_
Module: /mnt/sda5/.user/root/src/openwatcom-1.9/bld/ui/win/wini86/ui.lib(/mnt/sda5/.user/root/src/openwatcom-1.9/bld/ui/c/uiwin.c)
0009:3414+     findspot_
0009:35b2      openwindow_
0009:3605      closewindow_
0009:360f      movewindow_
0009:3669      frontwindow_
Module: /mnt/sda5/.user/root/src/openwatcom-1.9/bld/ui/win/wini86/ui.lib(/mnt/sda5/.user/root/src/openwatcom-1.9/bld/ui/c/uiballoc.c)
0009:36be      bframe_
0009:36cf      balloc_
0009:3711      bunframe_
0009:3722      bfree_
Module: /mnt/sda5/.user/root/src/openwatcom-1.9/bld/gui/ui/wini86/gui.lib(/mnt/sda5/.user/root/src/openwatcom-1.9/bld/gui/c/guisetup.c)
0009:3740      GUISetupWnd_
Module: /mnt/sda5/.user/root/src/openwatcom-1.9/bld/gui/ui/wini86/gui.lib(/mnt/sda5/.user/root/src/openwatcom-1.9/bld/gui/ui/c/guidrawt.c)
0009:37d0      GUIXDrawText_
0009:3b64      GUIXDrawTextRGB_
Module: /mnt/sda5/.user/root/src/openwatcom-1.9/bld/ui/win/wini86/ui.lib(/mnt/sda5/.user/root/src/openwatcom-1.9/bld/ui/c/uivmove.c)
0009:3b6b      uivmoveblock_
Module: /mnt/sda5/.user/root/src/openwatcom-1.9/rel2/lib286/win/clibl.lib(strcspn.c)
0006:4523      strcspn_
Module: /mnt/sda5/.user/root/src/openwatcom-1.9/rel2/lib286/win/clibl.lib(strnset.c)
0006:4575      strnset_
Module: /mnt/sda5/.user/root/src/openwatcom-1.9/rel2/lib286/win/clibl.lib(write.c)
0006:471a      write_
Module: /mnt/sda5/.user/root/src/openwatcom-1.9/rel2/lib286/win/clibl.lib(tell.c)
0006:4910      tell_
Module: /mnt/sda5/.user/root/src/openwatcom-1.9/bld/sdk/rc/wres/dosi86/ml/wres.lib(loadfind.c)
0009:3ce0      FindResources_
000a:4800      _FileShift
Module: /mnt/sda5/.user/root/src/openwatcom-1.9/bld/sdk/rc/wres/dosi86/ml/wres.lib(loadstr.c)
0009:3f66+     WResLoadString2_
0009:4042      WResLoadString_
0009:4070      OpenResFile_
0009:408a+     InitResources2_
0009:40d8      InitResources_
0009:40ea*     CloseResFile2_
0009:40f8      CloseResFile_
0009:4118*     LoadstrInitStatics_
000a:8e50      _MainDir
Module: /mnt/sda5/.user/root/src/openwatcom-1.9/rel2/lib286/win/clibl.lib(iob.c)
000a:4804      ___iob
000a:496c      __fmode
000a:8e54      ___OpenStreams
000a:8e58      ___ClosedStreams
Module: /mnt/sda5/.user/root/src/openwatcom-1.9/bld/sdk/rc/wres/dosi86/ml/wres.lib(loadres.c)
0009:418c+     WResLoadResource2_
0009:429e      WResLoadResource_
Module: /mnt/sda5/.user/root/src/openwatcom-1.9/rel2/lib286/win/clibl.lib(mbisdbcs.c)
000a:8e5c      ___IsDBCS
Module: /mnt/sda5/.user/root/src/openwatcom-1.9/rel2/lib286/win/clibl.lib(mbislead.c)
0006:4927*     _ismbblead_
000a:8e5e      ___MBCSIsTable
Module: /mnt/sda5/.user/root/src/openwatcom-1.9/rel2/lib286/win/clibl.lib(nonibm.c)
0006:4945+     __is_nonIBM_
000a:496e      ___NonIBM
Module: /mnt/sda5/.user/root/src/openwatcom-1.9/bld/ui/win/wini86/ui.lib(/mnt/sda5/.user/root/src/openwatcom-1.9/bld/ui/c/uibox.c)
0009:42cd      drawbox_
0009:4486      blowup_
0009:4581      uidrawbox_
Module: /mnt/sda5/.user/root/src/openwatcom-1.9/bld/ui/win/wini86/ui.lib(/mnt/sda5/.user/root/src/openwatcom-1.9/bld/ui/c/uibstr.c)
0009:4618      bstring_
0009:4661      braw_
Module: /mnt/sda5/.user/root/src/openwatcom-1.9/bld/ui/win/wini86/ui.lib(/mnt/sda5/.user/root/src/openwatcom-1.9/bld/ui/c/uipopup.c)
0009:4a75+     uicreatepopupdesc_
0009:4caf      uiposfloatingpopup_
0009:51be      uicreatepopupinarea_
0009:5208+     uicreatesubpopup_
0009:5269      uicreatesubpopupinarea_
0009:52b3*     uicreatepopup_
Module: /mnt/sda5/.user/root/src/openwatcom-1.9/bld/ui/win/wini86/ui.lib(/mnt/sda5/.user/root/src/openwatcom-1.9/bld/ui/c/uivutil.c)
0009:532c      isdialogue_
0009:5348      isscreen_
0009:5368*     uisetsnow_
Module: /mnt/sda5/.user/root/src/openwatcom-1.9/bld/gui/ui/wini86/gui.lib(/mnt/sda5/.user/root/src/openwatcom-1.9/bld/gui/ui/c/uimenucr.c)
0009:5380      uimenucurr_
Module: /mnt/sda5/.user/root/src/openwatcom-1.9/bld/ui/win/wini86/ui.lib(/mnt/sda5/.user/root/src/openwatcom-1.9/bld/ui/c/uipget.c)
0009:538c      saveevent_
0009:53b2      getprime_
0009:53da*     uivgetprime_
0009:53da*     uivgetprimevent_
000a:8f60      _Event
Module: /mnt/sda5/.user/root/src/openwatcom-1.9/bld/ui/win/wini86/ui.lib(/mnt/sda5/.user/root/src/openwatcom-1.9/bld/ui/c/uiprot.c)
0009:53e9      uiunprotect_
0009:5421      uiprotect_
Module: /mnt/sda5/.user/root/src/openwatcom-1.9/bld/ui/win/wini86/ui.lib(/mnt/sda5/.user/root/src/openwatcom-1.9/bld/ui/c/uiledit.c)
0009:54e1      uiedittrim_
0009:54f4*     uieditmarking_
0009:5530      uibegedit_
0009:5686      uieditpushlist_
0009:56a4      uieditpoplist_
0009:573c      uiledit_
0009:584e*     uieditinsert_
0009:58f9      uiendedit_
0009:5963      uieditisdirty_
0009:599a*     uieditautoclear_
0009:59bb*     uieditcursor_
0009:59cb*     uieditdirty_
0009:59d7*     uieditclean_
000a:49ac+     _UIEdit
Module: /mnt/sda5/.user/root/src/openwatcom-1.9/bld/ui/win/wini86/ui.lib(/mnt/sda5/.user/root/src/openwatcom-1.9/bld/ui/c/uimisc.c)
0009:59e3      uisetscreenarea_
0009:5a47      uisetarea_
0009:5ab7      uiposition_
0009:5b2a      uiopen_
0009:5b97      uiclose_
0009:5bb4      uicntrtext_
0009:5c0f      uinocursor_
0009:5c1c      uicursor_
Module: /mnt/sda5/.user/root/src/openwatcom-1.9/bld/ui/win/wini86/ui.lib(/mnt/sda5/.user/root/src/openwatcom-1.9/bld/ui/c/uilstbox.c)
0009:5c38      uigetlistelement_
0009:5ca8      uipaintlistbox_
0009:5e7f+     checkitem_
0009:5f0a      uiupdatelistbox_
0009:5fc1      uiboxpushlist_
0009:5fd4      uiboxpoplist_
0009:6011      uilistsize_
0009:6049      uimovelistbox_
0009:608d      uibeglistbox_
0009:61dd      uiendlistbox_
0009:62f5+     charselect_
0009:63a6      uilistbox_
Module: /mnt/sda5/.user/root/src/openwatcom-1.9/bld/ui/win/wini86/ui.lib(/mnt/sda5/.user/root/src/openwatcom-1.9/bld/ui/c/uihotspt.c)
0009:6793      uidrawhottext_
0009:68ca      uihotspot_
0009:6ae2      uiposnhotspots_
0009:6bd4      uiprinthotspots_
0009:6c04*     uioffhotspots_
0009:6c5a      uihotspotfilter_
0009:6e35      uiisdefaulthotspot_
Module: /mnt/sda5/.user/root/src/openwatcom-1.9/rel2/lib286/win/clibl.lib(strncat.c)
0006:498e      strncat_
Module: /mnt/sda5/.user/root/src/openwatcom-1.9/bld/gui/ui/wini86/gui.lib(/mnt/sda5/.user/root/src/openwatcom-1.9/bld/gui/ui/c/uidchfld.c)
0009:6e80      uidialogchangefield_
Module: /mnt/sda5/.user/root/src/openwatcom-1.9/bld/ui/win/wini86/ui.lib(/mnt/sda5/.user/root/src/openwatcom-1.9/bld/ui/c/uidevent.c)
0009:6e8c      uidialogevent_
Module: /mnt/sda5/.user/root/src/openwatcom-1.9/bld/gui/ui/wini86/gui.lib(/mnt/sda5/.user/root/src/openwatcom-1.9/bld/help/c/dialcb.c)
0009:6ea0      uidialogcallback_
Module: /mnt/sda5/.user/root/src/openwatcom-1.9/rel2/lib286/win/clibl.lib(strncmp.c)
0006:49cf      strncmp_
Module: /mnt/sda5/.user/root/src/openwatcom-1.9/bld/gui/ui/wini86/gui.lib(/mnt/sda5/.user/root/src/openwatcom-1.9/bld/gui/ui/c/guimapky.c)
0009:6eb0      GUISetKeyState_
0009:6ee0      GUIMapKeys_
Module: /mnt/sda5/.user/root/src/openwatcom-1.9/bld/gui/ui/wini86/gui.lib(/mnt/sda5/.user/root/src/openwatcom-1.9/bld/gui/ui/c/guismove.c)
0009:7288      GUIStartMoveResize_
0009:72b0      GUIStartKeyboardMoveResize_
0009:753c*     MoveResizeCancel_
0009:7550      GUIDoKeyboardMoveResize_
0009:7614      GUIDoMoveResize_
0009:7658      GUIDoMoveResizeCheck_
Module: /mnt/sda5/.user/root/src/openwatcom-1.9/bld/gui/ui/wini86/gui.lib(/mnt/sda5/.user/root/src/openwatcom-1.9/bld/gui/ui/c/guikey.c)
0009:76b0      GUIProcessAltMenuEvent_
Module: /mnt/sda5/.user/root/src/openwatcom-1.9/bld/gui/ui/wini86/gui.lib(/mnt/sda5/.user/root/src/openwatcom-1.9/bld/gui/ui/c/guixhook.c)
0009:7780      GUISetMDIProcessEvent_
0009:7788      GUIMDIProcessEvent_
Module: /mnt/sda5/.user/root/src/openwatcom-1.9/rel2/lib286/win/clibl.lib(dosdrive)
0006:4a12*     _dos_getdrive_
0006:4a26      _dos_setdrive_
Module: /mnt/sda5/.user/root/src/openwatcom-1.9/rel2/lib286/win/clibl.lib(chdir.c)
0006:4a3c      chdir_
Module: /mnt/sda5/.user/root/src/openwatcom-1.9/rel2/lib286/win/clibl.lib(_istrcc_.asm)
0006:4a58      strcasecmp_
Module: /mnt/sda5/.user/root/src/openwatcom-1.9/rel2/lib286/win/clibl.lib(strtok.c)
0006:4a5d      strtok_
Module: /mnt/sda5/.user/root/src/openwatcom-1.9/rel2/lib286/win/clibl.lib(gtcwd.c)
0006:4b18      getcwd_
Module: /mnt/sda5/.user/root/src/openwatcom-1.9/rel2/lib286/win/clibl.lib(dir.c)
0006:4c1f+     _opendir_
0006:4de8      opendir_
0006:4dfa      readdir_
0006:4e3b      closedir_
0006:4e98*     rewinddir_
Module: /mnt/sda5/.user/root/src/openwatcom-1.9/rel2/lib286/win/clibl.lib(stat.c)
0006:4f5b      stat_
Module: /mnt/sda5/.user/root/src/openwatcom-1.9/bld/gui/ui/wini86/gui.lib(/mnt/sda5/.user/root/src/openwatcom-1.9/bld/gui/ui/c/helpmem.c)
0009:77b0      HelpMemFree_
0009:77bc      HelpMemAlloc_
0009:77c8      HelpMemRealloc_
Module: /mnt/sda5/.user/root/src/openwatcom-1.9/rel2/lib286/win/clibl.lib(splitpat.c)
0006:52b0      _splitpath_
Module: /mnt/sda5/.user/root/src/openwatcom-1.9/bld/gui/ui/wini86/gui.lib(/mnt/sda5/.user/root/src/openwatcom-1.9/bld/help/c/search.c)
0009:7ab0      HelpFindFirst_
0009:7b88      HelpGetIndexedTopic_
0009:7c34      HelpFindTopicOffset_
0009:7cc8      InitHelpSearch_
0009:7f8a      GetDefTopic_
0009:7fa8*     GetDescrip_
0009:7fc6      FiniHelpSearch_
000a:4a08+     _curFile
000a:8f70+     _curPage
000a:9370+     _pageIndex
000a:9374+     _pageHeader
000a:9378+     _stringBlock
Module: /mnt/sda5/.user/root/src/openwatcom-1.9/bld/ui/win/wini86/ui.lib(/mnt/sda5/.user/root/src/openwatcom-1.9/bld/ui/c/uivattr.c)
0009:802d      uivattribute_
0009:8092*     uivattrflip_
Module: /mnt/sda5/.user/root/src/openwatcom-1.9/bld/ui/win/wini86/ui.lib(/mnt/sda5/.user/root/src/openwatcom-1.9/bld/ui/c/uitab.c)
0009:825f      uitabfilter_
Module: /mnt/sda5/.user/root/src/openwatcom-1.9/bld/gui/ui/wini86/gui.lib(/mnt/sda5/.user/root/src/openwatcom-1.9/bld/help/c/dlg.c)
0009:86e0+     GetListBoxItem_
0009:8880      HelpDialogCallBack_
0009:892c      SearchDlgFini_
0009:895e      HelpSearch_
Module: /mnt/sda5/.user/root/src/openwatcom-1.9/bld/gui/ui/wini86/gui.lib(/mnt/sda5/.user/root/src/openwatcom-1.9/bld/help/c/helpscan.c)
0009:8d0c+     freeHyperlinkInfo_
0009:8d48      ScanLine_
Module: /mnt/sda5/.user/root/src/openwatcom-1.9/rel2/lib286/win/clibl.lib(atoi.c)
0006:53be      atoi_
Module: /mnt/sda5/.user/root/src/openwatcom-1.9/bld/gui/ui/wini86/gui.lib(/mnt/sda5/.user/root/src/openwatcom-1.9/bld/help/c/vvscroll.c)
0009:8f10      vvscroll_
Module: /mnt/sda5/.user/root/src/openwatcom-1.9/bld/gui/ui/wini86/gui.lib(/mnt/sda5/.user/root/src/openwatcom-1.9/bld/help/c/msgbox.c)
0009:9000      ShowMsgBox_
000a:4a9c+     _helpMsgBox
Module: /mnt/sda5/.user/root/src/openwatcom-1.9/rel2/lib286/win/clibl.lib(itoa.c)
0006:541a      utoa_
0006:547d      itoa_
Module: /mnt/sda5/.user/root/src/openwatcom-1.9/bld/gui/ui/wini86/gui.lib(/mnt/sda5/.user/root/src/openwatcom-1.9/bld/gui/ui/c/guienum.c)
0009:9070      GUIEnumChildWindows_
Module: /mnt/sda5/.user/root/src/openwatcom-1.9/bld/sdk/rc/wres/dosi86/ml/wres.lib(resmenu.c)
0009:90e0*     ResWriteMenuHeader_
0009:910a*     ResWriteMenuExHeader_
0009:918a+     ResWriteMenuItemPopup_
0009:91e0*     ResWriteMenuExItemPopup_
0009:92b0+     ResWriteMenuItemNormal_
0009:931e*     ResWriteMenuExItemNormal_
0009:93d2*     ResWriteMenuItem_
0009:93ee+     ResReadMenuHeader_
0009:9426*     ResReadMenuExtraBytes_
0009:9472*     ResIsMenuEx_
0009:94a0*     ResIsHeaderMenuEx_
0009:94b2*     ResReadMenuExItem_
0009:95e4*     ResReadMenuItem_
0009:9698*     ResReadMenuItem32_
0009:974c      ResNewMenuItem_
0009:979a      ResFreeMenuItem_
Module: /mnt/sda5/.user/root/src/openwatcom-1.9/bld/ui/win/wini86/ui.lib(/mnt/sda5/.user/root/src/openwatcom-1.9/bld/ui/c/uicheck.c)
0009:9827      okarea_
0009:984c      oksubarea_
0009:986a      okline_
0009:98a0      okopen_
Module: /mnt/sda5/.user/root/src/openwatcom-1.9/rel2/lib286/win/clibl.lib(argcv.c)
000a:93a4      __argv
000a:93a8      ___argv
000a:93ac      __argc
000a:93ae      ___argc
Module: /mnt/sda5/.user/root/src/openwatcom-1.9/rel2/lib286/win/clibl.lib(wstart)
0000:0006*     pLocalHeap
0000:0008*     pAtomTable
0000:000a*     pStackTop
0000:000c*     pStackMin
0000:000e*     pStackBot
000a:0000*     __nullarea
000a:4ac8      __curbrk
000a:4aca      __psp
000a:4acc      __osmajor
000a:4acd*     __osminor
000a:4ace      __osmode
000a:000a      __STACKLOW
000a:000c*     __STACKTOP
000a:4ad0*     __cbyte
000a:4ad2*     __child
000a:4ad4      __no87
000a:4acf*     __HShift
000a:4ad6*     __get_ovl_stack
000a:4ada*     __restore_ovl_stack
000a:4ade*     ___FPE_handler
000a:4ae2      __LpCmdLine
000a:4ae6      __LpPgmName
0006:54a6      _wstart_
0006:54a6*     _cstart_
0006:5587      __exit_
0006:5598      __GETDS
Module: /mnt/sda5/.user/root/src/openwatcom-1.9/bld/ui/win/wini86/ui.lib(/mnt/sda5/.user/root/src/openwatcom-1.9/bld/ui/c/uibfake.c)
0009:98b7      bfake_
Module: /mnt/sda5/.user/root/src/openwatcom-1.9/bld/ui/win/wini86/ui.lib(/mnt/sda5/.user/root/src/openwatcom-1.9/bld/ui/win/c/uisnow.c)
0009:9909*     vertretrace_
0009:992e      issnow_
Module: /mnt/sda5/.user/root/src/openwatcom-1.9/bld/ui/win/wini86/ui.lib(/mnt/sda5/.user/root/src/openwatcom-1.9/bld/ui/c/uifar.c)
0009:995d      _farfill
0009:99a5      _farcopy
0009:9a1a      _farstring
0009:9aaa      _farattrib
0009:9b1a      _farattrflip
Module: /mnt/sda5/.user/root/src/openwatcom-1.9/bld/ui/win/wini86/ui.lib(/mnt/sda5/.user/root/src/openwatcom-1.9/bld/ui/c/uimem.c)
0009:9b89      faralloc_
0009:9b95      farfree_
Module: /mnt/sda5/.user/root/src/openwatcom-1.9/rel2/lib286/win/clibl.lib(setbits.c)
0006:559a      __setbits_
Module: /mnt/sda5/.user/root/src/openwatcom-1.9/rel2/lib286/win/clibl.lib(bits.c)
000a:0244      __Bits
Module: /mnt/sda5/.user/root/src/openwatcom-1.9/rel2/lib286/win/clibl.lib(__lseek.c)
0006:55ee      __lseek_
Module: /mnt/sda5/.user/root/src/openwatcom-1.9/rel2/lib286/win/clibl.lib(winrtns.c)
000a:4b7a      __WindowsIsWindowedHandle
000a:4b7e      __WindowsRemoveWindowedHandle
000a:4b82      __WindowsNewWindow
000a:4b86      __WindowsCloseWindow
000a:4b8a*     __WindowsSetAbout
000a:4b8e*     __WindowsSetAppTitle
000a:4b92*     __WindowsSetConTitle
000a:4b96*     __WindowsDestroyOnClose
000a:4b9a*     __WindowsYieldControl
000a:4b9e*     __WindowsShutDown
000a:4ba2      __WindowsStdin
000a:4ba6      __WindowsStdout
000a:4baa*     __WindowsKbhit
000a:4bae*     __WindowsGetch
000a:4bb2*     __WindowsGetche
000a:4bb6*     __WindowsPutch
000a:4bba      __WindowsExitRtn
Module: /mnt/sda5/.user/root/src/openwatcom-1.9/rel2/lib286/win/clibl.lib(dosret.c)
0006:562b*     _dosretax_
0006:563d*     _dosret0_
0006:5651      __set_errno_dos_
0006:56ab*     __set_errno_dos_reterr_
Module: /mnt/sda5/.user/root/src/openwatcom-1.9/rel2/lib286/win/clibl.lib(seterrno.c)
0006:56bc      __set_errno_
0006:56d7*     __set_EDOM_
0006:56ee      __set_ERANGE_
0006:5704*     __set_EINVAL_
0006:571d      __set_doserrno_
Module: /mnt/sda5/.user/root/src/openwatcom-1.9/rel2/lib286/win/clibl.lib(iomode.c)
0006:572d      __GetIOMode_
0006:5749      __SetIOMode_nogrow_
000a:4bd2      ___NFiles
000a:4bd4      ___init_mode
000a:4bfc      ___io_mode
Module: /mnt/sda5/.user/root/src/openwatcom-1.9/rel2/lib286/win/clibl.lib(stk)
0006:5769      __STK
0006:5780      __STKOVERFLOW_
Module: /mnt/sda5/.user/root/src/openwatcom-1.9/bld/sdk/rc/wres/dosi86/ml/wres.lib(wriidfn.c)
0009:9bb0      WResInitIDFromNum_
Module: /mnt/sda5/.user/root/src/openwatcom-1.9/bld/sdk/rc/wres/dosi86/ml/wres.lib(wrfindrs.c)
0009:9bc0      __FindType_
0009:9c16      __FindRes_
0009:9c6c      __FindLang_
0009:9cd8      WResFindResource_
Module: /mnt/sda5/.user/root/src/openwatcom-1.9/bld/sdk/rc/wres/dosi86/ml/wres.lib(wrgetli.c)
0009:9d80      WResGetLangInfo_
0009:9da6*     WResGetFileInfo_
Module: /mnt/sda5/.user/root/src/openwatcom-1.9/bld/sdk/rc/wres/dosi86/ml/wres.lib(ropenfro.c)
0009:9dd0      ResOpenFileRO_
Module: /mnt/sda5/.user/root/src/openwatcom-1.9/bld/sdk/rc/wres/dosi86/ml/wres.lib(wrinitdi.c)
0009:9e00      WResInitDir_
Module: /mnt/sda5/.user/root/src/openwatcom-1.9/bld/sdk/rc/wres/dosi86/ml/wres.lib(wrreaddi.c)
0009:a652      WResReadDir_
0009:a66a+     WResReadDir2_
Module: /mnt/sda5/.user/root/src/openwatcom-1.9/bld/sdk/rc/wres/dosi86/ml/wres.lib(wrfreedi.c)
0009:a770+     __FreeLangList_
0009:a7d0+     __FreeResList_
0009:a844      __FreeTypeList_
0009:a8b8      WResFreeDir_
Module: /mnt/sda5/.user/root/src/openwatcom-1.9/bld/sdk/rc/wres/dosi86/ml/wres.lib(rclosef.c)
0009:a8e0      ResCloseFile_
Module: /mnt/sda5/.user/root/src/openwatcom-1.9/rel2/lib286/win/clibl.lib(initfile.c)
0006:579d      __InitFiles_
Module: /mnt/sda5/.user/root/src/openwatcom-1.9/rel2/lib286/win/clibl.lib(ioexit.c)
0006:58e5*     fcloseall_
0006:58f2      __full_io_exit_
Module: /mnt/sda5/.user/root/src/openwatcom-1.9/rel2/lib286/win/clibl.lib(mbinit.c)
0006:5937      __mbinit_
000a:4c02      ___MBCodePage
Module: /mnt/sda5/.user/root/src/openwatcom-1.9/bld/ui/win/wini86/ui.lib(/mnt/sda5/.user/root/src/openwatcom-1.9/bld/ui/c/uibpix.c)
0009:a8fd      bpixel_
Module: /mnt/sda5/.user/root/src/openwatcom-1.9/bld/ui/win/wini86/ui.lib(/mnt/sda5/.user/root/src/openwatcom-1.9/bld/ui/c/uivline.c)
0009:aae2      uiveditevent_
0009:ad14*     uiveditline_
0009:ad4d      uiveditinit_
0009:adb6      uiveditfini_
000a:4c04      _LineEvents
Module: /mnt/sda5/.user/root/src/openwatcom-1.9/bld/ui/win/wini86/ui.lib(/mnt/sda5/.user/root/src/openwatcom-1.9/bld/ui/c/uiband.c)
0009:ade8      uibandinit_
0009:ae38      uibandmove_
0009:ae76      uibandfini_
Module: /mnt/sda5/.user/root/src/openwatcom-1.9/rel2/lib286/win/clibl.lib(doserror)
0006:59d6      __doserror_
Module: /mnt/sda5/.user/root/src/openwatcom-1.9/rel2/lib286/win/clibl.lib(mbsnextc.c)
0006:59e4      _mbsnextc_
Module: /mnt/sda5/.user/root/src/openwatcom-1.9/rel2/lib286/win/clibl.lib(mbsinc.c)
0006:5a10      _mbsinc_
Module: /mnt/sda5/.user/root/src/openwatcom-1.9/rel2/lib286/win/clibl.lib(finddos.c)
0006:5a45      _dos_findfirst_
0006:5a7a      _dos_findnext_
0006:5a93      _dos_findclose_
Module: /mnt/sda5/.user/root/src/openwatcom-1.9/rel2/lib286/win/clibl.lib(strdup.c)
0006:5a96      __clib_strdup_
Module: /mnt/sda5/.user/root/src/openwatcom-1.9/rel2/lib286/win/clibl.lib(mbschr.c)
0006:5af2      _mbschr_
Module: /mnt/sda5/.user/root/src/openwatcom-1.9/rel2/lib286/win/clibl.lib(mbscmp.c)
0006:5b7b      _mbscmp_
Module: /mnt/sda5/.user/root/src/openwatcom-1.9/rel2/lib286/win/clibl.lib(mbspbrk.c)
0006:5c19      _mbspbrk_
Module: /mnt/sda5/.user/root/src/openwatcom-1.9/rel2/lib286/win/clibl.lib(fullpath.c)
0006:5c74+     _sys_fullpath_
0006:5f2a      _fullpath_
Module: /mnt/sda5/.user/root/src/openwatcom-1.9/rel2/lib286/win/clibl.lib(fstat.c)
0006:5fe9      fstat_
Module: /mnt/sda5/.user/root/src/openwatcom-1.9/rel2/lib286/win/clibl.lib(errno.c)
0006:6163      __get_errno_ptr_
0006:6169      __get_doserrno_ptr_
000a:93d6+     _errno
000a:93d8+     __doserrno
Module: /mnt/sda5/.user/root/src/openwatcom-1.9/rel2/lib286/win/clibl.lib(d2ttime.c)
0006:616f      _d2ttime_
Module: /mnt/sda5/.user/root/src/openwatcom-1.9/rel2/lib286/win/clibl.lib(mbsnccnt.c)
0006:61df      _mbsnccnt_
Module: /mnt/sda5/.user/root/src/openwatcom-1.9/rel2/lib286/win/clibl.lib(mbsncpy.c)
0006:6219      _mbsncpy_
Module: /mnt/sda5/.user/root/src/openwatcom-1.9/rel2/lib286/win/clibl.lib(mbsnbcnt.c)
0006:6252      _mbsnbcnt_
Module: /mnt/sda5/.user/root/src/openwatcom-1.9/bld/ui/win/wini86/ui.lib(/mnt/sda5/.user/root/src/openwatcom-1.9/bld/ui/c/uibattr.c)
0009:ae9d      battribute_
0009:af04      battrflip_
Module: /mnt/sda5/.user/root/src/openwatcom-1.9/rel2/lib286/win/clibl.lib(alphabet.c)
000a:018a      ___Alphabet
Module: /mnt/sda5/.user/root/src/openwatcom-1.9/bld/sdk/rc/wres/dosi86/ml/wres.lib(wrerror.c)
0009:af70      WresRecordError_
Module: /mnt/sda5/.user/root/src/openwatcom-1.9/bld/sdk/rc/wres/dosi86/ml/wres.lib(write.c)
0009:afc0      ResWriteUint8_
0009:afea      ResWriteUint16_
0009:b014      ResWriteUint32_
0009:b03e+     WResWriteWResIDNameUni_
0009:b12e*     WResWriteWResIDName_
0009:b13a*     WResWriteWResID_
0009:b18e*     WResWriteTypeRecord_
0009:b1cc*     WResWriteResRecord_
0009:b20a*     WResWriteLangRecord_
0009:b234*     WResWriteHeaderRecord_
0009:b2a0*     WResWriteExtHeader_
0009:b2ca+     ResWriteStringLen_
0009:b362      ResWriteString_
0009:b39e+     ResWriteNameOrOrdinal_
0009:b4dc*     MResWriteResourceHeader_
0009:b652*     WriteInitStatics_
000a:4c20+     _ConvToUnicode
Module: /mnt/sda5/.user/root/src/openwatcom-1.9/bld/sdk/rc/wres/dosi86/ml/wres.lib(resseek.c)
0009:b680*     ResSeek_
0009:b6a6      ResPadDWord_
Module: /mnt/sda5/.user/root/src/openwatcom-1.9/bld/sdk/rc/wres/dosi86/ml/wres.lib(rduint32.c)
0009:b740      ResReadUint32_
Module: /mnt/sda5/.user/root/src/openwatcom-1.9/bld/sdk/rc/wres/dosi86/ml/wres.lib(rduint16.c)
0009:b790      ResReadUint16_
Module: /mnt/sda5/.user/root/src/openwatcom-1.9/bld/sdk/rc/wres/dosi86/ml/wres.lib(rrdstr.c)
0009:b7e0      ResReadString_
0009:b86e      ResRead32String_
Module: /mnt/sda5/.user/root/src/openwatcom-1.9/bld/ui/win/wini86/ui.lib(/mnt/sda5/.user/root/src/openwatcom-1.9/bld/ui/c/uibarf.c)
0009:b8fc      uibarf_
Module: /mnt/sda5/.user/root/src/openwatcom-1.9/rel2/lib286/win/clibl.lib(initargv.c)
0006:62c4      __Init_Argv_
0006:631a+     _getargv_
0006:6541      __Fini_Argv_
Module: /mnt/sda5/.user/root/src/openwatcom-1.9/rel2/lib286/win/clibl.lib(exit.c)
0006:6560+     __null_int23_exit_
0006:6561      exit_
0006:659a      _exit_
000a:4c24+     ___int23_exit
000a:4c28+     ___FPE_handler_exit
Module: /mnt/sda5/.user/root/src/openwatcom-1.9/rel2/lib286/win/clibl.lib(initrtns.c)
0006:65ea      __FInitRtns
0006:65f5+     __InitRtns
0006:6653      __FFiniRtns
0006:665e      __FiniRtns
Module: /mnt/sda5/.user/root/src/openwatcom-1.9/rel2/lib286/win/clibl.lib(dosseg)
0006:66c2      __DOSseg__
Module: /mnt/sda5/.user/root/src/openwatcom-1.9/rel2/lib286/win/clibl.lib(fmemmove.c)
0006:66c3      _fmemmove_
Module: /mnt/sda5/.user/root/src/openwatcom-1.9/rel2/lib286/win/clibl.lib(xmsgwin.c)
0006:6734+     __exit_with_msg_
0006:6795      __fatal_runtime_error_
Module: /mnt/sda5/.user/root/src/openwatcom-1.9/bld/sdk/rc/wres/dosi86/ml/wres.lib(wridcmp.c)
0009:b900      WResIDCmp_
Module: /mnt/sda5/.user/root/src/openwatcom-1.9/rel2/lib286/win/clibl.lib(setmd.c)
0006:67b2      setmode_
Module: /mnt/sda5/.user/root/src/openwatcom-1.9/bld/sdk/rc/wres/dosi86/ml/wres.lib(ralliae.c)
0009:b940      ResAddLLItemAtEnd_
Module: /mnt/sda5/.user/root/src/openwatcom-1.9/bld/sdk/rc/wres/dosi86/ml/wres.lib(wrrfrr.c)
0009:b9d0      WResReadFixedResRecord_
0009:ba08      WResReadFixedResRecord1_
0009:ba40      WResReadFixedResRecord2_
Module: /mnt/sda5/.user/root/src/openwatcom-1.9/bld/sdk/rc/wres/dosi86/ml/wres.lib(wridexby.c)
0009:bac0      WResIDExtraBytes_
Module: /mnt/sda5/.user/root/src/openwatcom-1.9/bld/sdk/rc/wres/dosi86/ml/wres.lib(wrrewrid.c)
0009:bae0      WResReadExtraWResID_
Module: /mnt/sda5/.user/root/src/openwatcom-1.9/bld/sdk/rc/wres/dosi86/ml/wres.lib(wrrftr.c)
0009:bb40      WResReadFixedTypeRecord_
0009:bb80      WResReadFixedTypeRecord2_
Module: /mnt/sda5/.user/root/src/openwatcom-1.9/bld/sdk/rc/wres/dosi86/ml/wres.lib(wrrhr.c)
0009:bbf0      WResReadHeaderRecord_
0009:bc7c      WResReadExtHeader_
Module: /mnt/sda5/.user/root/src/openwatcom-1.9/bld/sdk/rc/wres/dosi86/ml/wres.lib(mrrdrh.c)
0009:bcc0      M32ResReadResourceHeader_
0009:bea2      MResReadResourceHeader_
Module: /mnt/sda5/.user/root/src/openwatcom-1.9/bld/sdk/rc/wres/dosi86/ml/wres.lib(wrfree.c)
0009:bfa0      MResFreeResourceHeader_
Module: /mnt/sda5/.user/root/src/openwatcom-1.9/bld/sdk/rc/wres/dosi86/ml/wres.lib(wridfnoo.c)
0009:bff0      WResIDFromNameOrOrd_
Module: /mnt/sda5/.user/root/src/openwatcom-1.9/bld/sdk/rc/wres/dosi86/ml/wres.lib(wraddres.c)
0009:c1d8*     WResAddResource_
0009:c250      WResAddResource2_
Module: /mnt/sda5/.user/root/src/openwatcom-1.9/bld/sdk/rc/wres/dosi86/ml/wres.lib(wriswrf.c)
0009:c3f0      WResFindResType_
0009:c4a6*     WResIsWResFile_
Module: /mnt/sda5/.user/root/src/openwatcom-1.9/rel2/lib286/win/clibl.lib(nmalloc.c)
0006:6870      _nmalloc_
000a:4c2c      ___nheapbeg
000a:4c2e      ___MiniHeapRover
000a:4c30      ___LargestSizeB4MiniHeapRover
Module: /mnt/sda5/.user/root/src/openwatcom-1.9/rel2/lib286/win/clibl.lib(fclose.c)
0006:6934+     __doclose_
0006:69f0      __shutdown_stream_
0006:6a0d*     fclose_
000a:95de+     ___RmTmpFileFn
Module: /mnt/sda5/.user/root/src/openwatcom-1.9/rel2/lib286/win/clibl.lib(freefp.c)
0006:6a5d      __freefp_
0006:6ad9      __purgefp_
Module: /mnt/sda5/.user/root/src/openwatcom-1.9/bld/ui/win/wini86/ui.lib(/mnt/sda5/.user/root/src/openwatcom-1.9/bld/ui/c/uipad.c)
0009:c4b5      uipadblanks_
Module: /mnt/sda5/.user/root/src/openwatcom-1.9/bld/ui/win/wini86/ui.lib(/mnt/sda5/.user/root/src/openwatcom-1.9/bld/ui/c/uivedit.c)
0009:c52b+     secondbyte_
0009:c553      uieditevent_
Module: /mnt/sda5/.user/root/src/openwatcom-1.9/rel2/lib286/win/clibl.lib(mbconv.c)
0006:6b12      _mbvtop_
Module: /mnt/sda5/.user/root/src/openwatcom-1.9/rel2/lib286/win/clibl.lib(mbclen.c)
0006:6b2a      _mbclen_
Module: /mnt/sda5/.user/root/src/openwatcom-1.9/rel2/lib286/win/clibl.lib(mbterm.c)
0006:6b51      _mbterm_
Module: /mnt/sda5/.user/root/src/openwatcom-1.9/rel2/lib286/win/clibl.lib(mbccmp.c)
0006:6b8d      _mbccmp_
Module: /mnt/sda5/.user/root/src/openwatcom-1.9/rel2/lib286/win/clibl.lib(filelen.c)
0006:6be1      filelength_
Module: /mnt/sda5/.user/root/src/openwatcom-1.9/rel2/lib286/win/clibl.lib(mktime.c)
0006:6c42      mktime_
Module: /mnt/sda5/.user/root/src/openwatcom-1.9/rel2/lib286/win/clibl.lib(mbsnbcpy.c)
0006:6cf5      _mbsnbcpy_
Module: /mnt/sda5/.user/root/src/openwatcom-1.9/bld/sdk/rc/wres/dosi86/ml/wres.lib(varstr.c)
0009:ca30      VarStringStart_
0009:ca72      VarStringAddChar_
0009:caf8      VarStringEnd_
Module: /mnt/sda5/.user/root/src/openwatcom-1.9/bld/sdk/rc/wres/dosi86/ml/wres.lib(rduint8.c)
0009:cbc0      ResReadUint8_
Module: /mnt/sda5/.user/root/src/openwatcom-1.9/rel2/lib286/win/clibl.lib(histsplt.c)
000a:95e2      ___historical_splitparms
Module: /mnt/sda5/.user/root/src/openwatcom-1.9/rel2/lib286/win/clibl.lib(___argc.c)
000a:95e4      ____Argv
000a:95e8      ____Argc
Module: /mnt/sda5/.user/root/src/openwatcom-1.9/rel2/lib286/win/clibl.lib(sgdef086)
000a:4e80      __Start_XI
000a:4eb6      __End_XI
000a:4eb6      __Start_YI
000a:4ed4      __End_YI
Module: /mnt/sda5/.user/root/src/openwatcom-1.9/rel2/lib286/win/clibl.lib(enterdb.c)
0006:6d74      __EnterWVIDEO_
000a:4c32+     ___WD_Present
Module: /mnt/sda5/.user/root/src/openwatcom-1.9/bld/sdk/rc/wres/dosi86/ml/wres.lib(wridnacm.c)
0009:cc72      WResIDNameCmp_
Module: /mnt/sda5/.user/root/src/openwatcom-1.9/rel2/lib286/win/clibl.lib(stiomode.c)
0006:6d98+     __grow_iomode_
0006:6e53+     __shrink_iomode_
0006:6e86      __SetIOMode_
Module: /mnt/sda5/.user/root/src/openwatcom-1.9/bld/sdk/rc/wres/dosi86/ml/wres.lib(rrnamoor.c)
0009:cce0      ResReadNameOrOrdinal_
0009:cde2      ResRead32NameOrOrdinal_
Module: /mnt/sda5/.user/root/src/openwatcom-1.9/bld/sdk/rc/wres/dosi86/ml/wres.lib(wridfrnu.c)
0009:cef0      WResIDFromNum_
Module: /mnt/sda5/.user/root/src/openwatcom-1.9/bld/sdk/rc/wres/dosi86/ml/wres.lib(wridfrst.c)
0009:cf60      WResIDFromStr_
Module: /mnt/sda5/.user/root/src/openwatcom-1.9/bld/sdk/rc/wres/dosi86/ml/wres.lib(wrfirres.c)
0009:cfd0*     WResFirstResource_
0009:d024      WResSetEmptyWindow_
0009:d052      WResMakeWindow_
Module: /mnt/sda5/.user/root/src/openwatcom-1.9/rel2/lib286/win/clibl.lib(nmemneed.c)
0006:6edf      __nmemneed_
Module: /mnt/sda5/.user/root/src/openwatcom-1.9/rel2/lib286/win/clibl.lib(mem.c)
0006:6ef0      __MemAllocator
0006:6fbe      __MemFree
Module: /mnt/sda5/.user/root/src/openwatcom-1.9/rel2/lib286/win/clibl.lib(grownear.c)
0006:723a      __ExpandDGROUP_
Module: /mnt/sda5/.user/root/src/openwatcom-1.9/rel2/lib286/win/clibl.lib(_clse.c)
0006:724f      __close_
Module: /mnt/sda5/.user/root/src/openwatcom-1.9/rel2/lib286/win/clibl.lib(flush.c)
0006:72b5      __flush_
Module: /mnt/sda5/.user/root/src/openwatcom-1.9/rel2/lib286/win/clibl.lib(locmktim.c)
0006:7408      __local_mktime_
Module: /mnt/sda5/.user/root/src/openwatcom-1.9/rel2/lib286/win/clibl.lib(gmtime.c)
0006:761f      __brktime_
0006:778d+     _gmtime_
0006:77b8*     gmtime_
Module: /mnt/sda5/.user/root/src/openwatcom-1.9/rel2/lib286/win/clibl.lib(tzset.c)
000a:4c34      ___start_dst
000a:4c46      ___end_dst
000a:4d5a*     _tzname
000a:4d62      _timezone
000a:4d66      _daylight
000a:4d68      ___dst_adjust
0006:77cc*     __DontCacheOSTZ_
0006:77e0*     __CacheOSTZ_
0006:7d6e+     __parse_tz_
0006:7f09      tzset_
Module: /mnt/sda5/.user/root/src/openwatcom-1.9/rel2/lib286/win/clibl.lib(timeutil.c)
0006:807e      __isindst_
Module: /mnt/sda5/.user/root/src/openwatcom-1.9/rel2/lib286/win/clibl.lib(iomodtty.c)
0006:8391      __ChkTTYIOMode_
0006:83d1*     __IOMode_
Module: /mnt/sda5/.user/root/src/openwatcom-1.9/rel2/lib286/win/clibl.lib(amblksiz.c)
000a:4d90      __amblksiz
Module: /mnt/sda5/.user/root/src/openwatcom-1.9/rel2/lib286/win/clibl.lib(heapen.c)
0006:83e7*     _heapenable_
000a:4d92      ___heap_enabled
Module: /mnt/sda5/.user/root/src/openwatcom-1.9/rel2/lib286/win/clibl.lib(nfree.c)
0006:83f3      _nfree_
000a:95fe      ___MiniHeapFreeRover
Module: /mnt/sda5/.user/root/src/openwatcom-1.9/rel2/lib286/win/clibl.lib(nheapmin.c)
0006:84be*     _nheapmin_
0006:8546      _nheapshrink_
Module: /mnt/sda5/.user/root/src/openwatcom-1.9/rel2/lib286/win/clibl.lib(fsync.c)
0006:8577      fsync_
Module: /mnt/sda5/.user/root/src/openwatcom-1.9/rel2/lib286/win/clibl.lib(qwrit.c)
0006:8583      __qwrite_
Module: /mnt/sda5/.user/root/src/openwatcom-1.9/rel2/lib286/win/clibl.lib(leapyear.c)
0006:8618      __leapyear_
000a:01c2      ___diyr
000a:01dc      ___dilyr
Module: /mnt/sda5/.user/root/src/openwatcom-1.9/rel2/lib286/win/clibl.lib(isatt.c)
0006:8642      isatty_
Module: /mnt/sda5/.user/root/src/openwatcom-1.9/rel2/lib286/win/clibl.lib(filedos.c)
0006:8683*     _dos_close_
0006:8697      _dos_commit_
Module: /mnt/sda5/.user/root/src/openwatcom-1.9/rel2/lib286/win/clibl.lib(getenv.c)
0006:86ab      getenv_
Module: /mnt/sda5/.user/root/src/openwatcom-1.9/rel2/lib286/win/clibl.lib(setenv.c)
0006:8772      setenv_
0006:8a65      _setenv_
Module: /mnt/sda5/.user/root/src/openwatcom-1.9/rel2/lib286/win/clibl.lib(strstr.c)
0006:8cfb      strstr_
Module: /mnt/sda5/.user/root/src/openwatcom-1.9/rel2/lib286/win/clibl.lib(fmalloc.c)
0006:8dba      malloc_
0006:8dc5      _fmalloc_
000a:4d94      ___fheap
000a:4d96      ___fheapRover
000a:4d98      ___LargestSizeB4Rover
Module: /mnt/sda5/.user/root/src/openwatcom-1.9/rel2/lib286/win/clibl.lib(ffree.c)
0006:8ebd      free_
0006:8ec8      _ffree_
Module: /mnt/sda5/.user/root/src/openwatcom-1.9/rel2/lib286/win/clibl.lib(cmdname.c)
0006:8f06      _cmdname_
Module: /mnt/sda5/.user/root/src/openwatcom-1.9/rel2/lib286/win/clibl.lib(cmodel)
0006:8f46      _big_code_
0006:8f46*     CodeModelMismatch
Module: /mnt/sda5/.user/root/src/openwatcom-1.9/rel2/lib286/win/clibl.lib(_8087)
000a:4d9a      __8087
000a:4d9b      __real87
Module: /mnt/sda5/.user/root/src/openwatcom-1.9/rel2/lib286/win/clibl.lib(gtcmddos.c)
0006:8f46+     _bgetcmd_
0006:8fd2      getcmd_
Module: /mnt/sda5/.user/root/src/openwatcom-1.9/rel2/lib286/win/clibl.lib(memmove.c)
0006:8fee      memmove_
Module: /mnt/sda5/.user/root/src/openwatcom-1.9/rel2/lib286/win/clibl.lib(istable.c)
000a:024c      __IsTable
Module: /mnt/sda5/.user/root/src/openwatcom-1.9/rel2/lib286/win/clibl.lib(i4m)
0006:9068      __I4M
0006:9068      __U4M
Module: /mnt/sda5/.user/root/src/openwatcom-1.9/rel2/lib286/win/clibl.lib(i4d)
0006:9080      __I4D
0006:90cf      __U4D
Module: /mnt/sda5/.user/root/src/openwatcom-1.9/rel2/lib286/win/clibl.lib(sprintf.c)
0006:9153      sprintf_
Module: /mnt/sda5/.user/root/src/openwatcom-1.9/rel2/lib286/win/clibl.lib(setjmp)
0006:9186      _setjmp_
0006:91bc      longjmp_
Module: /mnt/sda5/.user/root/src/openwatcom-1.9/rel2/lib286/win/clibl.lib(stricmp.c)
0006:91ff      stricmp_
Module: /mnt/sda5/.user/root/src/openwatcom-1.9/rel2/lib286/win/clibl.lib(tolower.c)
0006:923d      tolower_
Module: /mnt/sda5/.user/root/src/openwatcom-1.9/rel2/lib286/win/clibl.lib(puts.c)
0006:924b      puts_
Module: /mnt/sda5/.user/root/src/openwatcom-1.9/rel2/lib286/win/clibl.lib(strtol.c)
0006:94c4      strtoul_
0006:94d8*     strtol_
Module: /mnt/sda5/.user/root/src/openwatcom-1.9/rel2/lib286/win/clibl.lib(fltused.c)
000a:4e28      _fltused_
Module: /mnt/sda5/.user/root/src/openwatcom-1.9/rel2/lib286/win/clibl.lib(strlwr.c)
0006:94e2      strlwr_
Module: /mnt/sda5/.user/root/src/openwatcom-1.9/rel2/lib286/win/clibl.lib(toupper.c)
0006:9506      toupper_
Module: /mnt/sda5/.user/root/src/openwatcom-1.9/rel2/lib286/win/clibl.lib(memicmp.c)
0006:9514      memicmp_
Module: /mnt/sda5/.user/root/src/openwatcom-1.9/rel2/lib286/win/clibl.lib(strnicmp.c)
0006:9564      strnicmp_
Module: /mnt/sda5/.user/root/src/openwatcom-1.9/rel2/lib286/win/clibl.lib(memcmp.c)
0006:95b8      memcmp_
Module: /mnt/sda5/.user/root/src/openwatcom-1.9/rel2/lib286/win/clibl.lib(frealloc.c)
0006:95e2      realloc_
0006:95ed+     _frealloc_
Module: /mnt/sda5/.user/root/src/openwatcom-1.9/rel2/lib286/win/clibl.lib(fheapwal.c)
0006:96c2      _heapwalk_
0006:96c2*     _fheapwalk_
Module: /mnt/sda5/.user/root/src/openwatcom-1.9/rel2/lib286/win/clibl.lib(qsort.c)
0006:9751      qsort_
Module: /mnt/sda5/.user/root/src/openwatcom-1.9/rel2/lib286/win/clibl.lib(open.c)
0006:9f08      open_
0006:9f43+     sopen_
Module: /mnt/sda5/.user/root/src/openwatcom-1.9/rel2/lib286/win/clibl.lib(close.c)
0006:9f71      close_
Module: /mnt/sda5/.user/root/src/openwatcom-1.9/rel2/lib286/win/clibl.lib(read.c)
0006:9f7d      read_
Module: /mnt/sda5/.user/root/src/openwatcom-1.9/rel2/lib286/win/clibl.lib(lseek.c)
0006:a0fe      lseek_
Module: /mnt/sda5/.user/root/src/openwatcom-1.9/rel2/lib286/win/clibl.lib(strupr.c)
0006:a135      strupr_
Module: /mnt/sda5/.user/root/src/openwatcom-1.9/rel2/lib286/win/clibl.lib(init8087)
0006:a15a      __init_8087_emu
0006:a160      __x87id
Module: /mnt/sda5/.user/root/src/openwatcom-1.9/rel2/lib286/win/clibl.lib(sigfpe.c)
0006:a19f      __raise_fpe_
0006:a1a7+     __sigfpe_handler_
Module: /mnt/sda5/.user/root/src/openwatcom-1.9/rel2/lib286/win/clibl.lib(hugeval.c)
000a:034e      __HugeValue
Module: /mnt/sda5/.user/root/src/openwatcom-1.9/rel2/lib286/win/clibl.lib(strncpy.c)
0006:a233      strncpy_
Module: /mnt/sda5/.user/root/src/openwatcom-1.9/rel2/lib286/win/clibl.lib(split2.c)
0006:a2ef      _splitpath2_
Module: /mnt/sda5/.user/root/src/openwatcom-1.9/rel2/lib286/win/clibl.lib(makepath.c)
0006:a4ca      _makepath_
Module: /mnt/sda5/.user/root/src/openwatcom-1.9/rel2/lib286/win/clibl.lib(stack086.c)
0006:a735      stackavail_
Module: /mnt/sda5/.user/root/src/openwatcom-1.9/rel2/lib286/win/clibl.lib(environ.c)
000a:9600      ___env_mask
000a:9604      _environ
000a:9608      __wenviron
Module: /mnt/sda5/.user/root/src/openwatcom-1.9/rel2/lib286/win/clibl.lib(mbcupper.c)
0006:a742      _mbctoupper_
Module: /mnt/sda5/.user/root/src/openwatcom-1.9/rel2/lib286/win/clibl.lib(mbslen.c)
0006:a766      _mbslen_
Module: /mnt/sda5/.user/root/src/openwatcom-1.9/rel2/lib286/win/clibl.lib(mbstowcs.c)
0006:a798      mbstowcs_
Module: /mnt/sda5/.user/root/src/openwatcom-1.9/rel2/lib286/win/clibl.lib(usetenv.c)
0006:a845*     _wsetenv_
0006:aaa7      __wsetenv_
Module: /mnt/sda5/.user/root/src/openwatcom-1.9/rel2/lib286/win/clibl.lib(growseg.c)
0006:aca0      __GrowSeg_
Module: /mnt/sda5/.user/root/src/openwatcom-1.9/rel2/lib286/win/clibl.lib(allocseg.c)
0006:adda      __AllocSeg_
Module: /mnt/sda5/.user/root/src/openwatcom-1.9/rel2/lib286/win/clibl.lib(chk8087.c)
0006:aedc*     _fpreset_
0006:aef6      __init_8087_
0006:af31      __chk8087_
Module: /mnt/sda5/.user/root/src/openwatcom-1.9/rel2/lib286/win/clibl.lib(vsprintf.c)
0006:af94      vsprintf_
Module: /mnt/sda5/.user/root/src/openwatcom-1.9/rel2/lib286/win/clibl.lib(ljmphdl.c)
000a:4e2a      ___longjmp_handler
Module: /mnt/sda5/.user/root/src/openwatcom-1.9/rel2/lib286/win/clibl.lib(fputs.c)
0006:afc3      fputs_
Module: /mnt/sda5/.user/root/src/openwatcom-1.9/rel2/lib286/win/clibl.lib(fputc.c)
0006:b06f      fputc_
Module: /mnt/sda5/.user/root/src/openwatcom-1.9/rel2/lib286/win/clibl.lib(setefg.c)
0006:b161      __setEFGfmt_
Module: /mnt/sda5/.user/root/src/openwatcom-1.9/rel2/lib286/win/clibl.lib(fmsize.c)
0006:b17a*     _msize_
0006:b17a      _fmsize_
Module: /mnt/sda5/.user/root/src/openwatcom-1.9/rel2/lib286/win/clibl.lib(nexpand.c)
0006:b18c      __HeapManager_expand_
0006:b329      _nexpand_
Module: /mnt/sda5/.user/root/src/openwatcom-1.9/rel2/lib286/win/clibl.lib(fexpand.c)
0006:b355*     _expand_
0006:b360      _fexpand_
Module: /mnt/sda5/.user/root/src/openwatcom-1.9/rel2/lib286/win/clibl.lib(heapwalk.c)
0006:b3e8      __HeapWalk_
Module: /mnt/sda5/.user/root/src/openwatcom-1.9/rel2/lib286/win/clibl.lib(opendos.c)
0006:b53e      _dos_open_
Module: /mnt/sda5/.user/root/src/openwatcom-1.9/rel2/lib286/win/clibl.lib(umaskval.c)
000a:4e2e      ___umaskval
Module: /mnt/sda5/.user/root/src/openwatcom-1.9/rel2/lib286/win/clibl.lib(creatdos.c)
0006:b566      _dos_creat_
0006:b58c*     _dos_creatnew_
Module: /mnt/sda5/.user/root/src/openwatcom-1.9/rel2/lib286/win/clibl.lib(8087cw.c)
000a:4e30      __8087cw
Module: /mnt/sda5/.user/root/src/openwatcom-1.9/rel2/lib286/win/clibl.lib(sigtab.c)
000a:4e32      __SignalTable
Module: /mnt/sda5/.user/root/src/openwatcom-1.9/rel2/lib286/win/clibl.lib(mbsdec.c)
0006:b5af      _mbsdec_
Module: /mnt/sda5/.user/root/src/openwatcom-1.9/rel2/lib286/win/clibl.lib(setenvp.c)
0006:b635      __setenvp_
0006:b735      __freeenvp_
Module: /mnt/sda5/.user/root/src/openwatcom-1.9/rel2/lib286/win/clibl.lib(mbdtoupp.c)
0006:b77f      _mbdtoupper_
Module: /mnt/sda5/.user/root/src/openwatcom-1.9/rel2/lib286/win/clibl.lib(mbtowc.c)
0006:b78d      mbtowc_
Module: /mnt/sda5/.user/root/src/openwatcom-1.9/rel2/lib286/win/clibl.lib(crtwenv.c)
0006:b876      __create_wide_environment_
Module: /mnt/sda5/.user/root/src/openwatcom-1.9/rel2/lib286/win/clibl.lib(ugetenv.c)
0006:b901      _wgetenv_
Module: /mnt/sda5/.user/root/src/openwatcom-1.9/rel2/lib286/win/clibl.lib(ustrlen.c)
0006:b9b3      wcslen_
Module: /mnt/sda5/.user/root/src/openwatcom-1.9/rel2/lib286/win/clibl.lib(wcstombs.c)
0006:b9ca      wcstombs_
Module: /mnt/sda5/.user/root/src/openwatcom-1.9/rel2/lib286/win/clibl.lib(utoupper.c)
0006:ba78      towupper_
Module: /mnt/sda5/.user/root/src/openwatcom-1.9/rel2/lib286/win/clibl.lib(memcpy.c)
0006:ba86      memcpy_
Module: /mnt/sda5/.user/root/src/openwatcom-1.9/rel2/lib286/win/clibl.lib(ustrcpy.c)
0006:baad      wcscpy_
Module: /mnt/sda5/.user/root/src/openwatcom-1.9/rel2/lib286/win/clibl.lib(wallflgs.c)
000a:4e66      ___win_alloc_flags
000a:4e6a      ___win_realloc_flags
Module: /mnt/sda5/.user/root/src/openwatcom-1.9/rel2/lib286/win/clibl.lib(save8087.c)
000a:4e6e      ___Save8087
000a:4e72      ___Rest8087
Module: /mnt/sda5/.user/root/src/openwatcom-1.9/rel2/lib286/win/clibl.lib(prtf.c)
0006:bad6      __prtf_
Module: /mnt/sda5/.user/root/src/openwatcom-1.9/rel2/lib286/win/clibl.lib(ioalloc.c)
0006:c9b3      __ioalloc_
Module: /mnt/sda5/.user/root/src/openwatcom-1.9/rel2/lib286/win/clibl.lib(noefgfmt.c)
000a:4e76      ___EFG_printf
000a:4e7a      ___EFG_scanf
Module: /mnt/sda5/.user/root/src/openwatcom-1.9/rel2/lib286/win/math87l.lib(efgfmt.c)
0006:ca89      _EFG_Format_
Module: /mnt/sda5/.user/root/src/openwatcom-1.9/rel2/lib286/win/math87l.lib(cnvs2d.c)
0006:cc42      __cnvs2d_
Module: /mnt/sda5/.user/root/src/openwatcom-1.9/rel2/lib286/win/clibl.lib(bfree.c)
0006:cc62      _bfree_
Module: /mnt/sda5/.user/root/src/openwatcom-1.9/rel2/lib286/win/clibl.lib(bexpand.c)
0006:cc8c      _bexpand_
Module: /mnt/sda5/.user/root/src/openwatcom-1.9/rel2/lib286/win/clibl.lib(clearenv.c)
0006:cce8      clearenv_
Module: /mnt/sda5/.user/root/src/openwatcom-1.9/rel2/lib286/win/clibl.lib(uputenv.c)
0006:cdba*     _wputenv_
0006:cf27      __wputenv_
Module: /mnt/sda5/.user/root/src/openwatcom-1.9/rel2/lib286/win/clibl.lib(ustrnicm.c)
0006:d062      _wcsnicmp_
Module: /mnt/sda5/.user/root/src/openwatcom-1.9/rel2/lib286/win/clibl.lib(wctomb.c)
0006:d0bb      wctomb_
Module: /mnt/sda5/.user/root/src/openwatcom-1.9/rel2/lib286/win/clibl.lib(lltoa.c)
0006:d0e7      ulltoa_
0006:d1d0*     lltoa_
Module: /mnt/sda5/.user/root/src/openwatcom-1.9/rel2/lib286/win/clibl.lib(ltoa.c)
0006:d234      ultoa_
0006:d2a7*     ltoa_
Module: /mnt/sda5/.user/root/src/openwatcom-1.9/rel2/lib286/win/clibl.lib(chktty.c)
0006:d2d8      __chktty_
Module: /mnt/sda5/.user/root/src/openwatcom-1.9/rel2/lib286/win/clibl.lib(rtcntrl.c)
0006:d30e*     _SetLD64bit_
0006:d314*     _SetLD80bit_
0006:d31a      _LDisDouble_
Module: /mnt/sda5/.user/root/src/openwatcom-1.9/rel2/lib286/win/clibl.lib(putenv.c)
0006:d328*     putenv_
0006:d4ec      __putenv_


                        +---------------------+
                        |   Module Segments   |
                        +---------------------+

! = 32-bit segment
c = initialized communal data

Module          Segment               Class           Address         Size
======          =======               =====           =======         ====

/mnt/sda5/.user/root/src/openwatcom-1.9/bld/watcom/c/autoenv.c
                autoenv_TEXT          CODE           0001:0000        000002ee
                CONST                 DATA           000a:0010        00000000
                CONST2                DATA           000a:021c        00000000
                _DATA                 DATA           000a:0360        00000000
/mnt/sda5/.user/root/src/openwatcom-1.9/bld/wv/win/c/wininit.c
                wininit_TEXT          CODE           0001:02f0        00000143
                CONST                 DATA           000a:0010        00000000
                CONST2                DATA           000a:021c        00000000
                _DATA                 DATA           000a:0360        00000004
                _BSS                  BSS            000a:4ee0        00000004
/mnt/sda5/.user/root/src/openwatcom-1.9/bld/wv/win/c/winchk.c
                winchk_TEXT           CODE           0001:0440        00000003
                CONST                 DATA           000a:0010        00000000
                CONST2                DATA           000a:021c        00000000
                _DATA                 DATA           000a:0364        00000000
/mnt/sda5/.user/root/src/openwatcom-1.9/bld/wv/win/c/wincmd.c
                wincmd_TEXT           CODE           0001:0450        000000e5
                CONST                 DATA           000a:0010        00000000
                CONST2                DATA           000a:021c        00000000
                _DATA                 DATA           000a:0364        00000054
/mnt/sda5/.user/root/src/openwatcom-1.9/bld/wv/win/c/winfilio.c
                winfilio_TEXT         CODE           0001:0540        0000019b
                CONST                 DATA           000a:0010        00000000
                CONST2                DATA           000a:021c        00000000
                _DATA                 DATA           000a:03b8        00000007
/mnt/sda5/.user/root/src/openwatcom-1.9/bld/wv/win/c/winlkup.c
                winlkup_TEXT          CODE           0001:06e0        000000b1
                CONST                 DATA           000a:0010        00000000
                CONST2                DATA           000a:021c        00000000
                _DATA                 DATA           000a:03c0        00000000
/mnt/sda5/.user/root/src/openwatcom-1.9/bld/wv/win/c/winscrn.c
                winscrn_TEXT          CODE           0001:07a0        0000030a
                CONST                 DATA           000a:0010        00000000
                CONST2                DATA           000a:021c        00000000
                _DATA                 DATA           000a:03c0        00000005
                _BSS                  BSS            000a:4ee4        00000006
/mnt/sda5/.user/root/src/openwatcom-1.9/bld/wv/c/fingmsg.c
                fingmsg_TEXT          CODE           0001:0ab0        000002b1
                CONST                 DATA           000a:0010        00000000
                CONST2                DATA           000a:021c        00000000
                _DATA                 DATA           000a:03d0        00000040
/mnt/sda5/.user/root/src/openwatcom-1.9/bld/dig/c/dipman.c
                dipman_TEXT           CODE           0001:0d70        000030f4
                CONST                 DATA           000a:0010        00000000
                CONST2                DATA           000a:021c        00000000
                _DATA                 DATA           000a:0410        00000074
                _BSS                  BSS            000a:4ef0        00000114
/mnt/sda5/.user/root/src/openwatcom-1.9/bld/dig/c/win/dipld.c
                dipld_TEXT            CODE           0001:3e70        000001bf
                CONST                 DATA           000a:0010        00000000
                CONST2                DATA           000a:021c        00000000
                _DATA                 DATA           000a:0484        00000000
                _BSS                  BSS            000a:5004        00000002
/mnt/sda5/.user/root/src/openwatcom-1.9/bld/dig/c/madman.c
                madman_TEXT           CODE           0001:4030        00002ff0
                CONST                 DATA           000a:0010        00000000
                CONST2                DATA           000a:021c        00000000
                _DATA                 DATA           000a:0490        00000190
                _BSS                  BSS            000a:5010        00000008
/mnt/sda5/.user/root/src/openwatcom-1.9/bld/dig/c/win/madld.c
                madld_TEXT            CODE           0001:7020        000001bf
                CONST                 DATA           000a:0010        00000000
                CONST2                DATA           000a:021c        00000000
                _DATA                 DATA           000a:0620        00000000
                _BSS                  BSS            000a:5018        00000002
/mnt/sda5/.user/root/src/openwatcom-1.9/bld/watcom/c/i64.c
                i64_TEXT              CODE           0001:71e0        00000a83
                CONST                 DATA           000a:0010        00000000
                CONST2                DATA           000a:021c        00000000
                _DATA                 DATA           000a:0620        00000000
/mnt/sda5/.user/root/src/openwatcom-1.9/bld/dig/c/trpsupp.c
                trpsupp_TEXT          CODE           0001:7c70        00000429
                CONST                 DATA           000a:0010        00000000
                CONST2                DATA           000a:021c        00000000
                _DATA                 DATA           000a:0620        00000008
                _BSS                  BSS            000a:5020        00000008
/mnt/sda5/.user/root/src/openwatcom-1.9/bld/dig/c/win/trpld.c
                trpld_TEXT            CODE           0001:80a0        000003b4
                CONST                 DATA           000a:0010        00000000
                CONST2                DATA           000a:021c        00000000
                _DATA                 DATA           000a:0628        00000000
                _BSS                  BSS            000a:5030        00000026
/mnt/sda5/.user/root/src/openwatcom-1.9/bld/dig/c/dumb.c
                dumb_TEXT             CODE           0001:8460        0000028f
                CONST                 DATA           000a:0010        00000000
                CONST2                DATA           000a:021c        00000000
                _DATA                 DATA           000a:0628        00000000
                _BSS                  BSS            000a:5060        00000004
/mnt/sda5/.user/root/src/openwatcom-1.9/bld/wv/c/spawn.c
                spawn_TEXT            CODE           0001:86f0        00000146
                CONST                 DATA           000a:0010        00000000
                CONST2                DATA           000a:021c        00000000
                _DATA                 DATA           000a:0628        00000000
                _BSS                  BSS            000a:5070        00000004
/mnt/sda5/.user/root/src/openwatcom-1.9/bld/wv/c/dbgchain.c
                dbgchain_TEXT         CODE           0001:8840        000008d2
                CONST                 DATA           000a:0010        00000000
                CONST2                DATA           000a:021c        00000000
                _DATA                 DATA           000a:0628        00000000
/mnt/sda5/.user/root/src/openwatcom-1.9/bld/wv/c/dbgvar.c
                dbgvar_TEXT           CODE           0001:9120        00004cb9
                CONST                 DATA           000a:0010        00000000
                CONST2                DATA           000a:021c        00000000
                _DATA                 DATA           000a:0630        00000004
                _BSS                  BSS            000a:5080        00000018
/mnt/sda5/.user/root/src/openwatcom-1.9/bld/wv/c/dbgvset.c
                dbgvset_TEXT          CODE           0001:dde0        00000967
                CONST                 DATA           000a:0010        00000000
                CONST2                DATA           000a:021c        00000000
                _DATA                 DATA           000a:0634        000000c3
/mnt/sda5/.user/root/src/openwatcom-1.9/bld/wv/c/dbgass.c
                dbgass_TEXT           CODE           0001:e750        000000e8
                CONST                 DATA           000a:0010        00000000
                CONST2                DATA           000a:021c        00000000
                _DATA                 DATA           000a:06f8        00000000
/mnt/sda5/.user/root/src/openwatcom-1.9/bld/wv/c/dbgimg.c
                dbgimg_TEXT           CODE           0001:e840        000000fa
                CONST                 DATA           000a:0010        00000000
                CONST2                DATA           000a:021c        00000000
                _DATA                 DATA           000a:06f8        00000000
/mnt/sda5/.user/root/src/openwatcom-1.9/bld/wv/c/dbglist.c
                dbglist_TEXT          CODE           0001:e940        00000023
                CONST                 DATA           000a:0010        00000000
                CONST2                DATA           000a:021c        00000000
                _DATA                 DATA           000a:06f8        00000000
/mnt/sda5/.user/root/src/openwatcom-1.9/bld/wv/c/dbgpend.c
                dbgpend_TEXT          CODE           0001:e970        00000153
                CONST                 DATA           000a:0010        00000000
                CONST2                DATA           000a:021c        00000000
                _DATA                 DATA           000a:06f8        00000000
/mnt/sda5/.user/root/src/openwatcom-1.9/bld/wv/c/ambigsym.c
                ambigsym_TEXT         CODE           0001:ead0        00000321
                CONST                 DATA           000a:0010        00000000
                CONST2                DATA           000a:021c        00000000
                _DATA                 DATA           000a:06f8        00000000
/mnt/sda5/.user/root/src/openwatcom-1.9/bld/wv/c/addarith.c
                addarith_TEXT         CODE           0001:ee00        00000315
                CONST                 DATA           000a:0010        00000000
                CONST2                DATA           000a:021c        00000000
                _DATA                 DATA           000a:0700        00000004
/mnt/sda5/.user/root/src/openwatcom-1.9/bld/wv/c/dbgbrk.c
                dbgbrk_TEXT           CODE           0002:0000        0000331f
                CONST                 DATA           000a:0010        00000000
                CONST2                DATA           000a:021c        00000000
                _DATA                 DATA           000a:0704        000000aa
/mnt/sda5/.user/root/src/openwatcom-1.9/bld/wv/c/dbgcall.c
                dbgcall_TEXT          CODE           0002:3320        00000672
                CONST                 DATA           000a:0010        00000000
                CONST2                DATA           000a:021c        00000000
                _DATA                 DATA           000a:07ae        00000000
                _BSS                  BSS            000a:50a0        0000002e
/mnt/sda5/.user/root/src/openwatcom-1.9/bld/wv/c/dbgcall2.c
                dbgcall2_TEXT         CODE           0002:39a0        000002f7
                CONST                 DATA           000a:0010        00000000
                CONST2                DATA           000a:021c        00000000
                _DATA                 DATA           000a:07b0        00000004
                _BSS                  BSS            000a:50d0        000000ee
/mnt/sda5/.user/root/src/openwatcom-1.9/bld/wv/c/dbgcmd.c
                dbgcmd_TEXT           CODE           0002:3ca0        0000008c
                CONST                 DATA           000a:0010        00000000
                CONST2                DATA           000a:021c        00000000
                _DATA                 DATA           000a:07b4        00000000
/mnt/sda5/.user/root/src/openwatcom-1.9/bld/wv/c/dbgcmdln.c
                dbgcmdln_TEXT         CODE           0002:3d30        000008f9
                CONST                 DATA           000a:0010        00000000
                CONST2                DATA           000a:021c        00000000
                _DATA                 DATA           000a:07b4        000000d1
                _BSS                  BSS            000a:51c0        0000000c
/mnt/sda5/.user/root/src/openwatcom-1.9/bld/wv/c/dbgdot.c
                dbgdot_TEXT           CODE           0002:4630        0000013f
                CONST                 DATA           000a:0010        00000000
                CONST2                DATA           000a:021c        00000000
                _DATA                 DATA           000a:0886        00000000
                _BSS                  BSS            000a:51cc        00000010
/mnt/sda5/.user/root/src/openwatcom-1.9/bld/wv/c/dbgexec.c
                dbgexec_TEXT          CODE           0002:4770        00000d2b
                CONST                 DATA           000a:0010        00000000
                CONST2                DATA           000a:021c        00000000
                _DATA                 DATA           000a:0886        00000004
                _BSS                  BSS            000a:51e0        00000004
/mnt/sda5/.user/root/src/openwatcom-1.9/bld/wv/c/dbgexpr.c
                dbgexpr_TEXT          CODE           0002:54a0        00001448
                CONST                 DATA           000a:0010        00000000
                CONST2                DATA           000a:021c        00000000
                _DATA                 DATA           000a:0890        000000e8
/mnt/sda5/.user/root/src/openwatcom-1.9/bld/wv/c/dbgexpr2.c
                dbgexpr2_TEXT         CODE           0002:68f0        00000cf7
                CONST                 DATA           000a:0010        00000000
                CONST2                DATA           000a:021c        00000000
                _DATA                 DATA           000a:0978        00000000
/mnt/sda5/.user/root/src/openwatcom-1.9/bld/wv/c/dbgexpr3.c
                dbgexpr3_TEXT         CODE           0002:75f0        00001436
                CONST                 DATA           000a:0010        00000000
                CONST2                DATA           000a:021c        00000000
                _DATA                 DATA           000a:0978        00000231
/mnt/sda5/.user/root/src/openwatcom-1.9/bld/wv/c/dbgexpr4.c
                dbgexpr4_TEXT         CODE           0002:8a30        00002855
                CONST                 DATA           000a:0010        00000000
                CONST2                DATA           000a:021c        00000000
                _DATA                 DATA           000a:0baa        00000000
                _BSS                  BSS            000a:51e4        00000400
/mnt/sda5/.user/root/src/openwatcom-1.9/bld/wv/c/dbgfile.c
                dbgfile_TEXT          CODE           0002:b290        00000d98
                CONST                 DATA           000a:0010        00000000
                CONST2                DATA           000a:021c        00000000
                _DATA                 DATA           000a:0baa        00000000
                _BSS                  BSS            000a:55f0        000001c0
/mnt/sda5/.user/root/src/openwatcom-1.9/bld/wv/c/dbghook.c
                dbghook_TEXT          CODE           0002:c030        000002a0
                CONST                 DATA           000a:0010        00000000
                CONST2                DATA           000a:021c        00000000
                _DATA                 DATA           000a:0baa        0000005f
                _BSS                  BSS            000a:57b0        0000002d
/mnt/sda5/.user/root/src/openwatcom-1.9/bld/wv/c/dbginvk.c
                dbginvk_TEXT          CODE           0002:c2d0        000007f0
                CONST                 DATA           000a:0010        00000000
                CONST2                DATA           000a:021c        00000000
                _DATA                 DATA           000a:0c0a        00000000
                _BSS                  BSS            000a:57de        00000005
/mnt/sda5/.user/root/src/openwatcom-1.9/bld/wv/c/dbglkup.c
                dbglkup_TEXT          CODE           0002:cac0        00000c6f
                CONST                 DATA           000a:0010        00000000
                CONST2                DATA           000a:021c        00000000
                _DATA                 DATA           000a:0c10        0000001c
                _BSS                  BSS            000a:57f0        00000008
/mnt/sda5/.user/root/src/openwatcom-1.9/bld/wv/c/dbgloc.c
                dbgloc_TEXT           CODE           0002:d730        00000a0b
                CONST                 DATA           000a:0010        00000000
                CONST2                DATA           000a:021c        00000000
                _DATA                 DATA           000a:0c2c        00000000
/mnt/sda5/.user/root/src/openwatcom-1.9/bld/wv/c/dbglog.c
                dbglog_TEXT           CODE           0002:e140        00000219
                CONST                 DATA           000a:0010        00000000
                CONST2                DATA           000a:021c        00000000
                _DATA                 DATA           000a:0c2c        0000000e
                _BSS                  BSS            000a:57f8        00000002
/mnt/sda5/.user/root/src/openwatcom-1.9/bld/wv/c/dbgmain.c
                dbgmain_TEXT          CODE           0002:e360        00000824
                CONST                 DATA           000a:0010        00000000
                CONST2                DATA           000a:021c        00000000
                _DATA                 DATA           000a:0c40        000000e8
                _BSS                  BSS            000a:57fa        0000000d
/mnt/sda5/.user/root/src/openwatcom-1.9/bld/wv/c/dbgmem.c
                dbgmem_TEXT           CODE           0002:eb90        0000045b
                CONST                 DATA           000a:0010        00000000
                CONST2                DATA           000a:021c        00000000
                _DATA                 DATA           000a:0d28        00000032
/mnt/sda5/.user/root/src/openwatcom-1.9/bld/wv/c/memtypes.c
                memtypes_TEXT         CODE           0002:eff0        00000358
                CONST                 DATA           000a:0010        00000000
                CONST2                DATA           000a:021c        00000000
                _DATA                 DATA           000a:0d5a        00000000
/mnt/sda5/.user/root/src/openwatcom-1.9/bld/wv/c/dbgmisc.c
                dbgmisc_TEXT          CODE           0003:0000        00000f5f
                CONST                 DATA           000a:0010        00000000
                CONST2                DATA           000a:021c        00000000
                _DATA                 DATA           000a:0d5a        0000003a
/mnt/sda5/.user/root/src/openwatcom-1.9/bld/wv/c/dbgovl.c
                dbgovl_TEXT           CODE           0003:0f60        00000435
                CONST                 DATA           000a:0010        00000000
                CONST2                DATA           000a:021c        00000000
                _DATA                 DATA           000a:0d94        00000000
                _BSS                  BSS            000a:5810        0000000b
/mnt/sda5/.user/root/src/openwatcom-1.9/bld/wv/c/dbgparse.c
                dbgparse_TEXT         CODE           0003:13a0        0000049e
                CONST                 DATA           000a:0010        00000000
                CONST2                DATA           000a:021c        00000000
                _DATA                 DATA           000a:0d94        00000000
                _BSS                  BSS            000a:5820        0000000e
/mnt/sda5/.user/root/src/openwatcom-1.9/bld/wv/c/dbgprint.c
                dbgprint_TEXT         CODE           0003:1840        000014c2
                CONST                 DATA           000a:0010        00000000
                CONST2                DATA           000a:021c        00000000
                _DATA                 DATA           000a:0d94        00000010
                _BSS                  BSS            000a:5830        0000040c
/mnt/sda5/.user/root/src/openwatcom-1.9/bld/wv/c/dbgreg.c
                dbgreg_TEXT           CODE           0003:2d10        000019ba
                CONST                 DATA           000a:0010        00000000
                CONST2                DATA           000a:021c        00000000
                _DATA                 DATA           000a:0da4        00000004
                _BSS                  BSS            000a:5c40        0000000b
/mnt/sda5/.user/root/src/openwatcom-1.9/bld/wv/c/dbgscan.c
                dbgscan_TEXT          CODE           0003:46d0        000012fb
                CONST                 DATA           000a:0010        00000000
                CONST2                DATA           000a:021c        00000000
                _DATA                 DATA           000a:0db0        00000029
                _BSS                  BSS            000a:5c50        0000001a
/mnt/sda5/.user/root/src/openwatcom-1.9/bld/wv/c/dbgshow.c
                dbgshow_TEXT          CODE           0003:59d0        00000458
                CONST                 DATA           000a:0010        00000000
                CONST2                DATA           000a:021c        00000000
                _DATA                 DATA           000a:0dda        0000006a
/mnt/sda5/.user/root/src/openwatcom-1.9/bld/wv/c/dbgsrc.c
                dbgsrc_TEXT           CODE           0003:5e30        0000055c
                CONST                 DATA           000a:0010        00000000
                CONST2                DATA           000a:021c        00000000
                _DATA                 DATA           000a:0e44        00000005
/mnt/sda5/.user/root/src/openwatcom-1.9/bld/wv/c/dbgstdio.c
                dbgstdio_TEXT         CODE           0003:6390        000000d2
                CONST                 DATA           000a:0010        00000000
                CONST2                DATA           000a:021c        00000000
                _DATA                 DATA           000a:0e4a        00000000
/mnt/sda5/.user/root/src/openwatcom-1.9/bld/wv/c/dbgsys.c
                dbgsys_TEXT           CODE           0003:6470        00000110
                CONST                 DATA           000a:0010        00000000
                CONST2                DATA           000a:021c        00000000
                _DATA                 DATA           000a:0e4a        0000000e
/mnt/sda5/.user/root/src/openwatcom-1.9/bld/wv/c/dbgutil.c
                dbgutil_TEXT          CODE           0003:6580        00000d17
                CONST                 DATA           000a:0010        00000000
                CONST2                DATA           000a:021c        00000000
                _DATA                 DATA           000a:0e58        00000000
/mnt/sda5/.user/root/src/openwatcom-1.9/bld/wv/c/dbg_dbg.c
                dbg_dbg_TEXT          CODE           0003:72a0        00000b82
                CONST                 DATA           000a:0010        00000000
                CONST2                DATA           000a:021c        00000000
                _DATA                 DATA           000a:0e58        00000000
                _BSS                  BSS            000a:5c70        00000004
/mnt/sda5/.user/root/src/openwatcom-1.9/bld/wv/c/dbgprog.c
                dbgprog_TEXT          CODE           0003:7e30        00002de3
                CONST                 DATA           000a:0010        00000000
                CONST2                DATA           000a:021c        00000000
                _DATA                 DATA           000a:0e58        0000002f
                _BSS                  BSS            000a:5c80        00000810
/mnt/sda5/.user/root/src/openwatcom-1.9/bld/wv/c/strutil.c
                strutil_TEXT          CODE           0003:ac20        000004b5
                CONST                 DATA           000a:0010        00000000
                CONST2                DATA           000a:021c        00000000
                _DATA                 DATA           000a:0e88        00000000
/mnt/sda5/.user/root/src/openwatcom-1.9/bld/wv/c/stub.c
                stub_TEXT             CODE           0003:b0e0        0000000f
                CONST                 DATA           000a:0010        00000000
                CONST2                DATA           000a:021c        00000000
                _DATA                 DATA           000a:0e88        00000000
/mnt/sda5/.user/root/src/openwatcom-1.9/bld/wv/c/dbgwalk.c
                dbgwalk_TEXT          CODE           0003:b0f0        000002dd
                CONST                 DATA           000a:0010        00000000
                CONST2                DATA           000a:021c        00000000
                _DATA                 DATA           000a:0e88        00000000
                _BSS                  BSS            000a:6490        00000004
/mnt/sda5/.user/root/src/openwatcom-1.9/bld/wv/c/dynmem.c
                dynmem_TEXT           CODE           0003:b3d0        000002cb
                CONST                 DATA           000a:0010        00000000
                CONST2                DATA           000a:021c        00000000
                _DATA                 DATA           000a:0e88        00000000
/mnt/sda5/.user/root/src/openwatcom-1.9/bld/wv/c/dbgsem.c
                dbgsem_TEXT           CODE           0003:b6a0        00001e73
                CONST                 DATA           000a:0010        00000000
                CONST2                DATA           000a:021c        00000000
                _DATA                 DATA           000a:0e88        00000001
                _BSS                  BSS            000a:64a0        00000074
/mnt/sda5/.user/root/src/openwatcom-1.9/bld/wv/c/dbgtrace.c
                dbgtrace_TEXT         CODE           0003:d520        00000f4f
                CONST                 DATA           000a:0010        00000000
                CONST2                DATA           000a:021c        00000000
                _DATA                 DATA           000a:0e8a        00000028
                _BSS                  BSS            000a:6520        00000050
/mnt/sda5/.user/root/src/openwatcom-1.9/bld/wv/c/dbgexins.c
                dbgexins_TEXT         CODE           0003:e470        0000007f
                CONST                 DATA           000a:0010        00000000
                CONST2                DATA           000a:021c        00000000
                _DATA                 DATA           000a:0eb2        00000000
/mnt/sda5/.user/root/src/openwatcom-1.9/bld/wv/c/dbgexdat.c
                dbgexdat_TEXT         CODE           0003:e4f0        00000198
                CONST                 DATA           000a:0010        00000000
                CONST2                DATA           000a:021c        00000000
                _DATA                 DATA           000a:0eb2        00000011
/mnt/sda5/.user/root/src/openwatcom-1.9/bld/wv/c/dbgmodfy.c
                dbgmodfy_TEXT         CODE           0003:e690        000001ba
                CONST                 DATA           000a:0010        00000000
                CONST2                DATA           000a:021c        00000000
                _DATA                 DATA           000a:0ec4        00000000
/mnt/sda5/.user/root/src/openwatcom-1.9/bld/wv/c/dbgtback.c
                dbgtback_TEXT         CODE           0003:e850        000002ce
                CONST                 DATA           000a:0010        00000000
                CONST2                DATA           000a:021c        00000000
                _DATA                 DATA           000a:0ec4        00000000
                _BSS                  BSS            000a:6570        00000002
/mnt/sda5/.user/root/src/openwatcom-1.9/bld/wv/c/dbgerr.c
                dbgerr_TEXT           CODE           0003:eb20        000002d6
                CONST                 DATA           000a:0010        00000000
                CONST2                DATA           000a:021c        00000000
                _DATA                 DATA           000a:0ec4        00000000
/mnt/sda5/.user/root/src/openwatcom-1.9/bld/wv/c/namelist.c
                namelist_TEXT         CODE           0003:ee00        0000078f
                CONST                 DATA           000a:0010        00000000
                CONST2                DATA           000a:021c        00000000
                _DATA                 DATA           000a:0ec4        00000000
/mnt/sda5/.user/root/src/openwatcom-1.9/bld/wv/c/modlist.c
                modlist_TEXT          CODE           0003:f590        0000054d
                CONST                 DATA           000a:0010        00000000
                CONST2                DATA           000a:021c        00000000
                _DATA                 DATA           000a:0ec4        00000000
/mnt/sda5/.user/root/src/openwatcom-1.9/bld/watcom/c/sortlist.c
                sortlist_TEXT         CODE           0003:fae0        0000037c
                CONST                 DATA           000a:0010        00000000
                CONST2                DATA           000a:021c        00000000
                _DATA                 DATA           000a:0ec4        00000000
/mnt/sda5/.user/root/src/openwatcom-1.9/bld/wv/c/remmisc.c
                remmisc_TEXT          CODE           0004:0000        000002de
                CONST                 DATA           000a:0010        00000000
                CONST2                DATA           000a:021c        00000000
                _DATA                 DATA           000a:0ec4        00000000
                _BSS                  BSS            000a:6572        00000003
/mnt/sda5/.user/root/src/openwatcom-1.9/bld/wv/c/remcore.c
                remcore_TEXT          CODE           0004:02e0        00000fb1
                CONST                 DATA           000a:0010        00000000
                CONST2                DATA           000a:021c        00000000
                _DATA                 DATA           000a:0ed0        00000004
                _BSS                  BSS            000a:6576        0000000e
/mnt/sda5/.user/root/src/openwatcom-1.9/bld/wv/c/remfinfo.c
                remfinfo_TEXT         CODE           0004:12a0        0000017b
                CONST                 DATA           000a:0010        00000000
                CONST2                DATA           000a:021c        00000000
                _DATA                 DATA           000a:0ed4        00000000
                _BSS                  BSS            000a:6590        00000004
/mnt/sda5/.user/root/src/openwatcom-1.9/bld/wv/c/remenv.c
                remenv_TEXT           CODE           0004:1420        000001b8
                CONST                 DATA           000a:0010        00000000
                CONST2                DATA           000a:021c        00000000
                _DATA                 DATA           000a:0ed4        00000000
                _BSS                  BSS            000a:65a0        00000004
/mnt/sda5/.user/root/src/openwatcom-1.9/bld/wv/c/remfile.c
                remfile_TEXT          CODE           0004:15e0        0000082c
                CONST                 DATA           000a:0010        00000000
                CONST2                DATA           000a:021c        00000000
                _DATA                 DATA           000a:0ed4        00000000
                _BSS                  BSS            000a:65b0        0000006a
/mnt/sda5/.user/root/src/openwatcom-1.9/bld/wv/c/remthrd.c
                remthrd_TEXT          CODE           0004:1e10        0000025b
                CONST                 DATA           000a:0010        00000000
                CONST2                DATA           000a:021c        00000000
                _DATA                 DATA           000a:0ed4        00000000
                _BSS                  BSS            000a:6620        00000004
/mnt/sda5/.user/root/src/openwatcom-1.9/bld/wv/c/removl.c
                removl_TEXT           CODE           0004:2070        000003a0
                CONST                 DATA           000a:0010        00000000
                CONST2                DATA           000a:021c        00000000
                _DATA                 DATA           000a:0ed4        00000000
                _BSS                  BSS            000a:6630        00000004
/mnt/sda5/.user/root/src/openwatcom-1.9/bld/wv/c/ldsupp.c
                ldsupp_TEXT           CODE           0004:2410        0000022e
                CONST                 DATA           000a:0010        00000000
                CONST2                DATA           000a:021c        00000000
                _DATA                 DATA           000a:0ed4        00000000
/mnt/sda5/.user/root/src/openwatcom-1.9/bld/wv/c/doserr.c
                doserr_TEXT           CODE           0004:2640        0000004a
                CONST                 DATA           000a:0010        00000000
                CONST2                DATA           000a:021c        00000000
                _DATA                 DATA           000a:0ee0        00000048
/mnt/sda5/.user/root/src/openwatcom-1.9/bld/wv/c/diginter.c
                diginter_TEXT         CODE           0004:2690        00000102
                CONST                 DATA           000a:0010        00000000
                CONST2                DATA           000a:021c        00000000
                _DATA                 DATA           000a:0f28        00000000
/mnt/sda5/.user/root/src/openwatcom-1.9/bld/wv/c/dipinter.c
                dipinter_TEXT         CODE           0004:27a0        00000f7d
                CONST                 DATA           000a:0010        00000000
                CONST2                DATA           000a:021c        00000000
                _DATA                 DATA           000a:0f30        0000016c
/mnt/sda5/.user/root/src/openwatcom-1.9/bld/wv/c/madinter.c
                madinter_TEXT         CODE           0004:3720        00000798
                CONST                 DATA           000a:0010        00000000
                CONST2                DATA           000a:021c        00000000
                _DATA                 DATA           000a:10a0        00000138
                _BSS                  BSS            000a:6634        00000002
/mnt/sda5/.user/root/src/openwatcom-1.9/bld/wv/c/dbglit.c
                dbglit_TEXT           CODE           0004:3ec0        00000023
                CONST                 DATA           000a:0010        00000000
                CONST2                DATA           000a:021c        00000000
                _DATA                 DATA           000a:11d8        00000000
/mnt/sda5/.user/root/src/openwatcom-1.9/bld/wv/c/dbginsty.c
                dbginsty_TEXT         CODE           0004:3ef0        0000037c
                CONST                 DATA           000a:0010        00000000
                CONST2                DATA           000a:021c        00000000
                _DATA                 DATA           000a:11d8        00000000
/mnt/sda5/.user/root/src/openwatcom-1.9/bld/wv/c/dbgdata.c
                dbgdata_TEXT          CODE           0004:4270        00000000
                CONST                 DATA           000a:0010        00000000
                CONST2                DATA           000a:021c        00000000
                _DATA                 DATA           000a:11e0        00000442
                _BSS                  BSS            000a:6640        00000260
/mnt/sda5/.user/root/src/openwatcom-1.9/bld/wv/c/dbgevent.c
                dbgevent_TEXT         CODE           0004:4270        000006b7
                CONST                 DATA           000a:0010        00000000
                CONST2                DATA           000a:021c        00000000
                _DATA                 DATA           000a:1622        00000000
                _BSS                  BSS            000a:68a0        00000008
/mnt/sda5/.user/root/src/openwatcom-1.9/bld/wv/c/dbgdll.c
                dbgdll_TEXT           CODE           0004:4930        00000243
                CONST                 DATA           000a:0010        00000000
                CONST2                DATA           000a:021c        00000000
                _DATA                 DATA           000a:1622        00000000
                _BSS                  BSS            000a:68b0        00000004
/mnt/sda5/.user/root/src/openwatcom-1.9/bld/wv/c/dlgscan.c
                dlgscan_TEXT          CODE           0004:4b80        0000022a
                CONST                 DATA           000a:0010        00000000
                CONST2                DATA           000a:021c        00000000
                _DATA                 DATA           000a:1622        00000000
/mnt/sda5/.user/root/src/openwatcom-1.9/bld/wv/c/dbgset.c
                dbgset_TEXT           CODE           0004:4db0        000013dc
                CONST                 DATA           000a:0010        00000000
                CONST2                DATA           000a:021c        00000000
                _DATA                 DATA           000a:1630        0000024b
                _BSS                  BSS            000a:68c0        00000018
/mnt/sda5/.user/root/src/openwatcom-1.9/bld/watcom/c/srcmgt.c
                srcmgt_TEXT           CODE           0004:6190        0000074a
                CONST                 DATA           000a:0010        00000000
                CONST2                DATA           000a:021c        00000000
                _DATA                 DATA           000a:1880        00000004
/mnt/sda5/.user/root/src/openwatcom-1.9/bld/wv/c/dbgupdt.c
                dbgupdt_TEXT          CODE           0004:68e0        00000121
                CONST                 DATA           000a:0010        00000000
                CONST2                DATA           000a:021c        00000000
                _DATA                 DATA           000a:1884        00000000
/mnt/sda5/.user/root/src/openwatcom-1.9/bld/wv/c/symcomp.c
                symcomp_TEXT          CODE           0004:6a10        00000273
                CONST                 DATA           000a:0010        00000000
                CONST2                DATA           000a:021c        00000000
                _DATA                 DATA           000a:1890        00000004
/mnt/sda5/.user/root/src/openwatcom-1.9/bld/wv/c/litengin.c
                litengin_TEXT         CODE           0004:6c90        00001a1f
                CONST                 DATA           000a:0010        00000000
                CONST2                DATA           000a:021c        00000000
                _DATA                 DATA           000a:1894        00000000
                _BSS                  BSS            000a:68e0        000003dc
/mnt/sda5/.user/root/src/openwatcom-1.9/bld/wv/c/litwd.c
                litwd_TEXT            CODE           0004:86b0        00000dc9
                CONST                 DATA           000a:0010        00000000
                CONST2                DATA           000a:021c        00000000
                _DATA                 DATA           000a:1894        00000000
                _BSS                  BSS            000a:6cc0        00000208
/mnt/sda5/.user/root/src/openwatcom-1.9/bld/wv/c/dui.c
                dui_TEXT              CODE           0004:9480        00000481
                CONST                 DATA           000a:0010        00000000
                CONST2                DATA           000a:021c        00000000
                _DATA                 DATA           000a:1894        00000000
/mnt/sda5/.user/root/src/openwatcom-1.9/bld/wv/c/dbgwset.c
                dbgwset_TEXT          CODE           0004:9910        00000b86
                CONST                 DATA           000a:0010        00000000
                CONST2                DATA           000a:021c        00000000
                _DATA                 DATA           000a:18a0        000002a8
                _BSS                  BSS            000a:6ec8        00000014
/mnt/sda5/.user/root/src/openwatcom-1.9/bld/wv/c/dbginsp.c
                dbginsp_TEXT          CODE           0004:a4a0        00000915
                CONST                 DATA           000a:0010        00000000
                CONST2                DATA           000a:021c        00000000
                _DATA                 DATA           000a:1b48        00000000
/mnt/sda5/.user/root/src/openwatcom-1.9/bld/wv/c/dbgicon.c
                dbgicon_TEXT          CODE           0004:adc0        00000064
                CONST                 DATA           000a:0010        00000000
                CONST2                DATA           000a:021c        00000000
                _DATA                 DATA           000a:1b48        000000c0
/mnt/sda5/.user/root/src/openwatcom-1.9/bld/wv/c/dbgdisp.c
                dbgdisp_TEXT          CODE           0004:ae30        00000cc9
                CONST                 DATA           000a:0010        00000000
                CONST2                DATA           000a:021c        00000000
                _DATA                 DATA           000a:1c08        00000049
                _BSS                  BSS            000a:6ee0        00000260
/mnt/sda5/.user/root/src/openwatcom-1.9/bld/wv/c/dbgpaint.c
                dbgpaint_TEXT         CODE           0004:bb00        00000783
                CONST                 DATA           000a:0010        00000000
                CONST2                DATA           000a:021c        00000000
                _DATA                 DATA           000a:1c52        000001bb
                _BSS                  BSS            000a:7140        00000078
/mnt/sda5/.user/root/src/openwatcom-1.9/bld/wv/c/dbgcap.c
                dbgcap_TEXT           CODE           0004:c290        00000136
                CONST                 DATA           000a:0010        00000000
                CONST2                DATA           000a:021c        00000000
                _DATA                 DATA           000a:1e0e        00000012
                _BSS                  BSS            000a:71b8        00000001
/mnt/sda5/.user/root/src/openwatcom-1.9/bld/wv/c/wndalloc.c
                wndalloc_TEXT         CODE           0004:c3d0        00000056
                CONST                 DATA           000a:0010        00000000
                CONST2                DATA           000a:021c        00000000
                _DATA                 DATA           000a:1e20        00000000
/mnt/sda5/.user/root/src/openwatcom-1.9/bld/wv/c/dlgambig.c
                dlgambig_TEXT         CODE           0004:c430        0000005c
                CONST                 DATA           000a:0010        00000000
                CONST2                DATA           000a:021c        00000000
                _DATA                 DATA           000a:1e20        00000000
/mnt/sda5/.user/root/src/openwatcom-1.9/bld/wv/c/dlgscomp.c
                dlgscomp_TEXT         CODE           0004:c490        00000246
                CONST                 DATA           000a:0010        00000000
                CONST2                DATA           000a:021c        00000000
                _DATA                 DATA           000a:1e20        00000000
                _BSS                  BSS            000a:71c0        00000004
/mnt/sda5/.user/root/src/openwatcom-1.9/bld/wv/c/modcomp.c
                modcomp_TEXT          CODE           0004:c6e0        0000017f
                CONST                 DATA           000a:0010        00000000
                CONST2                DATA           000a:021c        00000000
                _DATA                 DATA           000a:1e20        00000000
/mnt/sda5/.user/root/src/openwatcom-1.9/bld/wv/c/wndsys.c
                wndsys_TEXT           CODE           0004:c860        0000097f
                CONST                 DATA           000a:0010        00000000
                CONST2                DATA           000a:021c        00000000
                _DATA                 DATA           000a:1e20        000003e8
                _BSS                  BSS            000a:71c4        00000002
/mnt/sda5/.user/root/src/openwatcom-1.9/bld/wv/c/wnddump.c
                wnddump_TEXT          CODE           0004:d1e0        00000357
                CONST                 DATA           000a:0010        00000000
                CONST2                DATA           000a:021c        00000000
                _DATA                 DATA           000a:2208        00000000
/mnt/sda5/.user/root/src/openwatcom-1.9/bld/wv/c/dbgintrn.c
                dbgintrn_TEXT         CODE           0004:d540        00000000
                CONST                 DATA           000a:0010        00000000
                CONST2                DATA           000a:021c        00000000
                _DATA                 DATA           000a:2208        00000000
/mnt/sda5/.user/root/src/openwatcom-1.9/bld/wv/c/dlgabout.c
                dlgabout_TEXT         CODE           0004:d540        00000098
                CONST                 DATA           000a:0010        00000000
                CONST2                DATA           000a:021c        00000000
                _DATA                 DATA           000a:2208        00000000
/mnt/sda5/.user/root/src/openwatcom-1.9/bld/wv/c/dlgstk.c
                dlgstk_TEXT           CODE           0004:d5e0        00000143
                CONST                 DATA           000a:0010        00000000
                CONST2                DATA           000a:021c        00000000
                _DATA                 DATA           000a:2208        00000000
/mnt/sda5/.user/root/src/openwatcom-1.9/bld/wv/c/dlgayn.c
                dlgayn_TEXT           CODE           0004:d730        000000d2
                CONST                 DATA           000a:0010        00000000
                CONST2                DATA           000a:021c        00000000
                _DATA                 DATA           000a:2208        00000000
/mnt/sda5/.user/root/src/openwatcom-1.9/bld/wv/c/dlgsrc.c
                dlgsrc_TEXT           CODE           0004:d810        00000041
                CONST                 DATA           000a:0010        00000000
                CONST2                DATA           000a:021c        00000000
                _DATA                 DATA           000a:2208        00000000
/mnt/sda5/.user/root/src/openwatcom-1.9/bld/wv/c/dlgdll.c
                dlgdll_TEXT           CODE           0004:d860        00000041
                CONST                 DATA           000a:0010        00000000
                CONST2                DATA           000a:021c        00000000
                _DATA                 DATA           000a:2208        00000000
/mnt/sda5/.user/root/src/openwatcom-1.9/bld/wv/c/dlglist.c
                dlglist_TEXT          CODE           0004:d8b0        000003e5
                CONST                 DATA           000a:0010        00000000
                CONST2                DATA           000a:021c        00000000
                _DATA                 DATA           000a:2208        00000000
/mnt/sda5/.user/root/src/openwatcom-1.9/bld/wv/c/dlgfile.c
                dlgfile_TEXT          CODE           0004:dca0        00000719
                CONST                 DATA           000a:0010        00000000
                CONST2                DATA           000a:021c        00000000
                _DATA                 DATA           000a:2210        00000015
                _BSS                  BSS            000a:71d0        00000018
/mnt/sda5/.user/root/src/openwatcom-1.9/bld/wv/c/dlgnewp.c
                dlgnewp_TEXT          CODE           0004:e3c0        00000200
                CONST                 DATA           000a:0010        00000000
                CONST2                DATA           000a:021c        00000000
                _DATA                 DATA           000a:2226        00000000
                _BSS                  BSS            000a:71e8        00000800
/mnt/sda5/.user/root/src/openwatcom-1.9/bld/wv/c/dlgexpr.c
                dlgexpr_TEXT          CODE           0004:e5c0        00000404
                CONST                 DATA           000a:0010        00000000
                CONST2                DATA           000a:021c        00000000
                _DATA                 DATA           000a:2226        00000000
/mnt/sda5/.user/root/src/openwatcom-1.9/bld/wv/c/dlgbreak.c
                dlgbreak_TEXT         CODE           0004:e9d0        00000b23
                CONST                 DATA           000a:0010        00000000
                CONST2                DATA           000a:021c        00000000
                _DATA                 DATA           000a:2226        00000000
/mnt/sda5/.user/root/src/openwatcom-1.9/bld/wv/c/dlgvarx.c
                dlgvarx_TEXT          CODE           0004:f500        000001ff
                CONST                 DATA           000a:0010        00000000
                CONST2                DATA           000a:021c        00000000
                _DATA                 DATA           000a:2226        00000000
/mnt/sda5/.user/root/src/openwatcom-1.9/bld/wv/c/dlgcmd.c
                dlgcmd_TEXT           CODE           0004:f700        00000196
                CONST                 DATA           000a:0010        00000000
                CONST2                DATA           000a:021c        00000000
                _DATA                 DATA           000a:2226        00000000
/mnt/sda5/.user/root/src/openwatcom-1.9/bld/wv/c/dlgnewws.c
                dlgnewws_TEXT         CODE           0004:f8a0        00000112
                CONST                 DATA           000a:0010        00000000
                CONST2                DATA           000a:021c        00000000
                _DATA                 DATA           000a:2226        00000068
                _BSS                  BSS            000a:79f0        00000004
/mnt/sda5/.user/root/src/openwatcom-1.9/bld/wv/c/wndhelp.c
                wndhelp_TEXT          CODE           0004:f9c0        00000245
                CONST                 DATA           000a:0010        00000000
                CONST2                DATA           000a:021c        00000000
                _DATA                 DATA           000a:228e        00000000
                _BSS                  BSS            000a:7a00        00000004
/mnt/sda5/.user/root/src/openwatcom-1.9/bld/wv/c/wndmenu.c
                wndmenu_TEXT          CODE           0005:0000        000012ea
                CONST                 DATA           000a:0010        00000000
                CONST2                DATA           000a:021c        00000000
                _DATA                 DATA           000a:2290        000006ea
                _BSS                  BSS            000a:7a04        00000012
/mnt/sda5/.user/root/src/openwatcom-1.9/bld/wv/c/dbgwfpu.c
                dbgwfpu_TEXT          CODE           0005:12f0        00000060
                CONST                 DATA           000a:0010        00000000
                CONST2                DATA           000a:021c        00000000
                _DATA                 DATA           000a:297a        00000000
/mnt/sda5/.user/root/src/openwatcom-1.9/bld/wv/c/dbgwmac.c
                dbgwmac_TEXT          CODE           0005:1350        00000fdf
                CONST                 DATA           000a:0010        00000000
                CONST2                DATA           000a:021c        00000000
                _DATA                 DATA           000a:2980        0000013a
                _BSS                  BSS            000a:7a16        00000008
/mnt/sda5/.user/root/src/openwatcom-1.9/bld/wv/c/dbgwglob.c
                dbgwglob_TEXT         CODE           0005:2330        00000389
                CONST                 DATA           000a:0010        00000000
                CONST2                DATA           000a:021c        00000000
                _DATA                 DATA           000a:2aba        00000090
/mnt/sda5/.user/root/src/openwatcom-1.9/bld/wv/c/dbgwfunc.c
                dbgwfunc_TEXT         CODE           0005:26c0        0000079e
                CONST                 DATA           000a:0010        00000000
                CONST2                DATA           000a:021c        00000000
                _DATA                 DATA           000a:2b4a        000000a2
/mnt/sda5/.user/root/src/openwatcom-1.9/bld/wv/c/dbgwcall.c
                dbgwcall_TEXT         CODE           0005:2e60        00000549
                CONST                 DATA           000a:0010        00000000
                CONST2                DATA           000a:021c        00000000
                _DATA                 DATA           000a:2bec        000000a2
/mnt/sda5/.user/root/src/openwatcom-1.9/bld/wv/c/dbgwmod.c
                dbgwmod_TEXT          CODE           0005:33b0        0000088b
                CONST                 DATA           000a:0010        00000000
                CONST2                DATA           000a:021c        00000000
                _DATA                 DATA           000a:2c8e        000000b4
/mnt/sda5/.user/root/src/openwatcom-1.9/bld/wv/c/dbgwsrch.c
                dbgwsrch_TEXT         CODE           0005:3c40        00000a4c
                CONST                 DATA           000a:0010        00000000
                CONST2                DATA           000a:021c        00000000
                _DATA                 DATA           000a:2d42        00000048
/mnt/sda5/.user/root/src/openwatcom-1.9/bld/wv/c/dbgwdlg.c
                dbgwdlg_TEXT          CODE           0005:4690        000003fe
                CONST                 DATA           000a:0010        00000000
                CONST2                DATA           000a:021c        00000000
                _DATA                 DATA           000a:2d90        00000042
                _BSS                  BSS            000a:7a20        00000004
/mnt/sda5/.user/root/src/openwatcom-1.9/bld/wv/c/dbgwfil.c
                dbgwfil_TEXT          CODE           0005:4a90        00001de8
                CONST                 DATA           000a:0010        00000000
                CONST2                DATA           000a:021c        00000000
                _DATA                 DATA           000a:2dd2        00000132
/mnt/sda5/.user/root/src/openwatcom-1.9/bld/wv/c/dbgwass.c
                dbgwass_TEXT          CODE           0005:6880        00002737
                CONST                 DATA           000a:0010        00000000
                CONST2                DATA           000a:021c        00000000
                _DATA                 DATA           000a:2f04        00000132
/mnt/sda5/.user/root/src/openwatcom-1.9/bld/wv/c/dbgwimg.c
                dbgwimg_TEXT          CODE           0005:8fc0        000004cf
                CONST                 DATA           000a:0010        00000000
                CONST2                DATA           000a:021c        00000000
                _DATA                 DATA           000a:3036        000000a2
                _BSS                  BSS            000a:7a24        00000006
/mnt/sda5/.user/root/src/openwatcom-1.9/bld/wv/c/dbgwbrk.c
                dbgwbrk_TEXT          CODE           0005:9490        00000617
                CONST                 DATA           000a:0010        00000000
                CONST2                DATA           000a:021c        00000000
                _DATA                 DATA           000a:30d8        000000c6
/mnt/sda5/.user/root/src/openwatcom-1.9/bld/wv/c/dbgwio.c
                dbgwio_TEXT           CODE           0005:9ab0        00000972
                CONST                 DATA           000a:0010        00000000
                CONST2                DATA           000a:021c        00000000
                _DATA                 DATA           000a:31a0        000000a6
                _BSS                  BSS            000a:7a2a        0000001e
/mnt/sda5/.user/root/src/openwatcom-1.9/bld/wv/c/dbgwrep.c
                dbgwrep_TEXT          CODE           0005:a430        0000044d
                CONST                 DATA           000a:0010        00000000
                CONST2                DATA           000a:021c        00000000
                _DATA                 DATA           000a:3246        0000006c
                _BSS                  BSS            000a:7a48        00000008
/mnt/sda5/.user/root/src/openwatcom-1.9/bld/wv/c/dbgwmem.c
                dbgwmem_TEXT          CODE           0005:a880        00002263
                CONST                 DATA           000a:0010        00000000
                CONST2                DATA           000a:021c        00000000
                _DATA                 DATA           000a:32c0        000001e2
                _BSS                  BSS            000a:7a50        00000020
/mnt/sda5/.user/root/src/openwatcom-1.9/bld/wv/c/dbgwregs.c
                dbgwregs_TEXT         CODE           0005:caf0        00000035
                CONST                 DATA           000a:0010        00000000
                CONST2                DATA           000a:021c        00000000
                _DATA                 DATA           000a:34a2        00000000
/mnt/sda5/.user/root/src/openwatcom-1.9/bld/wv/c/dbgwmmx.c
                dbgwmmx_TEXT          CODE           0005:cb30        00000060
                CONST                 DATA           000a:0010        00000000
                CONST2                DATA           000a:021c        00000000
                _DATA                 DATA           000a:34a2        00000000
/mnt/sda5/.user/root/src/openwatcom-1.9/bld/wv/c/dbgwxmm.c
                dbgwxmm_TEXT          CODE           0005:cb90        00000060
                CONST                 DATA           000a:0010        00000000
                CONST2                DATA           000a:021c        00000000
                _DATA                 DATA           000a:34a2        00000000
/mnt/sda5/.user/root/src/openwatcom-1.9/bld/wv/c/dbgwmadr.c
                dbgwmadr_TEXT         CODE           0005:cbf0        00000e89
                CONST                 DATA           000a:0010        00000000
                CONST2                DATA           000a:021c        00000000
                _DATA                 DATA           000a:34a2        0000006c
/mnt/sda5/.user/root/src/openwatcom-1.9/bld/wv/c/dbgwtogl.c
                dbgwtogl_TEXT         CODE           0005:da80        0000018f
                CONST                 DATA           000a:0010        00000000
                CONST2                DATA           000a:021c        00000000
                _DATA                 DATA           000a:350e        00000000
/mnt/sda5/.user/root/src/openwatcom-1.9/bld/wv/c/dbgwvar.c
                dbgwvar_TEXT          CODE           0005:dc10        00001c1e
                CONST                 DATA           000a:0010        00000000
                CONST2                DATA           000a:021c        00000000
                _DATA                 DATA           000a:3510        00000306
/mnt/sda5/.user/root/src/openwatcom-1.9/bld/wv/c/dbgwthrd.c
                dbgwthrd_TEXT         CODE           0005:f830        00000369
                CONST                 DATA           000a:0010        00000000
                CONST2                DATA           000a:021c        00000000
                _DATA                 DATA           000a:3816        00000070
/mnt/sda5/.user/root/src/openwatcom-1.9/bld/wv/c/dlgwind.c
                dlgwind_TEXT          CODE           0006:0000        000004b4
                CONST                 DATA           000a:0010        00000000
                CONST2                DATA           000a:021c        00000000
                _DATA                 DATA           000a:3886        00000000
/mnt/sda5/.user/root/src/openwatcom-1.9/bld/wv/c/dbgwdata.c
                dbgwdata_TEXT         CODE           0006:04c0        00000000
                CONST                 DATA           000a:0010        00000000
                CONST2                DATA           000a:021c        00000000
                _DATA                 DATA           000a:3890        00000154
                _BSS                  BSS            000a:7a70        00000004
/mnt/sda5/.user/root/src/openwatcom-1.9/bld/wv/c/dlgoptn.c
                dlgoptn_TEXT          CODE           0006:04c0        000003d8
                CONST                 DATA           000a:0010        00000000
                CONST2                DATA           000a:021c        00000000
                _DATA                 DATA           000a:39e4        00000000
/mnt/sda5/.user/root/src/openwatcom-1.9/bld/wv/c/dbgtool.c
                dbgtool_TEXT          CODE           0006:08a0        000000a6
                CONST                 DATA           000a:0010        00000000
                CONST2                DATA           000a:021c        00000000
                _DATA                 DATA           000a:39e4        000000a2
/mnt/sda5/.user/root/src/openwatcom-1.9/bld/wv/c/dbgfing.c
                dbgfing_TEXT          CODE           0006:0950        0000031c
                CONST                 DATA           000a:0010        00000000
                CONST2                DATA           000a:021c        00000000
                _DATA                 DATA           000a:3a90        0000003a
                _BSS                  BSS            000a:7a74        00000008
/mnt/sda5/.user/root/src/openwatcom-1.9/bld/wv/c/helpio.c
                helpio_TEXT           CODE           0006:0c70        000000e4
                CONST                 DATA           000a:0010        00000000
                CONST2                DATA           000a:021c        00000000
                _DATA                 DATA           000a:3aca        00000006
/mnt/sda5/.user/root/src/openwatcom-1.9/bld/aui/c/guimain.c
                guimain_TEXT          CODE           0006:0d60        00000d69
                CONST                 DATA           000a:0010        00000000
                CONST2                DATA           000a:021c        00000000
                _DATA                 DATA           000a:3ad0        0000000a
                _BSS                  BSS            000a:7a80        0000001d
/mnt/sda5/.user/root/src/openwatcom-1.9/bld/gui/ui/c/guigsysh.c
                guigsysh_TEXT         CODE           0006:1ad0        00000003
                CONST                 DATA           000a:0010        00000000
                CONST2                DATA           000a:021c        00000000
                _DATA                 DATA           000a:3ada        00000000
/mnt/sda5/.user/root/src/openwatcom-1.9/bld/ui/win/c/uikeyb.c
                uikeyb_TEXT           CODE           0006:1ad3        0000042d
                CONST                 DATA           000a:0010        0000000b
                CONST2                DATA           000a:021c        00000000
                _DATA                 DATA           000a:3ada        00000041
                _BSS                  BSS            000a:7a9e        00000004
/mnt/sda5/.user/root/src/openwatcom-1.9/bld/ui/win/c/uibios.c
                uibios_TEXT           CODE           0006:1f00        000000e2
                CONST                 DATA           000a:001c        00000000
                CONST2                DATA           000a:021c        00000000
                _DATA                 DATA           000a:3b1c        00000054
/mnt/sda5/.user/root/src/openwatcom-1.9/bld/gui/ui/c/swap.c
                swap_TEXT             CODE           0006:1ff0        00000588
                CONST                 DATA           000a:001c        00000000
                CONST2                DATA           000a:021c        00000000
                _DATA                 DATA           000a:3b70        00000000
                _BSS                  BSS            000a:7ab0        00000056
/mnt/sda5/.user/root/src/openwatcom-1.9/bld/aui/c/wndutil.c
                wndutil_TEXT          CODE           0006:2580        000003d4
                CONST                 DATA           000a:001c        00000000
                CONST2                DATA           000a:021c        00000000
                _DATA                 DATA           000a:3b70        00000000
/mnt/sda5/.user/root/src/openwatcom-1.9/bld/gui/ui/c/guigmous.c
                guigmous_TEXT         CODE           0006:2960        000000c4
                CONST                 DATA           000a:001c        00000000
                CONST2                DATA           000a:021c        00000000
                _DATA                 DATA           000a:3b70        00000006
/mnt/sda5/.user/root/src/openwatcom-1.9/bld/ui/c/uiinit.c
                uiinit_TEXT           CODE           0006:2a24        000000a2
                CONST                 DATA           000a:001c        00000000
                CONST2                DATA           000a:021c        00000000
                _DATA                 DATA           000a:3b76        00000000
/mnt/sda5/.user/root/src/openwatcom-1.9/bld/ui/c/uidata.c
                uidata_TEXT           CODE           0006:2ac6        00000000
                CONST                 DATA           000a:001c        00000000
                CONST2                DATA           000a:021c        00000000
                _DATA                 DATA           000a:3b76        00000004
/mnt/sda5/.user/root/src/openwatcom-1.9/bld/ui/c/uirfrsh.c
                uirfrsh_TEXT          CODE           0006:2ac6        0000019b
                CONST                 DATA           000a:001c        00000000
                CONST2                DATA           000a:021c        00000000
                _DATA                 DATA           000a:3b7a        00000000
/mnt/sda5/.user/root/src/openwatcom-1.9/bld/aui/c/wndmem.c
                wndmem_TEXT           CODE           0006:2c70        00000055
                CONST                 DATA           000a:001c        00000000
                CONST2                DATA           000a:021c        00000000
                _DATA                 DATA           000a:3b7a        00000000
ldcvt.c         _TEXT                 CODE           0006:2cd0        00000c66
                CONST                 DATA           000a:001c        00000000
                CONST2                DATA           000a:021c        00000000
                _DATA                 DATA           000a:3b7a        0000008c
initemuw.asm    _TEXT                 CODE           0006:3936        0000005d
                _DATA                 DATA           000a:3c06        00000000
                XIB                   DATA           000a:4e80        00000000
                XI                    DATA           000a:4e80        00000006
                XIE                   DATA           000a:4eb6        00000000
                YIB                   DATA           000a:4eb6        00000000
                YI                    DATA           000a:4eb6        00000006
                YIE                   DATA           000a:4ed4        00000000
fchop87         _TEXT                 CODE           0006:3994        00000027
                _DATA                 DATA           000a:3c06        00000000
gcvt.c          _TEXT                 CODE           0006:39bb        000000fd
                CONST                 DATA           000a:001c        00000000
                CONST2                DATA           000a:021c        00000000
                _DATA                 DATA           000a:3c06        00000000
strtod.c        _TEXT                 CODE           0006:3ab8        000008f2
                CONST                 DATA           000a:001c        00000000
                CONST2                DATA           000a:021c        00000000
                _DATA                 DATA           000a:3c06        00000000
/mnt/sda5/.user/root/src/openwatcom-1.9/bld/aui/c/wndstat.c
                wndstat_TEXT          CODE           0006:d6d0        000001cf
                CONST                 DATA           000a:001c        00000000
                CONST2                DATA           000a:021c        00000000
                _DATA                 DATA           000a:3c06        00000000
                _BSS                  BSS            000a:7b06        00000051
/mnt/sda5/.user/root/src/openwatcom-1.9/bld/aui/c/wndhist.c
                wndhist_TEXT          CODE           0006:d8a0        00000387
                CONST                 DATA           000a:001c        00000000
                CONST2                DATA           000a:021c        00000000
                _DATA                 DATA           000a:3c06        00000000
/mnt/sda5/.user/root/src/openwatcom-1.9/bld/aui/c/wndcreat.c
                wndcreat_TEXT         CODE           0006:dc30        00000621
                CONST                 DATA           000a:001c        00000000
                CONST2                DATA           000a:021c        00000000
                _DATA                 DATA           000a:3c10        00000004
                _BSS                  BSS            000a:7b60        00000006
/mnt/sda5/.user/root/src/openwatcom-1.9/bld/aui/c/wnddirt.c
                wnddirt_TEXT          CODE           0006:e260        000007e6
                CONST                 DATA           000a:001c        00000000
                CONST2                DATA           000a:021c        00000000
                _DATA                 DATA           000a:3c14        00000001
/mnt/sda5/.user/root/src/openwatcom-1.9/bld/aui/c/wndshrnk.c
                wndshrnk_TEXT         CODE           0006:ea50        00000363
                CONST                 DATA           000a:001c        00000000
                CONST2                DATA           000a:021c        00000000
                _DATA                 DATA           000a:3c16        00000000
/mnt/sda5/.user/root/src/openwatcom-1.9/bld/gui/c/guiisgui.c
                guiisgui_TEXT         CODE           0006:edc0        00000003
                CONST                 DATA           000a:001c        00000000
                CONST2                DATA           000a:021c        00000000
                _DATA                 DATA           000a:3c16        00000000
/mnt/sda5/.user/root/src/openwatcom-1.9/bld/gui/ui/c/guismetr.c
                guismetr_TEXT         CODE           0006:edd0        000000c5
                CONST                 DATA           000a:001c        00000000
                CONST2                DATA           000a:021c        00000000
                _DATA                 DATA           000a:3c16        00000000
/mnt/sda5/.user/root/src/openwatcom-1.9/bld/aui/c/wndmsg.c
                wndmsg_TEXT           CODE           0006:eea0        00000045
                CONST                 DATA           000a:001c        00000000
                CONST2                DATA           000a:021c        00000000
                _DATA                 DATA           000a:3c16        00000000
/mnt/sda5/.user/root/src/openwatcom-1.9/bld/aui/c/wndldstr.c
                wndldstr_TEXT         CODE           0006:eef0        00000075
                CONST                 DATA           000a:001c        00000000
                CONST2                DATA           000a:021c        00000000
                _DATA                 DATA           000a:3c16        00000000
/mnt/sda5/.user/root/src/openwatcom-1.9/bld/gui/ui/c/guiclen.c
                guiclen_TEXT          CODE           0006:ef70        00000018
                CONST                 DATA           000a:001c        00000000
                CONST2                DATA           000a:021c        00000000
                _DATA                 DATA           000a:3c16        00000000
/mnt/sda5/.user/root/src/openwatcom-1.9/bld/aui/c/wndfront.c
                wndfront_TEXT         CODE           0006:ef90        0000011f
                CONST                 DATA           000a:001c        00000000
                CONST2                DATA           000a:021c        00000000
                _DATA                 DATA           000a:3c16        00000000
/mnt/sda5/.user/root/src/openwatcom-1.9/bld/aui/c/dlgsrch.c
                dlgsrch_TEXT          CODE           0006:f0b0        00000674
                CONST                 DATA           000a:001c        00000000
                CONST2                DATA           000a:021c        00000000
                _DATA                 DATA           000a:3c16        0000002a
/mnt/sda5/.user/root/src/openwatcom-1.9/bld/aui/c/wndcurr.c
                wndcurr_TEXT          CODE           0006:f730        000008a3
                CONST                 DATA           000a:001c        00000000
                CONST2                DATA           000a:021c        00000000
                _DATA                 DATA           000a:3c40        00000000
/mnt/sda5/.user/root/src/openwatcom-1.9/bld/aui/c/wndpaint.c
                wndpaint_TEXT         CODE           0007:0000        0000071c
                CONST                 DATA           000a:001c        00000000
                CONST2                DATA           000a:021c        00000000
                _DATA                 DATA           000a:3c40        00000000
/mnt/sda5/.user/root/src/openwatcom-1.9/bld/aui/c/wndcrsr.c
                wndcrsr_TEXT          CODE           0007:0720        00000652
                CONST                 DATA           000a:001c        00000000
                CONST2                DATA           000a:021c        00000000
                _DATA                 DATA           000a:3c40        00000000
/mnt/sda5/.user/root/src/openwatcom-1.9/bld/aui/c/wndfont.c
                wndfont_TEXT          CODE           0007:0d80        00000088
                CONST                 DATA           000a:001c        00000000
                CONST2                DATA           000a:021c        00000000
                _DATA                 DATA           000a:3c40        00000000
/mnt/sda5/.user/root/src/openwatcom-1.9/bld/gui/c/guimem.c
                guimem_TEXT           CODE           0007:0e10        0000002d
                CONST                 DATA           000a:001c        00000000
                CONST2                DATA           000a:021c        00000000
                _DATA                 DATA           000a:3c40        00000000
/mnt/sda5/.user/root/src/openwatcom-1.9/bld/aui/c/wndrect.c
                wndrect_TEXT          CODE           0007:0e40        00000219
                CONST                 DATA           000a:001c        00000000
                CONST2                DATA           000a:021c        00000000
                _DATA                 DATA           000a:3c40        00000000
/mnt/sda5/.user/root/src/openwatcom-1.9/bld/gui/ui/c/guistub.c
                guistub_TEXT          CODE           0007:1060        0000001d
                CONST                 DATA           000a:001c        00000000
                CONST2                DATA           000a:021c        00000000
                _DATA                 DATA           000a:3c40        00000000
/mnt/sda5/.user/root/src/openwatcom-1.9/bld/gui/c/guimin.c
                guimin_TEXT           CODE           0007:1080        0000002d
                CONST                 DATA           000a:001c        00000000
                CONST2                DATA           000a:021c        00000000
                _DATA                 DATA           000a:3c40        00000000
/mnt/sda5/.user/root/src/openwatcom-1.9/bld/aui/c/wndtool.c
                wndtool_TEXT          CODE           0007:10b0        00000190
                CONST                 DATA           000a:001c        00000000
                CONST2                DATA           000a:021c        00000000
                _DATA                 DATA           000a:3c40        00000001
                _BSS                  BSS            000a:7b66        00000002
/mnt/sda5/.user/root/src/openwatcom-1.9/bld/gui/ui/c/guicolor.c
                guicolor_TEXT         CODE           0007:1240        000007e4
                CONST                 DATA           000a:001c        00000000
                CONST2                DATA           000a:021c        00000000
                _DATA                 DATA           000a:3c42        0000003b
/mnt/sda5/.user/root/src/openwatcom-1.9/bld/aui/c/wndcolor.c
                wndcolor_TEXT         CODE           0007:1a30        000000cb
                CONST                 DATA           000a:001c        00000000
                CONST2                DATA           000a:021c        00000000
                _DATA                 DATA           000a:3c7e        00000000
/mnt/sda5/.user/root/src/openwatcom-1.9/bld/aui/c/dlgpick.c
                dlgpick_TEXT          CODE           0007:1b00        000000dd
                CONST                 DATA           000a:001c        00000000
                CONST2                DATA           000a:021c        00000000
                _DATA                 DATA           000a:3c7e        00000000
                _BSS                  BSS            000a:7b70        0000000c
/mnt/sda5/.user/root/src/openwatcom-1.9/bld/gui/c/guipick.c
                guipick_TEXT          CODE           0007:1be0        0000015b
                CONST                 DATA           000a:001c        00000000
                CONST2                DATA           000a:021c        00000000
                _DATA                 DATA           000a:3c7e        0000004e
/mnt/sda5/.user/root/src/openwatcom-1.9/bld/aui/c/wnddlg.c
                wnddlg_TEXT           CODE           0007:1d40        00000184
                CONST                 DATA           000a:001c        00000000
                CONST2                DATA           000a:021c        00000000
                _DATA                 DATA           000a:3ccc        00000032
                _BSS                  BSS            000a:7b80        00000028
/mnt/sda5/.user/root/src/openwatcom-1.9/bld/gui/c/guindlg.c
                guindlg_TEXT          CODE           0007:1ed0        00000497
                CONST                 DATA           000a:001c        00000000
                CONST2                DATA           000a:021c        00000000
                _DATA                 DATA           000a:3cfe        0000004f
/mnt/sda5/.user/root/src/openwatcom-1.9/bld/gui/ui/c/guifocus.c
                guifocus_TEXT         CODE           0007:2370        00000050
                CONST                 DATA           000a:001c        00000000
                CONST2                DATA           000a:021c        00000000
                _DATA                 DATA           000a:3d4e        00000000
/mnt/sda5/.user/root/src/openwatcom-1.9/bld/gui/ui/c/guixedit.c
                guixedit_TEXT         CODE           0007:23c0        000002a3
                CONST                 DATA           000a:001c        00000000
                CONST2                DATA           000a:021c        00000000
                _DATA                 DATA           000a:3d4e        00000000
/mnt/sda5/.user/root/src/openwatcom-1.9/bld/aui/c/wndsrch.c
                wndsrch_TEXT          CODE           0007:2670        00000751
                CONST                 DATA           000a:001c        00000000
                CONST2                DATA           000a:021c        00000000
                _DATA                 DATA           000a:3d4e        00000001
/mnt/sda5/.user/root/src/openwatcom-1.9/bld/aui/c/wndpop.c
                wndpop_TEXT           CODE           0007:2dd0        0000103e
                CONST                 DATA           000a:001c        00000000
                CONST2                DATA           000a:021c        00000000
                _DATA                 DATA           000a:3d50        00000000
/mnt/sda5/.user/root/src/openwatcom-1.9/bld/gui/ui/c/guispawn.c
                guispawn_TEXT         CODE           0007:3e10        00000036
                CONST                 DATA           000a:001c        00000000
                CONST2                DATA           000a:021c        00000000
                _DATA                 DATA           000a:3d50        00000000
/mnt/sda5/.user/root/src/openwatcom-1.9/bld/aui/c/wndgadgt.c
                wndgadgt_TEXT         CODE           0007:3e50        00000095
                CONST                 DATA           000a:001c        00000000
                CONST2                DATA           000a:021c        00000000
                _DATA                 DATA           000a:3d50        00000002
/mnt/sda5/.user/root/src/openwatcom-1.9/bld/gui/c/guihot.c
                guihot_TEXT           CODE           0007:3ef0        00000102
                CONST                 DATA           000a:001c        00000000
                CONST2                DATA           000a:021c        00000000
                _DATA                 DATA           000a:3d52        00000000
                _BSS                  BSS            000a:7ba8        00000002
/mnt/sda5/.user/root/src/openwatcom-1.9/bld/gui/ui/c/guiflush.c
                guiflush_TEXT         CODE           0007:4000        0000000c
                CONST                 DATA           000a:001c        00000000
                CONST2                DATA           000a:021c        00000000
                _DATA                 DATA           000a:3d52        00000000
/mnt/sda5/.user/root/src/openwatcom-1.9/bld/aui/c/wndmeth.c
                wndmeth_TEXT          CODE           0007:4010        000006ab
                CONST                 DATA           000a:001c        00000000
                CONST2                DATA           000a:021c        00000000
                _DATA                 DATA           000a:3d52        00000036
                _BSS                  BSS            000a:7baa        00000bba
/mnt/sda5/.user/root/src/openwatcom-1.9/bld/gui/c/guiextra.c
                guiextra_TEXT         CODE           0007:46c0        0000001f
                CONST                 DATA           000a:001c        00000000
                CONST2                DATA           000a:021c        00000000
                _DATA                 DATA           000a:3d88        00000000
/mnt/sda5/.user/root/src/openwatcom-1.9/bld/gui/ui/c/guixdlg.c
                guixdlg_TEXT          CODE           0007:46e0        000016fd
                CONST                 DATA           000a:001c        00000000
                CONST2                DATA           000a:021c        00000000
                _DATA                 DATA           000a:3d90        00000038
/mnt/sda5/.user/root/src/openwatcom-1.9/bld/gui/ui/c/guixaddt.c
                guixaddt_TEXT         CODE           0007:5de0        0000039e
                CONST                 DATA           000a:001c        00000000
                CONST2                DATA           000a:021c        00000000
                _DATA                 DATA           000a:3dc8        00000000
/mnt/sda5/.user/root/src/openwatcom-1.9/bld/gui/ui/c/guigtext.c
                guigtext_TEXT         CODE           0007:6180        00000131
                CONST                 DATA           000a:001c        00000000
                CONST2                DATA           000a:021c        00000000
                _DATA                 DATA           000a:3dc8        00000000
/mnt/sda5/.user/root/src/openwatcom-1.9/bld/gui/ui/c/guistext.c
                guistext_TEXT         CODE           0007:62c0        000000e3
                CONST                 DATA           000a:001c        00000000
                CONST2                DATA           000a:021c        00000000
                _DATA                 DATA           000a:3dc8        00000000
/mnt/sda5/.user/root/src/openwatcom-1.9/bld/aui/c/wndfdlg.c
                wndfdlg_TEXT          CODE           0007:63b0        00000166
                CONST                 DATA           000a:001c        00000000
                CONST2                DATA           000a:021c        00000000
                _DATA                 DATA           000a:3dc8        00000000
/mnt/sda5/.user/root/src/openwatcom-1.9/bld/gui/ui/c/guicontr.c
                guicontr_TEXT         CODE           0007:6520        0000076c
                CONST                 DATA           000a:001c        00000000
                CONST2                DATA           000a:021c        00000000
                _DATA                 DATA           000a:3dc8        00000000
/mnt/sda5/.user/root/src/openwatcom-1.9/bld/aui/c/dlgnew.c
                dlgnew_TEXT           CODE           0007:6c90        000001a9
                CONST                 DATA           000a:001c        00000000
                CONST2                DATA           000a:021c        00000000
                _DATA                 DATA           000a:3dc8        0000004e
/mnt/sda5/.user/root/src/openwatcom-1.9/bld/gui/ui/c/guicheck.c
                guicheck_TEXT         CODE           0007:6e40        0000010e
                CONST                 DATA           000a:001c        00000000
                CONST2                DATA           000a:021c        00000000
                _DATA                 DATA           000a:3e16        00000000
/mnt/sda5/.user/root/src/openwatcom-1.9/bld/gui/ui/c/guihelp.c
                guihelp_TEXT          CODE           0007:6f50        000000df
                CONST                 DATA           000a:001c        00000001
                CONST2                DATA           000a:021c        00000000
                _DATA                 DATA           000a:3e20        00000008
/mnt/sda5/.user/root/src/openwatcom-1.9/bld/aui/c/wndsel.c
                wndsel_TEXT           CODE           0007:7030        000005ac
                CONST                 DATA           000a:001e        00000000
                CONST2                DATA           000a:021c        00000000
                _DATA                 DATA           000a:3e28        00000000
                _BSS                  BSS            000a:8764        00000004
/mnt/sda5/.user/root/src/openwatcom-1.9/bld/aui/c/wndscrol.c
                wndscrol_TEXT         CODE           0007:75e0        000004fc
                CONST                 DATA           000a:001e        00000000
                CONST2                DATA           000a:021c        00000000
                _DATA                 DATA           000a:3e28        00000000
/mnt/sda5/.user/root/src/openwatcom-1.9/bld/aui/c/wndchar.c
                wndchar_TEXT          CODE           0007:7ae0        00000085
                CONST                 DATA           000a:001e        00000000
                CONST2                DATA           000a:021c        00000000
                _DATA                 DATA           000a:3e30        00000004
/mnt/sda5/.user/root/src/openwatcom-1.9/bld/gui/c/guiwnclr.c
                guiwnclr_TEXT         CODE           0007:7b70        000000bb
                CONST                 DATA           000a:001e        00000000
                CONST2                DATA           000a:021c        00000000
                _DATA                 DATA           000a:3e34        0000001c
/mnt/sda5/.user/root/src/openwatcom-1.9/bld/gui/ui/c/guidbclk.c
                guidbclk_TEXT         CODE           0007:7c30        00000016
                CONST                 DATA           000a:001e        00000000
                CONST2                DATA           000a:021c        00000000
                _DATA                 DATA           000a:3e50        00000000
/mnt/sda5/.user/root/src/openwatcom-1.9/bld/gui/c/guirscal.c
                guirscal_TEXT         CODE           0007:7c50        00000065
                CONST                 DATA           000a:001e        00000000
                CONST2                DATA           000a:021c        00000000
                _DATA                 DATA           000a:3e50        00000000
/mnt/sda5/.user/root/src/openwatcom-1.9/bld/gui/c/guiscale.c
                guiscale_TEXT         CODE           0007:7cc0        00000266
                CONST                 DATA           000a:001e        00000000
                CONST2                DATA           000a:021c        00000000
                _DATA                 DATA           000a:3e50        00000000
                _BSS                  BSS            000a:8768        00000010
/mnt/sda5/.user/root/src/openwatcom-1.9/bld/aui/c/wndstyle.c
                wndstyle_TEXT         CODE           0007:7f30        00000000
                CONST                 DATA           000a:001e        00000000
                CONST2                DATA           000a:021c        00000000
                _DATA                 DATA           000a:3e50        00000001
/mnt/sda5/.user/root/src/openwatcom-1.9/bld/gui/ui/c/guixinit.c
                guixinit_TEXT         CODE           0007:7f30        00000138
                CONST                 DATA           000a:001e        00000000
                CONST2                DATA           000a:021c        00000000
                _DATA                 DATA           000a:3e52        00000004
/mnt/sda5/.user/root/src/openwatcom-1.9/bld/gui/c/guiimmdi.c
                guiimmdi_TEXT         CODE           0007:8070        0000005b
                CONST                 DATA           000a:001e        00000000
                CONST2                DATA           000a:021c        00000000
                _DATA                 DATA           000a:3e56        00000000
/mnt/sda5/.user/root/src/openwatcom-1.9/bld/gui/ui/c/guimenu.c
                guimenu_TEXT          CODE           0007:80d0        000015f6
                CONST                 DATA           000a:001e        00000000
                CONST2                DATA           000a:021c        00000000
                _DATA                 DATA           000a:3e56        00000012
/mnt/sda5/.user/root/src/openwatcom-1.9/bld/aui/c/wndimain.c
                wndimain_TEXT         CODE           0007:96d0        0000000c
                CONST                 DATA           000a:001e        00000000
                CONST2                DATA           000a:021c        00000000
                _DATA                 DATA           000a:3e68        00000000
/mnt/sda5/.user/root/src/openwatcom-1.9/bld/aui/c/wndmnsz.c
                wndmnsz_TEXT          CODE           0007:96e0        00000021
                CONST                 DATA           000a:001e        00000000
                CONST2                DATA           000a:021c        00000000
                _DATA                 DATA           000a:3e68        00000000
/mnt/sda5/.user/root/src/openwatcom-1.9/bld/aui/c/wndbgch.c
                wndbgch_TEXT          CODE           0007:9710        00000000
                CONST                 DATA           000a:001e        00000000
                CONST2                DATA           000a:021c        00000000
                _DATA                 DATA           000a:3e68        00000001
/mnt/sda5/.user/root/src/openwatcom-1.9/bld/gui/ui/c/guixdraw.c
                guixdraw_TEXT         CODE           0007:9710        00000d03
                CONST                 DATA           000a:001e        00000000
                CONST2                DATA           000a:021c        00000000
                _DATA                 DATA           000a:3e6a        00000038
                _BSS                  BSS            000a:8778        0000001e
/mnt/sda5/.user/root/src/openwatcom-1.9/bld/gui/ui/c/guixsys.c
                guixsys_TEXT          CODE           0007:a420        0000059d
                CONST                 DATA           000a:001e        00000000
                CONST2                DATA           000a:021c        00000000
                _DATA                 DATA           000a:3eb0        00000010
/mnt/sda5/.user/root/src/openwatcom-1.9/bld/gui/ui/c/guixwind.c
                guixwind_TEXT         CODE           0007:a9c0        00000421
                CONST                 DATA           000a:001e        00000000
                CONST2                DATA           000a:021c        00000000
                _DATA                 DATA           000a:3ec0        00000000
/mnt/sda5/.user/root/src/openwatcom-1.9/bld/gui/ui/c/guigetnr.c
                guigetnr_TEXT         CODE           0007:adf0        0000000d
                CONST                 DATA           000a:001e        00000000
                CONST2                DATA           000a:021c        00000000
                _DATA                 DATA           000a:3ec0        00000000
/mnt/sda5/.user/root/src/openwatcom-1.9/bld/gui/ui/c/guitextm.c
                guitextm_TEXT         CODE           0007:ae00        00000096
                CONST                 DATA           000a:001e        00000000
                CONST2                DATA           000a:021c        00000000
                _DATA                 DATA           000a:3ec0        00000000
/mnt/sda5/.user/root/src/openwatcom-1.9/bld/gui/ui/c/guicrect.c
                guicrect_TEXT         CODE           0007:aea0        00000069
                CONST                 DATA           000a:001e        00000000
                CONST2                DATA           000a:021c        00000000
                _DATA                 DATA           000a:3ec0        00000000
/mnt/sda5/.user/root/src/openwatcom-1.9/bld/gui/ui/c/guirange.c
                guirange_TEXT         CODE           0007:af10        000001c0
                CONST                 DATA           000a:001e        00000000
                CONST2                DATA           000a:021c        00000000
                _DATA                 DATA           000a:3ec0        00000000
/mnt/sda5/.user/root/src/openwatcom-1.9/bld/aui/c/wndchoos.c
                wndchoos_TEXT         CODE           0007:b0d0        00000554
                CONST                 DATA           000a:001e        00000000
                CONST2                DATA           000a:021c        00000000
                _DATA                 DATA           000a:3ec0        00000000
/mnt/sda5/.user/root/src/openwatcom-1.9/bld/aui/c/wndmouse.c
                wndmouse_TEXT         CODE           0007:b630        00000568
                CONST                 DATA           000a:001e        00000000
                CONST2                DATA           000a:021c        00000000
                _DATA                 DATA           000a:3ec0        00000000
                _BSS                  BSS            000a:8796        00000023
/mnt/sda5/.user/root/src/openwatcom-1.9/bld/gui/ui/c/guistat.c
                guistat_TEXT          CODE           0007:bba0        0000046d
                CONST                 DATA           000a:001e        00000000
                CONST2                DATA           000a:021c        00000000
                _DATA                 DATA           000a:3ec0        00000000
/mnt/sda5/.user/root/src/openwatcom-1.9/bld/aui/c/wndqryhk.c
                wndqryhk_TEXT         CODE           0007:c010        00000003
                CONST                 DATA           000a:001e        00000000
                CONST2                DATA           000a:021c        00000000
                _DATA                 DATA           000a:3ec0        00000000
/mnt/sda5/.user/root/src/openwatcom-1.9/bld/aui/c/wndendhk.c
                wndendhk_TEXT         CODE           0007:c020        00000001
                CONST                 DATA           000a:001e        00000000
                CONST2                DATA           000a:021c        00000000
                _DATA                 DATA           000a:3ec0        00000000
/mnt/sda5/.user/root/src/openwatcom-1.9/bld/ui/win/c/uimous.c
                uimous_TEXT           CODE           0007:c021        000002a2
                CONST                 DATA           000a:001e        00000000
                CONST2                DATA           000a:021c        00000000
                _DATA                 DATA           000a:3ec0        00000004
                _BSS                  BSS            000a:87ba        0000000a
/mnt/sda5/.user/root/src/openwatcom-1.9/bld/ui/win/c/uicurs.c
                uicurs_TEXT           CODE           0007:c2c3        000000fa
                CONST                 DATA           000a:001e        00000000
                CONST2                DATA           000a:021c        00000000
                _DATA                 DATA           000a:3ec4        00000002
                _BSS                  BSS            000a:87c4        00000007
/mnt/sda5/.user/root/src/openwatcom-1.9/bld/gui/ui/c/guixtent.c
                guixtent_TEXT         CODE           0007:c3c0        000000af
                CONST                 DATA           000a:001e        00000000
                CONST2                DATA           000a:021c        00000000
                _DATA                 DATA           000a:3ec6        00000000
/mnt/sda5/.user/root/src/openwatcom-1.9/bld/gui/ui/c/guidirty.c
                guidirty_TEXT         CODE           0007:c470        0000009a
                CONST                 DATA           000a:001e        00000000
                CONST2                DATA           000a:021c        00000000
                _DATA                 DATA           000a:3ec6        00000000
/mnt/sda5/.user/root/src/openwatcom-1.9/bld/gui/c/guizlist.c
                guizlist_TEXT         CODE           0007:c510        0000017c
                CONST                 DATA           000a:001e        00000000
                CONST2                DATA           000a:021c        00000000
                _DATA                 DATA           000a:3ed0        00000004
/mnt/sda5/.user/root/src/openwatcom-1.9/bld/ui/c/uimousev.c
                uimousev_TEXT         CODE           0007:c68c        000004aa
                CONST                 DATA           000a:001e        00000000
                CONST2                DATA           000a:021c        00000000
                _DATA                 DATA           000a:3ed4        0000002e
                _BSS                  BSS            000a:87cc        00000009
/mnt/sda5/.user/root/src/openwatcom-1.9/bld/ui/c/uialloc.c
                uialloc_TEXT          CODE           0007:cb36        00000038
                CONST                 DATA           000a:001e        00000000
                CONST2                DATA           000a:021c        00000000
                _DATA                 DATA           000a:3f02        00000000
/mnt/sda5/.user/root/src/openwatcom-1.9/bld/ui/c/uigchar.c
                uigchar_TEXT          CODE           0007:cb6e        00000091
                CONST                 DATA           000a:001e        00000000
                CONST2                DATA           000a:021c        00000000
                _DATA                 DATA           000a:3f02        00000066
/mnt/sda5/.user/root/src/openwatcom-1.9/bld/ui/c/uiattr.c
                uiattr_TEXT           CODE           0007:cbff        00000123
                CONST                 DATA           000a:001e        00000000
                CONST2                DATA           000a:021c        00000000
                _DATA                 DATA           000a:3f68        000000fa
/mnt/sda5/.user/root/src/openwatcom-1.9/bld/ui/c/uiback.c
                uiback_TEXT           CODE           0007:cd22        0000026e
                CONST                 DATA           000a:001e        00000000
                CONST2                DATA           000a:021c        00000000
                _DATA                 DATA           000a:4062        00000000
/mnt/sda5/.user/root/src/openwatcom-1.9/bld/ui/c/uiforce.c
                uiforce_TEXT          CODE           0007:cf90        000000c8
                CONST                 DATA           000a:001e        00000000
                CONST2                DATA           000a:021c        00000000
                _DATA                 DATA           000a:4062        0000000e
/mnt/sda5/.user/root/src/openwatcom-1.9/bld/ui/c/uiarea.c
                uiarea_TEXT           CODE           0007:d058        000001bd
                CONST                 DATA           000a:001e        00000000
                CONST2                DATA           000a:021c        00000000
                _DATA                 DATA           000a:4070        00000000
ldclass.c       _TEXT                 CODE           0006:43aa        0000006c
                CONST                 DATA           000a:001e        00000000
                CONST2                DATA           000a:021c        00000000
                _DATA                 DATA           000a:4070        00000000
bufld086        _TEXT                 CODE           0006:4416        000000c8
                _DATA                 DATA           000a:4070        00000000
inf_nan.c       _TEXT                 CODE           0006:44de        00000000
                CONST                 DATA           000a:001e        00000000
                CONST2                DATA           000a:021c        00000028
                _DATA                 DATA           000a:4070        00000000
/mnt/sda5/.user/root/src/openwatcom-1.9/bld/aui/c/wndfref.c
                wndfref_TEXT          CODE           0007:d220        0000001b
                CONST                 DATA           000a:001e        00000000
                CONST2                DATA           000a:0244        00000000
                _DATA                 DATA           000a:4070        00000000
/mnt/sda5/.user/root/src/openwatcom-1.9/bld/gui/c/guicreat.c
                guicreat_TEXT         CODE           0007:d240        00000081
                CONST                 DATA           000a:001e        00000000
                CONST2                DATA           000a:0244        00000000
                _DATA                 DATA           000a:4070        00000001
/mnt/sda5/.user/root/src/openwatcom-1.9/bld/gui/ui/c/guisicon.c
                guisicon_TEXT         CODE           0007:d2d0        0000008c
                CONST                 DATA           000a:001e        00000000
                CONST2                DATA           000a:0244        00000000
                _DATA                 DATA           000a:4072        00000000
/mnt/sda5/.user/root/src/openwatcom-1.9/bld/gui/ui/c/guidrect.c
                guidrect_TEXT         CODE           0007:d360        00000172
                CONST                 DATA           000a:001e        00000000
                CONST2                DATA           000a:0244        00000000
                _DATA                 DATA           000a:4072        00000000
/mnt/sda5/.user/root/src/openwatcom-1.9/bld/gui/ui/c/guidrow.c
                guidrow_TEXT          CODE           0007:d4e0        0000006c
                CONST                 DATA           000a:001e        00000000
                CONST2                DATA           000a:0244        00000000
                _DATA                 DATA           000a:4072        00000000
/mnt/sda5/.user/root/src/openwatcom-1.9/bld/gui/ui/c/guiscrol.c
                guiscrol_TEXT         CODE           0007:d550        000002f4
                CONST                 DATA           000a:001e        00000000
                CONST2                DATA           000a:0244        00000000
                _DATA                 DATA           000a:4072        00000000
/mnt/sda5/.user/root/src/openwatcom-1.9/bld/gui/c/guidraw.c
                guidraw_TEXT          CODE           0007:d850        00000220
                CONST                 DATA           000a:001e        00000000
                CONST2                DATA           000a:0244        00000000
                _DATA                 DATA           000a:4072        00000000
/mnt/sda5/.user/root/src/openwatcom-1.9/bld/gui/ui/c/guidoscr.c
                guidoscr_TEXT         CODE           0007:da70        000001f3
                CONST                 DATA           000a:001e        00000000
                CONST2                DATA           000a:0244        00000000
                _DATA                 DATA           000a:4072        00000000
/mnt/sda5/.user/root/src/openwatcom-1.9/bld/gui/c/guipixel.c
                guipixel_TEXT         CODE           0007:dc70        0000002a
                CONST                 DATA           000a:001e        00000000
                CONST2                DATA           000a:0244        00000000
                _DATA                 DATA           000a:4072        00000000
/mnt/sda5/.user/root/src/openwatcom-1.9/bld/gui/ui/c/guirect.c
                guirect_TEXT          CODE           0007:dca0        00000085
                CONST                 DATA           000a:001e        00000000
                CONST2                DATA           000a:0244        00000000
                _DATA                 DATA           000a:4072        00000000
/mnt/sda5/.user/root/src/openwatcom-1.9/bld/gui/ui/c/guimouse.c
                guimouse_TEXT         CODE           0007:dd30        0000006b
                CONST                 DATA           000a:001e        00000000
                CONST2                DATA           000a:0244        00000000
                _DATA                 DATA           000a:4072        00000000
/mnt/sda5/.user/root/src/openwatcom-1.9/bld/gui/ui/c/guisize.c
                guisize_TEXT          CODE           0007:dda0        000012e4
                CONST                 DATA           000a:001e        00000000
                CONST2                DATA           000a:0244        00000000
                _DATA                 DATA           000a:4072        00000000
/mnt/sda5/.user/root/src/openwatcom-1.9/bld/gui/ui/c/guixdisp.c
                guixdisp_TEXT         CODE           0007:f090        00000802
                CONST                 DATA           000a:001e        0000000b
                CONST2                DATA           000a:0244        00000000
                _DATA                 DATA           000a:4072        00000191
/mnt/sda5/.user/root/src/openwatcom-1.9/bld/gui/ui/c/guildstr.c
                guildstr_TEXT         CODE           0007:f8a0        0000022b
                CONST                 DATA           000a:002a        00000033
                CONST2                DATA           000a:0244        00000000
                _DATA                 DATA           000a:4204        00000028
/mnt/sda5/.user/root/src/openwatcom-1.9/bld/ui/c/uichlen.c
                uichlen_TEXT          CODE           0007:facb        0000002a
                CONST                 DATA           000a:005e        00000000
                CONST2                DATA           000a:0244        00000000
                _DATA                 DATA           000a:422c        00000000
/mnt/sda5/.user/root/src/openwatcom-1.9/bld/gui/ui/c/guifront.c
                guifront_TEXT         CODE           0007:fb00        00000147
                CONST                 DATA           000a:005e        00000000
                CONST2                DATA           000a:0244        00000000
                _DATA                 DATA           000a:422c        00000000
/mnt/sda5/.user/root/src/openwatcom-1.9/bld/gui/ui/c/guistrin.c
                guistrin_TEXT         CODE           0007:fc50        00000062
                CONST                 DATA           000a:005e        00000000
                CONST2                DATA           000a:0244        00000000
                _DATA                 DATA           000a:422c        00000000
/mnt/sda5/.user/root/src/openwatcom-1.9/bld/gui/ui/c/guixbar.c
                guixbar_TEXT          CODE           0007:fcc0        000000f4
                CONST                 DATA           000a:005e        00000000
                CONST2                DATA           000a:0244        00000000
                _DATA                 DATA           000a:422c        00000000
/mnt/sda5/.user/root/src/openwatcom-1.9/bld/gui/ui/c/guidrawr.c
                guidrawr_TEXT         CODE           0008:0000        00000549
                CONST                 DATA           000a:005e        00000000
                CONST2                DATA           000a:0244        00000000
                _DATA                 DATA           000a:422c        00000000
/mnt/sda5/.user/root/src/openwatcom-1.9/bld/gui/ui/c/guixhot.c
                guixhot_TEXT          CODE           0008:0550        00000153
                CONST                 DATA           000a:005e        00000000
                CONST2                DATA           000a:0244        00000000
                _DATA                 DATA           000a:4230        00000004
/mnt/sda5/.user/root/src/openwatcom-1.9/bld/gui/ui/c/guitool.c
                guitool_TEXT          CODE           0008:06b0        00000b23
                CONST                 DATA           000a:005e        00000000
                CONST2                DATA           000a:0244        00000000
                _DATA                 DATA           000a:4234        0000005c
/mnt/sda5/.user/root/src/openwatcom-1.9/bld/gui/c/guihtool.c
                guihtool_TEXT         CODE           0008:11e0        00000181
                CONST                 DATA           000a:005e        00000000
                CONST2                DATA           000a:0244        00000000
                _DATA                 DATA           000a:4290        00000000
/mnt/sda5/.user/root/src/openwatcom-1.9/bld/ui/c/uimenu.c
                uimenu_TEXT           CODE           0008:1361        00001697
                CONST                 DATA           000a:005e        00000024
                CONST2                DATA           000a:0244        00000000
                _DATA                 DATA           000a:4290        0000002f
                _BSS                  BSS            000a:87d6        000000a6
/mnt/sda5/.user/root/src/openwatcom-1.9/bld/gui/ui/c/guiwhole.c
                guiwhole_TEXT         CODE           0008:2a00        00000045
                CONST                 DATA           000a:0082        00000000
                CONST2                DATA           000a:0244        00000000
                _DATA                 DATA           000a:42c0        00000000
/mnt/sda5/.user/root/src/openwatcom-1.9/bld/ui/c/uigadget.c
                uigadget_TEXT         CODE           0008:2a45        000006d7
                CONST                 DATA           000a:0082        00000000
                CONST2                DATA           000a:0244        00000000
                _DATA                 DATA           000a:42c0        00000017
/mnt/sda5/.user/root/src/openwatcom-1.9/bld/gui/c/guisdef.c
                guisdef_TEXT          CODE           0008:3120        00000000
                CONST                 DATA           000a:0082        00000000
                CONST2                DATA           000a:0244        00000000
                _DATA                 DATA           000a:42d8        00000000
                _BSS                  BSS            000a:8880        00000118
/mnt/sda5/.user/root/src/openwatcom-1.9/bld/gui/c/guidlg.c
                guidlg_TEXT           CODE           0008:3120        000000bd
                CONST                 DATA           000a:0082        00000000
                CONST2                DATA           000a:0244        00000000
                _DATA                 DATA           000a:42d8        00000000
/mnt/sda5/.user/root/src/openwatcom-1.9/bld/ui/c/uidialog.c
                uidialog_TEXT         CODE           0008:31dd        000022b3
                CONST                 DATA           000a:0082        00000002
                CONST2                DATA           000a:0244        00000000
                _DATA                 DATA           000a:42d8        0000002e
/mnt/sda5/.user/root/src/openwatcom-1.9/bld/gui/c/guiutil.c
                guiutil_TEXT          CODE           0008:5490        00000212
                CONST                 DATA           000a:0084        00000000
                CONST2                DATA           000a:0244        00000000
                _DATA                 DATA           000a:4310        00000008
/mnt/sda5/.user/root/src/openwatcom-1.9/bld/gui/ui/c/guihotsp.c
                guihotsp_TEXT         CODE           0008:56b0        00000166
                CONST                 DATA           000a:0084        00000001
                CONST2                DATA           000a:0244        00000000
                _DATA                 DATA           000a:4318        00000000
/mnt/sda5/.user/root/src/openwatcom-1.9/bld/aui/c/rxwrap.c
                rxwrap_TEXT           CODE           0008:5820        0000133b
                CONST                 DATA           000a:0086        00000000
                CONST2                DATA           000a:0244        00000000
                _DATA                 DATA           000a:4318        0000000f
                _BSS                  BSS            000a:89a0        00000021
/mnt/sda5/.user/root/src/openwatcom-1.9/bld/gui/c/guihflt.c
                guihflt_TEXT          CODE           0008:6b60        00000083
                CONST                 DATA           000a:0086        00000000
                CONST2                DATA           000a:0244        00000000
                _DATA                 DATA           000a:4328        00000000
/mnt/sda5/.user/root/src/openwatcom-1.9/bld/ui/win/c/uispawn.c
                uispawn_TEXT          CODE           0008:6be3        0000002d
                CONST                 DATA           000a:0086        00000000
                CONST2                DATA           000a:0244        00000000
                _DATA                 DATA           000a:4328        00000000
/mnt/sda5/.user/root/src/openwatcom-1.9/bld/ui/c/uiblank.c
                uiblank_TEXT          CODE           0008:6c10        000000d2
                CONST                 DATA           000a:0086        00000000
                CONST2                DATA           000a:0244        00000000
                _DATA                 DATA           000a:4328        00000000
/mnt/sda5/.user/root/src/openwatcom-1.9/bld/ui/c/uidirty.c
                uidirty_TEXT          CODE           0008:6ce2        00000128
                CONST                 DATA           000a:0086        00000000
                CONST2                DATA           000a:0244        00000000
                _DATA                 DATA           000a:4328        00000000
/mnt/sda5/.user/root/src/openwatcom-1.9/bld/gui/c/guihook.c
                guihook_TEXT          CODE           0008:6e10        000001f4
                CONST                 DATA           000a:0086        00000000
                CONST2                DATA           000a:0244        00000000
                _DATA                 DATA           000a:4330        0000002c
/mnt/sda5/.user/root/src/openwatcom-1.9/bld/ui/win/c/uiget.c
                uiget_TEXT            CODE           0008:7004        000000dd
                CONST                 DATA           000a:0086        00000000
                CONST2                DATA           000a:0244        00000000
                _DATA                 DATA           000a:435c        00000002
/mnt/sda5/.user/root/src/openwatcom-1.9/bld/ui/c/uilist.c
                uilist_TEXT           CODE           0008:70e1        00000183
                CONST                 DATA           000a:0086        00000000
                CONST2                DATA           000a:0244        00000000
                _DATA                 DATA           000a:435e        0000007a
/mnt/sda5/.user/root/src/openwatcom-1.9/bld/gui/ui/c/guilistb.c
                guilistb_TEXT         CODE           0008:7270        00000853
                CONST                 DATA           000a:0086        00000003
                CONST2                DATA           000a:0244        00000000
                _DATA                 DATA           000a:43d8        00000000
/mnt/sda5/.user/root/src/openwatcom-1.9/bld/gui/ui/c/guixutil.c
                guixutil_TEXT         CODE           0008:7ad0        00000832
                CONST                 DATA           000a:008a        00000000
                CONST2                DATA           000a:0244        00000000
                _DATA                 DATA           000a:43d8        00000000
/mnt/sda5/.user/root/src/openwatcom-1.9/bld/gui/c/guimkey.c
                guimkey_TEXT          CODE           0008:8310        0000032e
                CONST                 DATA           000a:008a        00000000
                CONST2                DATA           000a:0244        00000000
                _DATA                 DATA           000a:43d8        00000001
/mnt/sda5/.user/root/src/openwatcom-1.9/bld/gui/ui/c/guirdlg.c
                guirdlg_TEXT          CODE           0008:8640        000010fd
                CONST                 DATA           000a:008a        00000000
                CONST2                DATA           000a:0244        00000000
                _DATA                 DATA           000a:43da        00000000
/mnt/sda5/.user/root/src/openwatcom-1.9/bld/ui/c/uiyield.c
                uiyield_TEXT          CODE           0008:973d        00000001
                CONST                 DATA           000a:008a        00000000
                CONST2                DATA           000a:0244        00000000
                _DATA                 DATA           000a:43da        00000000
/mnt/sda5/.user/root/src/openwatcom-1.9/bld/gui/ui/c/guixloop.c
                guixloop_TEXT         CODE           0008:9740        00000f8a
                CONST                 DATA           000a:008a        00000000
                CONST2                DATA           000a:0244        00000000
                _DATA                 DATA           000a:43e0        00000020
                _BSS                  BSS            000a:89c2        00000001
/mnt/sda5/.user/root/src/openwatcom-1.9/bld/gui/ui/c/guifdlg.c
                guifdlg_TEXT          CODE           0008:a6d0        000018df
                CONST                 DATA           000a:008a        0000000f
                CONST2                DATA           000a:0244        00000000
                _DATA                 DATA           000a:4400        00000139
/mnt/sda5/.user/root/src/openwatcom-1.9/bld/gui/ui/c/guixscal.c
                guixscal_TEXT         CODE           0008:bfb0        000001d4
                CONST                 DATA           000a:009a        00000000
                CONST2                DATA           000a:0244        00000000
                _DATA                 DATA           000a:453a        00000000
/mnt/sda5/.user/root/src/openwatcom-1.9/bld/help/c/helpopen.c
                helpopen_TEXT         CODE           0008:c190        0000052d
                CONST                 DATA           000a:009a        00000005
                CONST2                DATA           000a:0244        00000000
                _DATA                 DATA           000a:453a        00000064
                _BSS                  BSS            000a:89d0        00000004
/mnt/sda5/.user/root/src/openwatcom-1.9/bld/help/c/help.c
                help_TEXT             CODE           0008:c6c0        000025be
                CONST                 DATA           000a:00a0        00000068
                CONST2                DATA           000a:0244        00000000
                _DATA                 DATA           000a:45a0        00000114
                _BSS                  BSS            000a:89e0        000000eb
/mnt/sda5/.user/root/src/openwatcom-1.9/bld/gui/ui/c/guithumb.c
                guithumb_TEXT         CODE           0008:ec80        00000154
                CONST                 DATA           000a:0108        00000000
                CONST2                DATA           000a:0244        00000000
                _DATA                 DATA           000a:46b4        00000000
/mnt/sda5/.user/root/src/openwatcom-1.9/bld/gui/ui/c/guigscrl.c
                guigscrl_TEXT         CODE           0008:ede0        000000d7
                CONST                 DATA           000a:0108        00000000
                CONST2                DATA           000a:0244        00000000
                _DATA                 DATA           000a:46b4        00000000
/mnt/sda5/.user/root/src/openwatcom-1.9/bld/gui/ui/c/guiximdi.c
                guiximdi_TEXT         CODE           0008:eec0        0000009d
                CONST                 DATA           000a:0108        00000000
                CONST2                DATA           000a:0244        00000000
                _DATA                 DATA           000a:46b4        00000000
/mnt/sda5/.user/root/src/openwatcom-1.9/bld/gui/c/guimdi.c
                guimdi_TEXT           CODE           0008:ef60        00000b23
                CONST                 DATA           000a:0108        00000001
                CONST2                DATA           000a:0244        00000000
                _DATA                 DATA           000a:46c0        00000038
                _BSS                  BSS            000a:8ad0        000002f4
/mnt/sda5/.user/root/src/openwatcom-1.9/bld/gui/ui/c/guifloat.c
                guifloat_TEXT         CODE           0009:0000        00000611
                CONST                 DATA           000a:010a        00000000
                CONST2                DATA           000a:0244        00000000
                _DATA                 DATA           000a:4700        0000000c
/mnt/sda5/.user/root/src/openwatcom-1.9/bld/gui/c/guihint.c
                guihint_TEXT          CODE           0009:0620        0000082a
                CONST                 DATA           000a:010a        00000000
                CONST2                DATA           000a:0244        00000000
                _DATA                 DATA           000a:470c        00000000
/mnt/sda5/.user/root/src/openwatcom-1.9/bld/gui/ui/c/guisysme.c
                guisysme_TEXT         CODE           0009:0e50        00000285
                CONST                 DATA           000a:010a        00000000
                CONST2                DATA           000a:0244        00000000
                _DATA                 DATA           000a:470c        00000054
/mnt/sda5/.user/root/src/openwatcom-1.9/bld/gui/ui/c/guirmenu.c
                guirmenu_TEXT         CODE           0009:10e0        00000961
                CONST                 DATA           000a:010a        00000000
                CONST2                DATA           000a:0244        00000000
                _DATA                 DATA           000a:4760        00000000
/mnt/sda5/.user/root/src/openwatcom-1.9/bld/ui/c/uivstr.c
                uivstr_TEXT           CODE           0009:1a41        000001af
                CONST                 DATA           000a:010a        00000000
                CONST2                DATA           000a:0244        00000000
                _DATA                 DATA           000a:4760        00000000
/mnt/sda5/.user/root/src/openwatcom-1.9/bld/gui/ui/c/guigadgt.c
                guigadgt_TEXT         CODE           0009:1bf0        000005c4
                CONST                 DATA           000a:010a        00000000
                CONST2                DATA           000a:0244        00000000
                _DATA                 DATA           000a:4760        00000002
/mnt/sda5/.user/root/src/openwatcom-1.9/bld/ui/c/uivfill.c
                uivfill_TEXT          CODE           0009:21b4        0000008b
                CONST                 DATA           000a:010a        00000000
                CONST2                DATA           000a:0244        00000000
                _DATA                 DATA           000a:4762        00000000
/mnt/sda5/.user/root/src/openwatcom-1.9/bld/gui/ui/c/guiicon.c
                guiicon_TEXT          CODE           0009:2240        0000010c
                CONST                 DATA           000a:010a        00000000
                CONST2                DATA           000a:0244        00000000
                _DATA                 DATA           000a:4762        00000000
/mnt/sda5/.user/root/src/openwatcom-1.9/bld/ui/c/uimget.c
                uimget_TEXT           CODE           0009:234c        0000002e
                CONST                 DATA           000a:010a        00000000
                CONST2                DATA           000a:0244        00000000
                _DATA                 DATA           000a:4762        00000000
/mnt/sda5/.user/root/src/openwatcom-1.9/bld/gui/ui/c/guiuiev.c
                guiuiev_TEXT          CODE           0009:2380        00000001
                CONST                 DATA           000a:010a        00000000
                CONST2                DATA           000a:0244        00000000
                _DATA                 DATA           000a:4762        00000000
/mnt/sda5/.user/root/src/openwatcom-1.9/bld/gui/c/guiev.c
                guiev_TEXT            CODE           0009:2390        00000001
                CONST                 DATA           000a:010a        00000000
                CONST2                DATA           000a:0244        00000000
                _DATA                 DATA           000a:4762        00000000
/mnt/sda5/.user/root/src/openwatcom-1.9/bld/gui/c/guistr.c
                guistr_TEXT           CODE           0009:23a0        00000743
                CONST                 DATA           000a:010a        00000000
                CONST2                DATA           000a:0244        00000000
                _DATA                 DATA           000a:4762        00000000
                _BSS                  BSS            000a:8dc4        00000080
/mnt/sda5/.user/root/src/openwatcom-1.9/bld/gui/c/guideath.c
                guideath_TEXT         CODE           0009:2af0        00000004
                CONST                 DATA           000a:010a        00000000
                CONST2                DATA           000a:0244        00000000
                _DATA                 DATA           000a:4762        00000000
/mnt/sda5/.user/root/src/openwatcom-1.9/bld/gui/c/guiextnm.c
                guiextnm_TEXT         CODE           0009:2b00        0000006e
                CONST                 DATA           000a:010a        00000000
                CONST2                DATA           000a:0244        00000000
                _DATA                 DATA           000a:4762        00000090
/mnt/sda5/.user/root/src/openwatcom-1.9/bld/gui/c/guidead.c
                guidead_TEXT          CODE           0009:2b70        00000004
                CONST                 DATA           000a:010a        00000000
                CONST2                DATA           000a:0244        00000000
                _DATA                 DATA           000a:47f2        00000000
/mnt/sda5/.user/root/src/openwatcom-1.9/bld/gui/ui/c/guixmain.c
                guixmain_TEXT         CODE           0009:2b80        00000019
                CONST                 DATA           000a:010a        00000000
                CONST2                DATA           000a:0244        00000000
                _DATA                 DATA           000a:47f2        00000001
/mnt/sda5/.user/root/src/openwatcom-1.9/bld/gui/c/guifcrck.c
                guifcrck_TEXT         CODE           0009:2ba0        00000003
                CONST                 DATA           000a:010a        00000000
                CONST2                DATA           000a:0244        00000000
                _DATA                 DATA           000a:47f4        00000000
/mnt/sda5/.user/root/src/openwatcom-1.9/bld/ui/c/uivopen.c
                uivopen_TEXT          CODE           0009:2ba3        0000050f
                CONST                 DATA           000a:010a        00000000
                CONST2                DATA           000a:0244        00000000
                _DATA                 DATA           000a:47f4        00000000
/mnt/sda5/.user/root/src/openwatcom-1.9/bld/ui/c/uivhide.c
                uivhide_TEXT          CODE           0009:30b2        0000005c
                CONST                 DATA           000a:010a        00000000
                CONST2                DATA           000a:0244        00000000
                _DATA                 DATA           000a:47f4        00000000
/mnt/sda5/.user/root/src/openwatcom-1.9/bld/ui/win/c/uibmous.c
                uibmous_TEXT          CODE           0009:310e        000000cd
                CONST                 DATA           000a:010a        00000000
                CONST2                DATA           000a:0244        00000000
                _DATA                 DATA           000a:47f4        00000003
                _BSS                  BSS            000a:8e44        00000003
/mnt/sda5/.user/root/src/openwatcom-1.9/bld/ui/c/uivscrn.c
                uivscrn_TEXT          CODE           0009:31db        0000010b
                CONST                 DATA           000a:010a        00000000
                CONST2                DATA           000a:0244        00000000
                _DATA                 DATA           000a:47f8        00000000
calloc.c        _TEXT                 CODE           0006:44de        00000045
                CONST                 DATA           000a:010a        00000000
                CONST2                DATA           000a:0244        00000000
                _DATA                 DATA           000a:47f8        00000000
/mnt/sda5/.user/root/src/openwatcom-1.9/bld/ui/c/uibfill.c
                uibfill_TEXT          CODE           0009:32e6        00000048
                CONST                 DATA           000a:010a        00000000
                CONST2                DATA           000a:0244        00000000
                _DATA                 DATA           000a:47f8        00000000
/mnt/sda5/.user/root/src/openwatcom-1.9/bld/ui/c/uibcopy.c
                uibcopy_TEXT          CODE           0009:332e        0000006d
                CONST                 DATA           000a:010a        00000000
                CONST2                DATA           000a:0244        00000000
                _DATA                 DATA           000a:47f8        00000000
/mnt/sda5/.user/root/src/openwatcom-1.9/bld/ui/c/uiwin.c
                uiwin_TEXT            CODE           0009:339b        00000323
                CONST                 DATA           000a:010a        00000000
                CONST2                DATA           000a:0244        00000000
                _DATA                 DATA           000a:47f8        00000000
/mnt/sda5/.user/root/src/openwatcom-1.9/bld/ui/c/uiballoc.c
                uiballoc_TEXT         CODE           0009:36be        0000007d
                CONST                 DATA           000a:010a        00000000
                CONST2                DATA           000a:0244        00000000
                _DATA                 DATA           000a:47f8        00000000
/mnt/sda5/.user/root/src/openwatcom-1.9/bld/gui/c/guisetup.c
                guisetup_TEXT         CODE           0009:3740        00000087
                CONST                 DATA           000a:010a        00000000
                CONST2                DATA           000a:0244        00000000
                _DATA                 DATA           000a:47f8        00000000
/mnt/sda5/.user/root/src/openwatcom-1.9/bld/gui/ui/c/guidrawt.c
                guidrawt_TEXT         CODE           0009:37d0        0000039b
                CONST                 DATA           000a:010a        00000000
                CONST2                DATA           000a:0244        00000000
                _DATA                 DATA           000a:47f8        00000000
/mnt/sda5/.user/root/src/openwatcom-1.9/bld/ui/c/uivmove.c
                uivmove_TEXT          CODE           0009:3b6b        0000016e
                CONST                 DATA           000a:010a        00000000
                CONST2                DATA           000a:0244        00000000
                _DATA                 DATA           000a:47f8        00000000
strcspn.c       _TEXT                 CODE           0006:4523        00000052
                CONST                 DATA           000a:010a        00000000
                CONST2                DATA           000a:0244        00000000
                _DATA                 DATA           000a:47f8        00000000
strnset.c       _TEXT                 CODE           0006:4575        00000024
                CONST                 DATA           000a:010a        00000000
                CONST2                DATA           000a:0244        00000000
                _DATA                 DATA           000a:47f8        00000000
write.c         _TEXT                 CODE           0006:4599        00000377
                CONST                 DATA           000a:010a        00000000
                CONST2                DATA           000a:0244        00000000
                _DATA                 DATA           000a:47f8        00000000
tell.c          _TEXT                 CODE           0006:4910        00000017
                CONST                 DATA           000a:010a        00000000
                CONST2                DATA           000a:0244        00000000
                _DATA                 DATA           000a:47f8        00000000
loadfind.c      loadfind_TEXT         CODE           0009:3ce0        00000125
                CONST                 DATA           000a:010a        00000018
                CONST2                DATA           000a:0244        00000000
                _DATA                 DATA           000a:4800        00000004
loadstr.c       loadstr_TEXT          CODE           0009:3e10        00000313
                CONST                 DATA           000a:0122        00000000
                CONST2                DATA           000a:0244        00000000
                _DATA                 DATA           000a:4804        00000000
                _BSS                  BSS            000a:8e50        00000004
iob.c           _TEXT                 CODE           0006:4927        00000000
                CONST                 DATA           000a:0122        00000000
                CONST2                DATA           000a:0244        00000000
                _DATA                 DATA           000a:4804        0000016a
                _BSS                  BSS            000a:8e54        00000008
                XIB                   DATA           000a:4e80        00000000
                XI                    DATA           000a:4e86        00000006
                XIE                   DATA           000a:4eb6        00000000
                YIB                   DATA           000a:4eb6        00000000
                YI                    DATA           000a:4ebc        00000006
                YIE                   DATA           000a:4ed4        00000000
loadres.c       loadres_TEXT          CODE           0009:4130        0000019d
                CONST                 DATA           000a:0122        00000000
                CONST2                DATA           000a:0244        00000000
                _DATA                 DATA           000a:496e        00000000
mbisdbcs.c      _TEXT                 CODE           0006:4927        00000000
                CONST                 DATA           000a:0122        00000000
                CONST2                DATA           000a:0244        00000000
                _DATA                 DATA           000a:496e        00000000
                _BSS                  BSS            000a:8e5c        00000002
mbislead.c      _TEXT                 CODE           0006:4927        0000001e
                CONST                 DATA           000a:0122        00000000
                CONST2                DATA           000a:0244        00000000
                _DATA                 DATA           000a:496e        00000000
                _BSS                  BSS            000a:8e5e        00000101
                XIB                   DATA           000a:4e80        00000000
                XI                    DATA           000a:4e8c        00000006
                XIE                   DATA           000a:4eb6        00000000
nonibm.c        _TEXT                 CODE           0006:4945        00000049
                CONST                 DATA           000a:0122        00000000
                CONST2                DATA           000a:0244        00000000
                _DATA                 DATA           000a:496e        00000002
                XIB                   DATA           000a:4e80        00000000
                XI                    DATA           000a:4e92        00000006
                XIE                   DATA           000a:4eb6        00000000
/mnt/sda5/.user/root/src/openwatcom-1.9/bld/ui/c/uibox.c
                uibox_TEXT            CODE           0009:42cd        0000034b
                CONST                 DATA           000a:0122        00000000
                CONST2                DATA           000a:0244        00000000
                _DATA                 DATA           000a:4970        00000000
/mnt/sda5/.user/root/src/openwatcom-1.9/bld/ui/c/uibstr.c
                uibstr_TEXT           CODE           0009:4618        0000008c
                CONST                 DATA           000a:0122        00000000
                CONST2                DATA           000a:0244        00000000
                _DATA                 DATA           000a:4970        00000000
/mnt/sda5/.user/root/src/openwatcom-1.9/bld/ui/c/uipopup.c
                uipopup_TEXT          CODE           0009:46a4        00000c88
                CONST                 DATA           000a:0122        00000000
                CONST2                DATA           000a:0244        00000000
                _DATA                 DATA           000a:4970        0000003c
/mnt/sda5/.user/root/src/openwatcom-1.9/bld/ui/c/uivutil.c
                uivutil_TEXT          CODE           0009:532c        0000004f
                CONST                 DATA           000a:0122        00000000
                CONST2                DATA           000a:0244        00000000
                _DATA                 DATA           000a:49ac        00000000
/mnt/sda5/.user/root/src/openwatcom-1.9/bld/gui/ui/c/uimenucr.c
                uimenucr_TEXT         CODE           0009:5380        0000000c
                CONST                 DATA           000a:0122        00000000
                CONST2                DATA           000a:0244        00000000
                _DATA                 DATA           000a:49ac        00000000
/mnt/sda5/.user/root/src/openwatcom-1.9/bld/ui/c/uipget.c
                uipget_TEXT           CODE           0009:538c        0000005d
                CONST                 DATA           000a:0122        00000000
                CONST2                DATA           000a:0244        00000000
                _DATA                 DATA           000a:49ac        00000000
                _BSS                  BSS            000a:8f60        00000002
/mnt/sda5/.user/root/src/openwatcom-1.9/bld/ui/c/uiprot.c
                uiprot_TEXT           CODE           0009:53e9        00000069
                CONST                 DATA           000a:0122        00000000
                CONST2                DATA           000a:0244        00000000
                _DATA                 DATA           000a:49ac        00000000
/mnt/sda5/.user/root/src/openwatcom-1.9/bld/ui/c/uiledit.c
                uiledit_TEXT          CODE           0009:5452        00000591
                CONST                 DATA           000a:0122        00000000
                CONST2                DATA           000a:0244        00000000
                _DATA                 DATA           000a:49ac        00000010
/mnt/sda5/.user/root/src/openwatcom-1.9/bld/ui/c/uimisc.c
                uimisc_TEXT           CODE           0009:59e3        00000255
                CONST                 DATA           000a:0122        00000000
                CONST2                DATA           000a:0244        00000000
                _DATA                 DATA           000a:49bc        00000000
/mnt/sda5/.user/root/src/openwatcom-1.9/bld/ui/c/uilstbox.c
                uilstbox_TEXT         CODE           0009:5c38        00000b52
                CONST                 DATA           000a:0122        00000001
                CONST2                DATA           000a:0244        00000000
                _DATA                 DATA           000a:49bc        00000028
/mnt/sda5/.user/root/src/openwatcom-1.9/bld/ui/c/uihotspt.c
                uihotspt_TEXT         CODE           0009:678a        000006ee
                CONST                 DATA           000a:0124        00000000
                CONST2                DATA           000a:0244        00000000
                _DATA                 DATA           000a:49e4        00000004
strncat.c       _TEXT                 CODE           0006:498e        00000041
                CONST                 DATA           000a:0124        00000000
                CONST2                DATA           000a:0244        00000000
                _DATA                 DATA           000a:49e8        00000000
/mnt/sda5/.user/root/src/openwatcom-1.9/bld/gui/ui/c/uidchfld.c
                uidchfld_TEXT         CODE           0009:6e80        0000000c
                CONST                 DATA           000a:0124        00000000
                CONST2                DATA           000a:0244        00000000
                _DATA                 DATA           000a:49e8        00000000
/mnt/sda5/.user/root/src/openwatcom-1.9/bld/ui/c/uidevent.c
                uidevent_TEXT         CODE           0009:6e8c        0000000c
                CONST                 DATA           000a:0124        00000000
                CONST2                DATA           000a:0244        00000000
                _DATA                 DATA           000a:49e8        00000000
/mnt/sda5/.user/root/src/openwatcom-1.9/bld/help/c/dialcb.c
                dialcb_TEXT           CODE           0009:6ea0        0000000e
                CONST                 DATA           000a:0124        00000000
                CONST2                DATA           000a:0244        00000000
                _DATA                 DATA           000a:49e8        00000000
strncmp.c       _TEXT                 CODE           0006:49cf        00000042
                CONST                 DATA           000a:0124        00000000
                CONST2                DATA           000a:0244        00000000
                _DATA                 DATA           000a:49e8        00000000
/mnt/sda5/.user/root/src/openwatcom-1.9/bld/gui/ui/c/guimapky.c
                guimapky_TEXT         CODE           0009:6eb0        00000390
                CONST                 DATA           000a:0124        00000000
                CONST2                DATA           000a:0244        00000000
                _DATA                 DATA           000a:49e8        00000000
/mnt/sda5/.user/root/src/openwatcom-1.9/bld/gui/ui/c/guismove.c
                guismove_TEXT         CODE           0009:7240        00000461
                CONST                 DATA           000a:0124        00000000
                CONST2                DATA           000a:0244        00000000
                _DATA                 DATA           000a:49f0        0000000c
                _BSS                  BSS            000a:8f62        00000001
/mnt/sda5/.user/root/src/openwatcom-1.9/bld/gui/ui/c/guikey.c
                guikey_TEXT           CODE           0009:76b0        000000ca
                CONST                 DATA           000a:0124        00000000
                CONST2                DATA           000a:0244        00000000
                _DATA                 DATA           000a:49fc        00000000
/mnt/sda5/.user/root/src/openwatcom-1.9/bld/gui/ui/c/guixhook.c
                guixhook_TEXT         CODE           0009:7780        0000002e
                CONST                 DATA           000a:0124        00000000
                CONST2                DATA           000a:0244        00000000
                _DATA                 DATA           000a:4a00        00000004
dosdrive        _TEXT                 CODE           0006:4a12        0000002a
                _DATA                 DATA           000a:4a04        00000000
chdir.c         _TEXT                 CODE           0006:4a3c        0000001c
                CONST                 DATA           000a:0124        00000000
                CONST2                DATA           000a:0244        00000000
                _DATA                 DATA           000a:4a04        00000000
_istrcc_.asm    _TEXT                 CODE           0006:4a58        00000005
                _DATA                 DATA           000a:4a04        00000000
strtok.c        _TEXT                 CODE           0006:4a5d        000000bb
                CONST                 DATA           000a:0124        00000000
                CONST2                DATA           000a:0244        00000000
                _DATA                 DATA           000a:4a04        00000004
gtcwd.c         _TEXT                 CODE           0006:4b18        000000b4
                CONST                 DATA           000a:0124        00000000
                CONST2                DATA           000a:0244        00000000
                _DATA                 DATA           000a:4a08        00000000
dir.c           _TEXT                 CODE           0006:4bcc        0000030f
                CONST                 DATA           000a:0124        00000004
                CONST2                DATA           000a:0244        00000000
                _DATA                 DATA           000a:4a08        00000000
stat.c          _TEXT                 CODE           0006:4edb        0000037b
                CONST                 DATA           000a:0128        0000000b
                CONST2                DATA           000a:0244        00000000
                _DATA                 DATA           000a:4a08        00000000
/mnt/sda5/.user/root/src/openwatcom-1.9/bld/gui/ui/c/helpmem.c
                helpmem_TEXT          CODE           0009:77b0        00000024
                CONST                 DATA           000a:0134        00000000
                CONST2                DATA           000a:0244        00000000
                _DATA                 DATA           000a:4a08        00000000
splitpat.c      _TEXT                 CODE           0006:5256        00000168
                CONST                 DATA           000a:0134        00000000
                CONST2                DATA           000a:0244        00000000
                _DATA                 DATA           000a:4a08        00000000
/mnt/sda5/.user/root/src/openwatcom-1.9/bld/help/c/search.c
                search_TEXT           CODE           0009:77e0        0000084d
                CONST                 DATA           000a:0134        00000012
                CONST2                DATA           000a:0244        00000000
                _DATA                 DATA           000a:4a08        00000002
                _BSS                  BSS            000a:8f70        0000040c
/mnt/sda5/.user/root/src/openwatcom-1.9/bld/ui/c/uivattr.c
                uivattr_TEXT          CODE           0009:802d        000000c4
                CONST                 DATA           000a:0146        00000000
                CONST2                DATA           000a:0244        00000000
                _DATA                 DATA           000a:4a0a        00000000
/mnt/sda5/.user/root/src/openwatcom-1.9/bld/ui/c/uitab.c
                uitab_TEXT            CODE           0009:80f1        00000536
                CONST                 DATA           000a:0146        00000000
                CONST2                DATA           000a:0244        00000000
                _DATA                 DATA           000a:4a0a        00000000
/mnt/sda5/.user/root/src/openwatcom-1.9/bld/help/c/dlg.c
                dlg_TEXT              CODE           0009:8630        0000047c
                CONST                 DATA           000a:0146        00000012
                CONST2                DATA           000a:0244        00000000
                _DATA                 DATA           000a:4a10        0000006c
                _BSS                  BSS            000a:9380        00000012
/mnt/sda5/.user/root/src/openwatcom-1.9/bld/help/c/helpscan.c
                helpscan_TEXT         CODE           0009:8ab0        00000455
                CONST                 DATA           000a:0158        00000000
                CONST2                DATA           000a:0244        00000000
                _DATA                 DATA           000a:4a7c        00000011
atoi.c          _TEXT                 CODE           0006:53be        0000005c
                CONST                 DATA           000a:0158        00000000
                CONST2                DATA           000a:0244        00000000
                _DATA                 DATA           000a:4a8e        00000000
/mnt/sda5/.user/root/src/openwatcom-1.9/bld/help/c/vvscroll.c
                vvscroll_TEXT         CODE           0009:8f10        000000ec
                CONST                 DATA           000a:0158        00000000
                CONST2                DATA           000a:0244        00000000
                _DATA                 DATA           000a:4a8e        00000000
/mnt/sda5/.user/root/src/openwatcom-1.9/bld/help/c/msgbox.c
                msgbox_TEXT           CODE           0009:9000        00000069
                CONST                 DATA           000a:0158        00000003
                CONST2                DATA           000a:0244        00000000
                _DATA                 DATA           000a:4a8e        00000038
                _BSS                  BSS            000a:93a0        00000004
itoa.c          _TEXT                 CODE           0006:541a        0000008b
                CONST                 DATA           000a:015c        00000000
                CONST2                DATA           000a:0244        00000000
                _DATA                 DATA           000a:4ac6        00000000
/mnt/sda5/.user/root/src/openwatcom-1.9/bld/gui/ui/c/guienum.c
                guienum_TEXT          CODE           0009:9070        0000006e
                CONST                 DATA           000a:015c        00000000
                CONST2                DATA           000a:0244        00000000
                _DATA                 DATA           000a:4ac6        00000000
resmenu.c       resmenu_TEXT          CODE           0009:90e0        0000070c
                CONST                 DATA           000a:015c        00000000
                CONST2                DATA           000a:0244        00000000
                _DATA                 DATA           000a:4ac6        00000000
/mnt/sda5/.user/root/src/openwatcom-1.9/bld/ui/c/uicheck.c
                uicheck_TEXT          CODE           0009:97ec        000000cb
                CONST                 DATA           000a:015c        00000000
                CONST2                DATA           000a:0244        00000000
                _DATA                 DATA           000a:4ac6        00000000
argcv.c         _TEXT                 CODE           0006:54a5        00000000
                CONST                 DATA           000a:015c        00000000
                CONST2                DATA           000a:0244        00000000
                _DATA                 DATA           000a:4ac6        00000000
                _BSS                  BSS            000a:93a4        0000000c
                XIB                   DATA           000a:4e80        00000000
                XI                    DATA           000a:4e98        00000006
                XIE                   DATA           000a:4eb6        00000000
                YIB                   DATA           000a:4eb6        00000000
                YI                    DATA           000a:4ec2        00000006
                YIE                   DATA           000a:4ed4        00000000
wstart          _TEXT                 CODE           0006:54a6        000000f4
                _DATA                 DATA           000a:4ac6        000000b4
                XIB                   DATA           000a:4e80        00000000
                XI                    DATA           000a:4e9e        00000000
                XIE                   DATA           000a:4eb6        00000000
                YIB                   DATA           000a:4eb6        00000000
                YI                    DATA           000a:4ec8        00000000
                YIE                   DATA           000a:4ed4        00000000
                FAR_DATA              FAR_DATA       000a:0000        00000000
                _NULL                 BEGDATA        000a:0000        00000010
                AFX_NULL              BEGDATA        000a:0010        00000000
                CONST                 DATA           000a:015c        00000000
                STRINGS               DATA           000a:4ed4        00000000
                DATA                  DATA           000a:4ed4        00000000
                BCSD                  DATA           000a:4ed4        00000000
                _BSS                  BSS            000a:93b0        00000000
                STACK                 STACK          000a:9610        00000000
/mnt/sda5/.user/root/src/openwatcom-1.9/bld/ui/c/uibfake.c
                uibfake_TEXT          CODE           0009:98b7        00000052
                CONST                 DATA           000a:015c        00000000
                CONST2                DATA           000a:0244        00000000
                _DATA                 DATA           000a:4b7a        00000000
/mnt/sda5/.user/root/src/openwatcom-1.9/bld/ui/win/c/uisnow.c
                uisnow_TEXT           CODE           0009:9909        00000054
                CONST                 DATA           000a:015c        00000000
                CONST2                DATA           000a:0244        00000000
                _DATA                 DATA           000a:4b7a        00000000
/mnt/sda5/.user/root/src/openwatcom-1.9/bld/ui/c/uifar.c
                uifar_TEXT            CODE           0009:995d        0000022c
                CONST                 DATA           000a:015c        00000000
                CONST2                DATA           000a:0244        00000000
                _DATA                 DATA           000a:4b7a        00000000
/mnt/sda5/.user/root/src/openwatcom-1.9/bld/ui/c/uimem.c
                uimem_TEXT            CODE           0009:9b89        00000018
                CONST                 DATA           000a:015c        00000000
                CONST2                DATA           000a:0244        00000000
                _DATA                 DATA           000a:4b7a        00000000
setbits.c       _TEXT                 CODE           0006:559a        00000054
                CONST                 DATA           000a:015c        00000000
                CONST2                DATA           000a:0244        00000000
                _DATA                 DATA           000a:4b7a        00000000
bits.c          _TEXT                 CODE           0006:55ee        00000000
                CONST                 DATA           000a:015c        00000000
                CONST2                DATA           000a:0244        00000008
                _DATA                 DATA           000a:4b7a        00000000
__lseek.c       _TEXT                 CODE           0006:55ee        0000003d
                CONST                 DATA           000a:015c        00000000
                CONST2                DATA           000a:024c        00000000
                _DATA                 DATA           000a:4b7a        00000000
winrtns.c       _TEXT                 CODE           0006:562b        00000000
                CONST                 DATA           000a:015c        00000000
                CONST2                DATA           000a:024c        00000000
                _DATA                 DATA           000a:4b7a        00000044
dosret.c        _TEXT                 CODE           0006:562b        00000091
                CONST                 DATA           000a:015c        00000000
                CONST2                DATA           000a:024c        00000000
                _DATA                 DATA           000a:4bbe        00000014
seterrno.c      _TEXT                 CODE           0006:56bc        00000071
                CONST                 DATA           000a:015c        00000000
                CONST2                DATA           000a:024c        00000000
                _DATA                 DATA           000a:4bd2        00000000
iomode.c        _TEXT                 CODE           0006:572d        00000036
                CONST                 DATA           000a:015c        00000000
                CONST2                DATA           000a:024c        00000000
                _DATA                 DATA           000a:4bd2        0000002e
stk             _TEXT                 CODE           0006:5764        00000039
                _DATA                 DATA           000a:4c00        00000002
                XIB                   DATA           000a:4e80        00000000
                XI                    DATA           000a:4e9e        00000006
                XIE                   DATA           000a:4eb6        00000000
                YIB                   DATA           000a:4eb6        00000000
                YI                    DATA           000a:4ec8        00000000
                YIE                   DATA           000a:4ed4        00000000
wriidfn.c       wriidfn_TEXT          CODE           0009:9bb0        00000009
                CONST                 DATA           000a:015c        00000000
                CONST2                DATA           000a:024c        00000000
                _DATA                 DATA           000a:4c02        00000000
wrfindrs.c      wrfindrs_TEXT         CODE           0009:9bc0        000001bf
                CONST                 DATA           000a:015c        00000000
                CONST2                DATA           000a:024c        00000000
                _DATA                 DATA           000a:4c02        00000000
wrgetli.c       wrgetli_TEXT          CODE           0009:9d80        0000004e
                CONST                 DATA           000a:015c        00000000
                CONST2                DATA           000a:024c        00000000
                _DATA                 DATA           000a:4c02        00000000
ropenfro.c      ropenfro_TEXT         CODE           0009:9dd0        0000002d
                CONST                 DATA           000a:015c        00000000
                CONST2                DATA           000a:024c        00000000
                _DATA                 DATA           000a:4c02        00000000
wrinitdi.c      wrinitdi_TEXT         CODE           0009:9e00        00000054
                CONST                 DATA           000a:015c        00000000
                CONST2                DATA           000a:024c        00000000
                _DATA                 DATA           000a:4c02        00000000
wrreaddi.c      wrreaddi_TEXT         CODE           0009:9e60        00000905
                CONST                 DATA           000a:015c        00000000
                CONST2                DATA           000a:024c        00000000
                _DATA                 DATA           000a:4c02        00000000
wrfreedi.c      wrfreedi_TEXT         CODE           0009:a770        00000169
                CONST                 DATA           000a:015c        00000000
                CONST2                DATA           000a:024c        00000000
                _DATA                 DATA           000a:4c02        00000000
rclosef.c       rclosef_TEXT          CODE           0009:a8e0        0000001d
                CONST                 DATA           000a:015c        00000000
                CONST2                DATA           000a:024c        00000000
                _DATA                 DATA           000a:4c02        00000000
initfile.c      _TEXT                 CODE           0006:579d        000000cb
                CONST                 DATA           000a:015c        0000002e
                CONST2                DATA           000a:024c        00000000
                _DATA                 DATA           000a:4c02        00000000
ioexit.c        _TEXT                 CODE           0006:5868        0000009b
                CONST                 DATA           000a:018a        00000000
                CONST2                DATA           000a:024c        00000000
                _DATA                 DATA           000a:4c02        00000000
mbinit.c        _TEXT                 CODE           0006:5903        000000d2
                CONST                 DATA           000a:018a        00000000
                CONST2                DATA           000a:024c        00000000
                _DATA                 DATA           000a:4c02        00000002
/mnt/sda5/.user/root/src/openwatcom-1.9/bld/ui/c/uibpix.c
                uibpix_TEXT           CODE           0009:a8fd        0000004f
                CONST                 DATA           000a:018a        00000000
                CONST2                DATA           000a:024c        00000000
                _DATA                 DATA           000a:4c04        00000000
/mnt/sda5/.user/root/src/openwatcom-1.9/bld/ui/c/uivline.c
                uivline_TEXT          CODE           0009:a94c        0000046d
                CONST                 DATA           000a:018a        00000000
                CONST2                DATA           000a:024c        00000000
                _DATA                 DATA           000a:4c04        00000016
/mnt/sda5/.user/root/src/openwatcom-1.9/bld/ui/c/uiband.c
                uiband_TEXT           CODE           0009:adb9        000000e4
                CONST                 DATA           000a:018a        00000000
                CONST2                DATA           000a:024c        00000000
                _DATA                 DATA           000a:4c1a        00000000
                _BSS                  BSS            000a:93b0        00000025
doserror        _TEXT                 CODE           0006:59d6        0000000e
                _DATA                 DATA           000a:4c1a        00000000
mbsnextc.c      _TEXT                 CODE           0006:59e4        0000002c
                CONST                 DATA           000a:018a        00000000
                CONST2                DATA           000a:024c        00000000
                _DATA                 DATA           000a:4c1a        00000000
mbsinc.c        _TEXT                 CODE           0006:5a10        00000035
                CONST                 DATA           000a:018a        00000000
                CONST2                DATA           000a:024c        00000000
                _DATA                 DATA           000a:4c1a        00000000
finddos.c       _TEXT                 CODE           0006:5a45        00000051
                CONST                 DATA           000a:018a        00000000
                CONST2                DATA           000a:024c        00000000
                _DATA                 DATA           000a:4c1a        00000000
strdup.c        _TEXT                 CODE           0006:5a96        0000005c
                CONST                 DATA           000a:018a        00000000
                CONST2                DATA           000a:024c        00000000
                _DATA                 DATA           000a:4c1a        00000000
mbschr.c        _TEXT                 CODE           0006:5af2        00000089
                CONST                 DATA           000a:018a        00000000
                CONST2                DATA           000a:024c        00000000
                _DATA                 DATA           000a:4c1a        00000000
mbscmp.c        _TEXT                 CODE           0006:5b7b        0000009e
                CONST                 DATA           000a:018a        00000000
                CONST2                DATA           000a:024c        00000000
                _DATA                 DATA           000a:4c1a        00000000
mbspbrk.c       _TEXT                 CODE           0006:5c19        0000005b
                CONST                 DATA           000a:018a        00000000
                CONST2                DATA           000a:024c        00000000
                _DATA                 DATA           000a:4c1a        00000000
fullpath.c      _TEXT                 CODE           0006:5c74        00000375
                CONST                 DATA           000a:018a        00000000
                CONST2                DATA           000a:024c        00000000
                _DATA                 DATA           000a:4c1a        00000000
fstat.c         _TEXT                 CODE           0006:5fe9        0000017a
                CONST                 DATA           000a:018a        00000000
                CONST2                DATA           000a:024c        00000000
                _DATA                 DATA           000a:4c1a        00000000
errno.c         _TEXT                 CODE           0006:6163        0000000c
                CONST                 DATA           000a:018a        00000000
                CONST2                DATA           000a:024c        00000000
                _DATA                 DATA           000a:4c1a        00000000
                _BSS                  BSS            000a:93d6        00000004
d2ttime.c       _TEXT                 CODE           0006:616f        00000070
                CONST                 DATA           000a:018a        00000000
                CONST2                DATA           000a:024c        00000000
                _DATA                 DATA           000a:4c1a        00000000
mbsnccnt.c      _TEXT                 CODE           0006:61df        0000003a
                CONST                 DATA           000a:018a        00000000
                CONST2                DATA           000a:024c        00000000
                _DATA                 DATA           000a:4c1a        00000000
mbsncpy.c       _TEXT                 CODE           0006:6219        00000039
                CONST                 DATA           000a:018a        00000000
                CONST2                DATA           000a:024c        00000000
                _DATA                 DATA           000a:4c1a        00000000
mbsnbcnt.c      _TEXT                 CODE           0006:6252        00000072
                CONST                 DATA           000a:018a        00000000
                CONST2                DATA           000a:024c        00000000
                _DATA                 DATA           000a:4c1a        00000000
/mnt/sda5/.user/root/src/openwatcom-1.9/bld/ui/c/uibattr.c
                uibattr_TEXT          CODE           0009:ae9d        000000c8
                CONST                 DATA           000a:018a        00000000
                CONST2                DATA           000a:024c        00000000
                _DATA                 DATA           000a:4c1a        00000000
alphabet.c      _TEXT                 CODE           0006:62c4        00000000
                CONST                 DATA           000a:018a        00000025
                CONST2                DATA           000a:024c        00000000
                _DATA                 DATA           000a:4c1a        00000000
wrerror.c       wrerror_TEXT          CODE           0009:af70        00000001
                CONST                 DATA           000a:01b0        00000000
                CONST2                DATA           000a:024c        00000000
                _DATA                 DATA           000a:4c1a        00000000
write.c         write_TEXT            CODE           0009:af80        000006f1
                CONST                 DATA           000a:01b0        00000001
                CONST2                DATA           000a:024c        00000000
                _DATA                 DATA           000a:4c20        00000004
                _BSS                  BSS            000a:93da        00000200
resseek.c       resseek_TEXT          CODE           0009:b680        000000b1
                CONST                 DATA           000a:01b2        00000000
                CONST2                DATA           000a:024c        00000000
                _DATA                 DATA           000a:4c24        00000000
rduint32.c      rduint32_TEXT         CODE           0009:b740        00000044
                CONST                 DATA           000a:01b2        00000000
                CONST2                DATA           000a:024c        00000000
                _DATA                 DATA           000a:4c24        00000000
rduint16.c      rduint16_TEXT         CODE           0009:b790        00000044
                CONST                 DATA           000a:01b2        00000000
                CONST2                DATA           000a:024c        00000000
                _DATA                 DATA           000a:4c24        00000000
rrdstr.c        rrdstr_TEXT           CODE           0009:b7e0        0000011c
                CONST                 DATA           000a:01b2        00000000
                CONST2                DATA           000a:024c        00000000
                _DATA                 DATA           000a:4c24        00000000
/mnt/sda5/.user/root/src/openwatcom-1.9/bld/ui/c/uibarf.c
                uibarf_TEXT           CODE           0009:b8fc        00000001
                CONST                 DATA           000a:01b2        00000000
                CONST2                DATA           000a:024c        00000000
                _DATA                 DATA           000a:4c24        00000000
initargv.c      _TEXT                 CODE           0006:62c4        0000029c
                CONST                 DATA           000a:01b2        00000000
                CONST2                DATA           000a:024c        00000000
                _DATA                 DATA           000a:4c24        00000000
                _BSS                  BSS            000a:95da        00000004
exit.c          _TEXT                 CODE           0006:6560        0000004d
                CONST                 DATA           000a:01b2        00000000
                CONST2                DATA           000a:024c        00000000
                _DATA                 DATA           000a:4c24        00000008
initrtns.c      _TEXT                 CODE           0006:65ad        00000115
                CONST                 DATA           000a:01b2        00000000
                CONST2                DATA           000a:024c        00000000
                _DATA                 DATA           000a:4c2c        00000000
dosseg          _TEXT                 CODE           0006:66c2        00000001
                _DATA                 DATA           000a:4c2c        00000000
fmemmove.c      _TEXT                 CODE           0006:66c3        00000071
                CONST                 DATA           000a:01b2        00000000
                CONST2                DATA           000a:024c        00000000
                _DATA                 DATA           000a:4c2c        00000000
xmsgwin.c       _TEXT                 CODE           0006:6734        0000007e
                CONST                 DATA           000a:01b2        0000000c
                CONST2                DATA           000a:024c        00000000
                _DATA                 DATA           000a:4c2c        00000000
wridcmp.c       wridcmp_TEXT          CODE           0009:b900        0000003e
                CONST                 DATA           000a:01be        00000000
                CONST2                DATA           000a:024c        00000000
                _DATA                 DATA           000a:4c2c        00000000
setmd.c         _TEXT                 CODE           0006:67b2        000000be
                CONST                 DATA           000a:01be        00000000
                CONST2                DATA           000a:024c        00000000
                _DATA                 DATA           000a:4c2c        00000000
ralliae.c       ralliae_TEXT          CODE           0009:b940        00000085
                CONST                 DATA           000a:01be        00000000
                CONST2                DATA           000a:024c        00000000
                _DATA                 DATA           000a:4c2c        00000000
wrrfrr.c        wrrfrr_TEXT           CODE           0009:b9d0        000000e5
                CONST                 DATA           000a:01be        00000000
                CONST2                DATA           000a:024c        00000000
                _DATA                 DATA           000a:4c2c        00000000
wridexby.c      wridexby_TEXT         CODE           0009:bac0        00000015
                CONST                 DATA           000a:01be        00000000
                CONST2                DATA           000a:024c        00000000
                _DATA                 DATA           000a:4c2c        00000000
wrrewrid.c      wrrewrid_TEXT         CODE           0009:bae0        00000051
                CONST                 DATA           000a:01be        00000000
                CONST2                DATA           000a:024c        00000000
                _DATA                 DATA           000a:4c2c        00000000
wrrftr.c        wrrftr_TEXT           CODE           0009:bb40        000000a5
                CONST                 DATA           000a:01be        00000000
                CONST2                DATA           000a:024c        00000000
                _DATA                 DATA           000a:4c2c        00000000
wrrhr.c         wrrhr_TEXT            CODE           0009:bbf0        000000c3
                CONST                 DATA           000a:01be        00000000
                CONST2                DATA           000a:024c        00000000
                _DATA                 DATA           000a:4c2c        00000000
mrrdrh.c        mrrdrh_TEXT           CODE           0009:bcc0        000002d1
                CONST                 DATA           000a:01be        00000000
                CONST2                DATA           000a:024c        00000000
                _DATA                 DATA           000a:4c2c        00000000
wrfree.c        wrfree_TEXT           CODE           0009:bfa0        0000004e
                CONST                 DATA           000a:01be        00000000
                CONST2                DATA           000a:024c        00000000
                _DATA                 DATA           000a:4c2c        00000000
wridfnoo.c      wridfnoo_TEXT         CODE           0009:bff0        0000001d
                CONST                 DATA           000a:01be        00000000
                CONST2                DATA           000a:024c        00000000
                _DATA                 DATA           000a:4c2c        00000000
wraddres.c      wraddres_TEXT         CODE           0009:c010        000003de
                CONST                 DATA           000a:01be        00000000
                CONST2                DATA           000a:024c        00000000
                _DATA                 DATA           000a:4c2c        00000000
wriswrf.c       wriswrf_TEXT          CODE           0009:c3f0        000000c5
                CONST                 DATA           000a:01be        00000000
                CONST2                DATA           000a:024c        00000000
                _DATA                 DATA           000a:4c2c        00000000
nmalloc.c       _TEXT                 CODE           0006:6870        000000c4
                CONST                 DATA           000a:01be        00000000
                CONST2                DATA           000a:024c        00000000
                _DATA                 DATA           000a:4c2c        00000006
fclose.c        _TEXT                 CODE           0006:6934        00000129
                CONST                 DATA           000a:01be        00000000
                CONST2                DATA           000a:024c        00000000
                _DATA                 DATA           000a:4c32        00000000
                _BSS                  BSS            000a:95de        00000004
freefp.c        _TEXT                 CODE           0006:6a5d        000000b5
                CONST                 DATA           000a:01be        00000000
                CONST2                DATA           000a:024c        00000000
                _DATA                 DATA           000a:4c32        00000000
/mnt/sda5/.user/root/src/openwatcom-1.9/bld/ui/c/uipad.c
                uipad_TEXT            CODE           0009:c4b5        00000022
                CONST                 DATA           000a:01be        00000000
                CONST2                DATA           000a:024c        00000000
                _DATA                 DATA           000a:4c32        00000000
/mnt/sda5/.user/root/src/openwatcom-1.9/bld/ui/c/uivedit.c
                uivedit_TEXT          CODE           0009:c4d7        0000054f
                CONST                 DATA           000a:01be        00000000
                CONST2                DATA           000a:024c        00000000
                _DATA                 DATA           000a:4c32        00000000
mbconv.c        _TEXT                 CODE           0006:6b12        00000018
                CONST                 DATA           000a:01be        00000000
                CONST2                DATA           000a:024c        00000000
                _DATA                 DATA           000a:4c32        00000000
mbclen.c        _TEXT                 CODE           0006:6b2a        00000027
                CONST                 DATA           000a:01be        00000000
                CONST2                DATA           000a:024c        00000000
                _DATA                 DATA           000a:4c32        00000000
mbterm.c        _TEXT                 CODE           0006:6b51        0000003c
                CONST                 DATA           000a:01be        00000000
                CONST2                DATA           000a:024c        00000000
                _DATA                 DATA           000a:4c32        00000000
mbccmp.c        _TEXT                 CODE           0006:6b8d        00000054
                CONST                 DATA           000a:01be        00000000
                CONST2                DATA           000a:024c        00000000
                _DATA                 DATA           000a:4c32        00000000
filelen.c       _TEXT                 CODE           0006:6be1        00000061
                CONST                 DATA           000a:01be        00000000
                CONST2                DATA           000a:024c        00000000
                _DATA                 DATA           000a:4c32        00000000
mktime.c        _TEXT                 CODE           0006:6c42        000000b3
                CONST                 DATA           000a:01be        00000000
                CONST2                DATA           000a:024c        00000000
                _DATA                 DATA           000a:4c32        00000000
mbsnbcpy.c      _TEXT                 CODE           0006:6cf5        0000007e
                CONST                 DATA           000a:01be        00000000
                CONST2                DATA           000a:024c        00000000
                _DATA                 DATA           000a:4c32        00000000
varstr.c        varstr_TEXT           CODE           0009:ca30        00000185
                CONST                 DATA           000a:01be        00000000
                CONST2                DATA           000a:024c        00000000
                _DATA                 DATA           000a:4c32        00000000
rduint8.c       rduint8_TEXT          CODE           0009:cbc0        00000044
                CONST                 DATA           000a:01be        00000000
                CONST2                DATA           000a:024c        00000000
                _DATA                 DATA           000a:4c32        00000000
histsplt.c      _TEXT                 CODE           0006:6d73        00000000
                CONST                 DATA           000a:01be        00000000
                CONST2                DATA           000a:024c        00000000
                _DATA                 DATA           000a:4c32        00000000
                _BSS                  BSS            000a:95e2        00000002
___argc.c       _TEXT                 CODE           0006:6d73        00000000
                CONST                 DATA           000a:01be        00000000
                CONST2                DATA           000a:024c        00000000
                _DATA                 DATA           000a:4c32        00000000
                _BSS                  BSS            000a:95e4        00000006
sgdef086        _TEXT                 CODE           0006:6d74        00000000
                _DATA                 DATA           000a:4c32        00000000
                XIB                   DATA           000a:4e80        00000000
                XI                    DATA           000a:4ea4        00000000
                XIE                   DATA           000a:4eb6        00000000
                YIB                   DATA           000a:4eb6        00000000
                YI                    DATA           000a:4ec8        00000000
                YIE                   DATA           000a:4ed4        00000000
enterdb.c       _TEXT                 CODE           0006:6d74        00000024
                CONST                 DATA           000a:01be        00000000
                CONST2                DATA           000a:024c        00000000
                _DATA                 DATA           000a:4c32        00000001
wridnacm.c      wridnacm_TEXT         CODE           0009:cc10        000000cc
                CONST                 DATA           000a:01be        00000000
                CONST2                DATA           000a:024c        00000000
                _DATA                 DATA           000a:4c34        00000000
stiomode.c      _TEXT                 CODE           0006:6d98        00000147
                CONST                 DATA           000a:01be        00000000
                CONST2                DATA           000a:024c        00000000
                _DATA                 DATA           000a:4c34        00000000
                _BSS                  BSS            000a:95ea        00000002
                YIB                   DATA           000a:4eb6        00000000
                YI                    DATA           000a:4ec8        00000006
                YIE                   DATA           000a:4ed4        00000000
rrnamoor.c      rrnamoor_TEXT         CODE           0009:cce0        00000205
                CONST                 DATA           000a:01be        00000000
                CONST2                DATA           000a:024c        00000000
                _DATA                 DATA           000a:4c34        00000000
wridfrnu.c      wridfrnu_TEXT         CODE           0009:cef0        00000070
                CONST                 DATA           000a:01be        00000000
                CONST2                DATA           000a:024c        00000000
                _DATA                 DATA           000a:4c34        00000000
wridfrst.c      wridfrst_TEXT         CODE           0009:cf60        00000070
                CONST                 DATA           000a:01be        00000000
                CONST2                DATA           000a:024c        00000000
                _DATA                 DATA           000a:4c34        00000000
wrfirres.c      wrfirres_TEXT         CODE           0009:cfd0        000000b9
                CONST                 DATA           000a:01be        00000000
                CONST2                DATA           000a:024c        00000000
                _DATA                 DATA           000a:4c34        00000000
nmemneed.c      _TEXT                 CODE           0006:6edf        00000003
                CONST                 DATA           000a:01be        00000000
                CONST2                DATA           000a:024c        00000000
                _DATA                 DATA           000a:4c34        00000000
mem.c           _TEXT                 CODE           0006:6ef0        0000022d
                CONST                 DATA           000a:01be        00000000
                CONST2                DATA           000a:024c        00000000
                _DATA                 DATA           000a:4c34        00000000
grownear.c      _TEXT                 CODE           0006:711d        00000132
                CONST                 DATA           000a:01be        00000000
                CONST2                DATA           000a:024c        00000000
                _DATA                 DATA           000a:4c34        00000000
_clse.c         _TEXT                 CODE           0006:724f        00000066
                CONST                 DATA           000a:01be        00000000
                CONST2                DATA           000a:024c        00000000
                _DATA                 DATA           000a:4c34        00000000
flush.c         _TEXT                 CODE           0006:72b5        00000153
                CONST                 DATA           000a:01be        00000000
                CONST2                DATA           000a:024c        00000000
                _DATA                 DATA           000a:4c34        00000000
locmktim.c      _TEXT                 CODE           0006:7408        000001d2
                CONST                 DATA           000a:01be        00000000
                CONST2                DATA           000a:024c        00000000
                _DATA                 DATA           000a:4c34        00000000
gmtime.c        _TEXT                 CODE           0006:75da        000001f2
                CONST                 DATA           000a:01be        00000000
                CONST2                DATA           000a:024c        00000000
                _DATA                 DATA           000a:4c34        00000000
                _BSS                  BSS            000a:95ec        00000012
tzset.c         _TEXT                 CODE           0006:77cc        0000076f
                CONST                 DATA           000a:01be        00000003
                CONST2                DATA           000a:024c        00000000
                _DATA                 DATA           000a:4c34        0000015c
timeutil.c      _TEXT                 CODE           0006:7f3b        00000456
                CONST                 DATA           000a:01c2        00000000
                CONST2                DATA           000a:024c        00000000
                _DATA                 DATA           000a:4d90        00000000
iomodtty.c      _TEXT                 CODE           0006:8391        00000056
                CONST                 DATA           000a:01c2        00000000
                CONST2                DATA           000a:024c        00000000
                _DATA                 DATA           000a:4d90        00000000
amblksiz.c      _TEXT                 CODE           0006:83e7        00000000
                CONST                 DATA           000a:01c2        00000000
                CONST2                DATA           000a:024c        00000000
                _DATA                 DATA           000a:4d90        00000002
heapen.c        _TEXT                 CODE           0006:83e7        0000000c
                CONST                 DATA           000a:01c2        00000000
                CONST2                DATA           000a:024c        00000000
                _DATA                 DATA           000a:4d92        00000002
nfree.c         _TEXT                 CODE           0006:83f3        000000cb
                CONST                 DATA           000a:01c2        00000000
                CONST2                DATA           000a:024c        00000000
                _DATA                 DATA           000a:4d94        00000000
                _BSS                  BSS            000a:95fe        00000002
nheapmin.c      _TEXT                 CODE           0006:84be        000000b9
                CONST                 DATA           000a:01c2        00000000
                CONST2                DATA           000a:024c        00000000
                _DATA                 DATA           000a:4d94        00000000
fsync.c         _TEXT                 CODE           0006:8577        0000000c
                CONST                 DATA           000a:01c2        00000000
                CONST2                DATA           000a:024c        00000000
                _DATA                 DATA           000a:4d94        00000000
qwrit.c         _TEXT                 CODE           0006:8583        00000095
                CONST                 DATA           000a:01c2        00000000
                CONST2                DATA           000a:024c        00000000
                _DATA                 DATA           000a:4d94        00000000
leapyear.c      _TEXT                 CODE           0006:8618        0000002a
                CONST                 DATA           000a:01c2        00000034
                CONST2                DATA           000a:024c        00000000
                _DATA                 DATA           000a:4d94        00000000
isatt.c         _TEXT                 CODE           0006:8642        00000041
                CONST                 DATA           000a:01f6        00000000
                CONST2                DATA           000a:024c        00000000
                _DATA                 DATA           000a:4d94        00000000
filedos.c       _TEXT                 CODE           0006:8683        00000028
                CONST                 DATA           000a:01f6        00000000
                CONST2                DATA           000a:024c        00000000
                _DATA                 DATA           000a:4d94        00000000
getenv.c        _TEXT                 CODE           0006:86ab        000000c7
                CONST                 DATA           000a:01f6        00000000
                CONST2                DATA           000a:024c        00000000
                _DATA                 DATA           000a:4d94        00000000
setenv.c        _TEXT                 CODE           0006:8772        00000589
                CONST                 DATA           000a:01f6        00000000
                CONST2                DATA           000a:024c        00000000
                _DATA                 DATA           000a:4d94        00000000
strstr.c        _TEXT                 CODE           0006:8cfb        000000bf
                CONST                 DATA           000a:01f6        00000000
                CONST2                DATA           000a:024c        00000000
                _DATA                 DATA           000a:4d94        00000000
fmalloc.c       _TEXT                 CODE           0006:8dba        00000103
                CONST                 DATA           000a:01f6        00000000
                CONST2                DATA           000a:024c        00000000
                _DATA                 DATA           000a:4d94        00000006
ffree.c         _TEXT                 CODE           0006:8ebd        00000049
                CONST                 DATA           000a:01f6        00000000
                CONST2                DATA           000a:024c        00000000
                _DATA                 DATA           000a:4d9a        00000000
cmdname.c       _TEXT                 CODE           0006:8f06        0000003f
                CONST                 DATA           000a:01f6        00000000
                CONST2                DATA           000a:024c        00000000
                _DATA                 DATA           000a:4d9a        00000000
cmodel          _TEXT                 CODE           0006:8f46        00000000
                _DATA                 DATA           000a:4d9a        00000000
_8087           _TEXT                 CODE           0006:8f46        00000000
                _DATA                 DATA           000a:4d9a        00000002
                XIB                   DATA           000a:4e80        00000000
                XI                    DATA           000a:4ea4        00000006
                XIE                   DATA           000a:4eb6        00000000
                YIB                   DATA           000a:4eb6        00000000
                YI                    DATA           000a:4ece        00000000
                YIE                   DATA           000a:4ed4        00000000
gtcmddos.c      _TEXT                 CODE           0006:8f46        000000a8
                CONST                 DATA           000a:01f6        00000000
                CONST2                DATA           000a:024c        00000000
                _DATA                 DATA           000a:4d9c        00000000
memmove.c       _TEXT                 CODE           0006:8fee        00000079
                CONST                 DATA           000a:01f6        00000000
                CONST2                DATA           000a:024c        00000000
                _DATA                 DATA           000a:4d9c        00000000
istable.c       _TEXT                 CODE           0006:9067        00000000
                CONST                 DATA           000a:01f6        00000000
                CONST2                DATA           000a:024c        00000101
                _DATA                 DATA           000a:4d9c        00000000
i4m             _TEXT                 CODE           0006:9068        00000018
                _DATA                 DATA           000a:4d9c        00000000
i4d             _TEXT                 CODE           0006:9080        000000d3
                _DATA                 DATA           000a:4d9c        00000000
sprintf.c       _TEXT                 CODE           0006:9153        00000032
                CONST                 DATA           000a:01f6        00000000
                CONST2                DATA           000a:034e        00000000
                _DATA                 DATA           000a:4d9c        00000000
setjmp          _TEXT                 CODE           0006:9186        00000079
                _DATA                 DATA           000a:4d9c        00000000
stricmp.c       _TEXT                 CODE           0006:91ff        0000003e
                CONST                 DATA           000a:01f6        00000000
                CONST2                DATA           000a:034e        00000000
                _DATA                 DATA           000a:4d9c        00000000
tolower.c       _TEXT                 CODE           0006:923d        0000000e
                CONST                 DATA           000a:01f6        00000000
                CONST2                DATA           000a:034e        00000000
                _DATA                 DATA           000a:4d9c        00000000
puts.c          _TEXT                 CODE           0006:924b        00000033
                CONST                 DATA           000a:01f6        00000000
                CONST2                DATA           000a:034e        00000000
                _DATA                 DATA           000a:4d9c        00000000
strtol.c        _TEXT                 CODE           0006:927e        00000264
                CONST                 DATA           000a:01f6        00000000
                CONST2                DATA           000a:034e        00000000
                _DATA                 DATA           000a:4d9c        0000008c
fltused.c       _TEXT                 CODE           0006:94e2        00000000
                CONST                 DATA           000a:01f6        00000000
                CONST2                DATA           000a:034e        00000000
                _DATA                 DATA           000a:4e28        00000002
                XIB                   DATA           000a:4e80        00000000
                XI                    DATA           000a:4eaa        00000006
                XIE                   DATA           000a:4eb6        00000000
strlwr.c        _TEXT                 CODE           0006:94e2        00000024
                CONST                 DATA           000a:01f6        00000000
                CONST2                DATA           000a:034e        00000000
                _DATA                 DATA           000a:4e2a        00000000
toupper.c       _TEXT                 CODE           0006:9506        0000000e
                CONST                 DATA           000a:01f6        00000000
                CONST2                DATA           000a:034e        00000000
                _DATA                 DATA           000a:4e2a        00000000
memicmp.c       _TEXT                 CODE           0006:9514        00000050
                CONST                 DATA           000a:01f6        00000000
                CONST2                DATA           000a:034e        00000000
                _DATA                 DATA           000a:4e2a        00000000
strnicmp.c      _TEXT                 CODE           0006:9564        00000054
                CONST                 DATA           000a:01f6        00000000
                CONST2                DATA           000a:034e        00000000
                _DATA                 DATA           000a:4e2a        00000000
memcmp.c        _TEXT                 CODE           0006:95b8        0000002a
                CONST                 DATA           000a:01f6        00000000
                CONST2                DATA           000a:034e        00000000
                _DATA                 DATA           000a:4e2a        00000000
frealloc.c      _TEXT                 CODE           0006:95e2        000000e0
                CONST                 DATA           000a:01f6        00000000
                CONST2                DATA           000a:034e        00000000
                _DATA                 DATA           000a:4e2a        00000000
fheapwal.c      _TEXT                 CODE           0006:96c2        00000016
                CONST                 DATA           000a:01f6        00000000
                CONST2                DATA           000a:034e        00000000
                _DATA                 DATA           000a:4e2a        00000000
qsort.c         _TEXT                 CODE           0006:96d8        00000603
                CONST                 DATA           000a:01f6        00000000
                CONST2                DATA           000a:034e        00000000
                _DATA                 DATA           000a:4e2a        00000000
open.c          _TEXT                 CODE           0006:9cdb        00000296
                CONST                 DATA           000a:01f6        00000004
                CONST2                DATA           000a:034e        00000000
                _DATA                 DATA           000a:4e2a        00000000
close.c         _TEXT                 CODE           0006:9f71        0000000c
                CONST                 DATA           000a:01fa        00000000
                CONST2                DATA           000a:034e        00000000
                _DATA                 DATA           000a:4e2a        00000000
read.c          _TEXT                 CODE           0006:9f7d        00000181
                CONST                 DATA           000a:01fa        00000000
                CONST2                DATA           000a:034e        00000000
                _DATA                 DATA           000a:4e2a        00000000
lseek.c         _TEXT                 CODE           0006:a0fe        00000037
                CONST                 DATA           000a:01fa        00000000
                CONST2                DATA           000a:034e        00000000
                _DATA                 DATA           000a:4e2a        00000000
strupr.c        _TEXT                 CODE           0006:a135        00000024
                CONST                 DATA           000a:01fa        00000000
                CONST2                DATA           000a:034e        00000000
                _DATA                 DATA           000a:4e2a        00000000
init8087        _TEXT                 CODE           0006:a15a        00000045
                _DATA                 DATA           000a:4e2a        00000000
sigfpe.c        _TEXT                 CODE           0006:a19f        00000094
                CONST                 DATA           000a:01fa        00000000
                CONST2                DATA           000a:034e        00000000
                _DATA                 DATA           000a:4e2a        00000000
hugeval.c       _TEXT                 CODE           0006:a233        00000000
                CONST                 DATA           000a:01fa        00000000
                CONST2                DATA           000a:034e        00000008
                _DATA                 DATA           000a:4e2a        00000000
strncpy.c       _TEXT                 CODE           0006:a233        0000003e
                CONST                 DATA           000a:01fa        00000000
                CONST2                DATA           000a:0356        00000000
                _DATA                 DATA           000a:4e2a        00000000
split2.c        _TEXT                 CODE           0006:a271        0000023f
                CONST                 DATA           000a:01fa        00000000
                CONST2                DATA           000a:0356        00000000
                _DATA                 DATA           000a:4e2a        00000000
makepath.c      _TEXT                 CODE           0006:a4b0        00000285
                CONST                 DATA           000a:01fa        00000000
                CONST2                DATA           000a:0356        00000000
                _DATA                 DATA           000a:4e2a        00000000
stack086.c      _TEXT                 CODE           0006:a735        0000000d
                CONST                 DATA           000a:01fa        00000000
                CONST2                DATA           000a:0356        00000000
                _DATA                 DATA           000a:4e2a        00000000
environ.c       _TEXT                 CODE           0006:a742        00000000
                CONST                 DATA           000a:01fa        00000000
                CONST2                DATA           000a:0356        00000000
                _DATA                 DATA           000a:4e2a        00000000
                _BSS                  BSS            000a:9600        0000000c
                XIB                   DATA           000a:4e80        00000000
                XI                    DATA           000a:4eb0        00000006
                XIE                   DATA           000a:4eb6        00000000
                YIB                   DATA           000a:4eb6        00000000
                YI                    DATA           000a:4ece        00000006
                YIE                   DATA           000a:4ed4        00000000
mbcupper.c      _TEXT                 CODE           0006:a742        00000024
                CONST                 DATA           000a:01fa        00000000
                CONST2                DATA           000a:0356        00000000
                _DATA                 DATA           000a:4e2a        00000000
mbslen.c        _TEXT                 CODE           0006:a766        00000032
                CONST                 DATA           000a:01fa        00000000
                CONST2                DATA           000a:0356        00000000
                _DATA                 DATA           000a:4e2a        00000000
mbstowcs.c      _TEXT                 CODE           0006:a798        000000ad
                CONST                 DATA           000a:01fa        00000000
                CONST2                DATA           000a:0356        00000000
                _DATA                 DATA           000a:4e2a        00000000
usetenv.c       _TEXT                 CODE           0006:a845        0000045b
                CONST                 DATA           000a:01fa        00000000
                CONST2                DATA           000a:0356        00000000
                _DATA                 DATA           000a:4e2a        00000000
growseg.c       _TEXT                 CODE           0006:aca0        0000013a
                CONST                 DATA           000a:01fa        00000000
                CONST2                DATA           000a:0356        00000000
                _DATA                 DATA           000a:4e2a        00000000
allocseg.c      _TEXT                 CODE           0006:adda        000000da
                CONST                 DATA           000a:01fa        00000000
                CONST2                DATA           000a:0356        00000000
                _DATA                 DATA           000a:4e2a        00000000
chk8087.c       _TEXT                 CODE           0006:aeb4        000000b9
                CONST                 DATA           000a:01fa        00000000
                CONST2                DATA           000a:0356        00000000
                _DATA                 DATA           000a:4e2a        00000000
vsprintf.c      _TEXT                 CODE           0006:af6d        00000055
                CONST                 DATA           000a:01fa        00000000
                CONST2                DATA           000a:0356        00000000
                _DATA                 DATA           000a:4e2a        00000000
ljmphdl.c       _TEXT                 CODE           0006:afc2        00000001
                CONST                 DATA           000a:01fa        00000000
                CONST2                DATA           000a:0356        00000000
                _DATA                 DATA           000a:4e2a        00000004
fputs.c         _TEXT                 CODE           0006:afc3        000000ac
                CONST                 DATA           000a:01fa        00000000
                CONST2                DATA           000a:0356        00000000
                _DATA                 DATA           000a:4e2e        00000000
fputc.c         _TEXT                 CODE           0006:b06f        000000f2
                CONST                 DATA           000a:01fa        00000000
                CONST2                DATA           000a:0356        00000000
                _DATA                 DATA           000a:4e2e        00000000
setefg.c        _TEXT                 CODE           0006:b161        00000019
                CONST                 DATA           000a:01fa        00000000
                CONST2                DATA           000a:0356        00000000
                _DATA                 DATA           000a:4e2e        00000000
fmsize.c        _TEXT                 CODE           0006:b17a        00000012
                CONST                 DATA           000a:01fa        00000000
                CONST2                DATA           000a:0356        00000000
                _DATA                 DATA           000a:4e2e        00000000
nexpand.c       _TEXT                 CODE           0006:b18c        000001c9
                CONST                 DATA           000a:01fa        00000000
                CONST2                DATA           000a:0356        00000000
                _DATA                 DATA           000a:4e2e        00000000
fexpand.c       _TEXT                 CODE           0006:b355        00000047
                CONST                 DATA           000a:01fa        00000000
                CONST2                DATA           000a:0356        00000000
                _DATA                 DATA           000a:4e2e        00000000
heapwalk.c      _TEXT                 CODE           0006:b39c        000001a2
                CONST                 DATA           000a:01fa        00000000
                CONST2                DATA           000a:0356        00000000
                _DATA                 DATA           000a:4e2e        00000000
opendos.c       _TEXT                 CODE           0006:b53e        00000028
                CONST                 DATA           000a:01fa        00000000
                CONST2                DATA           000a:0356        00000000
                _DATA                 DATA           000a:4e2e        00000000
umaskval.c      _TEXT                 CODE           0006:b566        00000000
                CONST                 DATA           000a:01fa        00000000
                CONST2                DATA           000a:0356        00000000
                _DATA                 DATA           000a:4e2e        00000002
creatdos.c      _TEXT                 CODE           0006:b566        00000049
                CONST                 DATA           000a:01fa        00000000
                CONST2                DATA           000a:0356        00000000
                _DATA                 DATA           000a:4e30        00000000
8087cw.c        _TEXT                 CODE           0006:b5af        00000000
                CONST                 DATA           000a:01fa        00000000
                CONST2                DATA           000a:0356        00000000
                _DATA                 DATA           000a:4e30        00000002
sigtab.c        _TEXT                 CODE           0006:b5af        00000000
                CONST                 DATA           000a:01fa        00000000
                CONST2                DATA           000a:0356        00000000
                _DATA                 DATA           000a:4e32        00000034
mbsdec.c        _TEXT                 CODE           0006:b5af        00000086
                CONST                 DATA           000a:01fa        00000000
                CONST2                DATA           000a:0356        00000000
                _DATA                 DATA           000a:4e66        00000000
setenvp.c       _TEXT                 CODE           0006:b635        0000014a
                CONST                 DATA           000a:01fa        00000000
                CONST2                DATA           000a:0356        00000000
                _DATA                 DATA           000a:4e66        00000000
                _BSS                  BSS            000a:960c        00000004
mbdtoupp.c      _TEXT                 CODE           0006:b77f        0000000e
                CONST                 DATA           000a:01fa        00000000
                CONST2                DATA           000a:0356        00000000
                _DATA                 DATA           000a:4e66        00000000
mbtowc.c        _TEXT                 CODE           0006:b78d        000000e9
                CONST                 DATA           000a:01fa        00000000
                CONST2                DATA           000a:0356        00000000
                _DATA                 DATA           000a:4e66        00000000
crtwenv.c       _TEXT                 CODE           0006:b876        0000008b
                CONST                 DATA           000a:01fa        00000000
                CONST2                DATA           000a:0356        00000000
                _DATA                 DATA           000a:4e66        00000000
ugetenv.c       _TEXT                 CODE           0006:b901        000000b2
                CONST                 DATA           000a:01fa        00000000
                CONST2                DATA           000a:0356        00000000
                _DATA                 DATA           000a:4e66        00000000
ustrlen.c       _TEXT                 CODE           0006:b9b3        00000017
                CONST                 DATA           000a:01fa        00000000
                CONST2                DATA           000a:0356        00000000
                _DATA                 DATA           000a:4e66        00000000
wcstombs.c      _TEXT                 CODE           0006:b9ca        000000ae
                CONST                 DATA           000a:01fa        00000000
                CONST2                DATA           000a:0356        00000000
                _DATA                 DATA           000a:4e66        00000000
utoupper.c      _TEXT                 CODE           0006:ba78        0000000e
                CONST                 DATA           000a:01fa        00000000
                CONST2                DATA           000a:0356        00000000
                _DATA                 DATA           000a:4e66        00000000
memcpy.c        _TEXT                 CODE           0006:ba86        00000027
                CONST                 DATA           000a:01fa        00000000
                CONST2                DATA           000a:0356        00000000
                _DATA                 DATA           000a:4e66        00000000
ustrcpy.c       _TEXT                 CODE           0006:baad        00000028
                CONST                 DATA           000a:01fa        00000000
                CONST2                DATA           000a:0356        00000000
                _DATA                 DATA           000a:4e66        00000000
wallflgs.c      _TEXT                 CODE           0006:bad5        00000000
                CONST                 DATA           000a:01fa        00000000
                CONST2                DATA           000a:0356        00000000
                _DATA                 DATA           000a:4e66        00000008
save8087.c      _TEXT                 CODE           0006:bad5        00000001
                CONST                 DATA           000a:01fa        00000000
                CONST2                DATA           000a:0356        00000000
                _DATA                 DATA           000a:4e6e        00000008
prtf.c          _TEXT                 CODE           0006:bad6        00000edd
                CONST                 DATA           000a:01fa        00000000
                CONST2                DATA           000a:0356        00000000
                _DATA                 DATA           000a:4e76        00000000
ioalloc.c       _TEXT                 CODE           0006:c9b3        000000be
                CONST                 DATA           000a:01fa        00000000
                CONST2                DATA           000a:0356        00000000
                _DATA                 DATA           000a:4e76        00000000
noefgfmt.c      _TEXT                 CODE           0006:ca71        00000018
                CONST                 DATA           000a:01fa        00000022
                CONST2                DATA           000a:0356        00000000
                _DATA                 DATA           000a:4e76        00000008
efgfmt.c        _TEXT                 CODE           0006:ca89        000001b9
                CONST                 DATA           000a:021c        00000000
                CONST2                DATA           000a:0356        00000000
                _DATA                 DATA           000a:4e7e        00000000
cnvs2d.c        _TEXT                 CODE           0006:cc42        00000020
                CONST                 DATA           000a:021c        00000000
                CONST2                DATA           000a:0356        00000000
                _DATA                 DATA           000a:4e7e        00000000
bfree.c         _TEXT                 CODE           0006:cc62        0000002a
                CONST                 DATA           000a:021c        00000000
                CONST2                DATA           000a:0356        00000000
                _DATA                 DATA           000a:4e7e        00000000
bexpand.c       _TEXT                 CODE           0006:cc8c        0000005c
                CONST                 DATA           000a:021c        00000000
                CONST2                DATA           000a:0356        00000000
                _DATA                 DATA           000a:4e7e        00000000
clearenv.c      _TEXT                 CODE           0006:cce8        000000d2
                CONST                 DATA           000a:021c        00000000
                CONST2                DATA           000a:0356        00000000
                _DATA                 DATA           000a:4e7e        00000000
uputenv.c       _TEXT                 CODE           0006:cdba        000002a8
                CONST                 DATA           000a:021c        00000000
                CONST2                DATA           000a:0356        00000000
                _DATA                 DATA           000a:4e7e        00000000
ustrnicm.c      _TEXT                 CODE           0006:d062        00000059
                CONST                 DATA           000a:021c        00000000
                CONST2                DATA           000a:0356        00000000
                _DATA                 DATA           000a:4e7e        00000000
wctomb.c        _TEXT                 CODE           0006:d0bb        0000002c
                CONST                 DATA           000a:021c        00000000
                CONST2                DATA           000a:0356        00000000
                _DATA                 DATA           000a:4e7e        00000000
lltoa.c         _TEXT                 CODE           0006:d0e7        0000014d
                CONST                 DATA           000a:021c        00000000
                CONST2                DATA           000a:0356        00000000
                _DATA                 DATA           000a:4e7e        00000000
ltoa.c          _TEXT                 CODE           0006:d234        000000a4
                CONST                 DATA           000a:021c        00000000
                CONST2                DATA           000a:0356        00000000
                _DATA                 DATA           000a:4e7e        00000000
chktty.c        _TEXT                 CODE           0006:d2d8        00000036
                CONST                 DATA           000a:021c        00000000
                CONST2                DATA           000a:0356        00000000
                _DATA                 DATA           000a:4e7e        00000000
rtcntrl.c       _TEXT                 CODE           0006:d30e        0000001a
                CONST                 DATA           000a:021c        00000000
                CONST2                DATA           000a:0356        00000000
                _DATA                 DATA           000a:4e7e        00000001
putenv.c        _TEXT                 CODE           0006:d328        000003a1
                CONST                 DATA           000a:021c        00000000
                CONST2                DATA           000a:0356        00000000
                _DATA                 DATA           000a:4e80        00000000


                        +----------------------+
                        |   Imported Symbols   |
                        +----------------------+

Symbol                              Module
======                              ======

SETERRORMODE                        KERNEL
SETHANDLECOUNT                      KERNEL
MESSAGEBOX                          USER
GETDOSENVIRONMENT                   KERNEL
MESSAGEBEEP                         USER
INVALIDATERECT                      USER
LOADMODULE                          KERNEL
FREELIBRARY                         KERNEL
LOADLIBRARY                         KERNEL
GETPROCADDRESS                      KERNEL
SETEVENTHOOK                        USER
PEEKMESSAGE                         USER
GETMESSAGE                          USER
TRANSLATEMESSAGE                    USER
DISPATCHMESSAGE                     USER
YIELD                               KERNEL
__B000h                             KERNEL
__B800h                             KERNEL
RESURRECTION                        GDI
SELECTOBJECT                        GDI
BITBLT                              GDI
DELETEOBJECT                        GDI
DELETEDC                            GDI
RELEASEDC                           USER
GETDC                               USER
CREATECOMPATIBLEDC                  GDI
CREATECOMPATIBLEBITMAP              GDI
DEATH                               GDI
__A000h                             KERNEL
GLOBALDOSFREE                       KERNEL
GLOBALUNLOCK                        KERNEL
GLOBALFREE                          KERNEL
GLOBALDOSALLOC                      KERNEL
GLOBALALLOC                         KERNEL
GLOBALLOCK                          KERNEL
GETCURSORPOS                        USER
SHOWCURSOR                          USER
SETCURSORPOS                        USER
GETSYSTEMMETRICS                    USER
__FPMATH                            WIN87EM
GETWINFLAGS                         KERNEL
_LWRITE                             KERNEL
__F000H                             KERNEL
INITTASK                            KERNEL
GETMODULEFILENAME                   KERNEL
INITAPP                             USER
WAITEVENT                           KERNEL
__AHSHIFT                           KERNEL
GETVERSION                          KERNEL
ISDBCSLEADBYTE                      KERNEL
GETKBCODEPAGE                       KEYBOARD
LOCALALLOC                          KERNEL
LOCALFREE                           KERNEL
_LREAD                              KERNEL
GLOBALHANDLE                        KERNEL
GLOBALREALLOC                       KERNEL


                        +--------------------+
                        |   Libraries Used   |
                        +--------------------+

/mnt/sda5/.user/root/src/openwatcom-1.9/rel2/lib286/win/windows.lib
/mnt/sda5/.user/root/src/openwatcom-1.9/bld/aui/wini86/aui.lib
/mnt/sda5/.user/root/src/openwatcom-1.9/bld/gui/ui/wini86/gui.lib
/mnt/sda5/.user/root/src/openwatcom-1.9/bld/ui/win/wini86/ui.lib
/mnt/sda5/.user/root/src/openwatcom-1.9/bld/sdk/rc/wres/dosi86/ml/wres.lib
/mnt/sda5/.user/root/src/openwatcom-1.9/rel2/lib286/win/math87l.lib
/mnt/sda5/.user/root/src/openwatcom-1.9/rel2/lib286/win/emu87.lib
/mnt/sda5/.user/root/src/openwatcom-1.9/rel2/lib286/win/clibl.lib


                        +-----------------------+
                        |   Linker Statistics   |
                        +-----------------------+

Stack size:  3c00 (15360.)
Memory size:  00097530 (619824.)
Entry point address: 0006:54a6
Link time: 00:00.60
