Open Watcom Linker Version 1.9
Portions Copyright (c) 1985-2002 Sybase, Inc. All Rights Reserved.
Created on:       12/12/16 02:40:28
Executable Image: codeview.dip
creating a Phar Lap relocatable executable


                        +------------+
                        |   Groups   |
                        +------------+

Group                           Address              Size
=====                           =======              ====

DGROUP                          0000aff0             00000290



                        +--------------+
                        |   Segments   |
                        +--------------+

Segment                Class          Group          Address         Size
=======                =====          =====          =======         ====

_TEXT                  CODE           AUTO           00000000        0000aff0
CONST                  DATA           DGROUP         0000aff0        00000025
CONST2                 DATA           DGROUP         0000b018        00000104
_DATA                  DATA           DGROUP         0000b11c        000000f8
_BSS                   BSS            DGROUP         0000b214        0000006c


                        +----------------+
                        |   Memory Map   |
                        +----------------+

* = unreferenced symbol
+ = symbol only referenced locally

Address        Symbol
=======        ======

Module: dipimp.obj(/mnt/sda5/.user/root/src/openwatcom-1.9/bld/dip/c/dipimp.c)
00000000*      _Signature
00000010*      DIPLOAD
00000040       DCAlloc_
00000050*      DCAllocZ_
00000080*      DCRealloc_
00000090       DCFree_
000000a0       DCMapAddr_
000000b0       DCSymCreate_
000000c0       DCItemLocation_
000000d0       DCAssignLocation_
000000e0       DCSameAddrSpace_
00000110*      DCAddrSection_
00000120*      DCOpen_
00000130       DCSeek_
00000140       DCRead_
00000150*      DCReadAt_
000001b0       DCWrite_
000001c0       DCClose_
000001d0*      DCRemove_
000001e0       DCStatus_
000001f0*      DCCurrMAD_
00000210*      DCMachineData_
00000260+      DIPImpOldTypeBase_
0000b11c+      _ImpInterface
0000b214       _NilAddr
0000b21c+      _Client
Module: cvmisc.obj(/mnt/sda5/.user/root/src/openwatcom-1.9/bld/dip/codeview/c/cvmisc.c)
00000278       _DIPImpName
000002b0       DIPImpQueryHandleSize_
000002c0       DIPImpMoreMem_
000002d0       DIPImpStartup_
000002e0       DIPImpCancel_
000002e0       DIPImpShutdown_
000002f0       NameCopy_
00000330       FindDirEntry_
000003f0       WalkDirList_
000004b0       GetNumLeaf_
00000570       DoIndirection_
00000630       NYI_
00000630       Confused_
Module: cvld.obj(/mnt/sda5/.user/root/src/openwatcom-1.9/bld/dip/codeview/c/cvld.c)
00000c80       DIPImpLoadInfo_
00000d80       DIPImpMapInfo_
00000de0       SegIsExecutable_
00000e00       MapLogical_
00000e40       DIPImpUnloadInfo_
0000b220       _ImageList
Module: cvmod.obj(/mnt/sda5/.user/root/src/openwatcom-1.9/bld/dip/codeview/c/cvmod.c)
00000eb0       DIPImpWalkModList_
00000ef0       DIPImpModName_
00000f80       GetCompInfo_
00000fe0       DIPImpModSrcLang_
00001010       DIPImpModInfo_
000010e0       ImpAddrMod_
00001170       DIPImpAddrMod_
00001190       DIPImpModAddr_
00001220       DIPImpModDefault_
Module: cvtype.obj(/mnt/sda5/.user/root/src/openwatcom-1.9/bld/dip/codeview/c/cvtype.c)
00001490       TypeIndexFillIn_
000014b0       DIPImpTypeFreeAll_
000014b0       DIPImpTypeRelease_
000014b0       DIPImpTypeAddRef_
00001550       TypeCallInfo_
000015e0       TypeMemberFuncInfo_
00001690       TypeSymGetName_
000022e0       TypeSymGetAddr_
00002500       TypeSymGetType_
000025d0       TypeSymGetValue_
00002690       TypeSymGetInfo_
00002960       TypeSymWalkList_
00002a30       TypeSearchTagName_
00002db0       TypeSearchNestedSym_
00002e70       DIPImpWalkTypeList_
00002f20       DIPImpTypeMod_
00002ff0       ImpTypeInfo_
00002ff0       DIPImpTypeInfo_
000033a0       ImpTypeBase_
00003580       DIPImpTypeBase_
00003ba0       DIPImpTypeArrayInfo_
00003bb0       DIPImpTypeProcInfo_
00003cb0       DIPImpTypePtrAddrSpace_
00003fd0       DIPImpTypeThunkAdjust_
00004170       DIPImpTypeCmp_
00004190       DIPImpTypeName_
Module: cvsym.obj(/mnt/sda5/.user/root/src/openwatcom-1.9/bld/dip/codeview/c/cvsym.c)
00004260       SymFillIn_
00004710       ImpSymLocation_
00004710       DIPImpSymLocation_
00005710       SymFindMatchingSym_
000059a0+      DoWalkSymList_
00005bb0       DIPImpWalkSymList_
00005bd0       DIPImpWalkSymListEx_
00005bf0       DIPImpSymMod_
00005d80       DIPImpSymName_
00005da0       ImpSymType_
00005da0       DIPImpSymType_
00005df0       ImpSymValue_
00005df0       DIPImpSymValue_
00005eb0       DIPImpSymInfo_
00006130       DIPImpSymParmLocation_
00006460       DIPImpSymObjType_
000064c0       DIPImpSymObjLocation_
00006630       DIPImpAddrSym_
00006af0+      DoImpLookupSym_
00006c50       DIPImpLookupSym_
00006c70       DIPImpLookupSymEx_
00006c90       DIPImpAddrScope_
00006d00       DIPImpScopeOuter_
00006de0       DIPImpSymCmp_
00006e00       DIPImpSymFreeAll_
00006e00       DIPImpSymRelease_
00006e00       DIPImpSymAddRef_
Module: cvcue.obj(/mnt/sda5/.user/root/src/openwatcom-1.9/bld/dip/codeview/c/cvcue.c)
00006e10       DIPImpWalkFileList_
00006f20       DIPImpCueMod_
00006f30       DIPImpCueFile_
00006fa0       DIPImpCueFileId_
00006fb0       DIPImpCueLine_
00007010       DIPImpCueColumn_
00007020       DIPImpCueAddr_
00007260       DIPImpCueAdjust_
00007310       DIPImpLineCue_
00007480+      SearchOffsets_
00007590+      SearchFile_
00007720       DIPImpAddrCue_
00007810       DIPImpCueCmp_
Module: cvvirt.obj(/mnt/sda5/.user/root/src/openwatcom-1.9/bld/dip/codeview/c/cvvirt.c)
00007860       VMInit_
000078b0       VMFini_
000079f0       VMBlock_
00007d80       VMRecord_
00007dc0       VMShrink_
Module: cvloc.obj(/mnt/sda5/.user/root/src/openwatcom-1.9/bld/dip/codeview/c/cvloc.c)
00008060       LocationCreate_
00008090       LocationAdd_
00008180       LocationTrunc_
000081d0       LocationManyReg_
000083f0       LocationOneReg_
Module: demangle.obj(/mnt/sda5/.user/root/src/openwatcom-1.9/bld/lib_misc/c/demangle.c)
0000a7f0*      __demangle_t_
0000a850       __demangle_l_
0000a8c0*      __demangle_r_
0000a950*      __scope_name_
0000a9f0       __is_mangled_
0000aad0*      __is_mangled_internal_
0000ab10*      __unmangled_name_
0000ab80*      __demangled_basename_
0000abf0*      __parse_mangled_name_
0000ac50*      __mangle_operator_
Module: /mnt/sda5/.user/root/src/openwatcom-1.9/rel2/lib386/dos/clib3r.lib(memset.c)
0000ad90       memset_
Module: /mnt/sda5/.user/root/src/openwatcom-1.9/rel2/lib386/dos/clib3r.lib(memcmp.c)
0000adb0       memcmp_
Module: /mnt/sda5/.user/root/src/openwatcom-1.9/rel2/lib386/dos/clib3r.lib(memicmp.c)
0000add0       memicmp_
Module: /mnt/sda5/.user/root/src/openwatcom-1.9/rel2/lib386/dos/clib3r.lib(memmove.c)
0000ae10       memmove_
Module: /mnt/sda5/.user/root/src/openwatcom-1.9/rel2/lib386/dos/clib3r.lib(itoa.c)
0000ae70+      utoa_
0000aec0       itoa_
Module: /mnt/sda5/.user/root/src/openwatcom-1.9/rel2/lib386/dos/clib3r.lib(toupper.c)
0000aef0       toupper_
Module: /mnt/sda5/.user/root/src/openwatcom-1.9/rel2/lib386/dos/clib3r.lib(istable.c)
0000b018       __IsTable
Module: /mnt/sda5/.user/root/src/openwatcom-1.9/rel2/lib386/dos/clib3r.lib(tolower.c)
0000af00       tolower_
Module: /mnt/sda5/.user/root/src/openwatcom-1.9/rel2/lib386/dos/clib3r.lib(strncmp.c)
0000af10       strncmp_
Module: /mnt/sda5/.user/root/src/openwatcom-1.9/rel2/lib386/dos/clib3r.lib(__stos)
0000af40       __STOSB
0000af77*      __STOSD
Module: /mnt/sda5/.user/root/src/openwatcom-1.9/rel2/lib386/dos/clib3r.lib(alphabet.c)
0000aff0       ___Alphabet


                        +--------------------+
                        |   Libraries Used   |
                        +--------------------+

/mnt/sda5/.user/root/src/openwatcom-1.9/rel2/lib386/dos/clib3r.lib


                        +-----------------------+
                        |   Linker Statistics   |
                        +-----------------------+

Stack size:  1000 (4096.)
Memory size:  b280 (45696.)
Entry point address: 00000000
Link time: 00:00.00
