Open Watcom Linker Version 1.9
Portions Copyright (c) 1985-2002 Sybase, Inc. All Rights Reserved.
Created on:       12/12/16 02:42:24
Executable Image: wprof.exe
creating a Windows NT character-mode executable


                        +------------+
                        |   Groups   |
                        +------------+

Group                           Address              Size
=====                           =======              ====

.idata                          00443000             00000804
DGROUP                          00444000             0001ee80



                        +--------------+
                        |   Segments   |
                        +--------------+

Segment                Class          Group          Address         Size
=======                =====          =====          =======         ====

BEGTEXT                CODE           AUTO           00401000        00000007
_TEXT                  CODE           AUTO           00401010        00041a62
TRANSFER CODE          CODE           AUTO           00442a74        000001aa
.idata                 .idata         .idata         00443000        00000804
_NULL                  BEGDATA        DGROUP         00444000        00000004
_AFTERNULL             BEGDATA        DGROUP         00444004        00000000
CONST                  DATA           DGROUP         00444004        00000080
CONST2                 DATA           DGROUP         00444084        00000000
_DATA                  DATA           DGROUP         00444084        00002624
XIB                    DATA           DGROUP         004466a8        00000000
XI                     DATA           DGROUP         004466a8        0000003c
XIE                    DATA           DGROUP         004466e4        00000000
YIB                    DATA           DGROUP         004466e4        00000000
YI                     DATA           DGROUP         004466e4        00000024
YIE                    DATA           DGROUP         00446708        00000000
TIB                    DATA           DGROUP         00446708        00000000
TI                     DATA           DGROUP         00446708        00000000
TIE                    DATA           DGROUP         00446708        00000000
DATA                   DATA           DGROUP         00446708        00000000
_BSS                   BSS            DGROUP         00447000        00002e74
STACK                  STACK          DGROUP         00449e80        00019000


                        +----------------+
                        |   Memory Map   |
                        +----------------+

* = unreferenced symbol
+ = symbol only referenced locally

Address        Symbol
=======        ======

Module: srcmgt.obj(/mnt/sda5/.user/root/src/openwatcom-1.9/bld/watcom/c/srcmgt.c)
004010a0*      FClearOpenSourceCache_
004010c0       FOpenSource_
00401150*      FSize_
00401180*      FLastOffset_
004011a0*      FileIsRemote_
004011b0*      FGetName_
004011c0       FDoneSource_
004013d0*      FCurrLine_
004013e0       FReadLine_
00444084+      _FileList
Module: aboutmsg.obj(/mnt/sda5/.user/root/src/openwatcom-1.9/bld/wprof/c/aboutmsg.c)
00401530       AboutOpen_
00401580       AboutClose_
00401620*      AboutSetOff_
00401640       DlgAbout_
00444090+      _AboutInfo
Module: clrsamps.obj(/mnt/sda5/.user/root/src/openwatcom-1.9/bld/wprof/c/clrsamps.c)
00401700       ClearMassaged_
00401760       ClearRoutineInfo_
004017c0       ClearFileInfo_
00401820       ClearModuleInfo_
00401880       ClearSample_
00401a80*      ClearAllSamples_
Module: dipinter.obj(/mnt/sda5/.user/root/src/openwatcom-1.9/bld/wprof/c/dipinter.c)
00401cb0       DIPCliImageUnload_
00401cc0       DIPCliMapAddr_
00401cd0       DIPCliSymCreate_
00401ce0       DIPCliItemLocation_
00401cf0       DIPCliAssignLocation_
00401d00       DIPCliSameAddrSpace_
00401d90       DIPCliAddrSection_
00401da0       DIPCliStatus_
00401db0       DIPCliCurrMAD_
00401dc0       WPDipInit_
00401e40       WPDipProc_
00401e50       WPDipDestroyProc_
00401e60       WPDipSetProc_
00401e70       WPDipLoadInfo_
00401f10       WPDipFini_
Module: diginter.obj(/mnt/sda5/.user/root/src/openwatcom-1.9/bld/wprof/c/diginter.c)
00401fa0       DIGCliAlloc_
00401fb0       DIGCliRealloc_
00401fc0       DIGCliFree_
00401fd0       DIGCliOpen_
00402010       DIGCliSeek_
00402020       DIGCliRead_
00402030       DIGCliWrite_
00402040       DIGCliClose_
00402050       DIGCliRemove_
00402060       DIGCliMachineData_
Module: dlgcnvt.obj(/mnt/sda5/.user/root/src/openwatcom-1.9/bld/wprof/c/dlgcnvt.c)
00447004       _ConvertFile
004021a0       DlgGetConvert_
00444298       _OptDIFFormat
00444299+      _OptCommaFormat
Module: dlgoptn.obj(/mnt/sda5/.user/root/src/openwatcom-1.9/bld/wprof/c/dlgoptn.c)
00402520       DlgGetOptions_
004444cc+      _OptStretchGlobal
004444cd+      _OptAbsBarGlobal
004444ce+      _OptRelBarGlobal
004444cf+      _OptSortCountGlobal
004444d0+      _OptSortNameGlobal
004444d1+      _OptGatherGlobal
004444d4       _OptGatherCut
Module: dlgsamp.obj(/mnt/sda5/.user/root/src/openwatcom-1.9/bld/wprof/c/dlgsamp.c)
00402890       WPSampFound_
00402930       DlgOpenSample_
Module: getsamps.obj(/mnt/sda5/.user/root/src/openwatcom-1.9/bld/wprof/c/getsamps.c)
00403290       GetSampleInfo_
0044710c       _SIOData
00447110       _CurrSIOData
Module: madinter.obj(/mnt/sda5/.user/root/src/openwatcom-1.9/bld/wprof/c/madinter.c)
004035e0       MADCliAddrSection_
004035f0       MADCliAddString_
004035f0       MADCliMemExpr_
004035f0       MADCliAddrOvlReturn_
00403600       MADCliAddrToString_
004036a0       MADCliReadMem_
004036e0       MADCliWriteMem_
004036f0       MADCliString_
00403740       MADCliRadixPrefix_
00403760       MADCliNotify_
00403780       MADCliSystemConfig_
00403790       InitMADInfo_
004037b0       FiniMADInfo_
004037e0+      ReportMADFailure_
00403920       SetCurrentMAD_
004444dc       _DefSysConfig
00447114+      _MADStatus
Module: memutil.obj(/mnt/sda5/.user/root/src/openwatcom-1.9/bld/wprof/c/memutil.c)
004039c0       ProfAlloc_
004039c0       WndAlloc_
004039d0       WndNoMemory_
004039e0       WndFree_
004039e0       ProfFree_
004039f0       ProfRealloc_
004039f0       WndRealloc_
00403a10       ProfCAlloc_
00403a30*      WndMemFini_
00403a30*      WndMemInit_
Module: msg.obj(/mnt/sda5/.user/root/src/openwatcom-1.9/bld/wprof/c/msg.c)
00403c30       ErrorMsg_
00403c50       fatal_
Module: msgstr.obj(/mnt/sda5/.user/root/src/openwatcom-1.9/bld/wprof/c/msgstr.c)
00403c90       __Literal_Assertion_Failed
00403ca3       __Literal_Cannot_Open_Smp_File
00403cbf       __Literal_Cannot_Process_Ovly
00403ceb       __Literal_Dip_Find_Failed
00403d11       __Literal_Dip_Info_Failed
00403d43       __Literal_Dip_Init_Failed
00403d76       __Literal_Dip_Load_Failed
00403d9f       __Literal_Exe_Has_Changed
00403dcb       __Literal_Exe_Not_Found
00403de6       __Literal_Incompat_Smp_File
00403e0a       __Literal_Incompat_Ver_Ovly
00403e49       __Literal_Invalid_Smp_File
00403e69       __Literal_Memfull
00403e77       __Literal_Memfull_Realloc
00403e93       __Literal_Smp_File_IO_Err
00403eb9       __Literal_Usage
00403ede       __Literal_Usage1
00403f03       __Literal_Usage2
00403f24       __Literal_Usage3
00403f36       __Literal_Usage4
00403f3d       __Literal_Usage5
00403f47*      __Literal_Usage6
00403f5e*      __Literal_Usage7
00403f73*      __Literal_Usage8
00403f84       __Literal_Empty_Str
00403f85       __Literal_File_Does_Not_Exist
00403f9e*      __Literal_Bad_System_Load
00403fc4       __Literal_About_WPROF
00403fd0       __Literal_WPROF_TITLE
00403fe5       __Literal_Enter_Sample
00403ffc*      __Literal_OK_Str
00403fff*      __Literal_Cancel_Str
00404006       __Literal_Unknown_Image
00404017       __Literal_Unknown_Module
00404029       __Literal_Unknown_File
00404039       __Literal_Unknown_Routine
0040404c       __Literal_Gathered_Images
0040405f       __Literal_Gathered_Modules
00404073       __Literal_Gathered_Files
00404085       __Literal_Gathered_Routines
0040409a       __Literal_No_Symbol_Info
004040c0       __Literal_No_Routine_Names
004040e0       __Literal_Src_File_Not_Found
004040fb       __Literal_Src_File_Not_Known
00404114       __Literal_Rel_Header
00404119       __Literal_Abs_Header
0040411e       __Literal_Sample_Data
00404129*      __Literal_Smp_File_Raw_Err
0040415d       __Literal_Sample_Header
00404167       __Literal_Image_Header
00404170       __Literal_Module_Header
0040417a       __Literal_File_Header
00404182       __Literal_Routine_Header
0040418d       __Literal_Source_Header
0040419a       __Literal_Image_Names
004041a6       __Literal_Module_Names
004041b3       __Literal_File_Names
004041be       __Literal_Routine_Names
004041cc       __Literal_Source_Line
004041d8       __Literal_Assembler_Instructions
004041ef       __Literal_Options
004041f7       __Literal_Cmd_Option_Not_Valid
0040421d       __Literal_Unable_To_Open_Src
00404238*      __Literal_Unable_To_Open_Help
00404256       __Literal_Convert_Data
0040426d       __Literal_Convert_File_Name
00404285       __Literal_Mad_Init_Failed
004042b6       __Literal_LDS_FSEEK_FAILED
004042c7       __Literal_LDS_FREAD_FAILED
004042d8       __Literal_LDS_FOPEN_FAILED
004042e9       __Literal_LMS_INVALID_MAD_VERSION
0040430e       __Literal_LMS_INVALID_MAD
00404330       __Literal_LMS_UNREGISTERED_MAD
0040434d       __Literal_LMS_RECURSIVE_MAD_FAILURE
Module: rptsamps.obj(/mnt/sda5/.user/root/src/openwatcom-1.9/bld/wprof/c/rptsamps.c)
004052d0       ReportSampleInfo_
Module: setsamps.obj(/mnt/sda5/.user/root/src/openwatcom-1.9/bld/wprof/c/setsamps.c)
00405900       AddrCmp_
00405920       GatherSetAll_
00405a20       AbsSetAll_
00405b90       RelSetAll_
00405d00       StretchSetAll_
00405e60       SortSetAll_
00406850       SetSampleInfo_
Module: support.obj(/mnt/sda5/.user/root/src/openwatcom-1.9/bld/wprof/c/support.c)
00406910       AsmSize_
00406940       AsmFini_
00406950       ExeOpen_
00406960       ExeClose_
00406a40       SetExeOffset_
00407010       SetExeImage_
00407060       SetExeFile_
00407960       AddrImage_
00407a30       MapAddressToActual_
00407ab0+      MapAddressToMap_
00407b40       MapAddressIntoSection_
00408180       LoadImageOverlays_
00408260       SetNumBytes_
00408270       CodeAdvance_
00408380       FormatAddr_
00408400       GetFullInstruct_
00408540       CnvAddr_
004085f0       IsX86BigAddr_
00408600       IsX86RealAddr_
00408620       GetDataByte_
00408640       EndOfSegment_
Module: utils.obj(/mnt/sda5/.user/root/src/openwatcom-1.9/bld/wprof/c/utils.c)
00408670       ReplaceExt_
004086d0*      FindFile_
004087b0       InitPaths_
00408810+      AddPath_
00408900       BigRead_
00408910       Ring_
00444624+      _HelpPathList
00444628+      _FilePathList
0044462c*      _DipExePathList
Module: wndimain.obj(/mnt/sda5/.user/root/src/openwatcom-1.9/bld/wprof/c/wndimain.c)
00408920       WndInitWndMain_
Module: wpasmfil.obj(/mnt/sda5/.user/root/src/openwatcom-1.9/bld/wprof/c/wpasmfil.c)
00408940       WPGetAsmLoc_
004089c0       WPAsmOpen_
00408d70       WPAsmClose_
00408e10       WPAsmGetLine_
00408f20       WPAsmFindSrcLine_
Module: wpavals.obj(/mnt/sda5/.user/root/src/openwatcom-1.9/bld/wprof/c/wpavals.c)
00444630       _WndColours
00444664       _WndNumColours
00444668       _WndPlainAttr
00444669       _WndTabStopAttr
0044466a       _WndSelectedAttr
0044466b       _WndCursorAttr
0044466c*      _WndStatusColour
00444670       _WndFlags
00444674       _WndStyle
Module: wpbar.obj(/mnt/sda5/.user/root/src/openwatcom-1.9/bld/wprof/c/wpbar.c)
00408f60       GetCurrentAbsBar_
00408fd0       GetCurrentRelBar_
00409040       GetCurrentMaxBar_
004090c0       FlipCurrentAbsBar_
00409180       FlipCurrentRelBar_
00409240       FlipCurrentMaxBar_
Module: wpcnvt.obj(/mnt/sda5/.user/root/src/openwatcom-1.9/bld/wprof/c/wpcnvt.c)
004098c0       WPConvert_
Module: wpdriver.obj(/mnt/sda5/.user/root/src/openwatcom-1.9/bld/wprof/c/wpdriver.c)
00409b80       WndMainMenuProc_
00409c50       OpenSample_
004447e0       _WndMainMenu
00444858       _WndNumMenus
Module: wpgather.obj(/mnt/sda5/.user/root/src/openwatcom-1.9/bld/wprof/c/wpgather.c)
00409c80       GetCurrentGather_
00409cd0       FlipCurrentGather_
00409d60       GatherCurrent_
00409dc0+      GatherImage_
00409ea0+      GatherMod_
00409f70+      GatherFile_
0040a040+      GatherRtn_
Module: wpgetrow.obj(/mnt/sda5/.user/root/src/openwatcom-1.9/bld/wprof/c/wpgetrow.c)
0040a110       SImageGetImage_
0040a160       SModGetModule_
0040a1b0       SFileGetFile_
0040a200       SRtnGetRoutine_
0040a250       WPGetRow_
Module: wphelp.obj(/mnt/sda5/.user/root/src/openwatcom-1.9/bld/wprof/c/wphelp.c)
0040a440       WPInitHelp_
0040a460       WPFiniHelp_
0040a480       WPProcHelp_
Module: wpmain.obj(/mnt/sda5/.user/root/src/openwatcom-1.9/bld/wprof/c/wpmain.c)
0040a520       GUImain_
0040a560       WndProcMacro_
Module: wpnumrow.obj(/mnt/sda5/.user/root/src/openwatcom-1.9/bld/wprof/c/wpnumrow.c)
0040a5b0       SampleNumRows_
Module: wppushin.obj(/mnt/sda5/.user/root/src/openwatcom-1.9/bld/wprof/c/wppushin.c)
0040a670*      WPPopPtr_
0040a690       WndDoInput_
0040a6b0+      WPPushEvent_
0040a6e0*      WPPushPtrEvent_
0040a720+      WPPopEvent_
Module: wpsamp.obj(/mnt/sda5/.user/root/src/openwatcom-1.9/bld/wprof/c/wpsamp.c)
0040a910       WPSampleOpen_
0040bfe0+      WPZoomIn_
0040c150+      WPBackOut_
0040c170       WPDoPopUp_
0040c1a0       WPFindDoPopUp_
004449e0+      _WPSampleInfo
Module: wpsort.obj(/mnt/sda5/.user/root/src/openwatcom-1.9/bld/wprof/c/wpsort.c)
0040c500       GetCurrentSort_
0040c540       SetCurrentSort_
0040c5a0       SortCurrent_
0040c5e0+      SortImage_
0040c610+      SortMod_
0040c640+      SortFile_
0040c670+      SortRtn_
Module: wpstart.obj(/mnt/sda5/.user/root/src/openwatcom-1.9/bld/wprof/c/wpstart.c)
00444a70       _WPWndInitDone
00444a74       _WProfDips
0040c7d0       WPInit_
0040c850       WPFini_
00447510       _SamplePath
Module: wpsrcfil.obj(/mnt/sda5/.user/root/src/openwatcom-1.9/bld/wprof/c/wpsrcfil.c)
0040cb50       WPSourceGetLine_
0040cbd0       WPSourceOpen_
0040cd30       WPSourceClose_
0040cd60       WPGetMassgdSampData_
Module: wpwind.obj(/mnt/sda5/.user/root/src/openwatcom-1.9/bld/wprof/c/wpwind.c)
0040cf80       WPGetClientHeight_
0040cfa0       WPGetClientWidth_
0040cfd0       WPAdjustRowHeight_
0040d080       WPSetRowHeight_
0040d090       WPPixelTruncWidth_
0040d0b0       WPPixelWidth_
Module: dipman.obj(/mnt/sda5/.user/root/src/openwatcom-1.9/bld/dig/c/dipman.c)
0040d0f0*      DCSymCreate_
0040d0f0+      XDIPCliSymCreate_
0040d110       DIPInit_
0040d160       DIPLoad_
0040d1f0*      DIPRegister_
0040d250*      DIPFiniLatest_
0040d2b0       DIPFini_
0040d300       DIPHandleSize_
0040d320       DIPMoreMem_
0040d360*      DIPCancel_
0040d3e0+      FindImageMapSlot_
0040d510       DIPCreateProcess_
0040d660       DIPSetProcess_
0040d670       DIPDestroyProcess_
0040d6a0       DIPPriority_
0040d6f0       DIPLoadInfo_
0040d800       DIPMapInfo_
0040d860*      DIPUnloadInfo_
0040d8b0*      DIPImagePriority_
0040d900+      WalkImageList_
0040d9c0       WalkModList_
0040da20*      WalkTypeList_
0040dcb0+      WalkSymListEx_
0040dce0       WalkSymList_
0040dd00*      WalkFileList_
0040ddb0       ImageExtra_
0040de00       ImageDIP_
0040de50       ModName_
0040deb0       ModSrcLang_
0040df10*      ModHasInfo_
0040df80*      ModDefault_
0040dff0       ModAddr_
0040e060*      TypeMod_
0040e0b0*      TypeInfo_
0040e150*      TypeCreate_
0040e170*      TypePointer_
0040e1f0*      TypeBase_
0040e2a0*      TypeAddRef_
0040e2f0*      TypeRelease_
0040e340*      TypeFreeAll_
0040e380*      TypeArrayInfo_
0040e400*      TypeProcInfo_
0040e460*      TypePtrAddrSpace_
0040e4c0*      TypeThunkAdjust_
0040e520*      TypeCmp_
0040e580*      TypeName_
0040e5d0*      SymMod_
0040e610       SymName_
0040e660*      SymType_
0040e6b0       SymLocation_
0040e6f0*      SymValue_
0040e730       SymInfo_
0040e780*      SymParmLocation_
0040e7d0*      SymObjType_
0040e820*      SymObjLocation_
0040e870       SymCmp_
0040e8d0*      SymAddRef_
0040e920*      SymRelease_
0040e970*      SymFreeAll_
0040e9b0*      CueMod_
0040ea00       CueFile_
0040ea40       CueFileId_
0040ea80*      CueAdjust_
0040eae0       CueLine_
0040eb20*      CueColumn_
0040eb60       CueAddr_
0040ebd0       LineCue_
0040ec60       AddrCue_
0040ed10       CueCmp_
0040ed70       AddrMod_
0040ee30       AddrSym_
0040eef0+      LookupSymEx_
0040f140*      LookupSym_
0040f150*      AddrScope_
0040f1f0*      ScopeOuter_
00444a80       _DIPDefaults
00444aa6+      _DIPClientInterface
Module: dipld.obj(/mnt/sda5/.user/root/src/openwatcom-1.9/bld/dig/c/nt/dipld.c)
0040f290       DIPSysLoad_
0040f380       DIPSysUnload_
Module: madman.obj(/mnt/sda5/.user/root/src/openwatcom-1.9/bld/dig/c/madman.c)
00444af4+      _MADClientInterface
0040f540       MADTypeInfoForHost_
0040f5d0       MADInit_
0040f620       MADRegister_
0040f7a0       MADLoad_
0040f930+      MADUnload_
0040f980       MADLoaded_
0040f9c0       MADActiveSet_
0040f9f0*      MADStateCreate_
0040fa50*      MADStateSet_
0040fac0*      MADStateCopy_
0040fae0+      MADStateDestroy_
0040fb30       MADFini_
0040fb60*      MADWalk_
0040fb90       MADNameFile_
0040fc00*      MADNameDescription_
0040fc80       MADAddrAdd_
0040fcc0       MADAddrComp_
0040fcf0*      MADAddrDiff_
0040fd20*      MADAddrMap_
0040fd30*      MADAddrFlat_
0040fd40*      MADAddrInterrupt_
0040fd70*      MADTypeWalk_
0040fda0*      MADTypeName_
0040fdc0*      MADTypePreferredRadix_
0040fdf0*      MADTypeForDIPType_
0040fe10       MADTypeInfo_
0040ff20       MADTypeDefault_
00410850       MADTypeConvert_
00410d50       MADTypeToString_
00410de0*      MADTypeHandleToString_
00410e10*      MADRegistersSize_
00410e20*      MADRegistersHost_
00410e30*      MADRegistersTarget_
00410e50*      MADRegSetWalk_
00410e80*      MADRegSetName_
00410eb0*      MADRegSetLevel_
00410ec0*      MADRegSetDisplayGrouping_
00410ee0*      MADRegSetDisplayGetPiece_
00410f30*      MADRegSetDisplayModify_
00410f50*      MADRegSetDisplayToggleList_
00410f60*      MADRegSetDisplayToggle_
00410f70*      MADRegModified_
00410f90*      MADRegInspectAddr_
00410fe0+      MADRegWalk_
00411170*      MADRegFullName_
004111d0*      MADRegSpecialGet_
00411200*      MADRegSpecialSet_
00411230*      MADRegSpecialName_
00411260*      MADRegFromContextItem_
00411290*      MADRegUpdateStart_
004112c0*      MADRegUpdateEnd_
004112e0*      MADCallStackGrowsUp_
00411300*      MADCallTypeList_
00411320*      MADCallBuildFrame_
00411370*      MADCallReturnReg_
004113b0*      MADCallParmRegList_
004113e0*      MADCallUpStackSize_
004113f0*      MADCallUpStackInit_
00411420*      MADCallUpStackLevel_
00411460       MADDisasmDataSize_
00411480*      MADDisasmNameMax_
004114a0       MADDisasm_
00411510       MADDisasmFormat_
00411530       MADDisasmInsSize_
00411550*      MADDisasmInsUndoable_
00411580*      MADDisasmControl_
004115a0*      MADDisasmInsNext_
004115d0*      MADDisasmInspectAddr_
00411620*      MADDisasmMemRefWalk_
00411650*      MADDisasmToggleList_
00411660*      MADDisasmToggle_
00411680*      MADTraceSize_
004116a0*      MADTraceInit_
004116d0*      MADTraceOne_
00411700*      MADTraceHaveRecursed_
00411730*      MADTraceSimulate_
00411760*      MADTraceFini_
004117a0*      MADUnexpectedBreak_
Module: madld.obj(/mnt/sda5/.user/root/src/openwatcom-1.9/bld/dig/c/nt/madld.c)
004117d0       MADSysLoad_
004118c0       MADSysUnload_
Module: i64.obj(/mnt/sda5/.user/root/src/openwatcom-1.9/bld/watcom/c/i64.c)
004118d0*      I32ToI64_
004118e0       U32ToU64_
004118f0       U64Neg_
00411920+      U64Add_
00411940*      U64IncDec_
00411970+      U64Sub_
00411990*      U64Mul_
00411a00       U64Div_
00411b00*      I64Div_
00411bb0+      U64Cmp_
00411bf0*      U64Test_
00411c10*      I64Cmp_
00411c40*      I64Test_
00411c70*      I64ShiftR_
00411cc0+      U64ShiftR_
00411d20*      U64Shift_
00411d30+      U64ShiftL_
Module: finger.obj(/mnt/sda5/.user/root/src/openwatcom-1.9/bld/wprof/c/finger.c)
00444c84       _AboutMessage
00444c9c       _AboutSize
Module: /mnt/sda5/.user/root/src/openwatcom-1.9/bld/aui/nt386/aui.lib(/mnt/sda5/.user/root/src/openwatcom-1.9/bld/aui/c/wndmeth.c)
00411e40       NoScroll_
00411e40*      WndNoOpen_
00411e50+      NoGetLine_
00411e60       NoEndPaint_
00411e60       NoBegPaint_
00411e60       NoNotify_
00411e60       NoModify_
00411e70       NoRefresh_
00411e80       NoMenuItem_
00411e90       NoNumRows_
00411ea0       NoNextRow_
00411eb0+      NoEventProc_
00411ed0       WndMenuItem_
00411ef0       WndFiniCacheLines_
00411f20       WndKillCacheEntries_
00411f80       WndKillCacheLines_
00412130       WndSetCache_
00412180*      WndGetLineAbs_
00412190       WndGetLine_
004122a0       WndFirstMenuItem_
004122c0*      WndNoRow_
004122d0       WndModify_
004122f0       WndNotify_
00412310       WndBegPaint_
00412330       WndEndPaint_
00412350       WndRefresh_
00412370       WndEvent_
00412380       WndNumRows_
00412390       WndNextRow_
00444ca0       _NoInfo
0044773c+      _CacheLine
0044886c+      _CacheCurr
Module: /mnt/sda5/.user/root/src/openwatcom-1.9/bld/aui/nt386/aui.lib(/mnt/sda5/.user/root/src/openwatcom-1.9/bld/aui/c/wndcreat.c)
004123a0*      WndSetTitleSize_
004123b0*      WndSetTitle_
004123c0*      WndGetTitle_
00412610       WndCreateWithStruct_
00412640       WndCreateWithStructAndMenuRes_
00412670       WndInitCreateStruct_
004126b0       WndCreate_
004126e0       WndDestroy_
00412760       WndClose_
00412780*      WndSetMainMenuText_
004127b0*      WndSetIcon_
00444cd8       _WndMainMenuPtr
00448874       _WndPopupMenuPtr
Module: /mnt/sda5/.user/root/src/openwatcom-1.9/bld/aui/nt386/aui.lib(/mnt/sda5/.user/root/src/openwatcom-1.9/bld/aui/c/wndshrnk.c)
004127c0*      WndShrinkToMouse_
00412950*      WndMinimizeWindow_
00412960*      WndMaximizeWindow_
00412970       WndIsMinimized_
004129b0*      WndIsMaximized_
004129c0*      WndRestoreWindow_
004129d0*      WndGetRect_
004129e0       WndShowWindow_
004129f0       WndResizeWindow_
00412a00       WndShowAll_
Module: /mnt/sda5/.user/root/src/openwatcom-1.9/bld/aui/nt386/aui.lib(/mnt/sda5/.user/root/src/openwatcom-1.9/bld/aui/c/wndutil.c)
00412a80       WndCharCol_
00412ab0       WndLastCharCol_
00412ad0       WndPrevCharCol_
00412ae0*      WndPrevChar_
00412af0       WndCurrToGUIPoint_
00412b10       WndCoordToGUIPoint_
00412b80       WndPieceIsTab_
00412bb0*      WndPieceIsHot_
00412be0       WndFindActive_
00412c10       WndValid_
00412c40       WndDirty_
00412c50       WndZapped_
00412c70       WndExtentX_
00412c90*      WndFindClass_
00412cb0       WndSetWndMax_
00412d00       WndNext_
00412d30*      WndForAllClass_
Module: /mnt/sda5/.user/root/src/openwatcom-1.9/bld/aui/nt386/aui.lib(/mnt/sda5/.user/root/src/openwatcom-1.9/bld/aui/c/wndmsg.c)
00412d70       WndDisplayMessage_
Module: /mnt/sda5/.user/root/src/openwatcom-1.9/bld/aui/nt386/aui.lib(/mnt/sda5/.user/root/src/openwatcom-1.9/bld/aui/c/guimain.c)
00448878+      _WndScale
00448880+      _WndScreen
00448888       _WndMax
00448890+      _WndClickHook
00448898       _WndMain
0044889c*      _WndSwitches
00444cdc       _WndMaxDirtyRects
00444ce0+      _WndDClick
00444ce4+      _WndIgnoreAllEvents
00412da0*      WndGetDClick_
00412db0*      WndSetDClick_
00412e30*      WndInitWithMenuRes_
00412ef0       WndInit_
00412f00       WndShowWndMain_
00412f10       WndFini_
00412f40*      WndInitNumRows_
004130b0*      WndInstallClickHook_
004138f0*      WndArrowCursor_
00413920*      WndSetCursor_
00413950       WndHourGlass_
00413960*      WndHourCursor_
004139a0       WndMainEventProc_
Module: /mnt/sda5/.user/root/src/openwatcom-1.9/bld/aui/nt386/aui.lib(/mnt/sda5/.user/root/src/openwatcom-1.9/bld/aui/c/wnddlg.c)
00413a50       DlgGetParent_
00413a80       DlgOpen_
00413ac0*      ResDlgOpen_
Module: /mnt/sda5/.user/root/src/openwatcom-1.9/bld/gui/ui/nt386/gui.lib(/mnt/sda5/.user/root/src/openwatcom-1.9/bld/gui/ui/c/guicheck.c)
00413b00       GUIIsChecked_
00413b50       GUISetChecked_
Module: /mnt/sda5/.user/root/src/openwatcom-1.9/bld/gui/ui/nt386/gui.lib(/mnt/sda5/.user/root/src/openwatcom-1.9/bld/gui/c/guindlg.c)
00413bc0       GUIDlgBuffGetText_
00413f30*      GUISetModalDlgs_
00413f40       GUIDlgOpen_
00413f70       GUIModalDlgOpen_
00413fa0*      GUISysModalDlgOpen_
Module: /mnt/sda5/.user/root/src/openwatcom-1.9/bld/gui/ui/nt386/gui.lib(/mnt/sda5/.user/root/src/openwatcom-1.9/bld/gui/ui/c/guixedit.c)
00413fd0       GUISetEditText_
00414080       GUISetText_
004141a0*      GUIClearText_
004141b0*      GUISelectAll_
Module: /mnt/sda5/.user/root/src/openwatcom-1.9/bld/aui/nt386/aui.lib(/mnt/sda5/.user/root/src/openwatcom-1.9/bld/aui/c/wndfdlg.c)
004141c0+      DlgGetFileName_
004141f0       DlgFileBrowse_
Module: /mnt/sda5/.user/root/src/openwatcom-1.9/bld/gui/ui/nt386/gui.lib(/mnt/sda5/.user/root/src/openwatcom-1.9/bld/gui/ui/c/guifocus.c)
00414320       GUISetFocus_
Module: /mnt/sda5/.user/root/src/openwatcom-1.9/bld/gui/ui/nt386/gui.lib(/mnt/sda5/.user/root/src/openwatcom-1.9/bld/gui/ui/c/guixdlg.c)
00414350*      GUISetJapanese_
004143a0       GUIDeleteDialog_
004143e0       GUIGetDlgByWnd_
00414450+      GUIGetControlId_
004144b0       GUIGetDialog_
004144c0       GUIGetField_
00414500       GUIPushControlEvents_
00414510       GUIPopControlEvents_
00414560       GUIInsertDialog_
004145f0       GUIRefreshControl_
00414650       GUIGetList_
004146a0       GUIGetFocus_
00414710+      GUIDoFreeField_
00414870+      GUIDoAddControl_
00414b60       GUIDeleteField_
00414cd0       GUIAddAControl_
00414db0       GUIResizeDialog_
00414eb0       GUIFocusChangeNotify_
00414f00       GUIProcessControlNotify_
00414f90       GUIXCreateDialog_
00415260       GUIFreeDialog_
004152b0       GUICloseDialog_
004152e0       GUIGetDlgRect_
Module: /mnt/sda5/.user/root/src/openwatcom-1.9/rel2/lib386/math387r.lib(strtod.c)
0041584c+      __Strtold_
004159b3       strtod_
Module: /mnt/sda5/.user/root/src/openwatcom-1.9/rel2/lib386/math387r.lib(fchop87)
00415af8       __CHP
Module: /mnt/sda5/.user/root/src/openwatcom-1.9/rel2/lib386/nt/emu387.lib(386)
00415b10       __init_387_emulator
00415b11*      __fini_387_emulator
Module: /mnt/sda5/.user/root/src/openwatcom-1.9/bld/gui/ui/nt386/gui.lib(/mnt/sda5/.user/root/src/openwatcom-1.9/bld/gui/ui/c/guixsys.c)
00415b20+      GUIWndGetEvent_
00415b40       uistartevent_
00415b50       uidoneevent_
00415bc0       GUICleanup_
00415c80       GUIXMain_
00415cc0       GUIXSetupWnd_
00415cf0       GUISetBackgroundChar_
00415d00+      GUISetupStruct1_
00415d20+      GUISetupStruct2_
00415df0       GUISetupStruct_
00415e20       GUIXCreateWindow_
00444e00       _GUICurrWnd
00444e04       _GUIAllEvents
Module: /mnt/sda5/.user/root/src/openwatcom-1.9/bld/gui/ui/nt386/gui.lib(/mnt/sda5/.user/root/src/openwatcom-1.9/bld/gui/c/guimem.c)
00415f40*      GUIMemPrintLine_
00415f40*      GUIMemPrtUsage_
00415f40       GUIMemClose_
00415f40       GUIMemOpen_
00415f40*      GUIMemRedirect_
00415f50       GUIMemAlloc_
00415f60       GUIMemFree_
00415f70       GUIMemRealloc_
Module: /mnt/sda5/.user/root/src/openwatcom-1.9/bld/gui/ui/nt386/gui.lib(/mnt/sda5/.user/root/src/openwatcom-1.9/bld/gui/c/guiisgui.c)
00415f80       GUIIsGUI_
Module: /mnt/sda5/.user/root/src/openwatcom-1.9/bld/gui/ui/nt386/gui.lib(/mnt/sda5/.user/root/src/openwatcom-1.9/bld/gui/ui/c/guihelp.c)
00415fa0       GUIHelpInit_
00415fb0       GUIHelpFini_
00415fd0       GUIShowHelp_
00416020       GUIShowHtmlHelp_
00416030+      GUIDisplayHelp_
00416080*      GUIDisplayHelpId_
Module: /mnt/sda5/.user/root/src/openwatcom-1.9/bld/aui/nt386/aui.lib(/mnt/sda5/.user/root/src/openwatcom-1.9/bld/aui/c/wndstat.c)
00416090       WndCreateStatusWindow_
004160c0*      WndHaveStatusWindow_
004160e0*      WndCloseStatusWindow_
00416120       WndStatusText_
00416170       GUIClearStatusText_
00416190       WndResetStatusText_
004161a0       WndInternalStatusText_
004488cc+      _WndStatusString
Module: /mnt/sda5/.user/root/src/openwatcom-1.9/bld/aui/nt386/aui.lib(/mnt/sda5/.user/root/src/openwatcom-1.9/bld/aui/c/wndscrol.c)
004161f0*      WndFixedThumb_
00416220*      WndSetThumbPercent_
00416230*      WndSetThumbPos_
00416240*      WndSetVScrollRange_
00416250       WndResetScroll_
00416260*      WndVScrollWidth_
00416280*      WndHasNumRows_
00416290       WndSetThumb_
00416400       WndScrollAbs_
00416410       WndScroll_
00416430       WndSetHScroll_
00416480+      WndCurrHScrollPos_
00416500       WndHScrollToCurr_
00416520       WndHScrollNotify_
Module: /mnt/sda5/.user/root/src/openwatcom-1.9/bld/aui/nt386/aui.lib(/mnt/sda5/.user/root/src/openwatcom-1.9/bld/aui/c/wndfront.c)
00416560       WndToFront_
00416570*      WndRestoreToFront_
004165a0       WndNextNonIconToFront_
004165c0*      WndChooseNew_
Module: /mnt/sda5/.user/root/src/openwatcom-1.9/bld/aui/nt386/aui.lib(/mnt/sda5/.user/root/src/openwatcom-1.9/bld/aui/c/wndcurr.c)
00416600       WndSetPoint_
004168a0       WndGetCurrent_
004168d0       WndNewCurrent_
00416900*      WndMoveCurrent_
00416960       WndHasCurrent_
00416970       WndNoCurrent_
00416990*      WndCurrRow_
004169c0       WndNextCurrent_
00416aa0       WndPrevCurrent_
00416bc0       WndFirstCurrent_
00416be0       WndLastCurrent_
00416c20       WndCheckCurrentValid_
00416cc0       WndCurrVisible_
00416d70       WndDirtyCurr_
00416dc0       WndDirtyCurrChar_
00416df0       WndSetCurrCol_
Module: /mnt/sda5/.user/root/src/openwatcom-1.9/bld/gui/ui/nt386/gui.lib(/mnt/sda5/.user/root/src/openwatcom-1.9/bld/gui/ui/c/guidrawr.c)
00417070*      GUIDrawRect_
00417090*      GUIFillRect_
004170b0       GUIFillBar_
004170d0       GUIDrawLine_
00417190*      GUIDrawRectRGB_
00417190*      GUIFillRectRGB_
004171a0*      GUIDrawLineRGB_
Module: /mnt/sda5/.user/root/src/openwatcom-1.9/bld/aui/nt386/aui.lib(/mnt/sda5/.user/root/src/openwatcom-1.9/bld/aui/c/wnddirt.c)
00417300       WndDirtyScreenRange_
00417320       WndDirtyScreenChar_
00417340       WndDirtyScreenPiece_
00417360       WndAdjustDirt_
00417390       WndDirtyScreenRow_
004173b0*      WndDirtyRect_
004173f0       WndRowDirty_
00417430*      WndRowDirtyImmed_
00417470*      WndPieceDirty_
004174b0*      WndStopRefresh_
004174c0+      WndPaintDirt_
00417830       WndFreshAll_
00444e24       _WndDoingRefresh
Module: /mnt/sda5/.user/root/src/openwatcom-1.9/bld/aui/nt386/aui.lib(/mnt/sda5/.user/root/src/openwatcom-1.9/bld/aui/c/wndpop.c)
004178a0+      CalcMaxId_
004178f0*      NullPopupMenu_
00417980       WndAddPopupMenu_
00417a80       WndNullPopItem_
00417b90+      WndSelPopPiece_
00417dd0       WndSelPopItem_
00417e10+      WndKeyPopItem_
00417e70       WndPopUp_
00417ef0+      WndChangeMenuAll_
00417f70       WndMenuEnableAll_
00417f90       WndMenuGrayAll_
00417fc0*      WndMenuIgnoreAll_
00417ff0*      WndMenuRespectAll_
00418010+      DoMenuBitOn_
004180a0       WndMenuCheck_
004180b0       WndMenuEnable_
004180d0*      WndMenuIgnore_
004180e0+      WndCreateFloatingPopup_
00418130       WndInvokePopUp_
00418260*      WndKeyPopUp_
00418290       WndRowPopUp_
004182d0*      WndSetMainMenu_
00418300       WndClick_
004183d0       WndSetPopup_
00418460*      WndEnableMainMenu_
004184c0*      WndCheckMainMenu_
Module: /mnt/sda5/.user/root/src/openwatcom-1.9/bld/aui/nt386/aui.lib(/mnt/sda5/.user/root/src/openwatcom-1.9/bld/aui/c/wndsel.c)
00418510       WndSelectEvent_
00418590       WndSelEnds_
004185d0       WndSelected_
00418710       WndSelSetStart_
00418740       WndSelGetEndPiece_
00418780*      WndSelSetEnd_
004187a0       WndSelPieceChange_
00418880       WndSelChange_
004188a0       WndNoSelect_
00418930*      WndSelRow_
00418960       SetWndMenuRow_
004189b0       WndToSelectMode_
004189f0       WndEndSelectEvent_
00448920       _WndMenuRow
00448924       _WndMenuPiece
Module: /mnt/sda5/.user/root/src/openwatcom-1.9/bld/gui/ui/nt386/gui.lib(/mnt/sda5/.user/root/src/openwatcom-1.9/bld/gui/ui/c/guicrect.c)
00418a00       GUIGetClientRect_
00418a20*      GUIGetPaintRect_
Module: /mnt/sda5/.user/root/src/openwatcom-1.9/bld/gui/ui/nt386/gui.lib(/mnt/sda5/.user/root/src/openwatcom-1.9/bld/gui/ui/c/guigscrl.c)
00418a50*      GUIGetHScrollCol_
00418a70*      GUIGetVScrollRow_
00418a90       GUIGetHScroll_
00418ac0*      GUIGetVScroll_
Module: /mnt/sda5/.user/root/src/openwatcom-1.9/bld/gui/ui/nt386/gui.lib(/mnt/sda5/.user/root/src/openwatcom-1.9/bld/gui/ui/c/guirect.c)
00418af0       GUIGetRect_
Module: /mnt/sda5/.user/root/src/openwatcom-1.9/bld/gui/ui/nt386/gui.lib(/mnt/sda5/.user/root/src/openwatcom-1.9/bld/gui/c/guipixel.c)
00418b60       GUITruncToPixel_
Module: /mnt/sda5/.user/root/src/openwatcom-1.9/rel2/lib386/math387r.lib(ldcvt.c)
00418c56       _LDScale10x_
004191fd       __LDcvt_
Module: /mnt/sda5/.user/root/src/openwatcom-1.9/bld/gui/ui/nt386/gui.lib(/mnt/sda5/.user/root/src/openwatcom-1.9/bld/gui/ui/c/guistext.c)
00419650       GUISetWindowText_
00419670*      GUIGetWindowTextLength_
004196a0       GUIGetWindowText_
Module: /mnt/sda5/.user/root/src/openwatcom-1.9/bld/gui/ui/nt386/gui.lib(/mnt/sda5/.user/root/src/openwatcom-1.9/bld/gui/c/guicreat.c)
004196f0       GUICreateWindow_
00444ed0       _GUIMDI
Module: /mnt/sda5/.user/root/src/openwatcom-1.9/bld/gui/ui/nt386/gui.lib(/mnt/sda5/.user/root/src/openwatcom-1.9/bld/gui/c/guiextra.c)
00419750       GUISetExtra_
00419760       GUIGetExtra_
Module: /mnt/sda5/.user/root/src/openwatcom-1.9/bld/aui/nt386/aui.lib(/mnt/sda5/.user/root/src/openwatcom-1.9/bld/aui/c/wndclean.c)
00419770       WndCleanUp_
Module: /mnt/sda5/.user/root/src/openwatcom-1.9/bld/gui/ui/nt386/gui.lib(/mnt/sda5/.user/root/src/openwatcom-1.9/bld/gui/ui/c/guixwind.c)
004197b0*      GUIWantPartialRows_
004197d0       GUIFreeWindowMemory_
00419970       GUIDestroyDialog_
00419980       GUICloseWnd_
004199b0       GUIDestroyWnd_
004199c0       GUIGetRow_
004199f0*      GUIGetCol_
00419a20*      GUIShowWindowNA_
00419a20       GUIShowWindow_
00419a30*      GUIHideWindow_
00419a40*      GUIIsWindowVisible_
00419a50*      GUIIsFirstInstance_
00419a60*      GUIStopTimer_
00419a60*      GUIStartTimer_
Module: /mnt/sda5/.user/root/src/openwatcom-1.9/bld/gui/ui/nt386/gui.lib(/mnt/sda5/.user/root/src/openwatcom-1.9/bld/gui/ui/c/guimenu.c)
00419bc0       GUIFreeMenuItems_
00419c00+      GUIAllocMenuItems_
00419dc0       GUIGetMenuPopupCount_
00419e00       GUIEnableMenuItem_
00419e70       GUISetMenuText_
00419f00       GUICheckMenuItem_
00419f60       GUIChangeMenu_
00419fe0+      GUIGetNumIgnore_
0041a010       GUICreateMenuItems_
0041a0a0+      GUIAllocVBarMenu_
0041a3d0       GUICreateMenus_
0041a450+      GUIFreeVBarMenu_
0041a480       GUIFreeMenus_
0041a4c0       GUISetBetweenTitles_
0041a4d0*      GUIAppendMenuByOffset_
0041a610       GUIDeleteMenuItem_
0041a6a0       GUIDeleteToolbarMenuItem_
0041a710       GUIResetMenus_
0041a7b0*      GUIEnableMenus_
0041a840+      GUIInsertMenu_
0041a8c0*      GUIInsertMenuByID_
0041a940*      GUIAppendMenu_
0041a990       GUIAppendToolbarMenu_
0041a9e0+      AddMenuItemToPopup_
0041aa70       GUIAppendMenuToPopup_
0041aa90       GUIInsertMenuToPopup_
Module: /mnt/sda5/.user/root/src/openwatcom-1.9/bld/gui/ui/nt386/gui.lib(/mnt/sda5/.user/root/src/openwatcom-1.9/bld/gui/ui/c/guisicon.c)
0041aab0       GUISetIcon_
Module: /mnt/sda5/.user/root/src/openwatcom-1.9/bld/gui/ui/nt386/gui.lib(/mnt/sda5/.user/root/src/openwatcom-1.9/bld/gui/ui/c/guimouse.c)
0041ab00       GUIGetMousePosn_
Module: /mnt/sda5/.user/root/src/openwatcom-1.9/bld/gui/ui/nt386/gui.lib(/mnt/sda5/.user/root/src/openwatcom-1.9/bld/gui/ui/c/guisize.c)
0041ad00*      GUISetCheckResizeAreaForChildren_
0041ad20       GUICheckResizeAreaForChildren_
0041ade0       GUICheckResizeAreaForParent_
0041b0f0       GUICheckMove_
0041b280       GUICheckArea_
0041b3d0       GUIWndMoveSize_
0041b500+      GUICalcIconArea_
0041b6d0       GUIZoomWnd_
0041b810       GUIResizeWindow_
0041b8b0       GUISetRestoredSize_
0041b900*      GUIGetRestoredSize_
0041b950       GUIMinimizeWindow_
0041b970       GUIMaximizeWindow_
0041b990       GUIRestoreWindow_
0041b9b0       GUIIsMaximized_
0041b9c0       GUIIsMinimized_
Module: /mnt/sda5/.user/root/src/openwatcom-1.9/bld/gui/ui/nt386/gui.lib(/mnt/sda5/.user/root/src/openwatcom-1.9/bld/gui/c/guizlist.c)
0041b9f0       GUIDeleteFromList_
0041ba30       GUIFrontOfList_
0041ba50       GUIGetFront_
0041ba60       GUIGetNextWindow_
0041ba80       GUIIsValidWindow_
Module: /mnt/sda5/.user/root/src/openwatcom-1.9/bld/gui/ui/nt386/gui.lib(/mnt/sda5/.user/root/src/openwatcom-1.9/bld/gui/ui/c/guiclen.c)
0041bab0       GUICharLen_
0041bac0*      GUIIsDBCS_
Module: /mnt/sda5/.user/root/src/openwatcom-1.9/bld/gui/ui/nt386/gui.lib(/mnt/sda5/.user/root/src/openwatcom-1.9/bld/gui/ui/c/guixtent.c)
0041bad0       GUIGetExtentX_
0041bb20*      GUIGetControlExtentX_
0041bb30*      GUIGetControlExtentY_
0041bb40*      GUIGetExtentY_
Module: /mnt/sda5/.user/root/src/openwatcom-1.9/bld/gui/ui/nt386/gui.lib(/mnt/sda5/.user/root/src/openwatcom-1.9/bld/gui/ui/c/guidirty.c)
0041bb60       GUIWndDirty_
Module: /mnt/sda5/.user/root/src/openwatcom-1.9/bld/aui/nt386/aui.lib(/mnt/sda5/.user/root/src/openwatcom-1.9/bld/aui/c/wndresiz.c)
0041bbf0       WndMainResized_
Module: /mnt/sda5/.user/root/src/openwatcom-1.9/bld/gui/ui/nt386/gui.lib(/mnt/sda5/.user/root/src/openwatcom-1.9/bld/gui/ui/c/guixdisp.c)
0041bd20+      DisplayMessage_
0041bd50+      GUIStrnDup_
0041bdc0+      TabFilter_
0041c020+      AdjustVert_
0041c190       GUIDisplayMessage_
Module: /mnt/sda5/.user/root/src/openwatcom-1.9/bld/gui/ui/nt386/gui.lib(/mnt/sda5/.user/root/src/openwatcom-1.9/bld/gui/ui/c/guidbclk.c)
0041c380       GUISetDClickRate_
Module: /mnt/sda5/.user/root/src/openwatcom-1.9/bld/gui/ui/nt386/gui.lib(/mnt/sda5/.user/root/src/openwatcom-1.9/bld/gui/c/guirscal.c)
0041c3a0       GUIGetRoundScale_
Module: /mnt/sda5/.user/root/src/openwatcom-1.9/bld/gui/ui/nt386/gui.lib(/mnt/sda5/.user/root/src/openwatcom-1.9/bld/gui/c/guiscale.c)
0041c400       GUISetScale_
0041c430       GUIGetScale_
0041c460       GUISetScreen_
0041c480       GUIGetScreen_
0041c4b0+      GUIConvert_
0041c540       GUIConvertRect_
0041c580+      GUIConvertPoint_
0041c5d0*      GUIScaleToScreen_
0041c5f0       GUIScaleToScreenR_
0041c610*      GUIScreenToScale_
0041c630       GUIScreenToScaleR_
0041c650       GUIScaleToScreenRPt_
0041c670*      GUIScreenToScaleRPt_
Module: /mnt/sda5/.user/root/src/openwatcom-1.9/bld/gui/ui/nt386/gui.lib(/mnt/sda5/.user/root/src/openwatcom-1.9/bld/gui/ui/c/guixinit.c)
0041c6a0       GUIGetWindowStyles_
0041c6b0       GUIWndInit_
0041c7c0*      GUISetF10Menus_
0041c7e0       GUIIsInit_
Module: /mnt/sda5/.user/root/src/openwatcom-1.9/bld/gui/ui/nt386/gui.lib(/mnt/sda5/.user/root/src/openwatcom-1.9/bld/gui/c/guiimmdi.c)
0041c7f0       GUIMDIInitMenuOnly_
Module: /mnt/sda5/.user/root/src/openwatcom-1.9/bld/gui/ui/nt386/gui.lib(/mnt/sda5/.user/root/src/openwatcom-1.9/bld/gui/ui/c/guistub.c)
0041c840*      GUIGetEditSelect_
0041c840*      GUISetEditSelect_
0041c840*      GUIIsControlEnabled_
0041c840*      GUIEnableControl_
0041c840*      GUISetHorizontalExtent_
0041c840       GUI3DDialogInit_
0041c840*      GUIFontsSupported_
0041c840*      GUISetSystemFont_
0041c840*      GUISetFontInfo_
0041c840*      GUIChangeFont_
0041c850       GUISetMouseCursor_
0041c850*      GUIGetFontFromUser_
0041c850*      GUIGetFontInfo_
0041c860*      GUIScrollCaret_
0041c860*      GUIShowControl_
0041c860*      GUIHideControl_
0041c860       GUIResetMouseCursor_
Module: /mnt/sda5/.user/root/src/openwatcom-1.9/bld/gui/ui/nt386/gui.lib(/mnt/sda5/.user/root/src/openwatcom-1.9/bld/gui/ui/c/guicolor.c)
0041c890       GUIXSetColours_
0041c950*      GUIGetBack_
0041c960*      GUIGetFore_
0041c970       GUIMakeColour_
0041c980*      GUISetWindowColours_
0041c9c0       GUISetDialColours_
0041cd00       GUIResetDialColours_
0041cd30       GUISetBackgroundColour_
0041cd50*      GUIGetDialogColours_
0041cda0*      GUISetDialogColours_
0041cde0+      GetColour_
0041ce00       GUIXGetWindowColours_
0041ce50*      GUIGetRGBFromUser_
0041ce50*      GUIGetRGB_
0041ce50*      GUISetRGB_
0041ce60*      GUIGetWndColour_
0041cea0*      GUISetWndColour_
Module: /mnt/sda5/.user/root/src/openwatcom-1.9/bld/aui/nt386/aui.lib(/mnt/sda5/.user/root/src/openwatcom-1.9/bld/aui/c/wndsysin.c)
0041ced0       WndSysInit_
Module: /mnt/sda5/.user/root/src/openwatcom-1.9/bld/aui/nt386/aui.lib(/mnt/sda5/.user/root/src/openwatcom-1.9/bld/aui/c/wndmnsz.c)
0041cee0       WndSetWndMainSize_
Module: /mnt/sda5/.user/root/src/openwatcom-1.9/bld/aui/nt386/aui.lib(/mnt/sda5/.user/root/src/openwatcom-1.9/bld/aui/c/wndbgch.c)
004451c4       _WndBackgroundChar
Module: /mnt/sda5/.user/root/src/openwatcom-1.9/bld/gui/ui/nt386/gui.lib(/mnt/sda5/.user/root/src/openwatcom-1.9/bld/gui/ui/c/guixdraw.c)
0041cf10       GUIInitDrawingChars_
0041d0d0       GUIGetCharacter_
0041d0f0*      GUISetCharacter_
0041d880       GUIWndRfrshArea_
0041da20       GUIWndUpdate_
00448948       _DrawingChars
Module: /mnt/sda5/.user/root/src/openwatcom-1.9/bld/aui/nt386/aui.lib(/mnt/sda5/.user/root/src/openwatcom-1.9/bld/aui/c/wndshthk.c)
0041da80       WndShutDownHook_
Module: /mnt/sda5/.user/root/src/openwatcom-1.9/bld/gui/ui/nt386/gui.lib(/mnt/sda5/.user/root/src/openwatcom-1.9/bld/gui/ui/c/guigetnr.c)
0041da90       GUIGetNumRows_
Module: /mnt/sda5/.user/root/src/openwatcom-1.9/bld/gui/ui/nt386/gui.lib(/mnt/sda5/.user/root/src/openwatcom-1.9/bld/gui/ui/c/guitextm.c)
0041daa0       GUIGetTextMetrics_
0041dad0       GUIGetDlgTextMetrics_
0041dae0*      GUIGetMaxDialogSize_
Module: /mnt/sda5/.user/root/src/openwatcom-1.9/bld/gui/ui/nt386/gui.lib(/mnt/sda5/.user/root/src/openwatcom-1.9/bld/gui/ui/c/guirange.c)
0041db40       GUISetHScrollRange_
0041db70*      GUISetVScrollRange_
0041dba0*      GUISetHScrollRangeCols_
0041dbc0       GUISetVScrollRangeRows_
0041dbe0+      GUIGetVScrollRangeRows_
0041dc00*      GUIGetVScrollRange_
0041dc30+      GUIGetHScrollRangeCols_
0041dc50*      GUIGetHScrollRange_
Module: /mnt/sda5/.user/root/src/openwatcom-1.9/bld/aui/nt386/aui.lib(/mnt/sda5/.user/root/src/openwatcom-1.9/bld/aui/c/wndrszhk.c)
0041dc80       WndResizeHook_
Module: /mnt/sda5/.user/root/src/openwatcom-1.9/bld/aui/nt386/aui.lib(/mnt/sda5/.user/root/src/openwatcom-1.9/bld/aui/c/wndchoos.c)
0041dc90       WndChooseEvent_
0041dcf0*      WndDoneChoose_
0041dd00       WndKeyEscape_
0041dd20*      WndStartChoose_
0041dd30       WndSayMatchMode_
0041de60       WndKeyChoose_
0041e050       WndKeyRubOut_
Module: /mnt/sda5/.user/root/src/openwatcom-1.9/bld/aui/nt386/aui.lib(/mnt/sda5/.user/root/src/openwatcom-1.9/bld/aui/c/wndmouse.c)
0041e0f0*      WndGetMouseRow_
0041e1b0       WndLButtonDown_
0041e290       WndLButtonUp_
0041e360       WndLDblClk_
0041e3e0       WndRButtonDown_
0041e4e0       WndRButtonUp_
0041e560       WndMouseButtonIsDown_
0041e580       WndIgnoreMouseMove_
0041e5a0       WndMouseMove_
Module: /mnt/sda5/.user/root/src/openwatcom-1.9/bld/aui/nt386/aui.lib(/mnt/sda5/.user/root/src/openwatcom-1.9/bld/aui/c/wndcrsr.c)
0041e620+      WndAtTop_
0041e7c0       WndScrollUp_
0041e810       WndScrollDown_
0041e860       WndCursorUp_
0041e880       WndCursorDown_
0041e8c0       WndPageUp_
0041e8e0       WndPageDown_
0041e900       WndTabLeft_
0041e960       WndCursorLeft_
0041ea00       WndTabRight_
0041ea60       WndCursorRight_
0041eaf0       WndScrollTop_
0041eb10       WndScrollBottom_
0041eb30       WndCursorStart_
0041eb40       WndCursorEnd_
Module: /mnt/sda5/.user/root/src/openwatcom-1.9/bld/aui/nt386/aui.lib(/mnt/sda5/.user/root/src/openwatcom-1.9/bld/aui/c/wndfonhk.c)
0041eb50       WndFontHook_
Module: /mnt/sda5/.user/root/src/openwatcom-1.9/bld/gui/ui/nt386/gui.lib(/mnt/sda5/.user/root/src/openwatcom-1.9/bld/gui/ui/c/guistat.c)
0041ebc0       GUICreateStatusWindow_
0041ec40       GUIResizeStatusWindow_
0041ecc0       GUIDrawStatus_
0041ed40       GUIDrawStatusText_
0041eda0       GUIHasStatus_
0041edb0       GUIFreeStatus_
0041edf0       GUIResizeStatus_
0041ee20       GUICloseStatusWindow_
Module: /mnt/sda5/.user/root/src/openwatcom-1.9/bld/aui/nt386/aui.lib(/mnt/sda5/.user/root/src/openwatcom-1.9/bld/aui/c/wndpaint.c)
0041f290+      WndPaintRows_
0041f3f0       WndProcPaint_
0041f410*      WndForcePaint_
Module: /mnt/sda5/.user/root/src/openwatcom-1.9/bld/gui/ui/nt386/gui.lib(/mnt/sda5/.user/root/src/openwatcom-1.9/bld/gui/ui/c/guiflush.c)
0041f440       GUIFlushKeys_
Module: /mnt/sda5/.user/root/src/openwatcom-1.9/bld/aui/nt386/aui.lib(/mnt/sda5/.user/root/src/openwatcom-1.9/bld/aui/c/wndchar.c)
0041f450*      WndSetIDChars_
0041f460       WndIDChar_
0041f4b0       WndKeyChar_
Module: /mnt/sda5/.user/root/src/openwatcom-1.9/bld/aui/nt386/aui.lib(/mnt/sda5/.user/root/src/openwatcom-1.9/bld/aui/c/wndqryhk.c)
0041f4c0       WndQueryEndSessionHook_
Module: /mnt/sda5/.user/root/src/openwatcom-1.9/bld/aui/nt386/aui.lib(/mnt/sda5/.user/root/src/openwatcom-1.9/bld/aui/c/wndendhk.c)
0041f4d0       WndEndSessionHook_
Module: /mnt/sda5/.user/root/src/openwatcom-1.9/bld/aui/nt386/aui.lib(/mnt/sda5/.user/root/src/openwatcom-1.9/bld/aui/c/wndtool.c)
0041f4e0*      WndCreateToolBar_
0041f550*      WndCreateToolBarWithTips_
0041f5c0*      WndHaveToolBar_
0041f5d0*      WndCloseToolBar_
0041f5f0*      WndToolHeight_
0041f600*      WndToolFixed_
0041f610       WndSetToolBar_
004489a4+      _ToolHeight
Module: /mnt/sda5/.user/root/src/openwatcom-1.9/bld/aui/nt386/aui.lib(/mnt/sda5/.user/root/src/openwatcom-1.9/bld/aui/c/wndldstr.c)
0041f630       WndLoadString_
Module: /mnt/sda5/.user/root/src/openwatcom-1.9/bld/aui/nt386/aui.lib(/mnt/sda5/.user/root/src/openwatcom-1.9/bld/aui/c/wndspawn.c)
0041f690*      Spawn_
0041f6d0       SpawnP_
0041f710*      Suicide_
Module: /mnt/sda5/.user/root/src/openwatcom-1.9/bld/gui/ui/nt386/gui.lib(/mnt/sda5/.user/root/src/openwatcom-1.9/bld/gui/c/guidlg.c)
0041f770       GUICreateDialog_
0041f780       GUICreateResDialog_
0041f7a0       GUICreateSysModalDialog_
Module: /mnt/sda5/.user/root/src/openwatcom-1.9/bld/gui/ui/nt386/gui.lib(/mnt/sda5/.user/root/src/openwatcom-1.9/bld/gui/ui/c/guigtext.c)
0041f880       GUIGetText_
0041f8a0       GUIGetListItem_
Module: /mnt/sda5/.user/root/src/openwatcom-1.9/bld/gui/ui/nt386/gui.lib(/mnt/sda5/.user/root/src/openwatcom-1.9/bld/gui/ui/c/guismetr.c)
0041f8b0       GUIGetSystemMetrics_
Module: /mnt/sda5/.user/root/src/openwatcom-1.9/bld/gui/ui/nt386/gui.lib(/mnt/sda5/.user/root/src/openwatcom-1.9/bld/gui/c/guisdef.c)
004489ac       ___LITApplIcon
004489b0       ___LITEmpty
004489b4       ___LITBrightGreen
004489b8       ___LITOS2_Dialog_Font
004489bc       ___LITBrightCyan
004489c0       ___LITBrightBlue
004489c4       ___LITBrightRed
004489c8       ___LITBlank
004489cc       ___LITBrightYellow
004489d0       ___LITTable_of_Contents
004489d4       ___LITInternal_Last_Message
004489d8       ___LITBrightWhite
004489dc       ___LITBrightMagenta
004489e0       ___LITWhite
004489e4       ___LITWindows_Dialog_Font
004489e8       ___LITGrey
004489ec       ___LITXNo
004489f0       ___LITXIgnore
004489f4       ___LITBlack
004489f8       ___LITFix_Toolbar_Hint
004489fc       ___LITCyan
00448a00       ___LITBrown
00448a04       ___LITBlue
00448a08       ___LITGreen
00448a0c       ___LITExclamation
00448a10       ___LITXAbort
00448a14       ___LITWindow_Name_Hint
00448a18       ___LITColour
00448a1c       ___LITXFix_Toolbar
00448a20       ___LITStop_Bang
00448a24       ___LITMagenta
00448a28       ___LITRed
00448a2c       ___LITXRetry
00448a30       ___LITSelect_Window
00448a34       ___LITXYes
00448a38       ___LITNexXt
00448a3c       ___LITArrange_Icons_Hint
00448a40       ___LITClose
00448a44       ___LITFDlg_Open_Text
00448a48       ___LITTile_Horz_Hint
00448a4c       ___LITCascade_Hint
00448a50       ___LITTile_XVert
00448a54       ___LITTile_Vert_Hint
00448a58       ___LITTile_XHorz
00448a5c       ___LITRestore
00448a60       ___LITMove
00448a64       ___LITMore_Windows_Hint
00448a68       ___LITXMore_Windows
00448a6c       ___LITXClose
00448a70       ___LITSize
00448a74       ___LITXCascade
00448a78       ___LITMinimize
00448a7c       ___LITXArrange_Icons
00448a80       ___LITMaximize
00448a84       ___LITXFix_Tool_Bar
00448a88       ___LITFile_Exists_Replace
00448a8c       ___LITChange_XFont_
00448a90       ___LITCancel
00448a94       ___LITOpen_Failed
00448a98       ___LITDrives_Colon
00448a9c       ___LITFDlg_Save_Text
00448aa0       ___LITList_Files_of_Type_Colon
00448aa4       ___LITPen_Failed
00448aa8       ___LITFile_Name_Colon
00448aac       ___LITChange_Font_for_this_window
00448ab0       ___LITMake_Tool_Bar_Fixed
00448ab4       ___LITFloating_Toolbar
00448ab8       ___LITInternal_First_Message
00448abc       ___LITDirectories_Colon
00448ac0       ___LITOK
Module: /mnt/sda5/.user/root/src/openwatcom-1.9/bld/ui/nt/nt386/ui.lib(/mnt/sda5/.user/root/src/openwatcom-1.9/bld/ui/c/uialloc.c)
0041f950*      UIMemPrintLine_
0041f950*      UIMemPrtUsage_
0041f950       UIMemClose_
0041f950       UIMemOpen_
0041f950*      UIMemRedirect_
0041f951       uicalloc_
0041f956       uimalloc_
0041f95b       uifree_
0041f960       uirealloc_
Module: /mnt/sda5/.user/root/src/openwatcom-1.9/bld/gui/ui/nt386/gui.lib(/mnt/sda5/.user/root/src/openwatcom-1.9/bld/gui/c/guiutil.c)
0041f970*      GUIStripTrailingBlanks_
0041f9f0       GUIStrDup_
0041fa70       GUIStoreArgs_
0041fa90*      GUIGetArgs_
0041fac0*      GUIIsRootWindow_
0041fae0       GUIGetRootWindow_
Module: /mnt/sda5/.user/root/src/openwatcom-1.9/bld/ui/nt/nt386/ui.lib(/mnt/sda5/.user/root/src/openwatcom-1.9/bld/ui/c/uidialog.c)
004200fa       uiprintfield_
0042013e+      ui_split_line_
004201e0+      uiinitdialog_
004202f6*      uifinidialog_
004203b4       uireinitdialog_
00420446       uigetdialogarea_
0042045b       uibegdialog_
0042051f       uiupdatecombobox_
0042058c       uiupdateedit_
00420628+      pulldownfilter_
00420826+      uidialogexitcurr_
0042083d       uidialogsetcurr_
0042088f       uimovefield_
004208eb       uiredrawdialog_
00420927       uiresizedialog_
00420d39+      uihotkeyfilter_
00420e36       uiprocessdialogevent_
00421012       uidialog_
0042111e       uifreedialog_
0042116a       uienddialog_
00421182*      uidialogisdirty_
00421192*      uidialogsetdirty_
Module: /mnt/sda5/.user/root/src/openwatcom-1.9/bld/gui/ui/nt386/gui.lib(/mnt/sda5/.user/root/src/openwatcom-1.9/bld/gui/ui/c/guihotsp.c)
004211b0       GUICreateHot_
00421230       GUIFreeHotSpot_
00421250       GUISetHotSpotText_
Module: /mnt/sda5/.user/root/src/openwatcom-1.9/bld/gui/ui/nt386/gui.lib(/mnt/sda5/.user/root/src/openwatcom-1.9/bld/gui/ui/c/guifdlg.c)
00421730+      Compare_
00422320+      ProcessOKorDClick_
00422630+      GetFileNameEvent_
00422800       GUIGetFileName_
00422860*      GUIHookFileDlg_
Module: /mnt/sda5/.user/root/src/openwatcom-1.9/bld/gui/ui/nt386/gui.lib(/mnt/sda5/.user/root/src/openwatcom-1.9/bld/gui/ui/c/guicontr.c)
00422930       GUIAddControl_
004229d0       GUIGetControl_
004229f0       GUIGetControlByIndex_
00422a50       GUIInsertControl_
00422aa0*      GUIDeleteControl_
00422b10       GUIFreeAllControls_
00422b80*      GUILimitEditText_
00422b90       GUIResizeControls_
00422be0       GUIProcessControlEvent_
00422c50*      GUIEnumControls_
00422c80*      GUIGetControlClass_
00422ca0+      GUIGetControlRect_
00422cf0*      GUIResizeControl_
00422db0*      GUIIsControlVisible_
Module: /mnt/sda5/.user/root/src/openwatcom-1.9/bld/ui/nt/nt386/ui.lib(/mnt/sda5/.user/root/src/openwatcom-1.9/bld/ui/c/uilist.c)
00422dbb*      uigetlist_
00422dc4*      uiputlist_
00422dd1       uipushlist_
00422e0d*      uichecklist_
00422e2f       uipoplist_
00422e53       uiinlist_
00422eab*      uiintoplist_
Module: /mnt/sda5/.user/root/src/openwatcom-1.9/bld/gui/ui/nt386/gui.lib(/mnt/sda5/.user/root/src/openwatcom-1.9/bld/gui/ui/c/guilistb.c)
00422f10       GUIClearListBox_
00422f30       GUIListBoxDeleteItem_
00422ff0       GUIFreeList_
00423060       GUIFillInListBox_
00423080       GUICreateListBox_
004230b0       GUICreateEditMLE_
00423180       GUIListSize_
004232c0       GUIListBoxAddText_
00423320       GUIListBoxAddTextList_
004233a0       GUIGetListBoxText_
004233d0       GUIListCurr_
00423410       GUIListBoxTopIndex_
00423440*      GUISetListItemData_
00423440*      GUIDropDown_
00423450*      GUIGetListItemData_
Module: /mnt/sda5/.user/root/src/openwatcom-1.9/bld/gui/ui/nt386/gui.lib(/mnt/sda5/.user/root/src/openwatcom-1.9/bld/gui/ui/c/guixutil.c)
00423460*      GUISetRedraw_
00423470       GUIIsOpen_
00423480       GUISetUseArea_
004234d0       GUISetUseWnd_
004234e0       GUIPtInRect_
004235a0       GUIOverlap_
004235c0       GUISetDialogArea_
00423610       GUIAdjustDialogArea_
00423620       GUIGetSAREA_
00423650       GUIGetClientSAREA_
00423680       GUISetArea_
00423890       GUIMakeEditCopy_
004238e0       GUIRedrawTitle_
004238f0       GUIMakeRelative_
00423960       GUIJustSetWindowText_
00423990*      GUIInArea_
004239d0       GUIDirtyArea_
004239e0       GUIGetTopWnd_
00423a00       GUIGetFirstSibling_
00423a20       GUIGetParentWindow_
00423a30       GUIXGetRootWindow_
00423a50       GUISetCursor_
00423a70*      GUIUnHookF1_
00423a70*      GUIHookF1_
Module: /mnt/sda5/.user/root/src/openwatcom-1.9/bld/gui/ui/nt386/gui.lib(/mnt/sda5/.user/root/src/openwatcom-1.9/bld/gui/c/guimkey.c)
00423a90       GUIMapKey_
00423ef0       GUIGetKeyState_
004454d0       _KeyState
Module: /mnt/sda5/.user/root/src/openwatcom-1.9/bld/gui/ui/nt386/gui.lib(/mnt/sda5/.user/root/src/openwatcom-1.9/bld/gui/ui/c/guirdlg.c)
00423f10+      GUIFreeDialogBoxControlPtrs_
00423f60+      GUIFreeDialogBoxHeader_
004248c0       GUICreateDialogFromRes_
Module: /mnt/sda5/.user/root/src/openwatcom-1.9/bld/ui/nt/nt386/ui.lib(/mnt/sda5/.user/root/src/openwatcom-1.9/bld/ui/c/uiyield.c)
00424b05       uiyield_
Module: /mnt/sda5/.user/root/src/openwatcom-1.9/bld/gui/ui/nt386/gui.lib(/mnt/sda5/.user/root/src/openwatcom-1.9/bld/gui/ui/c/guixloop.c)
004454dc       _GUIUserEvents
00424e10       GUICreatePopup_
00425470       GUIGetMenuWindow_
004255e0       GUIProcessEvent_
Module: /mnt/sda5/.user/root/src/openwatcom-1.9/bld/ui/nt/nt386/ui.lib(/mnt/sda5/.user/root/src/openwatcom-1.9/bld/ui/c/uiforce.c)
00425b76       forceevfini_
00425b76       forceevinit_
00425b77       uiforceevadd_
00425bb9*      uiforceevflush_
00425bf7       forcedevent_
Module: /mnt/sda5/.user/root/src/openwatcom-1.9/rel2/lib386/math387r.lib(bufld386)
00425c28       __ZBuf2LD
Module: /mnt/sda5/.user/root/src/openwatcom-1.9/rel2/lib386/math387r.lib(inf_nan.c)
00425ccb*      ___f_infinity
00425ccf*      ___f_posqnan
00425cd3       ___d_infinity
00425cdb       ___d_posqnan
00425ce3*      ___ld_infinity
00425ceb*      ___ld_posqnan
Module: /mnt/sda5/.user/root/src/openwatcom-1.9/bld/ui/nt/nt386/ui.lib(/mnt/sda5/.user/root/src/openwatcom-1.9/bld/ui/c/uimget.c)
00425cf3       uivgetevent_
00425cf3       uivget_
00425cfd*      uiungetevent_
00425d0d*      uiflushevent_
Module: /mnt/sda5/.user/root/src/openwatcom-1.9/bld/gui/ui/nt386/gui.lib(/mnt/sda5/.user/root/src/openwatcom-1.9/bld/gui/ui/c/guiuiev.c)
00425d20       GUIUIProcessEvent_
Module: /mnt/sda5/.user/root/src/openwatcom-1.9/bld/gui/ui/nt386/gui.lib(/mnt/sda5/.user/root/src/openwatcom-1.9/bld/gui/c/guiev.c)
00425d30       GUIDoneEventProcessing_
00425d30       GUIStartEventProcessing_
Module: /mnt/sda5/.user/root/src/openwatcom-1.9/bld/gui/ui/nt386/gui.lib(/mnt/sda5/.user/root/src/openwatcom-1.9/bld/gui/ui/c/guildstr.c)
00425da0       GUIIsLoadStrInitialized_
00425db0       GUILoadStrInit_
00425e70       GUILoadStrFini_
00425ea0       GUILoadString_
00425ee0       GUILoadDialogTemplate_
00425f30       GUILoadMenuTemplate_
00445530       _WResRtns
Module: /mnt/sda5/.user/root/src/openwatcom-1.9/bld/gui/ui/nt386/gui.lib(/mnt/sda5/.user/root/src/openwatcom-1.9/bld/gui/c/guistr.c)
00425fd0       GUIInitInternalStringTable_
004263f0       GUIFiniInternalStringTable_
Module: /mnt/sda5/.user/root/src/openwatcom-1.9/bld/gui/ui/nt386/gui.lib(/mnt/sda5/.user/root/src/openwatcom-1.9/bld/gui/c/guideath.c)
004266b0       GUIDeath_
Module: /mnt/sda5/.user/root/src/openwatcom-1.9/bld/ui/nt/nt386/ui.lib(/mnt/sda5/.user/root/src/openwatcom-1.9/bld/ui/c/uirefer.c)
004266b6       uirefresh_
Module: /mnt/sda5/.user/root/src/openwatcom-1.9/bld/ui/nt/nt386/ui.lib(/mnt/sda5/.user/root/src/openwatcom-1.9/bld/ui/c/uiinit.c)
004266bb       uistart_
004266ee*      uiinit_
0042670a       uistop_
00426719*      uifini_
00426732       uiswap_
Module: /mnt/sda5/.user/root/src/openwatcom-1.9/bld/ui/nt/nt386/ui.lib(/mnt/sda5/.user/root/src/openwatcom-1.9/bld/ui/c/uiback.c)
004267ca       uirestorebackground_
004267f7       openbackground_
0042682c       closebackground_
00426839+      uibackgroundbuffer_
00426877*      uiremovebackground_
004268b0*      uikeepbackground_
Module: /mnt/sda5/.user/root/src/openwatcom-1.9/bld/gui/ui/nt386/gui.lib(/mnt/sda5/.user/root/src/openwatcom-1.9/bld/gui/c/guihook.c)
00426900       GUISetHotSpotCleanup_
00426910       GUICleanupHotSpots_
00426930*      GUISetXChangeTitle_
00426940       GUIXChangeTitle_
00426960       GUISetXInitMDI_
00426970       GUIXInitMDI_
00426990       GUISetInitMDI_
004269a0       GUIInitMDI_
004269c0       GUIChangeMDITitle_
004269e0       GUISetMDIChangeTitle_
004269f0       GUISetMDIBroughtToFront_
00426a00       GUIMDIBroughtToFront_
00426a20       GUISetMDIDelete_
00426a30       GUIMDIDelete_
00426a50       GUISetMDIResetMenus_
00426a60       GUIMDIResetMenus_
00426a80       GUISetMDIDeleteMenuItem_
00426a90       GUIMDIDeleteMenuItem_
00426ab0*      GUISetEnableMDIActions_
00426ac0       GUIEnableMDIActions_
00426ae0*      GUISetAddMDIActions_
00426af0       GUIAddMDIActions_
Module: /mnt/sda5/.user/root/src/openwatcom-1.9/bld/gui/ui/nt386/gui.lib(/mnt/sda5/.user/root/src/openwatcom-1.9/bld/gui/ui/c/guisysfi.c)
00426b10       GUISysFini_
Module: /mnt/sda5/.user/root/src/openwatcom-1.9/bld/gui/ui/nt386/gui.lib(/mnt/sda5/.user/root/src/openwatcom-1.9/bld/gui/c/guiextnm.c)
00426b20       GUIGetExtName_
00426b40*      GUISetExtName_
Module: /mnt/sda5/.user/root/src/openwatcom-1.9/bld/gui/ui/nt386/gui.lib(/mnt/sda5/.user/root/src/openwatcom-1.9/bld/gui/c/guidead.c)
00426b90       GUIDead_
Module: /mnt/sda5/.user/root/src/openwatcom-1.9/bld/gui/ui/nt386/gui.lib(/mnt/sda5/.user/root/src/openwatcom-1.9/bld/gui/ui/c/guixmain.c)
00426ba0       main_
00445680       _GUIMainTouched
Module: /mnt/sda5/.user/root/src/openwatcom-1.9/bld/gui/ui/nt386/gui.lib(/mnt/sda5/.user/root/src/openwatcom-1.9/bld/gui/c/guifcrck.c)
00426bb0       GUIFirstCrack_
Module: /mnt/sda5/.user/root/src/openwatcom-1.9/bld/gui/ui/nt386/gui.lib(/mnt/sda5/.user/root/src/openwatcom-1.9/bld/gui/ui/c/guigadgt.c)
00426bc0       GUIUseGadget_
00426c20       GUIDrawGadgetLine_
00426db0       GUISetShowGadget_
00426e50       GUIGadgetFilter_
00426f20       GUIInitGadget_
00426f60       GUICreateGadget_
00427070       GUIGetScrollOffset_
Module: /mnt/sda5/.user/root/src/openwatcom-1.9/bld/gui/ui/nt386/gui.lib(/mnt/sda5/.user/root/src/openwatcom-1.9/bld/gui/c/guiwnclr.c)
00427080       GUISetColours_
004270a0       GUIFreeColours_
004270c0       GUIGetNumWindowColours_
004270d0       GUIGetWindowColours_
Module: /mnt/sda5/.user/root/src/openwatcom-1.9/bld/ui/nt/nt386/ui.lib(/mnt/sda5/.user/root/src/openwatcom-1.9/bld/ui/c/uimenu.c)
0042711e       uisetbetweentitles_
00427124       uialtchar_
004272cd       uidisplayitem_
004275b1       uidrawmenu_
00427616       uiclosepopup_
00427627       uiopenpopup_
004277d8+      process_menuevent_
00427d2b*      uigeteventfrompos_
00427d97       menuevent_
00427eae       uidescmenu_
004280be       uimenutitlebar_
0042812d*      uienablemenuitem_
00428164*      uimenuindicators_
0042817e       uisetmenudesc_
0042820a       uimenuson_
00428215       uimenuheight_
0042822d       uimenudisable_
0042824b       uimenuisdisabled_
00428260*      uimenugetaltpressed_
00428275       uimenusetaltpressed_
00428293       uinomenus_
00428295       uimenubar_
004282f3*      uimenus_
00428330*      uiactivatemenus_
00428352*      uiignorealt_
00428360       uigetcurrentmenu_
Module: /mnt/sda5/.user/root/src/openwatcom-1.9/bld/ui/nt/nt386/ui.lib(/mnt/sda5/.user/root/src/openwatcom-1.9/bld/ui/c/uidata.c)
00445700       _UIData
Module: /mnt/sda5/.user/root/src/openwatcom-1.9/bld/ui/nt/nt386/ui.lib(/mnt/sda5/.user/root/src/openwatcom-1.9/bld/ui/c/uivopen.c)
004283f0       uivopen_
004285b6       uivclose_
004285eb       uivresize_
004286fe       uivmove_
Module: /mnt/sda5/.user/root/src/openwatcom-1.9/bld/ui/nt/nt386/ui.lib(/mnt/sda5/.user/root/src/openwatcom-1.9/bld/ui/c/uivhide.c)
00428749       uivhide_
0042876f       uivshow_
Module: /mnt/sda5/.user/root/src/openwatcom-1.9/bld/ui/nt/nt386/ui.lib(/mnt/sda5/.user/root/src/openwatcom-1.9/bld/ui/c/uigadget.c)
00445704       _VertScrollFrame
00445706       _HorzScrollFrame
00445708       _SliderChar
0044570a       _LeftPoint
0044570c       _RightPoint
0044570e       _UpPoint
00445710       _DownPoint
0042878f       uishowgadget_
004289b1       uiinitgadget_
004289c2       uidrawgadget_
004289e4       uisetgadget_
004289f0       uifinigadget_
004289f1       uisetgadgetnodraw_
004289f6       uigadgetfilter_
Module: /mnt/sda5/.user/root/src/openwatcom-1.9/bld/gui/ui/nt386/gui.lib(/mnt/sda5/.user/root/src/openwatcom-1.9/bld/gui/ui/c/guifront.c)
00428cd0       GUIBringToFront_
00428d80*      GUIActivateNC_
Module: /mnt/sda5/.user/root/src/openwatcom-1.9/bld/gui/ui/nt386/gui.lib(/mnt/sda5/.user/root/src/openwatcom-1.9/bld/gui/ui/c/guiwhole.c)
00428dd0       GUIWholeWndDirty_
Module: /mnt/sda5/.user/root/src/openwatcom-1.9/bld/ui/nt/nt386/ui.lib(/mnt/sda5/.user/root/src/openwatcom-1.9/bld/ui/nt/c/uibmous.c)
00428e11       uisetmouse_
00428e2b       uimouse_
Module: /mnt/sda5/.user/root/src/openwatcom-1.9/bld/gui/ui/nt386/gui.lib(/mnt/sda5/.user/root/src/openwatcom-1.9/bld/help/c/helpopen.c)
00429010+      do_init_
00429130       helpinit_
004291f0       help_reinit_
00429260       helpfini_
00445724       _HelpFiles
Module: /mnt/sda5/.user/root/src/openwatcom-1.9/bld/gui/ui/nt386/gui.lib(/mnt/sda5/.user/root/src/openwatcom-1.9/bld/help/c/help.c)
00429360+      hlp_ut_screen_area_
004293b0+      hlp_ut_position_
00429a00+      help_next_field_
00429b90*      Free_Stack_
00429bb0+      help_in_tab_
0042b010       showhelp_
0042b290+      do_showhelp_
Module: /mnt/sda5/.user/root/src/openwatcom-1.9/rel2/lib386/nt/clib3r.lib(_strcmp)
0042b4a0       strcmp_
Module: /mnt/sda5/.user/root/src/openwatcom-1.9/bld/aui/nt386/aui.lib(/mnt/sda5/.user/root/src/openwatcom-1.9/bld/aui/c/wndfref.c)
0042b5e0       WndForceRefresh_
Module: /mnt/sda5/.user/root/src/openwatcom-1.9/bld/gui/ui/nt386/gui.lib(/mnt/sda5/.user/root/src/openwatcom-1.9/bld/gui/ui/c/guithumb.c)
0042b670*      GUISetHScrollThumb_
0042b6b0       GUISetVScrollThumb_
Module: /mnt/sda5/.user/root/src/openwatcom-1.9/bld/gui/ui/nt386/gui.lib(/mnt/sda5/.user/root/src/openwatcom-1.9/bld/gui/ui/c/guiscrol.c)
0042b6f0       GUIScroll_
0042b820+      SetScroll_
0042b840       GUIInitHScroll_
0042b860*      GUIInitHScrollCol_
0042b880*      GUIInitVScroll_
0042b8a0       GUIInitVScrollRow_
0042b8c0       GUISetHScroll_
0042b8e0*      GUISetHScrollCol_
0042b900*      GUISetVScroll_
0042b920*      GUISetVScrollRow_
Module: /mnt/sda5/.user/root/src/openwatcom-1.9/bld/gui/ui/nt386/gui.lib(/mnt/sda5/.user/root/src/openwatcom-1.9/bld/gui/ui/c/guidoscr.c)
0042bab0       GUIDoHScroll_
0042bad0       GUIDoVScroll_
0042baf0*      GUIDoHScrollClip_
0042bb00       GUIDoVScrollClip_
Module: /mnt/sda5/.user/root/src/openwatcom-1.9/bld/gui/ui/nt386/gui.lib(/mnt/sda5/.user/root/src/openwatcom-1.9/bld/gui/ui/c/guistrin.c)
0042bb10       GUIGetStringPos_
Module: /mnt/sda5/.user/root/src/openwatcom-1.9/bld/ui/nt/nt386/ui.lib(/mnt/sda5/.user/root/src/openwatcom-1.9/bld/ui/c/uivfill.c)
0042bb59       uivfill_
Module: /mnt/sda5/.user/root/src/openwatcom-1.9/bld/ui/nt/nt386/ui.lib(/mnt/sda5/.user/root/src/openwatcom-1.9/bld/ui/c/uibox.c)
0042bbc1       drawbox_
0042bd07       blowup_
0042bddf       uidrawbox_
Module: /mnt/sda5/.user/root/src/openwatcom-1.9/bld/gui/ui/nt386/gui.lib(/mnt/sda5/.user/root/src/openwatcom-1.9/bld/gui/ui/c/guidrect.c)
0042be50       GUIWndDirtyRect_
Module: /mnt/sda5/.user/root/src/openwatcom-1.9/bld/gui/ui/nt386/gui.lib(/mnt/sda5/.user/root/src/openwatcom-1.9/bld/gui/ui/c/guidrow.c)
0042bf90       GUIWndDirtyRow_
Module: /mnt/sda5/.user/root/src/openwatcom-1.9/bld/gui/ui/nt386/gui.lib(/mnt/sda5/.user/root/src/openwatcom-1.9/bld/gui/c/guidraw.c)
0042bfe0       GUIDrawText_
0042c030*      GUIDrawTextPos_
0042c050       GUIDrawTextExtent_
0042c0a0*      GUIDrawTextExtentPos_
0042c0c0*      GUIDrawTextRGB_
0042c110*      GUIDrawTextPosRGB_
0042c130*      GUIDrawTextExtentRGB_
0042c180*      GUIDrawTextExtentPosRGB_
Module: /mnt/sda5/.user/root/src/openwatcom-1.9/bld/gui/ui/nt386/gui.lib(/mnt/sda5/.user/root/src/openwatcom-1.9/bld/gui/c/guihot.c)
0042c1c0*      GUIInitHotSpots_
0042c220*      GUIGetNumHotSpots_
0042c230       GUIGetHotSpotSize_
00448d78       _GUINumHotSpots
Module: /mnt/sda5/.user/root/src/openwatcom-1.9/bld/aui/nt386/aui.lib(/mnt/sda5/.user/root/src/openwatcom-1.9/bld/aui/c/wndsfra.c)
0042c270       WndStartFreshAll_
Module: /mnt/sda5/.user/root/src/openwatcom-1.9/bld/aui/nt386/aui.lib(/mnt/sda5/.user/root/src/openwatcom-1.9/bld/aui/c/wndefra.c)
0042c280       WndEndFreshAll_
Module: /mnt/sda5/.user/root/src/openwatcom-1.9/bld/aui/nt386/aui.lib(/mnt/sda5/.user/root/src/openwatcom-1.9/bld/aui/c/wndmem.c)
0042c290       WndMustAlloc_
0042c2b0*      WndMustRealloc_
Module: /mnt/sda5/.user/root/src/openwatcom-1.9/bld/gui/ui/nt386/gui.lib(/mnt/sda5/.user/root/src/openwatcom-1.9/bld/gui/c/guihflt.c)
0042c2d0       GUICreateFloatingPopup_
Module: /mnt/sda5/.user/root/src/openwatcom-1.9/bld/gui/ui/nt386/gui.lib(/mnt/sda5/.user/root/src/openwatcom-1.9/bld/gui/ui/c/guixscal.c)
0042c340       GUIGetScreenArea_
0042c370       GUIMulDiv_
0042c410       GUIScreenToScaleRect_
0042c430       GUIScreenToScaleRectR_
0042c450       GUIScaleToScreenRect_
0042c470       GUIScaleToScreenRectR_
Module: /mnt/sda5/.user/root/src/openwatcom-1.9/rel2/lib386/math387r.lib(ldclass.c)
0042c48b       __LDClass_
0042c4db*      _FLClass_
Module: /mnt/sda5/.user/root/src/openwatcom-1.9/bld/gui/ui/nt386/gui.lib(/mnt/sda5/.user/root/src/openwatcom-1.9/bld/gui/c/guisetup.c)
0042c4f0       GUISetupWnd_
Module: /mnt/sda5/.user/root/src/openwatcom-1.9/bld/gui/ui/nt386/gui.lib(/mnt/sda5/.user/root/src/openwatcom-1.9/bld/gui/ui/c/guitool.c)
0042c540       GUIXCreateFixedToolbar_
0042c9a0       GUIXCreateToolBar_
0042cb60       GUIXCreateToolBarWithTips_
0042cb90       GUIXCloseToolBar_
0042cc70       GUIHasToolBar_
0042cc80       GUIToolBarFixed_
0042ccd0*      GUIChangeToolBar_
Module: /mnt/sda5/.user/root/src/openwatcom-1.9/bld/gui/ui/nt386/gui.lib(/mnt/sda5/.user/root/src/openwatcom-1.9/bld/gui/c/guihint.c)
0042ce60+      GUIHasHintType_
0042ce90       GUIDisplayHintText_
0042cf00*      GUISetHintText_
0042cf20       GUIHasHintText_
0042cf40       GUIDeleteHintText_
0042d030+      CountMenus_
0042d070+      InsertHint_
0042d0d0       GUIAppendHintText_
0042d150       GUIInitHint_
0042d220       GUIInitToolbarHint_
0042d2c0       GUIFreeHint_
Module: /mnt/sda5/.user/root/src/openwatcom-1.9/bld/gui/ui/nt386/gui.lib(/mnt/sda5/.user/root/src/openwatcom-1.9/bld/gui/c/guihtool.c)
0042d300*      GUICreateFloatToolBar_
0042d360       GUICreateToolBar_
0042d3c0       GUICreateToolBarWithTips_
0042d420       GUICloseToolBar_
Module: /mnt/sda5/.user/root/src/openwatcom-1.9/bld/gui/ui/nt386/gui.lib(/mnt/sda5/.user/root/src/openwatcom-1.9/bld/gui/ui/c/guifloat.c)
0042d4b0       GUIProcessMenuCurr_
0042d5a0       GUICreateMenuPopup_
0042d820       GUIXCreateFloatingPopup_
0042d870*      GUITrackFloatingPopup_
004459dc       _GUIPopupMenu
Module: /mnt/sda5/.user/root/src/openwatcom-1.9/bld/gui/ui/nt386/gui.lib(/mnt/sda5/.user/root/src/openwatcom-1.9/bld/gui/ui/c/guisysme.c)
0042d8c0       GUISetSystemMenuFlags_
0042d970       GUISetSystemMenu_
0042da70       GUIProcessSysMenuEvent_
Module: /mnt/sda5/.user/root/src/openwatcom-1.9/bld/gui/ui/nt386/gui.lib(/mnt/sda5/.user/root/src/openwatcom-1.9/bld/gui/ui/c/guirmenu.c)
0042de80       GUIFreeGUIMenuStruct_
0042e030       GUICreateMenuStructFromRes_
Module: /mnt/sda5/.user/root/src/openwatcom-1.9/bld/ui/nt/nt386/ui.lib(/mnt/sda5/.user/root/src/openwatcom-1.9/bld/ui/c/uidirty.c)
0042e0e1       dirtyarea_
0042e163       dirtynext_
0042e1b3       uidirty_
Module: /mnt/sda5/.user/root/src/openwatcom-1.9/bld/ui/nt/nt386/ui.lib(/mnt/sda5/.user/root/src/openwatcom-1.9/bld/ui/c/uimousev.c)
00448d7c       _MouseCol
00448d7e       _MouseRow
00448d80       _MouseStatus
00448d82       _MouseOn
0042e1ce*      uivmouseinstalled_
0042e1ce       uimouseinstalled_
0042e1d6*      uimouseforceoff_
0042e1e7*      uimouseforceon_
0042e1ee       uionmouse_
0042e226       uioffmouse_
0042e22d       uihidemouse_
0042e254       mouseevent_
0042e439       uimousepos_
0042e51c       uivmousepos_
0042e57b       uiswapmouse_
0042e5a9*      uigetmrow_
0042e5b0*      uigetmcol_
0042e5b7       uigetmouse_
00448d84       _MouseInstalled
Module: /mnt/sda5/.user/root/src/openwatcom-1.9/bld/ui/nt/nt386/ui.lib(/mnt/sda5/.user/root/src/openwatcom-1.9/bld/ui/c/uivscrn.c)
0042e5fa       findvscreen_
0042e650       uivdirty_
0042e65e       uivsetactive_
0042e676       uivsetcursor_
Module: /mnt/sda5/.user/root/src/openwatcom-1.9/bld/ui/nt/nt386/ui.lib(/mnt/sda5/.user/root/src/openwatcom-1.9/bld/ui/c/uichlen.c)
0042e6a9       uicharlen_
0042e6d0       uiisdbcs_
0042e6d6       uionnec_
Module: /mnt/sda5/.user/root/src/openwatcom-1.9/rel2/lib386/nt/clib3r.lib(strcspn.c)
0042e6e0       strcspn_
Module: /mnt/sda5/.user/root/src/openwatcom-1.9/rel2/lib386/nt/clib3r.lib(strnset.c)
0042e730       strnset_
Module: /mnt/sda5/.user/root/src/openwatcom-1.9/bld/ui/nt/nt386/ui.lib(/mnt/sda5/.user/root/src/openwatcom-1.9/bld/ui/nt/c/uibios.c)
00448d88       _OutputHandle
00448d90       _InputHandle
00448d94+      _BrkPending
00448d98+      _BSize
0042e75f*      uiset80col_
0042e762       initbios_
0042e898       uiclockdelay_
0042e899       finibios_
0042e8d9       physupdate_
Module: /mnt/sda5/.user/root/src/openwatcom-1.9/bld/gui/ui/nt386/gui.lib(/mnt/sda5/.user/root/src/openwatcom-1.9/bld/gui/ui/c/guigmous.c)
0042e960       GUIInitGraphicsMouse_
0042e970       GUIInitMouse_
0042e9a0       GUIFiniMouse_
0042e9c0*      GUIGMouseOn_
0042ea10*      GUIGMouseOff_
0042ea30       GUIHasCharRemap_
Module: /mnt/sda5/.user/root/src/openwatcom-1.9/bld/gui/ui/nt386/gui.lib(/mnt/sda5/.user/root/src/openwatcom-1.9/bld/gui/ui/c/guisysin.c)
0042ea40       GUISysInit_
Module: /mnt/sda5/.user/root/src/openwatcom-1.9/bld/ui/nt/nt386/ui.lib(/mnt/sda5/.user/root/src/openwatcom-1.9/bld/ui/c/uiattr.c)
00445b29+      _VGAcolours
00445b69+      _ui_vga_colour_attrs
00445b8e+      _ui_colour_attrs
00445bb3+      _ui_bw_attrs
00445bd8+      _ui_mono_attrs
0042ea61       uiattrs_
0042eaf5*      uivgaattrs_
0042eb30+      uisetblinkattr_
0042eb69*      uigetblinkattr_
Module: /mnt/sda5/.user/root/src/openwatcom-1.9/bld/ui/nt/nt386/ui.lib(/mnt/sda5/.user/root/src/openwatcom-1.9/bld/ui/c/uigchar.c)
0042eb6f       DBCSCharacterMap_
00445c24       _UiGChar
00445c46+      _UiDBCSChar
00445c68+      _UiNECChar
Module: /mnt/sda5/.user/root/src/openwatcom-1.9/bld/gui/ui/nt386/gui.lib(/mnt/sda5/.user/root/src/openwatcom-1.9/bld/gui/ui/c/guiximdi.c)
0042ec80       XFakeInitMDI_
Module: /mnt/sda5/.user/root/src/openwatcom-1.9/bld/gui/ui/nt386/gui.lib(/mnt/sda5/.user/root/src/openwatcom-1.9/bld/gui/c/guimdi.c)
00445cbc+      _GUIMDIMenuID
00445cc0+      _Root
0042ecb0*      GUIGetRoot_
0042ef40       MDIDeleteMenu_
0042ef60       MDIResetMenus_
0042efe0*      GUIEnableMDIMenus_
0042f070       InitMDI_
0042f1c0       ChangeTitle_
0042f200       BroughtToFront_
0042f270+      FindNextMDIMenuWindowNotInArray_
0042f2e0       MDIDelete_
0042f590+      GUIGetNumChildWindows_
0042f5c0*      GUIGetNumIconicWindows_
0042f640       GUIMDIMoreWindows_
0042f6a0       GUIMDIGetWindow_
Module: /mnt/sda5/.user/root/src/openwatcom-1.9/bld/ui/nt/nt386/ui.lib(/mnt/sda5/.user/root/src/openwatcom-1.9/bld/ui/c/uivstr.c)
0042f6b5       uitextfield_
0042f789       uivtextput_
0042f7cf*      uivrawput_
Module: /mnt/sda5/.user/root/src/openwatcom-1.9/bld/gui/ui/nt386/gui.lib(/mnt/sda5/.user/root/src/openwatcom-1.9/bld/gui/ui/c/guiicon.c)
0042f840       GUIDrawIcon_
Module: /mnt/sda5/.user/root/src/openwatcom-1.9/rel2/lib386/nt/clib3r.lib(strnicmp.c)
0042f910       strnicmp_
Module: /mnt/sda5/.user/root/src/openwatcom-1.9/bld/gui/ui/nt386/gui.lib(/mnt/sda5/.user/root/src/openwatcom-1.9/bld/gui/ui/c/guixbar.c)
0042f960       GUIDrawBar_
0042f9d0       GUIDrawBarGroup_
Module: /mnt/sda5/.user/root/src/openwatcom-1.9/bld/gui/ui/nt386/gui.lib(/mnt/sda5/.user/root/src/openwatcom-1.9/bld/gui/ui/c/guixhot.c)
0042fa50       GUIXInitHotSpots_
0042fae0       GUIDrawHotSpot_
0042fb20       GUIXCleanupHotSpots_
00445cd4       _GUIHotSpots
Module: /mnt/sda5/.user/root/src/openwatcom-1.9/bld/aui/nt386/aui.lib(/mnt/sda5/.user/root/src/openwatcom-1.9/bld/aui/c/wndtbatr.c)
0042fb50       WndMapTabAttr_
Module: /mnt/sda5/.user/root/src/openwatcom-1.9/bld/ui/nt/nt386/ui.lib(/mnt/sda5/.user/root/src/openwatcom-1.9/bld/ui/nt/c/uiget.c)
0042fb56       uiflush_
0042fb62       uiclock_
0042fbbc       uiget_
0042fbc1*      uieventsource_
Module: /mnt/sda5/.user/root/src/openwatcom-1.9/rel2/lib386/nt/clib3r.lib(setjmp)
0042fc04       _setjmp_
0042fc3d       longjmp_
Module: /mnt/sda5/.user/root/src/openwatcom-1.9/rel2/lib386/nt/clib3r.lib(calloc.c)
0042fcd0       calloc_
Module: /mnt/sda5/.user/root/src/openwatcom-1.9/bld/ui/nt/nt386/ui.lib(/mnt/sda5/.user/root/src/openwatcom-1.9/bld/ui/c/uiledit.c)
0042fd49       uiedittrim_
0042fd5b*      uieditmarking_
0042fd8f       uibegedit_
0042fea3       uieditpushlist_
0042feb7       uieditpoplist_
0042ff0d       uiledit_
00430001*      uieditinsert_
0043007d       uiendedit_
004300c5       uieditisdirty_
004300ec*      uieditautoclear_
00430101*      uieditcursor_
00430112*      uieditdirty_
0043011c*      uieditclean_
00445cdc+      _UIEdit
Module: /mnt/sda5/.user/root/src/openwatcom-1.9/bld/ui/nt/nt386/ui.lib(/mnt/sda5/.user/root/src/openwatcom-1.9/bld/ui/c/uimisc.c)
00430126       uisetscreenarea_
00430162       uisetarea_
004301ae       uiposition_
00430208       uiopen_
00430245       uiclose_
00430256       uicntrtext_
0043029a       uinocursor_
004302a2       uicursor_
Module: /mnt/sda5/.user/root/src/openwatcom-1.9/bld/ui/nt/nt386/ui.lib(/mnt/sda5/.user/root/src/openwatcom-1.9/bld/ui/c/uilstbox.c)
004302ad       uigetlistelement_
004302e5       uipaintlistbox_
00430429+      checkitem_
0043049a       uiupdatelistbox_
0043050d       uiboxpushlist_
00430517       uiboxpoplist_
00430545       uilistsize_
0043055d       uimovelistbox_
0043057b       uibeglistbox_
00430646       uiendlistbox_
004306ef+      charselect_
0043075c       uilistbox_
Module: /mnt/sda5/.user/root/src/openwatcom-1.9/bld/ui/nt/nt386/ui.lib(/mnt/sda5/.user/root/src/openwatcom-1.9/bld/ui/c/uihotspt.c)
00430b4f       uidrawhottext_
00430c61       uihotspot_
00430e0b       uiposnhotspots_
00430ea6       uiprinthotspots_
00430eca*      uioffhotspots_
00430f05       uihotspotfilter_
00431074       uiisdefaulthotspot_
Module: /mnt/sda5/.user/root/src/openwatcom-1.9/rel2/lib386/nt/clib3r.lib(strncat.c)
004310a0       strncat_
Module: /mnt/sda5/.user/root/src/openwatcom-1.9/bld/gui/ui/nt386/gui.lib(/mnt/sda5/.user/root/src/openwatcom-1.9/bld/gui/ui/c/uidchfld.c)
004310e0       uidialogchangefield_
Module: /mnt/sda5/.user/root/src/openwatcom-1.9/bld/ui/nt/nt386/ui.lib(/mnt/sda5/.user/root/src/openwatcom-1.9/bld/ui/c/uidevent.c)
004310e5       uidialogevent_
Module: /mnt/sda5/.user/root/src/openwatcom-1.9/bld/gui/ui/nt386/gui.lib(/mnt/sda5/.user/root/src/openwatcom-1.9/bld/help/c/dialcb.c)
004310f0       uidialogcallback_
Module: /mnt/sda5/.user/root/src/openwatcom-1.9/rel2/lib386/nt/clib3r.lib(sdrvewnt.c)
00431100       _dos_setdrive_
Module: /mnt/sda5/.user/root/src/openwatcom-1.9/rel2/lib386/nt/clib3r.lib(chdirwnt.c)
00431130       chdir_
Module: /mnt/sda5/.user/root/src/openwatcom-1.9/rel2/lib386/nt/clib3r.lib(_istrcc_.asm)
0043114c       strcasecmp_
Module: /mnt/sda5/.user/root/src/openwatcom-1.9/rel2/lib386/nt/clib3r.lib(strtok.c)
00431160       strtok_
Module: /mnt/sda5/.user/root/src/openwatcom-1.9/rel2/lib386/nt/clib3r.lib(gtcwdwnt.c)
00431220       getcwd_
Module: /mnt/sda5/.user/root/src/openwatcom-1.9/bld/gui/ui/nt386/gui.lib(/mnt/sda5/.user/root/src/openwatcom-1.9/bld/gui/ui/c/guixaddt.c)
004312b0*      GUIControlSetRedraw_
00431320       GUIAddText_
00431360*      GUIAddTextList_
004313a0*      GUIDeleteItem_
004313d0       GUIClearList_
00431430       GUIGetCurrSelect_
00431480       GUISetCurrSelect_
004314d0*      GUIGetListSize_
00431500*      GUIInsertText_
00431540*      GUISetTopIndex_
00431590*      GUIGetTopIndex_
Module: /mnt/sda5/.user/root/src/openwatcom-1.9/rel2/lib386/nt/clib3r.lib(dirwnt.c)
00431650+      __opendir_
004316d0+      _opendir_
00431860       opendir_
00431880       readdir_
00431930       closedir_
00431980*      rewinddir_
Module: /mnt/sda5/.user/root/src/openwatcom-1.9/rel2/lib386/nt/clib3r.lib(strstr.c)
004319c0       strstr_
Module: /mnt/sda5/.user/root/src/openwatcom-1.9/bld/gui/ui/nt386/gui.lib(/mnt/sda5/.user/root/src/openwatcom-1.9/bld/gui/ui/c/guimapky.c)
00431a70       GUISetKeyState_
00431aa0       GUIMapKeys_
Module: /mnt/sda5/.user/root/src/openwatcom-1.9/rel2/lib386/nt/clib3r.lib(itoa.c)
00431f80       utoa_
00431fd0       itoa_
Module: /mnt/sda5/.user/root/src/openwatcom-1.9/bld/gui/ui/nt386/gui.lib(/mnt/sda5/.user/root/src/openwatcom-1.9/bld/gui/ui/c/guismove.c)
00432040       GUIStartMoveResize_
00432070       GUIStartKeyboardMoveResize_
00432340*      MoveResizeCancel_
00432350       GUIDoKeyboardMoveResize_
00432430       GUIDoMoveResize_
00432490       GUIDoMoveResizeCheck_
Module: /mnt/sda5/.user/root/src/openwatcom-1.9/bld/gui/ui/nt386/gui.lib(/mnt/sda5/.user/root/src/openwatcom-1.9/bld/gui/ui/c/guikey.c)
004324e0       GUIProcessAltMenuEvent_
Module: /mnt/sda5/.user/root/src/openwatcom-1.9/bld/gui/ui/nt386/gui.lib(/mnt/sda5/.user/root/src/openwatcom-1.9/bld/gui/ui/c/guixhook.c)
00432570       GUISetMDIProcessEvent_
00432580       GUIMDIProcessEvent_
Module: /mnt/sda5/.user/root/src/openwatcom-1.9/bld/ui/nt/nt386/ui.lib(/mnt/sda5/.user/root/src/openwatcom-1.9/bld/ui/c/uipget.c)
00432593       saveevent_
004325b9       getprime_
004325e1*      uivgetprimevent_
004325e1*      uivgetprime_
00449098       _Event
Module: /mnt/sda5/.user/root/src/openwatcom-1.9/bld/sdk/rc/wres/flat386/mf_r/wres.lib(loadfind.c)
00432608       FindResources_
00445d64       _FileShift
Module: /mnt/sda5/.user/root/src/openwatcom-1.9/bld/sdk/rc/wres/flat386/mf_r/wres.lib(loadstr.c)
00432848+      WResLoadString2_
004328f8       WResLoadString_
00432910       OpenResFile_
00432920+      InitResources2_
00432948       InitResources_
00432958*      CloseResFile2_
00432964       CloseResFile_
0043297c*      LoadstrInitStatics_
0044909c       _MainDir
Module: /mnt/sda5/.user/root/src/openwatcom-1.9/rel2/lib386/nt/clib3r.lib(iob.c)
00445d68       ___iob
00445f70       __fmode
004490a0       ___OpenStreams
004490a4       ___ClosedStreams
Module: /mnt/sda5/.user/root/src/openwatcom-1.9/bld/sdk/rc/wres/flat386/mf_r/wres.lib(loadres.c)
004329c4+      WResLoadResource2_
00432a84       WResLoadResource_
Module: /mnt/sda5/.user/root/src/openwatcom-1.9/bld/ui/nt/nt386/ui.lib(/mnt/sda5/.user/root/src/openwatcom-1.9/bld/ui/c/uirfrsh.c)
00432b41       uidorefresh_
Module: /mnt/sda5/.user/root/src/openwatcom-1.9/bld/ui/nt/nt386/ui.lib(/mnt/sda5/.user/root/src/openwatcom-1.9/bld/ui/nt/c/uievent.c)
00432df0+      CompareEvents_
00432df9       initkeyboard_
00432dfb       finikeyboard_
00432dfc       flushkey_
00432e42*      uimousespeed_
00432e42*      mousespawnend_
00432e42*      kbdspawnend_
00432e42*      kbdspawnstart_
00432e43*      mousespawnstart_
00432e48       initmouse_
00432e9a       finimouse_
00432ea8       uisetmouseposn_
00432eb3       checkmouse_
00432f55       getanyevent_
00433047       waitforevent_
004330a1       uicheckshift_
Module: /mnt/sda5/.user/root/src/openwatcom-1.9/bld/ui/nt/nt386/ui.lib(/mnt/sda5/.user/root/src/openwatcom-1.9/bld/ui/nt/c/uicurs.c)
004330a7       uioffcursor_
0043318d+      uigetcursor_
004331b0       uisetcursor_
004331f3       uiswapcursor_
00433207*      uioncursor_
00433207       uifinicursor_
00433228       uiinitcursor_
Module: /mnt/sda5/.user/root/src/openwatcom-1.9/bld/ui/nt/nt386/ui.lib(/mnt/sda5/.user/root/src/openwatcom-1.9/bld/ui/c/uibfill.c)
0043328b       bfill_
Module: /mnt/sda5/.user/root/src/openwatcom-1.9/bld/ui/nt/nt386/ui.lib(/mnt/sda5/.user/root/src/openwatcom-1.9/bld/ui/c/uibcopy.c)
004332ce       uibcopy_
Module: /mnt/sda5/.user/root/src/openwatcom-1.9/bld/ui/nt/nt386/ui.lib(/mnt/sda5/.user/root/src/openwatcom-1.9/bld/ui/c/uiwin.c)
00433369+      findspot_
004333ce       closewindow_
00433418       openwindow_
00433443       movewindow_
0043346d       frontwindow_
Module: /mnt/sda5/.user/root/src/openwatcom-1.9/bld/ui/nt/nt386/ui.lib(/mnt/sda5/.user/root/src/openwatcom-1.9/bld/ui/c/uiballoc.c)
0043349b       bframe_
004334a7       balloc_
004334ca       bunframe_
004334d6       bfree_
Module: /mnt/sda5/.user/root/src/openwatcom-1.9/rel2/lib386/nt/clib3r.lib(cstrtwnt)
004334de       _cstart_
004334de*      mainCRTStartup
Module: /mnt/sda5/.user/root/src/openwatcom-1.9/rel2/lib386/nt/clib3r.lib(argcv.c)
004490b4       __argc
004490b8       __argv
004490bc       ___argv
004490c0       ___argc
Module: /mnt/sda5/.user/root/src/openwatcom-1.9/bld/ui/nt/nt386/ui.lib(/mnt/sda5/.user/root/src/openwatcom-1.9/bld/ui/c/uibstr.c)
00433540       bstring_
00433575       braw_
Module: /mnt/sda5/.user/root/src/openwatcom-1.9/bld/ui/nt/nt386/ui.lib(/mnt/sda5/.user/root/src/openwatcom-1.9/bld/ui/c/uipopup.c)
0043386a+      uicreatepopupdesc_
00433a55       uiposfloatingpopup_
00433fa4       uicreatepopupinarea_
00433fc7+      uicreatesubpopup_
0043400d       uicreatesubpopupinarea_
0043402d*      uicreatepopup_
Module: /mnt/sda5/.user/root/src/openwatcom-1.9/bld/ui/nt/nt386/ui.lib(/mnt/sda5/.user/root/src/openwatcom-1.9/bld/ui/c/uivutil.c)
00434093       isdialogue_
004340a3       isscreen_
004340d6*      uisetsnow_
Module: /mnt/sda5/.user/root/src/openwatcom-1.9/bld/gui/ui/nt386/gui.lib(/mnt/sda5/.user/root/src/openwatcom-1.9/bld/gui/ui/c/uimenucr.c)
004340f0       uimenucurr_
Module: /mnt/sda5/.user/root/src/openwatcom-1.9/bld/ui/nt/nt386/ui.lib(/mnt/sda5/.user/root/src/openwatcom-1.9/bld/ui/c/uicheck.c)
0043412a       okarea_
00434158       oksubarea_
0043416b       okline_
00434191       okopen_
Module: /mnt/sda5/.user/root/src/openwatcom-1.9/bld/ui/nt/nt386/ui.lib(/mnt/sda5/.user/root/src/openwatcom-1.9/bld/ui/c/uibfake.c)
0043419c       bfake_
Module: /mnt/sda5/.user/root/src/openwatcom-1.9/bld/ui/nt/nt386/ui.lib(/mnt/sda5/.user/root/src/openwatcom-1.9/bld/ui/c/uiprot.c)
004341ca       uiunprotect_
004341f1       uiprotect_
Module: /mnt/sda5/.user/root/src/openwatcom-1.9/bld/gui/ui/nt386/gui.lib(/mnt/sda5/.user/root/src/openwatcom-1.9/bld/gui/ui/c/helpmem.c)
00434220       HelpMemFree_
00434230       HelpMemAlloc_
00434240       HelpMemRealloc_
Module: /mnt/sda5/.user/root/src/openwatcom-1.9/bld/gui/ui/nt386/gui.lib(/mnt/sda5/.user/root/src/openwatcom-1.9/bld/help/c/helpio.c)
00434250       HelpFileLen_
00434260       HelpRead_
00434270*      HelpWrite_
00434280       HelpSeek_
00434290       HelpTell_
004342a0       HelpOpen_
00434300       HelpClose_
00434310       HelpAccess_
00434340       HelpGetCWD_
00434350       HelpSearchEnv_
Module: /mnt/sda5/.user/root/src/openwatcom-1.9/rel2/lib386/nt/clib3r.lib(splitpat.c)
004343a0       _splitpath_
Module: /mnt/sda5/.user/root/src/openwatcom-1.9/bld/gui/ui/nt386/gui.lib(/mnt/sda5/.user/root/src/openwatcom-1.9/bld/help/c/search.c)
004346f0       HelpFindFirst_
00434780       HelpGetIndexedTopic_
004347f0       HelpFindTopicOffset_
00434860       InitHelpSearch_
00434ab0       GetDefTopic_
00434ac0*      GetDescrip_
00434ad0       FiniHelpSearch_
00445ff8+      _curFile
004490c4+      _curPage
004494c4+      _pageIndex
004494c8+      _pageHeader
004494cc+      _stringBlock
Module: /mnt/sda5/.user/root/src/openwatcom-1.9/bld/ui/nt/nt386/ui.lib(/mnt/sda5/.user/root/src/openwatcom-1.9/bld/ui/c/uivattr.c)
00434b10       uivattribute_
00434b56*      uivattrflip_
Module: /mnt/sda5/.user/root/src/openwatcom-1.9/bld/ui/nt/nt386/ui.lib(/mnt/sda5/.user/root/src/openwatcom-1.9/bld/ui/c/uitab.c)
00434c3f       uitabfilter_
Module: /mnt/sda5/.user/root/src/openwatcom-1.9/bld/gui/ui/nt386/gui.lib(/mnt/sda5/.user/root/src/openwatcom-1.9/bld/help/c/dlg.c)
00434f80+      GetListBoxItem_
004350a0       HelpDialogCallBack_
00435130       SearchDlgFini_
00435160       HelpSearch_
Module: /mnt/sda5/.user/root/src/openwatcom-1.9/bld/gui/ui/nt386/gui.lib(/mnt/sda5/.user/root/src/openwatcom-1.9/bld/help/c/helpscan.c)
00435450+      freeHyperlinkInfo_
00435470       ScanLine_
Module: /mnt/sda5/.user/root/src/openwatcom-1.9/rel2/lib386/nt/clib3r.lib(atoi.c)
00435600       atoi_
Module: /mnt/sda5/.user/root/src/openwatcom-1.9/bld/gui/ui/nt386/gui.lib(/mnt/sda5/.user/root/src/openwatcom-1.9/bld/help/c/vvscroll.c)
00435650       vvscroll_
Module: /mnt/sda5/.user/root/src/openwatcom-1.9/rel2/lib386/nt/clib3r.lib(strncmp.c)
00435740       strncmp_
Module: /mnt/sda5/.user/root/src/openwatcom-1.9/bld/gui/ui/nt386/gui.lib(/mnt/sda5/.user/root/src/openwatcom-1.9/bld/help/c/msgbox.c)
00435780       ShowMsgBox_
004460c0+      _helpMsgBox
Module: /mnt/sda5/.user/root/src/openwatcom-1.9/bld/ui/nt/nt386/ui.lib(/mnt/sda5/.user/root/src/openwatcom-1.9/bld/ui/c/uivmove.c)
004357db       uivmoveblock_
Module: /mnt/sda5/.user/root/src/openwatcom-1.9/bld/ui/nt/nt386/ui.lib(/mnt/sda5/.user/root/src/openwatcom-1.9/bld/ui/c/uibpix.c)
00435911       bpixel_
Module: /mnt/sda5/.user/root/src/openwatcom-1.9/bld/gui/ui/nt386/gui.lib(/mnt/sda5/.user/root/src/openwatcom-1.9/bld/gui/ui/c/guidrawt.c)
00435960       GUIXDrawText_
00435c70       GUIXDrawTextRGB_
Module: /mnt/sda5/.user/root/src/openwatcom-1.9/bld/sdk/rc/wres/flat386/mf_r/wres.lib(resmenu.c)
00435c80*      ResWriteMenuHeader_
00435cb0*      ResWriteMenuExHeader_
00435d14+      ResWriteMenuItemPopup_
00435d64*      ResWriteMenuExItemPopup_
00435dfc+      ResWriteMenuItemNormal_
00435e60*      ResWriteMenuExItemNormal_
00435ee8*      ResWriteMenuItem_
00435f0c+      ResReadMenuHeader_
00435f4c*      ResReadMenuExtraBytes_
00435f88*      ResIsMenuEx_
00435fb4*      ResIsHeaderMenuEx_
00435fc0*      ResReadMenuExItem_
004360a0*      ResReadMenuItem_
00436120*      ResReadMenuItem32_
004361a0       ResNewMenuItem_
004361dc       ResFreeMenuItem_
Module: /mnt/sda5/.user/root/src/openwatcom-1.9/bld/ui/nt/nt386/ui.lib(/mnt/sda5/.user/root/src/openwatcom-1.9/bld/ui/c/uiarea.c)
00436214       dividearea_
Module: /mnt/sda5/.user/root/src/openwatcom-1.9/rel2/lib386/nt/clib3r.lib(mbisdbcs.c)
004494e8       ___IsDBCS
Module: /mnt/sda5/.user/root/src/openwatcom-1.9/rel2/lib386/nt/clib3r.lib(mbislead.c)
004363d0*      _ismbblead_
004494ec       ___MBCSIsTable
Module: /mnt/sda5/.user/root/src/openwatcom-1.9/rel2/lib386/nt/clib3r.lib(nonibm.c)
004363f0*      __is_nonIBM_
004460fc       ___NonIBM
Module: /mnt/sda5/.user/root/src/openwatcom-1.9/rel2/lib386/nt/clib3r.lib(setbits.c)
00436410       __setbits_
Module: /mnt/sda5/.user/root/src/openwatcom-1.9/rel2/lib386/nt/clib3r.lib(bits.c)
00436450       __Bits
Module: /mnt/sda5/.user/root/src/openwatcom-1.9/bld/gui/ui/nt386/gui.lib(/mnt/sda5/.user/root/src/openwatcom-1.9/bld/gui/ui/c/guienum.c)
00436460       GUIEnumChildWindows_
Module: /mnt/sda5/.user/root/src/openwatcom-1.9/bld/gui/ui/nt386/gui.lib(/mnt/sda5/.user/root/src/openwatcom-1.9/bld/gui/c/guipick.c)
00436490+      GUIPickEvent_
00436530+      GUIDlgPickWithRtn_
004365b0       GUIDlgPick_
Module: /mnt/sda5/.user/root/src/openwatcom-1.9/rel2/lib386/nt/clib3r.lib(ljmphdl.c)
00446178       ___longjmp_handler
Module: /mnt/sda5/.user/root/src/openwatcom-1.9/bld/ui/nt/nt386/ui.lib(/mnt/sda5/.user/root/src/openwatcom-1.9/bld/ui/c/uivline.c)
004366ee       uiveditevent_
0043687a*      uiveditline_
004368a0       uiveditinit_
004368ec       uiveditfini_
0044617c       _LineEvents
Module: /mnt/sda5/.user/root/src/openwatcom-1.9/rel2/lib386/nt/clib3r.lib(dosret.c)
004368f0*      _dosretax_
00436900*      _dosret0_
00436910       __set_errno_dos_
00436940*      __set_errno_dos_reterr_
00436950       __set_errno_nt_
00436960*      __set_errno_nt_reterr_
Module: /mnt/sda5/.user/root/src/openwatcom-1.9/rel2/lib386/nt/clib3r.lib(mainwnt.c)
004462ac*      ___TlsIndex
004462b0+      ___FirstThreadData
004462b4       ___GetThreadPtr
004462b8       __AccessFileH
004462bc       __ReleaseFileH
004462c0       __AccessIOB
004462c4       __ReleaseIOB
004462c8       __AccessNHeap
004462cc*      __AccessFHeap
004462d0       __ReleaseNHeap
00436990*      __threadid_
004369b0+      __sig_null_rtn_
004369c0+      __NTInit_
00436ba0+      __NTFini_
00436c00       __NTMainInit_
00436c60       __exit_
004462d4*      __ReleaseFHeap
004462d8*      __AccessTDList
004462dc*      __ReleaseTDList
004462e0       __AccessFList
004462e4       __ReleaseFList
004462e8+      __ThreadExitRtn
004462ec       ___sig_init_rtn
004462f0       ___sig_fini_rtn
004462f4       ___process_fini
004495f8       ___Is_DLL
Module: /mnt/sda5/.user/root/src/openwatcom-1.9/rel2/lib386/nt/clib3r.lib(seterrno.c)
00436cb0       __set_errno_
00436cbe*      __set_EDOM_
00436ccc       __set_ERANGE_
00436cda*      __set_EINVAL_
00436ced       __set_doserrno_
Module: /mnt/sda5/.user/root/src/openwatcom-1.9/rel2/lib386/nt/clib3r.lib(mbsnextc.c)
00436d00       _mbsnextc_
Module: /mnt/sda5/.user/root/src/openwatcom-1.9/rel2/lib386/nt/clib3r.lib(mbsinc.c)
00436d40       _mbsinc_
Module: /mnt/sda5/.user/root/src/openwatcom-1.9/rel2/lib386/nt/clib3r.lib(ntdirinf.c)
00436d70       __MakeDOSDT_
00436da0*      __FromDOSDT_
00436dd0       __GetNTDirInfo_
00436e10       __NTFindNextFileWithAttr_
Module: /mnt/sda5/.user/root/src/openwatcom-1.9/rel2/lib386/nt/clib3r.lib(strdup.c)
00436e70       __clib_strdup_
Module: /mnt/sda5/.user/root/src/openwatcom-1.9/rel2/lib386/nt/clib3r.lib(alphabet.c)
00444028       ___Alphabet
Module: /mnt/sda5/.user/root/src/openwatcom-1.9/bld/ui/nt/nt386/ui.lib(/mnt/sda5/.user/root/src/openwatcom-1.9/bld/ui/c/uiband.c)
00436ed6       uibandinit_
00436f2a       uibandmove_
00436f4d       uibandfini_
Module: /mnt/sda5/.user/root/src/openwatcom-1.9/bld/sdk/rc/wres/flat386/mf_r/wres.lib(wriidfn.c)
00436f70       WResInitIDFromNum_
Module: /mnt/sda5/.user/root/src/openwatcom-1.9/bld/sdk/rc/wres/flat386/mf_r/wres.lib(wrfindrs.c)
00436f80       __FindType_
00436fa4       __FindRes_
00436fc8       __FindLang_
00437004       WResFindResource_
Module: /mnt/sda5/.user/root/src/openwatcom-1.9/bld/sdk/rc/wres/flat386/mf_r/wres.lib(wrgetli.c)
00437090       WResGetLangInfo_
004370a4*      WResGetFileInfo_
Module: /mnt/sda5/.user/root/src/openwatcom-1.9/bld/sdk/rc/wres/flat386/mf_r/wres.lib(ropenfro.c)
004370c0       ResOpenFileRO_
Module: /mnt/sda5/.user/root/src/openwatcom-1.9/bld/sdk/rc/wres/flat386/mf_r/wres.lib(wrinitdi.c)
00437110       WResInitDir_
Module: /mnt/sda5/.user/root/src/openwatcom-1.9/bld/sdk/rc/wres/flat386/mf_r/wres.lib(wrreaddi.c)
00437888       WResReadDir_
00437894+      WResReadDir2_
Module: /mnt/sda5/.user/root/src/openwatcom-1.9/bld/sdk/rc/wres/flat386/mf_r/wres.lib(wrfreedi.c)
00437950+      __FreeLangList_
0043797c+      __FreeResList_
004379b4       __FreeTypeList_
004379ec       WResFreeDir_
Module: /mnt/sda5/.user/root/src/openwatcom-1.9/bld/sdk/rc/wres/flat386/mf_r/wres.lib(rclosef.c)
00437a10       ResCloseFile_
Module: /mnt/sda5/.user/root/src/openwatcom-1.9/rel2/lib386/nt/clib3r.lib(initfile.c)
00437a60       __InitFiles_
Module: /mnt/sda5/.user/root/src/openwatcom-1.9/rel2/lib386/nt/clib3r.lib(ioexit.c)
00437b60*      fcloseall_
00437b70       __full_io_exit_
Module: /mnt/sda5/.user/root/src/openwatcom-1.9/rel2/lib386/nt/clib3r.lib(bsearch.c)
00437b80       bsearch_
Module: /mnt/sda5/.user/root/src/openwatcom-1.9/bld/ui/nt/nt386/ui.lib(/mnt/sda5/.user/root/src/openwatcom-1.9/bld/ui/nt/c/uisnow.c)
00437bf5*      vertretrace_
00437bf6       issnow_
Module: /mnt/sda5/.user/root/src/openwatcom-1.9/bld/ui/nt/nt386/ui.lib(/mnt/sda5/.user/root/src/openwatcom-1.9/bld/ui/c/uifar.c)
00437c07       _farfill
00437c21       _farcopy
00437c3e       _farstring
00437c9a       _farattrib
00437cc1       _farattrflip
Module: /mnt/sda5/.user/root/src/openwatcom-1.9/bld/ui/nt/nt386/ui.lib(/mnt/sda5/.user/root/src/openwatcom-1.9/bld/ui/c/uimem.c)
00437ce3       faralloc_
00437ce8       farfree_
Module: /mnt/sda5/.user/root/src/openwatcom-1.9/rel2/lib386/nt/clib3r.lib(main2wnt.c)
00437cf0       __NTMain
Module: /mnt/sda5/.user/root/src/openwatcom-1.9/rel2/lib386/nt/clib3r.lib(segdefns)
00401003       ___begtext
00444000*      __nullarea
004466a8       __Start_XI
004466e4       __End_XI
004466e4       __Start_YI
00446708       __End_YI
Module: /mnt/sda5/.user/root/src/openwatcom-1.9/rel2/lib386/nt/clib3r.lib(initargv.c)
00437d50       __Init_Argv_
00437da0+      _getargv_
00437f40       __Fini_Argv_
Module: /mnt/sda5/.user/root/src/openwatcom-1.9/rel2/lib386/nt/clib3r.lib(toupper.c)
00437f50       toupper_
Module: /mnt/sda5/.user/root/src/openwatcom-1.9/bld/ui/nt/nt386/ui.lib(/mnt/sda5/.user/root/src/openwatcom-1.9/bld/ui/c/uibarf.c)
00437f5e       uibarf_
Module: /mnt/sda5/.user/root/src/openwatcom-1.9/rel2/lib386/nt/clib3r.lib(filelen.c)
00437f60       filelength_
Module: /mnt/sda5/.user/root/src/openwatcom-1.9/rel2/lib386/nt/clib3r.lib(mbsnccnt.c)
00437fe0       _mbsnccnt_
Module: /mnt/sda5/.user/root/src/openwatcom-1.9/rel2/lib386/nt/clib3r.lib(mbsncpy.c)
00438010       _mbsncpy_
Module: /mnt/sda5/.user/root/src/openwatcom-1.9/rel2/lib386/nt/clib3r.lib(mbsnbcnt.c)
00438030       _mbsnbcnt_
Module: /mnt/sda5/.user/root/src/openwatcom-1.9/bld/ui/nt/nt386/ui.lib(/mnt/sda5/.user/root/src/openwatcom-1.9/bld/ui/c/uibattr.c)
00438091       battribute_
004380e1       battrflip_
Module: /mnt/sda5/.user/root/src/openwatcom-1.9/bld/sdk/rc/wres/flat386/mf_r/wres.lib(wrerror.c)
00438130       WresRecordError_
Module: /mnt/sda5/.user/root/src/openwatcom-1.9/bld/sdk/rc/wres/flat386/mf_r/wres.lib(write.c)
0043816c       ResWriteUint8_
0043819c       ResWriteUint16_
004381cc       ResWriteUint32_
004381fc+      WResWriteWResIDNameUni_
004382e4*      WResWriteWResIDName_
004382f0*      WResWriteWResID_
00438338*      WResWriteTypeRecord_
0043837c*      WResWriteResRecord_
004383c0*      WResWriteLangRecord_
004383f0*      WResWriteHeaderRecord_
00438460*      WResWriteExtHeader_
00438490+      ResWriteStringLen_
00438514       ResWriteString_
00438540+      ResWriteNameOrOrdinal_
00438634*      MResWriteResourceHeader_
00438768*      WriteInitStatics_
004462f8+      _ConvToUnicode
Module: /mnt/sda5/.user/root/src/openwatcom-1.9/bld/sdk/rc/wres/flat386/mf_r/wres.lib(resseek.c)
00438780*      ResSeek_
004387a0       ResPadDWord_
Module: /mnt/sda5/.user/root/src/openwatcom-1.9/bld/sdk/rc/wres/flat386/mf_r/wres.lib(rduint32.c)
00438800       ResReadUint32_
Module: /mnt/sda5/.user/root/src/openwatcom-1.9/bld/sdk/rc/wres/flat386/mf_r/wres.lib(rduint16.c)
00438850       ResReadUint16_
Module: /mnt/sda5/.user/root/src/openwatcom-1.9/bld/sdk/rc/wres/flat386/mf_r/wres.lib(rrdstr.c)
004388a0       ResReadString_
00438910       ResRead32String_
Module: /mnt/sda5/.user/root/src/openwatcom-1.9/rel2/lib386/nt/clib3r.lib(mbinit.c)
004389bd       __mbinit_
004462fc       ___MBCodePage
Module: /mnt/sda5/.user/root/src/openwatcom-1.9/bld/ui/nt/nt386/ui.lib(/mnt/sda5/.user/root/src/openwatcom-1.9/bld/ui/c/uipad.c)
00438aab       uipadblanks_
Module: /mnt/sda5/.user/root/src/openwatcom-1.9/bld/ui/nt/nt386/ui.lib(/mnt/sda5/.user/root/src/openwatcom-1.9/bld/ui/c/uivedit.c)
00438b18+      secondbyte_
00438b33       uieditevent_
Module: /mnt/sda5/.user/root/src/openwatcom-1.9/rel2/lib386/nt/clib3r.lib(hdlman.c)
00446300+      ___NHandles
00446304+      ___OSHandles
00446308+      ___FakeHandles
00438ef0+      __growPOSIXHandles_
00438f90       __allocPOSIXHandle_
00439050       __freePOSIXHandle_
00439070       __getOSHandle_
00439080       __setOSHandle_
004390d0+      __NTGetFakeHandle_
00439140       __initPOSIXHandles_
00439220*      __set_handles_
00439230*      _grow_handles_
Module: /mnt/sda5/.user/root/src/openwatcom-1.9/rel2/lib386/nt/clib3r.lib(crwdata)
00446358       __osmajor
00446359       __osminor
0044635a       __osbuild
0044635c       __osver
00446360       __winmajor
00446364       __winminor
00446368       __winver
00446324       __LpDllName
00446328       __LpwCmdLine
0044632c       __LpwPgmName
00446330       __LpwDllName
0044631c       __LpCmdLine
00446320       __LpPgmName
00446314*      __dynend
00446318       __curbrk
00446334*      __STACKLOW
00446338       __STACKTOP
0044633c       __ASTACKSIZ
00446340       __ASTACKPTR
00446344*      __cbyte
00446348*      __cbyte2
0044634c*      __child
00446352       __Envptr
00446356*      __Envseg
00446350       __no87
0044636c       ___FPE_handler
Module: /mnt/sda5/.user/root/src/openwatcom-1.9/rel2/lib386/nt/clib3r.lib(environ.c)
00449e44       ___env_mask
00449e48       _environ
00449e4c       __wenviron
Module: /mnt/sda5/.user/root/src/openwatcom-1.9/rel2/lib386/nt/clib3r.lib(getmodfn.c)
00439270       __lib_GetModuleFileNameW_
Module: /mnt/sda5/.user/root/src/openwatcom-1.9/rel2/lib386/nt/clib3r.lib(ustrdup.c)
00439301       __clib_wcsdup_
Module: /mnt/sda5/.user/root/src/openwatcom-1.9/rel2/lib386/nt/clib3r.lib(excptwnt.c)
00439990+      ___ReportException@4
00439de0       __DefaultExceptionHandler_
00439e20+      ___ExceptionFilter
0043a030       __NewExceptionFilter_
0043a060       __DoneExceptionFilter_
00446370       ___oscode_check_func
00446374       ___raise_func
00449e50*      _sw
00449e54+      ___ExceptionHandled
00449e55+      ___ReportInvoked
Module: /mnt/sda5/.user/root/src/openwatcom-1.9/rel2/lib386/nt/clib3r.lib(stklmwnt.c)
0043a0a0       __init_stack_limits_
Module: /mnt/sda5/.user/root/src/openwatcom-1.9/rel2/lib386/nt/clib3r.lib(initrtns.c)
0043a120       __InitRtns
0043a170       __FiniRtns
Module: /mnt/sda5/.user/root/src/openwatcom-1.9/bld/sdk/rc/wres/flat386/mf_r/wres.lib(wridcmp.c)
0043a1d0       WResIDCmp_
Module: /mnt/sda5/.user/root/src/openwatcom-1.9/rel2/lib386/nt/clib3r.lib(setmd.c)
0043a210       setmode_
Module: /mnt/sda5/.user/root/src/openwatcom-1.9/bld/sdk/rc/wres/flat386/mf_r/wres.lib(ralliae.c)
0043a300       ResAddLLItemAtEnd_
Module: /mnt/sda5/.user/root/src/openwatcom-1.9/bld/sdk/rc/wres/flat386/mf_r/wres.lib(wrrfrr.c)
0043a330       WResReadFixedResRecord_
0043a370       WResReadFixedResRecord1_
0043a3b0       WResReadFixedResRecord2_
Module: /mnt/sda5/.user/root/src/openwatcom-1.9/bld/sdk/rc/wres/flat386/mf_r/wres.lib(wridexby.c)
0043a430       WResIDExtraBytes_
Module: /mnt/sda5/.user/root/src/openwatcom-1.9/bld/sdk/rc/wres/flat386/mf_r/wres.lib(wrrewrid.c)
0043a440       WResReadExtraWResID_
Module: /mnt/sda5/.user/root/src/openwatcom-1.9/bld/sdk/rc/wres/flat386/mf_r/wres.lib(wrrftr.c)
0043a4a0       WResReadFixedTypeRecord_
0043a4e8       WResReadFixedTypeRecord2_
Module: /mnt/sda5/.user/root/src/openwatcom-1.9/bld/sdk/rc/wres/flat386/mf_r/wres.lib(wrrhr.c)
0043a560       WResReadHeaderRecord_
0043a5d8       WResReadExtHeader_
Module: /mnt/sda5/.user/root/src/openwatcom-1.9/bld/sdk/rc/wres/flat386/mf_r/wres.lib(mrrdrh.c)
0043a620       M32ResReadResourceHeader_
0043a78c       MResReadResourceHeader_
Module: /mnt/sda5/.user/root/src/openwatcom-1.9/bld/sdk/rc/wres/flat386/mf_r/wres.lib(wrfree.c)
0043a830       MResFreeResourceHeader_
Module: /mnt/sda5/.user/root/src/openwatcom-1.9/bld/sdk/rc/wres/flat386/mf_r/wres.lib(wridfnoo.c)
0043a870       WResIDFromNameOrOrd_
Module: /mnt/sda5/.user/root/src/openwatcom-1.9/bld/sdk/rc/wres/flat386/mf_r/wres.lib(wraddres.c)
0043a9e0*      WResAddResource_
0043aa3c       WResAddResource2_
Module: /mnt/sda5/.user/root/src/openwatcom-1.9/bld/sdk/rc/wres/flat386/mf_r/wres.lib(wriswrf.c)
0043ab60       WResFindResType_
0043abf8*      WResIsWResFile_
Module: /mnt/sda5/.user/root/src/openwatcom-1.9/rel2/lib386/nt/clib3r.lib(nmalloc.c)
0043ac10       _nmalloc_
0043ac10       malloc_
0044638c       ___nheapbeg
00446390       ___MiniHeapRover
00446394       ___LargestSizeB4MiniHeapRover
Module: /mnt/sda5/.user/root/src/openwatcom-1.9/rel2/lib386/nt/clib3r.lib(xmsgwnt.c)
0043ad10+      __exit_with_msg_
0043ad70       __fatal_runtime_error_
Module: /mnt/sda5/.user/root/src/openwatcom-1.9/rel2/lib386/nt/clib3r.lib(fclose.c)
0043ad90       __doclose_
0043ae30       __shutdown_stream_
0043ae50       fclose_
00449e58+      ___RmTmpFileFn
Module: /mnt/sda5/.user/root/src/openwatcom-1.9/rel2/lib386/nt/clib3r.lib(freefp.c)
0043aea0       __freefp_
0043aef0       __purgefp_
Module: /mnt/sda5/.user/root/src/openwatcom-1.9/rel2/lib386/nt/clib3r.lib(fmemmove.c)
0043af20       _fmemmove_
Module: /mnt/sda5/.user/root/src/openwatcom-1.9/bld/ui/nt/nt386/ui.lib(/mnt/sda5/.user/root/src/openwatcom-1.9/bld/ui/c/uifmem.c)
0043afb0       uifaralloc_
0043afb8       uifarfree_
Module: /mnt/sda5/.user/root/src/openwatcom-1.9/rel2/lib386/nt/clib3r.lib(mthrdini.c)
0043afc0       __InitThreadData_
00446398       ___ThreadDataSize
Module: /mnt/sda5/.user/root/src/openwatcom-1.9/rel2/lib386/nt/clib3r.lib(cmain386.c)
0043aff0       __CMain
Module: /mnt/sda5/.user/root/src/openwatcom-1.9/rel2/lib386/nt/clib3r.lib(dosseg)
00001234       __DOSseg__
Module: /mnt/sda5/.user/root/src/openwatcom-1.9/rel2/lib386/nt/clib3r.lib(histsplt.c)
00449e5c       ___historical_splitparms
Module: /mnt/sda5/.user/root/src/openwatcom-1.9/rel2/lib386/nt/clib3r.lib(___argc.c)
00449e60       ____Argc
00449e64       ____Argv
Module: /mnt/sda5/.user/root/src/openwatcom-1.9/rel2/lib386/nt/clib3r.lib(iomode.c)
0043b030       __GetIOMode_
0043b050       __SetIOMode_nogrow_
0044639c       ___NFiles
004463a0       ___init_mode
004463f0       ___io_mode
Module: /mnt/sda5/.user/root/src/openwatcom-1.9/rel2/lib386/nt/clib3r.lib(__lseek.c)
0043b070       __lseek_
Module: /mnt/sda5/.user/root/src/openwatcom-1.9/rel2/lib386/nt/clib3r.lib(mbterm.c)
0043b0b0       _mbterm_
Module: /mnt/sda5/.user/root/src/openwatcom-1.9/rel2/lib386/nt/clib3r.lib(mbclen.c)
0043b0f0       _mbclen_
Module: /mnt/sda5/.user/root/src/openwatcom-1.9/rel2/lib386/nt/clib3r.lib(mbsnbcpy.c)
0043b120       _mbsnbcpy_
Module: /mnt/sda5/.user/root/src/openwatcom-1.9/bld/sdk/rc/wres/flat386/mf_r/wres.lib(varstr.c)
0043b180       VarStringStart_
0043b1b4       VarStringAddChar_
0043b20c       VarStringEnd_
Module: /mnt/sda5/.user/root/src/openwatcom-1.9/bld/sdk/rc/wres/flat386/mf_r/wres.lib(rduint8.c)
0043b2a0       ResReadUint8_
Module: /mnt/sda5/.user/root/src/openwatcom-1.9/rel2/lib386/nt/clib3r.lib(stiomode.c)
0043b2f0       __grow_iomode_
0043b3c0+      __shrink_iomode_
0043b400       __SetIOMode_
Module: /mnt/sda5/.user/root/src/openwatcom-1.9/rel2/lib386/nt/clib3r.lib(setenvp.c)
0043b470       __setenvp_
0043b530       __freeenvp_
Module: /mnt/sda5/.user/root/src/openwatcom-1.9/rel2/lib386/nt/clib3r.lib(ustrlen.c)
0043b57d       wcslen_
Module: /mnt/sda5/.user/root/src/openwatcom-1.9/rel2/lib386/nt/clib3r.lib(memcpy.c)
0043b590       memcpy_
Module: /mnt/sda5/.user/root/src/openwatcom-1.9/rel2/lib386/nt/clib3r.lib(conutwnt.c)
0043b5c0*      __NTRealKey_
0043b670*      __NTConsoleInput_
0043b680       __NTConsoleOutput_
Module: /mnt/sda5/.user/root/src/openwatcom-1.9/rel2/lib386/nt/clib3r.lib(fclex387.c)
0043b690       _ClearFPE_
Module: /mnt/sda5/.user/root/src/openwatcom-1.9/rel2/lib386/nt/clib3r.lib(signlwnt.c)
004463fc+      __SignalTable
0043b6a0+      __SetSignalFunc_
0043b6f0+      __GetSignalFunc_
0043b720+      __GetSignalOSCode_
0043b750+      __CheckSignalExCode_
0043b890+      __sigabort_
0043b8a0       __sigfpe_handler_
0043b8f0*      signal_
0043b980+      raise_
0043b9f0+      __SigInit_
0043ba40+      __SigFini_
0043ba80+      __sig_init_
Module: /mnt/sda5/.user/root/src/openwatcom-1.9/bld/sdk/rc/wres/flat386/mf_r/wres.lib(wridnacm.c)
0043bae0       WResIDNameCmp_
Module: /mnt/sda5/.user/root/src/openwatcom-1.9/bld/sdk/rc/wres/flat386/mf_r/wres.lib(rrnamoor.c)
0043bb30       ResReadNameOrOrdinal_
0043bc18       ResRead32NameOrOrdinal_
Module: /mnt/sda5/.user/root/src/openwatcom-1.9/bld/sdk/rc/wres/flat386/mf_r/wres.lib(wridfrst.c)
0043bd00       WResIDFromStr_
Module: /mnt/sda5/.user/root/src/openwatcom-1.9/bld/sdk/rc/wres/flat386/mf_r/wres.lib(wridfrnu.c)
0043bd70       WResIDFromNum_
Module: /mnt/sda5/.user/root/src/openwatcom-1.9/bld/sdk/rc/wres/flat386/mf_r/wres.lib(wrfirres.c)
0043bdd0*      WResFirstResource_
0043bdfc       WResSetEmptyWindow_
0043be18       WResMakeWindow_
Module: /mnt/sda5/.user/root/src/openwatcom-1.9/rel2/lib386/nt/clib3r.lib(nmemneed.c)
0043be30       __nmemneed_
Module: /mnt/sda5/.user/root/src/openwatcom-1.9/rel2/lib386/nt/clib3r.lib(mem.c)
0043be40       __MemAllocator
0043bef0       __MemFree
Module: /mnt/sda5/.user/root/src/openwatcom-1.9/rel2/lib386/nt/clib3r.lib(grownear.c)
0043c190       __ExpandDGROUP_
Module: /mnt/sda5/.user/root/src/openwatcom-1.9/rel2/lib386/nt/clib3r.lib(enterdb.c)
0043c1b0       __EnterWVIDEO_
00446468+      ___WD_Present
Module: /mnt/sda5/.user/root/src/openwatcom-1.9/rel2/lib386/nt/clib3r.lib(_clsewnt.c)
0043c1e0       __close_
Module: /mnt/sda5/.user/root/src/openwatcom-1.9/rel2/lib386/nt/clib3r.lib(flush.c)
0043c240       __flush_
Module: /mnt/sda5/.user/root/src/openwatcom-1.9/rel2/lib386/nt/clib3r.lib(cinit.c)
0043c340       __CommonInit_
Module: /mnt/sda5/.user/root/src/openwatcom-1.9/rel2/lib386/nt/clib3r.lib(iomodtty.c)
0043c350       __ChkTTYIOMode_
0043c390*      __IOMode_
Module: /mnt/sda5/.user/root/src/openwatcom-1.9/rel2/lib386/nt/clib3r.lib(dofilstr.c)
0043c3d0       __ParsePosixHandleStr_
Module: /mnt/sda5/.user/root/src/openwatcom-1.9/rel2/lib386/nt/clib3r.lib(clearenv.c)
0043c4f0       clearenv_
Module: /mnt/sda5/.user/root/src/openwatcom-1.9/rel2/lib386/nt/clib3r.lib(abort.c)
0043c595*      abort_
0043c5a7       __terminate_
0044646c       ___abort
Module: /mnt/sda5/.user/root/src/openwatcom-1.9/rel2/lib386/nt/clib3r.lib(amblksiz.c)
00446470       __amblksiz
Module: /mnt/sda5/.user/root/src/openwatcom-1.9/rel2/lib386/nt/clib3r.lib(heapen.c)
0043c5c0*      _heapenable_
00446474       ___heap_enabled
Module: /mnt/sda5/.user/root/src/openwatcom-1.9/rel2/lib386/nt/clib3r.lib(nfree.c)
0043c5f0       _nfree_
0043c5f0       free_
00449e70       ___MiniHeapFreeRover
Module: /mnt/sda5/.user/root/src/openwatcom-1.9/rel2/lib386/nt/clib3r.lib(nheapmin.c)
0043c700       _nheapshrink_
0043c700*      _nheapmin_
0043c700*      _heapmin_
0043c700*      _heapshrink_
Module: /mnt/sda5/.user/root/src/openwatcom-1.9/rel2/lib386/nt/clib3r.lib(fsync.c)
0043c7f0       fsync_
Module: /mnt/sda5/.user/root/src/openwatcom-1.9/rel2/lib386/nt/clib3r.lib(qwrit.c)
0043c840       __qwrite_
Module: /mnt/sda5/.user/root/src/openwatcom-1.9/rel2/lib386/nt/clib3r.lib(isattwnt.c)
0043c920       isatty_
Module: /mnt/sda5/.user/root/src/openwatcom-1.9/rel2/lib386/nt/clib3r.lib(strtol.c)
0043cb60*      strtoul_
0043cb70       strtol_
Module: /mnt/sda5/.user/root/src/openwatcom-1.9/rel2/lib386/nt/clib3r.lib(putenv.c)
0043cb80       putenv_
0043ce10       __putenv_
Module: /mnt/sda5/.user/root/src/openwatcom-1.9/rel2/lib386/nt/clib3r.lib(mbschr.c)
0043cf80       _mbschr_
Module: /mnt/sda5/.user/root/src/openwatcom-1.9/rel2/lib386/nt/clib3r.lib(mbslen.c)
0043cfe0       _mbslen_
Module: /mnt/sda5/.user/root/src/openwatcom-1.9/rel2/lib386/nt/clib3r.lib(mbstowcs.c)
0043d010       mbstowcs_
Module: /mnt/sda5/.user/root/src/openwatcom-1.9/rel2/lib386/nt/clib3r.lib(uputenv.c)
0043d090*      _wputenv_
0043d2b0       __wputenv_
Module: /mnt/sda5/.user/root/src/openwatcom-1.9/rel2/lib386/nt/clib3r.lib(mbconv.c)
0043d3b0       _mbvtop_
Module: /mnt/sda5/.user/root/src/openwatcom-1.9/rel2/lib386/nt/clib3r.lib(mbccmp.c)
0043d3d0       _mbccmp_
Module: /mnt/sda5/.user/root/src/openwatcom-1.9/rel2/lib386/nt/clib3r.lib(mbtowc.c)
0043d410       mbtowc_
Module: /mnt/sda5/.user/root/src/openwatcom-1.9/rel2/lib386/nt/clib3r.lib(ustrchr.c)
0043d4a0       wcschr_
Module: /mnt/sda5/.user/root/src/openwatcom-1.9/rel2/lib386/nt/clib3r.lib(setenvar.c)
0043d4c0       __lib_SetEnvironmentVariableW_
Module: /mnt/sda5/.user/root/src/openwatcom-1.9/rel2/lib386/nt/clib3r.lib(crtwenv.c)
0043d5b0       __create_wide_environment_
Module: /mnt/sda5/.user/root/src/openwatcom-1.9/rel2/lib386/nt/clib3r.lib(wcstombs.c)
0043d620       wcstombs_
Module: /mnt/sda5/.user/root/src/openwatcom-1.9/rel2/lib386/nt/clib3r.lib(utoupper.c)
0043d6bf       towupper_
Module: /mnt/sda5/.user/root/src/openwatcom-1.9/rel2/lib386/nt/clib3r.lib(wctomb.c)
0043d6d0       wctomb_
Module: /mnt/sda5/.user/root/src/openwatcom-1.9/rel2/lib386/nt/clib3r.lib(lseek.c)
0043d710       lseek_
Module: /mnt/sda5/.user/root/src/openwatcom-1.9/rel2/lib386/nt/clib3r.lib(openwnt.c)
0043d960       open_
0043d980       sopen_
Module: /mnt/sda5/.user/root/src/openwatcom-1.9/rel2/lib386/nt/clib3r.lib(close.c)
0043d9b0       close_
Module: /mnt/sda5/.user/root/src/openwatcom-1.9/rel2/lib386/nt/clib3r.lib(read.c)
0043d9d0       read_
Module: /mnt/sda5/.user/root/src/openwatcom-1.9/rel2/lib386/nt/clib3r.lib(nrealloc.c)
0043db60*      _nrealloc_
0043db60       realloc_
Module: /mnt/sda5/.user/root/src/openwatcom-1.9/rel2/lib386/nt/clib3r.lib(write.c)
0043de30       write_
Module: /mnt/sda5/.user/root/src/openwatcom-1.9/rel2/lib386/nt/clib3r.lib(remove.c)
0043e090       remove_
Module: /mnt/sda5/.user/root/src/openwatcom-1.9/rel2/lib386/nt/clib3r.lib(fopen.c)
0043e0a0+      __open_flags_
0043e2b0+      _fsopen_
0043e300       fopen_
0043e390*      freopen_
Module: /mnt/sda5/.user/root/src/openwatcom-1.9/rel2/lib386/nt/clib3r.lib(sprintf.c)
0043e400       sprintf_
Module: /mnt/sda5/.user/root/src/openwatcom-1.9/rel2/lib386/nt/clib3r.lib(fltused.c)
00446504       _fltused_
Module: /mnt/sda5/.user/root/src/openwatcom-1.9/rel2/lib386/nt/clib3r.lib(_8087)
00446508       __8087
00446509       __real87
Module: /mnt/sda5/.user/root/src/openwatcom-1.9/rel2/lib386/nt/clib3r.lib(statwnt.c)
0043e53a       stat_
Module: /mnt/sda5/.user/root/src/openwatcom-1.9/rel2/lib386/nt/clib3r.lib(split2.c)
0043e7c0       _splitpath2_
Module: /mnt/sda5/.user/root/src/openwatcom-1.9/rel2/lib386/nt/clib3r.lib(memset.c)
0043e910       memset_
Module: /mnt/sda5/.user/root/src/openwatcom-1.9/rel2/lib386/nt/clib3r.lib(exit.c)
0043e928+      __null_int23_exit_
0043e929       exit_
0043e979*      _exit_
0044650c+      ___int23_exit
00446510+      ___FPE_handler_exit
Module: /mnt/sda5/.user/root/src/openwatcom-1.9/rel2/lib386/nt/clib3r.lib(fprintf.c)
0043e990       fprintf_
Module: /mnt/sda5/.user/root/src/openwatcom-1.9/rel2/lib386/nt/clib3r.lib(stackwnt.c)
0043e9c0       stackavail_
Module: /mnt/sda5/.user/root/src/openwatcom-1.9/rel2/lib386/nt/clib3r.lib(stk)
0043e9d1*      __CHK
0043e9e1*      __STK
0043ea00       __STKOVERFLOW_
0043ea10       __GRO
0043ea30*      __alloca_probe
Module: /mnt/sda5/.user/root/src/openwatcom-1.9/rel2/lib386/nt/clib3r.lib(fstatwnt.c)
0043ea50       fstat_
Module: /mnt/sda5/.user/root/src/openwatcom-1.9/rel2/lib386/nt/clib3r.lib(qsort.c)
0043ed80       qsort_
Module: /mnt/sda5/.user/root/src/openwatcom-1.9/rel2/lib386/nt/clib3r.lib(tell.c)
0043f430       tell_
Module: /mnt/sda5/.user/root/src/openwatcom-1.9/rel2/lib386/nt/clib3r.lib(accsswnt.c)
0043f450       access_
Module: /mnt/sda5/.user/root/src/openwatcom-1.9/rel2/lib386/nt/clib3r.lib(searchen.c)
0043f480       _searchenv_
Module: /mnt/sda5/.user/root/src/openwatcom-1.9/rel2/lib386/nt/clib3r.lib(makepath.c)
0043f5d0       _makepath_
Module: /mnt/sda5/.user/root/src/openwatcom-1.9/rel2/lib386/nt/clib3r.lib(getenv.c)
0043f780       getenv_
Module: /mnt/sda5/.user/root/src/openwatcom-1.9/rel2/lib386/nt/clib3r.lib(snprintf.c)
0043f850+      vsnprintf_
0043f8b0       snprintf_
Module: /mnt/sda5/.user/root/src/openwatcom-1.9/rel2/lib386/nt/clib3r.lib(stricmp.c)
0043f8e0       stricmp_
Module: /mnt/sda5/.user/root/src/openwatcom-1.9/rel2/lib386/nt/clib3r.lib(gtcmd.c)
0043f960+      _bgetcmd_
0043f9d0       getcmd_
Module: /mnt/sda5/.user/root/src/openwatcom-1.9/rel2/lib386/nt/clib3r.lib(istable.c)
0043f9f0       __IsTable
Module: /mnt/sda5/.user/root/src/openwatcom-1.9/rel2/lib386/nt/clib3r.lib(tolower.c)
0043fb00       tolower_
Module: /mnt/sda5/.user/root/src/openwatcom-1.9/rel2/lib386/nt/clib3r.lib(memmove.c)
0043fb10       memmove_
Module: /mnt/sda5/.user/root/src/openwatcom-1.9/rel2/lib386/nt/clib3r.lib(strncpy.c)
0043fb70       strncpy_
Module: /mnt/sda5/.user/root/src/openwatcom-1.9/rel2/lib386/nt/clib3r.lib(hugeval.c)
0043fbb0       __HugeValue
Module: /mnt/sda5/.user/root/src/openwatcom-1.9/rel2/lib386/nt/clib3r.lib(cmdname.c)
0043fbc0       _cmdname_
Module: /mnt/sda5/.user/root/src/openwatcom-1.9/rel2/lib386/nt/clib3r.lib(ntfio.c)
0043fbf0*      __GetNTCreateAttr_
0043fc30       __GetNTAccessAttr_
0043fc60       __GetNTShareAttr_
Module: /mnt/sda5/.user/root/src/openwatcom-1.9/rel2/lib386/nt/clib3r.lib(umaskval.c)
00446524       ___umaskval
Module: /mnt/sda5/.user/root/src/openwatcom-1.9/rel2/lib386/nt/clib3r.lib(nmsize.c)
0043fcc0       _nmsize_
0043fcc0*      _msize_
Module: /mnt/sda5/.user/root/src/openwatcom-1.9/rel2/lib386/nt/clib3r.lib(nexpand.c)
0043fcd0       _nexpand_
0043fcd0*      _expand_
0043fd10+      __HeapManager_expand_
Module: /mnt/sda5/.user/root/src/openwatcom-1.9/rel2/lib386/nt/clib3r.lib(unlnkwnt.c)
0043fed0       unlink_
Module: /mnt/sda5/.user/root/src/openwatcom-1.9/rel2/lib386/nt/clib3r.lib(comtflag.c)
0043fef0*      __set_commode_
00446528       __commode
Module: /mnt/sda5/.user/root/src/openwatcom-1.9/rel2/lib386/nt/clib3r.lib(fseek.c)
0043ff50       fseek_
Module: /mnt/sda5/.user/root/src/openwatcom-1.9/rel2/lib386/nt/clib3r.lib(chktty.c)
00440060       __chktty_
Module: /mnt/sda5/.user/root/src/openwatcom-1.9/rel2/lib386/nt/clib3r.lib(allocfp.c)
004400a0       __allocfp_
Module: /mnt/sda5/.user/root/src/openwatcom-1.9/rel2/lib386/nt/clib3r.lib(vsprintf.c)
00440190       vsprintf_
Module: /mnt/sda5/.user/root/src/openwatcom-1.9/rel2/lib386/nt/clib3r.lib(setefg.c)
004401b0       __setEFGfmt_
Module: /mnt/sda5/.user/root/src/openwatcom-1.9/rel2/lib386/nt/clib3r.lib(chk8087.c)
004401f0*      _fpreset_
00440230       __chk8087_
00440240*      __init_8087_
Module: /mnt/sda5/.user/root/src/openwatcom-1.9/rel2/lib386/nt/clib3r.lib(mbspbrk.c)
00440260       _mbspbrk_
Module: /mnt/sda5/.user/root/src/openwatcom-1.9/rel2/lib386/nt/clib3r.lib(fullpath.c)
004402c0+      _sys_fullpath_
00440340       _fullpath_
Module: /mnt/sda5/.user/root/src/openwatcom-1.9/rel2/lib386/nt/clib3r.lib(d2ttime.c)
004403b0       _d2ttime_
Module: /mnt/sda5/.user/root/src/openwatcom-1.9/rel2/lib386/nt/clib3r.lib(__stos)
00440430       __STOSB
00440467*      __STOSD
Module: /mnt/sda5/.user/root/src/openwatcom-1.9/rel2/lib386/nt/clib3r.lib(fprtf.c)
00440500       __fprtf_
Module: /mnt/sda5/.user/root/src/openwatcom-1.9/rel2/lib386/nt/clib3r.lib(fgtattr.c)
004405c0       __fixed_GetFileAttributesA_
Module: /mnt/sda5/.user/root/src/openwatcom-1.9/rel2/lib386/nt/clib3r.lib(strlen.c)
00440660       strlen_
Module: /mnt/sda5/.user/root/src/openwatcom-1.9/rel2/lib386/nt/clib3r.lib(strcat.c)
00440680       strcat_
Module: /mnt/sda5/.user/root/src/openwatcom-1.9/rel2/lib386/nt/clib3r.lib(mbsdec.c)
004406b0       _mbsdec_
Module: /mnt/sda5/.user/root/src/openwatcom-1.9/rel2/lib386/nt/clib3r.lib(mbcupper.c)
00440730       _mbctoupper_
Module: /mnt/sda5/.user/root/src/openwatcom-1.9/rel2/lib386/nt/clib3r.lib(prtf.c)
00440760       __prtf_
Module: /mnt/sda5/.user/root/src/openwatcom-1.9/rel2/lib386/nt/clib3r.lib(noefgfmt.c)
0044652c       ___EFG_printf
00446530       ___EFG_scanf
Module: /mnt/sda5/.user/root/src/openwatcom-1.9/rel2/lib386/math387r.lib(efgfmt.c)
00441472       _EFG_Format_
Module: /mnt/sda5/.user/root/src/openwatcom-1.9/rel2/lib386/math387r.lib(cnvs2d.c)
004415dc       __cnvs2d_
Module: /mnt/sda5/.user/root/src/openwatcom-1.9/rel2/lib386/nt/clib3r.lib(8087cw.c)
00446534       __8087cw
Module: /mnt/sda5/.user/root/src/openwatcom-1.9/rel2/lib386/nt/clib3r.lib(save8087.c)
00446538       ___Save8087
0044653c       ___Rest8087
Module: /mnt/sda5/.user/root/src/openwatcom-1.9/rel2/lib386/nt/clib3r.lib(init8087)
004415f4       __x87id
Module: /mnt/sda5/.user/root/src/openwatcom-1.9/rel2/lib386/nt/clib3r.lib(mktime.c)
00441630       mktime_
Module: /mnt/sda5/.user/root/src/openwatcom-1.9/rel2/lib386/nt/clib3r.lib(fputc.c)
004416c0       fputc_
Module: /mnt/sda5/.user/root/src/openwatcom-1.9/rel2/lib386/nt/clib3r.lib(ioalloc.c)
004417a0       __ioalloc_
Module: /mnt/sda5/.user/root/src/openwatcom-1.9/rel2/lib386/nt/clib3r.lib(strupr.c)
00441840       strupr_
Module: /mnt/sda5/.user/root/src/openwatcom-1.9/rel2/lib386/nt/clib3r.lib(lltoa.c)
00441860       ulltoa_
004418d0*      lltoa_
Module: /mnt/sda5/.user/root/src/openwatcom-1.9/rel2/lib386/nt/clib3r.lib(ltoa.c)
00441900       ultoa_
00441950*      ltoa_
Module: /mnt/sda5/.user/root/src/openwatcom-1.9/rel2/lib386/nt/clib3r.lib(rtcntrl.c)
00441980*      _SetLD64bit_
00441990*      _SetLD80bit_
004419a0       _LDisDouble_
Module: /mnt/sda5/.user/root/src/openwatcom-1.9/rel2/lib386/nt/clib3r.lib(locmktim.c)
004419b0       __local_mktime_
Module: /mnt/sda5/.user/root/src/openwatcom-1.9/rel2/lib386/nt/clib3r.lib(gmtime.c)
00441b30       __brktime_
00441c30+      _gmtime_
00441c50*      gmtime_
Module: /mnt/sda5/.user/root/src/openwatcom-1.9/rel2/lib386/nt/clib3r.lib(tzset.c)
00446544       ___start_dst
00446568       ___end_dst
00446690*      _tzname
00446698       _timezone
0044669c       _daylight
004466a0       ___dst_adjust
00441cc0*      __DontCacheOSTZ_
00441cd0*      __CacheOSTZ_
004421b0+      __parse_tz_
004425a0       tzset_
Module: /mnt/sda5/.user/root/src/openwatcom-1.9/rel2/lib386/nt/clib3r.lib(timeutil.c)
00442710       __isindst_
Module: /mnt/sda5/.user/root/src/openwatcom-1.9/rel2/lib386/nt/clib3r.lib(leapyear.c)
00442a40       __leapyear_
00444050       ___diyr
0044406a       ___dilyr


                        +----------------------+
                        |   Imported Symbols   |
                        +----------------------+

Symbol                              Module
======                              ======

_MessageBeep@4                      USER32.DLL
_LoadLibraryA@4                     KERNEL32.DLL
_GetProcAddress@8                   KERNEL32.DLL
_FreeLibrary@4                      KERNEL32.DLL
_RtlUnwind@16                       KERNEL32.DLL
_GetDriveTypeA@4                    KERNEL32.DLL
_CreateFileA@28                     KERNEL32.DLL
_GetConsoleMode@8                   KERNEL32.DLL
_SetConsoleMode@8                   KERNEL32.DLL
_CreateConsoleScreenBuffer@20       KERNEL32.DLL
_SetConsoleActiveScreenBuffer@4     KERNEL32.DLL
_SetConsoleCtrlHandler@8            KERNEL32.DLL
_GetConsoleScreenBufferInfo@8       KERNEL32.DLL
_LocalAlloc@8                       KERNEL32.DLL
_WriteConsoleOutputA@20             KERNEL32.DLL
_GetTickCount@0                     KERNEL32.DLL
_SetCurrentDirectoryA@4             KERNEL32.DLL
_GetCurrentDirectoryA@8             KERNEL32.DLL
_FindClose@4                        KERNEL32.DLL
_FindFirstFileA@8                   KERNEL32.DLL
_FindNextFileA@8                    KERNEL32.DLL
_GetLastError@0                     KERNEL32.DLL
_FlushConsoleInputBuffer@4          KERNEL32.DLL
_PeekConsoleInputA@16               KERNEL32.DLL
_ReadConsoleInputA@16               KERNEL32.DLL
_WaitForSingleObject@8              KERNEL32.DLL
_SetConsoleCursorInfo@8             KERNEL32.DLL
_SetConsoleCursorPosition@8         KERNEL32.DLL
_GetEnvironmentStringsA@0           KERNEL32.DLL
_GetVersion@0                       KERNEL32.DLL
_GetModuleFileNameA@12              KERNEL32.DLL
_GetCommandLineA@0                  KERNEL32.DLL
_GetCommandLineW@0                  KERNEL32.DLL
_FreeEnvironmentStringsA@4          KERNEL32.DLL
_GetModuleHandleA@4                 KERNEL32.DLL
_ExitProcess@4                      KERNEL32.DLL
_FileTimeToLocalFileTime@8          KERNEL32.DLL
_FileTimeToDosDateTime@12           KERNEL32.DLL
_DosDateTimeToFileTime@12           KERNEL32.DLL
_LocalFileTimeToFileTime@8          KERNEL32.DLL
_GetACP@0                           KERNEL32.DLL
_GetOEMCP@0                         KERNEL32.DLL
_GetCPInfo@8                        KERNEL32.DLL
_SetStdHandle@8                     KERNEL32.DLL
_CreateEventA@16                    KERNEL32.DLL
_GetStdHandle@4                     KERNEL32.DLL
_CloseHandle@4                      KERNEL32.DLL
_GetModuleFileNameW@12              KERNEL32.DLL
_MultiByteToWideChar@24             KERNEL32.DLL
_WriteFile@20                       KERNEL32.DLL
_SetUnhandledExceptionFilter@4      KERNEL32.DLL
_UnhandledExceptionFilter@4         KERNEL32.DLL
_VirtualQuery@12                    KERNEL32.DLL
_GetCurrentThreadId@0               KERNEL32.DLL
_SetFilePointer@16                  KERNEL32.DLL
_VirtualAlloc@16                    KERNEL32.DLL
_VirtualFree@12                     KERNEL32.DLL
_FlushFileBuffers@4                 KERNEL32.DLL
_GetFileType@4                      KERNEL32.DLL
_SetEnvironmentVariableA@8          KERNEL32.DLL
_SetEnvironmentVariableW@8          KERNEL32.DLL
_WideCharToMultiByte@32             KERNEL32.DLL
_ReadFile@20                        KERNEL32.DLL
_GetFileInformationByHandle@8       KERNEL32.DLL
_GetFileTime@16                     KERNEL32.DLL
_GetFileSize@8                      KERNEL32.DLL
_DeleteFileA@4                      KERNEL32.DLL
_GetFullPathNameA@16                KERNEL32.DLL
_GetFileAttributesA@4               KERNEL32.DLL
_CharUpperA@4                       USER32.DLL
_GetTimeZoneInformation@4           KERNEL32.DLL


                        +--------------------+
                        |   Libraries Used   |
                        +--------------------+

/mnt/sda5/.user/root/src/openwatcom-1.9/rel2/lib386/nt/kernel32.lib
/mnt/sda5/.user/root/src/openwatcom-1.9/rel2/lib386/nt/user32.lib
/mnt/sda5/.user/root/src/openwatcom-1.9/bld/aui/nt386/aui.lib
/mnt/sda5/.user/root/src/openwatcom-1.9/bld/gui/ui/nt386/gui.lib
/mnt/sda5/.user/root/src/openwatcom-1.9/bld/ui/nt/nt386/ui.lib
/mnt/sda5/.user/root/src/openwatcom-1.9/bld/sdk/rc/wres/flat386/mf_r/wres.lib
/mnt/sda5/.user/root/src/openwatcom-1.9/rel2/lib386/math387r.lib
/mnt/sda5/.user/root/src/openwatcom-1.9/rel2/lib386/nt/emu387.lib
/mnt/sda5/.user/root/src/openwatcom-1.9/rel2/lib386/nt/clib3r.lib


                        +-----------------------+
                        |   Linker Statistics   |
                        +-----------------------+

Stack size:  00019000 (102400.)
Memory size:  000612a2 (397986.)
Entry point address: 004334de
Link time: 00:00.00
