Open Watcom Linker Version 1.9
Portions Copyright (c) 1985-2002 Sybase, Inc. All Rights Reserved.
Created on:       12/12/16 02:42:22
Executable Image: wprof.exe
creating a Windows NT windowed executable


                        +------------+
                        |   Groups   |
                        +------------+

Group                           Address              Size
=====                           =======              ====

.idata                          00437000             000014f2
DGROUP                          00439000             0001d900



                        +--------------+
                        |   Segments   |
                        +--------------+

Segment                Class          Group          Address         Size
=======                =====          =====          =======         ====

BEGTEXT                CODE           AUTO           00401000        00000007
_TEXT                  CODE           AUTO           00401010        00035572
TRANSFER CODE          CODE           AUTO           00436584        000004f2
.idata                 .idata         .idata         00437000        000014f2
_NULL                  BEGDATA        DGROUP         00439000        00000004
_AFTERNULL             BEGDATA        DGROUP         00439004        00000000
CONST                  DATA           DGROUP         00439004        00000090
CONST2                 DATA           DGROUP         00439094        00000000
_DATA                  DATA           DGROUP         00439094        00001af4
XIB                    DATA           DGROUP         0043ab88        00000000
XI                     DATA           DGROUP         0043ab88        00000036
XIE                    DATA           DGROUP         0043abbe        00000000
YIB                    DATA           DGROUP         0043abbe        00000000
YI                     DATA           DGROUP         0043abbe        00000024
YIE                    DATA           DGROUP         0043abe2        00000000
TIB                    DATA           DGROUP         0043abe2        00000000
TI                     DATA           DGROUP         0043abe2        00000000
TIE                    DATA           DGROUP         0043abe2        00000000
DATA                   DATA           DGROUP         0043abe2        00000000
_BSS                   BSS            DGROUP         0043b000        00002900
STACK                  STACK          DGROUP         0043d900        00019000


                        +----------------+
                        |   Memory Map   |
                        +----------------+

* = unreferenced symbol
+ = symbol only referenced locally

Address        Symbol
=======        ======

Module: srcmgt.obj(/mnt/sda5/.user/root/src/openwatcom-1.9/bld/watcom/c/srcmgt.c)
004010a0*      FClearOpenSourceCache_
004010c0       FOpenSource_
00401150*      FSize_
00401180*      FLastOffset_
004011a0*      FileIsRemote_
004011b0*      FGetName_
004011c0       FDoneSource_
004013d0*      FCurrLine_
004013e0       FReadLine_
00439094+      _FileList
Module: aboutmsg.obj(/mnt/sda5/.user/root/src/openwatcom-1.9/bld/wprof/c/aboutmsg.c)
00401530       AboutOpen_
00401580       AboutClose_
00401620*      AboutSetOff_
00401640       DlgAbout_
004390a0+      _AboutInfo
Module: clrsamps.obj(/mnt/sda5/.user/root/src/openwatcom-1.9/bld/wprof/c/clrsamps.c)
00401700       ClearMassaged_
00401760       ClearRoutineInfo_
004017c0       ClearFileInfo_
00401820       ClearModuleInfo_
00401880       ClearSample_
00401a80*      ClearAllSamples_
Module: dipinter.obj(/mnt/sda5/.user/root/src/openwatcom-1.9/bld/wprof/c/dipinter.c)
00401cb0       DIPCliImageUnload_
00401cc0       DIPCliMapAddr_
00401cd0       DIPCliSymCreate_
00401ce0       DIPCliItemLocation_
00401cf0       DIPCliAssignLocation_
00401d00       DIPCliSameAddrSpace_
00401d90       DIPCliAddrSection_
00401da0       DIPCliStatus_
00401db0       DIPCliCurrMAD_
00401dc0       WPDipInit_
00401e40       WPDipProc_
00401e50       WPDipDestroyProc_
00401e60       WPDipSetProc_
00401e70       WPDipLoadInfo_
00401f10       WPDipFini_
Module: diginter.obj(/mnt/sda5/.user/root/src/openwatcom-1.9/bld/wprof/c/diginter.c)
00401fa0       DIGCliAlloc_
00401fb0       DIGCliRealloc_
00401fc0       DIGCliFree_
00401fd0       DIGCliOpen_
00402010       DIGCliSeek_
00402020       DIGCliRead_
00402030       DIGCliWrite_
00402040       DIGCliClose_
00402050       DIGCliRemove_
00402060       DIGCliMachineData_
Module: dlgcnvt.obj(/mnt/sda5/.user/root/src/openwatcom-1.9/bld/wprof/c/dlgcnvt.c)
0043b004       _ConvertFile
004021a0       DlgGetConvert_
004392a8       _OptDIFFormat
004392a9+      _OptCommaFormat
Module: dlgoptn.obj(/mnt/sda5/.user/root/src/openwatcom-1.9/bld/wprof/c/dlgoptn.c)
00402520       DlgGetOptions_
004394dc+      _OptStretchGlobal
004394dd+      _OptAbsBarGlobal
004394de+      _OptRelBarGlobal
004394df+      _OptSortCountGlobal
004394e0+      _OptSortNameGlobal
004394e1+      _OptGatherGlobal
004394e4       _OptGatherCut
Module: dlgsamp.obj(/mnt/sda5/.user/root/src/openwatcom-1.9/bld/wprof/c/dlgsamp.c)
00402890       WPSampFound_
00402930       DlgOpenSample_
Module: getsamps.obj(/mnt/sda5/.user/root/src/openwatcom-1.9/bld/wprof/c/getsamps.c)
00403290       GetSampleInfo_
0043b10c       _SIOData
0043b110       _CurrSIOData
Module: madinter.obj(/mnt/sda5/.user/root/src/openwatcom-1.9/bld/wprof/c/madinter.c)
004035e0       MADCliAddrSection_
004035f0       MADCliAddString_
004035f0       MADCliMemExpr_
004035f0       MADCliAddrOvlReturn_
00403600       MADCliAddrToString_
004036a0       MADCliReadMem_
004036e0       MADCliWriteMem_
004036f0       MADCliString_
00403740       MADCliRadixPrefix_
00403760       MADCliNotify_
00403780       MADCliSystemConfig_
00403790       InitMADInfo_
004037b0       FiniMADInfo_
004037e0+      ReportMADFailure_
00403920       SetCurrentMAD_
004394ec       _DefSysConfig
0043b114+      _MADStatus
Module: memutil.obj(/mnt/sda5/.user/root/src/openwatcom-1.9/bld/wprof/c/memutil.c)
004039c0       ProfAlloc_
004039c0       WndAlloc_
004039d0       WndNoMemory_
004039e0       WndFree_
004039e0       ProfFree_
004039f0       ProfRealloc_
004039f0       WndRealloc_
00403a10       ProfCAlloc_
00403a30*      WndMemFini_
00403a30*      WndMemInit_
Module: msg.obj(/mnt/sda5/.user/root/src/openwatcom-1.9/bld/wprof/c/msg.c)
00403c30       ErrorMsg_
00403c50       fatal_
Module: msgstr.obj(/mnt/sda5/.user/root/src/openwatcom-1.9/bld/wprof/c/msgstr.c)
00403c90       __Literal_Assertion_Failed
00403ca3       __Literal_Cannot_Open_Smp_File
00403cbf       __Literal_Cannot_Process_Ovly
00403ceb       __Literal_Dip_Find_Failed
00403d11       __Literal_Dip_Info_Failed
00403d43       __Literal_Dip_Init_Failed
00403d76       __Literal_Dip_Load_Failed
00403d9f       __Literal_Exe_Has_Changed
00403dcb       __Literal_Exe_Not_Found
00403de6       __Literal_Incompat_Smp_File
00403e0a       __Literal_Incompat_Ver_Ovly
00403e49       __Literal_Invalid_Smp_File
00403e69       __Literal_Memfull
00403e77       __Literal_Memfull_Realloc
00403e93       __Literal_Smp_File_IO_Err
00403eb9       __Literal_Usage
00403ede       __Literal_Usage1
00403f03       __Literal_Usage2
00403f24       __Literal_Usage3
00403f36       __Literal_Usage4
00403f3d       __Literal_Usage5
00403f47*      __Literal_Usage6
00403f5e*      __Literal_Usage7
00403f73*      __Literal_Usage8
00403f84       __Literal_Empty_Str
00403f85       __Literal_File_Does_Not_Exist
00403f9e*      __Literal_Bad_System_Load
00403fc4       __Literal_About_WPROF
00403fd0       __Literal_WPROF_TITLE
00403fe5       __Literal_Enter_Sample
00403ffc*      __Literal_OK_Str
00403fff*      __Literal_Cancel_Str
00404006       __Literal_Unknown_Image
00404017       __Literal_Unknown_Module
00404029       __Literal_Unknown_File
00404039       __Literal_Unknown_Routine
0040404c       __Literal_Gathered_Images
0040405f       __Literal_Gathered_Modules
00404073       __Literal_Gathered_Files
00404085       __Literal_Gathered_Routines
0040409a       __Literal_No_Symbol_Info
004040c0       __Literal_No_Routine_Names
004040e0       __Literal_Src_File_Not_Found
004040fb       __Literal_Src_File_Not_Known
00404114       __Literal_Rel_Header
00404119       __Literal_Abs_Header
0040411e       __Literal_Sample_Data
00404129*      __Literal_Smp_File_Raw_Err
0040415d       __Literal_Sample_Header
00404167       __Literal_Image_Header
00404170       __Literal_Module_Header
0040417a       __Literal_File_Header
00404182       __Literal_Routine_Header
0040418d       __Literal_Source_Header
0040419a       __Literal_Image_Names
004041a6       __Literal_Module_Names
004041b3       __Literal_File_Names
004041be       __Literal_Routine_Names
004041cc       __Literal_Source_Line
004041d8       __Literal_Assembler_Instructions
004041ef       __Literal_Options
004041f7       __Literal_Cmd_Option_Not_Valid
0040421d       __Literal_Unable_To_Open_Src
00404238*      __Literal_Unable_To_Open_Help
00404256       __Literal_Convert_Data
0040426d       __Literal_Convert_File_Name
00404285       __Literal_Mad_Init_Failed
004042b6       __Literal_LDS_FSEEK_FAILED
004042c7       __Literal_LDS_FREAD_FAILED
004042d8       __Literal_LDS_FOPEN_FAILED
004042e9       __Literal_LMS_INVALID_MAD_VERSION
0040430e       __Literal_LMS_INVALID_MAD
00404330       __Literal_LMS_UNREGISTERED_MAD
0040434d       __Literal_LMS_RECURSIVE_MAD_FAILURE
Module: rptsamps.obj(/mnt/sda5/.user/root/src/openwatcom-1.9/bld/wprof/c/rptsamps.c)
004052d0       ReportSampleInfo_
Module: setsamps.obj(/mnt/sda5/.user/root/src/openwatcom-1.9/bld/wprof/c/setsamps.c)
00405900       AddrCmp_
00405920       GatherSetAll_
00405a20       AbsSetAll_
00405b90       RelSetAll_
00405d00       StretchSetAll_
00405e60       SortSetAll_
00406850       SetSampleInfo_
Module: support.obj(/mnt/sda5/.user/root/src/openwatcom-1.9/bld/wprof/c/support.c)
00406910       AsmSize_
00406940       AsmFini_
00406950       ExeOpen_
00406960       ExeClose_
00406a40       SetExeOffset_
00407010       SetExeImage_
00407060       SetExeFile_
00407960       AddrImage_
00407a30       MapAddressToActual_
00407ab0+      MapAddressToMap_
00407b40       MapAddressIntoSection_
00408180       LoadImageOverlays_
00408260       SetNumBytes_
00408270       CodeAdvance_
00408380       FormatAddr_
00408400       GetFullInstruct_
00408540       CnvAddr_
004085f0       IsX86BigAddr_
00408600       IsX86RealAddr_
00408620       GetDataByte_
00408640       EndOfSegment_
Module: utils.obj(/mnt/sda5/.user/root/src/openwatcom-1.9/bld/wprof/c/utils.c)
00408670       ReplaceExt_
004086d0*      FindFile_
004087b0       InitPaths_
00408810+      AddPath_
00408900       BigRead_
00408910       Ring_
00439634+      _HelpPathList
00439638+      _FilePathList
0043963c*      _DipExePathList
Module: wndimain.obj(/mnt/sda5/.user/root/src/openwatcom-1.9/bld/wprof/c/wndimain.c)
00408920       WndInitWndMain_
Module: wpasmfil.obj(/mnt/sda5/.user/root/src/openwatcom-1.9/bld/wprof/c/wpasmfil.c)
00408940       WPGetAsmLoc_
004089c0       WPAsmOpen_
00408d70       WPAsmClose_
00408e10       WPAsmGetLine_
00408f20       WPAsmFindSrcLine_
Module: wpavals.obj(/mnt/sda5/.user/root/src/openwatcom-1.9/bld/wprof/c/wpavals.c)
00439640       _WndColours
00439674       _WndNumColours
00439678       _WndPlainAttr
00439679       _WndTabStopAttr
0043967a       _WndSelectedAttr
0043967b       _WndCursorAttr
0043967c*      _WndStatusColour
00439680       _WndFlags
00439684       _WndStyle
Module: wpbar.obj(/mnt/sda5/.user/root/src/openwatcom-1.9/bld/wprof/c/wpbar.c)
00408f60       GetCurrentAbsBar_
00408fd0       GetCurrentRelBar_
00409040       GetCurrentMaxBar_
004090c0       FlipCurrentAbsBar_
00409180       FlipCurrentRelBar_
00409240       FlipCurrentMaxBar_
Module: wpcnvt.obj(/mnt/sda5/.user/root/src/openwatcom-1.9/bld/wprof/c/wpcnvt.c)
004098c0       WPConvert_
Module: wpdriver.obj(/mnt/sda5/.user/root/src/openwatcom-1.9/bld/wprof/c/wpdriver.c)
00409b80       WndMainMenuProc_
00409c50       OpenSample_
004397f0       _WndMainMenu
00439868       _WndNumMenus
Module: wpgather.obj(/mnt/sda5/.user/root/src/openwatcom-1.9/bld/wprof/c/wpgather.c)
00409c80       GetCurrentGather_
00409cd0       FlipCurrentGather_
00409d60       GatherCurrent_
00409dc0+      GatherImage_
00409ea0+      GatherMod_
00409f70+      GatherFile_
0040a040+      GatherRtn_
Module: wpgetrow.obj(/mnt/sda5/.user/root/src/openwatcom-1.9/bld/wprof/c/wpgetrow.c)
0040a110       SImageGetImage_
0040a160       SModGetModule_
0040a1b0       SFileGetFile_
0040a200       SRtnGetRoutine_
0040a250       WPGetRow_
Module: wphelp.obj(/mnt/sda5/.user/root/src/openwatcom-1.9/bld/wprof/c/wphelp.c)
0040a440       WPInitHelp_
0040a460       WPFiniHelp_
0040a480       WPProcHelp_
Module: wpmain.obj(/mnt/sda5/.user/root/src/openwatcom-1.9/bld/wprof/c/wpmain.c)
0040a520       GUImain_
0040a560       WndProcMacro_
Module: wpnumrow.obj(/mnt/sda5/.user/root/src/openwatcom-1.9/bld/wprof/c/wpnumrow.c)
0040a5b0       SampleNumRows_
Module: wppushin.obj(/mnt/sda5/.user/root/src/openwatcom-1.9/bld/wprof/c/wppushin.c)
0040a670*      WPPopPtr_
0040a690       WndDoInput_
0040a6b0+      WPPushEvent_
0040a6e0*      WPPushPtrEvent_
0040a720+      WPPopEvent_
Module: wpsamp.obj(/mnt/sda5/.user/root/src/openwatcom-1.9/bld/wprof/c/wpsamp.c)
0040a910       WPSampleOpen_
0040bfe0+      WPZoomIn_
0040c150+      WPBackOut_
0040c170       WPDoPopUp_
0040c1a0       WPFindDoPopUp_
004399f0+      _WPSampleInfo
Module: wpsort.obj(/mnt/sda5/.user/root/src/openwatcom-1.9/bld/wprof/c/wpsort.c)
0040c500       GetCurrentSort_
0040c540       SetCurrentSort_
0040c5a0       SortCurrent_
0040c5e0+      SortImage_
0040c610+      SortMod_
0040c640+      SortFile_
0040c670+      SortRtn_
Module: wpstart.obj(/mnt/sda5/.user/root/src/openwatcom-1.9/bld/wprof/c/wpstart.c)
00439a80       _WPWndInitDone
00439a84       _WProfDips
0040c7d0       WPInit_
0040c850       WPFini_
0043b510       _SamplePath
Module: wpsrcfil.obj(/mnt/sda5/.user/root/src/openwatcom-1.9/bld/wprof/c/wpsrcfil.c)
0040cb50       WPSourceGetLine_
0040cbd0       WPSourceOpen_
0040cd30       WPSourceClose_
0040cd60       WPGetMassgdSampData_
Module: wpwind.obj(/mnt/sda5/.user/root/src/openwatcom-1.9/bld/wprof/c/wpwind.c)
0040cf80       WPGetClientHeight_
0040cfa0       WPGetClientWidth_
0040cfd0       WPAdjustRowHeight_
0040d080       WPSetRowHeight_
0040d090       WPPixelTruncWidth_
0040d0b0       WPPixelWidth_
Module: dipman.obj(/mnt/sda5/.user/root/src/openwatcom-1.9/bld/dig/c/dipman.c)
0040d0f0*      DCSymCreate_
0040d0f0+      XDIPCliSymCreate_
0040d110       DIPInit_
0040d160       DIPLoad_
0040d1f0*      DIPRegister_
0040d250*      DIPFiniLatest_
0040d2b0       DIPFini_
0040d300       DIPHandleSize_
0040d320       DIPMoreMem_
0040d360*      DIPCancel_
0040d3e0+      FindImageMapSlot_
0040d510       DIPCreateProcess_
0040d660       DIPSetProcess_
0040d670       DIPDestroyProcess_
0040d6a0       DIPPriority_
0040d6f0       DIPLoadInfo_
0040d800       DIPMapInfo_
0040d860*      DIPUnloadInfo_
0040d8b0*      DIPImagePriority_
0040d900+      WalkImageList_
0040d9c0       WalkModList_
0040da20*      WalkTypeList_
0040dcb0+      WalkSymListEx_
0040dce0       WalkSymList_
0040dd00*      WalkFileList_
0040ddb0       ImageExtra_
0040de00       ImageDIP_
0040de50       ModName_
0040deb0       ModSrcLang_
0040df10*      ModHasInfo_
0040df80*      ModDefault_
0040dff0       ModAddr_
0040e060*      TypeMod_
0040e0b0*      TypeInfo_
0040e150*      TypeCreate_
0040e170*      TypePointer_
0040e1f0*      TypeBase_
0040e2a0*      TypeAddRef_
0040e2f0*      TypeRelease_
0040e340*      TypeFreeAll_
0040e380*      TypeArrayInfo_
0040e400*      TypeProcInfo_
0040e460*      TypePtrAddrSpace_
0040e4c0*      TypeThunkAdjust_
0040e520*      TypeCmp_
0040e580*      TypeName_
0040e5d0*      SymMod_
0040e610       SymName_
0040e660*      SymType_
0040e6b0       SymLocation_
0040e6f0*      SymValue_
0040e730       SymInfo_
0040e780*      SymParmLocation_
0040e7d0*      SymObjType_
0040e820*      SymObjLocation_
0040e870       SymCmp_
0040e8d0*      SymAddRef_
0040e920*      SymRelease_
0040e970*      SymFreeAll_
0040e9b0*      CueMod_
0040ea00       CueFile_
0040ea40       CueFileId_
0040ea80*      CueAdjust_
0040eae0       CueLine_
0040eb20*      CueColumn_
0040eb60       CueAddr_
0040ebd0       LineCue_
0040ec60       AddrCue_
0040ed10       CueCmp_
0040ed70       AddrMod_
0040ee30       AddrSym_
0040eef0+      LookupSymEx_
0040f140*      LookupSym_
0040f150*      AddrScope_
0040f1f0*      ScopeOuter_
00439a90       _DIPDefaults
00439ab6+      _DIPClientInterface
Module: dipld.obj(/mnt/sda5/.user/root/src/openwatcom-1.9/bld/dig/c/nt/dipld.c)
0040f290       DIPSysLoad_
0040f380       DIPSysUnload_
Module: madman.obj(/mnt/sda5/.user/root/src/openwatcom-1.9/bld/dig/c/madman.c)
00439b04+      _MADClientInterface
0040f540       MADTypeInfoForHost_
0040f5d0       MADInit_
0040f620       MADRegister_
0040f7a0       MADLoad_
0040f930+      MADUnload_
0040f980       MADLoaded_
0040f9c0       MADActiveSet_
0040f9f0*      MADStateCreate_
0040fa50*      MADStateSet_
0040fac0*      MADStateCopy_
0040fae0+      MADStateDestroy_
0040fb30       MADFini_
0040fb60*      MADWalk_
0040fb90       MADNameFile_
0040fc00*      MADNameDescription_
0040fc80       MADAddrAdd_
0040fcc0       MADAddrComp_
0040fcf0*      MADAddrDiff_
0040fd20*      MADAddrMap_
0040fd30*      MADAddrFlat_
0040fd40*      MADAddrInterrupt_
0040fd70*      MADTypeWalk_
0040fda0*      MADTypeName_
0040fdc0*      MADTypePreferredRadix_
0040fdf0*      MADTypeForDIPType_
0040fe10       MADTypeInfo_
0040ff20       MADTypeDefault_
00410850       MADTypeConvert_
00410d50       MADTypeToString_
00410de0*      MADTypeHandleToString_
00410e10*      MADRegistersSize_
00410e20*      MADRegistersHost_
00410e30*      MADRegistersTarget_
00410e50*      MADRegSetWalk_
00410e80*      MADRegSetName_
00410eb0*      MADRegSetLevel_
00410ec0*      MADRegSetDisplayGrouping_
00410ee0*      MADRegSetDisplayGetPiece_
00410f30*      MADRegSetDisplayModify_
00410f50*      MADRegSetDisplayToggleList_
00410f60*      MADRegSetDisplayToggle_
00410f70*      MADRegModified_
00410f90*      MADRegInspectAddr_
00410fe0+      MADRegWalk_
00411170*      MADRegFullName_
004111d0*      MADRegSpecialGet_
00411200*      MADRegSpecialSet_
00411230*      MADRegSpecialName_
00411260*      MADRegFromContextItem_
00411290*      MADRegUpdateStart_
004112c0*      MADRegUpdateEnd_
004112e0*      MADCallStackGrowsUp_
00411300*      MADCallTypeList_
00411320*      MADCallBuildFrame_
00411370*      MADCallReturnReg_
004113b0*      MADCallParmRegList_
004113e0*      MADCallUpStackSize_
004113f0*      MADCallUpStackInit_
00411420*      MADCallUpStackLevel_
00411460       MADDisasmDataSize_
00411480*      MADDisasmNameMax_
004114a0       MADDisasm_
00411510       MADDisasmFormat_
00411530       MADDisasmInsSize_
00411550*      MADDisasmInsUndoable_
00411580*      MADDisasmControl_
004115a0*      MADDisasmInsNext_
004115d0*      MADDisasmInspectAddr_
00411620*      MADDisasmMemRefWalk_
00411650*      MADDisasmToggleList_
00411660*      MADDisasmToggle_
00411680*      MADTraceSize_
004116a0*      MADTraceInit_
004116d0*      MADTraceOne_
00411700*      MADTraceHaveRecursed_
00411730*      MADTraceSimulate_
00411760*      MADTraceFini_
004117a0*      MADUnexpectedBreak_
Module: madld.obj(/mnt/sda5/.user/root/src/openwatcom-1.9/bld/dig/c/nt/madld.c)
004117d0       MADSysLoad_
004118c0       MADSysUnload_
Module: i64.obj(/mnt/sda5/.user/root/src/openwatcom-1.9/bld/watcom/c/i64.c)
004118d0*      I32ToI64_
004118e0       U32ToU64_
004118f0       U64Neg_
00411920+      U64Add_
00411940*      U64IncDec_
00411970+      U64Sub_
00411990*      U64Mul_
00411a00       U64Div_
00411b00*      I64Div_
00411bb0+      U64Cmp_
00411bf0*      U64Test_
00411c10*      I64Cmp_
00411c40*      I64Test_
00411c70*      I64ShiftR_
00411cc0+      U64ShiftR_
00411d20*      U64Shift_
00411d30+      U64ShiftL_
Module: finger.obj(/mnt/sda5/.user/root/src/openwatcom-1.9/bld/wprof/c/finger.c)
00439c94       _AboutMessage
00439cac       _AboutSize
Module: /mnt/sda5/.user/root/src/openwatcom-1.9/bld/aui/nt386/aui.lib(/mnt/sda5/.user/root/src/openwatcom-1.9/bld/aui/c/wndmeth.c)
00411e40       NoScroll_
00411e40*      WndNoOpen_
00411e50+      NoGetLine_
00411e60       NoEndPaint_
00411e60       NoBegPaint_
00411e60       NoNotify_
00411e60       NoModify_
00411e70       NoRefresh_
00411e80       NoMenuItem_
00411e90       NoNumRows_
00411ea0       NoNextRow_
00411eb0+      NoEventProc_
00411ed0       WndMenuItem_
00411ef0       WndFiniCacheLines_
00411f20       WndKillCacheEntries_
00411f80       WndKillCacheLines_
00412130       WndSetCache_
00412180*      WndGetLineAbs_
00412190       WndGetLine_
004122a0       WndFirstMenuItem_
004122c0*      WndNoRow_
004122d0       WndModify_
004122f0       WndNotify_
00412310       WndBegPaint_
00412330       WndEndPaint_
00412350       WndRefresh_
00412370       WndEvent_
00412380       WndNumRows_
00412390       WndNextRow_
00439cb0       _NoInfo
0043b73c+      _CacheLine
0043c86c+      _CacheCurr
Module: /mnt/sda5/.user/root/src/openwatcom-1.9/bld/aui/nt386/aui.lib(/mnt/sda5/.user/root/src/openwatcom-1.9/bld/aui/c/wndcreat.c)
004123a0*      WndSetTitleSize_
004123b0*      WndSetTitle_
004123c0*      WndGetTitle_
00412610       WndCreateWithStruct_
00412640       WndCreateWithStructAndMenuRes_
00412670       WndInitCreateStruct_
004126b0       WndCreate_
004126e0       WndDestroy_
00412760       WndClose_
00412780*      WndSetMainMenuText_
004127b0*      WndSetIcon_
00439ce8       _WndMainMenuPtr
0043c874       _WndPopupMenuPtr
Module: /mnt/sda5/.user/root/src/openwatcom-1.9/bld/aui/nt386/aui.lib(/mnt/sda5/.user/root/src/openwatcom-1.9/bld/aui/c/wndshrnk.c)
004127c0*      WndShrinkToMouse_
00412950*      WndMinimizeWindow_
00412960*      WndMaximizeWindow_
00412970       WndIsMinimized_
004129b0*      WndIsMaximized_
004129c0*      WndRestoreWindow_
004129d0*      WndGetRect_
004129e0       WndShowWindow_
004129f0       WndResizeWindow_
00412a00       WndShowAll_
Module: /mnt/sda5/.user/root/src/openwatcom-1.9/bld/aui/nt386/aui.lib(/mnt/sda5/.user/root/src/openwatcom-1.9/bld/aui/c/wndutil.c)
00412a80       WndCharCol_
00412ab0       WndLastCharCol_
00412ad0       WndPrevCharCol_
00412ae0*      WndPrevChar_
00412af0       WndCurrToGUIPoint_
00412b10       WndCoordToGUIPoint_
00412b80       WndPieceIsTab_
00412bb0*      WndPieceIsHot_
00412be0       WndFindActive_
00412c10       WndValid_
00412c40       WndDirty_
00412c50       WndZapped_
00412c70       WndExtentX_
00412c90*      WndFindClass_
00412cb0       WndSetWndMax_
00412d00       WndNext_
00412d30*      WndForAllClass_
Module: /mnt/sda5/.user/root/src/openwatcom-1.9/bld/aui/nt386/aui.lib(/mnt/sda5/.user/root/src/openwatcom-1.9/bld/aui/c/wndmsg.c)
00412d70       WndDisplayMessage_
Module: /mnt/sda5/.user/root/src/openwatcom-1.9/bld/aui/nt386/aui.lib(/mnt/sda5/.user/root/src/openwatcom-1.9/bld/aui/c/guimain.c)
0043c878+      _WndScale
0043c880+      _WndScreen
0043c888       _WndMax
0043c890+      _WndClickHook
0043c898       _WndMain
0043c89c*      _WndSwitches
00439cec       _WndMaxDirtyRects
00439cf0+      _WndDClick
00439cf4+      _WndIgnoreAllEvents
00412da0*      WndGetDClick_
00412db0*      WndSetDClick_
00412e30*      WndInitWithMenuRes_
00412ef0       WndInit_
00412f00       WndShowWndMain_
00412f10       WndFini_
00412f40*      WndInitNumRows_
004130b0*      WndInstallClickHook_
004138f0*      WndArrowCursor_
00413920*      WndSetCursor_
00413950       WndHourGlass_
00413960*      WndHourCursor_
004139a0       WndMainEventProc_
Module: /mnt/sda5/.user/root/src/openwatcom-1.9/bld/aui/nt386/aui.lib(/mnt/sda5/.user/root/src/openwatcom-1.9/bld/aui/c/wnddlg.c)
00413a50       DlgGetParent_
00413a80       DlgOpen_
00413ac0*      ResDlgOpen_
Module: /mnt/sda5/.user/root/src/openwatcom-1.9/bld/gui/win/nt386/gui.lib(/mnt/sda5/.user/root/src/openwatcom-1.9/bld/gui/win/c/guicheck.c)
00413b00       GUIIsChecked_
00413b20       GUISetChecked_
Module: /mnt/sda5/.user/root/src/openwatcom-1.9/bld/gui/win/nt386/gui.lib(/mnt/sda5/.user/root/src/openwatcom-1.9/bld/gui/c/guindlg.c)
00413b60       GUIDlgBuffGetText_
00413ed0*      GUISetModalDlgs_
00413ee0       GUIDlgOpen_
00413f10       GUIModalDlgOpen_
00413f40*      GUISysModalDlgOpen_
Module: /mnt/sda5/.user/root/src/openwatcom-1.9/bld/gui/win/nt386/gui.lib(/mnt/sda5/.user/root/src/openwatcom-1.9/bld/gui/win/c/guixtext.c)
00413f70+      GUIControlSetRedraw_
00413f90       GUIAddText_
00413fc0*      GUIAddTextList_
00414020*      GUIInsertText_
00414040*      GUISetTopIndex_
00414060*      GUIGetTopIndex_
00414080*      GUISetHorizontalExtent_
004140b0+      GUIGetListSize_
004140d0*      GUIDeleteItem_
00414110       GUIClearList_
00414130       GUISetText_
00414180       GUIGetText_
00414200       GUIGetCurrSelect_
00414230       GUISetCurrSelect_
00414250+      GUIGetListItem_
004142c0*      GUISetListItemData_
004142f0*      GUIGetListItemData_
Module: /mnt/sda5/.user/root/src/openwatcom-1.9/bld/aui/nt386/aui.lib(/mnt/sda5/.user/root/src/openwatcom-1.9/bld/aui/c/wndfdlg.c)
00414310+      DlgGetFileName_
00414340       DlgFileBrowse_
Module: /mnt/sda5/.user/root/src/openwatcom-1.9/bld/gui/win/nt386/gui.lib(/mnt/sda5/.user/root/src/openwatcom-1.9/bld/gui/win/c/guifocus.c)
00414470       GUISetFocus_
004144e0*      GUIGetFocus_
Module: /mnt/sda5/.user/root/src/openwatcom-1.9/bld/gui/win/nt386/gui.lib(/mnt/sda5/.user/root/src/openwatcom-1.9/bld/gui/win/c/guixdlg.c)
00414560*      GUISetJapanese_
004145a0       GUIInitControl_
004146a0       GUIProcessControlNotification_
00414870       GUIProcessControlMsg_
004148b0       _GUIDialogFunc@16
00414f60+      GUIDlgCalcLocation_
00414f90       GUIXCreateDialog_
00415210       GUICloseDialog_
00415230+      _GUIInitDialogFunc@16
004152d0       GUIFiniDialog_
004152f0       GUIInitDialog_
004153c0       GUIGetDlgTextMetrics_
Module: /mnt/sda5/.user/root/src/openwatcom-1.9/rel2/lib386/math387r.lib(strtod.c)
004158e7+      __Strtold_
00415a4e       strtod_
Module: /mnt/sda5/.user/root/src/openwatcom-1.9/rel2/lib386/math387r.lib(fchop87)
00415b94       __CHP
Module: /mnt/sda5/.user/root/src/openwatcom-1.9/rel2/lib386/nt/emu387.lib(386)
00415bac       __init_387_emulator
00415bad*      __fini_387_emulator
Module: /mnt/sda5/.user/root/src/openwatcom-1.9/bld/gui/win/nt386/gui.lib(/mnt/sda5/.user/root/src/openwatcom-1.9/bld/gui/win/c/guixwind.c)
0043c908       _GUIClass
0043c948       _GUIMainHInst
00439da0       _EditControlHasFocus
00439dac       _GUICurrWnd
00439db0+      _GUIDialogClass
00439df0       _GUIDefaultClassName
00415bb0       GUIXSetupWnd_
00415c00*      GUIWantPartialRows_
00415c20*      GUISetCheckResizeAreaForChildren_
00415c30       GUIDestroyWnd_
00415d90       GUICleanup_
00415dc0       GUIXMain_
00415ed0       GUIShowWindow_
00415f00       GUIShowWindowNA_
00415f40       GUIWndInit_
00416080       GUIXCreateWindow_
004162b0       SendPointEvent_
00416320       GUIResizeBackground_
00416480+      SetFocusToParent_
004164f0       GUIDoResize_
00416650+      _GUIWindowProc@16
00417330+      _GUITimerProc@16
00417370*      GUIStartTimer_
00417390*      GUIStopTimer_
004173a0*      GUISetF10Menus_
004173b0*      GUIIsFirstInstance_
Module: /mnt/sda5/.user/root/src/openwatcom-1.9/bld/gui/win/nt386/gui.lib(/mnt/sda5/.user/root/src/openwatcom-1.9/bld/gui/c/guimem.c)
004173c0*      GUIMemPrintLine_
004173c0*      GUIMemPrtUsage_
004173c0       GUIMemClose_
004173c0       GUIMemOpen_
004173c0*      GUIMemRedirect_
004173d0       GUIMemAlloc_
004173e0       GUIMemFree_
004173f0       GUIMemRealloc_
Module: /mnt/sda5/.user/root/src/openwatcom-1.9/bld/gui/win/nt386/gui.lib(/mnt/sda5/.user/root/src/openwatcom-1.9/bld/gui/c/guiisgui.c)
00417400       GUIIsGUI_
Module: /mnt/sda5/.user/root/src/openwatcom-1.9/bld/gui/win/nt386/gui.lib(/mnt/sda5/.user/root/src/openwatcom-1.9/bld/gui/win/c/guihelp.c)
00417430+      DisplayContents_
00417450+      DisplayContentsHH_
00417470+      DisplayHelpOnHelp_
00417490+      DisplayHelpSearch_
004174b0+      DisplayHelpSearchHH_
004174d0+      DisplayHelpContext_
004174e0+      DisplayHelpKey_
004174f0+      DisplayHelpKeyHH_
00417500       GUIHelpInit_
00417520       GUIHelpFini_
00417550       GUIShowHelp_
004175c0       GUIShowHtmlHelp_
00417610*      GUIDisplayHelp_
00417640*      GUIDisplayHelpWin4_
004176a0*      GUIDisplayHelpId_
Module: /mnt/sda5/.user/root/src/openwatcom-1.9/bld/aui/nt386/aui.lib(/mnt/sda5/.user/root/src/openwatcom-1.9/bld/aui/c/wndstat.c)
004176c0       WndCreateStatusWindow_
004176f0*      WndHaveStatusWindow_
00417710*      WndCloseStatusWindow_
00417750       WndStatusText_
004177a0       GUIClearStatusText_
004177c0       WndResetStatusText_
004177d0       WndInternalStatusText_
0043c950+      _WndStatusString
Module: /mnt/sda5/.user/root/src/openwatcom-1.9/bld/aui/nt386/aui.lib(/mnt/sda5/.user/root/src/openwatcom-1.9/bld/aui/c/wndscrol.c)
00417820*      WndFixedThumb_
00417850*      WndSetThumbPercent_
00417860*      WndSetThumbPos_
00417870*      WndSetVScrollRange_
00417880       WndResetScroll_
00417890*      WndVScrollWidth_
004178b0*      WndHasNumRows_
004178c0       WndSetThumb_
00417a30       WndScrollAbs_
00417a40       WndScroll_
00417a60       WndSetHScroll_
00417ab0+      WndCurrHScrollPos_
00417b30       WndHScrollToCurr_
00417b50       WndHScrollNotify_
Module: /mnt/sda5/.user/root/src/openwatcom-1.9/bld/aui/nt386/aui.lib(/mnt/sda5/.user/root/src/openwatcom-1.9/bld/aui/c/wndfront.c)
00417b90       WndToFront_
00417ba0*      WndRestoreToFront_
00417bd0       WndNextNonIconToFront_
00417bf0*      WndChooseNew_
Module: /mnt/sda5/.user/root/src/openwatcom-1.9/bld/aui/nt386/aui.lib(/mnt/sda5/.user/root/src/openwatcom-1.9/bld/aui/c/wndcurr.c)
00417c30       WndSetPoint_
00417ed0       WndGetCurrent_
00417f00       WndNewCurrent_
00417f30*      WndMoveCurrent_
00417f90       WndHasCurrent_
00417fa0       WndNoCurrent_
00417fc0*      WndCurrRow_
00417ff0       WndNextCurrent_
004180d0       WndPrevCurrent_
004181f0       WndFirstCurrent_
00418210       WndLastCurrent_
00418250       WndCheckCurrentValid_
004182f0       WndCurrVisible_
004183a0       WndDirtyCurr_
004183f0       WndDirtyCurrChar_
00418420       WndSetCurrCol_
Module: /mnt/sda5/.user/root/src/openwatcom-1.9/bld/gui/win/nt386/gui.lib(/mnt/sda5/.user/root/src/openwatcom-1.9/bld/gui/win/c/guidrawr.c)
004185a0*      GUIFillRect_
004185d0*      GUIDrawRect_
00418600*      GUIFillRectRGB_
00418650*      GUIDrawRectRGB_
00418860       GUIDrawLine_
00418890*      GUIDrawLineRGB_
Module: /mnt/sda5/.user/root/src/openwatcom-1.9/bld/aui/nt386/aui.lib(/mnt/sda5/.user/root/src/openwatcom-1.9/bld/aui/c/wnddirt.c)
00418a40       WndDirtyScreenRange_
00418a60       WndDirtyScreenChar_
00418a80       WndDirtyScreenPiece_
00418aa0       WndAdjustDirt_
00418ad0       WndDirtyScreenRow_
00418af0*      WndDirtyRect_
00418b30       WndRowDirty_
00418b70*      WndRowDirtyImmed_
00418bb0*      WndPieceDirty_
00418bf0*      WndStopRefresh_
00418c00+      WndPaintDirt_
00418f70       WndFreshAll_
00439e04       _WndDoingRefresh
Module: /mnt/sda5/.user/root/src/openwatcom-1.9/bld/aui/nt386/aui.lib(/mnt/sda5/.user/root/src/openwatcom-1.9/bld/aui/c/wndpop.c)
00418fe0+      CalcMaxId_
00419030*      NullPopupMenu_
004190c0       WndAddPopupMenu_
004191c0       WndNullPopItem_
004192d0+      WndSelPopPiece_
00419510       WndSelPopItem_
00419550+      WndKeyPopItem_
004195b0       WndPopUp_
00419630+      WndChangeMenuAll_
004196b0       WndMenuEnableAll_
004196d0       WndMenuGrayAll_
00419700*      WndMenuIgnoreAll_
00419730*      WndMenuRespectAll_
00419750+      DoMenuBitOn_
004197e0       WndMenuCheck_
004197f0       WndMenuEnable_
00419810*      WndMenuIgnore_
00419820+      WndCreateFloatingPopup_
00419870       WndInvokePopUp_
004199a0*      WndKeyPopUp_
004199d0       WndRowPopUp_
00419a10*      WndSetMainMenu_
00419a40       WndClick_
00419b10       WndSetPopup_
00419ba0*      WndEnableMainMenu_
00419c00*      WndCheckMainMenu_
Module: /mnt/sda5/.user/root/src/openwatcom-1.9/bld/aui/nt386/aui.lib(/mnt/sda5/.user/root/src/openwatcom-1.9/bld/aui/c/wndsel.c)
00419c50       WndSelectEvent_
00419cd0       WndSelEnds_
00419d10       WndSelected_
00419e50       WndSelSetStart_
00419e80       WndSelGetEndPiece_
00419ec0*      WndSelSetEnd_
00419ee0       WndSelPieceChange_
00419fc0       WndSelChange_
00419fe0       WndNoSelect_
0041a070*      WndSelRow_
0041a0a0       SetWndMenuRow_
0041a0f0       WndToSelectMode_
0041a130       WndEndSelectEvent_
0043c9a4       _WndMenuRow
0043c9a8       _WndMenuPiece
Module: /mnt/sda5/.user/root/src/openwatcom-1.9/bld/gui/win/nt386/gui.lib(/mnt/sda5/.user/root/src/openwatcom-1.9/bld/gui/win/c/guicrect.c)
0041a140       GUIGetClientRect_
0041a1d0*      GUIGetPaintRect_
Module: /mnt/sda5/.user/root/src/openwatcom-1.9/bld/gui/win/nt386/gui.lib(/mnt/sda5/.user/root/src/openwatcom-1.9/bld/gui/win/c/guigscrl.c)
0041a290*      GUIGetHScrollCol_
0041a2b0       GUIGetVScrollRow_
0041a300       GUIGetHScroll_
0041a310*      GUIGetVScroll_
Module: /mnt/sda5/.user/root/src/openwatcom-1.9/bld/gui/win/nt386/gui.lib(/mnt/sda5/.user/root/src/openwatcom-1.9/bld/gui/win/c/guirect.c)
0041a320       DoGetRelRect_
0041a430+      GUIGetRelRect_
0041a460       GUIGetRect_
Module: /mnt/sda5/.user/root/src/openwatcom-1.9/bld/gui/win/nt386/gui.lib(/mnt/sda5/.user/root/src/openwatcom-1.9/bld/gui/c/guipixel.c)
0041a480       GUITruncToPixel_
Module: /mnt/sda5/.user/root/src/openwatcom-1.9/rel2/lib386/math387r.lib(ldcvt.c)
0041a576       _LDScale10x_
0041ab1d       __LDcvt_
Module: /mnt/sda5/.user/root/src/openwatcom-1.9/bld/gui/win/nt386/gui.lib(/mnt/sda5/.user/root/src/openwatcom-1.9/bld/gui/win/c/guistext.c)
0041af70       GUISetWindowText_
0041af90       GUIGetWindowText_
0041afb0*      GUIGetWindowTextLength_
Module: /mnt/sda5/.user/root/src/openwatcom-1.9/bld/gui/win/nt386/gui.lib(/mnt/sda5/.user/root/src/openwatcom-1.9/bld/gui/c/guicreat.c)
0041afd0       GUICreateWindow_
00439eb0       _GUIMDI
Module: /mnt/sda5/.user/root/src/openwatcom-1.9/bld/gui/win/nt386/gui.lib(/mnt/sda5/.user/root/src/openwatcom-1.9/bld/gui/c/guiextra.c)
0041b030       GUISetExtra_
0041b040       GUIGetExtra_
Module: /mnt/sda5/.user/root/src/openwatcom-1.9/bld/aui/nt386/aui.lib(/mnt/sda5/.user/root/src/openwatcom-1.9/bld/aui/c/wndclean.c)
0041b050       WndCleanUp_
Module: /mnt/sda5/.user/root/src/openwatcom-1.9/bld/gui/win/nt386/gui.lib(/mnt/sda5/.user/root/src/openwatcom-1.9/bld/gui/win/c/guimenus.c)
0041b060       GUIInitGUIMenuHint_
0041b1d0+      GetStateForMenu_
0041b240*      GUIIsMenuItemChecked_
0041b260*      GUIIsMenuItemEnabled_
0041b280       GUISetMenu_
0041b420       GUIDeleteFloatingPopups_
0041b470       GUIFreePopupList_
0041b4a0       GUISetGUIHint_
0041b4c0+      GUIGetHMENU_
0041b550       GUIGetMenuPopupCount_
0041b5f0       GUIDeleteMenuItem_
0041b690+      CheckItem_
0041b6c0+      CheckPopup_
0041b6f0       GUICheckMenuItem_
0041b770+      EnableItem_
0041b790+      EnablePopup_
0041b7b0       GUIEnableSysMenuItem_
0041b7e0       GUIEnableMenuItem_
0041b860       GUISetMenuText_
0041b8f0+      GUICreateMenuFlags_
0041b920       GUICreateSubMenu_
0041ba60       GUICreateMenus_
0041bab0       GUIAddToSystemMenu_
0041bcf0       GUIProcessMenuSelect_
0041bd50       GUIProcessInitMenuPopup_
0041bef0*      GUIInsertMenu_
0041bf60*      GUIInsertMenuByID_
0041c020*      GUIAppendMenu_
0041c080*      GUIAppendMenuByOffset_
0041c260       GUIInsertMenuToPopup_
0041c280       GUIAppendMenuToPopup_
00439eb4       _GUIHint
00439ee4       _GUIHFloatingPopup
Module: /mnt/sda5/.user/root/src/openwatcom-1.9/bld/gui/win/nt386/gui.lib(/mnt/sda5/.user/root/src/openwatcom-1.9/bld/gui/win/c/guisicon.c)
0041c290       GUISetIcon_
Module: /mnt/sda5/.user/root/src/openwatcom-1.9/bld/gui/win/nt386/gui.lib(/mnt/sda5/.user/root/src/openwatcom-1.9/bld/gui/win/c/guimouse.c)
0041c320       GUIGetMousePosn_
Module: /mnt/sda5/.user/root/src/openwatcom-1.9/bld/gui/win/nt386/gui.lib(/mnt/sda5/.user/root/src/openwatcom-1.9/bld/gui/win/c/guisize.c)
0041c360+      GUIResizeWindow_
0041c430       GUISetRestoredSize_
0041c4f0*      GUIGetRestoredSize_
0041c550       GUIMinimizeWindow_
0041c570       GUIMaximizeWindow_
0041c5b0*      GUIHideWindow_
0041c5d0*      GUIIsWindowVisible_
0041c5f0       GUIRestoreWindow_
0041c630       GUIIsMaximized_
0041c660       GUIIsMinimized_
Module: /mnt/sda5/.user/root/src/openwatcom-1.9/bld/gui/win/nt386/gui.lib(/mnt/sda5/.user/root/src/openwatcom-1.9/bld/gui/c/guizlist.c)
0041c6b0       GUIDeleteFromList_
0041c700       GUIFrontOfList_
0041c720       GUIGetFront_
0041c730       GUIGetNextWindow_
0041c750       GUIIsValidWindow_
Module: /mnt/sda5/.user/root/src/openwatcom-1.9/bld/gui/win/nt386/gui.lib(/mnt/sda5/.user/root/src/openwatcom-1.9/bld/gui/win/c/guiclen.c)
0043c9ac+      ___CharLenTable
0041c7f0       GUICharLen_
0041c820       GUIIsDBCS_
Module: /mnt/sda5/.user/root/src/openwatcom-1.9/bld/gui/win/nt386/gui.lib(/mnt/sda5/.user/root/src/openwatcom-1.9/bld/gui/win/c/guixtent.c)
0041c850+      GetExtent_
0041c8c0       GUIGetExtentX_
0041c8e0*      GUIGetExtentY_
0041c910+      GetControlInfo_
0041c940+      GetControlExtent_
0041c9f0*      GUIGetControlExtentX_
0041ca10*      GUIGetControlExtentY_
Module: /mnt/sda5/.user/root/src/openwatcom-1.9/bld/gui/win/nt386/gui.lib(/mnt/sda5/.user/root/src/openwatcom-1.9/bld/gui/win/c/guidirty.c)
0041ca40       GUIWndDirty_
0041caa0       GUIControlDirty_
Module: /mnt/sda5/.user/root/src/openwatcom-1.9/bld/aui/nt386/aui.lib(/mnt/sda5/.user/root/src/openwatcom-1.9/bld/aui/c/wndresiz.c)
0041cad0       WndMainResized_
Module: /mnt/sda5/.user/root/src/openwatcom-1.9/bld/gui/win/nt386/gui.lib(/mnt/sda5/.user/root/src/openwatcom-1.9/bld/gui/win/c/guixdisp.c)
0041cb00       GUIDisplayMessage_
Module: /mnt/sda5/.user/root/src/openwatcom-1.9/bld/gui/win/nt386/gui.lib(/mnt/sda5/.user/root/src/openwatcom-1.9/bld/gui/win/c/guidbclk.c)
0041cbb0       GUISetDClickRate_
Module: /mnt/sda5/.user/root/src/openwatcom-1.9/bld/gui/win/nt386/gui.lib(/mnt/sda5/.user/root/src/openwatcom-1.9/bld/gui/c/guirscal.c)
0041cbc0       GUIGetRoundScale_
Module: /mnt/sda5/.user/root/src/openwatcom-1.9/bld/gui/win/nt386/gui.lib(/mnt/sda5/.user/root/src/openwatcom-1.9/bld/gui/c/guiscale.c)
0041cc20       GUISetScale_
0041cc50       GUIGetScale_
0041cc80       GUISetScreen_
0041cca0       GUIGetScreen_
0041ccd0+      GUIConvert_
0041cd60       GUIConvertRect_
0041cda0+      GUIConvertPoint_
0041cde0       GUIScaleToScreen_
0041ce00       GUIScaleToScreenR_
0041ce20       GUIScreenToScale_
0041ce40       GUIScreenToScaleR_
0041ce60       GUIScaleToScreenRPt_
0041ce80       GUIScreenToScaleRPt_
Module: /mnt/sda5/.user/root/src/openwatcom-1.9/bld/gui/win/nt386/gui.lib(/mnt/sda5/.user/root/src/openwatcom-1.9/bld/gui/c/guiimmdi.c)
0041cea0       GUIMDIInitMenuOnly_
Module: /mnt/sda5/.user/root/src/openwatcom-1.9/bld/gui/win/nt386/gui.lib(/mnt/sda5/.user/root/src/openwatcom-1.9/bld/gui/win/c/gui3ddlg.c)
0041cef0       GUI3DDialogInit_
Module: /mnt/sda5/.user/root/src/openwatcom-1.9/bld/gui/win/nt386/gui.lib(/mnt/sda5/.user/root/src/openwatcom-1.9/bld/gui/win/c/guistub.c)
0041cf00       GUISetBetweenTitles_
0041cf10       GUISetBackgroundChar_
0041cf10*      GUISetCursorType_
0041cf10*      GUIGetCursorType_
0041cf10*      GUISetCursorPos_
0041cf10*      GUIGetCursorPos_
0041cf20*      GUISetCharacter_
0041cf20*      GUIGetDialogColours_
0041cf20*      GUISetDialogColours_
0041cf20       GUISetBackgroundColour_
0041cf20*      GUIGMouseOff_
0041cf20*      GUIGMouseOn_
0041cf30       GUIGetCharacter_
Module: /mnt/sda5/.user/root/src/openwatcom-1.9/bld/aui/nt386/aui.lib(/mnt/sda5/.user/root/src/openwatcom-1.9/bld/aui/c/wndsysin.c)
0041cf40       WndSysInit_
Module: /mnt/sda5/.user/root/src/openwatcom-1.9/bld/aui/nt386/aui.lib(/mnt/sda5/.user/root/src/openwatcom-1.9/bld/aui/c/wndmnsz.c)
0041cf50       WndSetWndMainSize_
Module: /mnt/sda5/.user/root/src/openwatcom-1.9/bld/aui/nt386/aui.lib(/mnt/sda5/.user/root/src/openwatcom-1.9/bld/aui/c/wndbgch.c)
00439f44       _WndBackgroundChar
Module: /mnt/sda5/.user/root/src/openwatcom-1.9/bld/aui/nt386/aui.lib(/mnt/sda5/.user/root/src/openwatcom-1.9/bld/aui/c/wndshthk.c)
0041cf80       WndShutDownHook_
Module: /mnt/sda5/.user/root/src/openwatcom-1.9/bld/gui/win/nt386/gui.lib(/mnt/sda5/.user/root/src/openwatcom-1.9/bld/gui/win/c/guigetnr.c)
0041cf90       GUIGetNumRows_
Module: /mnt/sda5/.user/root/src/openwatcom-1.9/bld/gui/win/nt386/gui.lib(/mnt/sda5/.user/root/src/openwatcom-1.9/bld/gui/win/c/guitextm.c)
0041cfa0       GUISetMetrics_
0041cfe0       GUIGetTextMetrics_
Module: /mnt/sda5/.user/root/src/openwatcom-1.9/bld/gui/win/nt386/gui.lib(/mnt/sda5/.user/root/src/openwatcom-1.9/bld/gui/win/c/guirange.c)
0041d070*      GUISetHScrollRangeCols_
0041d090       GUISetVScrollRangeRows_
0041d0b0       GUISetHScrollRange_
0041d0e0*      GUISetVScrollRange_
0041d120*      GUIGetHScrollRange_
0041d140*      GUIGetVScrollRange_
0041d170*      GUIGetVScrollRangeRows_
0041d190*      GUIGetHScrollRangeCols_
Module: /mnt/sda5/.user/root/src/openwatcom-1.9/bld/aui/nt386/aui.lib(/mnt/sda5/.user/root/src/openwatcom-1.9/bld/aui/c/wndrszhk.c)
0041d1b0       WndResizeHook_
Module: /mnt/sda5/.user/root/src/openwatcom-1.9/bld/gui/win/nt386/gui.lib(/mnt/sda5/.user/root/src/openwatcom-1.9/bld/gui/win/c/guicursr.c)
0041d1c0       GUISetMouseCursor_
0041d200       GUIResetMouseCursor_
Module: /mnt/sda5/.user/root/src/openwatcom-1.9/bld/aui/nt386/aui.lib(/mnt/sda5/.user/root/src/openwatcom-1.9/bld/aui/c/wndchoos.c)
0041d220       WndChooseEvent_
0041d280*      WndDoneChoose_
0041d290       WndKeyEscape_
0041d2b0*      WndStartChoose_
0041d2c0       WndSayMatchMode_
0041d3f0       WndKeyChoose_
0041d5e0       WndKeyRubOut_
Module: /mnt/sda5/.user/root/src/openwatcom-1.9/bld/aui/nt386/aui.lib(/mnt/sda5/.user/root/src/openwatcom-1.9/bld/aui/c/wndmouse.c)
0041d680*      WndGetMouseRow_
0041d740       WndLButtonDown_
0041d820       WndLButtonUp_
0041d8f0       WndLDblClk_
0041d970       WndRButtonDown_
0041da70       WndRButtonUp_
0041daf0       WndMouseButtonIsDown_
0041db10       WndIgnoreMouseMove_
0041db30       WndMouseMove_
Module: /mnt/sda5/.user/root/src/openwatcom-1.9/bld/aui/nt386/aui.lib(/mnt/sda5/.user/root/src/openwatcom-1.9/bld/aui/c/wndcrsr.c)
0041dbb0+      WndAtTop_
0041dd50       WndScrollUp_
0041dda0       WndScrollDown_
0041ddf0       WndCursorUp_
0041de10       WndCursorDown_
0041de50       WndPageUp_
0041de70       WndPageDown_
0041de90       WndTabLeft_
0041def0       WndCursorLeft_
0041df90       WndTabRight_
0041dff0       WndCursorRight_
0041e080       WndScrollTop_
0041e0a0       WndScrollBottom_
0041e0c0       WndCursorStart_
0041e0d0       WndCursorEnd_
Module: /mnt/sda5/.user/root/src/openwatcom-1.9/bld/aui/nt386/aui.lib(/mnt/sda5/.user/root/src/openwatcom-1.9/bld/aui/c/wndfonhk.c)
0041e0e0       WndFontHook_
Module: /mnt/sda5/.user/root/src/openwatcom-1.9/bld/gui/win/nt386/gui.lib(/mnt/sda5/.user/root/src/openwatcom-1.9/bld/gui/win/c/guistat.c)
0041e2b0       GUICreateStatusWindow_
0041e340       GUIDrawStatusText_
0041e3c0       GUIHasStatus_
0041e3d0       GUICloseStatusWindow_
0041e410       GUIResizeStatusWindow_
Module: /mnt/sda5/.user/root/src/openwatcom-1.9/bld/aui/nt386/aui.lib(/mnt/sda5/.user/root/src/openwatcom-1.9/bld/aui/c/wndpaint.c)
0041e8a0+      WndPaintRows_
0041ea00       WndProcPaint_
0041ea20*      WndForcePaint_
Module: /mnt/sda5/.user/root/src/openwatcom-1.9/bld/gui/win/nt386/gui.lib(/mnt/sda5/.user/root/src/openwatcom-1.9/bld/gui/win/c/guiflush.c)
0041ea50       GUIFlushKeys_
Module: /mnt/sda5/.user/root/src/openwatcom-1.9/bld/aui/nt386/aui.lib(/mnt/sda5/.user/root/src/openwatcom-1.9/bld/aui/c/wndchar.c)
0041eaa0*      WndSetIDChars_
0041eab0       WndIDChar_
0041eb00       WndKeyChar_
Module: /mnt/sda5/.user/root/src/openwatcom-1.9/bld/aui/nt386/aui.lib(/mnt/sda5/.user/root/src/openwatcom-1.9/bld/aui/c/wndqryhk.c)
0041eb10       WndQueryEndSessionHook_
Module: /mnt/sda5/.user/root/src/openwatcom-1.9/bld/aui/nt386/aui.lib(/mnt/sda5/.user/root/src/openwatcom-1.9/bld/aui/c/wndendhk.c)
0041eb20       WndEndSessionHook_
Module: /mnt/sda5/.user/root/src/openwatcom-1.9/bld/aui/nt386/aui.lib(/mnt/sda5/.user/root/src/openwatcom-1.9/bld/aui/c/wndtool.c)
0041eb30*      WndCreateToolBar_
0041eba0*      WndCreateToolBarWithTips_
0041ec10*      WndHaveToolBar_
0041ec20*      WndCloseToolBar_
0041ec40*      WndToolHeight_
0041ec50*      WndToolFixed_
0041ec60       WndSetToolBar_
0043cb0c+      _ToolHeight
Module: /mnt/sda5/.user/root/src/openwatcom-1.9/bld/aui/nt386/aui.lib(/mnt/sda5/.user/root/src/openwatcom-1.9/bld/aui/c/wndldstr.c)
0041ec80       WndLoadString_
Module: /mnt/sda5/.user/root/src/openwatcom-1.9/bld/aui/nt386/aui.lib(/mnt/sda5/.user/root/src/openwatcom-1.9/bld/aui/c/wndspawn.c)
0041ece0*      Spawn_
0041ed20       SpawnP_
0041ed60*      Suicide_
Module: /mnt/sda5/.user/root/src/openwatcom-1.9/bld/gui/win/nt386/gui.lib(/mnt/sda5/.user/root/src/openwatcom-1.9/bld/gui/c/guidlg.c)
0041edc0       GUICreateDialog_
0041edd0       GUICreateResDialog_
0041edf0       GUICreateSysModalDialog_
Module: /mnt/sda5/.user/root/src/openwatcom-1.9/bld/gui/win/nt386/gui.lib(/mnt/sda5/.user/root/src/openwatcom-1.9/bld/gui/win/c/guixutil.c)
0041ee50       GUIMaximizeZoomedChildren_
0041ee70       GUIIsOpen_
0041ee90+      GUIIsParentADialog_
0041eeb0       GUIIsRectInUpdateRect_
0041ef00       GUICalcLocation_
0041ef90       GUISetupStruct_
0041f020       GUIError_
0041f050*      GUIFindWindowFromHWND_
0041f080*      GUIIsGUIChild_
0041f0b0       GUISetRedraw_
0041f0d0       GUIBringNewToFront_
0041f120       GUIXGetRootWindow_
0041f140+      GUIFindFirstChild_
0041f170+      GUIFindFirstPopupWithNoParent_
0041f1d0       GUIDestroyAllChildren_
0041f200       GUIDestroyAllPopupsWithNoParent_
0041f220       GUIFreeWindowMemory_
0041f340       GUIScrollOn_
0041f360       GUISetRowCol_
0041f3c0       GUIInvalidateResize_
0041f490       GUISendMessage_
0041f4a0       GUISendDlgItemMessage_
0041f4d0       GUIMakeRelative_
0041f5b0       GUIGetScrollHWND_
0041f5d0       GUISetScrollPos_
0041f610       GUIGetScrollPos_
0041f630       GUISetScrollRange_
0041f6a0       GUIGetScrollRange_
0041f6c0*      GUISetRangePos_
0041f710       GUIRedrawScroll_
0041f820       GUIGetParentHWND_
0041f840       GUIGetParentFrameHWND_
0041f860       GUIGetTopParentHWND_
0041f880       GUIGetTopGUIWindow_
0041f890       GUIGetWindow_
0041f8b0       GUIGetParentWindow_
0041f8c0       GUIParentHasFlags_
0041f8f0       GUIGetFirstSibling_
0041f910       GUIGetSystemFont_
Module: /mnt/sda5/.user/root/src/openwatcom-1.9/bld/gui/win/nt386/gui.lib(/mnt/sda5/.user/root/src/openwatcom-1.9/bld/gui/win/c/guismetr.c)
0041f940       GUIGetSystemMetrics_
Module: /mnt/sda5/.user/root/src/openwatcom-1.9/bld/gui/win/nt386/gui.lib(/mnt/sda5/.user/root/src/openwatcom-1.9/bld/gui/win/c/guicutil.c)
0041fa80       GUIToControl_
0041fae0       GUIToComboList_
0041fb70       GUIGetControlClass_
Module: /mnt/sda5/.user/root/src/openwatcom-1.9/bld/gui/win/nt386/gui.lib(/mnt/sda5/.user/root/src/openwatcom-1.9/bld/gui/win/c/guifdlg.c)
0041fb90*      GUIHookFileDlg_
0041fba0+      GetStrFromEdit_
0041fbf0+      _OpenHook@16
0041fc40       GUIGetFileName_
Module: /mnt/sda5/.user/root/src/openwatcom-1.9/bld/gui/win/nt386/gui.lib(/mnt/sda5/.user/root/src/openwatcom-1.9/bld/gui/win/c/guissel.c)
0041fec0       GUISelectAll_
0041fef0*      GUISetEditSelect_
0041ff10*      GUIGetEditSelect_
0041ff60*      GUIScrollCaret_
Module: /mnt/sda5/.user/root/src/openwatcom-1.9/bld/gui/win/nt386/gui.lib(/mnt/sda5/.user/root/src/openwatcom-1.9/bld/gui/win/c/guicontr.c)
00439f54       _GUIControls
0041ffd0       GUIInsertCtrlWnd_
00420000       GUIGetCtrlWnd_
00420080       GUIGetControlByID_
004200a0       GUIGetControlByHwnd_
004200c0       GUIControlInsert_
00420120       GUIControlInsertByHWND_
004201c0+      GUIControlDelete_
00420220       GUIControlDeleteAll_
00420250+      _GUIEditFunc@16
00420400+      _GUIGroupBoxFunc@16
004204a0       GUIDoSubClass_
004204f0       GUISetControlStyle_
004206f0*      GUIAddControl_
004207c0*      GUIEnumControls_
004207f0       GUICheckRadioButton_
004208c0*      GUIDeleteControl_
004208f0*      GUILimitEditText_
00420950*      GUIHideControl_
00420960*      GUIShowControl_
00420970*      GUIIsControlVisible_
Module: /mnt/sda5/.user/root/src/openwatcom-1.9/bld/gui/win/nt386/gui.lib(/mnt/sda5/.user/root/src/openwatcom-1.9/bld/gui/c/guiutil.c)
00420990*      GUIStripTrailingBlanks_
00420a10       GUIStrDup_
00420a90       GUIStoreArgs_
00420ab0*      GUIGetArgs_
00420ae0*      GUIIsRootWindow_
00420b00       GUIGetRootWindow_
Module: /mnt/sda5/.user/root/src/openwatcom-1.9/bld/gui/win/nt386/gui.lib(/mnt/sda5/.user/root/src/openwatcom-1.9/bld/gui/win/c/guixhook.c)
00420b10       GUISetMDIProcessMessage_
00420b20       GUIMDIProcessMessage_
00420b50       GUIMDIMaximized_
00420b80*      GUISetMDIMaximized_
00420b90       GUIMDIUpdatedMenu_
00420bb0*      GUISetMDIUpdatedMenu_
00420bc0*      GUISetIsMDIChildWindow_
00420bd0       GUIIsMDIChildWindow_
00420bf0       GUIResizeStatus_
00420c10       GUISetResizeStatus_
00420c20       GUIFreeStatus_
00420c40       GUISetFreeStatus_
00420c50*      GUISetMDINewWindow_
00420c60       GUIMDINewWindow_
00420c80*      GUISetMDIMaximize_
00420c90       GUIMDIMaximize_
00420cb0*      GUISetSetMDIRestoredSize_
00420cc0       GUISetMDIRestoredSize_
00420ce0*      GUISetCtl3dUnregister_
00420cf0       GUICtl3dUnregister_
00420d10*      GUISetCtl3dSubclassDlg_
00420d20       GUICtl3dSubclassDlg_
00420d40*      GUISetCtl3dColorChange_
00420d50*      GUISetCtl3dSubclassCtl_
00420d60*      GUISetCtl3dCtlColorEx_
00420d70       GUICtl3dSubclassCtl_
00420d90       GUICtl3dColorChange_
00420db0       GUICtl3dCtlColorEx_
Module: /mnt/sda5/.user/root/src/openwatcom-1.9/bld/gui/win/nt386/gui.lib(/mnt/sda5/.user/root/src/openwatcom-1.9/bld/gui/win/c/guirdlg.c)
00420e00       GUIGetControlClassFromHWND_
00420eb0       GUIGetControlStylesFromHWND_
00420f70+      _InsertResDlgCntlFunc@8
00420f90       GUIInsertResDialogControls_
00420fb0       GUIDoCreateResDialog_
00420fe0*      GUICreateDialogFromRes_
0043cb18       _GUIResHInst
Module: /mnt/sda5/.user/root/src/openwatcom-1.9/bld/gui/win/nt386/gui.lib(/mnt/sda5/.user/root/src/openwatcom-1.9/bld/gui/win/c/guicolor.c)
00420ff0+      InitSystemRGB_
00421030*      GUISetRGB_
004210c0+      GUIGetRGB_
004210e0+      GUIGetWndColour_
00421110+      SetBKBrush_
004211a0*      GUICheckBKBrush_
004211f0*      GUISetWndColour_
00421230*      GUIGetRGBFromUser_
004212d0       GUIXSetColours_
00421320       GUIXGetWindowColours_
00421350       GUIFreeBKBrush_
00421390*      GUISetWindowColours_
004213b0       GUIGetFore_
004213d0       GUIGetBack_
0043a100+      _GUIColours
Module: /mnt/sda5/.user/root/src/openwatcom-1.9/bld/gui/win/nt386/gui.lib(/mnt/sda5/.user/root/src/openwatcom-1.9/bld/gui/c/guimkey.c)
004213f0       GUIMapKey_
00421850       GUIGetKeyState_
0043a150       _KeyState
Module: /mnt/sda5/.user/root/src/openwatcom-1.9/bld/gui/win/nt386/gui.lib(/mnt/sda5/.user/root/src/openwatcom-1.9/bld/gui/win/c/guimapky.c)
00421e80       GUISetKeyState_
00421f10       GUIWindowsMapKey_
00421f50       GUIProcesskey_
Module: /mnt/sda5/.user/root/src/openwatcom-1.9/bld/gui/win/nt386/gui.lib(/mnt/sda5/.user/root/src/openwatcom-1.9/bld/gui/win/c/guipaint.c)
004220f0       GUIPaint_
004221c0       GUIInvalidatePaintHandles_
004221d0*      GUIFreeWndPaintHandles_
004221e0*      GUIFreePaintHandles_
Module: /mnt/sda5/.user/root/src/openwatcom-1.9/bld/gui/win/nt386/gui.lib(/mnt/sda5/.user/root/src/openwatcom-1.9/bld/gui/c/guisdef.c)
0043cb1c       ___LITApplIcon
0043cb20       ___LITEmpty
0043cb24       ___LITBrightGreen
0043cb28       ___LITOS2_Dialog_Font
0043cb2c       ___LITBrightCyan
0043cb30       ___LITBrightBlue
0043cb34       ___LITBrightRed
0043cb38       ___LITBlank
0043cb3c       ___LITBrightYellow
0043cb40       ___LITTable_of_Contents
0043cb44       ___LITInternal_Last_Message
0043cb48       ___LITBrightWhite
0043cb4c       ___LITBrightMagenta
0043cb50       ___LITWhite
0043cb54       ___LITWindows_Dialog_Font
0043cb58       ___LITGrey
0043cb5c       ___LITXNo
0043cb60       ___LITXIgnore
0043cb64       ___LITBlack
0043cb68       ___LITFix_Toolbar_Hint
0043cb6c       ___LITCyan
0043cb70       ___LITBrown
0043cb74       ___LITBlue
0043cb78       ___LITGreen
0043cb7c       ___LITExclamation
0043cb80       ___LITXAbort
0043cb84       ___LITWindow_Name_Hint
0043cb88       ___LITColour
0043cb8c       ___LITXFix_Toolbar
0043cb90       ___LITStop_Bang
0043cb94       ___LITMagenta
0043cb98       ___LITRed
0043cb9c       ___LITXRetry
0043cba0       ___LITSelect_Window
0043cba4       ___LITXYes
0043cba8       ___LITNexXt
0043cbac       ___LITArrange_Icons_Hint
0043cbb0       ___LITClose
0043cbb4       ___LITFDlg_Open_Text
0043cbb8       ___LITTile_Horz_Hint
0043cbbc       ___LITCascade_Hint
0043cbc0       ___LITTile_XVert
0043cbc4       ___LITTile_Vert_Hint
0043cbc8       ___LITTile_XHorz
0043cbcc       ___LITRestore
0043cbd0       ___LITMove
0043cbd4       ___LITMore_Windows_Hint
0043cbd8       ___LITXMore_Windows
0043cbdc       ___LITXClose
0043cbe0       ___LITSize
0043cbe4       ___LITXCascade
0043cbe8       ___LITMinimize
0043cbec       ___LITXArrange_Icons
0043cbf0       ___LITMaximize
0043cbf4       ___LITXFix_Tool_Bar
0043cbf8       ___LITFile_Exists_Replace
0043cbfc       ___LITChange_XFont_
0043cc00       ___LITCancel
0043cc04       ___LITOpen_Failed
0043cc08       ___LITDrives_Colon
0043cc0c       ___LITFDlg_Save_Text
0043cc10       ___LITList_Files_of_Type_Colon
0043cc14       ___LITPen_Failed
0043cc18       ___LITFile_Name_Colon
0043cc1c       ___LITChange_Font_for_this_window
0043cc20       ___LITMake_Tool_Bar_Fixed
0043cc24       ___LITFloating_Toolbar
0043cc28       ___LITInternal_First_Message
0043cc2c       ___LITDirectories_Colon
0043cc30       ___LITOK
Module: /mnt/sda5/.user/root/src/openwatcom-1.9/bld/gui/win/nt386/gui.lib(/mnt/sda5/.user/root/src/openwatcom-1.9/bld/gui/win/c/windlg.c)
00422250       DialogTemplate_
004223a0       AddControl_
00422590       DoneAddingControls_
004225d0       DynamicDialogBox_
Module: /mnt/sda5/.user/root/src/openwatcom-1.9/rel2/lib386/math387r.lib(bufld386)
0042260c       __ZBuf2LD
Module: /mnt/sda5/.user/root/src/openwatcom-1.9/rel2/lib386/math387r.lib(inf_nan.c)
004226af*      ___f_infinity
004226b3*      ___f_posqnan
004226b7       ___d_infinity
004226bf       ___d_posqnan
004226c7*      ___ld_infinity
004226cf*      ___ld_posqnan
Module: /mnt/sda5/.user/root/src/openwatcom-1.9/bld/gui/win/nt386/gui.lib(/mnt/sda5/.user/root/src/openwatcom-1.9/bld/gui/win/c/guiclass.c)
004226e0       GUIGetWindowClassName_
Module: /mnt/sda5/.user/root/src/openwatcom-1.9/bld/gui/win/nt386/gui.lib(/mnt/sda5/.user/root/src/openwatcom-1.9/bld/gui/c/guideath.c)
004226f0       GUIDeath_
Module: /mnt/sda5/.user/root/src/openwatcom-1.9/bld/gui/win/nt386/gui.lib(/mnt/sda5/.user/root/src/openwatcom-1.9/bld/gui/c/guihook.c)
00422700       GUISetHotSpotCleanup_
00422710       GUICleanupHotSpots_
00422730*      GUISetXChangeTitle_
00422740       GUIXChangeTitle_
00422760       GUISetXInitMDI_
00422770       GUIXInitMDI_
00422790       GUISetInitMDI_
004227a0       GUIInitMDI_
004227c0       GUIChangeMDITitle_
004227e0       GUISetMDIChangeTitle_
004227f0       GUISetMDIBroughtToFront_
00422800       GUIMDIBroughtToFront_
00422820       GUISetMDIDelete_
00422830       GUIMDIDelete_
00422850       GUISetMDIResetMenus_
00422860       GUIMDIResetMenus_
00422880       GUISetMDIDeleteMenuItem_
00422890       GUIMDIDeleteMenuItem_
004228b0*      GUISetEnableMDIActions_
004228c0       GUIEnableMDIActions_
004228e0*      GUISetAddMDIActions_
004228f0       GUIAddMDIActions_
Module: /mnt/sda5/.user/root/src/openwatcom-1.9/bld/gui/win/nt386/gui.lib(/mnt/sda5/.user/root/src/openwatcom-1.9/bld/gui/c/guistr.c)
00422960       GUIInitInternalStringTable_
00422d80       GUIFiniInternalStringTable_
Module: /mnt/sda5/.user/root/src/openwatcom-1.9/bld/gui/win/nt386/gui.lib(/mnt/sda5/.user/root/src/openwatcom-1.9/bld/gui/win/c/guildstr.c)
00423040       GUIIsLoadStrInitialized_
00423050       GUILoadStrInit_
004230d0       GUILoadStrFini_
00423110       GUILoadString_
Module: /mnt/sda5/.user/root/src/openwatcom-1.9/bld/gui/win/nt386/gui.lib(/mnt/sda5/.user/root/src/openwatcom-1.9/bld/gui/win/c/guisysfi.c)
00423150       GUISysFini_
Module: /mnt/sda5/.user/root/src/openwatcom-1.9/bld/gui/win/nt386/gui.lib(/mnt/sda5/.user/root/src/openwatcom-1.9/bld/gui/win/c/guixmain.c)
00423160       _WinMain@16
0043a254       _GUIMainTouched
Module: /mnt/sda5/.user/root/src/openwatcom-1.9/bld/gui/win/nt386/gui.lib(/mnt/sda5/.user/root/src/openwatcom-1.9/bld/gui/c/guifcrck.c)
00423190       GUIFirstCrack_
Module: /mnt/sda5/.user/root/src/openwatcom-1.9/bld/gui/win/nt386/gui.lib(/mnt/sda5/.user/root/src/openwatcom-1.9/bld/gui/c/guidead.c)
004231a0       GUIDead_
Module: /mnt/sda5/.user/root/src/openwatcom-1.9/bld/gui/win/nt386/gui.lib(/mnt/sda5/.user/root/src/openwatcom-1.9/bld/gui/win/c/guiwinlp.c)
004231b0       GUIWinMessageLoop_
Module: /mnt/sda5/.user/root/src/openwatcom-1.9/bld/gui/win/nt386/gui.lib(/mnt/sda5/.user/root/src/openwatcom-1.9/bld/gui/win/c/guisysin.c)
00423210       GUISysInit_
Module: /mnt/sda5/.user/root/src/openwatcom-1.9/bld/gui/win/nt386/gui.lib(/mnt/sda5/.user/root/src/openwatcom-1.9/bld/wpi/c/wpi_win.c)
00423220       _wpi_getbitmapdim_
00423250       _wpi_getpaintrect_
00423270*      _wpi_preparemono_
00423290       _wpi_setpoint_
004232a0       _wpi_subclasswindow_
004232d0       _wpi_insertmenu_
00423320       _wpi_appendmenu_
00423350       _wpi_getmenustate_
00423390       _wpi_getmenuflagsfromstate_
004233a0       _wpi_modifymenu_
004233f0       _wpi_setmenutext_
00423470       _wpi_getmenutext_
00423490       _wpi_setmenu_
004234a0       _wpi_createcompatiblepres_
004234b0*      _wpi_getbitmapparms_
00423520*      _wpi_setqmsgvalues_
00423550       _wpi_getqmsgvalues_
004235d0*      _wpi_setintwrectvalues_
004235d0*      _wpi_setintrectvalues_
004235d0       _wpi_setwrectvalues_
004235d0       _wpi_setrectvalues_
004235f0       _wpi_getrectvalues_
00423640       _wpi_getwrectvalues_
00423690*      _wpi_getintwrectvalues_
004236e0*      _wpi_getintrectvalues_
00423730*      _wpi_getcurrpos_
00423760*      _wpi_suspendthread_
00423780       _wpi_setmaxtracksize_
00423790       _wpi_setmintracksize_
004237a0*      _wpi_getbmphdrvalues_
00423870*      _wpi_setbmphdrvalues_
004238c0       _wpi_gettextextent_
004238f0       _wpi_getrestoredrect_
00423920       _wpi_setrestoredrect_
00423960*      _wpi_setrgbquadvalues_
00423980*      _wpi_dlg_command_
00423990*      _wpi_getmetricpointsize_
Module: /mnt/sda5/.user/root/src/openwatcom-1.9/bld/gui/win/nt386/gui.lib(/mnt/sda5/.user/root/src/openwatcom-1.9/bld/gui/c/guihint.c)
00423b30+      GUIHasHintType_
00423b60       GUIDisplayHintText_
00423bd0*      GUISetHintText_
00423be0*      GUIHasHintText_
00423c00       GUIDeleteHintText_
00423cd0+      CountMenus_
00423d10+      InsertHint_
00423d70       GUIAppendHintText_
00423df0       GUIInitHint_
00423ec0       GUIInitToolbarHint_
00423f60       GUIFreeHint_
Module: /mnt/sda5/.user/root/src/openwatcom-1.9/bld/gui/win/nt386/gui.lib(/mnt/sda5/.user/root/src/openwatcom-1.9/bld/gui/win/c/guitool.c)
00423fa0       GUIXCloseToolBar_
00424040+      GUIToolBarHelp_
00424080+      GUIToolBarProc_
00424240       GUIXCreateToolBarWithTips_
00424750       GUIXCreateToolBar_
00424780       GUIResizeToolBar_
00424870       GUIHasToolBar_
00424880+      GUIChangeToolBar_
00424980*      GUIToolBarFixed_
Module: /mnt/sda5/.user/root/src/openwatcom-1.9/bld/gui/win/nt386/gui.lib(/mnt/sda5/.user/root/src/openwatcom-1.9/bld/gui/win/c/guiscrol.c)
004249a0       GUIGetScrollScreenSize_
00424a30*      GUIGetScrollInc_
00424a60+      GUIScroll_
00424b70*      GUISetVScrollRow_
00424b90*      GUISetHScrollCol_
00424bb0*      GUISetVScroll_
00424bf0       GUISetHScroll_
00424d60       GUIProcessScrollMsg_
00425070       GUISetScroll_
Module: /mnt/sda5/.user/root/src/openwatcom-1.9/bld/gui/win/nt386/gui.lib(/mnt/sda5/.user/root/src/openwatcom-1.9/bld/gui/win/c/guifont.c)
00425120+      GUIChooseFont_
00425180       GUIChangeFont_
00425220*      GUIGetFontInfo_
00425250*      GUIGetFontFromUser_
004252b0*      GUISetFontInfo_
00425300*      GUIFontsSupported_
00425310*      GUISetSystemFont_
Module: /mnt/sda5/.user/root/src/openwatcom-1.9/bld/gui/win/nt386/gui.lib(/mnt/sda5/.user/root/src/openwatcom-1.9/bld/gui/win/c/guifront.c)
00425380       ActivateNC_
004253c0       GUIBringToFront_
004254d0*      GUIActivateNC_
Module: /mnt/sda5/.user/root/src/openwatcom-1.9/bld/gui/win/nt386/gui.lib(/mnt/sda5/.user/root/src/openwatcom-1.9/bld/sdk/misc/wptoolbr.c)
004256d0       ToolBarRedrawButtons_
004256f0       ToolBarInit_
00425980+      ToolBarDestroy_
004259d0       ToolBarFini_
00425a50       ToolBarAddItem_
00425c20*      ToolBarSetState_
00425c70*      ToolBarGetState_
00425cd0*      ToolBarDeleteItem_
00425d40       ToolBarDisplay_
00426090       ToolBarWindow_
004260b0*      UpdateToolBar_
004269a0*      isPointInToolbar_
00426ae0       HasToolAtPoint_
00426b30+      _ToolBarWndProc@16
004270d0+      _WinToolWndProc@16
004272b0+      _ToolContainerWndProc@16
00427360*      ChangeToolButtonBitmap_
00427440       WPTB_TransparentBlt_
00427600+      WPTB_CreateTransparentBitmap_
Module: /mnt/sda5/.user/root/src/openwatcom-1.9/bld/gui/win/nt386/gui.lib(/mnt/sda5/.user/root/src/openwatcom-1.9/bld/gui/c/guihtool.c)
004276b0*      GUICreateFloatToolBar_
00427710       GUICreateToolBar_
00427770       GUICreateToolBarWithTips_
004277d0       GUICloseToolBar_
Module: /mnt/sda5/.user/root/src/openwatcom-1.9/bld/gui/win/nt386/gui.lib(/mnt/sda5/.user/root/src/openwatcom-1.9/bld/gui/win/c/guisystr.c)
00427800       WndSizeChange_
00427800       TrayCallBack_
Module: /mnt/sda5/.user/root/src/openwatcom-1.9/bld/gui/win/nt386/gui.lib(/mnt/sda5/.user/root/src/openwatcom-1.9/bld/sdk/misc/wwinhelp.c)
00427840       WWinHelp_
00427a00       WHtmlHelp_
Module: /mnt/sda5/.user/root/src/openwatcom-1.9/rel2/lib386/nt/clib3r.lib(_strcmp)
00427aa0       strcmp_
Module: /mnt/sda5/.user/root/src/openwatcom-1.9/bld/aui/nt386/aui.lib(/mnt/sda5/.user/root/src/openwatcom-1.9/bld/aui/c/wndfref.c)
00427be0       WndForceRefresh_
Module: /mnt/sda5/.user/root/src/openwatcom-1.9/bld/gui/win/nt386/gui.lib(/mnt/sda5/.user/root/src/openwatcom-1.9/bld/gui/win/c/guithumb.c)
00427c90       GUISetVScrollThumb_
00427ca0*      GUISetHScrollThumb_
Module: /mnt/sda5/.user/root/src/openwatcom-1.9/bld/gui/win/nt386/gui.lib(/mnt/sda5/.user/root/src/openwatcom-1.9/bld/gui/win/c/guiiscrl.c)
00427d00       GUIInitVScrollRow_
00427d20*      GUIInitHScrollCol_
00427d40*      GUIInitVScroll_
00427d80       GUIInitHScroll_
Module: /mnt/sda5/.user/root/src/openwatcom-1.9/bld/gui/win/nt386/gui.lib(/mnt/sda5/.user/root/src/openwatcom-1.9/bld/gui/win/c/guidoscr.c)
00427f20*      GUIDoVScroll_
00427f40*      GUIDoHScroll_
00427f60       GUIDoVScrollClip_
00427f70*      GUIDoHScrollClip_
00427f80       GUIDoScroll_
Module: /mnt/sda5/.user/root/src/openwatcom-1.9/bld/gui/win/nt386/gui.lib(/mnt/sda5/.user/root/src/openwatcom-1.9/bld/gui/win/c/guigetrc.c)
00427fc0       GUIGetRow_
00428000*      GUIGetCol_
Module: /mnt/sda5/.user/root/src/openwatcom-1.9/bld/gui/win/nt386/gui.lib(/mnt/sda5/.user/root/src/openwatcom-1.9/bld/gui/win/c/guistrin.c)
004280b0       GUIGetStringPos_
Module: /mnt/sda5/.user/root/src/openwatcom-1.9/bld/gui/win/nt386/gui.lib(/mnt/sda5/.user/root/src/openwatcom-1.9/bld/gui/win/c/guidrect.c)
004281d0       GUIWndDirtyRect_
Module: /mnt/sda5/.user/root/src/openwatcom-1.9/bld/gui/win/nt386/gui.lib(/mnt/sda5/.user/root/src/openwatcom-1.9/bld/gui/win/c/guidrow.c)
00428270       GUIWndDirtyRow_
Module: /mnt/sda5/.user/root/src/openwatcom-1.9/bld/gui/win/nt386/gui.lib(/mnt/sda5/.user/root/src/openwatcom-1.9/bld/gui/c/guidraw.c)
00428350       GUIDrawText_
004283a0*      GUIDrawTextPos_
004283c0       GUIDrawTextExtent_
00428410*      GUIDrawTextExtentPos_
00428430*      GUIDrawTextRGB_
00428480*      GUIDrawTextPosRGB_
004284a0*      GUIDrawTextExtentRGB_
004284f0*      GUIDrawTextExtentPosRGB_
Module: /mnt/sda5/.user/root/src/openwatcom-1.9/bld/gui/win/nt386/gui.lib(/mnt/sda5/.user/root/src/openwatcom-1.9/bld/gui/c/guihot.c)
00428530*      GUIInitHotSpots_
00428590*      GUIGetNumHotSpots_
004285a0       GUIGetHotSpotSize_
0043cce4       _GUINumHotSpots
Module: /mnt/sda5/.user/root/src/openwatcom-1.9/bld/aui/nt386/aui.lib(/mnt/sda5/.user/root/src/openwatcom-1.9/bld/aui/c/wndsfra.c)
004285e0       WndStartFreshAll_
Module: /mnt/sda5/.user/root/src/openwatcom-1.9/bld/aui/nt386/aui.lib(/mnt/sda5/.user/root/src/openwatcom-1.9/bld/aui/c/wndefra.c)
004285f0       WndEndFreshAll_
Module: /mnt/sda5/.user/root/src/openwatcom-1.9/bld/aui/nt386/aui.lib(/mnt/sda5/.user/root/src/openwatcom-1.9/bld/aui/c/wndmem.c)
00428600       WndMustAlloc_
00428620*      WndMustRealloc_
Module: /mnt/sda5/.user/root/src/openwatcom-1.9/bld/gui/win/nt386/gui.lib(/mnt/sda5/.user/root/src/openwatcom-1.9/bld/gui/c/guihflt.c)
00428640       GUICreateFloatingPopup_
Module: /mnt/sda5/.user/root/src/openwatcom-1.9/bld/gui/win/nt386/gui.lib(/mnt/sda5/.user/root/src/openwatcom-1.9/bld/gui/win/c/guireset.c)
00428710       GUIResetMenus_
Module: /mnt/sda5/.user/root/src/openwatcom-1.9/bld/gui/win/nt386/gui.lib(/mnt/sda5/.user/root/src/openwatcom-1.9/bld/gui/win/c/guixscal.c)
004287f0       GUIScaleToScreenRect_
00428810*      GUIScreenToScaleRect_
00428830       GUIClientToScaleRect_
00428850       GUIToText_
00428890       GUIToTextX_
004288b0       GUIToTextY_
004288d0*      GUIFromText_
00428910       GUIFromTextX_
00428930       GUIFromTextY_
00428950       GUIGetTheDC_
00428990       GUIReleaseTheDC_
004289d0       GUIGetMetrics_
00428a10       GUIGetUpdateRows_
0043cce8       _GUItm
Module: /mnt/sda5/.user/root/src/openwatcom-1.9/rel2/lib386/math387r.lib(ldclass.c)
00428ad1       __LDClass_
00428b21*      _FLClass_
Module: /mnt/sda5/.user/root/src/openwatcom-1.9/bld/gui/win/nt386/gui.lib(/mnt/sda5/.user/root/src/openwatcom-1.9/bld/gui/c/guisetup.c)
00428b30       GUISetupWnd_
Module: /mnt/sda5/.user/root/src/openwatcom-1.9/bld/gui/win/nt386/gui.lib(/mnt/sda5/.user/root/src/openwatcom-1.9/bld/gui/win/c/guifloat.c)
0043a278+      _CurrItem
00428b80+      GUITrackFloatingPopup_
00428cd0       GUIXCreateFloatingPopup_
00428d40       GUIPopupMenuSelect_
Module: /mnt/sda5/.user/root/src/openwatcom-1.9/bld/gui/win/nt386/gui.lib(/mnt/sda5/.user/root/src/openwatcom-1.9/bld/gui/win/c/guigetx.c)
00428d90       GUIGetTextExtentX_
00428db0*      GUIGetTextExtentY_
00428dd0       GUIGetTextExtent_
Module: /mnt/sda5/.user/root/src/openwatcom-1.9/bld/gui/win/nt386/gui.lib(/mnt/sda5/.user/root/src/openwatcom-1.9/bld/gui/win/c/guiximdi.c)
00428e70       XFakeInitMDI_
Module: /mnt/sda5/.user/root/src/openwatcom-1.9/bld/gui/win/nt386/gui.lib(/mnt/sda5/.user/root/src/openwatcom-1.9/bld/gui/c/guimdi.c)
0043a2b0+      _GUIMDIMenuID
0043a2b4+      _Root
00428ea0*      GUIGetRoot_
00429130       MDIDeleteMenu_
00429150       MDIResetMenus_
004291d0*      GUIEnableMDIMenus_
00429260       InitMDI_
004293b0       ChangeTitle_
004293f0       BroughtToFront_
00429460+      FindNextMDIMenuWindowNotInArray_
004294d0       MDIDelete_
00429780+      GUIGetNumChildWindows_
004297b0*      GUIGetNumIconicWindows_
00429830       GUIMDIMoreWindows_
00429890       GUIMDIGetWindow_
Module: /mnt/sda5/.user/root/src/openwatcom-1.9/rel2/lib386/nt/clib3r.lib(strnicmp.c)
004298b0       strnicmp_
Module: /mnt/sda5/.user/root/src/openwatcom-1.9/bld/gui/win/nt386/gui.lib(/mnt/sda5/.user/root/src/openwatcom-1.9/bld/sdk/misc/wstatus.c)
00429c60+      _StatusWndCallback@16
00429f70       StatusWndInit_
0042a1b0       StatusWndCreate_
0042a2b0+      StatusWndDraw3DBox_
0042a310+      outputText_
0042a560       StatusWndDrawLine_
0042a700*      StatusWndSetSeparators_
0042a750       StatusWndFini_
Module: /mnt/sda5/.user/root/src/openwatcom-1.9/bld/gui/win/nt386/gui.lib(/mnt/sda5/.user/root/src/openwatcom-1.9/bld/gui/win/c/guixbar.c)
0042a800+      DrawSimpleBar_
0042a950+      DrawShadowBar_
0042ab10       GUIDrawBar_
0042ac30       GUIDrawBarGroup_
Module: /mnt/sda5/.user/root/src/openwatcom-1.9/bld/gui/win/nt386/gui.lib(/mnt/sda5/.user/root/src/openwatcom-1.9/bld/gui/win/c/guixhot.c)
0042ad00       GUIXInitHotSpots_
0042adc0       GUIXCleanupHotSpots_
0042ae20       GUIDrawHotSpot_
0042ae90       GUIDrawBitmap_
0043d184       _GUIHotSpots
Module: /mnt/sda5/.user/root/src/openwatcom-1.9/bld/aui/nt386/aui.lib(/mnt/sda5/.user/root/src/openwatcom-1.9/bld/aui/c/wndtbatr.c)
0042b040       WndMapTabAttr_
Module: /mnt/sda5/.user/root/src/openwatcom-1.9/rel2/lib386/nt/clib3r.lib(setjmp)
0042b048       _setjmp_
0042b081       longjmp_
Module: /mnt/sda5/.user/root/src/openwatcom-1.9/bld/gui/win/nt386/gui.lib(/mnt/sda5/.user/root/src/openwatcom-1.9/bld/gui/win/c/guienum.c)
0042b110+      _EnumFunc@8
0042b180       GUIEnumChildWindows_
Module: /mnt/sda5/.user/root/src/openwatcom-1.9/bld/gui/win/nt386/gui.lib(/mnt/sda5/.user/root/src/openwatcom-1.9/bld/gui/c/guiwnclr.c)
0042b1b0       GUISetColours_
0042b1d0       GUIFreeColours_
0042b1f0*      GUIGetNumWindowColours_
0042b200*      GUIGetWindowColours_
Module: /mnt/sda5/.user/root/src/openwatcom-1.9/rel2/lib386/nt/clib3r.lib(gdrvewnt.c)
0042b230       _dos_getdrive_
Module: /mnt/sda5/.user/root/src/openwatcom-1.9/rel2/lib386/nt/clib3r.lib(sdrvewnt.c)
0042b270       _dos_setdrive_
Module: /mnt/sda5/.user/root/src/openwatcom-1.9/bld/gui/win/nt386/gui.lib(/mnt/sda5/.user/root/src/openwatcom-1.9/bld/gui/win/c/guicombo.c)
0042b2a0+      _GUIEnumFunc@8
0042b310       GUISubClassEditCombobox_
Module: /mnt/sda5/.user/root/src/openwatcom-1.9/rel2/lib386/nt/clib3r.lib(toupper.c)
0042b350       toupper_
Module: /mnt/sda5/.user/root/src/openwatcom-1.9/bld/gui/win/nt386/gui.lib(/mnt/sda5/.user/root/src/openwatcom-1.9/bld/gui/c/guiextnm.c)
0042b360       GUIGetExtName_
0042b380*      GUISetExtName_
Module: /mnt/sda5/.user/root/src/openwatcom-1.9/rel2/lib386/nt/clib3r.lib(argcv.c)
0043d188       __argc
0043d18c       __argv
0043d190       ___argv
0043d194       ___argc
Module: /mnt/sda5/.user/root/src/openwatcom-1.9/rel2/lib386/nt/clib3r.lib(cstrtwwt)
0042b3d0       _wstart_
0042b3d0*      _wstart2_
0042b3d0*      WinMainCRTStartup
Module: /mnt/sda5/.user/root/src/openwatcom-1.9/bld/gui/win/nt386/gui.lib(/mnt/sda5/.user/root/src/openwatcom-1.9/bld/sdk/misc/fontstr.c)
0042b490       GetLogFontFromString_
0042b570       GetFontFormatString_
Module: /mnt/sda5/.user/root/src/openwatcom-1.9/bld/gui/win/nt386/gui.lib(/mnt/sda5/.user/root/src/openwatcom-1.9/bld/gui/win/c/mem.c)
0042b5d0       MemFree_
0042b5e0       MemAlloc_
0042b600*      MemReAlloc_
Module: /mnt/sda5/.user/root/src/openwatcom-1.9/rel2/lib386/nt/clib3r.lib(mbisdbcs.c)
0043d198       ___IsDBCS
Module: /mnt/sda5/.user/root/src/openwatcom-1.9/rel2/lib386/nt/clib3r.lib(splitpat.c)
0042b650       _splitpath_
Module: /mnt/sda5/.user/root/src/openwatcom-1.9/bld/gui/win/nt386/gui.lib(/mnt/sda5/.user/root/src/openwatcom-1.9/bld/gui/win/c/guixdraw.c)
0042b760+      GUIDrawTextBitmapRGB_
0042bb20       GUIDrawTextBitmapAttr_
0042bb80       GUIXDrawText_
0042bbb0       GUIXDrawTextRGB_
Module: /mnt/sda5/.user/root/src/openwatcom-1.9/bld/gui/win/nt386/gui.lib(/mnt/sda5/.user/root/src/openwatcom-1.9/bld/gui/c/guipick.c)
0042bc60+      GUIPickEvent_
0042bd00+      GUIDlgPickWithRtn_
0042bd80       GUIDlgPick_
Module: /mnt/sda5/.user/root/src/openwatcom-1.9/rel2/lib386/nt/clib3r.lib(ljmphdl.c)
0043a47c       ___longjmp_handler
Module: /mnt/sda5/.user/root/src/openwatcom-1.9/rel2/lib386/nt/clib3r.lib(strncmp.c)
0042bda0       strncmp_
Module: /mnt/sda5/.user/root/src/openwatcom-1.9/rel2/lib386/nt/clib3r.lib(initargv.c)
0042bdd0       __Init_Argv_
0042be20+      _getargv_
0042bfc0       __Fini_Argv_
Module: /mnt/sda5/.user/root/src/openwatcom-1.9/rel2/lib386/nt/clib3r.lib(wmainwnt.c)
0042bfd0       __WinMain
Module: /mnt/sda5/.user/root/src/openwatcom-1.9/rel2/lib386/nt/clib3r.lib(segdefns)
00401003       ___begtext
00439000*      __nullarea
0043ab88       __Start_XI
0043abbe       __End_XI
0043abbe       __Start_YI
0043abe2       __End_YI
Module: /mnt/sda5/.user/root/src/openwatcom-1.9/rel2/lib386/nt/clib3r.lib(sscanf.c)
0042c0c0+      vsscanf_
0042c0f0       sscanf_
Module: /mnt/sda5/.user/root/src/openwatcom-1.9/rel2/lib386/nt/clib3r.lib(mbsnccnt.c)
0042c120       _mbsnccnt_
Module: /mnt/sda5/.user/root/src/openwatcom-1.9/rel2/lib386/nt/clib3r.lib(mbsncpy.c)
0042c150       _mbsncpy_
Module: /mnt/sda5/.user/root/src/openwatcom-1.9/rel2/lib386/nt/clib3r.lib(mbsnbcnt.c)
0042c170       _mbsnbcnt_
Module: /mnt/sda5/.user/root/src/openwatcom-1.9/rel2/lib386/nt/clib3r.lib(mbsnextc.c)
0042c1e0       _mbsnextc_
Module: /mnt/sda5/.user/root/src/openwatcom-1.9/rel2/lib386/nt/clib3r.lib(mbsinc.c)
0042c220       _mbsinc_
Module: /mnt/sda5/.user/root/src/openwatcom-1.9/rel2/lib386/nt/clib3r.lib(crwdata)
0043a4c4       __osmajor
0043a4c5       __osminor
0043a4c6       __osbuild
0043a4c8       __osver
0043a4cc       __winmajor
0043a4d0       __winminor
0043a4d4       __winver
0043a490       __LpDllName
0043a494       __LpwCmdLine
0043a498       __LpwPgmName
0043a49c       __LpwDllName
0043a488       __LpCmdLine
0043a48c       __LpPgmName
0043a480*      __dynend
0043a484       __curbrk
0043a4a0*      __STACKLOW
0043a4a4       __STACKTOP
0043a4a8       __ASTACKSIZ
0043a4ac       __ASTACKPTR
0043a4b0*      __cbyte
0043a4b4*      __cbyte2
0043a4b8*      __child
0043a4be       __Envptr
0043a4c2*      __Envseg
0043a4bc       __no87
0043a4d8       ___FPE_handler
Module: /mnt/sda5/.user/root/src/openwatcom-1.9/rel2/lib386/nt/clib3r.lib(histsplt.c)
0043d1a0       ___historical_splitparms
Module: /mnt/sda5/.user/root/src/openwatcom-1.9/rel2/lib386/nt/clib3r.lib(___argc.c)
0043d1a4       ____Argc
0043d1a8       ____Argv
Module: /mnt/sda5/.user/root/src/openwatcom-1.9/rel2/lib386/nt/clib3r.lib(initrtns.c)
0042c260       __InitRtns
0042c2b0       __FiniRtns
Module: /mnt/sda5/.user/root/src/openwatcom-1.9/rel2/lib386/nt/clib3r.lib(mthrdini.c)
0042c310       __InitThreadData_
0043a4dc       ___ThreadDataSize
Module: /mnt/sda5/.user/root/src/openwatcom-1.9/rel2/lib386/nt/clib3r.lib(mainwnt.c)
0043a4e0*      ___TlsIndex
0043a4e4+      ___FirstThreadData
0043a4e8       ___GetThreadPtr
0043a4ec       __AccessFileH
0043a4f0       __ReleaseFileH
0043a4f4       __AccessIOB
0043a4f8       __ReleaseIOB
0043a4fc       __AccessNHeap
0043a500*      __AccessFHeap
0043a504       __ReleaseNHeap
0042c350*      __threadid_
0042c370+      __sig_null_rtn_
0042c380+      __NTInit_
0042c560+      __NTFini_
0042c5c0       __NTMainInit_
0042c620       __exit_
0043a508*      __ReleaseFHeap
0043a50c*      __AccessTDList
0043a510*      __ReleaseTDList
0043a514       __AccessFList
0043a518       __ReleaseFList
0043a51c+      __ThreadExitRtn
0043a520       ___sig_init_rtn
0043a524       ___sig_fini_rtn
0043a528       ___process_fini
0043d1b4       ___Is_DLL
Module: /mnt/sda5/.user/root/src/openwatcom-1.9/rel2/lib386/nt/clib3r.lib(cinit.c)
0042c670       __CommonInit_
Module: /mnt/sda5/.user/root/src/openwatcom-1.9/rel2/lib386/nt/clib3r.lib(dosseg)
00001234       __DOSseg__
Module: /mnt/sda5/.user/root/src/openwatcom-1.9/rel2/lib386/nt/clib3r.lib(scnf.c)
0042d1e0       __scnf_
Module: /mnt/sda5/.user/root/src/openwatcom-1.9/rel2/lib386/nt/clib3r.lib(mbterm.c)
0042d450       _mbterm_
Module: /mnt/sda5/.user/root/src/openwatcom-1.9/rel2/lib386/nt/clib3r.lib(mbclen.c)
0042d490       _mbclen_
Module: /mnt/sda5/.user/root/src/openwatcom-1.9/rel2/lib386/nt/clib3r.lib(mbsnbcpy.c)
0042d4c0       _mbsnbcpy_
Module: /mnt/sda5/.user/root/src/openwatcom-1.9/rel2/lib386/nt/clib3r.lib(mbislead.c)
0042d520*      _ismbblead_
0043d7d0       ___MBCSIsTable
Module: /mnt/sda5/.user/root/src/openwatcom-1.9/rel2/lib386/nt/clib3r.lib(stklmwnt.c)
0042d540       __init_stack_limits_
Module: /mnt/sda5/.user/root/src/openwatcom-1.9/rel2/lib386/nt/clib3r.lib(hdlman.c)
0043a52c+      ___NHandles
0043a530+      ___OSHandles
0043a534+      ___FakeHandles
0042d5b0+      __growPOSIXHandles_
0042d650       __allocPOSIXHandle_
0042d710       __freePOSIXHandle_
0042d730       __getOSHandle_
0042d740       __setOSHandle_
0042d790+      __NTGetFakeHandle_
0042d800       __initPOSIXHandles_
0042d8e0*      __set_handles_
0042d8f0*      _grow_handles_
Module: /mnt/sda5/.user/root/src/openwatcom-1.9/rel2/lib386/nt/clib3r.lib(environ.c)
0043d8d4       ___env_mask
0043d8d8       _environ
0043d8dc       __wenviron
Module: /mnt/sda5/.user/root/src/openwatcom-1.9/rel2/lib386/nt/clib3r.lib(getmodfn.c)
0042d930       __lib_GetModuleFileNameW_
Module: /mnt/sda5/.user/root/src/openwatcom-1.9/rel2/lib386/nt/clib3r.lib(strdup.c)
0042d9d0       __clib_strdup_
Module: /mnt/sda5/.user/root/src/openwatcom-1.9/rel2/lib386/nt/clib3r.lib(ustrdup.c)
0042da10       __clib_wcsdup_
Module: /mnt/sda5/.user/root/src/openwatcom-1.9/rel2/lib386/nt/clib3r.lib(excptwnt.c)
0042e0a0+      ___ReportException@4
0042e4f0       __DefaultExceptionHandler_
0042e530+      ___ExceptionFilter
0042e740       __NewExceptionFilter_
0042e770       __DoneExceptionFilter_
0043a540       ___oscode_check_func
0043a544       ___raise_func
0043d8e0*      _sw
0043d8e4+      ___ExceptionHandled
0043d8e5+      ___ReportInvoked
Module: /mnt/sda5/.user/root/src/openwatcom-1.9/rel2/lib386/nt/clib3r.lib(mbtowc.c)
0042e7b0       mbtowc_
Module: /mnt/sda5/.user/root/src/openwatcom-1.9/rel2/lib386/nt/clib3r.lib(bits.c)
0042e840       __Bits
Module: /mnt/sda5/.user/root/src/openwatcom-1.9/rel2/lib386/nt/clib3r.lib(noefgfmt.c)
0043a55c       ___EFG_printf
0043a560       ___EFG_scanf
Module: /mnt/sda5/.user/root/src/openwatcom-1.9/rel2/lib386/nt/clib3r.lib(fdfs386)
0042e894       __FDFS
Module: /mnt/sda5/.user/root/src/openwatcom-1.9/rel2/lib386/nt/clib3r.lib(i8m)
0042e8e0*      __I8M
0042e8e0       __U8M
Module: /mnt/sda5/.user/root/src/openwatcom-1.9/rel2/lib386/nt/clib3r.lib(mbinit.c)
0042e936       __mbinit_
0043a564       ___MBCodePage
Module: /mnt/sda5/.user/root/src/openwatcom-1.9/rel2/lib386/nt/clib3r.lib(seterrno.c)
0042ea24       __set_errno_
0042ea32*      __set_EDOM_
0042ea40       __set_ERANGE_
0042ea4e*      __set_EINVAL_
0042ea61       __set_doserrno_
Module: /mnt/sda5/.user/root/src/openwatcom-1.9/rel2/lib386/nt/clib3r.lib(iomode.c)
0042ea70       __GetIOMode_
0042ea90       __SetIOMode_nogrow_
0043a568       ___NFiles
0043a56c       ___init_mode
0043a5bc       ___io_mode
Module: /mnt/sda5/.user/root/src/openwatcom-1.9/rel2/lib386/nt/clib3r.lib(stiomode.c)
0042eab0       __grow_iomode_
0042eb80+      __shrink_iomode_
0042ebc0       __SetIOMode_
Module: /mnt/sda5/.user/root/src/openwatcom-1.9/rel2/lib386/nt/clib3r.lib(setenvp.c)
0042ec30       __setenvp_
0042ecf0       __freeenvp_
Module: /mnt/sda5/.user/root/src/openwatcom-1.9/rel2/lib386/nt/clib3r.lib(ustrlen.c)
0042ed3d       wcslen_
Module: /mnt/sda5/.user/root/src/openwatcom-1.9/rel2/lib386/nt/clib3r.lib(memcpy.c)
0042ed50       memcpy_
Module: /mnt/sda5/.user/root/src/openwatcom-1.9/rel2/lib386/nt/clib3r.lib(conutwnt.c)
0042ed80*      __NTRealKey_
0042ee30*      __NTConsoleInput_
0042ee40       __NTConsoleOutput_
Module: /mnt/sda5/.user/root/src/openwatcom-1.9/rel2/lib386/nt/clib3r.lib(fclex387.c)
0042ee50       _ClearFPE_
Module: /mnt/sda5/.user/root/src/openwatcom-1.9/rel2/lib386/nt/clib3r.lib(signlwnt.c)
0043a5c8+      __SignalTable
0042ee60+      __SetSignalFunc_
0042eeb0+      __GetSignalFunc_
0042eee0+      __GetSignalOSCode_
0042ef10+      __CheckSignalExCode_
0042f050+      __sigabort_
0042f060       __sigfpe_handler_
0042f0b0*      signal_
0042f140+      raise_
0042f1b0+      __SigInit_
0042f200+      __SigFini_
0042f240+      __sig_init_
Module: /mnt/sda5/.user/root/src/openwatcom-1.9/rel2/lib386/nt/clib3r.lib(xmsgwnt.c)
0042f260+      __exit_with_msg_
0042f2c0       __fatal_runtime_error_
Module: /mnt/sda5/.user/root/src/openwatcom-1.9/rel2/lib386/nt/clib3r.lib(iomodtty.c)
0042f2e0       __ChkTTYIOMode_
0042f320*      __IOMode_
Module: /mnt/sda5/.user/root/src/openwatcom-1.9/rel2/lib386/nt/clib3r.lib(dofilstr.c)
0042f360       __ParsePosixHandleStr_
Module: /mnt/sda5/.user/root/src/openwatcom-1.9/rel2/lib386/nt/clib3r.lib(clearenv.c)
0042f480       clearenv_
Module: /mnt/sda5/.user/root/src/openwatcom-1.9/rel2/lib386/nt/clib3r.lib(abort.c)
0042f525*      abort_
0042f537       __terminate_
0043a634       ___abort
Module: /mnt/sda5/.user/root/src/openwatcom-1.9/rel2/lib386/nt/clib3r.lib(enterdb.c)
0042f550       __EnterWVIDEO_
0043a638+      ___WD_Present
Module: /mnt/sda5/.user/root/src/openwatcom-1.9/rel2/lib386/nt/clib3r.lib(isattwnt.c)
0042f580       isatty_
Module: /mnt/sda5/.user/root/src/openwatcom-1.9/rel2/lib386/nt/clib3r.lib(strtol.c)
0042f7c0*      strtoul_
0042f7d0       strtol_
Module: /mnt/sda5/.user/root/src/openwatcom-1.9/rel2/lib386/nt/clib3r.lib(putenv.c)
0042f7e0       putenv_
0042fa70       __putenv_
Module: /mnt/sda5/.user/root/src/openwatcom-1.9/rel2/lib386/nt/clib3r.lib(mbschr.c)
0042fbe0       _mbschr_
Module: /mnt/sda5/.user/root/src/openwatcom-1.9/rel2/lib386/nt/clib3r.lib(mbslen.c)
0042fc40       _mbslen_
Module: /mnt/sda5/.user/root/src/openwatcom-1.9/rel2/lib386/nt/clib3r.lib(mbstowcs.c)
0042fc70       mbstowcs_
Module: /mnt/sda5/.user/root/src/openwatcom-1.9/rel2/lib386/nt/clib3r.lib(uputenv.c)
0042fcf0*      _wputenv_
0042ff10       __wputenv_
Module: /mnt/sda5/.user/root/src/openwatcom-1.9/rel2/lib386/nt/clib3r.lib(mbconv.c)
00430010       _mbvtop_
Module: /mnt/sda5/.user/root/src/openwatcom-1.9/rel2/lib386/nt/clib3r.lib(mbccmp.c)
00430030       _mbccmp_
Module: /mnt/sda5/.user/root/src/openwatcom-1.9/rel2/lib386/nt/clib3r.lib(ustrchr.c)
0043006b       wcschr_
Module: /mnt/sda5/.user/root/src/openwatcom-1.9/rel2/lib386/nt/clib3r.lib(setenvar.c)
00430090       __lib_SetEnvironmentVariableW_
Module: /mnt/sda5/.user/root/src/openwatcom-1.9/rel2/lib386/nt/clib3r.lib(crtwenv.c)
00430180       __create_wide_environment_
Module: /mnt/sda5/.user/root/src/openwatcom-1.9/rel2/lib386/nt/clib3r.lib(wcstombs.c)
004301f0       wcstombs_
Module: /mnt/sda5/.user/root/src/openwatcom-1.9/rel2/lib386/nt/clib3r.lib(utoupper.c)
0043028f       towupper_
Module: /mnt/sda5/.user/root/src/openwatcom-1.9/rel2/lib386/nt/clib3r.lib(wctomb.c)
004302a0       wctomb_
Module: /mnt/sda5/.user/root/src/openwatcom-1.9/rel2/lib386/nt/clib3r.lib(lseek.c)
004302e0       lseek_
Module: /mnt/sda5/.user/root/src/openwatcom-1.9/rel2/lib386/nt/clib3r.lib(openwnt.c)
00430530       open_
00430550       sopen_
Module: /mnt/sda5/.user/root/src/openwatcom-1.9/rel2/lib386/nt/clib3r.lib(close.c)
00430580       close_
Module: /mnt/sda5/.user/root/src/openwatcom-1.9/rel2/lib386/nt/clib3r.lib(read.c)
004305a0       read_
Module: /mnt/sda5/.user/root/src/openwatcom-1.9/rel2/lib386/nt/clib3r.lib(nmalloc.c)
00430730       _nmalloc_
00430730       malloc_
0043a6c8       ___nheapbeg
0043a6cc       ___MiniHeapRover
0043a6d0       ___LargestSizeB4MiniHeapRover
Module: /mnt/sda5/.user/root/src/openwatcom-1.9/rel2/lib386/nt/clib3r.lib(nrealloc.c)
00430830*      _nrealloc_
00430830       realloc_
Module: /mnt/sda5/.user/root/src/openwatcom-1.9/rel2/lib386/nt/clib3r.lib(nfree.c)
004308b0       _nfree_
004308b0       free_
0043d8f0       ___MiniHeapFreeRover
Module: /mnt/sda5/.user/root/src/openwatcom-1.9/rel2/lib386/nt/clib3r.lib(write.c)
00430c10       write_
Module: /mnt/sda5/.user/root/src/openwatcom-1.9/rel2/lib386/nt/clib3r.lib(remove.c)
00430e70       remove_
Module: /mnt/sda5/.user/root/src/openwatcom-1.9/rel2/lib386/nt/clib3r.lib(fopen.c)
00430e80+      __open_flags_
00431090+      _fsopen_
004310e0       fopen_
00431170*      freopen_
Module: /mnt/sda5/.user/root/src/openwatcom-1.9/rel2/lib386/nt/clib3r.lib(fclose.c)
004311e0       __doclose_
00431280       __shutdown_stream_
004312a0       fclose_
0043d8f4+      ___RmTmpFileFn
Module: /mnt/sda5/.user/root/src/openwatcom-1.9/rel2/lib386/nt/clib3r.lib(sprintf.c)
004312f0       sprintf_
Module: /mnt/sda5/.user/root/src/openwatcom-1.9/rel2/lib386/nt/clib3r.lib(fltused.c)
0043a6d4       _fltused_
Module: /mnt/sda5/.user/root/src/openwatcom-1.9/rel2/lib386/nt/clib3r.lib(_8087)
0043a6d8       __8087
0043a6d9       __real87
Module: /mnt/sda5/.user/root/src/openwatcom-1.9/rel2/lib386/nt/clib3r.lib(statwnt.c)
0043142a       stat_
Module: /mnt/sda5/.user/root/src/openwatcom-1.9/rel2/lib386/nt/clib3r.lib(split2.c)
004316b0       _splitpath2_
Module: /mnt/sda5/.user/root/src/openwatcom-1.9/rel2/lib386/nt/clib3r.lib(memset.c)
00431800       memset_
Module: /mnt/sda5/.user/root/src/openwatcom-1.9/rel2/lib386/nt/clib3r.lib(itoa.c)
00431820+      utoa_
00431870       itoa_
Module: /mnt/sda5/.user/root/src/openwatcom-1.9/rel2/lib386/nt/clib3r.lib(exit.c)
00431894+      __null_int23_exit_
00431895       exit_
004318e5*      _exit_
0043a6dc+      ___int23_exit
0043a6e0+      ___FPE_handler_exit
Module: /mnt/sda5/.user/root/src/openwatcom-1.9/rel2/lib386/nt/clib3r.lib(fprintf.c)
00431900       fprintf_
Module: /mnt/sda5/.user/root/src/openwatcom-1.9/rel2/lib386/nt/clib3r.lib(stackwnt.c)
00431930       stackavail_
Module: /mnt/sda5/.user/root/src/openwatcom-1.9/rel2/lib386/nt/clib3r.lib(stk)
00431941*      __CHK
00431951*      __STK
00431970       __STKOVERFLOW_
00431980       __GRO
004319a0*      __alloca_probe
Module: /mnt/sda5/.user/root/src/openwatcom-1.9/rel2/lib386/nt/clib3r.lib(fstatwnt.c)
004319c0       fstat_
Module: /mnt/sda5/.user/root/src/openwatcom-1.9/rel2/lib386/nt/clib3r.lib(qsort.c)
00431cf0       qsort_
Module: /mnt/sda5/.user/root/src/openwatcom-1.9/rel2/lib386/nt/clib3r.lib(tell.c)
004323a0       tell_
Module: /mnt/sda5/.user/root/src/openwatcom-1.9/rel2/lib386/nt/clib3r.lib(accsswnt.c)
004323c0       access_
Module: /mnt/sda5/.user/root/src/openwatcom-1.9/rel2/lib386/nt/clib3r.lib(searchen.c)
004323f0       _searchenv_
Module: /mnt/sda5/.user/root/src/openwatcom-1.9/rel2/lib386/nt/clib3r.lib(makepath.c)
00432540       _makepath_
Module: /mnt/sda5/.user/root/src/openwatcom-1.9/rel2/lib386/nt/clib3r.lib(getenv.c)
004326f0       getenv_
Module: /mnt/sda5/.user/root/src/openwatcom-1.9/rel2/lib386/nt/clib3r.lib(snprintf.c)
004327c0+      vsnprintf_
00432820       snprintf_
Module: /mnt/sda5/.user/root/src/openwatcom-1.9/rel2/lib386/nt/clib3r.lib(stricmp.c)
00432850       stricmp_
Module: /mnt/sda5/.user/root/src/openwatcom-1.9/rel2/lib386/nt/clib3r.lib(gtcmd.c)
004328d0+      _bgetcmd_
00432940       getcmd_
Module: /mnt/sda5/.user/root/src/openwatcom-1.9/rel2/lib386/nt/clib3r.lib(istable.c)
00432960       __IsTable
Module: /mnt/sda5/.user/root/src/openwatcom-1.9/rel2/lib386/nt/clib3r.lib(tolower.c)
00432a70       tolower_
Module: /mnt/sda5/.user/root/src/openwatcom-1.9/rel2/lib386/nt/clib3r.lib(memmove.c)
00432a80       memmove_
Module: /mnt/sda5/.user/root/src/openwatcom-1.9/rel2/lib386/nt/clib3r.lib(strncpy.c)
00432ae0       strncpy_
Module: /mnt/sda5/.user/root/src/openwatcom-1.9/rel2/lib386/nt/clib3r.lib(strrchr.c)
00432b20       strrchr_
Module: /mnt/sda5/.user/root/src/openwatcom-1.9/rel2/lib386/nt/clib3r.lib(atoi.c)
00432b40       atoi_
Module: /mnt/sda5/.user/root/src/openwatcom-1.9/rel2/lib386/nt/clib3r.lib(hugeval.c)
00432b90       __HugeValue
Module: /mnt/sda5/.user/root/src/openwatcom-1.9/rel2/lib386/nt/clib3r.lib(__lseek.c)
00432ba0       __lseek_
Module: /mnt/sda5/.user/root/src/openwatcom-1.9/rel2/lib386/nt/clib3r.lib(ntfio.c)
00432be0*      __GetNTCreateAttr_
00432c20       __GetNTAccessAttr_
00432c50       __GetNTShareAttr_
Module: /mnt/sda5/.user/root/src/openwatcom-1.9/rel2/lib386/nt/clib3r.lib(umaskval.c)
0043a6f4       ___umaskval
Module: /mnt/sda5/.user/root/src/openwatcom-1.9/rel2/lib386/nt/clib3r.lib(dosret.c)
00432cb0*      _dosretax_
00432cc0*      _dosret0_
00432cd0       __set_errno_dos_
00432d00*      __set_errno_dos_reterr_
00432d10       __set_errno_nt_
00432d20*      __set_errno_nt_reterr_
Module: /mnt/sda5/.user/root/src/openwatcom-1.9/rel2/lib386/nt/clib3r.lib(iob.c)
0043a7fc       ___iob
0043aa04       __fmode
0043d8f8       ___OpenStreams
0043d8fc       ___ClosedStreams
Module: /mnt/sda5/.user/root/src/openwatcom-1.9/rel2/lib386/nt/clib3r.lib(_clsewnt.c)
00432d40       __close_
Module: /mnt/sda5/.user/root/src/openwatcom-1.9/rel2/lib386/nt/clib3r.lib(nmemneed.c)
00432da0       __nmemneed_
Module: /mnt/sda5/.user/root/src/openwatcom-1.9/rel2/lib386/nt/clib3r.lib(mem.c)
00432db0       __MemAllocator
00432e60       __MemFree
Module: /mnt/sda5/.user/root/src/openwatcom-1.9/rel2/lib386/nt/clib3r.lib(grownear.c)
00433100       __ExpandDGROUP_
Module: /mnt/sda5/.user/root/src/openwatcom-1.9/rel2/lib386/nt/clib3r.lib(nmsize.c)
00433120       _nmsize_
00433120*      _msize_
Module: /mnt/sda5/.user/root/src/openwatcom-1.9/rel2/lib386/nt/clib3r.lib(nexpand.c)
00433130       _nexpand_
00433130*      _expand_
00433170+      __HeapManager_expand_
Module: /mnt/sda5/.user/root/src/openwatcom-1.9/rel2/lib386/nt/clib3r.lib(unlnkwnt.c)
00433330       unlink_
Module: /mnt/sda5/.user/root/src/openwatcom-1.9/rel2/lib386/nt/clib3r.lib(comtflag.c)
00433350*      __set_commode_
0043aa08       __commode
Module: /mnt/sda5/.user/root/src/openwatcom-1.9/rel2/lib386/nt/clib3r.lib(fseek.c)
004333b0       fseek_
Module: /mnt/sda5/.user/root/src/openwatcom-1.9/rel2/lib386/nt/clib3r.lib(chktty.c)
004334c0       __chktty_
Module: /mnt/sda5/.user/root/src/openwatcom-1.9/rel2/lib386/nt/clib3r.lib(freefp.c)
00433500       __freefp_
00433550       __purgefp_
Module: /mnt/sda5/.user/root/src/openwatcom-1.9/rel2/lib386/nt/clib3r.lib(allocfp.c)
00433580       __allocfp_
Module: /mnt/sda5/.user/root/src/openwatcom-1.9/rel2/lib386/nt/clib3r.lib(flush.c)
00433650       __flush_
Module: /mnt/sda5/.user/root/src/openwatcom-1.9/rel2/lib386/nt/clib3r.lib(vsprintf.c)
00433770       vsprintf_
Module: /mnt/sda5/.user/root/src/openwatcom-1.9/rel2/lib386/nt/clib3r.lib(setefg.c)
00433790       __setEFGfmt_
Module: /mnt/sda5/.user/root/src/openwatcom-1.9/rel2/lib386/nt/clib3r.lib(chk8087.c)
004337d0*      _fpreset_
00433810       __chk8087_
00433820*      __init_8087_
Module: /mnt/sda5/.user/root/src/openwatcom-1.9/rel2/lib386/nt/clib3r.lib(mbspbrk.c)
00433840       _mbspbrk_
Module: /mnt/sda5/.user/root/src/openwatcom-1.9/rel2/lib386/nt/clib3r.lib(gtcwdwnt.c)
00433890       getcwd_
Module: /mnt/sda5/.user/root/src/openwatcom-1.9/rel2/lib386/nt/clib3r.lib(fullpath.c)
00433930+      _sys_fullpath_
004339b0       _fullpath_
Module: /mnt/sda5/.user/root/src/openwatcom-1.9/rel2/lib386/nt/clib3r.lib(ntdirinf.c)
00433a20       __MakeDOSDT_
00433a50*      __FromDOSDT_
00433a80*      __GetNTDirInfo_
00433ac0*      __NTFindNextFileWithAttr_
Module: /mnt/sda5/.user/root/src/openwatcom-1.9/rel2/lib386/nt/clib3r.lib(d2ttime.c)
00433b20       _d2ttime_
Module: /mnt/sda5/.user/root/src/openwatcom-1.9/rel2/lib386/nt/clib3r.lib(__stos)
00433ba0       __STOSB
00433bd7*      __STOSD
Module: /mnt/sda5/.user/root/src/openwatcom-1.9/rel2/lib386/nt/clib3r.lib(alphabet.c)
00439038       ___Alphabet
Module: /mnt/sda5/.user/root/src/openwatcom-1.9/rel2/lib386/nt/clib3r.lib(fprtf.c)
00433c70       __fprtf_
Module: /mnt/sda5/.user/root/src/openwatcom-1.9/rel2/lib386/nt/clib3r.lib(fgtattr.c)
00433d30       __fixed_GetFileAttributesA_
Module: /mnt/sda5/.user/root/src/openwatcom-1.9/rel2/lib386/nt/clib3r.lib(strlen.c)
00433dd0       strlen_
Module: /mnt/sda5/.user/root/src/openwatcom-1.9/rel2/lib386/nt/clib3r.lib(strncat.c)
00433df0       strncat_
Module: /mnt/sda5/.user/root/src/openwatcom-1.9/rel2/lib386/nt/clib3r.lib(strcat.c)
00433e30       strcat_
Module: /mnt/sda5/.user/root/src/openwatcom-1.9/rel2/lib386/nt/clib3r.lib(mbsdec.c)
00433e60       _mbsdec_
Module: /mnt/sda5/.user/root/src/openwatcom-1.9/rel2/lib386/nt/clib3r.lib(mbcupper.c)
00433ee0       _mbctoupper_
Module: /mnt/sda5/.user/root/src/openwatcom-1.9/rel2/lib386/nt/clib3r.lib(prtf.c)
00433f10       __prtf_
Module: /mnt/sda5/.user/root/src/openwatcom-1.9/rel2/lib386/nt/clib3r.lib(initfile.c)
00434c10       __InitFiles_
Module: /mnt/sda5/.user/root/src/openwatcom-1.9/rel2/lib386/nt/clib3r.lib(ioexit.c)
00434d10*      fcloseall_
00434d20       __full_io_exit_
Module: /mnt/sda5/.user/root/src/openwatcom-1.9/rel2/lib386/nt/clib3r.lib(amblksiz.c)
0043aa0c       __amblksiz
Module: /mnt/sda5/.user/root/src/openwatcom-1.9/rel2/lib386/nt/clib3r.lib(heapen.c)
00434d30*      _heapenable_
0043aa10       ___heap_enabled
Module: /mnt/sda5/.user/root/src/openwatcom-1.9/rel2/lib386/nt/clib3r.lib(nheapmin.c)
00434d60       _nheapshrink_
00434d60*      _nheapmin_
00434d60*      _heapmin_
00434d60*      _heapshrink_
Module: /mnt/sda5/.user/root/src/openwatcom-1.9/rel2/lib386/nt/clib3r.lib(fsync.c)
00434e50       fsync_
Module: /mnt/sda5/.user/root/src/openwatcom-1.9/rel2/lib386/nt/clib3r.lib(qwrit.c)
00434ea0       __qwrite_
Module: /mnt/sda5/.user/root/src/openwatcom-1.9/rel2/lib386/math387r.lib(efgfmt.c)
00434f80       _EFG_Format_
Module: /mnt/sda5/.user/root/src/openwatcom-1.9/rel2/lib386/math387r.lib(cnvs2d.c)
004350ea       __cnvs2d_
Module: /mnt/sda5/.user/root/src/openwatcom-1.9/rel2/lib386/nt/clib3r.lib(8087cw.c)
0043aa14       __8087cw
Module: /mnt/sda5/.user/root/src/openwatcom-1.9/rel2/lib386/nt/clib3r.lib(save8087.c)
0043aa18       ___Save8087
0043aa1c       ___Rest8087
Module: /mnt/sda5/.user/root/src/openwatcom-1.9/rel2/lib386/nt/clib3r.lib(init8087)
00435104       __x87id
Module: /mnt/sda5/.user/root/src/openwatcom-1.9/rel2/lib386/nt/clib3r.lib(mktime.c)
00435140       mktime_
Module: /mnt/sda5/.user/root/src/openwatcom-1.9/rel2/lib386/nt/clib3r.lib(fputc.c)
004351d0       fputc_
Module: /mnt/sda5/.user/root/src/openwatcom-1.9/rel2/lib386/nt/clib3r.lib(ioalloc.c)
004352b0       __ioalloc_
Module: /mnt/sda5/.user/root/src/openwatcom-1.9/rel2/lib386/nt/clib3r.lib(strupr.c)
00435350       strupr_
Module: /mnt/sda5/.user/root/src/openwatcom-1.9/rel2/lib386/nt/clib3r.lib(lltoa.c)
00435370       ulltoa_
004353e0*      lltoa_
Module: /mnt/sda5/.user/root/src/openwatcom-1.9/rel2/lib386/nt/clib3r.lib(ltoa.c)
00435410       ultoa_
00435460*      ltoa_
Module: /mnt/sda5/.user/root/src/openwatcom-1.9/rel2/lib386/nt/clib3r.lib(rtcntrl.c)
00435490*      _SetLD64bit_
004354a0*      _SetLD80bit_
004354b0       _LDisDouble_
Module: /mnt/sda5/.user/root/src/openwatcom-1.9/rel2/lib386/nt/clib3r.lib(locmktim.c)
004354c0       __local_mktime_
Module: /mnt/sda5/.user/root/src/openwatcom-1.9/rel2/lib386/nt/clib3r.lib(gmtime.c)
00435640       __brktime_
00435740+      _gmtime_
00435760*      gmtime_
Module: /mnt/sda5/.user/root/src/openwatcom-1.9/rel2/lib386/nt/clib3r.lib(tzset.c)
0043aa24       ___start_dst
0043aa48       ___end_dst
0043ab70*      _tzname
0043ab78       _timezone
0043ab7c       _daylight
0043ab80       ___dst_adjust
004357d0*      __DontCacheOSTZ_
004357e0*      __CacheOSTZ_
00435cc0+      __parse_tz_
004360b0       tzset_
Module: /mnt/sda5/.user/root/src/openwatcom-1.9/rel2/lib386/nt/clib3r.lib(timeutil.c)
00436220       __isindst_
Module: /mnt/sda5/.user/root/src/openwatcom-1.9/rel2/lib386/nt/clib3r.lib(leapyear.c)
00436550       __leapyear_
00439060       ___diyr
0043907a       ___dilyr


                        +----------------------+
                        |   Imported Symbols   |
                        +----------------------+

Symbol                              Module
======                              ======

_MessageBeep@4                      USER32.DLL
_LoadLibraryA@4                     KERNEL32.DLL
_GetProcAddress@8                   KERNEL32.DLL
_FreeLibrary@4                      KERNEL32.DLL
_GetDlgItem@8                       USER32.DLL
_SendMessageA@16                    USER32.DLL
_SetDlgItemTextA@12                 USER32.DLL
_GetWindowTextLengthA@4             USER32.DLL
_GetWindowTextA@12                  USER32.DLL
_SetFocus@4                         USER32.DLL
_GetFocus@0                         USER32.DLL
_GetParent@4                        USER32.DLL
_GetDlgCtrlID@4                     USER32.DLL
_GetClientRect@8                    USER32.DLL
_MapWindowPoints@16                 USER32.DLL
_WindowFromPoint@8                  USER32.DLL
_GetNearestColor@8                  GDI32.DLL
_SetBkColor@8                       GDI32.DLL
_EndDialog@8                        USER32.DLL
_IsIconic@4                         USER32.DLL
_GetSystemMetrics@4                 USER32.DLL
_GlobalFree@4                       KERNEL32.DLL
_GetDC@4                            USER32.DLL
_SelectObject@8                     GDI32.DLL
_GetTextMetricsA@8                  GDI32.DLL
_ReleaseDC@8                        USER32.DLL
_DestroyWindow@4                    USER32.DLL
_LoadIconA@8                        USER32.DLL
_LoadCursorA@8                      USER32.DLL
_RegisterClassA@4                   USER32.DLL
_PostQuitMessage@4                  USER32.DLL
_ShowWindow@8                       USER32.DLL
_UpdateWindow@4                     USER32.DLL
_SetDoubleClickTime@4               USER32.DLL
_CreateWindowExA@48                 USER32.DLL
_SetWindowLongA@12                  USER32.DLL
_ClientToScreen@8                   USER32.DLL
_GetWindowRect@8                    USER32.DLL
_MoveWindow@24                      USER32.DLL
_IsWindow@4                         USER32.DLL
_SetActiveWindow@4                  USER32.DLL
_GetWindow@8                        USER32.DLL
_DefWindowProcA@16                  USER32.DLL
_SetCapture@4                       USER32.DLL
_FillRect@12                        USER32.DLL
_SetClassLongA@12                   USER32.DLL
_ReleaseCapture@0                   USER32.DLL
_SetTimer@16                        USER32.DLL
_KillTimer@8                        USER32.DLL
_GetVersion@0                       KERNEL32.DLL
_CreateSolidBrush@4                 GDI32.DLL
_FrameRect@12                       USER32.DLL
_DeleteObject@4                     GDI32.DLL
_CreatePen@12                       GDI32.DLL
_MoveToEx@16                        GDI32.DLL
_LineTo@12                          GDI32.DLL
_SetWindowTextA@8                   USER32.DLL
_GetMenuItemCount@4                 USER32.DLL
_GetSubMenu@8                       USER32.DLL
_DestroyMenu@4                      USER32.DLL
_GetSystemMenu@8                    USER32.DLL
_GetMenu@4                          USER32.DLL
_DrawMenuBar@4                      USER32.DLL
_CreatePopupMenu@0                  USER32.DLL
_CreateMenu@0                       USER32.DLL
_DeleteMenu@12                      USER32.DLL
_CheckMenuItem@12                   USER32.DLL
_EnableMenuItem@12                  USER32.DLL
_ModifyMenuA@20                     USER32.DLL
_ShowOwnedPopups@8                  USER32.DLL
_DestroyIcon@4                      USER32.DLL
_GetCursorPos@4                     USER32.DLL
_SetWindowPos@28                    USER32.DLL
_IsWindowVisible@4                  USER32.DLL
_IsZoomed@4                         USER32.DLL
_GetCPInfo@8                        KERNEL32.DLL
_InvalidateRect@12                  USER32.DLL
_MessageBoxA@16                     USER32.DLL
_SetCursor@4                        USER32.DLL
_PeekMessageA@20                    USER32.DLL
_RtlUnwind@16                       KERNEL32.DLL
_IntersectRect@12                   USER32.DLL
_IsRectEmpty@4                      USER32.DLL
_LoadMenuA@8                        USER32.DLL
_IsChild@8                          USER32.DLL
_GetCapture@0                       USER32.DLL
_SetScrollPos@16                    USER32.DLL
_SetScrollRange@20                  USER32.DLL
_GetWindowLongA@8                   USER32.DLL
_GetStockObject@4                   GDI32.DLL
_GetDeviceCaps@8                    GDI32.DLL
_SendDlgItemMessageA@20             USER32.DLL
_GetSaveFileNameA@4                 COMDLG32.DLL
_GetOpenFileNameA@4                 COMDLG32.DLL
_CommDlgExtendedError@0             COMDLG32.DLL
_CallWindowProcA@20                 USER32.DLL
_GetUpdateRect@12                   USER32.DLL
_lstrcmpiA@8                        KERNEL32.DLL
_GetClassNameA@12                   USER32.DLL
_EnumChildWindows@12                USER32.DLL
_DialogBoxParamA@20                 USER32.DLL
_GetSysColor@4                      USER32.DLL
_ChooseColorA@4                     COMDLG32.DLL
_GetKeyState@4                      USER32.DLL
_PostMessageA@16                    USER32.DLL
_BeginPaint@8                       USER32.DLL
_EndPaint@8                         USER32.DLL
_MultiByteToWideChar@24             KERNEL32.DLL
_GlobalAlloc@8                      KERNEL32.DLL
_GlobalLock@4                       KERNEL32.DLL
_GlobalUnlock@4                     KERNEL32.DLL
_GlobalReAlloc@12                   KERNEL32.DLL
_DialogBoxIndirectParamA@20         USER32.DLL
_LoadStringA@16                     USER32.DLL
_GetMessageA@16                     USER32.DLL
_TranslateMessage@4                 USER32.DLL
_DispatchMessageA@4                 USER32.DLL
_GetObjectA@12                      GDI32.DLL
_SetTextColor@8                     GDI32.DLL
_InsertMenuA@20                     USER32.DLL
_AppendMenuA@16                     USER32.DLL
_GetMenuState@12                    USER32.DLL
_GetMenuStringA@20                  USER32.DLL
_SetMenu@8                          USER32.DLL
_CreateCompatibleDC@4               GDI32.DLL
_GetCurrentPositionEx@8             GDI32.DLL
_GetTextExtentPointA@16             GDI32.DLL
_GetWindowPlacement@8               USER32.DLL
_CopyRect@8                         USER32.DLL
_SetWindowPlacement@8               USER32.DLL
_LoadBitmapA@8                      USER32.DLL
_ChooseFontA@4                      COMDLG32.DLL
_CreateFontIndirectA@4              GDI32.DLL
_SystemParametersInfoA@16           USER32.DLL
_BringWindowToTop@4                 USER32.DLL
_GetModuleHandleA@4                 KERNEL32.DLL
_GetVersionExA@4                    KERNEL32.DLL
_GetClassInfoA@12                   USER32.DLL
_CreatePatternBrush@4               GDI32.DLL
_SetPropA@12                        USER32.DLL
_DPtoLP@12                          GDI32.DLL
_SetStretchBltMode@8                GDI32.DLL
_StretchBlt@44                      GDI32.DLL
_DeleteDC@4                         GDI32.DLL
_CreateCompatibleBitmap@12          GDI32.DLL
_GetPixel@12                        GDI32.DLL
_BitBlt@36                          GDI32.DLL
_PtInRect@12                        USER32.DLL
_GetPropA@8                         USER32.DLL
_GetMessagePos@0                    USER32.DLL
_ScreenToClient@8                   USER32.DLL
_GetBkColor@4                       GDI32.DLL
_WinHelpA@16                        USER32.DLL
_ScrollWindow@20                    USER32.DLL
_TrackPopupMenu@28                  USER32.DLL
_InflateRect@12                     USER32.DLL
_UnrealizeObject@4                  GDI32.DLL
_DrawTextA@20                       USER32.DLL
_UnregisterClassA@8                 USER32.DLL
_GetCurrentDirectoryA@8             KERNEL32.DLL
_SetCurrentDirectoryA@4             KERNEL32.DLL
_wsprintfA                          USER32.DLL
_Rectangle@20                       GDI32.DLL
_SetROP2@8                          GDI32.DLL
_TextOutA@20                        GDI32.DLL
_GetCurrentThreadId@0               KERNEL32.DLL
_GetEnvironmentStringsA@0           KERNEL32.DLL
_GetModuleFileNameA@12              KERNEL32.DLL
_GetCommandLineA@0                  KERNEL32.DLL
_GetCommandLineW@0                  KERNEL32.DLL
_FreeEnvironmentStringsA@4          KERNEL32.DLL
_ExitProcess@4                      KERNEL32.DLL
_VirtualQuery@12                    KERNEL32.DLL
_SetStdHandle@8                     KERNEL32.DLL
_CreateEventA@16                    KERNEL32.DLL
_GetStdHandle@4                     KERNEL32.DLL
_CloseHandle@4                      KERNEL32.DLL
_GetModuleFileNameW@12              KERNEL32.DLL
_WriteFile@20                       KERNEL32.DLL
_SetUnhandledExceptionFilter@4      KERNEL32.DLL
_UnhandledExceptionFilter@4         KERNEL32.DLL
_GetACP@0                           KERNEL32.DLL
_GetOEMCP@0                         KERNEL32.DLL
_CreateFileA@28                     KERNEL32.DLL
_SetConsoleCtrlHandler@8            KERNEL32.DLL
_GetFileType@4                      KERNEL32.DLL
_SetEnvironmentVariableA@8          KERNEL32.DLL
_SetEnvironmentVariableW@8          KERNEL32.DLL
_WideCharToMultiByte@32             KERNEL32.DLL
_ReadFile@20                        KERNEL32.DLL
_GetLastError@0                     KERNEL32.DLL
_SetFilePointer@16                  KERNEL32.DLL
_GetDriveTypeA@4                    KERNEL32.DLL
_FindFirstFileA@8                   KERNEL32.DLL
_FindClose@4                        KERNEL32.DLL
_GetFileInformationByHandle@8       KERNEL32.DLL
_GetFileTime@16                     KERNEL32.DLL
_GetFileSize@8                      KERNEL32.DLL
_VirtualAlloc@16                    KERNEL32.DLL
_DeleteFileA@4                      KERNEL32.DLL
_GetFullPathNameA@16                KERNEL32.DLL
_FileTimeToLocalFileTime@8          KERNEL32.DLL
_FileTimeToDosDateTime@12           KERNEL32.DLL
_DosDateTimeToFileTime@12           KERNEL32.DLL
_LocalFileTimeToFileTime@8          KERNEL32.DLL
_FindNextFileA@8                    KERNEL32.DLL
_GetFileAttributesA@4               KERNEL32.DLL
_CharUpperA@4                       USER32.DLL
_VirtualFree@12                     KERNEL32.DLL
_FlushFileBuffers@4                 KERNEL32.DLL
_GetTimeZoneInformation@4           KERNEL32.DLL


                        +--------------------+
                        |   Libraries Used   |
                        +--------------------+

/mnt/sda5/.user/root/src/openwatcom-1.9/rel2/lib386/nt/kernel32.lib
/mnt/sda5/.user/root/src/openwatcom-1.9/rel2/lib386/nt/user32.lib
/mnt/sda5/.user/root/src/openwatcom-1.9/rel2/lib386/nt/gdi32.lib
/mnt/sda5/.user/root/src/openwatcom-1.9/rel2/lib386/nt/comdlg32.lib
/mnt/sda5/.user/root/src/openwatcom-1.9/bld/aui/nt386/aui.lib
/mnt/sda5/.user/root/src/openwatcom-1.9/bld/gui/win/nt386/gui.lib
/mnt/sda5/.user/root/src/openwatcom-1.9/rel2/lib386/math387r.lib
/mnt/sda5/.user/root/src/openwatcom-1.9/rel2/lib386/nt/emu387.lib
/mnt/sda5/.user/root/src/openwatcom-1.9/rel2/lib386/nt/clib3r.lib


                        +-----------------------+
                        |   Linker Statistics   |
                        +-----------------------+

Stack size:  00019000 (102400.)
Memory size:  00054868 (346216.)
Entry point address: 0042b3d0
Link time: 00:00.00
