Open Watcom Linker Version 1.9
Portions Copyright (c) 1985-2002 Sybase, Inc. All Rights Reserved.
Created on:       12/12/16 02:22:39
Executable Image: clbr19d.dll
creating an OS/2 32-bit dynamic link library


                        +------------+
                        |   Groups   |
                        +------------+

Group                           Address              Size
=====                           =======              ====

DGROUP                          0003:00000000        000020a0



                        +--------------+
                        |   Segments   |
                        +--------------+

Segment                Class          Group          Address         Size
=======                =====          =====          =======         ====

_TEXT16                CODE           AUTO           0001:00000000   000000b6
BEGTEXT                CODE           AUTO           0002:00000000   00000007
_TEXT                  CODE           AUTO           0002:00000010   00046c0e
CODE32                 CODE           AUTO           0002:00046c20   00000575
_NULL                  BEGDATA        DGROUP         0003:00000000   00000004
_AFTERNULL             BEGDATA        DGROUP         0003:00000004   00000000
CONST                  DATA           DGROUP         0003:00000004   00000064
CONST2                 DATA           DGROUP         0003:00000068   00000000
_DATA                  DATA           DGROUP         0003:00000070   00000c18
XIB                    DATA           DGROUP         0003:00000c88   00000000
XI                     DATA           DGROUP         0003:00000c88   00000066
XIE                    DATA           DGROUP         0003:00000cee   00000000
YIB                    DATA           DGROUP         0003:00000cee   00000000
YI                     DATA           DGROUP         0003:00000cee   0000002a
YIE                    DATA           DGROUP         0003:00000d18   00000000
DATA32                 DATA           DGROUP         0003:00000d18   0000030e
TIB                    DATA           DGROUP         0003:00001026   00000000
TI                     DATA           DGROUP         0003:00001026   00000000
TIE                    DATA           DGROUP         0003:00001026   00000000
DATA                   DATA           DGROUP         0003:00001026   00000000
CONST32                CONST          DGROUP         0003:00001028   00000000
_BSS                   BSS            DGROUP         0003:00001030   0000106a
BSS32                  BSS            DGROUP         0003:0000209c   00000000
stack                  STACK          DGROUP         0003:000020a0   00000000


                        +----------------+
                        |   Memory Map   |
                        +----------------+

* = unreferenced symbol
+ = symbol only referenced locally

Address        Symbol
=======        ======

Module: /mnt/sda5/.user/root/src/openwatcom-1.9/bld/clib/startup/library/os2.386/mf_rd/clibdo32.obj(/mnt/sda5/.user/root/src/openwatcom-1.9/bld/clib/startup/c/clibdo32.c)
0002:00000010  __dll_initialize_
0002:00000040  __dll_terminate_
Module: /mnt/sda5/.user/root/src/openwatcom-1.9/bld/clib/library/os2.386/mf_rd/clib3r.lib(dstrt386)
0002:00000062  __DLLstart_
0002:00000062* __DLLstartw_
Module: /mnt/sda5/.user/root/src/openwatcom-1.9/bld/clib/library/os2.386/mf_rd/clib3r.lib(/mnt/sda5/.user/root/src/openwatcom-1.9/bld/clib/alias/a/_iaccess.asm)
0002:000000c0  _access_
Module: /mnt/sda5/.user/root/src/openwatcom-1.9/bld/clib/library/os2.386/mf_rd/clib3r.lib(/mnt/sda5/.user/root/src/openwatcom-1.9/bld/clib/alias/a/_iatoi64.asm)
0002:000000c8  _atoi64_
Module: /mnt/sda5/.user/root/src/openwatcom-1.9/bld/clib/library/os2.386/mf_rd/clib3r.lib(/mnt/sda5/.user/root/src/openwatcom-1.9/bld/clib/alias/a/_iclose_.asm)
0002:000000d0  _close_
Module: /mnt/sda5/.user/root/src/openwatcom-1.9/bld/clib/library/os2.386/mf_rd/clib3r.lib(/mnt/sda5/.user/root/src/openwatcom-1.9/bld/clib/alias/a/_ichdir_.asm)
0002:000000d8  _chdir_
Module: /mnt/sda5/.user/root/src/openwatcom-1.9/bld/clib/library/os2.386/mf_rd/clib3r.lib(/mnt/sda5/.user/root/src/openwatcom-1.9/bld/clib/alias/a/_ichmod_.asm)
0002:000000e0  _chmod_
Module: /mnt/sda5/.user/root/src/openwatcom-1.9/bld/clib/library/os2.386/mf_rd/clib3r.lib(/mnt/sda5/.user/root/src/openwatcom-1.9/bld/clib/alias/a/_ichsize.asm)
0002:000000e8  _chsize_
Module: /mnt/sda5/.user/root/src/openwatcom-1.9/bld/clib/library/os2.386/mf_rd/clib3r.lib(/mnt/sda5/.user/root/src/openwatcom-1.9/bld/clib/alias/a/_icreat_.asm)
0002:000000f0  _creat_
Module: /mnt/sda5/.user/root/src/openwatcom-1.9/bld/clib/library/os2.386/mf_rd/clib3r.lib(/mnt/sda5/.user/root/src/openwatcom-1.9/bld/clib/alias/a/_icwait_.asm)
0002:000000f8  _cwait_
Module: /mnt/sda5/.user/root/src/openwatcom-1.9/bld/clib/library/os2.386/mf_rd/clib3r.lib(/mnt/sda5/.user/root/src/openwatcom-1.9/bld/clib/alias/a/_idup___.asm)
0002:00000100  _dup_
Module: /mnt/sda5/.user/root/src/openwatcom-1.9/bld/clib/library/os2.386/mf_rd/clib3r.lib(/mnt/sda5/.user/root/src/openwatcom-1.9/bld/clib/alias/a/_idup2__.asm)
0002:00000108  _dup2_
Module: /mnt/sda5/.user/root/src/openwatcom-1.9/bld/clib/library/os2.386/mf_rd/clib3r.lib(/mnt/sda5/.user/root/src/openwatcom-1.9/bld/clib/alias/a/_ieof___.asm)
0002:00000110  _eof_
Module: /mnt/sda5/.user/root/src/openwatcom-1.9/bld/clib/library/os2.386/mf_rd/clib3r.lib(/mnt/sda5/.user/root/src/openwatcom-1.9/bld/clib/alias/a/_ifdopen.asm)
0002:00000118  _fdopen_
Module: /mnt/sda5/.user/root/src/openwatcom-1.9/bld/clib/library/os2.386/mf_rd/clib3r.lib(/mnt/sda5/.user/root/src/openwatcom-1.9/bld/clib/alias/a/_ifgetch.asm)
0002:00000120  _fgetchar_
Module: /mnt/sda5/.user/root/src/openwatcom-1.9/bld/clib/library/os2.386/mf_rd/clib3r.lib(/mnt/sda5/.user/root/src/openwatcom-1.9/bld/clib/alias/a/_ifgetwc.asm)
0002:00000128  _fgetwchar_
Module: /mnt/sda5/.user/root/src/openwatcom-1.9/bld/clib/library/os2.386/mf_rd/clib3r.lib(/mnt/sda5/.user/root/src/openwatcom-1.9/bld/clib/alias/a/_iflelen.asm)
0002:00000130  _filelength_
Module: /mnt/sda5/.user/root/src/openwatcom-1.9/bld/clib/library/os2.386/mf_rd/clib3r.lib(/mnt/sda5/.user/root/src/openwatcom-1.9/bld/clib/alias/a/_ifileno.asm)
0002:00000138  _fileno_
Module: /mnt/sda5/.user/root/src/openwatcom-1.9/bld/clib/library/os2.386/mf_rd/clib3r.lib(/mnt/sda5/.user/root/src/openwatcom-1.9/bld/clib/alias/a/_ifputch.asm)
0002:00000140  _fputchar_
Module: /mnt/sda5/.user/root/src/openwatcom-1.9/bld/clib/library/os2.386/mf_rd/clib3r.lib(/mnt/sda5/.user/root/src/openwatcom-1.9/bld/clib/alias/a/_ifputwc.asm)
0002:00000148  _fputwchar_
Module: /mnt/sda5/.user/root/src/openwatcom-1.9/bld/clib/library/os2.386/mf_rd/clib3r.lib(/mnt/sda5/.user/root/src/openwatcom-1.9/bld/clib/alias/a/_ifstat_.asm)
0002:00000150  _fstat_
Module: /mnt/sda5/.user/root/src/openwatcom-1.9/bld/clib/library/os2.386/mf_rd/clib3r.lib(/mnt/sda5/.user/root/src/openwatcom-1.9/bld/clib/alias/a/_iftime_.asm)
0002:00000158  _ftime_
Module: /mnt/sda5/.user/root/src/openwatcom-1.9/bld/clib/library/os2.386/mf_rd/clib3r.lib(/mnt/sda5/.user/root/src/openwatcom-1.9/bld/clib/alias/a/_igetch_.asm)
0002:00000160  _getch_
Module: /mnt/sda5/.user/root/src/openwatcom-1.9/bld/clib/library/os2.386/mf_rd/clib3r.lib(/mnt/sda5/.user/root/src/openwatcom-1.9/bld/clib/alias/a/_igetche.asm)
0002:00000168  _getche_
Module: /mnt/sda5/.user/root/src/openwatcom-1.9/bld/clib/library/os2.386/mf_rd/clib3r.lib(/mnt/sda5/.user/root/src/openwatcom-1.9/bld/clib/alias/a/_igetcwd.asm)
0002:00000170  _getcwd_
Module: /mnt/sda5/.user/root/src/openwatcom-1.9/bld/clib/library/os2.386/mf_rd/clib3r.lib(/mnt/sda5/.user/root/src/openwatcom-1.9/bld/clib/alias/a/_igetws_.asm)
0002:00000178  _getws_
Module: /mnt/sda5/.user/root/src/openwatcom-1.9/bld/clib/library/os2.386/mf_rd/clib3r.lib(/mnt/sda5/.user/root/src/openwatcom-1.9/bld/clib/alias/a/_idopen_.asm)
0002:00000180  _dopen_
Module: /mnt/sda5/.user/root/src/openwatcom-1.9/bld/clib/library/os2.386/mf_rd/clib3r.lib(/mnt/sda5/.user/root/src/openwatcom-1.9/bld/clib/alias/a/_iisatty.asm)
0002:00000188  _isatty_
Module: /mnt/sda5/.user/root/src/openwatcom-1.9/bld/clib/library/os2.386/mf_rd/clib3r.lib(/mnt/sda5/.user/root/src/openwatcom-1.9/bld/clib/alias/a/_i_isasc.asm)
0002:00000190  __isascii_
Module: /mnt/sda5/.user/root/src/openwatcom-1.9/bld/clib/library/os2.386/mf_rd/clib3r.lib(/mnt/sda5/.user/root/src/openwatcom-1.9/bld/clib/alias/a/_iiscsym.asm)
0002:00000198  iscsym_
Module: /mnt/sda5/.user/root/src/openwatcom-1.9/bld/clib/library/os2.386/mf_rd/clib3r.lib(/mnt/sda5/.user/root/src/openwatcom-1.9/bld/clib/alias/a/_iiscsyf.asm)
0002:000001a0  iscsymf_
Module: /mnt/sda5/.user/root/src/openwatcom-1.9/bld/clib/library/os2.386/mf_rd/clib3r.lib(/mnt/sda5/.user/root/src/openwatcom-1.9/bld/clib/alias/a/_iismbbk.asm)
0002:000001a8  _ismbbkalnum_
Module: /mnt/sda5/.user/root/src/openwatcom-1.9/bld/clib/library/os2.386/mf_rd/clib3r.lib(/mnt/sda5/.user/root/src/openwatcom-1.9/bld/clib/alias/a/_iislead.asm)
0002:000001b0  isleadbyte_
Module: /mnt/sda5/.user/root/src/openwatcom-1.9/bld/clib/library/os2.386/mf_rd/clib3r.lib(/mnt/sda5/.user/root/src/openwatcom-1.9/bld/clib/alias/a/_iitoa__.asm)
0002:000001b8  _itoa_
Module: /mnt/sda5/.user/root/src/openwatcom-1.9/bld/clib/library/os2.386/mf_rd/clib3r.lib(/mnt/sda5/.user/root/src/openwatcom-1.9/bld/clib/alias/a/_iutoa__.asm)
0002:000001c0  _utoa_
Module: /mnt/sda5/.user/root/src/openwatcom-1.9/bld/clib/library/os2.386/mf_rd/clib3r.lib(/mnt/sda5/.user/root/src/openwatcom-1.9/bld/clib/alias/a/_ikbhit_.asm)
0002:000001c8  _kbhit_
Module: /mnt/sda5/.user/root/src/openwatcom-1.9/bld/clib/library/os2.386/mf_rd/clib3r.lib(/mnt/sda5/.user/root/src/openwatcom-1.9/bld/clib/alias/a/_ilockin.asm)
0002:000001d0  _locking_
Module: /mnt/sda5/.user/root/src/openwatcom-1.9/bld/clib/library/os2.386/mf_rd/clib3r.lib(/mnt/sda5/.user/root/src/openwatcom-1.9/bld/clib/alias/a/_ilseek_.asm)
0002:000001d8  _lseek_
Module: /mnt/sda5/.user/root/src/openwatcom-1.9/bld/clib/library/os2.386/mf_rd/clib3r.lib(/mnt/sda5/.user/root/src/openwatcom-1.9/bld/clib/alias/a/_iltoa__.asm)
0002:000001e0  _ltoa_
Module: /mnt/sda5/.user/root/src/openwatcom-1.9/bld/clib/library/os2.386/mf_rd/clib3r.lib(/mnt/sda5/.user/root/src/openwatcom-1.9/bld/clib/alias/a/_ii64toa.asm)
0002:000001e8  _i64toa_
Module: /mnt/sda5/.user/root/src/openwatcom-1.9/bld/clib/library/os2.386/mf_rd/clib3r.lib(/mnt/sda5/.user/root/src/openwatcom-1.9/bld/clib/alias/a/_illtoa_.asm)
0002:000001f0  _lltoa_
Module: /mnt/sda5/.user/root/src/openwatcom-1.9/bld/clib/library/os2.386/mf_rd/clib3r.lib(/mnt/sda5/.user/root/src/openwatcom-1.9/bld/clib/alias/a/_iultoa_.asm)
0002:000001f8  _ultoa_
Module: /mnt/sda5/.user/root/src/openwatcom-1.9/bld/clib/library/os2.386/mf_rd/clib3r.lib(/mnt/sda5/.user/root/src/openwatcom-1.9/bld/clib/alias/a/_iulltoa.asm)
0002:00000200  _ulltoa_
Module: /mnt/sda5/.user/root/src/openwatcom-1.9/bld/clib/library/os2.386/mf_rd/clib3r.lib(/mnt/sda5/.user/root/src/openwatcom-1.9/bld/clib/alias/a/_iu64toa.asm)
0002:00000208  _ui64toa_
Module: /mnt/sda5/.user/root/src/openwatcom-1.9/bld/clib/library/os2.386/mf_rd/clib3r.lib(/mnt/sda5/.user/root/src/openwatcom-1.9/bld/clib/alias/a/_istti64.asm)
0002:00000210  _strtoi64_
Module: /mnt/sda5/.user/root/src/openwatcom-1.9/bld/clib/library/os2.386/mf_rd/clib3r.lib(/mnt/sda5/.user/root/src/openwatcom-1.9/bld/clib/alias/a/_isttu64.asm)
0002:00000218  _strtoui64_
Module: /mnt/sda5/.user/root/src/openwatcom-1.9/bld/clib/library/os2.386/mf_rd/clib3r.lib(/mnt/sda5/.user/root/src/openwatcom-1.9/bld/clib/alias/a/_itccmp_.asm)
0002:00000220  _tccmp_
Module: /mnt/sda5/.user/root/src/openwatcom-1.9/bld/clib/library/os2.386/mf_rd/clib3r.lib(/mnt/sda5/.user/root/src/openwatcom-1.9/bld/clib/alias/a/_itccpy_.asm)
0002:00000228  _tccpy_
Module: /mnt/sda5/.user/root/src/openwatcom-1.9/bld/clib/library/os2.386/mf_rd/clib3r.lib(/mnt/sda5/.user/root/src/openwatcom-1.9/bld/clib/alias/a/_itclen_.asm)
0002:00000230  _tclen_
Module: /mnt/sda5/.user/root/src/openwatcom-1.9/bld/clib/library/os2.386/mf_rd/clib3r.lib(/mnt/sda5/.user/root/src/openwatcom-1.9/bld/clib/alias/a/_itcschr.asm)
0002:00000238  _tcschr_
Module: /mnt/sda5/.user/root/src/openwatcom-1.9/bld/clib/library/os2.386/mf_rd/clib3r.lib(/mnt/sda5/.user/root/src/openwatcom-1.9/bld/clib/alias/a/_imbscol.asm)
0002:00000240  _mbscoll_
Module: /mnt/sda5/.user/root/src/openwatcom-1.9/bld/clib/library/os2.386/mf_rd/clib3r.lib(/mnt/sda5/.user/root/src/openwatcom-1.9/bld/clib/alias/a/_itcscmp.asm)
0002:00000248  _tcscmp_
Module: /mnt/sda5/.user/root/src/openwatcom-1.9/bld/clib/library/os2.386/mf_rd/clib3r.lib(/mnt/sda5/.user/root/src/openwatcom-1.9/bld/clib/alias/a/_itcscol.asm)
0002:00000250  _tcscoll_
Module: /mnt/sda5/.user/root/src/openwatcom-1.9/bld/clib/library/os2.386/mf_rd/clib3r.lib(/mnt/sda5/.user/root/src/openwatcom-1.9/bld/clib/alias/a/_itcscsp.asm)
0002:00000258  _tcscspn_
Module: /mnt/sda5/.user/root/src/openwatcom-1.9/bld/clib/library/os2.386/mf_rd/clib3r.lib(/mnt/sda5/.user/root/src/openwatcom-1.9/bld/clib/alias/a/_itcsdec.asm)
0002:00000260  _tcsdec_
Module: /mnt/sda5/.user/root/src/openwatcom-1.9/bld/clib/library/os2.386/mf_rd/clib3r.lib(/mnt/sda5/.user/root/src/openwatcom-1.9/bld/clib/alias/a/_imbsico.asm)
0002:00000268  _mbsicoll_
Module: /mnt/sda5/.user/root/src/openwatcom-1.9/bld/clib/library/os2.386/mf_rd/clib3r.lib(/mnt/sda5/.user/root/src/openwatcom-1.9/bld/clib/alias/a/_itcsicm.asm)
0002:00000270  _tcsicmp_
Module: /mnt/sda5/.user/root/src/openwatcom-1.9/bld/clib/library/os2.386/mf_rd/clib3r.lib(/mnt/sda5/.user/root/src/openwatcom-1.9/bld/clib/alias/a/_itcsico.asm)
0002:00000278  _tcsicoll_
Module: /mnt/sda5/.user/root/src/openwatcom-1.9/bld/clib/library/os2.386/mf_rd/clib3r.lib(/mnt/sda5/.user/root/src/openwatcom-1.9/bld/clib/alias/a/_itcsinc.asm)
0002:00000280  _tcsinc_
Module: /mnt/sda5/.user/root/src/openwatcom-1.9/bld/clib/library/os2.386/mf_rd/clib3r.lib(/mnt/sda5/.user/root/src/openwatcom-1.9/bld/clib/alias/a/_itcscle.asm)
0002:00000288  _tcsclen_
Module: /mnt/sda5/.user/root/src/openwatcom-1.9/bld/clib/library/os2.386/mf_rd/clib3r.lib(/mnt/sda5/.user/root/src/openwatcom-1.9/bld/clib/alias/a/_itcslwr.asm)
0002:00000290  _tcslwr_
Module: /mnt/sda5/.user/root/src/openwatcom-1.9/bld/clib/library/os2.386/mf_rd/clib3r.lib(/mnt/sda5/.user/root/src/openwatcom-1.9/bld/clib/alias/a/_itcsnbc.asm)
0002:00000298  _tcsnbcnt_
Module: /mnt/sda5/.user/root/src/openwatcom-1.9/bld/clib/library/os2.386/mf_rd/clib3r.lib(/mnt/sda5/.user/root/src/openwatcom-1.9/bld/clib/alias/a/_itcsnca.asm)
0002:000002a0  _tcsncat_
Module: /mnt/sda5/.user/root/src/openwatcom-1.9/bld/clib/library/os2.386/mf_rd/clib3r.lib(/mnt/sda5/.user/root/src/openwatcom-1.9/bld/clib/alias/a/_imbsnbc.asm)
0002:000002a8  _mbsnbcoll_
Module: /mnt/sda5/.user/root/src/openwatcom-1.9/bld/clib/library/os2.386/mf_rd/clib3r.lib(/mnt/sda5/.user/root/src/openwatcom-1.9/bld/clib/alias/a/_itcsncm.asm)
0002:000002b0  _tcsncmp_
Module: /mnt/sda5/.user/root/src/openwatcom-1.9/bld/clib/library/os2.386/mf_rd/clib3r.lib(/mnt/sda5/.user/root/src/openwatcom-1.9/bld/clib/alias/a/_itcsnco.asm)
0002:000002b8  _tcsncoll_
Module: /mnt/sda5/.user/root/src/openwatcom-1.9/bld/clib/library/os2.386/mf_rd/clib3r.lib(/mnt/sda5/.user/root/src/openwatcom-1.9/bld/clib/alias/a/_itcsncp.asm)
0002:000002c0  _tcsncpy_
Module: /mnt/sda5/.user/root/src/openwatcom-1.9/bld/clib/library/os2.386/mf_rd/clib3r.lib(/mnt/sda5/.user/root/src/openwatcom-1.9/bld/clib/alias/a/_itcsncc.asm)
0002:000002c8  _tcsnccat_
Module: /mnt/sda5/.user/root/src/openwatcom-1.9/bld/clib/library/os2.386/mf_rd/clib3r.lib(/mnt/sda5/.user/root/src/openwatcom-1.9/bld/clib/alias/a/_itcnccm.asm)
0002:000002d0  _tcsnccmp_
Module: /mnt/sda5/.user/root/src/openwatcom-1.9/bld/clib/library/os2.386/mf_rd/clib3r.lib(/mnt/sda5/.user/root/src/openwatcom-1.9/bld/clib/alias/a/_itcnccn.asm)
0002:000002d8  _tcsnccnt_
Module: /mnt/sda5/.user/root/src/openwatcom-1.9/bld/clib/library/os2.386/mf_rd/clib3r.lib(/mnt/sda5/.user/root/src/openwatcom-1.9/bld/clib/alias/a/_imbsnco.asm)
0002:000002e0  _mbsncoll_
Module: /mnt/sda5/.user/root/src/openwatcom-1.9/bld/clib/library/os2.386/mf_rd/clib3r.lib(/mnt/sda5/.user/root/src/openwatcom-1.9/bld/clib/alias/a/_itcncco.asm)
0002:000002e8  _tcsnccoll_
Module: /mnt/sda5/.user/root/src/openwatcom-1.9/bld/clib/library/os2.386/mf_rd/clib3r.lib(/mnt/sda5/.user/root/src/openwatcom-1.9/bld/clib/alias/a/_itcnccp.asm)
0002:000002f0  _tcsnccpy_
Module: /mnt/sda5/.user/root/src/openwatcom-1.9/bld/clib/library/os2.386/mf_rd/clib3r.lib(/mnt/sda5/.user/root/src/openwatcom-1.9/bld/clib/alias/a/_imbsnic.asm)
0002:000002f8  _mbsnicoll_
Module: /mnt/sda5/.user/root/src/openwatcom-1.9/bld/clib/library/os2.386/mf_rd/clib3r.lib(/mnt/sda5/.user/root/src/openwatcom-1.9/bld/clib/alias/a/_itcsnci.asm)
0002:00000300  _tcsncicmp_
Module: /mnt/sda5/.user/root/src/openwatcom-1.9/bld/clib/library/os2.386/mf_rd/clib3r.lib(/mnt/sda5/.user/root/src/openwatcom-1.9/bld/clib/alias/a/_itcncic.asm)
0002:00000308  _tcsncicoll_
Module: /mnt/sda5/.user/root/src/openwatcom-1.9/bld/clib/library/os2.386/mf_rd/clib3r.lib(/mnt/sda5/.user/root/src/openwatcom-1.9/bld/clib/alias/a/_itcsncs.asm)
0002:00000310  _tcsncset_
Module: /mnt/sda5/.user/root/src/openwatcom-1.9/bld/clib/library/os2.386/mf_rd/clib3r.lib(/mnt/sda5/.user/root/src/openwatcom-1.9/bld/clib/alias/a/_itcsnex.asm)
0002:00000318  _tcsnextc_
Module: /mnt/sda5/.user/root/src/openwatcom-1.9/bld/clib/library/os2.386/mf_rd/clib3r.lib(/mnt/sda5/.user/root/src/openwatcom-1.9/bld/clib/alias/a/_imbsnbi.asm)
0002:00000320  _mbsnbicoll_
Module: /mnt/sda5/.user/root/src/openwatcom-1.9/bld/clib/library/os2.386/mf_rd/clib3r.lib(/mnt/sda5/.user/root/src/openwatcom-1.9/bld/clib/alias/a/_itcsnic.asm)
0002:00000328  _tcsnicmp_
Module: /mnt/sda5/.user/root/src/openwatcom-1.9/bld/clib/library/os2.386/mf_rd/clib3r.lib(/mnt/sda5/.user/root/src/openwatcom-1.9/bld/clib/alias/a/_itcnico.asm)
0002:00000330  _tcsnicoll_
Module: /mnt/sda5/.user/root/src/openwatcom-1.9/bld/clib/library/os2.386/mf_rd/clib3r.lib(/mnt/sda5/.user/root/src/openwatcom-1.9/bld/clib/alias/a/_itcsnin.asm)
0002:00000338  _tcsninc_
Module: /mnt/sda5/.user/root/src/openwatcom-1.9/bld/clib/library/os2.386/mf_rd/clib3r.lib(/mnt/sda5/.user/root/src/openwatcom-1.9/bld/clib/alias/a/_itcsnse.asm)
0002:00000340  _tcsnset_
Module: /mnt/sda5/.user/root/src/openwatcom-1.9/bld/clib/library/os2.386/mf_rd/clib3r.lib(/mnt/sda5/.user/root/src/openwatcom-1.9/bld/clib/alias/a/_itcspbr.asm)
0002:00000348  _tcspbrk_
Module: /mnt/sda5/.user/root/src/openwatcom-1.9/bld/clib/library/os2.386/mf_rd/clib3r.lib(/mnt/sda5/.user/root/src/openwatcom-1.9/bld/clib/alias/a/_itcsrch.asm)
0002:00000350  _tcsrchr_
Module: /mnt/sda5/.user/root/src/openwatcom-1.9/bld/clib/library/os2.386/mf_rd/clib3r.lib(/mnt/sda5/.user/root/src/openwatcom-1.9/bld/clib/alias/a/_itcsrev.asm)
0002:00000358  _tcsrev_
Module: /mnt/sda5/.user/root/src/openwatcom-1.9/bld/clib/library/os2.386/mf_rd/clib3r.lib(/mnt/sda5/.user/root/src/openwatcom-1.9/bld/clib/alias/a/_itcsset.asm)
0002:00000360  _tcsset_
Module: /mnt/sda5/.user/root/src/openwatcom-1.9/bld/clib/library/os2.386/mf_rd/clib3r.lib(/mnt/sda5/.user/root/src/openwatcom-1.9/bld/clib/alias/a/_itcsspn.asm)
0002:00000368  _tcsspn_
Module: /mnt/sda5/.user/root/src/openwatcom-1.9/bld/clib/library/os2.386/mf_rd/clib3r.lib(/mnt/sda5/.user/root/src/openwatcom-1.9/bld/clib/alias/a/_itcspnp.asm)
0002:00000370  _tcsspnp_
Module: /mnt/sda5/.user/root/src/openwatcom-1.9/bld/clib/library/os2.386/mf_rd/clib3r.lib(/mnt/sda5/.user/root/src/openwatcom-1.9/bld/clib/alias/a/_itcsstr.asm)
0002:00000378  _tcsstr_
Module: /mnt/sda5/.user/root/src/openwatcom-1.9/bld/clib/library/os2.386/mf_rd/clib3r.lib(/mnt/sda5/.user/root/src/openwatcom-1.9/bld/clib/alias/a/_itcstok.asm)
0002:00000380  _tcstok_
Module: /mnt/sda5/.user/root/src/openwatcom-1.9/bld/clib/library/os2.386/mf_rd/clib3r.lib(/mnt/sda5/.user/root/src/openwatcom-1.9/bld/clib/alias/a/_itcsupr.asm)
0002:00000388  _tcsupr_
Module: /mnt/sda5/.user/root/src/openwatcom-1.9/bld/clib/library/os2.386/mf_rd/clib3r.lib(/mnt/sda5/.user/root/src/openwatcom-1.9/bld/clib/alias/a/_imemicm.asm)
0002:00000390  _memicmp_
Module: /mnt/sda5/.user/root/src/openwatcom-1.9/bld/clib/library/os2.386/mf_rd/clib3r.lib(/mnt/sda5/.user/root/src/openwatcom-1.9/bld/clib/alias/a/_imkdir_.asm)
0002:00000398  _mkdir_
Module: /mnt/sda5/.user/root/src/openwatcom-1.9/bld/clib/library/os2.386/mf_rd/clib3r.lib(/mnt/sda5/.user/root/src/openwatcom-1.9/bld/clib/alias/a/_iopen__.asm)
0002:000003a0  _open_
Module: /mnt/sda5/.user/root/src/openwatcom-1.9/bld/clib/library/os2.386/mf_rd/clib3r.lib(/mnt/sda5/.user/root/src/openwatcom-1.9/bld/clib/alias/a/_iputenv.asm)
0002:000003a8  _putenv_
Module: /mnt/sda5/.user/root/src/openwatcom-1.9/bld/clib/library/os2.386/mf_rd/clib3r.lib(/mnt/sda5/.user/root/src/openwatcom-1.9/bld/clib/alias/a/_iputws_.asm)
0002:000003b0  _putws_
Module: /mnt/sda5/.user/root/src/openwatcom-1.9/bld/clib/library/os2.386/mf_rd/clib3r.lib(/mnt/sda5/.user/root/src/openwatcom-1.9/bld/clib/alias/a/_iread__.asm)
0002:000003b8  _read_
Module: /mnt/sda5/.user/root/src/openwatcom-1.9/bld/clib/library/os2.386/mf_rd/clib3r.lib(/mnt/sda5/.user/root/src/openwatcom-1.9/bld/clib/alias/a/_irmdir_.asm)
0002:000003c0  _rmdir_
Module: /mnt/sda5/.user/root/src/openwatcom-1.9/bld/clib/library/os2.386/mf_rd/clib3r.lib(/mnt/sda5/.user/root/src/openwatcom-1.9/bld/clib/alias/a/_isetmod.asm)
0002:000003c8  _setmode_
Module: /mnt/sda5/.user/root/src/openwatcom-1.9/bld/clib/library/os2.386/mf_rd/clib3r.lib(/mnt/sda5/.user/root/src/openwatcom-1.9/bld/clib/alias/a/_isopen_.asm)
0002:000003d0  _sopen_
Module: /mnt/sda5/.user/root/src/openwatcom-1.9/bld/clib/library/os2.386/mf_rd/clib3r.lib(/mnt/sda5/.user/root/src/openwatcom-1.9/bld/clib/alias/a/_istkavl.asm)
0002:000003d8  _stackavail_
Module: /mnt/sda5/.user/root/src/openwatcom-1.9/bld/clib/library/os2.386/mf_rd/clib3r.lib(/mnt/sda5/.user/root/src/openwatcom-1.9/bld/clib/alias/a/_istat__.asm)
0002:000003e0  _stat_
Module: /mnt/sda5/.user/root/src/openwatcom-1.9/bld/clib/library/os2.386/mf_rd/clib3r.lib(/mnt/sda5/.user/root/src/openwatcom-1.9/bld/clib/alias/a/_ilstat_.asm)
0002:000003e8  lstat_
Module: /mnt/sda5/.user/root/src/openwatcom-1.9/bld/clib/library/os2.386/mf_rd/clib3r.lib(/mnt/sda5/.user/root/src/openwatcom-1.9/bld/clib/alias/a/_istrdup.asm)
0002:000003f0  _strdup_
Module: /mnt/sda5/.user/root/src/openwatcom-1.9/bld/clib/library/os2.386/mf_rd/clib3r.lib(/mnt/sda5/.user/root/src/openwatcom-1.9/bld/clib/alias/a/_icstrdu.asm)
0002:000003f8  strdup_
Module: /mnt/sda5/.user/root/src/openwatcom-1.9/bld/clib/library/os2.386/mf_rd/clib3r.lib(/mnt/sda5/.user/root/src/openwatcom-1.9/bld/clib/alias/a/_icwcsdu.asm)
0002:00000400  _wcsdup_
Module: /mnt/sda5/.user/root/src/openwatcom-1.9/bld/clib/library/os2.386/mf_rd/clib3r.lib(/mnt/sda5/.user/root/src/openwatcom-1.9/bld/clib/alias/a/_istrcmp.asm)
0002:00000408  strcmpi_
Module: /mnt/sda5/.user/root/src/openwatcom-1.9/bld/clib/library/os2.386/mf_rd/clib3r.lib(/mnt/sda5/.user/root/src/openwatcom-1.9/bld/clib/alias/a/_istricm.asm)
0002:00000410  _stricmp_
Module: /mnt/sda5/.user/root/src/openwatcom-1.9/bld/clib/library/os2.386/mf_rd/clib3r.lib(/mnt/sda5/.user/root/src/openwatcom-1.9/bld/clib/alias/a/_istrico.asm)
0002:00000418  _stricoll_
Module: /mnt/sda5/.user/root/src/openwatcom-1.9/bld/clib/library/os2.386/mf_rd/clib3r.lib(/mnt/sda5/.user/root/src/openwatcom-1.9/bld/clib/alias/a/_istrlwr.asm)
0002:00000420  _strlwr_
Module: /mnt/sda5/.user/root/src/openwatcom-1.9/bld/clib/library/os2.386/mf_rd/clib3r.lib(/mnt/sda5/.user/root/src/openwatcom-1.9/bld/clib/alias/a/_istrnco.asm)
0002:00000428  _strncoll_
Module: /mnt/sda5/.user/root/src/openwatcom-1.9/bld/clib/library/os2.386/mf_rd/clib3r.lib(/mnt/sda5/.user/root/src/openwatcom-1.9/bld/clib/alias/a/_istrnic.asm)
0002:00000430  _strnicmp_
Module: /mnt/sda5/.user/root/src/openwatcom-1.9/bld/clib/library/os2.386/mf_rd/clib3r.lib(/mnt/sda5/.user/root/src/openwatcom-1.9/bld/clib/alias/a/_istnico.asm)
0002:00000438  _strnicoll_
Module: /mnt/sda5/.user/root/src/openwatcom-1.9/bld/clib/library/os2.386/mf_rd/clib3r.lib(/mnt/sda5/.user/root/src/openwatcom-1.9/bld/clib/alias/a/_istrnse.asm)
0002:00000440  _strnset_
Module: /mnt/sda5/.user/root/src/openwatcom-1.9/bld/clib/library/os2.386/mf_rd/clib3r.lib(/mnt/sda5/.user/root/src/openwatcom-1.9/bld/clib/alias/a/_istrrev.asm)
0002:00000448  _strrev_
Module: /mnt/sda5/.user/root/src/openwatcom-1.9/bld/clib/library/os2.386/mf_rd/clib3r.lib(/mnt/sda5/.user/root/src/openwatcom-1.9/bld/clib/alias/a/_istrset.asm)
0002:00000450  _strset_
Module: /mnt/sda5/.user/root/src/openwatcom-1.9/bld/clib/library/os2.386/mf_rd/clib3r.lib(/mnt/sda5/.user/root/src/openwatcom-1.9/bld/clib/alias/a/_istrspn.asm)
0002:00000458  _strspnp_
Module: /mnt/sda5/.user/root/src/openwatcom-1.9/bld/clib/library/os2.386/mf_rd/clib3r.lib(/mnt/sda5/.user/root/src/openwatcom-1.9/bld/clib/alias/a/_istrupr.asm)
0002:00000460  _strupr_
Module: /mnt/sda5/.user/root/src/openwatcom-1.9/bld/clib/library/os2.386/mf_rd/clib3r.lib(/mnt/sda5/.user/root/src/openwatcom-1.9/bld/clib/alias/a/_istrcc_.asm)
0002:00000468  strcasecmp_
Module: /mnt/sda5/.user/root/src/openwatcom-1.9/bld/clib/library/os2.386/mf_rd/clib3r.lib(/mnt/sda5/.user/root/src/openwatcom-1.9/bld/clib/alias/a/_istrncc.asm)
0002:00000470  strncasecmp_
Module: /mnt/sda5/.user/root/src/openwatcom-1.9/bld/clib/library/os2.386/mf_rd/clib3r.lib(/mnt/sda5/.user/root/src/openwatcom-1.9/bld/clib/alias/a/_itell__.asm)
0002:00000478  _tell_
Module: /mnt/sda5/.user/root/src/openwatcom-1.9/bld/clib/library/os2.386/mf_rd/clib3r.lib(/mnt/sda5/.user/root/src/openwatcom-1.9/bld/clib/alias/a/_itolowe.asm)
0002:00000480  _tolower_
Module: /mnt/sda5/.user/root/src/openwatcom-1.9/bld/clib/library/os2.386/mf_rd/clib3r.lib(/mnt/sda5/.user/root/src/openwatcom-1.9/bld/clib/alias/a/_itouppe.asm)
0002:00000488  _toupper_
Module: /mnt/sda5/.user/root/src/openwatcom-1.9/bld/clib/library/os2.386/mf_rd/clib3r.lib(/mnt/sda5/.user/root/src/openwatcom-1.9/bld/clib/alias/a/_itzset_.asm)
0002:00000490  _tzset_
Module: /mnt/sda5/.user/root/src/openwatcom-1.9/bld/clib/library/os2.386/mf_rd/clib3r.lib(/mnt/sda5/.user/root/src/openwatcom-1.9/bld/clib/alias/a/_iufst64.asm)
0002:00000498  _wfstati64_
Module: /mnt/sda5/.user/root/src/openwatcom-1.9/bld/clib/library/os2.386/mf_rd/clib3r.lib(/mnt/sda5/.user/root/src/openwatcom-1.9/bld/clib/alias/a/_iufstat.asm)
0002:000004a0  _wfstat_
Module: /mnt/sda5/.user/root/src/openwatcom-1.9/bld/clib/library/os2.386/mf_rd/clib3r.lib(/mnt/sda5/.user/root/src/openwatcom-1.9/bld/clib/alias/a/_iumask_.asm)
0002:000004a8  _umask_
Module: /mnt/sda5/.user/root/src/openwatcom-1.9/bld/clib/library/os2.386/mf_rd/clib3r.lib(/mnt/sda5/.user/root/src/openwatcom-1.9/bld/clib/alias/a/_iunlink.asm)
0002:000004b0  _unlink_
Module: /mnt/sda5/.user/root/src/openwatcom-1.9/bld/clib/library/os2.386/mf_rd/clib3r.lib(/mnt/sda5/.user/root/src/openwatcom-1.9/bld/clib/alias/a/_iutime_.asm)
0002:000004b8  _utime_
Module: /mnt/sda5/.user/root/src/openwatcom-1.9/bld/clib/library/os2.386/mf_rd/clib3r.lib(/mnt/sda5/.user/root/src/openwatcom-1.9/bld/clib/alias/a/_iwrite_.asm)
0002:000004c0  _write_
Module: /mnt/sda5/.user/root/src/openwatcom-1.9/bld/clib/library/os2.386/mf_rd/clib3r.lib(/mnt/sda5/.user/root/src/openwatcom-1.9/bld/clib/alias/a/_iw_acce.asm)
0002:000004c8  _w_access_
Module: /mnt/sda5/.user/root/src/openwatcom-1.9/bld/clib/library/os2.386/mf_rd/clib3r.lib(/mnt/sda5/.user/root/src/openwatcom-1.9/bld/clib/alias/a/_iwcscmp.asm)
0002:000004d0  wcscmpi_
Module: /mnt/sda5/.user/root/src/openwatcom-1.9/bld/clib/library/os2.386/mf_rd/clib3r.lib(/mnt/sda5/.user/root/src/openwatcom-1.9/bld/clib/alias/a/_iwcsico.asm)
0002:000004d8  _wcsicoll_
Module: /mnt/sda5/.user/root/src/openwatcom-1.9/bld/clib/library/os2.386/mf_rd/clib3r.lib(/mnt/sda5/.user/root/src/openwatcom-1.9/bld/clib/alias/a/_iwcsnco.asm)
0002:000004e0  _wcsncoll_
Module: /mnt/sda5/.user/root/src/openwatcom-1.9/bld/clib/library/os2.386/mf_rd/clib3r.lib(/mnt/sda5/.user/root/src/openwatcom-1.9/bld/clib/alias/a/_iwcnico.asm)
0002:000004e8  _wcsnicoll_
Module: /mnt/sda5/.user/root/src/openwatcom-1.9/bld/clib/library/os2.386/mf_rd/clib3r.lib(/mnt/sda5/.user/root/src/openwatcom-1.9/bld/clib/alias/a/_iw_fsop.asm)
0002:000004f0  _w_fsopen_
Module: /mnt/sda5/.user/root/src/openwatcom-1.9/bld/clib/library/os2.386/mf_rd/clib3r.lib(/mnt/sda5/.user/root/src/openwatcom-1.9/bld/clib/alias/a/_iw_full.asm)
0002:000004f8  _w_fullpath_
Module: /mnt/sda5/.user/root/src/openwatcom-1.9/bld/clib/library/os2.386/mf_rd/clib3r.lib(/mnt/sda5/.user/root/src/openwatcom-1.9/bld/clib/alias/a/_iitow__.asm)
0002:00000500  _witoa_
Module: /mnt/sda5/.user/root/src/openwatcom-1.9/bld/clib/library/os2.386/mf_rd/clib3r.lib(/mnt/sda5/.user/root/src/openwatcom-1.9/bld/clib/alias/a/_iltow__.asm)
0002:00000508  _wltoa_
Module: /mnt/sda5/.user/root/src/openwatcom-1.9/bld/clib/library/os2.386/mf_rd/clib3r.lib(/mnt/sda5/.user/root/src/openwatcom-1.9/bld/clib/alias/a/_iw_make.asm)
0002:00000510  _w_makepath_
Module: /mnt/sda5/.user/root/src/openwatcom-1.9/bld/clib/library/os2.386/mf_rd/clib3r.lib(/mnt/sda5/.user/root/src/openwatcom-1.9/bld/clib/alias/a/_iw_spli.asm)
0002:00000518  _w_splitpath_
Module: /mnt/sda5/.user/root/src/openwatcom-1.9/bld/clib/library/os2.386/mf_rd/clib3r.lib(/mnt/sda5/.user/root/src/openwatcom-1.9/bld/clib/alias/a/_iw_spl2.asm)
0002:00000520  _w_splitpath2_
Module: /mnt/sda5/.user/root/src/openwatcom-1.9/bld/clib/library/os2.386/mf_rd/clib3r.lib(/mnt/sda5/.user/root/src/openwatcom-1.9/bld/clib/alias/a/_iwtoi__.asm)
0002:00000528  _watoi_
Module: /mnt/sda5/.user/root/src/openwatcom-1.9/bld/clib/library/os2.386/mf_rd/clib3r.lib(/mnt/sda5/.user/root/src/openwatcom-1.9/bld/clib/alias/a/_iwtol__.asm)
0002:00000530  _watol_
Module: /mnt/sda5/.user/root/src/openwatcom-1.9/bld/clib/library/os2.386/mf_rd/clib3r.lib(/mnt/sda5/.user/root/src/openwatcom-1.9/bld/clib/alias/a/_iultow_.asm)
0002:00000538  _wultoa_
Module: /mnt/sda5/.user/root/src/openwatcom-1.9/bld/clib/library/os2.386/mf_rd/clib3r.lib(/mnt/sda5/.user/root/src/openwatcom-1.9/bld/clib/alias/a/_iutow__.asm)
0002:00000540  _wutoa_
Module: /mnt/sda5/.user/root/src/openwatcom-1.9/bld/clib/library/os2.386/mf_rd/clib3r.lib(/mnt/sda5/.user/root/src/openwatcom-1.9/bld/clib/char/c/isalnum.c)
0002:00000550  isalnum_
Module: /mnt/sda5/.user/root/src/openwatcom-1.9/bld/clib/library/os2.386/mf_rd/clib3r.lib(/mnt/sda5/.user/root/src/openwatcom-1.9/bld/clib/char/c/isalpha.c)
0002:00000590  isalpha_
Module: /mnt/sda5/.user/root/src/openwatcom-1.9/bld/clib/library/os2.386/mf_rd/clib3r.lib(/mnt/sda5/.user/root/src/openwatcom-1.9/bld/clib/char/c/isascii.c)
0002:000005d0  isascii_
Module: /mnt/sda5/.user/root/src/openwatcom-1.9/bld/clib/library/os2.386/mf_rd/clib3r.lib(/mnt/sda5/.user/root/src/openwatcom-1.9/bld/clib/char/c/isblank.c)
0002:00000610  isblank_
Module: /mnt/sda5/.user/root/src/openwatcom-1.9/bld/clib/library/os2.386/mf_rd/clib3r.lib(/mnt/sda5/.user/root/src/openwatcom-1.9/bld/clib/char/c/iscntrl.c)
0002:00000660  iscntrl_
Module: /mnt/sda5/.user/root/src/openwatcom-1.9/bld/clib/library/os2.386/mf_rd/clib3r.lib(/mnt/sda5/.user/root/src/openwatcom-1.9/bld/clib/char/c/iscsym.c)
0002:000006a0  __iscsym_
Module: /mnt/sda5/.user/root/src/openwatcom-1.9/bld/clib/library/os2.386/mf_rd/clib3r.lib(/mnt/sda5/.user/root/src/openwatcom-1.9/bld/clib/char/c/iscsymf.c)
0002:00000700  __iscsymf_
Module: /mnt/sda5/.user/root/src/openwatcom-1.9/bld/clib/library/os2.386/mf_rd/clib3r.lib(/mnt/sda5/.user/root/src/openwatcom-1.9/bld/clib/char/c/isdigit.c)
0002:00000760  isdigit_
Module: /mnt/sda5/.user/root/src/openwatcom-1.9/bld/clib/library/os2.386/mf_rd/clib3r.lib(/mnt/sda5/.user/root/src/openwatcom-1.9/bld/clib/char/c/isgraph.c)
0002:000007a0  isgraph_
Module: /mnt/sda5/.user/root/src/openwatcom-1.9/bld/clib/library/os2.386/mf_rd/clib3r.lib(/mnt/sda5/.user/root/src/openwatcom-1.9/bld/clib/char/c/islower.c)
0002:00000800  islower_
Module: /mnt/sda5/.user/root/src/openwatcom-1.9/bld/clib/library/os2.386/mf_rd/clib3r.lib(/mnt/sda5/.user/root/src/openwatcom-1.9/bld/clib/char/c/isprint.c)
0002:00000840  isprint_
Module: /mnt/sda5/.user/root/src/openwatcom-1.9/bld/clib/library/os2.386/mf_rd/clib3r.lib(/mnt/sda5/.user/root/src/openwatcom-1.9/bld/clib/char/c/ispunct.c)
0002:00000880  ispunct_
Module: /mnt/sda5/.user/root/src/openwatcom-1.9/bld/clib/library/os2.386/mf_rd/clib3r.lib(/mnt/sda5/.user/root/src/openwatcom-1.9/bld/clib/char/c/isspace.c)
0002:000008c0  isspace_
Module: /mnt/sda5/.user/root/src/openwatcom-1.9/bld/clib/library/os2.386/mf_rd/clib3r.lib(/mnt/sda5/.user/root/src/openwatcom-1.9/bld/clib/char/c/istable.c)
0002:00000900  __IsTable
Module: /mnt/sda5/.user/root/src/openwatcom-1.9/bld/clib/library/os2.386/mf_rd/clib3r.lib(/mnt/sda5/.user/root/src/openwatcom-1.9/bld/clib/char/c/isupper.c)
0002:00000a10  isupper_
Module: /mnt/sda5/.user/root/src/openwatcom-1.9/bld/clib/library/os2.386/mf_rd/clib3r.lib(/mnt/sda5/.user/root/src/openwatcom-1.9/bld/clib/char/c/iswctype.c)
0002:00000a80  iswctype_
Module: /mnt/sda5/.user/root/src/openwatcom-1.9/bld/clib/library/os2.386/mf_rd/clib3r.lib(/mnt/sda5/.user/root/src/openwatcom-1.9/bld/clib/char/c/isxdigit.c)
0002:00000ba0  isxdigit_
Module: /mnt/sda5/.user/root/src/openwatcom-1.9/bld/clib/library/os2.386/mf_rd/clib3r.lib(/mnt/sda5/.user/root/src/openwatcom-1.9/bld/clib/char/c/tolower.c)
0002:00000be0  tolower_
Module: /mnt/sda5/.user/root/src/openwatcom-1.9/bld/clib/library/os2.386/mf_rd/clib3r.lib(/mnt/sda5/.user/root/src/openwatcom-1.9/bld/clib/char/c/toupper.c)
0002:00000c20  toupper_
Module: /mnt/sda5/.user/root/src/openwatcom-1.9/bld/clib/library/os2.386/mf_rd/clib3r.lib(/mnt/sda5/.user/root/src/openwatcom-1.9/bld/clib/char/c/towctrns.c)
0002:00000c60  towctrans_
Module: /mnt/sda5/.user/root/src/openwatcom-1.9/bld/clib/library/os2.386/mf_rd/clib3r.lib(/mnt/sda5/.user/root/src/openwatcom-1.9/bld/clib/char/c/wctrans.c)
0002:00000cd0  wctrans_
Module: /mnt/sda5/.user/root/src/openwatcom-1.9/bld/clib/library/os2.386/mf_rd/clib3r.lib(/mnt/sda5/.user/root/src/openwatcom-1.9/bld/clib/char/c/uisalnum.c)
0002:00000d28  iswalnum_
Module: /mnt/sda5/.user/root/src/openwatcom-1.9/bld/clib/library/os2.386/mf_rd/clib3r.lib(/mnt/sda5/.user/root/src/openwatcom-1.9/bld/clib/char/c/uisalpha.c)
0002:00000d66  iswalpha_
Module: /mnt/sda5/.user/root/src/openwatcom-1.9/bld/clib/library/os2.386/mf_rd/clib3r.lib(/mnt/sda5/.user/root/src/openwatcom-1.9/bld/clib/char/c/uisascii.c)
0002:00000da4  iswascii_
Module: /mnt/sda5/.user/root/src/openwatcom-1.9/bld/clib/library/os2.386/mf_rd/clib3r.lib(/mnt/sda5/.user/root/src/openwatcom-1.9/bld/clib/char/c/uisblank.c)
0002:00000de0  iswblank_
Module: /mnt/sda5/.user/root/src/openwatcom-1.9/bld/clib/library/os2.386/mf_rd/clib3r.lib(/mnt/sda5/.user/root/src/openwatcom-1.9/bld/clib/char/c/uiscntrl.c)
0002:00000e32  iswcntrl_
Module: /mnt/sda5/.user/root/src/openwatcom-1.9/bld/clib/library/os2.386/mf_rd/clib3r.lib(/mnt/sda5/.user/root/src/openwatcom-1.9/bld/clib/char/c/uiscsym.c)
0002:00000e6e  __iswcsym_
Module: /mnt/sda5/.user/root/src/openwatcom-1.9/bld/clib/library/os2.386/mf_rd/clib3r.lib(/mnt/sda5/.user/root/src/openwatcom-1.9/bld/clib/char/c/uiscsymf.c)
0002:00000ec5  __iswcsymf_
Module: /mnt/sda5/.user/root/src/openwatcom-1.9/bld/clib/library/os2.386/mf_rd/clib3r.lib(/mnt/sda5/.user/root/src/openwatcom-1.9/bld/clib/char/c/uisdigit.c)
0002:00000f1c  iswdigit_
Module: /mnt/sda5/.user/root/src/openwatcom-1.9/bld/clib/library/os2.386/mf_rd/clib3r.lib(/mnt/sda5/.user/root/src/openwatcom-1.9/bld/clib/char/c/uisgraph.c)
0002:00000f58  iswgraph_
Module: /mnt/sda5/.user/root/src/openwatcom-1.9/bld/clib/library/os2.386/mf_rd/clib3r.lib(/mnt/sda5/.user/root/src/openwatcom-1.9/bld/clib/char/c/uislower.c)
0002:00000fac  iswlower_
Module: /mnt/sda5/.user/root/src/openwatcom-1.9/bld/clib/library/os2.386/mf_rd/clib3r.lib(/mnt/sda5/.user/root/src/openwatcom-1.9/bld/clib/char/c/uisprint.c)
0002:00000fea  iswprint_
Module: /mnt/sda5/.user/root/src/openwatcom-1.9/bld/clib/library/os2.386/mf_rd/clib3r.lib(/mnt/sda5/.user/root/src/openwatcom-1.9/bld/clib/char/c/uispunct.c)
0002:00001026  iswpunct_
Module: /mnt/sda5/.user/root/src/openwatcom-1.9/bld/clib/library/os2.386/mf_rd/clib3r.lib(/mnt/sda5/.user/root/src/openwatcom-1.9/bld/clib/char/c/uisspace.c)
0002:00001062  iswspace_
Module: /mnt/sda5/.user/root/src/openwatcom-1.9/bld/clib/library/os2.386/mf_rd/clib3r.lib(/mnt/sda5/.user/root/src/openwatcom-1.9/bld/clib/char/c/uisupper.c)
0002:0000109e  iswupper_
Module: /mnt/sda5/.user/root/src/openwatcom-1.9/bld/clib/library/os2.386/mf_rd/clib3r.lib(/mnt/sda5/.user/root/src/openwatcom-1.9/bld/clib/char/c/uisxdig.c)
0002:000010da  iswxdigit_
Module: /mnt/sda5/.user/root/src/openwatcom-1.9/bld/clib/library/os2.386/mf_rd/clib3r.lib(/mnt/sda5/.user/root/src/openwatcom-1.9/bld/clib/char/c/utolower.c)
0002:00001116  towlower_
Module: /mnt/sda5/.user/root/src/openwatcom-1.9/bld/clib/library/os2.386/mf_rd/clib3r.lib(/mnt/sda5/.user/root/src/openwatcom-1.9/bld/clib/char/c/utoupper.c)
0002:00001146  towupper_
Module: /mnt/sda5/.user/root/src/openwatcom-1.9/bld/clib/library/os2.386/mf_rd/clib3r.lib(/mnt/sda5/.user/root/src/openwatcom-1.9/bld/clib/char/c/wctype.c)
0002:000011d0  wctype_
Module: /mnt/sda5/.user/root/src/openwatcom-1.9/bld/clib/library/os2.386/mf_rd/clib3r.lib(/mnt/sda5/.user/root/src/openwatcom-1.9/bld/clib/conio/c/cgetsos2.c)
0002:00001350  cgets_
Module: /mnt/sda5/.user/root/src/openwatcom-1.9/bld/clib/library/os2.386/mf_rd/clib3r.lib(/mnt/sda5/.user/root/src/openwatcom-1.9/bld/clib/conio/c/cprintf.c)
0002:00001440  vcprintf_
0002:00001480  cprintf_
Module: /mnt/sda5/.user/root/src/openwatcom-1.9/bld/clib/library/os2.386/mf_rd/clib3r.lib(/mnt/sda5/.user/root/src/openwatcom-1.9/bld/clib/conio/c/cputs.c)
0002:000014c0  cputs_
Module: /mnt/sda5/.user/root/src/openwatcom-1.9/bld/clib/library/os2.386/mf_rd/clib3r.lib(/mnt/sda5/.user/root/src/openwatcom-1.9/bld/clib/conio/c/cscanf.c)
0002:00001580  vcscanf_
0002:000015c0  cscanf_
Module: /mnt/sda5/.user/root/src/openwatcom-1.9/bld/clib/library/os2.386/mf_rd/clib3r.lib(/mnt/sda5/.user/root/src/openwatcom-1.9/bld/clib/conio/c/getchos2.c)
0002:000015f0  getch_
Module: /mnt/sda5/.user/root/src/openwatcom-1.9/bld/clib/library/os2.386/mf_rd/clib3r.lib(/mnt/sda5/.user/root/src/openwatcom-1.9/bld/clib/conio/c/gtcheos2.c)
0002:000016c0  getche_
Module: /mnt/sda5/.user/root/src/openwatcom-1.9/bld/clib/library/os2.386/mf_rd/clib3r.lib(/mnt/sda5/.user/root/src/openwatcom-1.9/bld/clib/conio/c/kbhitos2.c)
0002:00001710  kbhit_
Module: /mnt/sda5/.user/root/src/openwatcom-1.9/bld/clib/library/os2.386/mf_rd/clib3r.lib(/mnt/sda5/.user/root/src/openwatcom-1.9/bld/clib/conio/c/putchos2.c)
0002:00001790  putch_
Module: /mnt/sda5/.user/root/src/openwatcom-1.9/bld/clib/library/os2.386/mf_rd/clib3r.lib(/mnt/sda5/.user/root/src/openwatcom-1.9/bld/clib/conio/c/ungetch.c)
0002:000017f0  ungetch_
Module: /mnt/sda5/.user/root/src/openwatcom-1.9/bld/clib/library/os2.386/mf_rd/clib3r.lib(/mnt/sda5/.user/root/src/openwatcom-1.9/bld/clib/convert/c/atoi.c)
0002:00001830  atoi_
Module: /mnt/sda5/.user/root/src/openwatcom-1.9/bld/clib/library/os2.386/mf_rd/clib3r.lib(/mnt/sda5/.user/root/src/openwatcom-1.9/bld/clib/convert/c/atol.c)
0002:000018c0  atol_
Module: /mnt/sda5/.user/root/src/openwatcom-1.9/bld/clib/library/os2.386/mf_rd/clib3r.lib(/mnt/sda5/.user/root/src/openwatcom-1.9/bld/clib/convert/c/atoll.c)
0002:00001950  atoll_
Module: /mnt/sda5/.user/root/src/openwatcom-1.9/bld/clib/library/os2.386/mf_rd/clib3r.lib(/mnt/sda5/.user/root/src/openwatcom-1.9/bld/clib/convert/c/atouni.c)
0002:00001a20  _atouni_
Module: /mnt/sda5/.user/root/src/openwatcom-1.9/bld/clib/library/os2.386/mf_rd/clib3r.lib(/mnt/sda5/.user/root/src/openwatcom-1.9/bld/clib/convert/c/itoa.c)
0002:00001a80  utoa_
0002:00001b00  itoa_
Module: /mnt/sda5/.user/root/src/openwatcom-1.9/bld/clib/library/os2.386/mf_rd/clib3r.lib(/mnt/sda5/.user/root/src/openwatcom-1.9/bld/clib/convert/c/lltoa.c)
0002:00001b60  ulltoa_
0002:00001c00  lltoa_
Module: /mnt/sda5/.user/root/src/openwatcom-1.9/bld/clib/library/os2.386/mf_rd/clib3r.lib(/mnt/sda5/.user/root/src/openwatcom-1.9/bld/clib/convert/c/ltoa.c)
0002:00001c70  ultoa_
0002:00001cf0  ltoa_
Module: /mnt/sda5/.user/root/src/openwatcom-1.9/bld/clib/library/os2.386/mf_rd/clib3r.lib(/mnt/sda5/.user/root/src/openwatcom-1.9/bld/clib/convert/c/strtol.c)
0002:00001fe0  strtoul_
0002:00002020  strtol_
Module: /mnt/sda5/.user/root/src/openwatcom-1.9/bld/clib/library/os2.386/mf_rd/clib3r.lib(/mnt/sda5/.user/root/src/openwatcom-1.9/bld/clib/convert/c/strtoll.c)
0002:00002380  strtoull_
0002:000023c0  strtoll_
0002:00002400  strtoumax_
0002:00002440  strtoimax_
Module: /mnt/sda5/.user/root/src/openwatcom-1.9/bld/clib/library/os2.386/mf_rd/clib3r.lib(/mnt/sda5/.user/root/src/openwatcom-1.9/bld/clib/convert/c/uatoi.c)
0002:00002480  _wtoi_
Module: /mnt/sda5/.user/root/src/openwatcom-1.9/bld/clib/library/os2.386/mf_rd/clib3r.lib(/mnt/sda5/.user/root/src/openwatcom-1.9/bld/clib/convert/c/uatol.c)
0002:00002520  _wtol_
Module: /mnt/sda5/.user/root/src/openwatcom-1.9/bld/clib/library/os2.386/mf_rd/clib3r.lib(/mnt/sda5/.user/root/src/openwatcom-1.9/bld/clib/convert/c/uatoll.c)
0002:000025c0  _wtoll_
Module: /mnt/sda5/.user/root/src/openwatcom-1.9/bld/clib/library/os2.386/mf_rd/clib3r.lib(/mnt/sda5/.user/root/src/openwatcom-1.9/bld/clib/convert/c/uitoa.c)
0002:00002690  _utow_
0002:00002720  _itow_
Module: /mnt/sda5/.user/root/src/openwatcom-1.9/bld/clib/library/os2.386/mf_rd/clib3r.lib(/mnt/sda5/.user/root/src/openwatcom-1.9/bld/clib/convert/c/ulltoa.c)
0002:00002780  _ulltow_
0002:00002830  _lltow_
Module: /mnt/sda5/.user/root/src/openwatcom-1.9/bld/clib/library/os2.386/mf_rd/clib3r.lib(/mnt/sda5/.user/root/src/openwatcom-1.9/bld/clib/convert/c/ultoa.c)
0002:000028a0  _ultow_
0002:00002920  _ltow_
Module: /mnt/sda5/.user/root/src/openwatcom-1.9/bld/clib/library/os2.386/mf_rd/clib3r.lib(/mnt/sda5/.user/root/src/openwatcom-1.9/bld/clib/convert/c/ustrtol.c)
0002:00002c30  wcstoul_
0002:00002c70  wcstol_
Module: /mnt/sda5/.user/root/src/openwatcom-1.9/bld/clib/library/os2.386/mf_rd/clib3r.lib(/mnt/sda5/.user/root/src/openwatcom-1.9/bld/clib/convert/c/ustrtoll.c)
0002:00002ff0  wcstoull_
0002:00003030  wcstoll_
0002:00003070  wcstoumax_
0002:000030b0  wcstoimax_
Module: /mnt/sda5/.user/root/src/openwatcom-1.9/bld/clib/library/os2.386/mf_rd/clib3r.lib(/mnt/sda5/.user/root/src/openwatcom-1.9/bld/clib/convert/a/fdmd386.asm)
0002:000030f0  _dieeetomsbin_
Module: /mnt/sda5/.user/root/src/openwatcom-1.9/bld/clib/library/os2.386/mf_rd/clib3r.lib(/mnt/sda5/.user/root/src/openwatcom-1.9/bld/clib/convert/a/fsms386.asm)
0002:0000314c  _fieeetomsbin_
Module: /mnt/sda5/.user/root/src/openwatcom-1.9/bld/clib/library/os2.386/mf_rd/clib3r.lib(/mnt/sda5/.user/root/src/openwatcom-1.9/bld/clib/convert/a/mdfd386.asm)
0002:0000319c  _dmsbintoieee_
Module: /mnt/sda5/.user/root/src/openwatcom-1.9/bld/clib/library/os2.386/mf_rd/clib3r.lib(/mnt/sda5/.user/root/src/openwatcom-1.9/bld/clib/convert/a/msfs386.asm)
0002:000031f0  _fmsbintoieee_
Module: /mnt/sda5/.user/root/src/openwatcom-1.9/bld/clib/library/os2.386/mf_rd/clib3r.lib(/mnt/sda5/.user/root/src/openwatcom-1.9/bld/clib/defwin/c/nodefwin.c)
0003:000003c8+ __WindowsIsWindowedHandle
0003:000003cc+ __WindowsRemoveWindowedHandle
0003:000003d0+ __WindowsNewWindow
0003:000003d4+ __WindowsCloseWindow
0003:000003d8+ __WindowsSetAbout
0003:000003dc+ __WindowsSetAppTitle
0003:000003e0+ __WindowsSetConTitle
0003:000003e4+ __WindowsDestroyOnClose
0003:000003e8+ __WindowsYieldControl
0003:000003ec+ __WindowsShutDown
0003:000003f0+ __WindowsStdin
0003:000003f4+ __WindowsStdout
0003:000003f8+ __WindowsKbhit
0003:000003fc+ __WindowsGetch
0003:00000400+ __WindowsGetche
0003:00000404+ __WindowsPutch
0002:00003240  _dwDeleteOnClose_
0002:00003270  _dwSetAboutDlg_
0002:000032a0  _dwSetAppTitle_
0002:000032d0  _dwSetConTitle_
0002:00003300  _dwYield_
0002:00003330  _dwShutDown_
0003:00000408+ __WindowsExitRtn
0003:00001030+ __init_default_win
Module: /mnt/sda5/.user/root/src/openwatcom-1.9/bld/clib/library/os2.386/mf_rd/clib3r.lib(/mnt/sda5/.user/root/src/openwatcom-1.9/bld/clib/direct/c/chdiros2.c)
0002:00003360  chdir_
Module: /mnt/sda5/.user/root/src/openwatcom-1.9/bld/clib/library/os2.386/mf_rd/clib3r.lib(/mnt/sda5/.user/root/src/openwatcom-1.9/bld/clib/direct/c/chdrive.c)
0002:000033b0  _chdrive_
Module: /mnt/sda5/.user/root/src/openwatcom-1.9/bld/clib/library/os2.386/mf_rd/clib3r.lib(/mnt/sda5/.user/root/src/openwatcom-1.9/bld/clib/direct/c/diros2.c)
0002:00003550  __opendir_
0002:00003610  _opendir_
0002:000037f0  opendir_
0002:00003820  readdir_
0002:00003900  closedir_
0002:00003990  rewinddir_
Module: /mnt/sda5/.user/root/src/openwatcom-1.9/bld/clib/library/os2.386/mf_rd/clib3r.lib(/mnt/sda5/.user/root/src/openwatcom-1.9/bld/clib/direct/c/diskfree.c)
0002:000039f0  _getdiskfree_
Module: /mnt/sda5/.user/root/src/openwatcom-1.9/bld/clib/library/os2.386/mf_rd/clib3r.lib(/mnt/sda5/.user/root/src/openwatcom-1.9/bld/clib/direct/c/getdrive.c)
0002:00003a20  _getdrive_
Module: /mnt/sda5/.user/root/src/openwatcom-1.9/bld/clib/library/os2.386/mf_rd/clib3r.lib(/mnt/sda5/.user/root/src/openwatcom-1.9/bld/clib/direct/c/gtcwdos2.c)
0002:00003a50  getcwd_
Module: /mnt/sda5/.user/root/src/openwatcom-1.9/bld/clib/library/os2.386/mf_rd/clib3r.lib(/mnt/sda5/.user/root/src/openwatcom-1.9/bld/clib/direct/c/getdcwd.c)
0002:00003b40  _getdcwd_
Module: /mnt/sda5/.user/root/src/openwatcom-1.9/bld/clib/library/os2.386/mf_rd/clib3r.lib(/mnt/sda5/.user/root/src/openwatcom-1.9/bld/clib/direct/c/mkdiros2.c)
0002:00003bc0  mkdir_
Module: /mnt/sda5/.user/root/src/openwatcom-1.9/bld/clib/library/os2.386/mf_rd/clib3r.lib(/mnt/sda5/.user/root/src/openwatcom-1.9/bld/clib/direct/c/rmdiros2.c)
0002:00003c10  rmdir_
Module: /mnt/sda5/.user/root/src/openwatcom-1.9/bld/clib/library/os2.386/mf_rd/clib3r.lib(/mnt/sda5/.user/root/src/openwatcom-1.9/bld/clib/direct/c/uchdros2.c)
0002:00003c60  _wchdir_
Module: /mnt/sda5/.user/root/src/openwatcom-1.9/bld/clib/library/os2.386/mf_rd/clib3r.lib(/mnt/sda5/.user/root/src/openwatcom-1.9/bld/clib/direct/c/udiros2.c)
0002:00003e50  _w__opendir_
0002:00003f60  _w_opendir_
0002:00004140  _wopendir_
0002:00004170  _wreaddir_
0002:00004250  _wclosedir_
0002:000042e0  _wrewinddir_
Module: /mnt/sda5/.user/root/src/openwatcom-1.9/bld/clib/library/os2.386/mf_rd/clib3r.lib(/mnt/sda5/.user/root/src/openwatcom-1.9/bld/clib/direct/c/ugetdcwd.c)
0002:00004340  _wgetdcwd_
Module: /mnt/sda5/.user/root/src/openwatcom-1.9/bld/clib/library/os2.386/mf_rd/clib3r.lib(/mnt/sda5/.user/root/src/openwatcom-1.9/bld/clib/direct/c/ugtcdos2.c)
0002:000043c0  _wgetcwd_
Module: /mnt/sda5/.user/root/src/openwatcom-1.9/bld/clib/library/os2.386/mf_rd/clib3r.lib(/mnt/sda5/.user/root/src/openwatcom-1.9/bld/clib/direct/c/umkdros2.c)
0002:000044c0  _wmkdir_
Module: /mnt/sda5/.user/root/src/openwatcom-1.9/bld/clib/library/os2.386/mf_rd/clib3r.lib(/mnt/sda5/.user/root/src/openwatcom-1.9/bld/clib/direct/c/urmdros2.c)
0002:00004540  _wrmdir_
Module: /mnt/sda5/.user/root/src/openwatcom-1.9/bld/clib/library/os2.386/mf_rd/clib3r.lib(/mnt/sda5/.user/root/src/openwatcom-1.9/bld/clib/environ/c/clearenv.c)
0002:000045c0  clearenv_
Module: /mnt/sda5/.user/root/src/openwatcom-1.9/bld/clib/library/os2.386/mf_rd/clib3r.lib(/mnt/sda5/.user/root/src/openwatcom-1.9/bld/clib/environ/c/environ.c)
0003:00001034  ___env_mask
0003:00001038  _environ
0003:0000103c  __wenviron
Module: /mnt/sda5/.user/root/src/openwatcom-1.9/bld/clib/library/os2.386/mf_rd/clib3r.lib(/mnt/sda5/.user/root/src/openwatcom-1.9/bld/clib/environ/c/envptr.c)
0002:000046a0  __get_environ_ptr_
Module: /mnt/sda5/.user/root/src/openwatcom-1.9/bld/clib/library/os2.386/mf_rd/clib3r.lib(/mnt/sda5/.user/root/src/openwatcom-1.9/bld/clib/environ/c/getenv.c)
0002:000046d0  getenv_
Module: /mnt/sda5/.user/root/src/openwatcom-1.9/bld/clib/library/os2.386/mf_rd/clib3r.lib(/mnt/sda5/.user/root/src/openwatcom-1.9/bld/clib/environ/c/getenv_s.c)
0002:000047d0  getenv_s_
Module: /mnt/sda5/.user/root/src/openwatcom-1.9/bld/clib/library/os2.386/mf_rd/clib3r.lib(/mnt/sda5/.user/root/src/openwatcom-1.9/bld/clib/environ/c/gtcmd.c)
0002:00004960  _bgetcmd_
0002:00004a40  getcmd_
Module: /mnt/sda5/.user/root/src/openwatcom-1.9/bld/clib/library/os2.386/mf_rd/clib3r.lib(/mnt/sda5/.user/root/src/openwatcom-1.9/bld/clib/environ/c/gtpidos2.c)
0002:00004a70  getpid_
Module: /mnt/sda5/.user/root/src/openwatcom-1.9/bld/clib/library/os2.386/mf_rd/clib3r.lib(/mnt/sda5/.user/root/src/openwatcom-1.9/bld/clib/environ/c/isattos2.c)
0002:00004ab0  isatty_
Module: /mnt/sda5/.user/root/src/openwatcom-1.9/bld/clib/library/os2.386/mf_rd/clib3r.lib(/mnt/sda5/.user/root/src/openwatcom-1.9/bld/clib/environ/c/putenv.c)
0002:00004b30  putenv_
0002:00004d60  __putenv_
Module: /mnt/sda5/.user/root/src/openwatcom-1.9/bld/clib/library/os2.386/mf_rd/clib3r.lib(/mnt/sda5/.user/root/src/openwatcom-1.9/bld/clib/environ/c/searchen.c)
0002:00004f90  _searchenv_
Module: /mnt/sda5/.user/root/src/openwatcom-1.9/bld/clib/library/os2.386/mf_rd/clib3r.lib(/mnt/sda5/.user/root/src/openwatcom-1.9/bld/clib/environ/c/setenv.c)
0002:00005180  setenv_
0002:00005490  _setenv_
Module: /mnt/sda5/.user/root/src/openwatcom-1.9/bld/clib/library/os2.386/mf_rd/clib3r.lib(/mnt/sda5/.user/root/src/openwatcom-1.9/bld/clib/environ/c/ugetenv.c)
0002:00005720  _wgetenv_
Module: /mnt/sda5/.user/root/src/openwatcom-1.9/bld/clib/library/os2.386/mf_rd/clib3r.lib(/mnt/sda5/.user/root/src/openwatcom-1.9/bld/clib/environ/c/uputenv.c)
0002:000057c0  _wputenv_
0002:00005990  __wputenv_
Module: /mnt/sda5/.user/root/src/openwatcom-1.9/bld/clib/library/os2.386/mf_rd/clib3r.lib(/mnt/sda5/.user/root/src/openwatcom-1.9/bld/clib/environ/c/usrchen.c)
0002:00005b20  _wsearchenv_
Module: /mnt/sda5/.user/root/src/openwatcom-1.9/bld/clib/library/os2.386/mf_rd/clib3r.lib(/mnt/sda5/.user/root/src/openwatcom-1.9/bld/clib/environ/c/usetenv.c)
0002:00005d40  _wsetenv_
0002:00005fe0  __wsetenv_
Module: /mnt/sda5/.user/root/src/openwatcom-1.9/bld/clib/library/os2.386/mf_rd/clib3r.lib(/mnt/sda5/.user/root/src/openwatcom-1.9/bld/clib/environ/c/wenvptr.c)
0002:000061e0  __get_wenviron_ptr_
Module: /mnt/sda5/.user/root/src/openwatcom-1.9/bld/clib/library/os2.386/mf_rd/clib3r.lib(/mnt/sda5/.user/root/src/openwatcom-1.9/bld/clib/file/c/64findfi.c)
0002:00006210  _findfirsti64_
0002:000062a0  __os2_finddatai64_cvt_
Module: /mnt/sda5/.user/root/src/openwatcom-1.9/bld/clib/library/os2.386/mf_rd/clib3r.lib(/mnt/sda5/.user/root/src/openwatcom-1.9/bld/clib/file/c/64findne.c)
0002:000063a0  _findnexti64_
Module: /mnt/sda5/.user/root/src/openwatcom-1.9/bld/clib/library/os2.386/mf_rd/clib3r.lib(/mnt/sda5/.user/root/src/openwatcom-1.9/bld/clib/file/c/64staos2.c)
0002:000064c0  _stati64_
Module: /mnt/sda5/.user/root/src/openwatcom-1.9/bld/clib/library/os2.386/mf_rd/clib3r.lib(/mnt/sda5/.user/root/src/openwatcom-1.9/bld/clib/file/c/accssos2.c)
0002:00006910  access_
Module: /mnt/sda5/.user/root/src/openwatcom-1.9/bld/clib/library/os2.386/mf_rd/clib3r.lib(/mnt/sda5/.user/root/src/openwatcom-1.9/bld/clib/file/c/chmodos2.c)
0002:00006990  chmod_
Module: /mnt/sda5/.user/root/src/openwatcom-1.9/bld/clib/library/os2.386/mf_rd/clib3r.lib(/mnt/sda5/.user/root/src/openwatcom-1.9/bld/clib/file/c/findclos.c)
0002:00006a30  _findclose_
Module: /mnt/sda5/.user/root/src/openwatcom-1.9/bld/clib/library/os2.386/mf_rd/clib3r.lib(/mnt/sda5/.user/root/src/openwatcom-1.9/bld/clib/file/c/findfirs.c)
0002:00006a70  _findfirst_
0002:00006af0  __os2_finddata_cvt_
Module: /mnt/sda5/.user/root/src/openwatcom-1.9/bld/clib/library/os2.386/mf_rd/clib3r.lib(/mnt/sda5/.user/root/src/openwatcom-1.9/bld/clib/file/c/findnext.c)
0002:00006ba0  _findnext_
Module: /mnt/sda5/.user/root/src/openwatcom-1.9/bld/clib/library/os2.386/mf_rd/clib3r.lib(/mnt/sda5/.user/root/src/openwatcom-1.9/bld/clib/file/c/mkstemp.c)
0002:00006c90  mkstemp_
Module: /mnt/sda5/.user/root/src/openwatcom-1.9/bld/clib/library/os2.386/mf_rd/clib3r.lib(/mnt/sda5/.user/root/src/openwatcom-1.9/bld/clib/file/c/mktemp.c)
0002:00006e00  _mktemp_
Module: /mnt/sda5/.user/root/src/openwatcom-1.9/bld/clib/library/os2.386/mf_rd/clib3r.lib(/mnt/sda5/.user/root/src/openwatcom-1.9/bld/clib/file/c/remove.c)
0002:00006eb0  remove_
Module: /mnt/sda5/.user/root/src/openwatcom-1.9/bld/clib/library/os2.386/mf_rd/clib3r.lib(/mnt/sda5/.user/root/src/openwatcom-1.9/bld/clib/file/c/renamos2.c)
0002:00006ee0  rename_
Module: /mnt/sda5/.user/root/src/openwatcom-1.9/bld/clib/library/os2.386/mf_rd/clib3r.lib(/mnt/sda5/.user/root/src/openwatcom-1.9/bld/clib/file/c/statos2.c)
0002:00006fc0  stat_
Module: /mnt/sda5/.user/root/src/openwatcom-1.9/bld/clib/library/os2.386/mf_rd/clib3r.lib(/mnt/sda5/.user/root/src/openwatcom-1.9/bld/clib/file/c/tempnam.c)
0002:000074f0  _tempnam_
Module: /mnt/sda5/.user/root/src/openwatcom-1.9/bld/clib/library/os2.386/mf_rd/clib3r.lib(/mnt/sda5/.user/root/src/openwatcom-1.9/bld/clib/file/c/tmpnm.c)
0002:00007690  tmpnam_
Module: /mnt/sda5/.user/root/src/openwatcom-1.9/bld/clib/library/os2.386/mf_rd/clib3r.lib(/mnt/sda5/.user/root/src/openwatcom-1.9/bld/clib/file/c/tmpnm_s.c)
0002:000077e0  tmpnam_s_
Module: /mnt/sda5/.user/root/src/openwatcom-1.9/bld/clib/library/os2.386/mf_rd/clib3r.lib(/mnt/sda5/.user/root/src/openwatcom-1.9/bld/clib/file/c/u64findf.c)
0002:00007900  _wfindfirsti64_
0002:000079c0  __os2_wfinddatai64_cvt_
Module: /mnt/sda5/.user/root/src/openwatcom-1.9/bld/clib/library/os2.386/mf_rd/clib3r.lib(/mnt/sda5/.user/root/src/openwatcom-1.9/bld/clib/file/c/u64findn.c)
0002:00007ae0  _wfindnexti64_
Module: /mnt/sda5/.user/root/src/openwatcom-1.9/bld/clib/library/os2.386/mf_rd/clib3r.lib(/mnt/sda5/.user/root/src/openwatcom-1.9/bld/clib/file/c/u64stos2.c)
0002:00007c00  _wstati64_
Module: /mnt/sda5/.user/root/src/openwatcom-1.9/bld/clib/library/os2.386/mf_rd/clib3r.lib(/mnt/sda5/.user/root/src/openwatcom-1.9/bld/clib/file/c/uaccsos2.c)
0002:00008080  _waccess_
Module: /mnt/sda5/.user/root/src/openwatcom-1.9/bld/clib/library/os2.386/mf_rd/clib3r.lib(/mnt/sda5/.user/root/src/openwatcom-1.9/bld/clib/file/c/uchmdos2.c)
0002:00008130  _wchmod_
Module: /mnt/sda5/.user/root/src/openwatcom-1.9/bld/clib/library/os2.386/mf_rd/clib3r.lib(/mnt/sda5/.user/root/src/openwatcom-1.9/bld/clib/file/c/ufindfir.c)
0002:000081f0  _wfindfirst_
0002:00008290  __os2_wfinddata_cvt_
Module: /mnt/sda5/.user/root/src/openwatcom-1.9/bld/clib/library/os2.386/mf_rd/clib3r.lib(/mnt/sda5/.user/root/src/openwatcom-1.9/bld/clib/file/c/ufindnex.c)
0002:00008350  _wfindnext_
Module: /mnt/sda5/.user/root/src/openwatcom-1.9/bld/clib/library/os2.386/mf_rd/clib3r.lib(/mnt/sda5/.user/root/src/openwatcom-1.9/bld/clib/file/c/uremove.c)
0002:000083bc  _wremove_
Module: /mnt/sda5/.user/root/src/openwatcom-1.9/bld/clib/library/os2.386/mf_rd/clib3r.lib(/mnt/sda5/.user/root/src/openwatcom-1.9/bld/clib/file/c/urenmos2.c)
0002:000083e0  _wrename_
Module: /mnt/sda5/.user/root/src/openwatcom-1.9/bld/clib/library/os2.386/mf_rd/clib3r.lib(/mnt/sda5/.user/root/src/openwatcom-1.9/bld/clib/file/c/ustatos2.c)
0002:00008520  _wstat_
Module: /mnt/sda5/.user/root/src/openwatcom-1.9/bld/clib/library/os2.386/mf_rd/clib3r.lib(/mnt/sda5/.user/root/src/openwatcom-1.9/bld/clib/file/c/utimeos2.c)
0002:00008920  utime_
Module: /mnt/sda5/.user/root/src/openwatcom-1.9/bld/clib/library/os2.386/mf_rd/clib3r.lib(/mnt/sda5/.user/root/src/openwatcom-1.9/bld/clib/file/c/utempnam.c)
0002:00008d00  _wtempnam_
Module: /mnt/sda5/.user/root/src/openwatcom-1.9/bld/clib/library/os2.386/mf_rd/clib3r.lib(/mnt/sda5/.user/root/src/openwatcom-1.9/bld/clib/file/c/utmpnm.c)
0002:00008e94  _wtmpnam_
Module: /mnt/sda5/.user/root/src/openwatcom-1.9/bld/clib/library/os2.386/mf_rd/clib3r.lib(/mnt/sda5/.user/root/src/openwatcom-1.9/bld/clib/file/c/utmpnm_s.c)
0002:00008ff0  _wtmpnam_s_
Module: /mnt/sda5/.user/root/src/openwatcom-1.9/bld/clib/library/os2.386/mf_rd/clib3r.lib(/mnt/sda5/.user/root/src/openwatcom-1.9/bld/clib/file/c/uutimos2.c)
0002:00009120  _wutime_
Module: /mnt/sda5/.user/root/src/openwatcom-1.9/bld/clib/library/os2.386/mf_rd/clib3r.lib(/mnt/sda5/.user/root/src/openwatcom-1.9/bld/clib/fpu/a/chipd32.asm)
0002:000094db  __fdiv_fpr
0002:0000999d  __fdiv_chk
0002:000099b0  __fdiv_m32
0002:000099fd  __fdiv_m64
0002:00009a4a  __fdiv_m32r
0002:00009a97  __fdiv_m64r
Module: /mnt/sda5/.user/root/src/openwatcom-1.9/bld/clib/library/os2.386/mf_rd/clib3r.lib(/mnt/sda5/.user/root/src/openwatcom-1.9/bld/clib/fpu/a/chipa32.asm)
0002:00009af0  __fpatan_chk
Module: /mnt/sda5/.user/root/src/openwatcom-1.9/bld/clib/library/os2.386/mf_rd/clib3r.lib(/mnt/sda5/.user/root/src/openwatcom-1.9/bld/clib/fpu/a/chipw32.asm)
0002:00009cf4  __fpatan_wrap
Module: /mnt/sda5/.user/root/src/openwatcom-1.9/bld/clib/library/os2.386/mf_rd/clib3r.lib(/mnt/sda5/.user/root/src/openwatcom-1.9/bld/clib/fpu/a/chipt32.asm)
0002:00009d2c  __fptan_chk
Module: /mnt/sda5/.user/root/src/openwatcom-1.9/bld/clib/library/os2.386/mf_rd/clib3r.lib(/mnt/sda5/.user/root/src/openwatcom-1.9/bld/clib/fpu/a/chipr32.asm)
0002:00046e27  __fprem_chk
0002:000470e0  __fprem1_chk
Module: /mnt/sda5/.user/root/src/openwatcom-1.9/bld/clib/library/os2.386/mf_rd/clib3r.lib(/mnt/sda5/.user/root/src/openwatcom-1.9/bld/clib/fpu/c/cntrl87.c)
0002:00009de0  _control87_
Module: /mnt/sda5/.user/root/src/openwatcom-1.9/bld/clib/library/os2.386/mf_rd/clib3r.lib(/mnt/sda5/.user/root/src/openwatcom-1.9/bld/clib/fpu/c/cntrlfp.c)
0002:00009e40  _controlfp_
Module: /mnt/sda5/.user/root/src/openwatcom-1.9/bld/clib/library/os2.386/mf_rd/clib3r.lib(/mnt/sda5/.user/root/src/openwatcom-1.9/bld/clib/fpu/c/fenv.c)
0002:00009e70  ___fenv_h_default_environment
0002:00009e90  feclearexcept_
0002:00009ed0  fegetexceptflag_
0002:00009f10  feraiseexcept_
0002:00009f50  __feenableexcept_
0002:00009f80  __fedisableexcept_
0002:00009fb0  fesetexceptflag_
0002:0000a000  fetestexcept_
0002:0000a040  fegetround_
0002:0000a070  fesetround_
0002:0000a0f0  fegetenv_
0002:0000a120  feholdexcept_
0002:0000a160  fesetenv_
0002:0000a190  feupdateenv_
Module: /mnt/sda5/.user/root/src/openwatcom-1.9/bld/clib/library/os2.386/mf_rd/clib3r.lib(/mnt/sda5/.user/root/src/openwatcom-1.9/bld/clib/handleio/c/64lseek.c)
0002:0000a1d0  _lseeki64_
Module: /mnt/sda5/.user/root/src/openwatcom-1.9/bld/clib/library/os2.386/mf_rd/clib3r.lib(/mnt/sda5/.user/root/src/openwatcom-1.9/bld/clib/handleio/c/64_lseek.c)
0002:0000a280  __lseeki64_
Module: /mnt/sda5/.user/root/src/openwatcom-1.9/bld/clib/library/os2.386/mf_rd/clib3r.lib(/mnt/sda5/.user/root/src/openwatcom-1.9/bld/clib/handleio/c/64fillen.c)
0002:0000a3a0  _filelengthi64_
Module: /mnt/sda5/.user/root/src/openwatcom-1.9/bld/clib/library/os2.386/mf_rd/clib3r.lib(/mnt/sda5/.user/root/src/openwatcom-1.9/bld/clib/handleio/c/64fstos2.c)
0002:0000a4f0  _fstati64_
Module: /mnt/sda5/.user/root/src/openwatcom-1.9/bld/clib/library/os2.386/mf_rd/clib3r.lib(/mnt/sda5/.user/root/src/openwatcom-1.9/bld/clib/handleio/c/64tell.c)
0002:0000a7a0  _telli64_
Module: /mnt/sda5/.user/root/src/openwatcom-1.9/bld/clib/library/os2.386/mf_rd/clib3r.lib(/mnt/sda5/.user/root/src/openwatcom-1.9/bld/clib/handleio/c/chsizos2.c)
0002:0000a7e0  chsize_
Module: /mnt/sda5/.user/root/src/openwatcom-1.9/bld/clib/library/os2.386/mf_rd/clib3r.lib(/mnt/sda5/.user/root/src/openwatcom-1.9/bld/clib/handleio/c/close.c)
0002:0000a980  close_
Module: /mnt/sda5/.user/root/src/openwatcom-1.9/bld/clib/library/os2.386/mf_rd/clib3r.lib(/mnt/sda5/.user/root/src/openwatcom-1.9/bld/clib/handleio/c/creat.c)
0002:0000a9e0  creat_
Module: /mnt/sda5/.user/root/src/openwatcom-1.9/bld/clib/library/os2.386/mf_rd/clib3r.lib(/mnt/sda5/.user/root/src/openwatcom-1.9/bld/clib/handleio/c/dup2os2.c)
0002:0000aa20  dup2_
Module: /mnt/sda5/.user/root/src/openwatcom-1.9/bld/clib/library/os2.386/mf_rd/clib3r.lib(/mnt/sda5/.user/root/src/openwatcom-1.9/bld/clib/handleio/c/dupos2.c)
0002:0000aac0  dup_
Module: /mnt/sda5/.user/root/src/openwatcom-1.9/bld/clib/library/os2.386/mf_rd/clib3r.lib(/mnt/sda5/.user/root/src/openwatcom-1.9/bld/clib/handleio/c/eof.c)
0002:0000ab50  eof_
Module: /mnt/sda5/.user/root/src/openwatcom-1.9/bld/clib/library/os2.386/mf_rd/clib3r.lib(/mnt/sda5/.user/root/src/openwatcom-1.9/bld/clib/handleio/c/filelen.c)
0002:0000abe0  filelength_
Module: /mnt/sda5/.user/root/src/openwatcom-1.9/bld/clib/library/os2.386/mf_rd/clib3r.lib(/mnt/sda5/.user/root/src/openwatcom-1.9/bld/clib/handleio/c/fileno.c)
0002:0000ac90  fileno_
Module: /mnt/sda5/.user/root/src/openwatcom-1.9/bld/clib/library/os2.386/mf_rd/clib3r.lib(/mnt/sda5/.user/root/src/openwatcom-1.9/bld/clib/handleio/c/fstatos2.c)
0002:0000ad20  fstat_
Module: /mnt/sda5/.user/root/src/openwatcom-1.9/bld/clib/library/os2.386/mf_rd/clib3r.lib(/mnt/sda5/.user/root/src/openwatcom-1.9/bld/clib/handleio/c/fsync.c)
0002:0000af70  fsync_
Module: /mnt/sda5/.user/root/src/openwatcom-1.9/bld/clib/library/os2.386/mf_rd/clib3r.lib(/mnt/sda5/.user/root/src/openwatcom-1.9/bld/clib/handleio/c/hdlman.c)
0002:0000afe0* __set_handles_
0002:0000b010  _grow_handles_
0003:0000040c  ___NHandles
Module: /mnt/sda5/.user/root/src/openwatcom-1.9/bld/clib/library/os2.386/mf_rd/clib3r.lib(/mnt/sda5/.user/root/src/openwatcom-1.9/bld/clib/handleio/c/hdopen.c)
0002:0000b130  _open_osfhandle_
0002:0000b1e0  _hdopen_
Module: /mnt/sda5/.user/root/src/openwatcom-1.9/bld/clib/library/os2.386/mf_rd/clib3r.lib(/mnt/sda5/.user/root/src/openwatcom-1.9/bld/clib/handleio/c/lock.c)
0002:0000b210  lock_
Module: /mnt/sda5/.user/root/src/openwatcom-1.9/bld/clib/library/os2.386/mf_rd/clib3r.lib(/mnt/sda5/.user/root/src/openwatcom-1.9/bld/clib/handleio/c/locking.c)
0002:0000b2a0  locking_
Module: /mnt/sda5/.user/root/src/openwatcom-1.9/bld/clib/library/os2.386/mf_rd/clib3r.lib(/mnt/sda5/.user/root/src/openwatcom-1.9/bld/clib/handleio/c/__lseek.c)
0002:0000b380  __lseek_
Module: /mnt/sda5/.user/root/src/openwatcom-1.9/bld/clib/library/os2.386/mf_rd/clib3r.lib(/mnt/sda5/.user/root/src/openwatcom-1.9/bld/clib/handleio/c/lseek.c)
0002:0000b400  lseek_
Module: /mnt/sda5/.user/root/src/openwatcom-1.9/bld/clib/library/os2.386/mf_rd/clib3r.lib(/mnt/sda5/.user/root/src/openwatcom-1.9/bld/clib/handleio/c/openos2.c)
0002:0000b6a0  open_
0002:0000b6f0  sopen_
Module: /mnt/sda5/.user/root/src/openwatcom-1.9/bld/clib/library/os2.386/mf_rd/clib3r.lib(/mnt/sda5/.user/root/src/openwatcom-1.9/bld/clib/handleio/c/oshdl.c)
0002:0000b730  _get_osfhandle_
0002:0000b780  _os_handle_
Module: /mnt/sda5/.user/root/src/openwatcom-1.9/bld/clib/library/os2.386/mf_rd/clib3r.lib(/mnt/sda5/.user/root/src/openwatcom-1.9/bld/clib/handleio/c/pipe.c)
0002:0000b7b0  _pipe_
Module: /mnt/sda5/.user/root/src/openwatcom-1.9/bld/clib/library/os2.386/mf_rd/clib3r.lib(/mnt/sda5/.user/root/src/openwatcom-1.9/bld/clib/handleio/c/plusfsta.c)
0002:0000b8a0  __plusplus_fstat_
Module: /mnt/sda5/.user/root/src/openwatcom-1.9/bld/clib/library/os2.386/mf_rd/clib3r.lib(/mnt/sda5/.user/root/src/openwatcom-1.9/bld/clib/handleio/c/plusopen.c)
0002:0000b920  __plusplus_open_
Module: /mnt/sda5/.user/root/src/openwatcom-1.9/bld/clib/library/os2.386/mf_rd/clib3r.lib(/mnt/sda5/.user/root/src/openwatcom-1.9/bld/clib/handleio/c/read.c)
0002:0000ba90  read_
Module: /mnt/sda5/.user/root/src/openwatcom-1.9/bld/clib/library/os2.386/mf_rd/clib3r.lib(/mnt/sda5/.user/root/src/openwatcom-1.9/bld/clib/handleio/c/setmd.c)
0002:0000bc80  setmode_
Module: /mnt/sda5/.user/root/src/openwatcom-1.9/bld/clib/library/os2.386/mf_rd/clib3r.lib(/mnt/sda5/.user/root/src/openwatcom-1.9/bld/clib/handleio/c/tell.c)
0002:0000bdd0  tell_
Module: /mnt/sda5/.user/root/src/openwatcom-1.9/bld/clib/library/os2.386/mf_rd/clib3r.lib(/mnt/sda5/.user/root/src/openwatcom-1.9/bld/clib/handleio/c/ucreat.c)
0002:0000be00  _wcreat_
Module: /mnt/sda5/.user/root/src/openwatcom-1.9/bld/clib/library/os2.386/mf_rd/clib3r.lib(/mnt/sda5/.user/root/src/openwatcom-1.9/bld/clib/handleio/c/umask.c)
0002:0000be40  umask_
Module: /mnt/sda5/.user/root/src/openwatcom-1.9/bld/clib/library/os2.386/mf_rd/clib3r.lib(/mnt/sda5/.user/root/src/openwatcom-1.9/bld/clib/handleio/c/unlck.c)
0002:0000be80  unlock_
Module: /mnt/sda5/.user/root/src/openwatcom-1.9/bld/clib/library/os2.386/mf_rd/clib3r.lib(/mnt/sda5/.user/root/src/openwatcom-1.9/bld/clib/handleio/c/unlnkos2.c)
0002:0000bf10  unlink_
Module: /mnt/sda5/.user/root/src/openwatcom-1.9/bld/clib/library/os2.386/mf_rd/clib3r.lib(/mnt/sda5/.user/root/src/openwatcom-1.9/bld/clib/handleio/c/uopenos2.c)
0002:0000c1b0  _wopen_
0002:0000c200  _wsopen_
Module: /mnt/sda5/.user/root/src/openwatcom-1.9/bld/clib/library/os2.386/mf_rd/clib3r.lib(/mnt/sda5/.user/root/src/openwatcom-1.9/bld/clib/handleio/c/uunlnos2.c)
0002:0000c240  _wunlink_
Module: /mnt/sda5/.user/root/src/openwatcom-1.9/bld/clib/library/os2.386/mf_rd/clib3r.lib(/mnt/sda5/.user/root/src/openwatcom-1.9/bld/clib/handleio/c/write.c)
0002:0000c430  write_
Module: /mnt/sda5/.user/root/src/openwatcom-1.9/bld/clib/library/os2.386/mf_rd/clib3r.lib(/mnt/sda5/.user/root/src/openwatcom-1.9/bld/clib/heap/c/ambsptr.c)
0002:0000c6d0  __get_amblksiz_ptr_
Module: /mnt/sda5/.user/root/src/openwatcom-1.9/bld/clib/library/os2.386/mf_rd/clib3r.lib(/mnt/sda5/.user/root/src/openwatcom-1.9/bld/clib/heap/c/amblksiz.c)
0003:00000410  __amblksiz
Module: /mnt/sda5/.user/root/src/openwatcom-1.9/bld/clib/library/os2.386/mf_rd/clib3r.lib(/mnt/sda5/.user/root/src/openwatcom-1.9/bld/clib/heap/c/calloc.c)
0002:0000c700  calloc_
Module: /mnt/sda5/.user/root/src/openwatcom-1.9/bld/clib/library/os2.386/mf_rd/clib3r.lib(/mnt/sda5/.user/root/src/openwatcom-1.9/bld/clib/heap/c/freect.c)
0002:0000c760  _freect_
Module: /mnt/sda5/.user/root/src/openwatcom-1.9/bld/clib/library/os2.386/mf_rd/clib3r.lib(/mnt/sda5/.user/root/src/openwatcom-1.9/bld/clib/heap/c/heapen.c)
0002:0000c810  _heapenable_
0003:00000414  ___heap_enabled
Module: /mnt/sda5/.user/root/src/openwatcom-1.9/bld/clib/library/os2.386/mf_rd/clib3r.lib(/mnt/sda5/.user/root/src/openwatcom-1.9/bld/clib/heap/c/heapgrow.c)
0002:0000c850  _heapgrow_
0002:0000c880  _nheapgrow_
Module: /mnt/sda5/.user/root/src/openwatcom-1.9/bld/clib/library/os2.386/mf_rd/clib3r.lib(/mnt/sda5/.user/root/src/openwatcom-1.9/bld/clib/heap/c/memavl.c)
0002:0000c8b0  _memavl_
Module: /mnt/sda5/.user/root/src/openwatcom-1.9/bld/clib/library/os2.386/mf_rd/clib3r.lib(/mnt/sda5/.user/root/src/openwatcom-1.9/bld/clib/heap/c/memmax.c)
0002:0000c930  _memmax_
Module: /mnt/sda5/.user/root/src/openwatcom-1.9/bld/clib/library/os2.386/mf_rd/clib3r.lib(/mnt/sda5/.user/root/src/openwatcom-1.9/bld/clib/heap/c/ncalloc.c)
0002:0000c9c0  _ncalloc_
Module: /mnt/sda5/.user/root/src/openwatcom-1.9/bld/clib/library/os2.386/mf_rd/clib3r.lib(/mnt/sda5/.user/root/src/openwatcom-1.9/bld/clib/heap/c/nexpand.c)
0002:0000ca20  _expand_
0002:0000ca50+ __HeapManager_expand_
0002:0000ccc0  _nexpand_
Module: /mnt/sda5/.user/root/src/openwatcom-1.9/bld/clib/library/os2.386/mf_rd/clib3r.lib(/mnt/sda5/.user/root/src/openwatcom-1.9/bld/clib/heap/c/nfree.c)
0002:0000cd60  free_
0002:0000cd90  _nfree_
0003:0000106c  ___MiniHeapFreeRover
Module: /mnt/sda5/.user/root/src/openwatcom-1.9/bld/clib/library/os2.386/mf_rd/clib3r.lib(/mnt/sda5/.user/root/src/openwatcom-1.9/bld/clib/heap/c/nheapchk.c)
0002:0000d1d0  _heapchk_
0002:0000d200  _nheapchk_
0003:00001070+ ___nheapchk_current
Module: /mnt/sda5/.user/root/src/openwatcom-1.9/bld/clib/library/os2.386/mf_rd/clib3r.lib(/mnt/sda5/.user/root/src/openwatcom-1.9/bld/clib/heap/c/nheapmin.c)
0002:0000d2c0  _heapshrink_
0002:0000d2f0  _heapmin_
0002:0000d320  _nheapmin_
0002:0000d450  _nheapshrink_
Module: /mnt/sda5/.user/root/src/openwatcom-1.9/bld/clib/library/os2.386/mf_rd/clib3r.lib(/mnt/sda5/.user/root/src/openwatcom-1.9/bld/clib/heap/c/nheapset.c)
0002:0000d4c0  _heapset_
0002:0000d4f0  _nheapset_
Module: /mnt/sda5/.user/root/src/openwatcom-1.9/bld/clib/library/os2.386/mf_rd/clib3r.lib(/mnt/sda5/.user/root/src/openwatcom-1.9/bld/clib/heap/c/nheapwal.c)
0002:0000d5b0  _heapwalk_
0002:0000d5e0  __NHeapWalk_
0002:0000d730  _nheapwalk_
Module: /mnt/sda5/.user/root/src/openwatcom-1.9/bld/clib/library/os2.386/mf_rd/clib3r.lib(/mnt/sda5/.user/root/src/openwatcom-1.9/bld/clib/heap/c/nmalloc.c)
0002:0000d770  malloc_
0002:0000d7a0  _nmalloc_
0003:00000418  ___nheapbeg
0003:0000041c  ___MiniHeapRover
0003:00000420  ___LargestSizeB4MiniHeapRover
Module: /mnt/sda5/.user/root/src/openwatcom-1.9/bld/clib/library/os2.386/mf_rd/clib3r.lib(/mnt/sda5/.user/root/src/openwatcom-1.9/bld/clib/heap/c/nmemneed.c)
0002:0000d8f0  __nmemneed_
Module: /mnt/sda5/.user/root/src/openwatcom-1.9/bld/clib/library/os2.386/mf_rd/clib3r.lib(/mnt/sda5/.user/root/src/openwatcom-1.9/bld/clib/heap/c/nmsize.c)
0002:0000d920  _msize_
0002:0000d960  _nmsize_
Module: /mnt/sda5/.user/root/src/openwatcom-1.9/bld/clib/library/os2.386/mf_rd/clib3r.lib(/mnt/sda5/.user/root/src/openwatcom-1.9/bld/clib/heap/c/nrealloc.c)
0002:0000d9a0  realloc_
0002:0000d9d0  _nrealloc_
Module: /mnt/sda5/.user/root/src/openwatcom-1.9/bld/clib/library/os2.386/mf_rd/clib3r.lib(/mnt/sda5/.user/root/src/openwatcom-1.9/bld/clib/heap/c/sbrk386.c)
0002:0000da80  sbrk_
Module: /mnt/sda5/.user/root/src/openwatcom-1.9/bld/clib/library/os2.386/mf_rd/clib3r.lib(/mnt/sda5/.user/root/src/openwatcom-1.9/bld/clib/intel/c/chipbug.c)
0002:0000daf0  __verify_pentium_fdiv_bug_
Module: /mnt/sda5/.user/root/src/openwatcom-1.9/bld/clib/library/os2.386/mf_rd/clib3r.lib(/mnt/sda5/.user/root/src/openwatcom-1.9/bld/clib/intel/c/disable.c)
0002:0000db50  _disable_
Module: /mnt/sda5/.user/root/src/openwatcom-1.9/bld/clib/library/os2.386/mf_rd/clib3r.lib(/mnt/sda5/.user/root/src/openwatcom-1.9/bld/clib/intel/c/enable.c)
0002:0000db70  _enable_
Module: /mnt/sda5/.user/root/src/openwatcom-1.9/bld/clib/library/os2.386/mf_rd/clib3r.lib(/mnt/sda5/.user/root/src/openwatcom-1.9/bld/clib/intel/a/i64ts386.asm)
0002:0000db88  __CmpBigInt
0002:0000dbc2  __Rnd2Int
0002:0000dc2d  __Bin2String
Module: /mnt/sda5/.user/root/src/openwatcom-1.9/bld/clib/library/os2.386/mf_rd/clib3r.lib(/mnt/sda5/.user/root/src/openwatcom-1.9/bld/clib/intel/c/inp.c)
0002:0000dd50  inp_
Module: /mnt/sda5/.user/root/src/openwatcom-1.9/bld/clib/library/os2.386/mf_rd/clib3r.lib(/mnt/sda5/.user/root/src/openwatcom-1.9/bld/clib/intel/c/inpw.c)
0002:0000dd80  inpw_
Module: /mnt/sda5/.user/root/src/openwatcom-1.9/bld/clib/library/os2.386/mf_rd/clib3r.lib(/mnt/sda5/.user/root/src/openwatcom-1.9/bld/clib/intel/c/inpd.c)
0002:0000ddb0  inpd_
Module: /mnt/sda5/.user/root/src/openwatcom-1.9/bld/clib/library/os2.386/mf_rd/clib3r.lib(/mnt/sda5/.user/root/src/openwatcom-1.9/bld/clib/intel/c/outp.c)
0002:0000dde0  outp_
Module: /mnt/sda5/.user/root/src/openwatcom-1.9/bld/clib/library/os2.386/mf_rd/clib3r.lib(/mnt/sda5/.user/root/src/openwatcom-1.9/bld/clib/intel/c/outpw.c)
0002:0000de10  outpw_
Module: /mnt/sda5/.user/root/src/openwatcom-1.9/bld/clib/library/os2.386/mf_rd/clib3r.lib(/mnt/sda5/.user/root/src/openwatcom-1.9/bld/clib/intel/c/outpd.c)
0002:0000de40  outpd_
Module: /mnt/sda5/.user/root/src/openwatcom-1.9/bld/clib/library/os2.386/mf_rd/clib3r.lib(/mnt/sda5/.user/root/src/openwatcom-1.9/bld/clib/intel/c/profilog.c)
0002:0000de70  __ProfEnterCriticalSection_
0002:0000de90  __ProfExitCriticalSection_
0002:0000deb0  __ProfEnable_
0002:0000ded0  __ProfDisable_
0002:0000def0  __P5_overhead_
0002:0000e060* __ProfUnwind_
0002:0000e220  __PON
0002:0000e3a0  __POFF
0003:00001080+ __data_P5_overhead
0003:00001088+ ___prof_old_longjmp_handler
0003:0000108c+ __data_ProfEnable
Module: /mnt/sda5/.user/root/src/openwatcom-1.9/bld/clib/library/os2.386/mf_rd/clib3r.lib(/mnt/sda5/.user/root/src/openwatcom-1.9/bld/clib/intel/c/segread.c)
0002:0000e520  segread_
Module: /mnt/sda5/.user/root/src/openwatcom-1.9/bld/clib/library/os2.386/mf_rd/clib3r.lib(/mnt/sda5/.user/root/src/openwatcom-1.9/bld/clib/kanji/c/btom.c)
0002:0000e570  btom_
Module: /mnt/sda5/.user/root/src/openwatcom-1.9/bld/clib/library/os2.386/mf_rd/clib3r.lib(/mnt/sda5/.user/root/src/openwatcom-1.9/bld/clib/kanji/c/chkctype.c)
0002:0000e5d0  chkctype_
Module: /mnt/sda5/.user/root/src/openwatcom-1.9/bld/clib/library/os2.386/mf_rd/clib3r.lib(/mnt/sda5/.user/root/src/openwatcom-1.9/bld/clib/kanji/c/fbtom.c)
0002:0000e650  _fbtom_
Module: /mnt/sda5/.user/root/src/openwatcom-1.9/bld/clib/library/os2.386/mf_rd/clib3r.lib(/mnt/sda5/.user/root/src/openwatcom-1.9/bld/clib/kanji/c/fjgetmoj.c)
0002:0000e6d0  _fjgetmoji_
Module: /mnt/sda5/.user/root/src/openwatcom-1.9/bld/clib/library/os2.386/mf_rd/clib3r.lib(/mnt/sda5/.user/root/src/openwatcom-1.9/bld/clib/kanji/c/fjputmoj.c)
0002:0000e7a0  _fjputmoji_
Module: /mnt/sda5/.user/root/src/openwatcom-1.9/bld/clib/library/os2.386/mf_rd/clib3r.lib(/mnt/sda5/.user/root/src/openwatcom-1.9/bld/clib/kanji/c/fjstradv.c)
0002:0000e820  _fjstradv_
Module: /mnt/sda5/.user/root/src/openwatcom-1.9/bld/clib/library/os2.386/mf_rd/clib3r.lib(/mnt/sda5/.user/root/src/openwatcom-1.9/bld/clib/kanji/c/fjstrcat.c)
0002:0000e870  _fjstrncat_
0002:0000e940  _fjstrcat_
Module: /mnt/sda5/.user/root/src/openwatcom-1.9/bld/clib/library/os2.386/mf_rd/clib3r.lib(/mnt/sda5/.user/root/src/openwatcom-1.9/bld/clib/kanji/c/fjstrchr.c)
0002:0000e9a0  _fjstrchr_
Module: /mnt/sda5/.user/root/src/openwatcom-1.9/bld/clib/library/os2.386/mf_rd/clib3r.lib(/mnt/sda5/.user/root/src/openwatcom-1.9/bld/clib/kanji/c/fjstrcmp.c)
0002:0000ea30  _fjstrcmp_
Module: /mnt/sda5/.user/root/src/openwatcom-1.9/bld/clib/library/os2.386/mf_rd/clib3r.lib(/mnt/sda5/.user/root/src/openwatcom-1.9/bld/clib/kanji/c/fjstrcsp.c)
0002:0000eae0  _fjstrcspn_
Module: /mnt/sda5/.user/root/src/openwatcom-1.9/bld/clib/library/os2.386/mf_rd/clib3r.lib(/mnt/sda5/.user/root/src/openwatcom-1.9/bld/clib/kanji/c/fjstricm.c)
0002:0000eb90  _fjstricmp_
Module: /mnt/sda5/.user/root/src/openwatcom-1.9/bld/clib/library/os2.386/mf_rd/clib3r.lib(/mnt/sda5/.user/root/src/openwatcom-1.9/bld/clib/kanji/c/fjstrlen.c)
0002:0000ec90  _fjstrlen_
Module: /mnt/sda5/.user/root/src/openwatcom-1.9/bld/clib/library/os2.386/mf_rd/clib3r.lib(/mnt/sda5/.user/root/src/openwatcom-1.9/bld/clib/kanji/c/fjstrlwr.c)
0002:0000ecf0  _fjstrlwr_
Module: /mnt/sda5/.user/root/src/openwatcom-1.9/bld/clib/library/os2.386/mf_rd/clib3r.lib(/mnt/sda5/.user/root/src/openwatcom-1.9/bld/clib/kanji/c/fjstrmat.c)
0002:0000eda0  _fjstrmatch_
Module: /mnt/sda5/.user/root/src/openwatcom-1.9/bld/clib/library/os2.386/mf_rd/clib3r.lib(/mnt/sda5/.user/root/src/openwatcom-1.9/bld/clib/kanji/c/fjstrncm.c)
0002:0000ee70  _fjstrncmp_
Module: /mnt/sda5/.user/root/src/openwatcom-1.9/bld/clib/library/os2.386/mf_rd/clib3r.lib(/mnt/sda5/.user/root/src/openwatcom-1.9/bld/clib/kanji/c/fjstrncp.c)
0002:0000ef30  _fjstrncpy_
Module: /mnt/sda5/.user/root/src/openwatcom-1.9/bld/clib/library/os2.386/mf_rd/clib3r.lib(/mnt/sda5/.user/root/src/openwatcom-1.9/bld/clib/kanji/c/fjstrnic.c)
0002:0000f090  _fjstrnicmp_
Module: /mnt/sda5/.user/root/src/openwatcom-1.9/bld/clib/library/os2.386/mf_rd/clib3r.lib(/mnt/sda5/.user/root/src/openwatcom-1.9/bld/clib/kanji/c/fjstrnse.c)
0002:0000f220  _fjstrnset_
Module: /mnt/sda5/.user/root/src/openwatcom-1.9/bld/clib/library/os2.386/mf_rd/clib3r.lib(/mnt/sda5/.user/root/src/openwatcom-1.9/bld/clib/kanji/c/fjstrrch.c)
0002:0000f420  _fjstrrchr_
Module: /mnt/sda5/.user/root/src/openwatcom-1.9/bld/clib/library/os2.386/mf_rd/clib3r.lib(/mnt/sda5/.user/root/src/openwatcom-1.9/bld/clib/kanji/c/fjstrrev.c)
0002:0000f4b0  _fjstrrev_
Module: /mnt/sda5/.user/root/src/openwatcom-1.9/bld/clib/library/os2.386/mf_rd/clib3r.lib(/mnt/sda5/.user/root/src/openwatcom-1.9/bld/clib/kanji/c/fjstrset.c)
0002:0000f610  _fjstrset_
Module: /mnt/sda5/.user/root/src/openwatcom-1.9/bld/clib/library/os2.386/mf_rd/clib3r.lib(/mnt/sda5/.user/root/src/openwatcom-1.9/bld/clib/kanji/c/fjstrski.c)
0002:0000f6e0  _fjstrskip_
Module: /mnt/sda5/.user/root/src/openwatcom-1.9/bld/clib/library/os2.386/mf_rd/clib3r.lib(/mnt/sda5/.user/root/src/openwatcom-1.9/bld/clib/kanji/c/fjstrspn.c)
0002:0000f7b0  _fjstrspn_
Module: /mnt/sda5/.user/root/src/openwatcom-1.9/bld/clib/library/os2.386/mf_rd/clib3r.lib(/mnt/sda5/.user/root/src/openwatcom-1.9/bld/clib/kanji/c/fjstrstr.c)
0002:0000f860  _fjstrstr_
Module: /mnt/sda5/.user/root/src/openwatcom-1.9/bld/clib/library/os2.386/mf_rd/clib3r.lib(/mnt/sda5/.user/root/src/openwatcom-1.9/bld/clib/kanji/c/fjstrtok.c)
0002:0000fa10  _fjstrtok_
Module: /mnt/sda5/.user/root/src/openwatcom-1.9/bld/clib/library/os2.386/mf_rd/clib3r.lib(/mnt/sda5/.user/root/src/openwatcom-1.9/bld/clib/kanji/c/fjstrupr.c)
0002:0000fbe0  _fjstrupr_
Module: /mnt/sda5/.user/root/src/openwatcom-1.9/bld/clib/library/os2.386/mf_rd/clib3r.lib(/mnt/sda5/.user/root/src/openwatcom-1.9/bld/clib/kanji/c/fmtob.c)
0002:0000fc90  _fmtob_
Module: /mnt/sda5/.user/root/src/openwatcom-1.9/bld/clib/library/os2.386/mf_rd/clib3r.lib(/mnt/sda5/.user/root/src/openwatcom-1.9/bld/clib/kanji/c/fnthctyp.c)
0002:0000fd00  _fnthctype_
Module: /mnt/sda5/.user/root/src/openwatcom-1.9/bld/clib/library/os2.386/mf_rd/clib3r.lib(/mnt/sda5/.user/root/src/openwatcom-1.9/bld/clib/kanji/c/hantozen.c)
0002:0000fd70  hantozen_
0002:0000fdc0  zentohan_
Module: /mnt/sda5/.user/root/src/openwatcom-1.9/bld/clib/library/os2.386/mf_rd/clib3r.lib(/mnt/sda5/.user/root/src/openwatcom-1.9/bld/clib/kanji/c/isktable.c)
0002:0000fe20  __IsKTable
Module: /mnt/sda5/.user/root/src/openwatcom-1.9/bld/clib/library/os2.386/mf_rd/clib3r.lib(/mnt/sda5/.user/root/src/openwatcom-1.9/bld/clib/kanji/c/ismbdaln.c)
0002:0000ff30  _ismbdalnum_
Module: /mnt/sda5/.user/root/src/openwatcom-1.9/bld/clib/library/os2.386/mf_rd/clib3r.lib(/mnt/sda5/.user/root/src/openwatcom-1.9/bld/clib/kanji/c/ismbdalp.c)
0002:0000ff80  _ismbdalpha_
Module: /mnt/sda5/.user/root/src/openwatcom-1.9/bld/clib/library/os2.386/mf_rd/clib3r.lib(/mnt/sda5/.user/root/src/openwatcom-1.9/bld/clib/kanji/c/ismbddig.c)
0002:00010000  _ismbddigit_
Module: /mnt/sda5/.user/root/src/openwatcom-1.9/bld/clib/library/os2.386/mf_rd/clib3r.lib(/mnt/sda5/.user/root/src/openwatcom-1.9/bld/clib/kanji/c/ismbdgra.c)
0002:00010070  _ismbdgraph_
Module: /mnt/sda5/.user/root/src/openwatcom-1.9/bld/clib/library/os2.386/mf_rd/clib3r.lib(/mnt/sda5/.user/root/src/openwatcom-1.9/bld/clib/kanji/c/ismbdhir.c)
0002:000100c0  _ismbdhira_
Module: /mnt/sda5/.user/root/src/openwatcom-1.9/bld/clib/library/os2.386/mf_rd/clib3r.lib(/mnt/sda5/.user/root/src/openwatcom-1.9/bld/clib/kanji/c/ismbdkan.c)
0002:00010110  _ismbdkana_
Module: /mnt/sda5/.user/root/src/openwatcom-1.9/bld/clib/library/os2.386/mf_rd/clib3r.lib(/mnt/sda5/.user/root/src/openwatcom-1.9/bld/clib/kanji/c/ismbdlow.c)
0002:00010170  _ismbdlower_
Module: /mnt/sda5/.user/root/src/openwatcom-1.9/bld/clib/library/os2.386/mf_rd/clib3r.lib(/mnt/sda5/.user/root/src/openwatcom-1.9/bld/clib/kanji/c/ismbdpri.c)
0002:000101e0  _ismbdprint_
Module: /mnt/sda5/.user/root/src/openwatcom-1.9/bld/clib/library/os2.386/mf_rd/clib3r.lib(/mnt/sda5/.user/root/src/openwatcom-1.9/bld/clib/kanji/c/ismbdpun.c)
0002:00010230  _ismbdpunct_
Module: /mnt/sda5/.user/root/src/openwatcom-1.9/bld/clib/library/os2.386/mf_rd/clib3r.lib(/mnt/sda5/.user/root/src/openwatcom-1.9/bld/clib/kanji/c/ismbdspa.c)
0002:00010280  _ismbdspace_
Module: /mnt/sda5/.user/root/src/openwatcom-1.9/bld/clib/library/os2.386/mf_rd/clib3r.lib(/mnt/sda5/.user/root/src/openwatcom-1.9/bld/clib/kanji/c/ismbdupp.c)
0002:000102f0  _ismbdupper_
Module: /mnt/sda5/.user/root/src/openwatcom-1.9/bld/clib/library/os2.386/mf_rd/clib3r.lib(/mnt/sda5/.user/root/src/openwatcom-1.9/bld/clib/kanji/c/ismbdxdi.c)
0002:00010360  _ismbdxdigit_
Module: /mnt/sda5/.user/root/src/openwatcom-1.9/bld/clib/library/os2.386/mf_rd/clib3r.lib(/mnt/sda5/.user/root/src/openwatcom-1.9/bld/clib/kanji/c/jasctime.c)
0002:00010430  jasctime_
Module: /mnt/sda5/.user/root/src/openwatcom-1.9/bld/clib/library/os2.386/mf_rd/clib3r.lib(/mnt/sda5/.user/root/src/openwatcom-1.9/bld/clib/kanji/c/jctime.c)
0002:000104b0  jctime_
Module: /mnt/sda5/.user/root/src/openwatcom-1.9/bld/clib/library/os2.386/mf_rd/clib3r.lib(/mnt/sda5/.user/root/src/openwatcom-1.9/bld/clib/kanji/c/jgetmoji.c)
0002:000104e0  jgetmoji_
Module: /mnt/sda5/.user/root/src/openwatcom-1.9/bld/clib/library/os2.386/mf_rd/clib3r.lib(/mnt/sda5/.user/root/src/openwatcom-1.9/bld/clib/kanji/c/jisalpha.c)
0002:00010560  jisalpha_
Module: /mnt/sda5/.user/root/src/openwatcom-1.9/bld/clib/library/os2.386/mf_rd/clib3r.lib(/mnt/sda5/.user/root/src/openwatcom-1.9/bld/clib/kanji/c/jisdigit.c)
0002:000105c0  jisdigit_
Module: /mnt/sda5/.user/root/src/openwatcom-1.9/bld/clib/library/os2.386/mf_rd/clib3r.lib(/mnt/sda5/.user/root/src/openwatcom-1.9/bld/clib/kanji/c/jishira.c)
0002:00010610  jishira_
Module: /mnt/sda5/.user/root/src/openwatcom-1.9/bld/clib/library/os2.386/mf_rd/clib3r.lib(/mnt/sda5/.user/root/src/openwatcom-1.9/bld/clib/kanji/c/jiskana.c)
0002:00010660  jiskana_
Module: /mnt/sda5/.user/root/src/openwatcom-1.9/bld/clib/library/os2.386/mf_rd/clib3r.lib(/mnt/sda5/.user/root/src/openwatcom-1.9/bld/clib/kanji/c/jiskigou.c)
0002:000106b0  jiskigou_
Module: /mnt/sda5/.user/root/src/openwatcom-1.9/bld/clib/library/os2.386/mf_rd/clib3r.lib(/mnt/sda5/.user/root/src/openwatcom-1.9/bld/clib/kanji/c/jisl0.c)
0002:00010700  jisl0_
Module: /mnt/sda5/.user/root/src/openwatcom-1.9/bld/clib/library/os2.386/mf_rd/clib3r.lib(/mnt/sda5/.user/root/src/openwatcom-1.9/bld/clib/kanji/c/jisl1.c)
0002:00010750  jisl1_
Module: /mnt/sda5/.user/root/src/openwatcom-1.9/bld/clib/library/os2.386/mf_rd/clib3r.lib(/mnt/sda5/.user/root/src/openwatcom-1.9/bld/clib/kanji/c/jisl2.c)
0002:000107b0  jisl2_
Module: /mnt/sda5/.user/root/src/openwatcom-1.9/bld/clib/library/os2.386/mf_rd/clib3r.lib(/mnt/sda5/.user/root/src/openwatcom-1.9/bld/clib/kanji/c/jislower.c)
0002:00010810  jislower_
Module: /mnt/sda5/.user/root/src/openwatcom-1.9/bld/clib/library/os2.386/mf_rd/clib3r.lib(/mnt/sda5/.user/root/src/openwatcom-1.9/bld/clib/kanji/c/jisprint.c)
0002:00010860  jisprint_
Module: /mnt/sda5/.user/root/src/openwatcom-1.9/bld/clib/library/os2.386/mf_rd/clib3r.lib(/mnt/sda5/.user/root/src/openwatcom-1.9/bld/clib/kanji/c/jisspace.c)
0002:000108d0  jisspace_
Module: /mnt/sda5/.user/root/src/openwatcom-1.9/bld/clib/library/os2.386/mf_rd/clib3r.lib(/mnt/sda5/.user/root/src/openwatcom-1.9/bld/clib/kanji/c/jistojms.c)
0002:00010910  _mbcjistojms_
0002:00010940  jistojms_
Module: /mnt/sda5/.user/root/src/openwatcom-1.9/bld/clib/library/os2.386/mf_rd/clib3r.lib(/mnt/sda5/.user/root/src/openwatcom-1.9/bld/clib/kanji/c/jisupper.c)
0002:00010a20  jisupper_
Module: /mnt/sda5/.user/root/src/openwatcom-1.9/bld/clib/library/os2.386/mf_rd/clib3r.lib(/mnt/sda5/.user/root/src/openwatcom-1.9/bld/clib/kanji/c/jiszen.c)
0002:00010a70  jiszen_
Module: /mnt/sda5/.user/root/src/openwatcom-1.9/bld/clib/library/os2.386/mf_rd/clib3r.lib(/mnt/sda5/.user/root/src/openwatcom-1.9/bld/clib/kanji/c/jmstojis.c)
0002:00010ad0  _mbcjmstojis_
0002:00010b00  jmstojis_
Module: /mnt/sda5/.user/root/src/openwatcom-1.9/bld/clib/library/os2.386/mf_rd/clib3r.lib(/mnt/sda5/.user/root/src/openwatcom-1.9/bld/clib/kanji/c/jperror.c)
0002:00010bf0  jperror_
Module: /mnt/sda5/.user/root/src/openwatcom-1.9/bld/clib/library/os2.386/mf_rd/clib3r.lib(/mnt/sda5/.user/root/src/openwatcom-1.9/bld/clib/kanji/c/jputmoji.c)
0002:00010c60  jputmoji_
Module: /mnt/sda5/.user/root/src/openwatcom-1.9/bld/clib/library/os2.386/mf_rd/clib3r.lib(/mnt/sda5/.user/root/src/openwatcom-1.9/bld/clib/kanji/c/jstradv.c)
0002:00010cb0  jstradv_
Module: /mnt/sda5/.user/root/src/openwatcom-1.9/bld/clib/library/os2.386/mf_rd/clib3r.lib(/mnt/sda5/.user/root/src/openwatcom-1.9/bld/clib/kanji/c/jstrcat.c)
0002:00010cf0  jstrncat_
0002:00010d70  jstrcat_
Module: /mnt/sda5/.user/root/src/openwatcom-1.9/bld/clib/library/os2.386/mf_rd/clib3r.lib(/mnt/sda5/.user/root/src/openwatcom-1.9/bld/clib/kanji/c/jstrchr.c)
0002:00010db0  jstrchr_
Module: /mnt/sda5/.user/root/src/openwatcom-1.9/bld/clib/library/os2.386/mf_rd/clib3r.lib(/mnt/sda5/.user/root/src/openwatcom-1.9/bld/clib/kanji/c/jstrcmp.c)
0002:00010e10  jstrcmp_
Module: /mnt/sda5/.user/root/src/openwatcom-1.9/bld/clib/library/os2.386/mf_rd/clib3r.lib(/mnt/sda5/.user/root/src/openwatcom-1.9/bld/clib/kanji/c/jstrcspn.c)
0002:00010e90  jstrcspn_
Module: /mnt/sda5/.user/root/src/openwatcom-1.9/bld/clib/library/os2.386/mf_rd/clib3r.lib(/mnt/sda5/.user/root/src/openwatcom-1.9/bld/clib/kanji/c/jstrerro.c)
0002:000112e0  jstrerror_
0003:00000440+ _jsys_errlist
0003:000004e4+ _jsys_nerr
Module: /mnt/sda5/.user/root/src/openwatcom-1.9/bld/clib/library/os2.386/mf_rd/clib3r.lib(/mnt/sda5/.user/root/src/openwatcom-1.9/bld/clib/kanji/c/jstricmp.c)
0002:00011330  jstricmp_
Module: /mnt/sda5/.user/root/src/openwatcom-1.9/bld/clib/library/os2.386/mf_rd/clib3r.lib(/mnt/sda5/.user/root/src/openwatcom-1.9/bld/clib/kanji/c/jstrlen.c)
0002:00011400  jstrlen_
Module: /mnt/sda5/.user/root/src/openwatcom-1.9/bld/clib/library/os2.386/mf_rd/clib3r.lib(/mnt/sda5/.user/root/src/openwatcom-1.9/bld/clib/kanji/c/jstrlwr.c)
0002:00011450  jstrlwr_
Module: /mnt/sda5/.user/root/src/openwatcom-1.9/bld/clib/library/os2.386/mf_rd/clib3r.lib(/mnt/sda5/.user/root/src/openwatcom-1.9/bld/clib/kanji/c/jstrmatc.c)
0002:000114c0  jstrmatch_
Module: /mnt/sda5/.user/root/src/openwatcom-1.9/bld/clib/library/os2.386/mf_rd/clib3r.lib(/mnt/sda5/.user/root/src/openwatcom-1.9/bld/clib/kanji/c/jstrncmp.c)
0002:00011530  jstrncmp_
Module: /mnt/sda5/.user/root/src/openwatcom-1.9/bld/clib/library/os2.386/mf_rd/clib3r.lib(/mnt/sda5/.user/root/src/openwatcom-1.9/bld/clib/kanji/c/jstrncpy.c)
0002:000115c0  jstrncpy_
Module: /mnt/sda5/.user/root/src/openwatcom-1.9/bld/clib/library/os2.386/mf_rd/clib3r.lib(/mnt/sda5/.user/root/src/openwatcom-1.9/bld/clib/kanji/c/jstrnicm.c)
0002:00011690  jstrnicmp_
Module: /mnt/sda5/.user/root/src/openwatcom-1.9/bld/clib/library/os2.386/mf_rd/clib3r.lib(/mnt/sda5/.user/root/src/openwatcom-1.9/bld/clib/kanji/c/jstrnset.c)
0002:00011780  jstrnset_
Module: /mnt/sda5/.user/root/src/openwatcom-1.9/bld/clib/library/os2.386/mf_rd/clib3r.lib(/mnt/sda5/.user/root/src/openwatcom-1.9/bld/clib/kanji/c/jstrrchr.c)
0002:00011900  jstrrchr_
Module: /mnt/sda5/.user/root/src/openwatcom-1.9/bld/clib/library/os2.386/mf_rd/clib3r.lib(/mnt/sda5/.user/root/src/openwatcom-1.9/bld/clib/kanji/c/jstrrev.c)
0002:00011960  jstrrev_
Module: /mnt/sda5/.user/root/src/openwatcom-1.9/bld/clib/library/os2.386/mf_rd/clib3r.lib(/mnt/sda5/.user/root/src/openwatcom-1.9/bld/clib/kanji/c/jstrset.c)
0002:00011a30  jstrset_
Module: /mnt/sda5/.user/root/src/openwatcom-1.9/bld/clib/library/os2.386/mf_rd/clib3r.lib(/mnt/sda5/.user/root/src/openwatcom-1.9/bld/clib/kanji/c/jstrskip.c)
0002:00011ac0  jstrskip_
Module: /mnt/sda5/.user/root/src/openwatcom-1.9/bld/clib/library/os2.386/mf_rd/clib3r.lib(/mnt/sda5/.user/root/src/openwatcom-1.9/bld/clib/kanji/c/jstrspn.c)
0002:00011b40  jstrspn_
Module: /mnt/sda5/.user/root/src/openwatcom-1.9/bld/clib/library/os2.386/mf_rd/clib3r.lib(/mnt/sda5/.user/root/src/openwatcom-1.9/bld/clib/kanji/c/jstrstr.c)
0002:00011bc0  jstrstr_
Module: /mnt/sda5/.user/root/src/openwatcom-1.9/bld/clib/library/os2.386/mf_rd/clib3r.lib(/mnt/sda5/.user/root/src/openwatcom-1.9/bld/clib/kanji/c/jstrtok.c)
0002:00011ca0  jstrtok_
Module: /mnt/sda5/.user/root/src/openwatcom-1.9/bld/clib/library/os2.386/mf_rd/clib3r.lib(/mnt/sda5/.user/root/src/openwatcom-1.9/bld/clib/kanji/c/jstrupr.c)
0002:00011da0  jstrupr_
Module: /mnt/sda5/.user/root/src/openwatcom-1.9/bld/clib/library/os2.386/mf_rd/clib3r.lib(/mnt/sda5/.user/root/src/openwatcom-1.9/bld/clib/kanji/c/jtohira.c)
0002:00011e10  _mbctohira_
0002:00011e40  jtohira_
Module: /mnt/sda5/.user/root/src/openwatcom-1.9/bld/clib/library/os2.386/mf_rd/clib3r.lib(/mnt/sda5/.user/root/src/openwatcom-1.9/bld/clib/kanji/c/jtokata.c)
0002:00011ea0  _mbctokata_
0002:00011ed0  jtokata_
Module: /mnt/sda5/.user/root/src/openwatcom-1.9/bld/clib/library/os2.386/mf_rd/clib3r.lib(/mnt/sda5/.user/root/src/openwatcom-1.9/bld/clib/kanji/c/jtolower.c)
0002:00011f30  jtolower_
Module: /mnt/sda5/.user/root/src/openwatcom-1.9/bld/clib/library/os2.386/mf_rd/clib3r.lib(/mnt/sda5/.user/root/src/openwatcom-1.9/bld/clib/kanji/c/jtoupper.c)
0002:00011f80  jtoupper_
Module: /mnt/sda5/.user/root/src/openwatcom-1.9/bld/clib/library/os2.386/mf_rd/clib3r.lib(/mnt/sda5/.user/root/src/openwatcom-1.9/bld/clib/kanji/c/mbdhanto.c)
0002:00011fd0  _mbdhantozen_
Module: /mnt/sda5/.user/root/src/openwatcom-1.9/bld/clib/library/os2.386/mf_rd/clib3r.lib(/mnt/sda5/.user/root/src/openwatcom-1.9/bld/clib/kanji/c/mbdtolow.c)
0002:00012040  _mbdtolower_
Module: /mnt/sda5/.user/root/src/openwatcom-1.9/bld/clib/library/os2.386/mf_rd/clib3r.lib(/mnt/sda5/.user/root/src/openwatcom-1.9/bld/clib/kanji/c/mbdtoupp.c)
0002:00012080  _mbdtoupper_
Module: /mnt/sda5/.user/root/src/openwatcom-1.9/bld/clib/library/os2.386/mf_rd/clib3r.lib(/mnt/sda5/.user/root/src/openwatcom-1.9/bld/clib/kanji/c/mbdzento.c)
0002:000120d0  _mbdzentohan_
Module: /mnt/sda5/.user/root/src/openwatcom-1.9/bld/clib/library/os2.386/mf_rd/clib3r.lib(/mnt/sda5/.user/root/src/openwatcom-1.9/bld/clib/kanji/c/mbisl0.c)
0002:00012140  _ismbcl0_
Module: /mnt/sda5/.user/root/src/openwatcom-1.9/bld/clib/library/os2.386/mf_rd/clib3r.lib(/mnt/sda5/.user/root/src/openwatcom-1.9/bld/clib/kanji/c/mbisl1.c)
0002:00012190  _ismbcl1_
Module: /mnt/sda5/.user/root/src/openwatcom-1.9/bld/clib/library/os2.386/mf_rd/clib3r.lib(/mnt/sda5/.user/root/src/openwatcom-1.9/bld/clib/kanji/c/mbisl2.c)
0002:000121f0  _ismbcl2_
Module: /mnt/sda5/.user/root/src/openwatcom-1.9/bld/clib/library/os2.386/mf_rd/clib3r.lib(/mnt/sda5/.user/root/src/openwatcom-1.9/bld/clib/kanji/c/mtob.c)
0002:00012250  mtob_
Module: /mnt/sda5/.user/root/src/openwatcom-1.9/bld/clib/library/os2.386/mf_rd/clib3r.lib(/mnt/sda5/.user/root/src/openwatcom-1.9/bld/clib/kanji/c/nthctype.c)
0002:000122a0  nthctype_
Module: /mnt/sda5/.user/root/src/openwatcom-1.9/bld/clib/library/os2.386/mf_rd/clib3r.lib(/mnt/sda5/.user/root/src/openwatcom-1.9/bld/clib/math/c/abs.c)
0002:00012300  abs_
Module: /mnt/sda5/.user/root/src/openwatcom-1.9/bld/clib/library/os2.386/mf_rd/clib3r.lib(/mnt/sda5/.user/root/src/openwatcom-1.9/bld/clib/math/c/hvalptr.c)
0002:00012330  __get_HugeValue_ptr_
Module: /mnt/sda5/.user/root/src/openwatcom-1.9/bld/clib/library/os2.386/mf_rd/clib3r.lib(/mnt/sda5/.user/root/src/openwatcom-1.9/bld/clib/math/c/hugeval.c)
0002:00012360  __HugeValue
Module: /mnt/sda5/.user/root/src/openwatcom-1.9/bld/clib/library/os2.386/mf_rd/clib3r.lib(/mnt/sda5/.user/root/src/openwatcom-1.9/bld/clib/math/c/imaxabs.c)
0002:00012370  imaxabs_
Module: /mnt/sda5/.user/root/src/openwatcom-1.9/bld/clib/library/os2.386/mf_rd/clib3r.lib(/mnt/sda5/.user/root/src/openwatcom-1.9/bld/clib/math/c/imaxdiv.c)
0002:000123c0  imaxdiv_
Module: /mnt/sda5/.user/root/src/openwatcom-1.9/bld/clib/library/os2.386/mf_rd/clib3r.lib(/mnt/sda5/.user/root/src/openwatcom-1.9/bld/clib/math/c/labs.c)
0002:00012430  labs_
Module: /mnt/sda5/.user/root/src/openwatcom-1.9/bld/clib/library/os2.386/mf_rd/clib3r.lib(/mnt/sda5/.user/root/src/openwatcom-1.9/bld/clib/math/c/llabs.c)
0002:00012460  llabs_
Module: /mnt/sda5/.user/root/src/openwatcom-1.9/bld/clib/library/os2.386/mf_rd/clib3r.lib(/mnt/sda5/.user/root/src/openwatcom-1.9/bld/clib/math/c/max.c)
0002:000124b0  max_
Module: /mnt/sda5/.user/root/src/openwatcom-1.9/bld/clib/library/os2.386/mf_rd/clib3r.lib(/mnt/sda5/.user/root/src/openwatcom-1.9/bld/clib/math/c/min.c)
0002:000124f0  min_
Module: /mnt/sda5/.user/root/src/openwatcom-1.9/bld/clib/library/os2.386/mf_rd/clib3r.lib(/mnt/sda5/.user/root/src/openwatcom-1.9/bld/clib/math/c/rand.c)
0002:00012530  rand_
0002:00012590  srand_
Module: /mnt/sda5/.user/root/src/openwatcom-1.9/bld/clib/library/os2.386/mf_rd/clib3r.lib(/mnt/sda5/.user/root/src/openwatcom-1.9/bld/clib/mbyte/c/btowc.c)
0002:000125d0  btowc_
Module: /mnt/sda5/.user/root/src/openwatcom-1.9/bld/clib/library/os2.386/mf_rd/clib3r.lib(/mnt/sda5/.user/root/src/openwatcom-1.9/bld/clib/mbyte/c/fmbccmp.c)
0002:00012630  _fmbccmp_
Module: /mnt/sda5/.user/root/src/openwatcom-1.9/bld/clib/library/os2.386/mf_rd/clib3r.lib(/mnt/sda5/.user/root/src/openwatcom-1.9/bld/clib/mbyte/c/fmbccpy.c)
0002:000126e0  _fmbccpy_
Module: /mnt/sda5/.user/root/src/openwatcom-1.9/bld/clib/library/os2.386/mf_rd/clib3r.lib(/mnt/sda5/.user/root/src/openwatcom-1.9/bld/clib/mbyte/c/fmbcicmp.c)
0002:00012770  _fmbcicmp_
Module: /mnt/sda5/.user/root/src/openwatcom-1.9/bld/clib/library/os2.386/mf_rd/clib3r.lib(/mnt/sda5/.user/root/src/openwatcom-1.9/bld/clib/mbyte/c/fmbclen.c)
0002:00012800  _fmbclen_
Module: /mnt/sda5/.user/root/src/openwatcom-1.9/bld/clib/library/os2.386/mf_rd/clib3r.lib(/mnt/sda5/.user/root/src/openwatcom-1.9/bld/clib/mbyte/c/fmbconv.c)
0002:00012870  _fmbvtop_
Module: /mnt/sda5/.user/root/src/openwatcom-1.9/bld/clib/library/os2.386/mf_rd/clib3r.lib(/mnt/sda5/.user/root/src/openwatcom-1.9/bld/clib/mbyte/c/fmbgetco.c)
0002:000128e0  _fmbgetcode_
Module: /mnt/sda5/.user/root/src/openwatcom-1.9/bld/clib/library/os2.386/mf_rd/clib3r.lib(/mnt/sda5/.user/root/src/openwatcom-1.9/bld/clib/mbyte/c/fmblen.c)
0002:000129f0  _fmblen_
Module: /mnt/sda5/.user/root/src/openwatcom-1.9/bld/clib/library/os2.386/mf_rd/clib3r.lib(/mnt/sda5/.user/root/src/openwatcom-1.9/bld/clib/mbyte/c/fmbputch.c)
0002:00012a30  _fmbputchar_
Module: /mnt/sda5/.user/root/src/openwatcom-1.9/bld/clib/library/os2.386/mf_rd/clib3r.lib(/mnt/sda5/.user/root/src/openwatcom-1.9/bld/clib/mbyte/c/fmbrlen.c)
0002:00012ad0  _fmbrlen_
Module: /mnt/sda5/.user/root/src/openwatcom-1.9/bld/clib/library/os2.386/mf_rd/clib3r.lib(/mnt/sda5/.user/root/src/openwatcom-1.9/bld/clib/mbyte/c/fmbrtowc.c)
0002:00012b20  _fmbrtowc_
Module: /mnt/sda5/.user/root/src/openwatcom-1.9/bld/clib/library/os2.386/mf_rd/clib3r.lib(/mnt/sda5/.user/root/src/openwatcom-1.9/bld/clib/mbyte/c/fmbsbtyp.c)
0002:00012c00  _fmbsbtype_
Module: /mnt/sda5/.user/root/src/openwatcom-1.9/bld/clib/library/os2.386/mf_rd/clib3r.lib(/mnt/sda5/.user/root/src/openwatcom-1.9/bld/clib/mbyte/c/fmbscat.c)
0002:00012c80  _fmbscat_
Module: /mnt/sda5/.user/root/src/openwatcom-1.9/bld/clib/library/os2.386/mf_rd/clib3r.lib(/mnt/sda5/.user/root/src/openwatcom-1.9/bld/clib/mbyte/c/fmbschr.c)
0002:00012cd0  _fmbschr_
Module: /mnt/sda5/.user/root/src/openwatcom-1.9/bld/clib/library/os2.386/mf_rd/clib3r.lib(/mnt/sda5/.user/root/src/openwatcom-1.9/bld/clib/mbyte/c/fmbscmp.c)
0002:00012da0  _fmbscmp_
Module: /mnt/sda5/.user/root/src/openwatcom-1.9/bld/clib/library/os2.386/mf_rd/clib3r.lib(/mnt/sda5/.user/root/src/openwatcom-1.9/bld/clib/mbyte/c/fmbscpy.c)
0002:00012ea0  _fmbscpy_
Module: /mnt/sda5/.user/root/src/openwatcom-1.9/bld/clib/library/os2.386/mf_rd/clib3r.lib(/mnt/sda5/.user/root/src/openwatcom-1.9/bld/clib/mbyte/c/fmbscspn.c)
0002:00012ef0  _fmbscspn_
Module: /mnt/sda5/.user/root/src/openwatcom-1.9/bld/clib/library/os2.386/mf_rd/clib3r.lib(/mnt/sda5/.user/root/src/openwatcom-1.9/bld/clib/mbyte/c/fmbsdup.c)
0002:00012f90  _fmbsdup_
Module: /mnt/sda5/.user/root/src/openwatcom-1.9/bld/clib/library/os2.386/mf_rd/clib3r.lib(/mnt/sda5/.user/root/src/openwatcom-1.9/bld/clib/mbyte/c/fmbsdec.c)
0002:00013010  _fmbsdec_
Module: /mnt/sda5/.user/root/src/openwatcom-1.9/bld/clib/library/os2.386/mf_rd/clib3r.lib(/mnt/sda5/.user/root/src/openwatcom-1.9/bld/clib/mbyte/c/fmbsicmp.c)
0002:00013120  _fmbsicmp_
Module: /mnt/sda5/.user/root/src/openwatcom-1.9/bld/clib/library/os2.386/mf_rd/clib3r.lib(/mnt/sda5/.user/root/src/openwatcom-1.9/bld/clib/mbyte/c/fmbsinc.c)
0002:00013220  _fmbsinc_
Module: /mnt/sda5/.user/root/src/openwatcom-1.9/bld/clib/library/os2.386/mf_rd/clib3r.lib(/mnt/sda5/.user/root/src/openwatcom-1.9/bld/clib/mbyte/c/_fmbslen.c)
0002:000132b0  __fmbslen_
Module: /mnt/sda5/.user/root/src/openwatcom-1.9/bld/clib/library/os2.386/mf_rd/clib3r.lib(/mnt/sda5/.user/root/src/openwatcom-1.9/bld/clib/mbyte/c/fmbslen.c)
0002:00013370  _fmbslen_
Module: /mnt/sda5/.user/root/src/openwatcom-1.9/bld/clib/library/os2.386/mf_rd/clib3r.lib(/mnt/sda5/.user/root/src/openwatcom-1.9/bld/clib/mbyte/c/fmbslwr.c)
0002:000133e0  _fmbslwr_
Module: /mnt/sda5/.user/root/src/openwatcom-1.9/bld/clib/library/os2.386/mf_rd/clib3r.lib(/mnt/sda5/.user/root/src/openwatcom-1.9/bld/clib/mbyte/c/fmbsnbca.c)
0002:000134c0  _fmbsnbcat_
Module: /mnt/sda5/.user/root/src/openwatcom-1.9/bld/clib/library/os2.386/mf_rd/clib3r.lib(/mnt/sda5/.user/root/src/openwatcom-1.9/bld/clib/mbyte/c/fmbsnbcm.c)
0002:000136b0  _fmbsnbcmp_
Module: /mnt/sda5/.user/root/src/openwatcom-1.9/bld/clib/library/os2.386/mf_rd/clib3r.lib(/mnt/sda5/.user/root/src/openwatcom-1.9/bld/clib/mbyte/c/fmbsnbcn.c)
0002:000137d0  _fmbsnbcnt_
Module: /mnt/sda5/.user/root/src/openwatcom-1.9/bld/clib/library/os2.386/mf_rd/clib3r.lib(/mnt/sda5/.user/root/src/openwatcom-1.9/bld/clib/mbyte/c/fmbsnbcp.c)
0002:000138b0  _fmbsnbcpy_
Module: /mnt/sda5/.user/root/src/openwatcom-1.9/bld/clib/library/os2.386/mf_rd/clib3r.lib(/mnt/sda5/.user/root/src/openwatcom-1.9/bld/clib/mbyte/c/fmbsnbic.c)
0002:000139b0  _fmbsnbicmp_
Module: /mnt/sda5/.user/root/src/openwatcom-1.9/bld/clib/library/os2.386/mf_rd/clib3r.lib(/mnt/sda5/.user/root/src/openwatcom-1.9/bld/clib/mbyte/c/fmbsnbst.c)
0002:00013ad0  _fmbsnbset_
Module: /mnt/sda5/.user/root/src/openwatcom-1.9/bld/clib/library/os2.386/mf_rd/clib3r.lib(/mnt/sda5/.user/root/src/openwatcom-1.9/bld/clib/mbyte/c/fmbsncat.c)
0002:00013ba0  _fmbsncat_
Module: /mnt/sda5/.user/root/src/openwatcom-1.9/bld/clib/library/os2.386/mf_rd/clib3r.lib(/mnt/sda5/.user/root/src/openwatcom-1.9/bld/clib/mbyte/c/fmbsnccn.c)
0002:00013c40  _fmbsnccnt_
Module: /mnt/sda5/.user/root/src/openwatcom-1.9/bld/clib/library/os2.386/mf_rd/clib3r.lib(/mnt/sda5/.user/root/src/openwatcom-1.9/bld/clib/mbyte/c/fmbsncmp.c)
0002:00013cd0  _fmbsncmp_
Module: /mnt/sda5/.user/root/src/openwatcom-1.9/bld/clib/library/os2.386/mf_rd/clib3r.lib(/mnt/sda5/.user/root/src/openwatcom-1.9/bld/clib/mbyte/c/fmbsncpy.c)
0002:00013df0  _fmbsncpy_
Module: /mnt/sda5/.user/root/src/openwatcom-1.9/bld/clib/library/os2.386/mf_rd/clib3r.lib(/mnt/sda5/.user/root/src/openwatcom-1.9/bld/clib/mbyte/c/fmbsnxtc.c)
0002:00013e60  _fmbsnextc_
Module: /mnt/sda5/.user/root/src/openwatcom-1.9/bld/clib/library/os2.386/mf_rd/clib3r.lib(/mnt/sda5/.user/root/src/openwatcom-1.9/bld/clib/mbyte/c/fmbsnicm.c)
0002:00013ee0  _fmbsnicmp_
Module: /mnt/sda5/.user/root/src/openwatcom-1.9/bld/clib/library/os2.386/mf_rd/clib3r.lib(/mnt/sda5/.user/root/src/openwatcom-1.9/bld/clib/mbyte/c/_fmbsnin.c)
0002:00013fd0  __fmbsninc_
Module: /mnt/sda5/.user/root/src/openwatcom-1.9/bld/clib/library/os2.386/mf_rd/clib3r.lib(/mnt/sda5/.user/root/src/openwatcom-1.9/bld/clib/mbyte/c/fmbsninc.c)
0002:00014090  _fmbsninc_
Module: /mnt/sda5/.user/root/src/openwatcom-1.9/bld/clib/library/os2.386/mf_rd/clib3r.lib(/mnt/sda5/.user/root/src/openwatcom-1.9/bld/clib/mbyte/c/fmbsnset.c)
0002:00014110  _fmbsnset_
Module: /mnt/sda5/.user/root/src/openwatcom-1.9/bld/clib/library/os2.386/mf_rd/clib3r.lib(/mnt/sda5/.user/root/src/openwatcom-1.9/bld/clib/mbyte/c/fmbspbrk.c)
0002:000141b0  _fmbspbrk_
Module: /mnt/sda5/.user/root/src/openwatcom-1.9/bld/clib/library/os2.386/mf_rd/clib3r.lib(/mnt/sda5/.user/root/src/openwatcom-1.9/bld/clib/mbyte/c/fmbsrchr.c)
0002:00014250  _fmbsrchr_
Module: /mnt/sda5/.user/root/src/openwatcom-1.9/bld/clib/library/os2.386/mf_rd/clib3r.lib(/mnt/sda5/.user/root/src/openwatcom-1.9/bld/clib/mbyte/c/fmbsrev.c)
0002:00014300  _fmbsrev_
Module: /mnt/sda5/.user/root/src/openwatcom-1.9/bld/clib/library/os2.386/mf_rd/clib3r.lib(/mnt/sda5/.user/root/src/openwatcom-1.9/bld/clib/mbyte/c/fmbsrtow.c)
0002:00014480  _fmbsrtowcs_
Module: /mnt/sda5/.user/root/src/openwatcom-1.9/bld/clib/library/os2.386/mf_rd/clib3r.lib(/mnt/sda5/.user/root/src/openwatcom-1.9/bld/clib/mbyte/c/fmbsrt_s.c)
0002:000146b0  _fmbsrtowcs_s_
Module: /mnt/sda5/.user/root/src/openwatcom-1.9/bld/clib/library/os2.386/mf_rd/clib3r.lib(/mnt/sda5/.user/root/src/openwatcom-1.9/bld/clib/mbyte/c/fmbsset.c)
0002:00014b20  _fmbsset_
Module: /mnt/sda5/.user/root/src/openwatcom-1.9/bld/clib/library/os2.386/mf_rd/clib3r.lib(/mnt/sda5/.user/root/src/openwatcom-1.9/bld/clib/mbyte/c/fmbsspn.c)
0002:00014b80  _fmbsspn_
Module: /mnt/sda5/.user/root/src/openwatcom-1.9/bld/clib/library/os2.386/mf_rd/clib3r.lib(/mnt/sda5/.user/root/src/openwatcom-1.9/bld/clib/mbyte/c/fmbsspnp.c)
0002:00014c20  _fmbsspnp_
Module: /mnt/sda5/.user/root/src/openwatcom-1.9/bld/clib/library/os2.386/mf_rd/clib3r.lib(/mnt/sda5/.user/root/src/openwatcom-1.9/bld/clib/mbyte/c/fmbsstr.c)
0002:00014cc0  _fmbsstr_
Module: /mnt/sda5/.user/root/src/openwatcom-1.9/bld/clib/library/os2.386/mf_rd/clib3r.lib(/mnt/sda5/.user/root/src/openwatcom-1.9/bld/clib/mbyte/c/fmbstok.c)
0002:00014d70  _fmbstok_
Module: /mnt/sda5/.user/root/src/openwatcom-1.9/bld/clib/library/os2.386/mf_rd/clib3r.lib(/mnt/sda5/.user/root/src/openwatcom-1.9/bld/clib/mbyte/c/fmbsto_s.c)
0002:00015010  _fmbstowcs_s_
Module: /mnt/sda5/.user/root/src/openwatcom-1.9/bld/clib/library/os2.386/mf_rd/clib3r.lib(/mnt/sda5/.user/root/src/openwatcom-1.9/bld/clib/mbyte/c/fmbstowc.c)
0002:00015370  _fmbstowcs_
Module: /mnt/sda5/.user/root/src/openwatcom-1.9/bld/clib/library/os2.386/mf_rd/clib3r.lib(/mnt/sda5/.user/root/src/openwatcom-1.9/bld/clib/mbyte/c/fmbsupr.c)
0002:000154b0  _fmbsupr_
Module: /mnt/sda5/.user/root/src/openwatcom-1.9/bld/clib/library/os2.386/mf_rd/clib3r.lib(/mnt/sda5/.user/root/src/openwatcom-1.9/bld/clib/mbyte/c/fmbterm.c)
0002:00015590  _fmbterm_
Module: /mnt/sda5/.user/root/src/openwatcom-1.9/bld/clib/library/os2.386/mf_rd/clib3r.lib(/mnt/sda5/.user/root/src/openwatcom-1.9/bld/clib/mbyte/c/fmbtowc.c)
0002:00015620  _fmbtowc_
Module: /mnt/sda5/.user/root/src/openwatcom-1.9/bld/clib/library/os2.386/mf_rd/clib3r.lib(/mnt/sda5/.user/root/src/openwatcom-1.9/bld/clib/mbyte/c/fwcrtomb.c)
0002:000157e0  _fwcrtomb_
Module: /mnt/sda5/.user/root/src/openwatcom-1.9/bld/clib/library/os2.386/mf_rd/clib3r.lib(/mnt/sda5/.user/root/src/openwatcom-1.9/bld/clib/mbyte/c/fwcrto_s.c)
0002:000158b0  _fwcrtomb_s_
Module: /mnt/sda5/.user/root/src/openwatcom-1.9/bld/clib/library/os2.386/mf_rd/clib3r.lib(/mnt/sda5/.user/root/src/openwatcom-1.9/bld/clib/mbyte/c/fwcsrtom.c)
0002:00015aa0  _fwcsrtombs_
Module: /mnt/sda5/.user/root/src/openwatcom-1.9/bld/clib/library/os2.386/mf_rd/clib3r.lib(/mnt/sda5/.user/root/src/openwatcom-1.9/bld/clib/mbyte/c/fwcstomb.c)
0002:00015c70  _fwcstombs_
Module: /mnt/sda5/.user/root/src/openwatcom-1.9/bld/clib/library/os2.386/mf_rd/clib3r.lib(/mnt/sda5/.user/root/src/openwatcom-1.9/bld/clib/mbyte/c/fwcsto_s.c)
0002:00015e30  _fwcstombs_s_
Module: /mnt/sda5/.user/root/src/openwatcom-1.9/bld/clib/library/os2.386/mf_rd/clib3r.lib(/mnt/sda5/.user/root/src/openwatcom-1.9/bld/clib/mbyte/c/fwctomb.c)
0002:00016170  _fwctomb_
Module: /mnt/sda5/.user/root/src/openwatcom-1.9/bld/clib/library/os2.386/mf_rd/clib3r.lib(/mnt/sda5/.user/root/src/openwatcom-1.9/bld/clib/mbyte/c/fwctom_s.c)
0002:00016220  _fwctomb_s_
Module: /mnt/sda5/.user/root/src/openwatcom-1.9/bld/clib/library/os2.386/mf_rd/clib3r.lib(/mnt/sda5/.user/root/src/openwatcom-1.9/bld/clib/mbyte/c/getmbcp.c)
0002:00016370  _getmbcp_
Module: /mnt/sda5/.user/root/src/openwatcom-1.9/bld/clib/library/os2.386/mf_rd/clib3r.lib(/mnt/sda5/.user/root/src/openwatcom-1.9/bld/clib/mbyte/c/ismbbaln.c)
0002:000163b0  _ismbbalnum_
Module: /mnt/sda5/.user/root/src/openwatcom-1.9/bld/clib/library/os2.386/mf_rd/clib3r.lib(/mnt/sda5/.user/root/src/openwatcom-1.9/bld/clib/mbyte/c/ismbbalp.c)
0002:00016420  _ismbbalpha_
Module: /mnt/sda5/.user/root/src/openwatcom-1.9/bld/clib/library/os2.386/mf_rd/clib3r.lib(/mnt/sda5/.user/root/src/openwatcom-1.9/bld/clib/mbyte/c/ismbbgra.c)
0002:00016490  _ismbbgraph_
Module: /mnt/sda5/.user/root/src/openwatcom-1.9/bld/clib/library/os2.386/mf_rd/clib3r.lib(/mnt/sda5/.user/root/src/openwatcom-1.9/bld/clib/mbyte/c/ismbbkal.c)
0002:00016500  _ismbbkalpha_
Module: /mnt/sda5/.user/root/src/openwatcom-1.9/bld/clib/library/os2.386/mf_rd/clib3r.lib(/mnt/sda5/.user/root/src/openwatcom-1.9/bld/clib/mbyte/c/ismbbkan.c)
0002:00016550  _ismbbkana_
Module: /mnt/sda5/.user/root/src/openwatcom-1.9/bld/clib/library/os2.386/mf_rd/clib3r.lib(/mnt/sda5/.user/root/src/openwatcom-1.9/bld/clib/mbyte/c/ismbbkpu.c)
0002:000165a0  _ismbbkpunct_
Module: /mnt/sda5/.user/root/src/openwatcom-1.9/bld/clib/library/os2.386/mf_rd/clib3r.lib(/mnt/sda5/.user/root/src/openwatcom-1.9/bld/clib/mbyte/c/ismbbkpr.c)
0002:000165f0  _ismbbkprint_
Module: /mnt/sda5/.user/root/src/openwatcom-1.9/bld/clib/library/os2.386/mf_rd/clib3r.lib(/mnt/sda5/.user/root/src/openwatcom-1.9/bld/clib/mbyte/c/ismbbpri.c)
0002:00016640  _ismbbprint_
Module: /mnt/sda5/.user/root/src/openwatcom-1.9/bld/clib/library/os2.386/mf_rd/clib3r.lib(/mnt/sda5/.user/root/src/openwatcom-1.9/bld/clib/mbyte/c/ismbbpun.c)
0002:000166b0  _ismbbpunct_
Module: /mnt/sda5/.user/root/src/openwatcom-1.9/bld/clib/library/os2.386/mf_rd/clib3r.lib(/mnt/sda5/.user/root/src/openwatcom-1.9/bld/clib/mbyte/c/ismbchir.c)
0002:00016720  _ismbchira_
Module: /mnt/sda5/.user/root/src/openwatcom-1.9/bld/clib/library/os2.386/mf_rd/clib3r.lib(/mnt/sda5/.user/root/src/openwatcom-1.9/bld/clib/mbyte/c/ismbckat.c)
0002:00016760  _ismbckata_
Module: /mnt/sda5/.user/root/src/openwatcom-1.9/bld/clib/library/os2.386/mf_rd/clib3r.lib(/mnt/sda5/.user/root/src/openwatcom-1.9/bld/clib/mbyte/c/mbbtombc.c)
0002:000167a0  _mbbtombc_
Module: /mnt/sda5/.user/root/src/openwatcom-1.9/bld/clib/library/os2.386/mf_rd/clib3r.lib(/mnt/sda5/.user/root/src/openwatcom-1.9/bld/clib/mbyte/c/mbctombb.c)
0002:000167e0  _mbctombb_
Module: /mnt/sda5/.user/root/src/openwatcom-1.9/bld/clib/library/os2.386/mf_rd/clib3r.lib(/mnt/sda5/.user/root/src/openwatcom-1.9/bld/clib/mbyte/c/mbbtype.c)
0002:00016820  _mbbtype_
Module: /mnt/sda5/.user/root/src/openwatcom-1.9/bld/clib/library/os2.386/mf_rd/clib3r.lib(/mnt/sda5/.user/root/src/openwatcom-1.9/bld/clib/mbyte/c/mbccmp.c)
0002:00016970  _mbccmp_
Module: /mnt/sda5/.user/root/src/openwatcom-1.9/bld/clib/library/os2.386/mf_rd/clib3r.lib(/mnt/sda5/.user/root/src/openwatcom-1.9/bld/clib/mbyte/c/mbccpy.c)
0002:00016a00  _mbccpy_
Module: /mnt/sda5/.user/root/src/openwatcom-1.9/bld/clib/library/os2.386/mf_rd/clib3r.lib(/mnt/sda5/.user/root/src/openwatcom-1.9/bld/clib/mbyte/c/mbcicmp.c)
0002:00016a70  _mbcicmp_
Module: /mnt/sda5/.user/root/src/openwatcom-1.9/bld/clib/library/os2.386/mf_rd/clib3r.lib(/mnt/sda5/.user/root/src/openwatcom-1.9/bld/clib/mbyte/c/mbclen.c)
0002:00016af0  _mbclen_
Module: /mnt/sda5/.user/root/src/openwatcom-1.9/bld/clib/library/os2.386/mf_rd/clib3r.lib(/mnt/sda5/.user/root/src/openwatcom-1.9/bld/clib/mbyte/c/mbclower.c)
0002:00016b60  _mbctolower_
Module: /mnt/sda5/.user/root/src/openwatcom-1.9/bld/clib/library/os2.386/mf_rd/clib3r.lib(/mnt/sda5/.user/root/src/openwatcom-1.9/bld/clib/mbyte/c/mbconv.c)
0002:00016bf0  _mbvtop_
Module: /mnt/sda5/.user/root/src/openwatcom-1.9/bld/clib/library/os2.386/mf_rd/clib3r.lib(/mnt/sda5/.user/root/src/openwatcom-1.9/bld/clib/mbyte/c/mbcupper.c)
0002:00016c40  _mbctoupper_
Module: /mnt/sda5/.user/root/src/openwatcom-1.9/bld/clib/library/os2.386/mf_rd/clib3r.lib(/mnt/sda5/.user/root/src/openwatcom-1.9/bld/clib/mbyte/c/mbgetcod.c)
0002:00016ca0  _mbgetcode_
Module: /mnt/sda5/.user/root/src/openwatcom-1.9/bld/clib/library/os2.386/mf_rd/clib3r.lib(/mnt/sda5/.user/root/src/openwatcom-1.9/bld/clib/mbyte/c/mbisalnu.c)
0002:00016d70  _ismbcalnum_
Module: /mnt/sda5/.user/root/src/openwatcom-1.9/bld/clib/library/os2.386/mf_rd/clib3r.lib(/mnt/sda5/.user/root/src/openwatcom-1.9/bld/clib/mbyte/c/mbisalph.c)
0002:00016dc0  _ismbcalpha_
Module: /mnt/sda5/.user/root/src/openwatcom-1.9/bld/clib/library/os2.386/mf_rd/clib3r.lib(/mnt/sda5/.user/root/src/openwatcom-1.9/bld/clib/mbyte/c/mbiscntr.c)
0002:00016e60  _ismbccntrl_
Module: /mnt/sda5/.user/root/src/openwatcom-1.9/bld/clib/library/os2.386/mf_rd/clib3r.lib(/mnt/sda5/.user/root/src/openwatcom-1.9/bld/clib/mbyte/c/mbisdbcs.c)
0003:000010c4  ___IsDBCS
Module: /mnt/sda5/.user/root/src/openwatcom-1.9/bld/clib/library/os2.386/mf_rd/clib3r.lib(/mnt/sda5/.user/root/src/openwatcom-1.9/bld/clib/mbyte/c/mbisdigi.c)
0002:00016eb0  _ismbcdigit_
Module: /mnt/sda5/.user/root/src/openwatcom-1.9/bld/clib/library/os2.386/mf_rd/clib3r.lib(/mnt/sda5/.user/root/src/openwatcom-1.9/bld/clib/mbyte/c/mbisgrap.c)
0002:00016f10  _ismbcgraph_
Module: /mnt/sda5/.user/root/src/openwatcom-1.9/bld/clib/library/os2.386/mf_rd/clib3r.lib(/mnt/sda5/.user/root/src/openwatcom-1.9/bld/clib/mbyte/c/mbislead.c)
0002:00016f60  _ismbblead_
0003:000010c8  ___MBCSIsTable
Module: /mnt/sda5/.user/root/src/openwatcom-1.9/bld/clib/library/os2.386/mf_rd/clib3r.lib(/mnt/sda5/.user/root/src/openwatcom-1.9/bld/clib/mbyte/c/mbislegl.c)
0002:00016fb0  _ismbclegal_
Module: /mnt/sda5/.user/root/src/openwatcom-1.9/bld/clib/library/os2.386/mf_rd/clib3r.lib(/mnt/sda5/.user/root/src/openwatcom-1.9/bld/clib/mbyte/c/mbislowe.c)
0002:00017030  _ismbclower_
Module: /mnt/sda5/.user/root/src/openwatcom-1.9/bld/clib/library/os2.386/mf_rd/clib3r.lib(/mnt/sda5/.user/root/src/openwatcom-1.9/bld/clib/mbyte/c/mbisprin.c)
0002:00017090  _ismbcprint_
Module: /mnt/sda5/.user/root/src/openwatcom-1.9/bld/clib/library/os2.386/mf_rd/clib3r.lib(/mnt/sda5/.user/root/src/openwatcom-1.9/bld/clib/mbyte/c/mbispunc.c)
0002:000170f0  _ismbcpunct_
Module: /mnt/sda5/.user/root/src/openwatcom-1.9/bld/clib/library/os2.386/mf_rd/clib3r.lib(/mnt/sda5/.user/root/src/openwatcom-1.9/bld/clib/mbyte/c/mbisspac.c)
0002:00017180  _ismbcspace_
Module: /mnt/sda5/.user/root/src/openwatcom-1.9/bld/clib/library/os2.386/mf_rd/clib3r.lib(/mnt/sda5/.user/root/src/openwatcom-1.9/bld/clib/mbyte/c/mbissymb.c)
0002:000171e0  _ismbcsymbol_
Module: /mnt/sda5/.user/root/src/openwatcom-1.9/bld/clib/library/os2.386/mf_rd/clib3r.lib(/mnt/sda5/.user/root/src/openwatcom-1.9/bld/clib/mbyte/c/mbistrai.c)
0002:00017250  _ismbbtrail_
Module: /mnt/sda5/.user/root/src/openwatcom-1.9/bld/clib/library/os2.386/mf_rd/clib3r.lib(/mnt/sda5/.user/root/src/openwatcom-1.9/bld/clib/mbyte/c/mbisuppe.c)
0002:000172c0  _ismbcupper_
Module: /mnt/sda5/.user/root/src/openwatcom-1.9/bld/clib/library/os2.386/mf_rd/clib3r.lib(/mnt/sda5/.user/root/src/openwatcom-1.9/bld/clib/mbyte/c/mbisxdig.c)
0002:00017320  _ismbcxdigit_
Module: /mnt/sda5/.user/root/src/openwatcom-1.9/bld/clib/library/os2.386/mf_rd/clib3r.lib(/mnt/sda5/.user/root/src/openwatcom-1.9/bld/clib/mbyte/c/mblen.c)
0002:00017380  mblen_
Module: /mnt/sda5/.user/root/src/openwatcom-1.9/bld/clib/library/os2.386/mf_rd/clib3r.lib(/mnt/sda5/.user/root/src/openwatcom-1.9/bld/clib/mbyte/c/mbputchr.c)
0002:000173b0  _mbputchar_
Module: /mnt/sda5/.user/root/src/openwatcom-1.9/bld/clib/library/os2.386/mf_rd/clib3r.lib(/mnt/sda5/.user/root/src/openwatcom-1.9/bld/clib/mbyte/c/mbrlen.c)
0002:00017420  mbrlen_
Module: /mnt/sda5/.user/root/src/openwatcom-1.9/bld/clib/library/os2.386/mf_rd/clib3r.lib(/mnt/sda5/.user/root/src/openwatcom-1.9/bld/clib/mbyte/c/mbrtowc.c)
0002:00017460  mbrtowc_
Module: /mnt/sda5/.user/root/src/openwatcom-1.9/bld/clib/library/os2.386/mf_rd/clib3r.lib(/mnt/sda5/.user/root/src/openwatcom-1.9/bld/clib/mbyte/c/mbsbtype.c)
0002:00017520  _mbsbtype_
Module: /mnt/sda5/.user/root/src/openwatcom-1.9/bld/clib/library/os2.386/mf_rd/clib3r.lib(/mnt/sda5/.user/root/src/openwatcom-1.9/bld/clib/mbyte/c/mbscat.c)
0002:00017590  _mbscat_
Module: /mnt/sda5/.user/root/src/openwatcom-1.9/bld/clib/library/os2.386/mf_rd/clib3r.lib(/mnt/sda5/.user/root/src/openwatcom-1.9/bld/clib/mbyte/c/mbschr.c)
0002:000175c0  _mbschr_
Module: /mnt/sda5/.user/root/src/openwatcom-1.9/bld/clib/library/os2.386/mf_rd/clib3r.lib(/mnt/sda5/.user/root/src/openwatcom-1.9/bld/clib/mbyte/c/mbscmp.c)
0002:00017650  _mbscmp_
Module: /mnt/sda5/.user/root/src/openwatcom-1.9/bld/clib/library/os2.386/mf_rd/clib3r.lib(/mnt/sda5/.user/root/src/openwatcom-1.9/bld/clib/mbyte/c/mbscpy.c)
0002:00017700  _mbscpy_
Module: /mnt/sda5/.user/root/src/openwatcom-1.9/bld/clib/library/os2.386/mf_rd/clib3r.lib(/mnt/sda5/.user/root/src/openwatcom-1.9/bld/clib/mbyte/c/mbscspn.c)
0002:00017730  _mbscspn_
Module: /mnt/sda5/.user/root/src/openwatcom-1.9/bld/clib/library/os2.386/mf_rd/clib3r.lib(/mnt/sda5/.user/root/src/openwatcom-1.9/bld/clib/mbyte/c/mbsdec.c)
0002:00017790  _mbsdec_
Module: /mnt/sda5/.user/root/src/openwatcom-1.9/bld/clib/library/os2.386/mf_rd/clib3r.lib(/mnt/sda5/.user/root/src/openwatcom-1.9/bld/clib/mbyte/c/mbsdup.c)
0002:00017870  _mbsdup_
Module: /mnt/sda5/.user/root/src/openwatcom-1.9/bld/clib/library/os2.386/mf_rd/clib3r.lib(/mnt/sda5/.user/root/src/openwatcom-1.9/bld/clib/mbyte/c/mbsicmp.c)
0002:000178c0  _mbsicmp_
Module: /mnt/sda5/.user/root/src/openwatcom-1.9/bld/clib/library/os2.386/mf_rd/clib3r.lib(/mnt/sda5/.user/root/src/openwatcom-1.9/bld/clib/mbyte/c/mbsinc.c)
0002:00017970  _mbsinc_
Module: /mnt/sda5/.user/root/src/openwatcom-1.9/bld/clib/library/os2.386/mf_rd/clib3r.lib(/mnt/sda5/.user/root/src/openwatcom-1.9/bld/clib/mbyte/c/mbsinit.c)
0002:000179e0  mbsinit_
Module: /mnt/sda5/.user/root/src/openwatcom-1.9/bld/clib/library/os2.386/mf_rd/clib3r.lib(/mnt/sda5/.user/root/src/openwatcom-1.9/bld/clib/mbyte/c/_mbslen.c)
0002:00017a20  __mbslen_
Module: /mnt/sda5/.user/root/src/openwatcom-1.9/bld/clib/library/os2.386/mf_rd/clib3r.lib(/mnt/sda5/.user/root/src/openwatcom-1.9/bld/clib/mbyte/c/mbslen.c)
0002:00017ac0  _mbslen_
Module: /mnt/sda5/.user/root/src/openwatcom-1.9/bld/clib/library/os2.386/mf_rd/clib3r.lib(/mnt/sda5/.user/root/src/openwatcom-1.9/bld/clib/mbyte/c/mbslwr.c)
0002:00017b10  _mbslwr_
Module: /mnt/sda5/.user/root/src/openwatcom-1.9/bld/clib/library/os2.386/mf_rd/clib3r.lib(/mnt/sda5/.user/root/src/openwatcom-1.9/bld/clib/mbyte/c/mbsnbcat.c)
0002:00017b90  _mbsnbcat_
Module: /mnt/sda5/.user/root/src/openwatcom-1.9/bld/clib/library/os2.386/mf_rd/clib3r.lib(/mnt/sda5/.user/root/src/openwatcom-1.9/bld/clib/mbyte/c/mbsnbcmp.c)
0002:00017cc0  _mbsnbcmp_
Module: /mnt/sda5/.user/root/src/openwatcom-1.9/bld/clib/library/os2.386/mf_rd/clib3r.lib(/mnt/sda5/.user/root/src/openwatcom-1.9/bld/clib/mbyte/c/mbsnbcnt.c)
0002:00017d90  _mbsnbcnt_
Module: /mnt/sda5/.user/root/src/openwatcom-1.9/bld/clib/library/os2.386/mf_rd/clib3r.lib(/mnt/sda5/.user/root/src/openwatcom-1.9/bld/clib/mbyte/c/mbsnbcpy.c)
0002:00017e50  _mbsnbcpy_
Module: /mnt/sda5/.user/root/src/openwatcom-1.9/bld/clib/library/os2.386/mf_rd/clib3r.lib(/mnt/sda5/.user/root/src/openwatcom-1.9/bld/clib/mbyte/c/mbsnbicm.c)
0002:00017f00  _mbsnbicmp_
Module: /mnt/sda5/.user/root/src/openwatcom-1.9/bld/clib/library/os2.386/mf_rd/clib3r.lib(/mnt/sda5/.user/root/src/openwatcom-1.9/bld/clib/mbyte/c/mbsnbset.c)
0002:00017fd0  _mbsnbset_
Module: /mnt/sda5/.user/root/src/openwatcom-1.9/bld/clib/library/os2.386/mf_rd/clib3r.lib(/mnt/sda5/.user/root/src/openwatcom-1.9/bld/clib/mbyte/c/mbsncat.c)
0002:00018050  _mbsncat_
Module: /mnt/sda5/.user/root/src/openwatcom-1.9/bld/clib/library/os2.386/mf_rd/clib3r.lib(/mnt/sda5/.user/root/src/openwatcom-1.9/bld/clib/mbyte/c/mbsnccnt.c)
0002:000180b0  _mbsnccnt_
Module: /mnt/sda5/.user/root/src/openwatcom-1.9/bld/clib/library/os2.386/mf_rd/clib3r.lib(/mnt/sda5/.user/root/src/openwatcom-1.9/bld/clib/mbyte/c/mbsncmp.c)
0002:00018120  _mbsncmp_
Module: /mnt/sda5/.user/root/src/openwatcom-1.9/bld/clib/library/os2.386/mf_rd/clib3r.lib(/mnt/sda5/.user/root/src/openwatcom-1.9/bld/clib/mbyte/c/mbsncpy.c)
0002:000181f0  _mbsncpy_
Module: /mnt/sda5/.user/root/src/openwatcom-1.9/bld/clib/library/os2.386/mf_rd/clib3r.lib(/mnt/sda5/.user/root/src/openwatcom-1.9/bld/clib/mbyte/c/mbsnextc.c)
0002:00018230  _mbsnextc_
Module: /mnt/sda5/.user/root/src/openwatcom-1.9/bld/clib/library/os2.386/mf_rd/clib3r.lib(/mnt/sda5/.user/root/src/openwatcom-1.9/bld/clib/mbyte/c/mbsnicmp.c)
0002:000182a0  _mbsnicmp_
Module: /mnt/sda5/.user/root/src/openwatcom-1.9/bld/clib/library/os2.386/mf_rd/clib3r.lib(/mnt/sda5/.user/root/src/openwatcom-1.9/bld/clib/mbyte/c/_mbsninc.c)
0002:00018350  __mbsninc_
Module: /mnt/sda5/.user/root/src/openwatcom-1.9/bld/clib/library/os2.386/mf_rd/clib3r.lib(/mnt/sda5/.user/root/src/openwatcom-1.9/bld/clib/mbyte/c/mbsninc.c)
0002:000183e0  _mbsninc_
Module: /mnt/sda5/.user/root/src/openwatcom-1.9/bld/clib/library/os2.386/mf_rd/clib3r.lib(/mnt/sda5/.user/root/src/openwatcom-1.9/bld/clib/mbyte/c/mbsnset.c)
0002:00018430  _mbsnset_
Module: /mnt/sda5/.user/root/src/openwatcom-1.9/bld/clib/library/os2.386/mf_rd/clib3r.lib(/mnt/sda5/.user/root/src/openwatcom-1.9/bld/clib/mbyte/c/mbspbrk.c)
0002:000184a0  _mbspbrk_
Module: /mnt/sda5/.user/root/src/openwatcom-1.9/bld/clib/library/os2.386/mf_rd/clib3r.lib(/mnt/sda5/.user/root/src/openwatcom-1.9/bld/clib/mbyte/c/mbsrchr.c)
0002:00018500  _mbsrchr_
Module: /mnt/sda5/.user/root/src/openwatcom-1.9/bld/clib/library/os2.386/mf_rd/clib3r.lib(/mnt/sda5/.user/root/src/openwatcom-1.9/bld/clib/mbyte/c/mbsrev.c)
0002:00018570  _mbsrev_
Module: /mnt/sda5/.user/root/src/openwatcom-1.9/bld/clib/library/os2.386/mf_rd/clib3r.lib(/mnt/sda5/.user/root/src/openwatcom-1.9/bld/clib/mbyte/c/mbsrtowc.c)
0002:00018640  mbsrtowcs_
Module: /mnt/sda5/.user/root/src/openwatcom-1.9/bld/clib/library/os2.386/mf_rd/clib3r.lib(/mnt/sda5/.user/root/src/openwatcom-1.9/bld/clib/mbyte/c/mbsrto_s.c)
0002:000187e0  mbsrtowcs_s_
Module: /mnt/sda5/.user/root/src/openwatcom-1.9/bld/clib/library/os2.386/mf_rd/clib3r.lib(/mnt/sda5/.user/root/src/openwatcom-1.9/bld/clib/mbyte/c/mbsset.c)
0002:00018b50  _mbsset_
Module: /mnt/sda5/.user/root/src/openwatcom-1.9/bld/clib/library/os2.386/mf_rd/clib3r.lib(/mnt/sda5/.user/root/src/openwatcom-1.9/bld/clib/mbyte/c/mbsspn.c)
0002:00018b90  _mbsspn_
Module: /mnt/sda5/.user/root/src/openwatcom-1.9/bld/clib/library/os2.386/mf_rd/clib3r.lib(/mnt/sda5/.user/root/src/openwatcom-1.9/bld/clib/mbyte/c/mbsspnp.c)
0002:00018bf0  _mbsspnp_
Module: /mnt/sda5/.user/root/src/openwatcom-1.9/bld/clib/library/os2.386/mf_rd/clib3r.lib(/mnt/sda5/.user/root/src/openwatcom-1.9/bld/clib/mbyte/c/mbsstr.c)
0002:00018c50  _mbsstr_
Module: /mnt/sda5/.user/root/src/openwatcom-1.9/bld/clib/library/os2.386/mf_rd/clib3r.lib(/mnt/sda5/.user/root/src/openwatcom-1.9/bld/clib/mbyte/c/mbstok.c)
0002:00018cc0  _mbstok_
Module: /mnt/sda5/.user/root/src/openwatcom-1.9/bld/clib/library/os2.386/mf_rd/clib3r.lib(/mnt/sda5/.user/root/src/openwatcom-1.9/bld/clib/mbyte/c/mbstow_s.c)
0002:00018e90  mbstowcs_s_
Module: /mnt/sda5/.user/root/src/openwatcom-1.9/bld/clib/library/os2.386/mf_rd/clib3r.lib(/mnt/sda5/.user/root/src/openwatcom-1.9/bld/clib/mbyte/c/mbstowcs.c)
0002:00019170  mbstowcs_
Module: /mnt/sda5/.user/root/src/openwatcom-1.9/bld/clib/library/os2.386/mf_rd/clib3r.lib(/mnt/sda5/.user/root/src/openwatcom-1.9/bld/clib/mbyte/c/mbsupr.c)
0002:00019250  _mbsupr_
Module: /mnt/sda5/.user/root/src/openwatcom-1.9/bld/clib/library/os2.386/mf_rd/clib3r.lib(/mnt/sda5/.user/root/src/openwatcom-1.9/bld/clib/mbyte/c/mbterm.c)
0002:000192d0  _mbterm_
Module: /mnt/sda5/.user/root/src/openwatcom-1.9/bld/clib/library/os2.386/mf_rd/clib3r.lib(/mnt/sda5/.user/root/src/openwatcom-1.9/bld/clib/mbyte/c/mbtowc.c)
0002:00019350  mbtowc_
Module: /mnt/sda5/.user/root/src/openwatcom-1.9/bld/clib/library/os2.386/mf_rd/clib3r.lib(/mnt/sda5/.user/root/src/openwatcom-1.9/bld/clib/mbyte/c/setmbcp.c)
0002:000194c0  _setmbcp_
Module: /mnt/sda5/.user/root/src/openwatcom-1.9/bld/clib/library/os2.386/mf_rd/clib3r.lib(/mnt/sda5/.user/root/src/openwatcom-1.9/bld/clib/mbyte/c/sisinit.c)
0002:00019540  sisinit_
Module: /mnt/sda5/.user/root/src/openwatcom-1.9/bld/clib/library/os2.386/mf_rd/clib3r.lib(/mnt/sda5/.user/root/src/openwatcom-1.9/bld/clib/mbyte/c/wcrtomb.c)
0002:00019580  wcrtomb_
Module: /mnt/sda5/.user/root/src/openwatcom-1.9/bld/clib/library/os2.386/mf_rd/clib3r.lib(/mnt/sda5/.user/root/src/openwatcom-1.9/bld/clib/mbyte/c/wcrtom_s.c)
0002:00019640  wcrtomb_s_
Module: /mnt/sda5/.user/root/src/openwatcom-1.9/bld/clib/library/os2.386/mf_rd/clib3r.lib(/mnt/sda5/.user/root/src/openwatcom-1.9/bld/clib/mbyte/c/wcsrtomb.c)
0002:000197f0  wcsrtombs_
Module: /mnt/sda5/.user/root/src/openwatcom-1.9/bld/clib/library/os2.386/mf_rd/clib3r.lib(/mnt/sda5/.user/root/src/openwatcom-1.9/bld/clib/mbyte/c/wcsrto_s.c)
0002:000199a0  wcsrtombs_s_
Module: /mnt/sda5/.user/root/src/openwatcom-1.9/bld/clib/library/os2.386/mf_rd/clib3r.lib(/mnt/sda5/.user/root/src/openwatcom-1.9/bld/clib/mbyte/c/wcstombs.c)
0002:00019cd0  wcstombs_
Module: /mnt/sda5/.user/root/src/openwatcom-1.9/bld/clib/library/os2.386/mf_rd/clib3r.lib(/mnt/sda5/.user/root/src/openwatcom-1.9/bld/clib/mbyte/c/wcstom_s.c)
0002:00019e40  wcstombs_s_
Module: /mnt/sda5/.user/root/src/openwatcom-1.9/bld/clib/library/os2.386/mf_rd/clib3r.lib(/mnt/sda5/.user/root/src/openwatcom-1.9/bld/clib/mbyte/c/wctob.c)
0002:0001a110  wctob_
Module: /mnt/sda5/.user/root/src/openwatcom-1.9/bld/clib/library/os2.386/mf_rd/clib3r.lib(/mnt/sda5/.user/root/src/openwatcom-1.9/bld/clib/mbyte/c/wctomb.c)
0002:0001a170  wctomb_
Module: /mnt/sda5/.user/root/src/openwatcom-1.9/bld/clib/library/os2.386/mf_rd/clib3r.lib(/mnt/sda5/.user/root/src/openwatcom-1.9/bld/clib/mbyte/c/wctomb_s.c)
0002:0001a210  wctomb_s_
Module: /mnt/sda5/.user/root/src/openwatcom-1.9/bld/clib/library/os2.386/mf_rd/clib3r.lib(/mnt/sda5/.user/root/src/openwatcom-1.9/bld/clib/mbyte/c/wrlang.c)
0002:0001a370  _WResLanguage_
Module: /mnt/sda5/.user/root/src/openwatcom-1.9/bld/clib/library/os2.386/mf_rd/clib3r.lib(/mnt/sda5/.user/root/src/openwatcom-1.9/bld/clib/memory/c/bcmp.c)
0002:0001a450  bcmp_
Module: /mnt/sda5/.user/root/src/openwatcom-1.9/bld/clib/library/os2.386/mf_rd/clib3r.lib(/mnt/sda5/.user/root/src/openwatcom-1.9/bld/clib/memory/c/bcopy.c)
0002:0001a4a0  bcopy_
Module: /mnt/sda5/.user/root/src/openwatcom-1.9/bld/clib/library/os2.386/mf_rd/clib3r.lib(/mnt/sda5/.user/root/src/openwatcom-1.9/bld/clib/memory/c/bzero.c)
0002:0001a4d0  bzero_
Module: /mnt/sda5/.user/root/src/openwatcom-1.9/bld/clib/library/os2.386/mf_rd/clib3r.lib(/mnt/sda5/.user/root/src/openwatcom-1.9/bld/clib/memory/c/fmemccpy.c)
0002:0001a500  _fmemccpy_
Module: /mnt/sda5/.user/root/src/openwatcom-1.9/bld/clib/library/os2.386/mf_rd/clib3r.lib(/mnt/sda5/.user/root/src/openwatcom-1.9/bld/clib/memory/c/fmemchr.c)
0002:0001a5b0  _fmemchr_
Module: /mnt/sda5/.user/root/src/openwatcom-1.9/bld/clib/library/os2.386/mf_rd/clib3r.lib(/mnt/sda5/.user/root/src/openwatcom-1.9/bld/clib/memory/c/fmemcmp.c)
0002:0001a630  _fmemcmp_
Module: /mnt/sda5/.user/root/src/openwatcom-1.9/bld/clib/library/os2.386/mf_rd/clib3r.lib(/mnt/sda5/.user/root/src/openwatcom-1.9/bld/clib/memory/c/fmemcpy.c)
0002:0001a6d0  _fmemcpy_
Module: /mnt/sda5/.user/root/src/openwatcom-1.9/bld/clib/library/os2.386/mf_rd/clib3r.lib(/mnt/sda5/.user/root/src/openwatcom-1.9/bld/clib/memory/c/fmemicmp.c)
0002:0001a760  _fmemicmp_
Module: /mnt/sda5/.user/root/src/openwatcom-1.9/bld/clib/library/os2.386/mf_rd/clib3r.lib(/mnt/sda5/.user/root/src/openwatcom-1.9/bld/clib/memory/c/fmemmove.c)
0002:0001a820  _fmemmove_
Module: /mnt/sda5/.user/root/src/openwatcom-1.9/bld/clib/library/os2.386/mf_rd/clib3r.lib(/mnt/sda5/.user/root/src/openwatcom-1.9/bld/clib/memory/c/fmemset.c)
0002:0001a930  _fmemset_
Module: /mnt/sda5/.user/root/src/openwatcom-1.9/bld/clib/library/os2.386/mf_rd/clib3r.lib(/mnt/sda5/.user/root/src/openwatcom-1.9/bld/clib/memory/c/memccpy.c)
0002:0001a990  memccpy_
Module: /mnt/sda5/.user/root/src/openwatcom-1.9/bld/clib/library/os2.386/mf_rd/clib3r.lib(/mnt/sda5/.user/root/src/openwatcom-1.9/bld/clib/memory/c/memchr.c)
0002:0001aa00  memchr_
Module: /mnt/sda5/.user/root/src/openwatcom-1.9/bld/clib/library/os2.386/mf_rd/clib3r.lib(/mnt/sda5/.user/root/src/openwatcom-1.9/bld/clib/memory/c/memcmp.c)
0002:0001aa60  memcmp_
Module: /mnt/sda5/.user/root/src/openwatcom-1.9/bld/clib/library/os2.386/mf_rd/clib3r.lib(/mnt/sda5/.user/root/src/openwatcom-1.9/bld/clib/memory/c/memcpy.c)
0002:0001aad0  memcpy_
Module: /mnt/sda5/.user/root/src/openwatcom-1.9/bld/clib/library/os2.386/mf_rd/clib3r.lib(/mnt/sda5/.user/root/src/openwatcom-1.9/bld/clib/memory/c/memicmp.c)
0002:0001ab20  memicmp_
Module: /mnt/sda5/.user/root/src/openwatcom-1.9/bld/clib/library/os2.386/mf_rd/clib3r.lib(/mnt/sda5/.user/root/src/openwatcom-1.9/bld/clib/memory/c/memmove.c)
0002:0001abc0  memmove_
Module: /mnt/sda5/.user/root/src/openwatcom-1.9/bld/clib/library/os2.386/mf_rd/clib3r.lib(/mnt/sda5/.user/root/src/openwatcom-1.9/bld/clib/memory/c/memset.c)
0002:0001ac70  memset_
Module: /mnt/sda5/.user/root/src/openwatcom-1.9/bld/clib/library/os2.386/mf_rd/clib3r.lib(/mnt/sda5/.user/root/src/openwatcom-1.9/bld/clib/memory/c/movedata.c)
0002:0001acc0  movedata_
Module: /mnt/sda5/.user/root/src/openwatcom-1.9/bld/clib/library/os2.386/mf_rd/clib3r.lib(/mnt/sda5/.user/root/src/openwatcom-1.9/bld/clib/memory/c/memcpy_s.c)
0002:0001ad70  memcpy_s_
Module: /mnt/sda5/.user/root/src/openwatcom-1.9/bld/clib/library/os2.386/mf_rd/clib3r.lib(/mnt/sda5/.user/root/src/openwatcom-1.9/bld/clib/memory/c/memmov_s.c)
0002:0001af50  memmove_s_
Module: /mnt/sda5/.user/root/src/openwatcom-1.9/bld/clib/library/os2.386/mf_rd/clib3r.lib(/mnt/sda5/.user/root/src/openwatcom-1.9/bld/clib/memory/c/swab.c)
0002:0001b080  swab_
Module: /mnt/sda5/.user/root/src/openwatcom-1.9/bld/clib/library/os2.386/mf_rd/clib3r.lib(/mnt/sda5/.user/root/src/openwatcom-1.9/bld/clib/memory/c/umemchr.c)
0002:0001b0d0  wmemchr_
Module: /mnt/sda5/.user/root/src/openwatcom-1.9/bld/clib/library/os2.386/mf_rd/clib3r.lib(/mnt/sda5/.user/root/src/openwatcom-1.9/bld/clib/memory/c/umemcmp.c)
0002:0001b120  wmemcmp_
Module: /mnt/sda5/.user/root/src/openwatcom-1.9/bld/clib/library/os2.386/mf_rd/clib3r.lib(/mnt/sda5/.user/root/src/openwatcom-1.9/bld/clib/memory/c/umemcpy.c)
0002:0001b190  wmemcpy_
Module: /mnt/sda5/.user/root/src/openwatcom-1.9/bld/clib/library/os2.386/mf_rd/clib3r.lib(/mnt/sda5/.user/root/src/openwatcom-1.9/bld/clib/memory/c/umemmov.c)
0002:0001b1f0  wmemmove_
Module: /mnt/sda5/.user/root/src/openwatcom-1.9/bld/clib/library/os2.386/mf_rd/clib3r.lib(/mnt/sda5/.user/root/src/openwatcom-1.9/bld/clib/memory/c/umemset.c)
0002:0001b2a0  wmemset_
Module: /mnt/sda5/.user/root/src/openwatcom-1.9/bld/clib/library/os2.386/mf_rd/clib3r.lib(/mnt/sda5/.user/root/src/openwatcom-1.9/bld/clib/memory/c/umemcp_s.c)
0002:0001b350  wmemcpy_s_
Module: /mnt/sda5/.user/root/src/openwatcom-1.9/bld/clib/library/os2.386/mf_rd/clib3r.lib(/mnt/sda5/.user/root/src/openwatcom-1.9/bld/clib/memory/c/umemmv_s.c)
0002:0001b530  wmemmove_s_
Module: /mnt/sda5/.user/root/src/openwatcom-1.9/bld/clib/library/os2.386/mf_rd/clib3r.lib(/mnt/sda5/.user/root/src/openwatcom-1.9/bld/clib/misc/c/aborthnd.c)
0002:0001b680  abort_handler_s_
Module: /mnt/sda5/.user/root/src/openwatcom-1.9/bld/clib/library/os2.386/mf_rd/clib3r.lib(/mnt/sda5/.user/root/src/openwatcom-1.9/bld/clib/misc/c/assert.c)
0002:0001b6f0  _assert_
0002:0001b8b0  __assert_
Module: /mnt/sda5/.user/root/src/openwatcom-1.9/bld/clib/library/os2.386/mf_rd/clib3r.lib(/mnt/sda5/.user/root/src/openwatcom-1.9/bld/clib/misc/c/assert99.c)
0002:0001b940  _assert99_
0002:0001bb00  __assert99_
Module: /mnt/sda5/.user/root/src/openwatcom-1.9/bld/clib/library/os2.386/mf_rd/clib3r.lib(/mnt/sda5/.user/root/src/openwatcom-1.9/bld/clib/misc/c/basename.c)
0002:0001bbc0  basename_
Module: /mnt/sda5/.user/root/src/openwatcom-1.9/bld/clib/library/os2.386/mf_rd/clib3r.lib(/mnt/sda5/.user/root/src/openwatcom-1.9/bld/clib/misc/c/ffs.c)
0002:0001bca0  ffs_
Module: /mnt/sda5/.user/root/src/openwatcom-1.9/bld/clib/library/os2.386/mf_rd/clib3r.lib(/mnt/sda5/.user/root/src/openwatcom-1.9/bld/clib/misc/c/dbgbreak.c)
0002:0001bcd0  _CrtDbgBreak_
Module: /mnt/sda5/.user/root/src/openwatcom-1.9/bld/clib/library/os2.386/mf_rd/clib3r.lib(/mnt/sda5/.user/root/src/openwatcom-1.9/bld/clib/misc/c/dbgrpt.c)
0002:0001c740  _CrtDbgReport_
Module: /mnt/sda5/.user/root/src/openwatcom-1.9/bld/clib/library/os2.386/mf_rd/clib3r.lib(/mnt/sda5/.user/root/src/openwatcom-1.9/bld/clib/misc/c/dbgrptfi.c)
0002:0001ca40  _CrtSetReportFile_
Module: /mnt/sda5/.user/root/src/openwatcom-1.9/bld/clib/library/os2.386/mf_rd/clib3r.lib(/mnt/sda5/.user/root/src/openwatcom-1.9/bld/clib/misc/c/dbgrptho.c)
0002:0001caf0  _CrtSetReportHook_
Module: /mnt/sda5/.user/root/src/openwatcom-1.9/bld/clib/library/os2.386/mf_rd/clib3r.lib(/mnt/sda5/.user/root/src/openwatcom-1.9/bld/clib/misc/c/dbgrptmo.c)
0002:0001cb30  _CrtSetReportMode_
Module: /mnt/sda5/.user/root/src/openwatcom-1.9/bld/clib/library/os2.386/mf_rd/clib3r.lib(/mnt/sda5/.user/root/src/openwatcom-1.9/bld/clib/misc/c/demangl.c)
0002:0001fbb0  __demangle_t_
Module: /mnt/sda5/.user/root/src/openwatcom-1.9/bld/clib/library/os2.386/mf_rd/clib3r.lib(/mnt/sda5/.user/root/src/openwatcom-1.9/bld/clib/misc/c/dirname.c)
0002:0001fcc0  dirname_
Module: /mnt/sda5/.user/root/src/openwatcom-1.9/bld/clib/library/os2.386/mf_rd/clib3r.lib(/mnt/sda5/.user/root/src/openwatcom-1.9/bld/clib/misc/c/fullpath.c)
0002:0001fdf0  _sys_fullpath_
0002:0001ff80  _fullpath_
Module: /mnt/sda5/.user/root/src/openwatcom-1.9/bld/clib/library/os2.386/mf_rd/clib3r.lib(/mnt/sda5/.user/root/src/openwatcom-1.9/bld/clib/misc/c/getopt.c)
0003:000004f4  _optind
0003:000004f8  _opterr
0003:000004fc+ ___altoptchar
0002:00020090  getopt_
0003:00001434  _optarg
0003:00001438  _optopt
0003:0000143c+ ___optchar
Module: /mnt/sda5/.user/root/src/openwatcom-1.9/bld/clib/library/os2.386/mf_rd/clib3r.lib(/mnt/sda5/.user/root/src/openwatcom-1.9/bld/clib/misc/c/ignorhnd.c)
0002:00020340  ignore_handler_s_
Module: /mnt/sda5/.user/root/src/openwatcom-1.9/bld/clib/library/os2.386/mf_rd/clib3r.lib(/mnt/sda5/.user/root/src/openwatcom-1.9/bld/clib/misc/c/localeco.c)
0002:00020370  localeconv_
Module: /mnt/sda5/.user/root/src/openwatcom-1.9/bld/clib/library/os2.386/mf_rd/clib3r.lib(/mnt/sda5/.user/root/src/openwatcom-1.9/bld/clib/misc/c/lrotl.c)
0002:000203a0  _lrotl_
Module: /mnt/sda5/.user/root/src/openwatcom-1.9/bld/clib/library/os2.386/mf_rd/clib3r.lib(/mnt/sda5/.user/root/src/openwatcom-1.9/bld/clib/misc/c/lrotr.c)
0002:000203d0  _lrotr_
Module: /mnt/sda5/.user/root/src/openwatcom-1.9/bld/clib/library/os2.386/mf_rd/clib3r.lib(/mnt/sda5/.user/root/src/openwatcom-1.9/bld/clib/misc/c/makepath.c)
0002:00020450  _makepath_
Module: /mnt/sda5/.user/root/src/openwatcom-1.9/bld/clib/library/os2.386/mf_rd/clib3r.lib(/mnt/sda5/.user/root/src/openwatcom-1.9/bld/clib/misc/c/rotl.c)
0002:00020660  _rotl_
Module: /mnt/sda5/.user/root/src/openwatcom-1.9/bld/clib/library/os2.386/mf_rd/clib3r.lib(/mnt/sda5/.user/root/src/openwatcom-1.9/bld/clib/misc/c/rotr.c)
0002:00020690  _rotr_
Module: /mnt/sda5/.user/root/src/openwatcom-1.9/bld/clib/library/os2.386/mf_rd/clib3r.lib(/mnt/sda5/.user/root/src/openwatcom-1.9/bld/clib/misc/c/rtconstr.c)
0002:000206c0  set_constraint_handler_s_
Module: /mnt/sda5/.user/root/src/openwatcom-1.9/bld/clib/library/os2.386/mf_rd/clib3r.lib(/mnt/sda5/.user/root/src/openwatcom-1.9/bld/clib/misc/c/setlocal.c)
0002:00020720  setlocale_
Module: /mnt/sda5/.user/root/src/openwatcom-1.9/bld/clib/library/os2.386/mf_rd/clib3r.lib(/mnt/sda5/.user/root/src/openwatcom-1.9/bld/clib/misc/c/split2.c)
0002:00020890  _splitpath2_
Module: /mnt/sda5/.user/root/src/openwatcom-1.9/bld/clib/library/os2.386/mf_rd/clib3r.lib(/mnt/sda5/.user/root/src/openwatcom-1.9/bld/clib/misc/c/splitpat.c)
0002:00020a90  _splitpath_
Module: /mnt/sda5/.user/root/src/openwatcom-1.9/bld/clib/library/os2.386/mf_rd/clib3r.lib(/mnt/sda5/.user/root/src/openwatcom-1.9/bld/clib/misc/c/uassert.c)
0002:00020c00  _wassert_
0002:00020c60  __wassert_
Module: /mnt/sda5/.user/root/src/openwatcom-1.9/bld/clib/library/os2.386/mf_rd/clib3r.lib(/mnt/sda5/.user/root/src/openwatcom-1.9/bld/clib/misc/c/uassrt99.c)
0002:00020d10  _wassert99_
0002:00020d70  __wassert99_
Module: /mnt/sda5/.user/root/src/openwatcom-1.9/bld/clib/library/os2.386/mf_rd/clib3r.lib(/mnt/sda5/.user/root/src/openwatcom-1.9/bld/clib/misc/c/ufulpath.c)
0002:00020db0  _sys_wfullpath_
0002:00020fa0  _wfullpath_
Module: /mnt/sda5/.user/root/src/openwatcom-1.9/bld/clib/library/os2.386/mf_rd/clib3r.lib(/mnt/sda5/.user/root/src/openwatcom-1.9/bld/clib/misc/c/umkpath.c)
0002:000210b0  _wmakepath_
Module: /mnt/sda5/.user/root/src/openwatcom-1.9/bld/clib/library/os2.386/mf_rd/clib3r.lib(/mnt/sda5/.user/root/src/openwatcom-1.9/bld/clib/misc/c/usplit2.c)
0002:00021300  _wsplitpath2_
Module: /mnt/sda5/.user/root/src/openwatcom-1.9/bld/clib/library/os2.386/mf_rd/clib3r.lib(/mnt/sda5/.user/root/src/openwatcom-1.9/bld/clib/misc/c/uspltpat.c)
0002:00021500  _wsplitpath_
Module: /mnt/sda5/.user/root/src/openwatcom-1.9/bld/clib/library/os2.386/mf_rd/clib3r.lib(/mnt/sda5/.user/root/src/openwatcom-1.9/bld/clib/misc/c/ustlocal.c)
0002:00021630  _wsetlocale_
Module: /mnt/sda5/.user/root/src/openwatcom-1.9/bld/clib/library/os2.386/mf_rd/clib3r.lib(/mnt/sda5/.user/root/src/openwatcom-1.9/bld/clib/mthread/c/mthread.c)
0002:00021780  __CloseSemaphore_
0002:000217d0  __AccessSemaphore_
0002:00021860  __ReleaseSemaphore_
0002:000218d0+ __AccessIOB_
0002:00021900+ __ReleaseIOB_
0002:00021930+ __AccessFileH_
0002:00021970+ __ReleaseFileH_
0002:000219b0+ __AccessNHeap_
0002:000219e0+ __ReleaseNHeap_
0002:00021a10+ __AccessFHeap_
0002:00021a40+ __ReleaseFHeap_
0002:00021a70+ __AccessTDList_
0002:00021aa0+ __ReleaseTDList_
0002:00021ad0+ __MultipleThread_
0002:00021b40  __AllocInitThreadData_
0002:00021ba0  __FreeInitThreadData_
0002:00021be0  __OS2AddThread_
0002:00021ca0  __OS2RemoveThread_
0002:00021d20  __InitMultipleThread_
0003:0000054c  ___AccessSema4
0003:00000550  ___ReleaseSema4
0003:00000554  ___CloseSema4
Module: /mnt/sda5/.user/root/src/openwatcom-1.9/bld/clib/library/os2.386/mf_rd/clib3r.lib(/mnt/sda5/.user/root/src/openwatcom-1.9/bld/clib/mthread/c/mthrdini.c)
0002:00021ef0  __InitThreadData_
0003:00000558  ___ThreadDataSize
Module: /mnt/sda5/.user/root/src/openwatcom-1.9/bld/clib/library/os2.386/mf_rd/clib3r.lib(/mnt/sda5/.user/root/src/openwatcom-1.9/bld/clib/mthread/c/regdata.c)
0002:00021f30  __RegisterThreadDataSize_
Module: /mnt/sda5/.user/root/src/openwatcom-1.9/bld/clib/library/os2.386/mf_rd/clib3r.lib(/mnt/sda5/.user/root/src/openwatcom-1.9/bld/clib/mthread/c/register.c)
0002:00021fb0  __initthread_
0002:00021fe0  _beginthread_
0002:00022020  _endthread_
0002:00022040  __RegisterThreadData_
Module: /mnt/sda5/.user/root/src/openwatcom-1.9/bld/clib/library/os2.386/mf_rd/clib3r.lib(/mnt/sda5/.user/root/src/openwatcom-1.9/bld/clib/mthread/c/thrdmax.c)
0002:000220c0  __GETMAXTHREADS
Module: /mnt/sda5/.user/root/src/openwatcom-1.9/bld/clib/library/os2.386/mf_rd/clib3r.lib(/mnt/sda5/.user/root/src/openwatcom-1.9/bld/clib/process/c/cwaitos2.c)
0002:000220f0  cwait_
Module: /mnt/sda5/.user/root/src/openwatcom-1.9/bld/clib/library/os2.386/mf_rd/clib3r.lib(/mnt/sda5/.user/root/src/openwatcom-1.9/bld/clib/process/c/delayos2.c)
0002:000221b0  delay_
Module: /mnt/sda5/.user/root/src/openwatcom-1.9/bld/clib/library/os2.386/mf_rd/clib3r.lib(/mnt/sda5/.user/root/src/openwatcom-1.9/bld/clib/process/c/exl.c)
0002:000221e0  execl_
Module: /mnt/sda5/.user/root/src/openwatcom-1.9/bld/clib/library/os2.386/mf_rd/clib3r.lib(/mnt/sda5/.user/root/src/openwatcom-1.9/bld/clib/process/c/exle.c)
0002:00022220  execle_
Module: /mnt/sda5/.user/root/src/openwatcom-1.9/bld/clib/library/os2.386/mf_rd/clib3r.lib(/mnt/sda5/.user/root/src/openwatcom-1.9/bld/clib/process/c/exlp.c)
0002:00022280  execlp_
Module: /mnt/sda5/.user/root/src/openwatcom-1.9/bld/clib/library/os2.386/mf_rd/clib3r.lib(/mnt/sda5/.user/root/src/openwatcom-1.9/bld/clib/process/c/exlpe.c)
0002:000222b0  execlpe_
Module: /mnt/sda5/.user/root/src/openwatcom-1.9/bld/clib/library/os2.386/mf_rd/clib3r.lib(/mnt/sda5/.user/root/src/openwatcom-1.9/bld/clib/process/c/exv.c)
0002:00022310  execv_
Module: /mnt/sda5/.user/root/src/openwatcom-1.9/bld/clib/library/os2.386/mf_rd/clib3r.lib(/mnt/sda5/.user/root/src/openwatcom-1.9/bld/clib/process/c/exveos2.c)
0002:00022342  execve_
0003:00000568  ___p_overlay
Module: /mnt/sda5/.user/root/src/openwatcom-1.9/bld/clib/library/os2.386/mf_rd/clib3r.lib(/mnt/sda5/.user/root/src/openwatcom-1.9/bld/clib/process/c/exvp.c)
0002:000223a0  execvp_
Module: /mnt/sda5/.user/root/src/openwatcom-1.9/bld/clib/library/os2.386/mf_rd/clib3r.lib(/mnt/sda5/.user/root/src/openwatcom-1.9/bld/clib/process/c/exvpe.c)
0002:000223d7  execvpe_
Module: /mnt/sda5/.user/root/src/openwatcom-1.9/bld/clib/library/os2.386/mf_rd/clib3r.lib(/mnt/sda5/.user/root/src/openwatcom-1.9/bld/clib/process/c/exwc2mb.c)
0002:00022580  __exec_wide_to_mbcs_
0002:00022970  __exec_wide_to_mbcs_cleanup_
Module: /mnt/sda5/.user/root/src/openwatcom-1.9/bld/clib/library/os2.386/mf_rd/clib3r.lib(/mnt/sda5/.user/root/src/openwatcom-1.9/bld/clib/process/c/signlo32.c)
0002:00022a10  __sigfpe_handler_
0002:00022d70+ __SigInit_
0002:00022de0+ __SigFini_
0002:00022e40+ __sigabort_
0002:00022ea0  signal_
0002:00022ff0  raise_
0003:0000056c+ __SignalTable
0003:00001590+ ___ExceptionHandled
Module: /mnt/sda5/.user/root/src/openwatcom-1.9/bld/clib/library/os2.386/mf_rd/clib3r.lib(/mnt/sda5/.user/root/src/openwatcom-1.9/bld/clib/process/c/sleepos2.c)
0002:000230e0  sleep_
Module: /mnt/sda5/.user/root/src/openwatcom-1.9/bld/clib/library/os2.386/mf_rd/clib3r.lib(/mnt/sda5/.user/root/src/openwatcom-1.9/bld/clib/process/c/spl.c)
0002:00023120  spawnl_
Module: /mnt/sda5/.user/root/src/openwatcom-1.9/bld/clib/library/os2.386/mf_rd/clib3r.lib(/mnt/sda5/.user/root/src/openwatcom-1.9/bld/clib/process/c/sple.c)
0002:00023160  spawnle_
Module: /mnt/sda5/.user/root/src/openwatcom-1.9/bld/clib/library/os2.386/mf_rd/clib3r.lib(/mnt/sda5/.user/root/src/openwatcom-1.9/bld/clib/process/c/splp.c)
0002:000231c0  spawnlp_
Module: /mnt/sda5/.user/root/src/openwatcom-1.9/bld/clib/library/os2.386/mf_rd/clib3r.lib(/mnt/sda5/.user/root/src/openwatcom-1.9/bld/clib/process/c/splpe.c)
0002:00023200  spawnlpe_
Module: /mnt/sda5/.user/root/src/openwatcom-1.9/bld/clib/library/os2.386/mf_rd/clib3r.lib(/mnt/sda5/.user/root/src/openwatcom-1.9/bld/clib/process/c/spv.c)
0002:00023260  spawnv_
Module: /mnt/sda5/.user/root/src/openwatcom-1.9/bld/clib/library/os2.386/mf_rd/clib3r.lib(/mnt/sda5/.user/root/src/openwatcom-1.9/bld/clib/process/c/spve.c)
0002:00023310  spawnve_
Module: /mnt/sda5/.user/root/src/openwatcom-1.9/bld/clib/library/os2.386/mf_rd/clib3r.lib(/mnt/sda5/.user/root/src/openwatcom-1.9/bld/clib/process/c/spvp.c)
0002:000236e0  spawnvp_
Module: /mnt/sda5/.user/root/src/openwatcom-1.9/bld/clib/library/os2.386/mf_rd/clib3r.lib(/mnt/sda5/.user/root/src/openwatcom-1.9/bld/clib/process/c/spvpe.c)
0002:0002371b  spawnvpe_
Module: /mnt/sda5/.user/root/src/openwatcom-1.9/bld/clib/library/os2.386/mf_rd/clib3r.lib(/mnt/sda5/.user/root/src/openwatcom-1.9/bld/clib/process/c/system.c)
0002:00023900  system_
Module: /mnt/sda5/.user/root/src/openwatcom-1.9/bld/clib/library/os2.386/mf_rd/clib3r.lib(/mnt/sda5/.user/root/src/openwatcom-1.9/bld/clib/process/c/uexl.c)
0002:000239b0  _wexecl_
Module: /mnt/sda5/.user/root/src/openwatcom-1.9/bld/clib/library/os2.386/mf_rd/clib3r.lib(/mnt/sda5/.user/root/src/openwatcom-1.9/bld/clib/process/c/uexle.c)
0002:000239f0  _wexecle_
Module: /mnt/sda5/.user/root/src/openwatcom-1.9/bld/clib/library/os2.386/mf_rd/clib3r.lib(/mnt/sda5/.user/root/src/openwatcom-1.9/bld/clib/process/c/uexlp.c)
0002:00023a50  _wexeclp_
Module: /mnt/sda5/.user/root/src/openwatcom-1.9/bld/clib/library/os2.386/mf_rd/clib3r.lib(/mnt/sda5/.user/root/src/openwatcom-1.9/bld/clib/process/c/uexlpe.c)
0002:00023a80  _wexeclpe_
Module: /mnt/sda5/.user/root/src/openwatcom-1.9/bld/clib/library/os2.386/mf_rd/clib3r.lib(/mnt/sda5/.user/root/src/openwatcom-1.9/bld/clib/process/c/uexv.c)
0002:00023ae0  _wexecv_
Module: /mnt/sda5/.user/root/src/openwatcom-1.9/bld/clib/library/os2.386/mf_rd/clib3r.lib(/mnt/sda5/.user/root/src/openwatcom-1.9/bld/clib/process/c/uexve.c)
0002:00023b20  _wexecve_
Module: /mnt/sda5/.user/root/src/openwatcom-1.9/bld/clib/library/os2.386/mf_rd/clib3r.lib(/mnt/sda5/.user/root/src/openwatcom-1.9/bld/clib/process/c/uexvp.c)
0002:00023bf0  _wexecvp_
Module: /mnt/sda5/.user/root/src/openwatcom-1.9/bld/clib/library/os2.386/mf_rd/clib3r.lib(/mnt/sda5/.user/root/src/openwatcom-1.9/bld/clib/process/c/uexvpe.c)
0002:00023c40  _wexecvpe_
Module: /mnt/sda5/.user/root/src/openwatcom-1.9/bld/clib/library/os2.386/mf_rd/clib3r.lib(/mnt/sda5/.user/root/src/openwatcom-1.9/bld/clib/process/c/uspl.c)
0002:00023e10  _wspawnl_
Module: /mnt/sda5/.user/root/src/openwatcom-1.9/bld/clib/library/os2.386/mf_rd/clib3r.lib(/mnt/sda5/.user/root/src/openwatcom-1.9/bld/clib/process/c/usple.c)
0002:00023e60  _wspawnle_
Module: /mnt/sda5/.user/root/src/openwatcom-1.9/bld/clib/library/os2.386/mf_rd/clib3r.lib(/mnt/sda5/.user/root/src/openwatcom-1.9/bld/clib/process/c/usplp.c)
0002:00023ec0  _wspawnlp_
Module: /mnt/sda5/.user/root/src/openwatcom-1.9/bld/clib/library/os2.386/mf_rd/clib3r.lib(/mnt/sda5/.user/root/src/openwatcom-1.9/bld/clib/process/c/usplpe.c)
0002:00023f00  _wspawnlpe_
Module: /mnt/sda5/.user/root/src/openwatcom-1.9/bld/clib/library/os2.386/mf_rd/clib3r.lib(/mnt/sda5/.user/root/src/openwatcom-1.9/bld/clib/process/c/uspv.c)
0002:00023f60  _wspawnv_
Module: /mnt/sda5/.user/root/src/openwatcom-1.9/bld/clib/library/os2.386/mf_rd/clib3r.lib(/mnt/sda5/.user/root/src/openwatcom-1.9/bld/clib/process/c/uspve.c)
0002:00023fb0  _wspawnve_
Module: /mnt/sda5/.user/root/src/openwatcom-1.9/bld/clib/library/os2.386/mf_rd/clib3r.lib(/mnt/sda5/.user/root/src/openwatcom-1.9/bld/clib/process/c/uspvp.c)
0002:00024080  _wspawnvp_
Module: /mnt/sda5/.user/root/src/openwatcom-1.9/bld/clib/library/os2.386/mf_rd/clib3r.lib(/mnt/sda5/.user/root/src/openwatcom-1.9/bld/clib/process/c/uspvpe.c)
0002:000240e0  _wspawnvpe_
Module: /mnt/sda5/.user/root/src/openwatcom-1.9/bld/clib/library/os2.386/mf_rd/clib3r.lib(/mnt/sda5/.user/root/src/openwatcom-1.9/bld/clib/process/c/usystem.c)
0002:00024310  _wsystem_
Module: /mnt/sda5/.user/root/src/openwatcom-1.9/bld/clib/library/os2.386/mf_rd/clib3r.lib(/mnt/sda5/.user/root/src/openwatcom-1.9/bld/clib/process/c/waitos2.c)
0002:000243c0  wait_
Module: /mnt/sda5/.user/root/src/openwatcom-1.9/bld/clib/library/os2.386/mf_rd/clib3r.lib(/mnt/sda5/.user/root/src/openwatcom-1.9/bld/clib/search/c/bsearch.c)
0002:000243f0  bsearch_
Module: /mnt/sda5/.user/root/src/openwatcom-1.9/bld/clib/library/os2.386/mf_rd/clib3r.lib(/mnt/sda5/.user/root/src/openwatcom-1.9/bld/clib/search/c/lfind.c)
0002:000244d0  lfind_
Module: /mnt/sda5/.user/root/src/openwatcom-1.9/bld/clib/library/os2.386/mf_rd/clib3r.lib(/mnt/sda5/.user/root/src/openwatcom-1.9/bld/clib/search/c/lsearch.c)
0002:00024530  lsearch_
Module: /mnt/sda5/.user/root/src/openwatcom-1.9/bld/clib/library/os2.386/mf_rd/clib3r.lib(/mnt/sda5/.user/root/src/openwatcom-1.9/bld/clib/search/c/qsort.c)
0002:00024630  qsort_
Module: /mnt/sda5/.user/root/src/openwatcom-1.9/bld/clib/library/os2.386/mf_rd/clib3r.lib(/mnt/sda5/.user/root/src/openwatcom-1.9/bld/clib/search/c/bsrch_s.c)
0002:00024d70  bsearch_s_
Module: /mnt/sda5/.user/root/src/openwatcom-1.9/bld/clib/library/os2.386/mf_rd/clib3r.lib(/mnt/sda5/.user/root/src/openwatcom-1.9/bld/clib/search/c/qsort_s.c)
0002:00025040  qsort_s_
Module: /mnt/sda5/.user/root/src/openwatcom-1.9/bld/clib/library/os2.386/mf_rd/clib3r.lib(/mnt/sda5/.user/root/src/openwatcom-1.9/bld/clib/startup/c/abort.c)
0002:00025855  abort_
0002:0002587d  __terminate_
0003:000005d4  ___abort
Module: /mnt/sda5/.user/root/src/openwatcom-1.9/bld/clib/library/os2.386/mf_rd/clib3r.lib(/mnt/sda5/.user/root/src/openwatcom-1.9/bld/clib/startup/c/chk8087.c)
0002:000258a0  _fpreset_
0002:000258d0* __init_8087_
0002:00025900  __chk8087_
Module: /mnt/sda5/.user/root/src/openwatcom-1.9/bld/clib/library/os2.386/mf_rd/clib3r.lib(/mnt/sda5/.user/root/src/openwatcom-1.9/bld/clib/startup/c/cmdname.c)
0002:00025960  _cmdname_
Module: /mnt/sda5/.user/root/src/openwatcom-1.9/bld/clib/library/os2.386/mf_rd/clib3r.lib(/mnt/sda5/.user/root/src/openwatcom-1.9/bld/clib/startup/c/cvtbuf.c)
0002:00025990  __CVTBuffer_
Module: /mnt/sda5/.user/root/src/openwatcom-1.9/bld/clib/library/os2.386/mf_rd/clib3r.lib(/mnt/sda5/.user/root/src/openwatcom-1.9/bld/clib/startup/c/enterdb.c)
0002:000259c0  __EnterWVIDEO_
0003:000005d8  ___WD_Present
Module: /mnt/sda5/.user/root/src/openwatcom-1.9/bld/clib/library/os2.386/mf_rd/clib3r.lib(/mnt/sda5/.user/root/src/openwatcom-1.9/bld/clib/startup/c/errno.c)
0002:00025a20  __get_errno_ptr_
0002:00025a50  __get_doserrno_ptr_
Module: /mnt/sda5/.user/root/src/openwatcom-1.9/bld/clib/library/os2.386/mf_rd/clib3r.lib(/mnt/sda5/.user/root/src/openwatcom-1.9/bld/clib/startup/c/exit.c)
0002:00025a76  __null_int23_exit_
0002:00025a96  exit_
0002:00025af5  _exit_
0003:000005dc  ___int23_exit
0003:000005e0+ ___FPE_handler_exit
Module: /mnt/sda5/.user/root/src/openwatcom-1.9/bld/clib/library/os2.386/mf_rd/clib3r.lib(/mnt/sda5/.user/root/src/openwatcom-1.9/bld/clib/startup/c/imthread.c)
0003:00000ca0  __imthread
Module: /mnt/sda5/.user/root/src/openwatcom-1.9/bld/clib/library/os2.386/mf_rd/clib3r.lib(/mnt/sda5/.user/root/src/openwatcom-1.9/bld/clib/startup/c/initargv.c)
0002:00025b50  __Init_Argv_
0002:00025bc0  _getargv_
0002:00025e30  __Fini_Argv_
Module: /mnt/sda5/.user/root/src/openwatcom-1.9/bld/clib/library/os2.386/mf_rd/clib3r.lib(/mnt/sda5/.user/root/src/openwatcom-1.9/bld/clib/startup/c/initwarg.c)
0002:00025e60  __wInit_Argv_
0002:00025ed0  _wgetargv_
0002:00026160  __wFini_Argv_
Module: /mnt/sda5/.user/root/src/openwatcom-1.9/bld/clib/library/os2.386/mf_rd/clib3r.lib(/mnt/sda5/.user/root/src/openwatcom-1.9/bld/clib/startup/c/ioexit.c)
0002:00026250  fcloseall_
0002:00026280  __full_io_exit_
Module: /mnt/sda5/.user/root/src/openwatcom-1.9/bld/clib/library/os2.386/mf_rd/clib3r.lib(/mnt/sda5/.user/root/src/openwatcom-1.9/bld/clib/startup/c/liballoc.c)
0002:000262b0  _plib_malloc_
0002:000262e0  _plib_free_
Module: /mnt/sda5/.user/root/src/openwatcom-1.9/bld/clib/library/os2.386/mf_rd/clib3r.lib(/mnt/sda5/.user/root/src/openwatcom-1.9/bld/clib/startup/c/ljmphdl.c)
0003:000005e4  ___longjmp_handler
Module: /mnt/sda5/.user/root/src/openwatcom-1.9/bld/clib/library/os2.386/mf_rd/clib3r.lib(/mnt/sda5/.user/root/src/openwatcom-1.9/bld/clib/startup/c/maino32.c)
0003:000005e8  ___FirstThreadData
0003:000005ec  ___GetThreadPtr
0003:000005f0  __AccessFileH
0003:000005f4  __ReleaseFileH
0003:000005f8  __AccessIOB
0003:000005fc  __ReleaseIOB
0003:00000600  __AccessNHeap
0003:00000604  __AccessFHeap
0003:00000608  __ReleaseNHeap
0003:0000060c  __ReleaseFHeap
0002:0002638a  __threadstack_
0002:000263a6  __threadid_
0002:000263e2* __OS2MainInit_
0002:00026481  __OS2Init_
0002:000264d0  __OS2Fini_
0002:000264ea  __shutdown_stack_checking_
0002:0002650e  __exit_
0003:00000610  __AccessTDList
0003:00000614  __ReleaseTDList
0003:00000618  ___sig_init_rtn
0003:0000061c  ___sig_fini_rtn
0003:00000620  __threadstksize
0003:00000624  ___process_fini
0003:0000159c  ___Is_DLL
0003:000015a0  ___saved_CS
Module: /mnt/sda5/.user/root/src/openwatcom-1.9/bld/clib/library/os2.386/mf_rd/clib3r.lib(/mnt/sda5/.user/root/src/openwatcom-1.9/bld/clib/startup/c/mtype.c)
0002:00026560  __MachineType_
Module: /mnt/sda5/.user/root/src/openwatcom-1.9/bld/clib/library/os2.386/mf_rd/clib3r.lib(/mnt/sda5/.user/root/src/openwatcom-1.9/bld/clib/startup/c/nomem.c)
0002:000265c0  _Not_Enough_Memory_
Module: /mnt/sda5/.user/root/src/openwatcom-1.9/bld/clib/library/os2.386/mf_rd/clib3r.lib(/mnt/sda5/.user/root/src/openwatcom-1.9/bld/clib/startup/c/nonibm.c)
0002:000265f0* __is_nonIBM_
0003:00000628  ___NonIBM
Module: /mnt/sda5/.user/root/src/openwatcom-1.9/bld/clib/library/os2.386/mf_rd/clib3r.lib(/mnt/sda5/.user/root/src/openwatcom-1.9/bld/clib/startup/c/onexit.c)
0002:00026650  onexit_
Module: /mnt/sda5/.user/root/src/openwatcom-1.9/bld/clib/library/os2.386/mf_rd/clib3r.lib(/mnt/sda5/.user/root/src/openwatcom-1.9/bld/clib/startup/c/osmjptr.c)
0002:00026690  __get_osmajor_ptr_
Module: /mnt/sda5/.user/root/src/openwatcom-1.9/bld/clib/library/os2.386/mf_rd/clib3r.lib(/mnt/sda5/.user/root/src/openwatcom-1.9/bld/clib/startup/c/osmnptr.c)
0002:000266c0  __get_osminor_ptr_
Module: /mnt/sda5/.user/root/src/openwatcom-1.9/bld/clib/library/os2.386/mf_rd/clib3r.lib(/mnt/sda5/.user/root/src/openwatcom-1.9/bld/clib/startup/c/pgmptr.c)
0002:000266f0  __get_pgmptr_ptr_
Module: /mnt/sda5/.user/root/src/openwatcom-1.9/bld/clib/library/os2.386/mf_rd/clib3r.lib(/mnt/sda5/.user/root/src/openwatcom-1.9/bld/clib/startup/c/rtcntrl.c)
0002:00026720  _SetLD64bit_
0002:00026740  _SetLD80bit_
0002:00026760  _LDisDouble_
Module: /mnt/sda5/.user/root/src/openwatcom-1.9/bld/clib/library/os2.386/mf_rd/clib3r.lib(far16fun)
0002:0002679a  __Far16Func2
0002:000267e3  __Far16Func
0002:00026831  __Far16Pascal2
0002:00026878  __Far16Pascal
0002:000268c4  __Far16Cdecl2
0002:00026912  __Far16Cdecl
0002:00026965  __FlatToFar16
0002:0002696e  __Far16ToFlat
Module: /mnt/sda5/.user/root/src/openwatcom-1.9/bld/clib/library/os2.386/mf_rd/clib3r.lib(seh)
0002:00026978  __TryInit
0002:0002699a  __TryFini
0002:00026a8a  __TryUnwind
0002:000269aa  __TryHandler
0002:000269fd  __Except
Module: /mnt/sda5/.user/root/src/openwatcom-1.9/bld/clib/library/os2.386/mf_rd/clib3r.lib(sehv2)
0002:00026a9c  __TryInit2
0002:00026abe  __TryFini2
0002:00026bae  __TryUnwind2
0002:00026ace  __TryHandler2
0002:00026b21  __Except2
Module: /mnt/sda5/.user/root/src/openwatcom-1.9/bld/clib/library/os2.386/mf_rd/clib3r.lib(/mnt/sda5/.user/root/src/openwatcom-1.9/bld/clib/startup/c/seterrno.c)
0002:00026bc0  __set_errno_
0002:00026be1  __set_EDOM_
0002:00026c06  __set_ERANGE_
0002:00026c2b  __set_EINVAL_
0002:00026c5a  __set_doserrno_
Module: /mnt/sda5/.user/root/src/openwatcom-1.9/bld/clib/library/os2.386/mf_rd/clib3r.lib(/mnt/sda5/.user/root/src/openwatcom-1.9/bld/clib/startup/c/stack386.c)
0002:00026c80  stackavail_
Module: /mnt/sda5/.user/root/src/openwatcom-1.9/bld/clib/library/os2.386/mf_rd/clib3r.lib(/mnt/sda5/.user/root/src/openwatcom-1.9/bld/clib/startup/a/stjmp386.asm)
0002:00026cac  _setjmp_
0002:00026ce5  longjmp_
Module: /mnt/sda5/.user/root/src/openwatcom-1.9/bld/clib/library/os2.386/mf_rd/clib3r.lib(/mnt/sda5/.user/root/src/openwatcom-1.9/bld/clib/startup/a/stko32.asm)
0002:00026d75  __STK
0002:00026d65  __CHK
0002:00026da4  __GRO
0002:00026d94  __STKOVERFLOW_
Module: /mnt/sda5/.user/root/src/openwatcom-1.9/bld/clib/library/os2.386/mf_rd/clib3r.lib(/mnt/sda5/.user/root/src/openwatcom-1.9/bld/clib/startup/a/tnkcdo32.asm)
0001:00000068  __Far32Func
Module: /mnt/sda5/.user/root/src/openwatcom-1.9/bld/clib/library/os2.386/mf_rd/clib3r.lib(thunk)
0002:00026e08  __TNK
0002:00026df4  __TNC
Module: /mnt/sda5/.user/root/src/openwatcom-1.9/bld/clib/library/os2.386/mf_rd/clib3r.lib(/mnt/sda5/.user/root/src/openwatcom-1.9/bld/clib/startup/c/wpgmptr.c)
0002:00026e60  __get_wpgmptr_ptr_
Module: /mnt/sda5/.user/root/src/openwatcom-1.9/bld/clib/library/os2.386/mf_rd/clib3r.lib(/mnt/sda5/.user/root/src/openwatcom-1.9/bld/clib/startup/c/xmsgo32.c)
0002:00026e90  __exit_with_msg_
0002:00026f00  __fatal_runtime_error_
Module: /mnt/sda5/.user/root/src/openwatcom-1.9/bld/clib/library/os2.386/mf_rd/clib3r.lib(/mnt/sda5/.user/root/src/openwatcom-1.9/bld/clib/startup/c/___argc.c)
0003:000016a4  ____Argc
0003:000016a8  ____Argv
Module: /mnt/sda5/.user/root/src/openwatcom-1.9/bld/clib/library/os2.386/mf_rd/clib3r.lib(/mnt/sda5/.user/root/src/openwatcom-1.9/bld/clib/startup/c/___wargc.c)
0003:000016ac  ____wArgv
0003:000016b0  ____wArgc
Module: /mnt/sda5/.user/root/src/openwatcom-1.9/bld/clib/library/os2.386/mf_rd/clib3r.lib(/mnt/sda5/.user/root/src/openwatcom-1.9/bld/clib/streamio/c/64fseek.c)
0002:00027030  _fseeki64_
Module: /mnt/sda5/.user/root/src/openwatcom-1.9/bld/clib/library/os2.386/mf_rd/clib3r.lib(/mnt/sda5/.user/root/src/openwatcom-1.9/bld/clib/streamio/c/64ftell.c)
0002:000272e0  _ftelli64_
Module: /mnt/sda5/.user/root/src/openwatcom-1.9/bld/clib/library/os2.386/mf_rd/clib3r.lib(/mnt/sda5/.user/root/src/openwatcom-1.9/bld/clib/streamio/c/clearerr.c)
0002:000273a0  clearerr_
Module: /mnt/sda5/.user/root/src/openwatcom-1.9/bld/clib/library/os2.386/mf_rd/clib3r.lib(/mnt/sda5/.user/root/src/openwatcom-1.9/bld/clib/streamio/c/comtflag.c)
0002:000273e0  __set_commode_
0003:00000640  __commode
Module: /mnt/sda5/.user/root/src/openwatcom-1.9/bld/clib/library/os2.386/mf_rd/clib3r.lib(/mnt/sda5/.user/root/src/openwatcom-1.9/bld/clib/streamio/c/fclose.c)
0002:00027410  __doclose_
0002:000274f0  __shutdown_stream_
0002:00027530  fclose_
0003:000016b4  ___RmTmpFileFn
Module: /mnt/sda5/.user/root/src/openwatcom-1.9/bld/clib/library/os2.386/mf_rd/clib3r.lib(/mnt/sda5/.user/root/src/openwatcom-1.9/bld/clib/streamio/c/fdopen.c)
0002:00027640  fdopen_
Module: /mnt/sda5/.user/root/src/openwatcom-1.9/bld/clib/library/os2.386/mf_rd/clib3r.lib(/mnt/sda5/.user/root/src/openwatcom-1.9/bld/clib/streamio/c/feof.c)
0002:00027770  feof_
Module: /mnt/sda5/.user/root/src/openwatcom-1.9/bld/clib/library/os2.386/mf_rd/clib3r.lib(/mnt/sda5/.user/root/src/openwatcom-1.9/bld/clib/streamio/c/ferror.c)
0002:000277a0  ferror_
Module: /mnt/sda5/.user/root/src/openwatcom-1.9/bld/clib/library/os2.386/mf_rd/clib3r.lib(/mnt/sda5/.user/root/src/openwatcom-1.9/bld/clib/streamio/c/fflush.c)
0002:000277d0  fflush_
Module: /mnt/sda5/.user/root/src/openwatcom-1.9/bld/clib/library/os2.386/mf_rd/clib3r.lib(/mnt/sda5/.user/root/src/openwatcom-1.9/bld/clib/streamio/c/fgetc.c)
0002:00027810  __fill_buffer_
0002:00027980  fgetc_
Module: /mnt/sda5/.user/root/src/openwatcom-1.9/bld/clib/library/os2.386/mf_rd/clib3r.lib(/mnt/sda5/.user/root/src/openwatcom-1.9/bld/clib/streamio/c/fgetchar.c)
0002:00027aa0  fgetchar_
Module: /mnt/sda5/.user/root/src/openwatcom-1.9/bld/clib/library/os2.386/mf_rd/clib3r.lib(/mnt/sda5/.user/root/src/openwatcom-1.9/bld/clib/streamio/c/fgetpos.c)
0002:00027ad0  fgetpos_
Module: /mnt/sda5/.user/root/src/openwatcom-1.9/bld/clib/library/os2.386/mf_rd/clib3r.lib(/mnt/sda5/.user/root/src/openwatcom-1.9/bld/clib/streamio/c/fgets.c)
0002:00027b20  fgets_
Module: /mnt/sda5/.user/root/src/openwatcom-1.9/bld/clib/library/os2.386/mf_rd/clib3r.lib(/mnt/sda5/.user/root/src/openwatcom-1.9/bld/clib/streamio/c/flush.c)
0002:00027be0  __flush_
Module: /mnt/sda5/.user/root/src/openwatcom-1.9/bld/clib/library/os2.386/mf_rd/clib3r.lib(/mnt/sda5/.user/root/src/openwatcom-1.9/bld/clib/streamio/c/flushall.c)
0002:00027d70  __flushall_
0002:00027df0  flushall_
Module: /mnt/sda5/.user/root/src/openwatcom-1.9/bld/clib/library/os2.386/mf_rd/clib3r.lib(/mnt/sda5/.user/root/src/openwatcom-1.9/bld/clib/streamio/c/fopen.c)
0002:00027e20  __open_flags_
0002:00028150  _fsopen_
0002:000281d0  fopen_
0002:000282e0  freopen_
Module: /mnt/sda5/.user/root/src/openwatcom-1.9/bld/clib/library/os2.386/mf_rd/clib3r.lib(/mnt/sda5/.user/root/src/openwatcom-1.9/bld/clib/streamio/c/fopen_s.c)
0002:000283c0  fopen_s_
Module: /mnt/sda5/.user/root/src/openwatcom-1.9/bld/clib/library/os2.386/mf_rd/clib3r.lib(/mnt/sda5/.user/root/src/openwatcom-1.9/bld/clib/streamio/c/freop_s.c)
0002:00028510  freopen_s_
Module: /mnt/sda5/.user/root/src/openwatcom-1.9/bld/clib/library/os2.386/mf_rd/clib3r.lib(/mnt/sda5/.user/root/src/openwatcom-1.9/bld/clib/streamio/c/fprintf.c)
0002:00028620  fprintf_
Module: /mnt/sda5/.user/root/src/openwatcom-1.9/bld/clib/library/os2.386/mf_rd/clib3r.lib(/mnt/sda5/.user/root/src/openwatcom-1.9/bld/clib/streamio/c/fprntf_s.c)
0002:00028660  fprintf_s_
Module: /mnt/sda5/.user/root/src/openwatcom-1.9/bld/clib/library/os2.386/mf_rd/clib3r.lib(/mnt/sda5/.user/root/src/openwatcom-1.9/bld/clib/streamio/c/fputc.c)
0002:000286a0  fputc_
Module: /mnt/sda5/.user/root/src/openwatcom-1.9/bld/clib/library/os2.386/mf_rd/clib3r.lib(/mnt/sda5/.user/root/src/openwatcom-1.9/bld/clib/streamio/c/fputchar.c)
0002:00028820  fputchar_
Module: /mnt/sda5/.user/root/src/openwatcom-1.9/bld/clib/library/os2.386/mf_rd/clib3r.lib(/mnt/sda5/.user/root/src/openwatcom-1.9/bld/clib/streamio/c/fputs.c)
0002:00028850  fputs_
Module: /mnt/sda5/.user/root/src/openwatcom-1.9/bld/clib/library/os2.386/mf_rd/clib3r.lib(/mnt/sda5/.user/root/src/openwatcom-1.9/bld/clib/streamio/c/fread.c)
0002:00028940  fread_
Module: /mnt/sda5/.user/root/src/openwatcom-1.9/bld/clib/library/os2.386/mf_rd/clib3r.lib(/mnt/sda5/.user/root/src/openwatcom-1.9/bld/clib/streamio/c/fscanf.c)
0002:00028c20  vfscanf_
0002:00028cc0  fscanf_
Module: /mnt/sda5/.user/root/src/openwatcom-1.9/bld/clib/library/os2.386/mf_rd/clib3r.lib(/mnt/sda5/.user/root/src/openwatcom-1.9/bld/clib/streamio/c/fscanf_s.c)
0002:00028da0  fscanf_s_
Module: /mnt/sda5/.user/root/src/openwatcom-1.9/bld/clib/library/os2.386/mf_rd/clib3r.lib(/mnt/sda5/.user/root/src/openwatcom-1.9/bld/clib/streamio/c/fseek.c)
0002:00028f70  fseek_
Module: /mnt/sda5/.user/root/src/openwatcom-1.9/bld/clib/library/os2.386/mf_rd/clib3r.lib(/mnt/sda5/.user/root/src/openwatcom-1.9/bld/clib/streamio/c/fsetpos.c)
0002:00029190  fsetpos_
Module: /mnt/sda5/.user/root/src/openwatcom-1.9/bld/clib/library/os2.386/mf_rd/clib3r.lib(/mnt/sda5/.user/root/src/openwatcom-1.9/bld/clib/streamio/c/ftell.c)
0002:000291c0  ftell_
Module: /mnt/sda5/.user/root/src/openwatcom-1.9/bld/clib/library/os2.386/mf_rd/clib3r.lib(/mnt/sda5/.user/root/src/openwatcom-1.9/bld/clib/streamio/c/fwide.c)
0002:00029260  fwide_
Module: /mnt/sda5/.user/root/src/openwatcom-1.9/bld/clib/library/os2.386/mf_rd/clib3r.lib(/mnt/sda5/.user/root/src/openwatcom-1.9/bld/clib/streamio/c/fwrite.c)
0002:00029320  fwrite_
Module: /mnt/sda5/.user/root/src/openwatcom-1.9/bld/clib/library/os2.386/mf_rd/clib3r.lib(/mnt/sda5/.user/root/src/openwatcom-1.9/bld/clib/streamio/c/getc.c)
0002:000295b0  getc_
Module: /mnt/sda5/.user/root/src/openwatcom-1.9/bld/clib/library/os2.386/mf_rd/clib3r.lib(/mnt/sda5/.user/root/src/openwatcom-1.9/bld/clib/streamio/c/getchar.c)
0002:000295e0  getchar_
Module: /mnt/sda5/.user/root/src/openwatcom-1.9/bld/clib/library/os2.386/mf_rd/clib3r.lib(/mnt/sda5/.user/root/src/openwatcom-1.9/bld/clib/streamio/c/gets.c)
0002:00029610  gets_
Module: /mnt/sda5/.user/root/src/openwatcom-1.9/bld/clib/library/os2.386/mf_rd/clib3r.lib(/mnt/sda5/.user/root/src/openwatcom-1.9/bld/clib/streamio/c/gets_s.c)
0002:00029700  gets_s_
Module: /mnt/sda5/.user/root/src/openwatcom-1.9/bld/clib/library/os2.386/mf_rd/clib3r.lib(/mnt/sda5/.user/root/src/openwatcom-1.9/bld/clib/streamio/c/getw.c)
0002:000298b0  _getw_
Module: /mnt/sda5/.user/root/src/openwatcom-1.9/bld/clib/library/os2.386/mf_rd/clib3r.lib(/mnt/sda5/.user/root/src/openwatcom-1.9/bld/clib/streamio/c/iob.c)
0003:00000644  ___iob
0003:0000084c  __fmode
0003:000016b8  ___OpenStreams
0003:000016bc  ___ClosedStreams
Module: /mnt/sda5/.user/root/src/openwatcom-1.9/bld/clib/library/os2.386/mf_rd/clib3r.lib(/mnt/sda5/.user/root/src/openwatcom-1.9/bld/clib/streamio/c/iobaddr.c)
0002:00029900  __get_std_stream_
0002:00029940  __get_std_file_
Module: /mnt/sda5/.user/root/src/openwatcom-1.9/bld/clib/library/os2.386/mf_rd/clib3r.lib(/mnt/sda5/.user/root/src/openwatcom-1.9/bld/clib/streamio/c/iobptr.c)
0002:00029970  __get_iob_ptr_
Module: /mnt/sda5/.user/root/src/openwatcom-1.9/bld/clib/library/os2.386/mf_rd/clib3r.lib(/mnt/sda5/.user/root/src/openwatcom-1.9/bld/clib/streamio/c/noefgfmt.c)
0003:00000850  ___EFG_printf
0003:00000854  ___EFG_scanf
Module: /mnt/sda5/.user/root/src/openwatcom-1.9/bld/clib/library/os2.386/mf_rd/clib3r.lib(/mnt/sda5/.user/root/src/openwatcom-1.9/bld/clib/streamio/c/pclose.c)
0002:00029a00  _pclose_
Module: /mnt/sda5/.user/root/src/openwatcom-1.9/bld/clib/library/os2.386/mf_rd/clib3r.lib(/mnt/sda5/.user/root/src/openwatcom-1.9/bld/clib/streamio/c/perror.c)
0002:00029aa0  perror_
Module: /mnt/sda5/.user/root/src/openwatcom-1.9/bld/clib/library/os2.386/mf_rd/clib3r.lib(/mnt/sda5/.user/root/src/openwatcom-1.9/bld/clib/streamio/c/popen.c)
0002:00029f40  _popen_
Module: /mnt/sda5/.user/root/src/openwatcom-1.9/bld/clib/library/os2.386/mf_rd/clib3r.lib(/mnt/sda5/.user/root/src/openwatcom-1.9/bld/clib/streamio/c/printf.c)
0002:0002a180  printf_
Module: /mnt/sda5/.user/root/src/openwatcom-1.9/bld/clib/library/os2.386/mf_rd/clib3r.lib(/mnt/sda5/.user/root/src/openwatcom-1.9/bld/clib/streamio/c/printf_s.c)
0002:0002a1c0  printf_s_
Module: /mnt/sda5/.user/root/src/openwatcom-1.9/bld/clib/library/os2.386/mf_rd/clib3r.lib(/mnt/sda5/.user/root/src/openwatcom-1.9/bld/clib/streamio/c/putc.c)
0002:0002a200  putc_
Module: /mnt/sda5/.user/root/src/openwatcom-1.9/bld/clib/library/os2.386/mf_rd/clib3r.lib(/mnt/sda5/.user/root/src/openwatcom-1.9/bld/clib/streamio/c/putchar.c)
0002:0002a230  putchar_
Module: /mnt/sda5/.user/root/src/openwatcom-1.9/bld/clib/library/os2.386/mf_rd/clib3r.lib(/mnt/sda5/.user/root/src/openwatcom-1.9/bld/clib/streamio/c/puts.c)
0002:0002a260  puts_
Module: /mnt/sda5/.user/root/src/openwatcom-1.9/bld/clib/library/os2.386/mf_rd/clib3r.lib(/mnt/sda5/.user/root/src/openwatcom-1.9/bld/clib/streamio/c/putw.c)
0002:0002a2c0  _putw_
Module: /mnt/sda5/.user/root/src/openwatcom-1.9/bld/clib/library/os2.386/mf_rd/clib3r.lib(/mnt/sda5/.user/root/src/openwatcom-1.9/bld/clib/streamio/c/rewind.c)
0002:0002a310  rewind_
Module: /mnt/sda5/.user/root/src/openwatcom-1.9/bld/clib/library/os2.386/mf_rd/clib3r.lib(/mnt/sda5/.user/root/src/openwatcom-1.9/bld/clib/streamio/c/scanf.c)
0002:0002a3b0  vscanf_
0002:0002a3f0  scanf_
Module: /mnt/sda5/.user/root/src/openwatcom-1.9/bld/clib/library/os2.386/mf_rd/clib3r.lib(/mnt/sda5/.user/root/src/openwatcom-1.9/bld/clib/streamio/c/scanf_s.c)
0002:0002a4b0  scanf_s_
Module: /mnt/sda5/.user/root/src/openwatcom-1.9/bld/clib/library/os2.386/mf_rd/clib3r.lib(/mnt/sda5/.user/root/src/openwatcom-1.9/bld/clib/streamio/c/setbuf.c)
0002:0002a550  setbuf_
Module: /mnt/sda5/.user/root/src/openwatcom-1.9/bld/clib/library/os2.386/mf_rd/clib3r.lib(/mnt/sda5/.user/root/src/openwatcom-1.9/bld/clib/streamio/c/setvbuf.c)
0002:0002a5a0  setvbuf_
Module: /mnt/sda5/.user/root/src/openwatcom-1.9/bld/clib/library/os2.386/mf_rd/clib3r.lib(/mnt/sda5/.user/root/src/openwatcom-1.9/bld/clib/streamio/c/tmpfl.c)
0002:0002a690  tmpfile_
0002:0002a800+ __Init_Tmpfl_
0003:00000858+ ___tmpfnext
Module: /mnt/sda5/.user/root/src/openwatcom-1.9/bld/clib/library/os2.386/mf_rd/clib3r.lib(/mnt/sda5/.user/root/src/openwatcom-1.9/bld/clib/streamio/c/tmpfl_s.c)
0002:0002a850  tmpfile_s_
Module: /mnt/sda5/.user/root/src/openwatcom-1.9/bld/clib/library/os2.386/mf_rd/clib3r.lib(/mnt/sda5/.user/root/src/openwatcom-1.9/bld/clib/streamio/c/ufdopen.c)
0002:0002a94e  _wfdopen_
Module: /mnt/sda5/.user/root/src/openwatcom-1.9/bld/clib/library/os2.386/mf_rd/clib3r.lib(/mnt/sda5/.user/root/src/openwatcom-1.9/bld/clib/streamio/c/ufgetc.c)
0002:0002ab55  fgetwc_
Module: /mnt/sda5/.user/root/src/openwatcom-1.9/bld/clib/library/os2.386/mf_rd/clib3r.lib(/mnt/sda5/.user/root/src/openwatcom-1.9/bld/clib/streamio/c/ufgetcha.c)
0002:0002ac22  fgetwchar_
Module: /mnt/sda5/.user/root/src/openwatcom-1.9/bld/clib/library/os2.386/mf_rd/clib3r.lib(/mnt/sda5/.user/root/src/openwatcom-1.9/bld/clib/streamio/c/ufgets.c)
0002:0002ac42  fgetws_
Module: /mnt/sda5/.user/root/src/openwatcom-1.9/bld/clib/library/os2.386/mf_rd/clib3r.lib(/mnt/sda5/.user/root/src/openwatcom-1.9/bld/clib/streamio/c/ufopen.c)
0002:0002acff  __wopen_flags_
0002:0002b026  _wfsopen_
0002:0002b090  _wfopen_
0002:0002b18b  _wfreopen_
Module: /mnt/sda5/.user/root/src/openwatcom-1.9/bld/clib/library/os2.386/mf_rd/clib3r.lib(/mnt/sda5/.user/root/src/openwatcom-1.9/bld/clib/streamio/c/ufopen_s.c)
0002:0002b260  _wfopen_s_
Module: /mnt/sda5/.user/root/src/openwatcom-1.9/bld/clib/library/os2.386/mf_rd/clib3r.lib(/mnt/sda5/.user/root/src/openwatcom-1.9/bld/clib/streamio/c/ufreop_s.c)
0002:0002b3b0  _wfreopen_s_
Module: /mnt/sda5/.user/root/src/openwatcom-1.9/bld/clib/library/os2.386/mf_rd/clib3r.lib(/mnt/sda5/.user/root/src/openwatcom-1.9/bld/clib/streamio/c/ufprintf.c)
0002:0002b4c0  fwprintf_
Module: /mnt/sda5/.user/root/src/openwatcom-1.9/bld/clib/library/os2.386/mf_rd/clib3r.lib(/mnt/sda5/.user/root/src/openwatcom-1.9/bld/clib/streamio/c/ufprnt_s.c)
0002:0002b4f0  fwprintf_s_
Module: /mnt/sda5/.user/root/src/openwatcom-1.9/bld/clib/library/os2.386/mf_rd/clib3r.lib(/mnt/sda5/.user/root/src/openwatcom-1.9/bld/clib/streamio/c/ufputc.c)
0002:0002b599  fputwc_
Module: /mnt/sda5/.user/root/src/openwatcom-1.9/bld/clib/library/os2.386/mf_rd/clib3r.lib(/mnt/sda5/.user/root/src/openwatcom-1.9/bld/clib/streamio/c/ufputcha.c)
0002:0002b62f  fputwchar_
Module: /mnt/sda5/.user/root/src/openwatcom-1.9/bld/clib/library/os2.386/mf_rd/clib3r.lib(/mnt/sda5/.user/root/src/openwatcom-1.9/bld/clib/streamio/c/ufputs.c)
0002:0002b656  fputws_
Module: /mnt/sda5/.user/root/src/openwatcom-1.9/bld/clib/library/os2.386/mf_rd/clib3r.lib(/mnt/sda5/.user/root/src/openwatcom-1.9/bld/clib/streamio/c/ufscanf.c)
0002:0002b79b  vfwscanf_
0002:0002b832  fwscanf_
Module: /mnt/sda5/.user/root/src/openwatcom-1.9/bld/clib/library/os2.386/mf_rd/clib3r.lib(/mnt/sda5/.user/root/src/openwatcom-1.9/bld/clib/streamio/c/ufscnf_s.c)
0002:0002b910  fwscanf_s_
Module: /mnt/sda5/.user/root/src/openwatcom-1.9/bld/clib/library/os2.386/mf_rd/clib3r.lib(/mnt/sda5/.user/root/src/openwatcom-1.9/bld/clib/streamio/c/ugetc.c)
0002:0002ba29  getwc_
Module: /mnt/sda5/.user/root/src/openwatcom-1.9/bld/clib/library/os2.386/mf_rd/clib3r.lib(/mnt/sda5/.user/root/src/openwatcom-1.9/bld/clib/streamio/c/ugetchar.c)
0002:0002ba4a  getwchar_
Module: /mnt/sda5/.user/root/src/openwatcom-1.9/bld/clib/library/os2.386/mf_rd/clib3r.lib(/mnt/sda5/.user/root/src/openwatcom-1.9/bld/clib/streamio/c/ugets.c)
0002:0002ba6a  getws_
Module: /mnt/sda5/.user/root/src/openwatcom-1.9/bld/clib/library/os2.386/mf_rd/clib3r.lib(/mnt/sda5/.user/root/src/openwatcom-1.9/bld/clib/streamio/c/ungetc.c)
0002:0002bb00  ungetc_
Module: /mnt/sda5/.user/root/src/openwatcom-1.9/bld/clib/library/os2.386/mf_rd/clib3r.lib(/mnt/sda5/.user/root/src/openwatcom-1.9/bld/clib/streamio/c/uperror.c)
0002:0002bc80  _wperror_
Module: /mnt/sda5/.user/root/src/openwatcom-1.9/bld/clib/library/os2.386/mf_rd/clib3r.lib(/mnt/sda5/.user/root/src/openwatcom-1.9/bld/clib/streamio/c/upopen.c)
0002:0002c140  _wpopen_
Module: /mnt/sda5/.user/root/src/openwatcom-1.9/bld/clib/library/os2.386/mf_rd/clib3r.lib(/mnt/sda5/.user/root/src/openwatcom-1.9/bld/clib/streamio/c/uprintf.c)
0002:0002c38e  wprintf_
Module: /mnt/sda5/.user/root/src/openwatcom-1.9/bld/clib/library/os2.386/mf_rd/clib3r.lib(/mnt/sda5/.user/root/src/openwatcom-1.9/bld/clib/streamio/c/uprntf_s.c)
0002:0002c3c0  wprintf_s_
Module: /mnt/sda5/.user/root/src/openwatcom-1.9/bld/clib/library/os2.386/mf_rd/clib3r.lib(/mnt/sda5/.user/root/src/openwatcom-1.9/bld/clib/streamio/c/uputc.c)
0002:0002c3f3  putwc_
Module: /mnt/sda5/.user/root/src/openwatcom-1.9/bld/clib/library/os2.386/mf_rd/clib3r.lib(/mnt/sda5/.user/root/src/openwatcom-1.9/bld/clib/streamio/c/uputchar.c)
0002:0002c419  putwchar_
Module: /mnt/sda5/.user/root/src/openwatcom-1.9/bld/clib/library/os2.386/mf_rd/clib3r.lib(/mnt/sda5/.user/root/src/openwatcom-1.9/bld/clib/streamio/c/uputs.c)
0002:0002c440  putws_
Module: /mnt/sda5/.user/root/src/openwatcom-1.9/bld/clib/library/os2.386/mf_rd/clib3r.lib(/mnt/sda5/.user/root/src/openwatcom-1.9/bld/clib/streamio/c/uscanf.c)
0002:0002c4f4  vwscanf_
0002:0002c52a  wscanf_
Module: /mnt/sda5/.user/root/src/openwatcom-1.9/bld/clib/library/os2.386/mf_rd/clib3r.lib(/mnt/sda5/.user/root/src/openwatcom-1.9/bld/clib/streamio/c/uscanf_s.c)
0002:0002c600  wscanf_s_
Module: /mnt/sda5/.user/root/src/openwatcom-1.9/bld/clib/library/os2.386/mf_rd/clib3r.lib(/mnt/sda5/.user/root/src/openwatcom-1.9/bld/clib/streamio/c/uungetc.c)
0002:0002c697  ungetwc_
Module: /mnt/sda5/.user/root/src/openwatcom-1.9/bld/clib/library/os2.386/mf_rd/clib3r.lib(/mnt/sda5/.user/root/src/openwatcom-1.9/bld/clib/streamio/c/uvfprint.c)
0002:0002c8dd  vfwprintf_
Module: /mnt/sda5/.user/root/src/openwatcom-1.9/bld/clib/library/os2.386/mf_rd/clib3r.lib(/mnt/sda5/.user/root/src/openwatcom-1.9/bld/clib/streamio/c/uvfprt_s.c)
0002:0002c910  vfwprintf_s_
Module: /mnt/sda5/.user/root/src/openwatcom-1.9/bld/clib/library/os2.386/mf_rd/clib3r.lib(/mnt/sda5/.user/root/src/openwatcom-1.9/bld/clib/streamio/c/uvfscn_s.c)
0002:0002c9f0  vfwscanf_s_
Module: /mnt/sda5/.user/root/src/openwatcom-1.9/bld/clib/library/os2.386/mf_rd/clib3r.lib(/mnt/sda5/.user/root/src/openwatcom-1.9/bld/clib/streamio/c/uvprintf.c)
0002:0002cb01  vwprintf_
Module: /mnt/sda5/.user/root/src/openwatcom-1.9/bld/clib/library/os2.386/mf_rd/clib3r.lib(/mnt/sda5/.user/root/src/openwatcom-1.9/bld/clib/streamio/c/uvprtf_s.c)
0002:0002cb30  vwprintf_s_
Module: /mnt/sda5/.user/root/src/openwatcom-1.9/bld/clib/library/os2.386/mf_rd/clib3r.lib(/mnt/sda5/.user/root/src/openwatcom-1.9/bld/clib/streamio/c/uvscnf_s.c)
0002:0002cc10  vwscanf_s_
Module: /mnt/sda5/.user/root/src/openwatcom-1.9/bld/clib/library/os2.386/mf_rd/clib3r.lib(/mnt/sda5/.user/root/src/openwatcom-1.9/bld/clib/streamio/c/vfprintf.c)
0002:0002cca0  vfprintf_
Module: /mnt/sda5/.user/root/src/openwatcom-1.9/bld/clib/library/os2.386/mf_rd/clib3r.lib(/mnt/sda5/.user/root/src/openwatcom-1.9/bld/clib/streamio/c/vfprnt_s.c)
0002:0002ccd0  vfprintf_s_
Module: /mnt/sda5/.user/root/src/openwatcom-1.9/bld/clib/library/os2.386/mf_rd/clib3r.lib(/mnt/sda5/.user/root/src/openwatcom-1.9/bld/clib/streamio/c/vfscnf_s.c)
0002:0002cda0  vfscanf_s_
Module: /mnt/sda5/.user/root/src/openwatcom-1.9/bld/clib/library/os2.386/mf_rd/clib3r.lib(/mnt/sda5/.user/root/src/openwatcom-1.9/bld/clib/streamio/c/vprintf.c)
0002:0002cec0  vprintf_
Module: /mnt/sda5/.user/root/src/openwatcom-1.9/bld/clib/library/os2.386/mf_rd/clib3r.lib(/mnt/sda5/.user/root/src/openwatcom-1.9/bld/clib/streamio/c/vprntf_s.c)
0002:0002cf00  vprintf_s_
Module: /mnt/sda5/.user/root/src/openwatcom-1.9/bld/clib/library/os2.386/mf_rd/clib3r.lib(/mnt/sda5/.user/root/src/openwatcom-1.9/bld/clib/streamio/c/vscanf_s.c)
0002:0002cfd0  vscanf_s_
Module: /mnt/sda5/.user/root/src/openwatcom-1.9/bld/clib/library/os2.386/mf_rd/clib3r.lib(/mnt/sda5/.user/root/src/openwatcom-1.9/bld/clib/string/c/bprintf.c)
0002:0002d0c0  _vbprintf_
0002:0002d120  _bprintf_
0002:0002d160  _vsnprintf_
0002:0002d1e0  _snprintf_
Module: /mnt/sda5/.user/root/src/openwatcom-1.9/bld/clib/library/os2.386/mf_rd/clib3r.lib(/mnt/sda5/.user/root/src/openwatcom-1.9/bld/clib/string/a/cmp386.asm)
0002:0002d220  strcmp_
Module: /mnt/sda5/.user/root/src/openwatcom-1.9/bld/clib/library/os2.386/mf_rd/clib3r.lib(/mnt/sda5/.user/root/src/openwatcom-1.9/bld/clib/string/c/fstrcat.c)
0002:0002d360  _fstrcat_
Module: /mnt/sda5/.user/root/src/openwatcom-1.9/bld/clib/library/os2.386/mf_rd/clib3r.lib(/mnt/sda5/.user/root/src/openwatcom-1.9/bld/clib/string/c/fstrchr.c)
0002:0002d3f0  _fstrchr_
Module: /mnt/sda5/.user/root/src/openwatcom-1.9/bld/clib/library/os2.386/mf_rd/clib3r.lib(/mnt/sda5/.user/root/src/openwatcom-1.9/bld/clib/string/c/fstrcmp.c)
0002:0002d460  _fstrcmp_
Module: /mnt/sda5/.user/root/src/openwatcom-1.9/bld/clib/library/os2.386/mf_rd/clib3r.lib(/mnt/sda5/.user/root/src/openwatcom-1.9/bld/clib/string/c/fstrcpy.c)
0002:0002d4f0  _fstrcpy_
Module: /mnt/sda5/.user/root/src/openwatcom-1.9/bld/clib/library/os2.386/mf_rd/clib3r.lib(/mnt/sda5/.user/root/src/openwatcom-1.9/bld/clib/string/c/fstrcspn.c)
0002:0002d570  _fstrcspn_
Module: /mnt/sda5/.user/root/src/openwatcom-1.9/bld/clib/library/os2.386/mf_rd/clib3r.lib(/mnt/sda5/.user/root/src/openwatcom-1.9/bld/clib/string/c/fstrdup.c)
0002:0002d610  _fstrdup_
Module: /mnt/sda5/.user/root/src/openwatcom-1.9/bld/clib/library/os2.386/mf_rd/clib3r.lib(/mnt/sda5/.user/root/src/openwatcom-1.9/bld/clib/string/c/fstricmp.c)
0002:0002d690  _fstricmp_
Module: /mnt/sda5/.user/root/src/openwatcom-1.9/bld/clib/library/os2.386/mf_rd/clib3r.lib(/mnt/sda5/.user/root/src/openwatcom-1.9/bld/clib/string/c/fstrlen.c)
0002:0002d730  _fstrlen_
Module: /mnt/sda5/.user/root/src/openwatcom-1.9/bld/clib/library/os2.386/mf_rd/clib3r.lib(/mnt/sda5/.user/root/src/openwatcom-1.9/bld/clib/string/c/fstrlwr.c)
0002:0002d780  _fstrlwr_
Module: /mnt/sda5/.user/root/src/openwatcom-1.9/bld/clib/library/os2.386/mf_rd/clib3r.lib(/mnt/sda5/.user/root/src/openwatcom-1.9/bld/clib/string/c/fstrncat.c)
0002:0002d800  _fstrncat_
Module: /mnt/sda5/.user/root/src/openwatcom-1.9/bld/clib/library/os2.386/mf_rd/clib3r.lib(/mnt/sda5/.user/root/src/openwatcom-1.9/bld/clib/string/c/fstrncmp.c)
0002:0002d8a0  _fstrncmp_
Module: /mnt/sda5/.user/root/src/openwatcom-1.9/bld/clib/library/os2.386/mf_rd/clib3r.lib(/mnt/sda5/.user/root/src/openwatcom-1.9/bld/clib/string/c/fstrncpy.c)
0002:0002d940  _fstrncpy_
Module: /mnt/sda5/.user/root/src/openwatcom-1.9/bld/clib/library/os2.386/mf_rd/clib3r.lib(/mnt/sda5/.user/root/src/openwatcom-1.9/bld/clib/string/c/fstrnicm.c)
0002:0002d9f0  _fstrnicmp_
Module: /mnt/sda5/.user/root/src/openwatcom-1.9/bld/clib/library/os2.386/mf_rd/clib3r.lib(/mnt/sda5/.user/root/src/openwatcom-1.9/bld/clib/string/c/fstrnset.c)
0002:0002dab0  _fstrnset_
Module: /mnt/sda5/.user/root/src/openwatcom-1.9/bld/clib/library/os2.386/mf_rd/clib3r.lib(/mnt/sda5/.user/root/src/openwatcom-1.9/bld/clib/string/c/fstrpbrk.c)
0002:0002db20  _fstrpbrk_
Module: /mnt/sda5/.user/root/src/openwatcom-1.9/bld/clib/library/os2.386/mf_rd/clib3r.lib(/mnt/sda5/.user/root/src/openwatcom-1.9/bld/clib/string/c/fstrrchr.c)
0002:0002dbd0  _fstrrchr_
Module: /mnt/sda5/.user/root/src/openwatcom-1.9/bld/clib/library/os2.386/mf_rd/clib3r.lib(/mnt/sda5/.user/root/src/openwatcom-1.9/bld/clib/string/c/fstrrev.c)
0002:0002dc50  _fstrrev_
Module: /mnt/sda5/.user/root/src/openwatcom-1.9/bld/clib/library/os2.386/mf_rd/clib3r.lib(/mnt/sda5/.user/root/src/openwatcom-1.9/bld/clib/string/c/fstrset.c)
0002:0002dd00  _fstrset_
Module: /mnt/sda5/.user/root/src/openwatcom-1.9/bld/clib/library/os2.386/mf_rd/clib3r.lib(/mnt/sda5/.user/root/src/openwatcom-1.9/bld/clib/string/c/fstrspn.c)
0002:0002dd70  _fstrspn_
Module: /mnt/sda5/.user/root/src/openwatcom-1.9/bld/clib/library/os2.386/mf_rd/clib3r.lib(/mnt/sda5/.user/root/src/openwatcom-1.9/bld/clib/string/c/fstrspnp.c)
0002:0002de10  _fstrspnp_
Module: /mnt/sda5/.user/root/src/openwatcom-1.9/bld/clib/library/os2.386/mf_rd/clib3r.lib(/mnt/sda5/.user/root/src/openwatcom-1.9/bld/clib/string/c/fstrstr.c)
0002:0002de80  _fstrstr_
Module: /mnt/sda5/.user/root/src/openwatcom-1.9/bld/clib/library/os2.386/mf_rd/clib3r.lib(/mnt/sda5/.user/root/src/openwatcom-1.9/bld/clib/string/c/fstrtok.c)
0002:0002dfd0  _fstrtok_
Module: /mnt/sda5/.user/root/src/openwatcom-1.9/bld/clib/library/os2.386/mf_rd/clib3r.lib(/mnt/sda5/.user/root/src/openwatcom-1.9/bld/clib/string/c/fstrupr.c)
0002:0002e180  _fstrupr_
Module: /mnt/sda5/.user/root/src/openwatcom-1.9/bld/clib/library/os2.386/mf_rd/clib3r.lib(/mnt/sda5/.user/root/src/openwatcom-1.9/bld/clib/string/c/selptr.c)
0002:0002e200  __get_sys_errlist_ptr_
Module: /mnt/sda5/.user/root/src/openwatcom-1.9/bld/clib/library/os2.386/mf_rd/clib3r.lib(/mnt/sda5/.user/root/src/openwatcom-1.9/bld/clib/string/c/sneptr.c)
0002:0002e230  __get_sys_nerr_ptr_
Module: /mnt/sda5/.user/root/src/openwatcom-1.9/bld/clib/library/os2.386/mf_rd/clib3r.lib(/mnt/sda5/.user/root/src/openwatcom-1.9/bld/clib/string/c/snprintf.c)
0002:0002e2e0  vsnprintf_
0002:0002e370  snprintf_
Module: /mnt/sda5/.user/root/src/openwatcom-1.9/bld/clib/library/os2.386/mf_rd/clib3r.lib(/mnt/sda5/.user/root/src/openwatcom-1.9/bld/clib/string/c/snprtf_s.c)
0002:0002e440  snprintf_s_
Module: /mnt/sda5/.user/root/src/openwatcom-1.9/bld/clib/library/os2.386/mf_rd/clib3r.lib(/mnt/sda5/.user/root/src/openwatcom-1.9/bld/clib/string/c/sprintf.c)
0002:0002e570  sprintf_
Module: /mnt/sda5/.user/root/src/openwatcom-1.9/bld/clib/library/os2.386/mf_rd/clib3r.lib(/mnt/sda5/.user/root/src/openwatcom-1.9/bld/clib/string/c/sprntf_s.c)
0002:0002e650  sprintf_s_
Module: /mnt/sda5/.user/root/src/openwatcom-1.9/bld/clib/library/os2.386/mf_rd/clib3r.lib(/mnt/sda5/.user/root/src/openwatcom-1.9/bld/clib/string/c/sscanf.c)
0002:0002e810  vsscanf_
0002:0002e860  sscanf_
Module: /mnt/sda5/.user/root/src/openwatcom-1.9/bld/clib/library/os2.386/mf_rd/clib3r.lib(/mnt/sda5/.user/root/src/openwatcom-1.9/bld/clib/string/c/sscanf_s.c)
0002:0002e950  sscanf_s_
Module: /mnt/sda5/.user/root/src/openwatcom-1.9/bld/clib/library/os2.386/mf_rd/clib3r.lib(/mnt/sda5/.user/root/src/openwatcom-1.9/bld/clib/string/c/strcat.c)
0002:0002ea20  strcat_
Module: /mnt/sda5/.user/root/src/openwatcom-1.9/bld/clib/library/os2.386/mf_rd/clib3r.lib(/mnt/sda5/.user/root/src/openwatcom-1.9/bld/clib/string/c/strchr.c)
0002:0002ea70  strchr_
Module: /mnt/sda5/.user/root/src/openwatcom-1.9/bld/clib/library/os2.386/mf_rd/clib3r.lib(/mnt/sda5/.user/root/src/openwatcom-1.9/bld/clib/string/c/strcoll.c)
0002:0002eac0  strcoll_
Module: /mnt/sda5/.user/root/src/openwatcom-1.9/bld/clib/library/os2.386/mf_rd/clib3r.lib(/mnt/sda5/.user/root/src/openwatcom-1.9/bld/clib/string/c/strcpy.c)
0002:0002eb20  strcpy_
Module: /mnt/sda5/.user/root/src/openwatcom-1.9/bld/clib/library/os2.386/mf_rd/clib3r.lib(/mnt/sda5/.user/root/src/openwatcom-1.9/bld/clib/string/c/strcspn.c)
0002:0002eb70  strcspn_
Module: /mnt/sda5/.user/root/src/openwatcom-1.9/bld/clib/library/os2.386/mf_rd/clib3r.lib(/mnt/sda5/.user/root/src/openwatcom-1.9/bld/clib/string/c/strdup.c)
0002:0002ebf0  __clib_strdup_
Module: /mnt/sda5/.user/root/src/openwatcom-1.9/bld/clib/library/os2.386/mf_rd/clib3r.lib(/mnt/sda5/.user/root/src/openwatcom-1.9/bld/clib/string/c/strerror.c)
0002:0002ef60  strerror_
0002:0002efb0  _strerror_
0003:0000085c  __sys_errlist
0003:00000900  __sys_nerr
Module: /mnt/sda5/.user/root/src/openwatcom-1.9/bld/clib/library/os2.386/mf_rd/clib3r.lib(/mnt/sda5/.user/root/src/openwatcom-1.9/bld/clib/string/c/stricmp.c)
0002:0002f040  stricmp_
Module: /mnt/sda5/.user/root/src/openwatcom-1.9/bld/clib/library/os2.386/mf_rd/clib3r.lib(/mnt/sda5/.user/root/src/openwatcom-1.9/bld/clib/string/c/strlcat.c)
0002:0002f0c0  strlcat_
Module: /mnt/sda5/.user/root/src/openwatcom-1.9/bld/clib/library/os2.386/mf_rd/clib3r.lib(/mnt/sda5/.user/root/src/openwatcom-1.9/bld/clib/string/c/strlcpy.c)
0002:0002f160  strlcpy_
Module: /mnt/sda5/.user/root/src/openwatcom-1.9/bld/clib/library/os2.386/mf_rd/clib3r.lib(/mnt/sda5/.user/root/src/openwatcom-1.9/bld/clib/string/c/strlen.c)
0002:0002f1f0  strlen_
Module: /mnt/sda5/.user/root/src/openwatcom-1.9/bld/clib/library/os2.386/mf_rd/clib3r.lib(/mnt/sda5/.user/root/src/openwatcom-1.9/bld/clib/string/c/strlwr.c)
0002:0002f230  strlwr_
Module: /mnt/sda5/.user/root/src/openwatcom-1.9/bld/clib/library/os2.386/mf_rd/clib3r.lib(/mnt/sda5/.user/root/src/openwatcom-1.9/bld/clib/string/c/strncat.c)
0002:0002f290  strncat_
Module: /mnt/sda5/.user/root/src/openwatcom-1.9/bld/clib/library/os2.386/mf_rd/clib3r.lib(/mnt/sda5/.user/root/src/openwatcom-1.9/bld/clib/string/c/strncmp.c)
0002:0002f300  strncmp_
Module: /mnt/sda5/.user/root/src/openwatcom-1.9/bld/clib/library/os2.386/mf_rd/clib3r.lib(/mnt/sda5/.user/root/src/openwatcom-1.9/bld/clib/string/c/strncpy.c)
0002:0002f370  strncpy_
Module: /mnt/sda5/.user/root/src/openwatcom-1.9/bld/clib/library/os2.386/mf_rd/clib3r.lib(/mnt/sda5/.user/root/src/openwatcom-1.9/bld/clib/string/c/strnicmp.c)
0002:0002f3e0  strnicmp_
Module: /mnt/sda5/.user/root/src/openwatcom-1.9/bld/clib/library/os2.386/mf_rd/clib3r.lib(/mnt/sda5/.user/root/src/openwatcom-1.9/bld/clib/string/c/strnset.c)
0002:0002f480  strnset_
Module: /mnt/sda5/.user/root/src/openwatcom-1.9/bld/clib/library/os2.386/mf_rd/clib3r.lib(/mnt/sda5/.user/root/src/openwatcom-1.9/bld/clib/string/c/strpbrk.c)
0002:0002f4d0  strpbrk_
Module: /mnt/sda5/.user/root/src/openwatcom-1.9/bld/clib/library/os2.386/mf_rd/clib3r.lib(/mnt/sda5/.user/root/src/openwatcom-1.9/bld/clib/string/c/strrchr.c)
0002:0002f550  strrchr_
Module: /mnt/sda5/.user/root/src/openwatcom-1.9/bld/clib/library/os2.386/mf_rd/clib3r.lib(/mnt/sda5/.user/root/src/openwatcom-1.9/bld/clib/string/c/strrev.c)
0002:0002f5a0  strrev_
Module: /mnt/sda5/.user/root/src/openwatcom-1.9/bld/clib/library/os2.386/mf_rd/clib3r.lib(/mnt/sda5/.user/root/src/openwatcom-1.9/bld/clib/string/c/strset.c)
0002:0002f610  strset_
Module: /mnt/sda5/.user/root/src/openwatcom-1.9/bld/clib/library/os2.386/mf_rd/clib3r.lib(/mnt/sda5/.user/root/src/openwatcom-1.9/bld/clib/string/c/strspnp.c)
0002:0002f650  strspnp_
Module: /mnt/sda5/.user/root/src/openwatcom-1.9/bld/clib/library/os2.386/mf_rd/clib3r.lib(/mnt/sda5/.user/root/src/openwatcom-1.9/bld/clib/string/c/strspn.c)
0002:0002f6a0  strspn_
Module: /mnt/sda5/.user/root/src/openwatcom-1.9/bld/clib/library/os2.386/mf_rd/clib3r.lib(/mnt/sda5/.user/root/src/openwatcom-1.9/bld/clib/string/c/strstr.c)
0002:0002f720  strstr_
Module: /mnt/sda5/.user/root/src/openwatcom-1.9/bld/clib/library/os2.386/mf_rd/clib3r.lib(/mnt/sda5/.user/root/src/openwatcom-1.9/bld/clib/string/c/strtok.c)
0002:0002f7f0  strtok_
Module: /mnt/sda5/.user/root/src/openwatcom-1.9/bld/clib/library/os2.386/mf_rd/clib3r.lib(/mnt/sda5/.user/root/src/openwatcom-1.9/bld/clib/string/c/strupr.c)
0002:0002f900  strupr_
Module: /mnt/sda5/.user/root/src/openwatcom-1.9/bld/clib/library/os2.386/mf_rd/clib3r.lib(/mnt/sda5/.user/root/src/openwatcom-1.9/bld/clib/string/c/strxfrm.c)
0002:0002f960  strxfrm_
Module: /mnt/sda5/.user/root/src/openwatcom-1.9/bld/clib/library/os2.386/mf_rd/clib3r.lib(/mnt/sda5/.user/root/src/openwatcom-1.9/bld/clib/string/c/stncat_s.c)
0002:0002fa50  strncat_s_
Module: /mnt/sda5/.user/root/src/openwatcom-1.9/bld/clib/library/os2.386/mf_rd/clib3r.lib(/mnt/sda5/.user/root/src/openwatcom-1.9/bld/clib/string/c/stncpy_s.c)
0002:0002fcf0  strncpy_s_
Module: /mnt/sda5/.user/root/src/openwatcom-1.9/bld/clib/library/os2.386/mf_rd/clib3r.lib(/mnt/sda5/.user/root/src/openwatcom-1.9/bld/clib/string/c/strcat_s.c)
0002:0002ff50  strcat_s_
Module: /mnt/sda5/.user/root/src/openwatcom-1.9/bld/clib/library/os2.386/mf_rd/clib3r.lib(/mnt/sda5/.user/root/src/openwatcom-1.9/bld/clib/string/c/strcpy_s.c)
0002:000301a0  strcpy_s_
Module: /mnt/sda5/.user/root/src/openwatcom-1.9/bld/clib/library/os2.386/mf_rd/clib3r.lib(/mnt/sda5/.user/root/src/openwatcom-1.9/bld/clib/string/c/streln_s.c)
0002:00030350  strerrorlen_s_
Module: /mnt/sda5/.user/root/src/openwatcom-1.9/bld/clib/library/os2.386/mf_rd/clib3r.lib(/mnt/sda5/.user/root/src/openwatcom-1.9/bld/clib/string/c/strerr_s.c)
0002:00030410  strerror_s_
Module: /mnt/sda5/.user/root/src/openwatcom-1.9/bld/clib/library/os2.386/mf_rd/clib3r.lib(/mnt/sda5/.user/root/src/openwatcom-1.9/bld/clib/string/c/strnln_s.c)
0002:00030580  strnlen_s_
Module: /mnt/sda5/.user/root/src/openwatcom-1.9/bld/clib/library/os2.386/mf_rd/clib3r.lib(/mnt/sda5/.user/root/src/openwatcom-1.9/bld/clib/string/c/strtok_s.c)
0002:00030660  strtok_s_
Module: /mnt/sda5/.user/root/src/openwatcom-1.9/bld/clib/library/os2.386/mf_rd/clib3r.lib(/mnt/sda5/.user/root/src/openwatcom-1.9/bld/clib/string/c/u_stprtf.c)
0002:000308f0  _stprintf_
Module: /mnt/sda5/.user/root/src/openwatcom-1.9/bld/clib/library/os2.386/mf_rd/clib3r.lib(/mnt/sda5/.user/root/src/openwatcom-1.9/bld/clib/string/c/ubprintf.c)
0002:00030980  _vbwprintf_
0002:000309db  _bwprintf_
0002:00030a08  _vsnwprintf_
0002:00030a79  _snwprintf_
Module: /mnt/sda5/.user/root/src/openwatcom-1.9/bld/clib/library/os2.386/mf_rd/clib3r.lib(/mnt/sda5/.user/root/src/openwatcom-1.9/bld/clib/string/c/usnprt_s.c)
0002:00030b40  snwprintf_s_
Module: /mnt/sda5/.user/root/src/openwatcom-1.9/bld/clib/library/os2.386/mf_rd/clib3r.lib(/mnt/sda5/.user/root/src/openwatcom-1.9/bld/clib/string/c/usprintf.c)
0002:00030c6b  swprintf_
0002:00030c98  _swprintf_
Module: /mnt/sda5/.user/root/src/openwatcom-1.9/bld/clib/library/os2.386/mf_rd/clib3r.lib(/mnt/sda5/.user/root/src/openwatcom-1.9/bld/clib/string/c/usprtf_s.c)
0002:00030d70  swprintf_s_
Module: /mnt/sda5/.user/root/src/openwatcom-1.9/bld/clib/library/os2.386/mf_rd/clib3r.lib(/mnt/sda5/.user/root/src/openwatcom-1.9/bld/clib/string/c/usscanf.c)
0002:00030f14  vswscanf_
0002:00030f51  swscanf_
Module: /mnt/sda5/.user/root/src/openwatcom-1.9/bld/clib/library/os2.386/mf_rd/clib3r.lib(/mnt/sda5/.user/root/src/openwatcom-1.9/bld/clib/string/c/usscnf_s.c)
0002:00031030  swscanf_s_
Module: /mnt/sda5/.user/root/src/openwatcom-1.9/bld/clib/library/os2.386/mf_rd/clib3r.lib(/mnt/sda5/.user/root/src/openwatcom-1.9/bld/clib/string/c/ustrcat.c)
0002:000310f2  wcscat_
Module: /mnt/sda5/.user/root/src/openwatcom-1.9/bld/clib/library/os2.386/mf_rd/clib3r.lib(/mnt/sda5/.user/root/src/openwatcom-1.9/bld/clib/string/c/ustrchr.c)
0002:00031142  wcschr_
Module: /mnt/sda5/.user/root/src/openwatcom-1.9/bld/clib/library/os2.386/mf_rd/clib3r.lib(/mnt/sda5/.user/root/src/openwatcom-1.9/bld/clib/string/c/ustrcmp.c)
0002:00031187  wcscmp_
Module: /mnt/sda5/.user/root/src/openwatcom-1.9/bld/clib/library/os2.386/mf_rd/clib3r.lib(/mnt/sda5/.user/root/src/openwatcom-1.9/bld/clib/string/c/ustrcoll.c)
0002:000311e0  wcscoll_
Module: /mnt/sda5/.user/root/src/openwatcom-1.9/bld/clib/library/os2.386/mf_rd/clib3r.lib(/mnt/sda5/.user/root/src/openwatcom-1.9/bld/clib/string/c/ustrcpy.c)
0002:00031246  wcscpy_
Module: /mnt/sda5/.user/root/src/openwatcom-1.9/bld/clib/library/os2.386/mf_rd/clib3r.lib(/mnt/sda5/.user/root/src/openwatcom-1.9/bld/clib/string/c/ustrcspn.c)
0002:00031287  wcscspn_
Module: /mnt/sda5/.user/root/src/openwatcom-1.9/bld/clib/library/os2.386/mf_rd/clib3r.lib(/mnt/sda5/.user/root/src/openwatcom-1.9/bld/clib/string/c/ustrdup.c)
0002:00031303  __clib_wcsdup_
Module: /mnt/sda5/.user/root/src/openwatcom-1.9/bld/clib/library/os2.386/mf_rd/clib3r.lib(/mnt/sda5/.user/root/src/openwatcom-1.9/bld/clib/string/c/ustrerro.c)
0002:00031370  wcserror_
0002:000313d0  _wcserror_
Module: /mnt/sda5/.user/root/src/openwatcom-1.9/bld/clib/library/os2.386/mf_rd/clib3r.lib(/mnt/sda5/.user/root/src/openwatcom-1.9/bld/clib/string/c/ustricmp.c)
0002:0003145e  _wcsicmp_
Module: /mnt/sda5/.user/root/src/openwatcom-1.9/bld/clib/library/os2.386/mf_rd/clib3r.lib(/mnt/sda5/.user/root/src/openwatcom-1.9/bld/clib/string/c/ustrlcat.c)
0002:000314ec  wcslcat_
Module: /mnt/sda5/.user/root/src/openwatcom-1.9/bld/clib/library/os2.386/mf_rd/clib3r.lib(/mnt/sda5/.user/root/src/openwatcom-1.9/bld/clib/string/c/ustrlcpy.c)
0002:00031591  wcslcpy_
Module: /mnt/sda5/.user/root/src/openwatcom-1.9/bld/clib/library/os2.386/mf_rd/clib3r.lib(/mnt/sda5/.user/root/src/openwatcom-1.9/bld/clib/string/c/ustrlen.c)
0002:00031621  wcslen_
Module: /mnt/sda5/.user/root/src/openwatcom-1.9/bld/clib/library/os2.386/mf_rd/clib3r.lib(/mnt/sda5/.user/root/src/openwatcom-1.9/bld/clib/string/c/ustrlwr.c)
0002:00031657  _wcslwr_
Module: /mnt/sda5/.user/root/src/openwatcom-1.9/bld/clib/library/os2.386/mf_rd/clib3r.lib(/mnt/sda5/.user/root/src/openwatcom-1.9/bld/clib/string/c/ustrncat.c)
0002:000316af  wcsncat_
Module: /mnt/sda5/.user/root/src/openwatcom-1.9/bld/clib/library/os2.386/mf_rd/clib3r.lib(/mnt/sda5/.user/root/src/openwatcom-1.9/bld/clib/string/c/ustrncmp.c)
0002:00031712  wcsncmp_
Module: /mnt/sda5/.user/root/src/openwatcom-1.9/bld/clib/library/os2.386/mf_rd/clib3r.lib(/mnt/sda5/.user/root/src/openwatcom-1.9/bld/clib/string/c/ustrncpy.c)
0002:0003177a  wcsncpy_
Module: /mnt/sda5/.user/root/src/openwatcom-1.9/bld/clib/library/os2.386/mf_rd/clib3r.lib(/mnt/sda5/.user/root/src/openwatcom-1.9/bld/clib/string/c/ustrnicm.c)
0002:000317e1  _wcsnicmp_
Module: /mnt/sda5/.user/root/src/openwatcom-1.9/bld/clib/library/os2.386/mf_rd/clib3r.lib(/mnt/sda5/.user/root/src/openwatcom-1.9/bld/clib/string/c/ustrnset.c)
0002:00031890  _wcsnset_
Module: /mnt/sda5/.user/root/src/openwatcom-1.9/bld/clib/library/os2.386/mf_rd/clib3r.lib(/mnt/sda5/.user/root/src/openwatcom-1.9/bld/clib/string/c/ustrpbrk.c)
0002:000318d8  wcspbrk_
Module: /mnt/sda5/.user/root/src/openwatcom-1.9/bld/clib/library/os2.386/mf_rd/clib3r.lib(/mnt/sda5/.user/root/src/openwatcom-1.9/bld/clib/string/c/ustrrchr.c)
0002:0003195b  wcsrchr_
Module: /mnt/sda5/.user/root/src/openwatcom-1.9/bld/clib/library/os2.386/mf_rd/clib3r.lib(/mnt/sda5/.user/root/src/openwatcom-1.9/bld/clib/string/c/ustrrev.c)
0002:000319a4  _wcsrev_
Module: /mnt/sda5/.user/root/src/openwatcom-1.9/bld/clib/library/os2.386/mf_rd/clib3r.lib(/mnt/sda5/.user/root/src/openwatcom-1.9/bld/clib/string/c/ustrset.c)
0002:00031a0e  _wcsset_
Module: /mnt/sda5/.user/root/src/openwatcom-1.9/bld/clib/library/os2.386/mf_rd/clib3r.lib(/mnt/sda5/.user/root/src/openwatcom-1.9/bld/clib/string/c/ustrspn.c)
0002:00031a49  wcsspn_
Module: /mnt/sda5/.user/root/src/openwatcom-1.9/bld/clib/library/os2.386/mf_rd/clib3r.lib(/mnt/sda5/.user/root/src/openwatcom-1.9/bld/clib/string/c/ustrspnp.c)
0002:00031ad0  _wcsspnp_
Module: /mnt/sda5/.user/root/src/openwatcom-1.9/bld/clib/library/os2.386/mf_rd/clib3r.lib(/mnt/sda5/.user/root/src/openwatcom-1.9/bld/clib/string/c/ustrstr.c)
0002:00031b20  wcsstr_
Module: /mnt/sda5/.user/root/src/openwatcom-1.9/bld/clib/library/os2.386/mf_rd/clib3r.lib(/mnt/sda5/.user/root/src/openwatcom-1.9/bld/clib/string/c/ustrtok.c)
0002:00031bdf  _ustrtok_
0002:00031c06  wcstok_
Module: /mnt/sda5/.user/root/src/openwatcom-1.9/bld/clib/library/os2.386/mf_rd/clib3r.lib(/mnt/sda5/.user/root/src/openwatcom-1.9/bld/clib/string/c/ustrupr.c)
0002:00031d6a  _wcsupr_
Module: /mnt/sda5/.user/root/src/openwatcom-1.9/bld/clib/library/os2.386/mf_rd/clib3r.lib(/mnt/sda5/.user/root/src/openwatcom-1.9/bld/clib/string/c/ustrxfrm.c)
0002:00031dd0  wcsxfrm_
Module: /mnt/sda5/.user/root/src/openwatcom-1.9/bld/clib/library/os2.386/mf_rd/clib3r.lib(/mnt/sda5/.user/root/src/openwatcom-1.9/bld/clib/string/c/uvsnpr_s.c)
0002:00031ec0  vsnwprintf_s_
Module: /mnt/sda5/.user/root/src/openwatcom-1.9/bld/clib/library/os2.386/mf_rd/clib3r.lib(/mnt/sda5/.user/root/src/openwatcom-1.9/bld/clib/string/c/uvsprint.c)
0002:0003202c  vswprintf_
0002:0003208a  _vswprintf_
Module: /mnt/sda5/.user/root/src/openwatcom-1.9/bld/clib/library/os2.386/mf_rd/clib3r.lib(/mnt/sda5/.user/root/src/openwatcom-1.9/bld/clib/string/c/uvsprt_s.c)
0002:00032190  vswprintf_s_
Module: /mnt/sda5/.user/root/src/openwatcom-1.9/bld/clib/library/os2.386/mf_rd/clib3r.lib(/mnt/sda5/.user/root/src/openwatcom-1.9/bld/clib/string/c/uvsscn_s.c)
0002:00032380  vswscanf_s_
Module: /mnt/sda5/.user/root/src/openwatcom-1.9/bld/clib/library/os2.386/mf_rd/clib3r.lib(/mnt/sda5/.user/root/src/openwatcom-1.9/bld/clib/string/c/ustcat_s.c)
0002:000324c0  wcscat_s_
Module: /mnt/sda5/.user/root/src/openwatcom-1.9/bld/clib/library/os2.386/mf_rd/clib3r.lib(/mnt/sda5/.user/root/src/openwatcom-1.9/bld/clib/string/c/ustncp_s.c)
0002:00032730  wcsncpy_s_
Module: /mnt/sda5/.user/root/src/openwatcom-1.9/bld/clib/library/os2.386/mf_rd/clib3r.lib(/mnt/sda5/.user/root/src/openwatcom-1.9/bld/clib/string/c/ustnct_s.c)
0002:000329c0  wcsncat_s_
Module: /mnt/sda5/.user/root/src/openwatcom-1.9/bld/clib/library/os2.386/mf_rd/clib3r.lib(/mnt/sda5/.user/root/src/openwatcom-1.9/bld/clib/string/c/ustnln_s.c)
0002:00032c00  wcsnlen_s_
Module: /mnt/sda5/.user/root/src/openwatcom-1.9/bld/clib/library/os2.386/mf_rd/clib3r.lib(/mnt/sda5/.user/root/src/openwatcom-1.9/bld/clib/string/c/ustrcp_s.c)
0002:00032cb0  wcscpy_s_
Module: /mnt/sda5/.user/root/src/openwatcom-1.9/bld/clib/library/os2.386/mf_rd/clib3r.lib(/mnt/sda5/.user/root/src/openwatcom-1.9/bld/clib/string/c/ustrel_s.c)
0002:00032e70  wcserrorlen_s_
Module: /mnt/sda5/.user/root/src/openwatcom-1.9/bld/clib/library/os2.386/mf_rd/clib3r.lib(/mnt/sda5/.user/root/src/openwatcom-1.9/bld/clib/string/c/ustrer_s.c)
0002:00032f30  wcserror_s_
Module: /mnt/sda5/.user/root/src/openwatcom-1.9/bld/clib/library/os2.386/mf_rd/clib3r.lib(/mnt/sda5/.user/root/src/openwatcom-1.9/bld/clib/string/c/ustrtk_s.c)
0002:00033140  wcstok_s_
Module: /mnt/sda5/.user/root/src/openwatcom-1.9/bld/clib/library/os2.386/mf_rd/clib3r.lib(/mnt/sda5/.user/root/src/openwatcom-1.9/bld/clib/string/c/vsnprt_s.c)
0002:00033470  vsnprintf_s_
Module: /mnt/sda5/.user/root/src/openwatcom-1.9/bld/clib/library/os2.386/mf_rd/clib3r.lib(/mnt/sda5/.user/root/src/openwatcom-1.9/bld/clib/string/c/vsprintf.c)
0002:000335c0  vsprintf_
Module: /mnt/sda5/.user/root/src/openwatcom-1.9/bld/clib/library/os2.386/mf_rd/clib3r.lib(/mnt/sda5/.user/root/src/openwatcom-1.9/bld/clib/string/c/vsprtf_s.c)
0002:000336b0  vsprintf_s_
Module: /mnt/sda5/.user/root/src/openwatcom-1.9/bld/clib/library/os2.386/mf_rd/clib3r.lib(/mnt/sda5/.user/root/src/openwatcom-1.9/bld/clib/string/c/vsscnf_s.c)
0002:00033890  vsscanf_s_
Module: /mnt/sda5/.user/root/src/openwatcom-1.9/bld/clib/library/os2.386/mf_rd/clib3r.lib(/mnt/sda5/.user/root/src/openwatcom-1.9/bld/clib/time/c/asctime.c)
0002:000339cd  _asctime_
0002:00033b26  asctime_
0002:00033b50  _ctime_
0002:00033b7f  ctime_
Module: /mnt/sda5/.user/root/src/openwatcom-1.9/bld/clib/library/os2.386/mf_rd/clib3r.lib(/mnt/sda5/.user/root/src/openwatcom-1.9/bld/clib/time/c/clocko32.c)
0002:00033bc0  clock_
Module: /mnt/sda5/.user/root/src/openwatcom-1.9/bld/clib/library/os2.386/mf_rd/clib3r.lib(/mnt/sda5/.user/root/src/openwatcom-1.9/bld/clib/time/c/dyltptr.c)
0002:00033c20  __get_daylight_ptr_
Module: /mnt/sda5/.user/root/src/openwatcom-1.9/bld/clib/library/os2.386/mf_rd/clib3r.lib(/mnt/sda5/.user/root/src/openwatcom-1.9/bld/clib/time/c/ftime.c)
0002:00033c50  ftime_
Module: /mnt/sda5/.user/root/src/openwatcom-1.9/bld/clib/library/os2.386/mf_rd/clib3r.lib(/mnt/sda5/.user/root/src/openwatcom-1.9/bld/clib/time/c/gmtime.c)
0002:00033d30  __brktime_
0002:00033eb0  _gmtime_
0002:00033ef0  gmtime_
Module: /mnt/sda5/.user/root/src/openwatcom-1.9/bld/clib/library/os2.386/mf_rd/clib3r.lib(/mnt/sda5/.user/root/src/openwatcom-1.9/bld/clib/time/c/localtim.c)
0002:00033f30  _localtime_
0002:00033fb0  localtime_
Module: /mnt/sda5/.user/root/src/openwatcom-1.9/bld/clib/library/os2.386/mf_rd/clib3r.lib(/mnt/sda5/.user/root/src/openwatcom-1.9/bld/clib/time/c/mktime.c)
0002:00033ff0  mktime_
Module: /mnt/sda5/.user/root/src/openwatcom-1.9/bld/clib/library/os2.386/mf_rd/clib3r.lib(/mnt/sda5/.user/root/src/openwatcom-1.9/bld/clib/time/c/strdate.c)
0002:000340a0  _strdate_
Module: /mnt/sda5/.user/root/src/openwatcom-1.9/bld/clib/library/os2.386/mf_rd/clib3r.lib(/mnt/sda5/.user/root/src/openwatcom-1.9/bld/clib/time/c/strftime.c)
0002:000342af  strftime_
Module: /mnt/sda5/.user/root/src/openwatcom-1.9/bld/clib/library/os2.386/mf_rd/clib3r.lib(/mnt/sda5/.user/root/src/openwatcom-1.9/bld/clib/time/c/strtime.c)
0002:00034ac0  _strtime_
Module: /mnt/sda5/.user/root/src/openwatcom-1.9/bld/clib/library/os2.386/mf_rd/clib3r.lib(/mnt/sda5/.user/root/src/openwatcom-1.9/bld/clib/time/c/time.c)
0002:00034b10  time_
Module: /mnt/sda5/.user/root/src/openwatcom-1.9/bld/clib/library/os2.386/mf_rd/clib3r.lib(/mnt/sda5/.user/root/src/openwatcom-1.9/bld/clib/time/c/tmznptr.c)
0002:00034b70  __get_timezone_ptr_
Module: /mnt/sda5/.user/root/src/openwatcom-1.9/bld/clib/library/os2.386/mf_rd/clib3r.lib(/mnt/sda5/.user/root/src/openwatcom-1.9/bld/clib/time/c/tznmptr.c)
0002:00034ba0  __get_tzname_ptr_
Module: /mnt/sda5/.user/root/src/openwatcom-1.9/bld/clib/library/os2.386/mf_rd/clib3r.lib(/mnt/sda5/.user/root/src/openwatcom-1.9/bld/clib/time/c/tzset.c)
0003:00000904  ___start_dst
0003:00000928  ___end_dst
0003:00000a50  _tzname
0003:00000a58  _timezone
0003:00000a5c  _daylight
0003:00000a60  ___dst_adjust
0002:00034c20* __DontCacheOSTZ_
0002:00034c60* __CacheOSTZ_
0002:000352a0+ __parse_tz_
0002:00035520  tzset_
Module: /mnt/sda5/.user/root/src/openwatcom-1.9/bld/clib/library/os2.386/mf_rd/clib3r.lib(/mnt/sda5/.user/root/src/openwatcom-1.9/bld/clib/time/c/asctim_s.c)
0002:000355d2  asctime_s_
Module: /mnt/sda5/.user/root/src/openwatcom-1.9/bld/clib/library/os2.386/mf_rd/clib3r.lib(/mnt/sda5/.user/root/src/openwatcom-1.9/bld/clib/time/c/ctime_s.c)
0002:000357a0  ctime_s_
Module: /mnt/sda5/.user/root/src/openwatcom-1.9/bld/clib/library/os2.386/mf_rd/clib3r.lib(/mnt/sda5/.user/root/src/openwatcom-1.9/bld/clib/time/c/gmtime_s.c)
0002:00035910  gmtime_s_
Module: /mnt/sda5/.user/root/src/openwatcom-1.9/bld/clib/library/os2.386/mf_rd/clib3r.lib(/mnt/sda5/.user/root/src/openwatcom-1.9/bld/clib/time/c/lcltim_s.c)
0002:000359e0  localtime_s_
Module: /mnt/sda5/.user/root/src/openwatcom-1.9/bld/clib/library/os2.386/mf_rd/clib3r.lib(/mnt/sda5/.user/root/src/openwatcom-1.9/bld/clib/time/c/uasctime.c)
0002:00035afc  __wasctime_
0002:00035c7a  _wasctime_
0002:00035ca4  __wctime_
0002:00035cd3  _wctime_
Module: /mnt/sda5/.user/root/src/openwatcom-1.9/bld/clib/library/os2.386/mf_rd/clib3r.lib(/mnt/sda5/.user/root/src/openwatcom-1.9/bld/clib/time/c/ustrdate.c)
0002:00035d30  _wstrdate_
Module: /mnt/sda5/.user/root/src/openwatcom-1.9/bld/clib/library/os2.386/mf_rd/clib3r.lib(/mnt/sda5/.user/root/src/openwatcom-1.9/bld/clib/time/c/ustrftim.c)
0002:00035f43  wcsftime_
0002:000367f9  _wstrftime_ms_
Module: /mnt/sda5/.user/root/src/openwatcom-1.9/bld/clib/library/os2.386/mf_rd/clib3r.lib(/mnt/sda5/.user/root/src/openwatcom-1.9/bld/clib/time/c/ustrtime.c)
0002:000368a0  _wstrtime_
Module: /mnt/sda5/.user/root/src/openwatcom-1.9/bld/clib/library/os2.386/mf_rd/clib3r.lib(/mnt/sda5/.user/root/src/openwatcom-1.9/bld/clib/time/c/uasctm_s.c)
0002:00036961  _wasctime_s_
Module: /mnt/sda5/.user/root/src/openwatcom-1.9/bld/clib/library/os2.386/mf_rd/clib3r.lib(/mnt/sda5/.user/root/src/openwatcom-1.9/bld/clib/time/c/uctime_s.c)
0002:00036b30  _wctime_s_
Module: /mnt/sda5/.user/root/src/openwatcom-1.9/bld/clib/library/os2.386/mf_rd/clib3r.lib(/mnt/sda5/.user/root/src/openwatcom-1.9/bld/clib/_dos/c/allocos2.c)
0002:00036c70  _dos_allocmem_
0002:00036cd0  _dos_freemem_
Module: /mnt/sda5/.user/root/src/openwatcom-1.9/bld/clib/library/os2.386/mf_rd/clib3r.lib(/mnt/sda5/.user/root/src/openwatcom-1.9/bld/clib/_dos/c/creatos2.c)
0002:00036d20  _dos_creat_
Module: /mnt/sda5/.user/root/src/openwatcom-1.9/bld/clib/library/os2.386/mf_rd/clib3r.lib(/mnt/sda5/.user/root/src/openwatcom-1.9/bld/clib/_dos/c/crtnwos2.c)
0002:00036da0  _dos_creatnew_
Module: /mnt/sda5/.user/root/src/openwatcom-1.9/bld/clib/library/os2.386/mf_rd/clib3r.lib(/mnt/sda5/.user/root/src/openwatcom-1.9/bld/clib/_dos/c/dosgdf.c)
0002:00036e20  _dos_getdiskfree_
Module: /mnt/sda5/.user/root/src/openwatcom-1.9/bld/clib/library/os2.386/mf_rd/clib3r.lib(/mnt/sda5/.user/root/src/openwatcom-1.9/bld/clib/_dos/c/dosret.c)
0002:00036ea0* _dosretax_
0002:00036ee0* _dosret0_
0002:00036f20  __set_errno_dos_
0002:00036f70  __set_errno_dos_reterr_
Module: /mnt/sda5/.user/root/src/openwatcom-1.9/bld/clib/library/os2.386/mf_rd/clib3r.lib(/mnt/sda5/.user/root/src/openwatcom-1.9/bld/clib/_dos/c/fileos2.c)
0002:00036fa0  _dos_open_
0002:00037080  _dos_close_
0002:000370d0  _dos_commit_
Module: /mnt/sda5/.user/root/src/openwatcom-1.9/bld/clib/library/os2.386/mf_rd/clib3r.lib(/mnt/sda5/.user/root/src/openwatcom-1.9/bld/clib/_dos/c/findos2.c)
0002:00037190  _dos_findfirst_
0002:00037230  _dos_findnext_
0002:000372a0  _dos_findclose_
Module: /mnt/sda5/.user/root/src/openwatcom-1.9/bld/clib/library/os2.386/mf_rd/clib3r.lib(/mnt/sda5/.user/root/src/openwatcom-1.9/bld/clib/_dos/c/gdateos2.c)
0002:000372f0  _dos_getdate_
Module: /mnt/sda5/.user/root/src/openwatcom-1.9/bld/clib/library/os2.386/mf_rd/clib3r.lib(/mnt/sda5/.user/root/src/openwatcom-1.9/bld/clib/_dos/c/gdrveos2.c)
0002:00037340  _dos_getdrive_
Module: /mnt/sda5/.user/root/src/openwatcom-1.9/bld/clib/library/os2.386/mf_rd/clib3r.lib(/mnt/sda5/.user/root/src/openwatcom-1.9/bld/clib/_dos/c/gfatto32.c)
0002:00037380  _dos_getfileattr_
Module: /mnt/sda5/.user/root/src/openwatcom-1.9/bld/clib/library/os2.386/mf_rd/clib3r.lib(/mnt/sda5/.user/root/src/openwatcom-1.9/bld/clib/_dos/c/gftimos2.c)
0002:000373e0  _dos_getftime_
Module: /mnt/sda5/.user/root/src/openwatcom-1.9/bld/clib/library/os2.386/mf_rd/clib3r.lib(/mnt/sda5/.user/root/src/openwatcom-1.9/bld/clib/_dos/c/gtimeos2.c)
0002:000374a0  _dos_gettime_
Module: /mnt/sda5/.user/root/src/openwatcom-1.9/bld/clib/library/os2.386/mf_rd/clib3r.lib(/mnt/sda5/.user/root/src/openwatcom-1.9/bld/clib/_dos/c/reados2.c)
0002:000374f0  _dos_read_
Module: /mnt/sda5/.user/root/src/openwatcom-1.9/bld/clib/library/os2.386/mf_rd/clib3r.lib(/mnt/sda5/.user/root/src/openwatcom-1.9/bld/clib/_dos/c/sdateos2.c)
0002:00037550  _dos_setdate_
Module: /mnt/sda5/.user/root/src/openwatcom-1.9/bld/clib/library/os2.386/mf_rd/clib3r.lib(/mnt/sda5/.user/root/src/openwatcom-1.9/bld/clib/_dos/c/sdrveos2.c)
0002:000375b0  _dos_setdrive_
Module: /mnt/sda5/.user/root/src/openwatcom-1.9/bld/clib/library/os2.386/mf_rd/clib3r.lib(/mnt/sda5/.user/root/src/openwatcom-1.9/bld/clib/_dos/c/sfattos2.c)
0002:00037610  _dos_setfileattr_
Module: /mnt/sda5/.user/root/src/openwatcom-1.9/bld/clib/library/os2.386/mf_rd/clib3r.lib(/mnt/sda5/.user/root/src/openwatcom-1.9/bld/clib/_dos/c/sftimos2.c)
0002:00037690  _dos_setftime_
Module: /mnt/sda5/.user/root/src/openwatcom-1.9/bld/clib/library/os2.386/mf_rd/clib3r.lib(/mnt/sda5/.user/root/src/openwatcom-1.9/bld/clib/_dos/c/stimeos2.c)
0002:00037750  _dos_settime_
Module: /mnt/sda5/.user/root/src/openwatcom-1.9/bld/clib/library/os2.386/mf_rd/clib3r.lib(/mnt/sda5/.user/root/src/openwatcom-1.9/bld/clib/_dos/c/ufind.c)
0002:000377b0  _wdos_findfirst_
0002:00037850  _wdos_findnext_
0002:00037910  _wdos_findclose_
Module: /mnt/sda5/.user/root/src/openwatcom-1.9/bld/clib/library/os2.386/mf_rd/clib3r.lib(/mnt/sda5/.user/root/src/openwatcom-1.9/bld/clib/_dos/c/writeos2.c)
0002:00037940  _dos_write_
Module: /mnt/sda5/.user/root/src/openwatcom-1.9/bld/clib/library/os2.386/mf_rd/clib3r.lib(/mnt/sda5/.user/root/src/openwatcom-1.9/bld/clib/cgsupp/a/__stos.asm)
0002:000379a0  __STOSB
0002:000379d7  __STOSD
Module: /mnt/sda5/.user/root/src/openwatcom-1.9/bld/clib/library/os2.386/mf_rd/clib3r.lib(/mnt/sda5/.user/root/src/openwatcom-1.9/bld/clib/cgsupp/a/7fu8386.asm)
0002:00037a44  __FSU87
0002:00037a4f  __FDU87
Module: /mnt/sda5/.user/root/src/openwatcom-1.9/bld/clib/library/os2.386/mf_rd/clib3r.lib(/mnt/sda5/.user/root/src/openwatcom-1.9/bld/clib/cgsupp/a/7u8f386.asm)
0002:00037acd  __U8FD7
0002:00037ab4  __U8FS7
Module: /mnt/sda5/.user/root/src/openwatcom-1.9/bld/clib/library/os2.386/mf_rd/clib3r.lib(/mnt/sda5/.user/root/src/openwatcom-1.9/bld/clib/cgsupp/a/div386.asm)
0002:00037ae8  __FDD
Module: /mnt/sda5/.user/root/src/openwatcom-1.9/bld/clib/library/os2.386/mf_rd/clib3r.lib(/mnt/sda5/.user/root/src/openwatcom-1.9/bld/clib/cgsupp/a/fdc386.asm)
0002:00037cf0  __FDC
Module: /mnt/sda5/.user/root/src/openwatcom-1.9/bld/clib/library/os2.386/mf_rd/clib3r.lib(/mnt/sda5/.user/root/src/openwatcom-1.9/bld/clib/cgsupp/a/fdfs386.asm)
0002:00037d28  __FDFS
Module: /mnt/sda5/.user/root/src/openwatcom-1.9/bld/clib/library/os2.386/mf_rd/clib3r.lib(/mnt/sda5/.user/root/src/openwatcom-1.9/bld/clib/cgsupp/a/fdi4386.asm)
0002:00037d7c  __FDI4
0002:00037d78  __RDI4
0002:00037d80  __FDU4
0002:00037d74  __RDU4
Module: /mnt/sda5/.user/root/src/openwatcom-1.9/bld/clib/library/os2.386/mf_rd/clib3r.lib(/mnt/sda5/.user/root/src/openwatcom-1.9/bld/clib/cgsupp/a/fdi8386.asm)
0002:00037df8  __FDU8
0002:00037e04  __FDI8
Module: /mnt/sda5/.user/root/src/openwatcom-1.9/bld/clib/library/os2.386/mf_rd/clib3r.lib(/mnt/sda5/.user/root/src/openwatcom-1.9/bld/clib/cgsupp/a/fdmth386.asm)
0002:00037e8a  __FDA
0002:00037e84  __FDS
0002:00038041  __FDM
Module: /mnt/sda5/.user/root/src/openwatcom-1.9/bld/clib/library/os2.386/mf_rd/clib3r.lib(/mnt/sda5/.user/root/src/openwatcom-1.9/bld/clib/cgsupp/a/fdn386.asm)
0002:000381e0  __FDN
Module: /mnt/sda5/.user/root/src/openwatcom-1.9/bld/clib/library/os2.386/mf_rd/clib3r.lib(/mnt/sda5/.user/root/src/openwatcom-1.9/bld/clib/cgsupp/a/fsc386.asm)
0002:000381f0  __FSC
Module: /mnt/sda5/.user/root/src/openwatcom-1.9/bld/clib/library/os2.386/mf_rd/clib3r.lib(/mnt/sda5/.user/root/src/openwatcom-1.9/bld/clib/cgsupp/a/fsfd386.asm)
0002:0003820c  __FSFD
Module: /mnt/sda5/.user/root/src/openwatcom-1.9/bld/clib/library/os2.386/mf_rd/clib3r.lib(/mnt/sda5/.user/root/src/openwatcom-1.9/bld/clib/cgsupp/a/fsi4386.asm)
0002:00038288  __FSI4
0002:00038292  __FSU4
0002:0003829c  __FSI2
0002:000382a6  __FSU2
0002:000382b0  __FSI1
0002:000382ba  __FSU1
Module: /mnt/sda5/.user/root/src/openwatcom-1.9/bld/clib/library/os2.386/mf_rd/clib3r.lib(/mnt/sda5/.user/root/src/openwatcom-1.9/bld/clib/cgsupp/a/fsi8386.asm)
0002:0003830c  __FSU8
0002:00038316  __FSI8
Module: /mnt/sda5/.user/root/src/openwatcom-1.9/bld/clib/library/os2.386/mf_rd/clib3r.lib(/mnt/sda5/.user/root/src/openwatcom-1.9/bld/clib/cgsupp/a/fsmth386.asm)
0002:00038392  __FSA
0002:00038388  __FSS
0002:00038463  __FSM
0002:000384ea  __FSD
Module: /mnt/sda5/.user/root/src/openwatcom-1.9/bld/clib/library/os2.386/mf_rd/clib3r.lib(/mnt/sda5/.user/root/src/openwatcom-1.9/bld/clib/cgsupp/a/fsn386.asm)
0002:0003860c  __FSN
Module: /mnt/sda5/.user/root/src/openwatcom-1.9/bld/clib/library/os2.386/mf_rd/clib3r.lib(/mnt/sda5/.user/root/src/openwatcom-1.9/bld/clib/cgsupp/a/fstat386.asm)
0002:00038618  F8UnderFlow
0002:0003861a  F4UnderFlow
0002:0003861d  F8InvalidOp
0002:00038629  F8DivZero
0002:00038655  F4DivZero
0002:00038635  F8OverFlow
0002:00038661  F4OverFlow
0002:00038635  F8RetInf_
0002:00038635  _F8RetInf_
Module: /mnt/sda5/.user/root/src/openwatcom-1.9/bld/clib/library/os2.386/mf_rd/clib3r.lib(/mnt/sda5/.user/root/src/openwatcom-1.9/bld/clib/cgsupp/a/i4fs386.asm)
0002:000386ab  __I4FS
0002:00038680  __U4FS
Module: /mnt/sda5/.user/root/src/openwatcom-1.9/bld/clib/library/os2.386/mf_rd/clib3r.lib(/mnt/sda5/.user/root/src/openwatcom-1.9/bld/clib/cgsupp/a/i4fd386.asm)
0002:000386bc  __I4FD
0002:000386c9  __U4FD
Module: /mnt/sda5/.user/root/src/openwatcom-1.9/bld/clib/library/os2.386/mf_rd/clib3r.lib(/mnt/sda5/.user/root/src/openwatcom-1.9/bld/clib/cgsupp/a/i8d.asm)
0002:000386fc  __I8D
0002:00038751  __U8D
Module: /mnt/sda5/.user/root/src/openwatcom-1.9/bld/clib/library/os2.386/mf_rd/clib3r.lib(/mnt/sda5/.user/root/src/openwatcom-1.9/bld/clib/cgsupp/a/i8fs386.asm)
0002:000387e0  __I8FS
0002:000387f6  __U8FS
Module: /mnt/sda5/.user/root/src/openwatcom-1.9/bld/clib/library/os2.386/mf_rd/clib3r.lib(/mnt/sda5/.user/root/src/openwatcom-1.9/bld/clib/cgsupp/a/i8fd386.asm)
0002:0003883c  __I8FD
0002:00038853  __U8FD
Module: /mnt/sda5/.user/root/src/openwatcom-1.9/bld/clib/library/os2.386/mf_rd/clib3r.lib(/mnt/sda5/.user/root/src/openwatcom-1.9/bld/clib/cgsupp/a/i8m386.asm)
0002:0003889c  __I8M
0002:0003889c  __U8M
Module: /mnt/sda5/.user/root/src/openwatcom-1.9/bld/clib/library/os2.386/mf_rd/clib3r.lib(/mnt/sda5/.user/root/src/openwatcom-1.9/bld/clib/cgsupp/a/i8rs386.asm)
0002:000388b8  __U8RS
0002:000388d2  __I8RS
0002:000388ed  __I8LS
0002:000388ed  __U8LS
Module: /mnt/sda5/.user/root/src/openwatcom-1.9/bld/clib/library/os2.386/mf_rd/clib3r.lib(/mnt/sda5/.user/root/src/openwatcom-1.9/bld/clib/cgsupp/a/ldiv386.asm)
0002:00038908  div_
0002:00038908  ldiv_
Module: /mnt/sda5/.user/root/src/openwatcom-1.9/bld/clib/library/os2.386/mf_rd/clib3r.lib(/mnt/sda5/.user/root/src/openwatcom-1.9/bld/clib/cgsupp/a/lldiv386.asm)
0002:00038918  lldiv_
Module: /mnt/sda5/.user/root/src/openwatcom-1.9/bld/clib/library/os2.386/mf_rd/clib3r.lib(timstamp)
0003:00000b78  ___lmt
Module: /mnt/sda5/.user/root/src/openwatcom-1.9/bld/clib/library/os2.386/mf_rd/clib3r.lib(chipvar)
0003:00000b7c  ___chipbug
0003:00000b7c  __chipbug
Module: /mnt/sda5/.user/root/src/openwatcom-1.9/bld/clib/library/os2.386/mf_rd/clib3r.lib(/mnt/sda5/.user/root/src/openwatcom-1.9/bld/clib/startup/a/_8087386.asm)
0003:00000b80  __8087
0003:00000b81  __real87
Module: /mnt/sda5/.user/root/src/openwatcom-1.9/bld/clib/library/os2.386/mf_rd/clib3r.lib(crwdata)
0003:00000bc8  __osmajor
0003:00000bc9  __osminor
0003:00000b94  __LpDllName
0003:00000b98  __LpwCmdLine
0003:00000b9c  __LpwPgmName
0003:00000ba0  __LpwDllName
0003:00000b8c  __LpCmdLine
0003:00000b90  __LpPgmName
0003:00000b84* __dynend
0003:00000b88  __curbrk
0003:00000ba4  __STACKLOW
0003:00000ba8  __STACKTOP
0003:00000bac  __ASTACKSIZ
0003:00000bb0  __ASTACKPTR
0003:00000bb4  __cbyte
0003:00000bb8  __cbyte2
0003:00000bbc  __child
0003:00000bc2  __Envptr
0003:00000bc6  __Envseg
0003:00000bc0  __no87
0003:00000bca  ___FPE_handler
Module: /mnt/sda5/.user/root/src/openwatcom-1.9/bld/clib/library/os2.386/mf_rd/clib3r.lib(/mnt/sda5/.user/root/src/openwatcom-1.9/bld/clib/startup/c/dmaino32.c)
0002:00038949  __LibMain
Module: /mnt/sda5/.user/root/src/openwatcom-1.9/bld/clib/library/os2.386/mf_rd/clib3r.lib(segdefns)
0002:00000003  ___begtext
0003:00000000  __nullarea
0003:00000c88  __Start_XI
0003:00000cee  __End_XI
0003:00000cee  __Start_YI
0003:00000d18  __End_YI
Module: /mnt/sda5/.user/root/src/openwatcom-1.9/bld/clib/library/os2.386/mf_rd/clib3r.lib(/mnt/sda5/.user/root/src/openwatcom-1.9/bld/clib/streamio/c/prtf.c)
0002:00038be0  __prtf_
Module: /mnt/sda5/.user/root/src/openwatcom-1.9/bld/clib/library/os2.386/mf_rd/clib3r.lib(/mnt/sda5/.user/root/src/openwatcom-1.9/bld/clib/streamio/c/scnf.c)
0002:0003add0  __scnf_
Module: /mnt/sda5/.user/root/src/openwatcom-1.9/bld/clib/library/os2.386/mf_rd/clib3r.lib(/mnt/sda5/.user/root/src/openwatcom-1.9/bld/clib/convert/c/alphabet.c)
0003:0000000c  ___Alphabet
Module: /mnt/sda5/.user/root/src/openwatcom-1.9/bld/clib/library/os2.386/mf_rd/clib3r.lib(/mnt/sda5/.user/root/src/openwatcom-1.9/bld/clib/environ/c/setenvp.c)
0002:0003b180  __setenvp_
0002:0003b2b0  __freeenvp_
Module: /mnt/sda5/.user/root/src/openwatcom-1.9/bld/clib/library/os2.386/mf_rd/clib3r.lib(/mnt/sda5/.user/root/src/openwatcom-1.9/bld/clib/misc/c/rtcswrap.c)
0002:0003b320  __rtct_fail_
Module: /mnt/sda5/.user/root/src/openwatcom-1.9/bld/clib/library/os2.386/mf_rd/clib3r.lib(/mnt/sda5/.user/root/src/openwatcom-1.9/bld/clib/handleio/c/iomode.c)
0002:0003b390  __GetIOMode_
0002:0003b3e0  __SetIOMode_nogrow_
0003:00000bd0  ___NFiles
0003:00000bd4  ___init_mode
0003:00000c24  ___io_mode
Module: /mnt/sda5/.user/root/src/openwatcom-1.9/bld/clib/library/os2.386/mf_rd/clib3r.lib(/mnt/sda5/.user/root/src/openwatcom-1.9/bld/clib/environ/c/crtwenv.c)
0002:0003b420  __create_wide_environment_
Module: /mnt/sda5/.user/root/src/openwatcom-1.9/bld/clib/library/os2.386/mf_rd/clib3r.lib(/mnt/sda5/.user/root/src/openwatcom-1.9/bld/clib/startup/c/os2fil64.c)
0003:00000c28  ___os2_DosOpenL
0003:00000c2c  ___os2_DosSetFilePtrL
0003:00000c30+ ___os2_DosSetFileSizeL
0003:00000c34+ ___os2_DosSetFileLocksL
Module: /mnt/sda5/.user/root/src/openwatcom-1.9/bld/clib/library/os2.386/mf_rd/clib3r.lib(/mnt/sda5/.user/root/src/openwatcom-1.9/bld/clib/handleio/c/d2ttime.c)
0002:0003b590  _d2ttime_
Module: /mnt/sda5/.user/root/src/openwatcom-1.9/bld/clib/library/os2.386/mf_rd/clib3r.lib(/mnt/sda5/.user/root/src/openwatcom-1.9/bld/clib/handleio/c/stiomode.c)
0002:0003b630  __grow_iomode_
0002:0003b6f0+ __shrink_iomode_
0002:0003b790  __SetIOMode_
Module: /mnt/sda5/.user/root/src/openwatcom-1.9/bld/clib/library/os2.386/mf_rd/clib3r.lib(/mnt/sda5/.user/root/src/openwatcom-1.9/bld/clib/handleio/c/_clseos2.c)
0002:0003b840  __close_
Module: /mnt/sda5/.user/root/src/openwatcom-1.9/bld/clib/library/os2.386/mf_rd/clib3r.lib(/mnt/sda5/.user/root/src/openwatcom-1.9/bld/clib/handleio/c/umaskval.c)
0003:00000c38  ___umaskval
Module: /mnt/sda5/.user/root/src/openwatcom-1.9/bld/clib/library/os2.386/mf_rd/clib3r.lib(/mnt/sda5/.user/root/src/openwatcom-1.9/bld/clib/handleio/c/iomodtty.c)
0002:0003b8c0  __ChkTTYIOMode_
0002:0003b930* __IOMode_
Module: /mnt/sda5/.user/root/src/openwatcom-1.9/bld/clib/library/os2.386/mf_rd/clib3r.lib(/mnt/sda5/.user/root/src/openwatcom-1.9/bld/clib/heap/c/grownear.c)
0002:0003bc40  __ExpandDGROUP_
Module: /mnt/sda5/.user/root/src/openwatcom-1.9/bld/clib/library/os2.386/mf_rd/clib3r.lib(/mnt/sda5/.user/root/src/openwatcom-1.9/bld/clib/heap/c/mem.c)
0002:0003bc70  __MemAllocator
0002:0003be20  __MemFree
Module: /mnt/sda5/.user/root/src/openwatcom-1.9/bld/clib/library/os2.386/mf_rd/clib3r.lib(/mnt/sda5/.user/root/src/openwatcom-1.9/bld/clib/intel/c/prfalloc.c)
0002:0003c0e0  __ProfAlloc_
Module: /mnt/sda5/.user/root/src/openwatcom-1.9/bld/clib/library/os2.386/mf_rd/clib3r.lib(/mnt/sda5/.user/root/src/openwatcom-1.9/bld/clib/kanji/c/hanzentb.c)
0002:0003c110  ___HanZen1
0002:0003c1ce  ___HanZen2
Module: /mnt/sda5/.user/root/src/openwatcom-1.9/bld/clib/library/os2.386/mf_rd/clib3r.lib(/mnt/sda5/.user/root/src/openwatcom-1.9/bld/clib/kanji/c/zenhantb.c)
0002:0003c250  ___ZenHan
Module: /mnt/sda5/.user/root/src/openwatcom-1.9/bld/clib/library/os2.386/mf_rd/clib3r.lib(/mnt/sda5/.user/root/src/openwatcom-1.9/bld/clib/mbyte/c/mbinit.c)
0002:0003c6f9  __mbinit_
0003:00000c3c  ___MBCodePage
Module: /mnt/sda5/.user/root/src/openwatcom-1.9/bld/clib/library/os2.386/mf_rd/clib3r.lib(/mnt/sda5/.user/root/src/openwatcom-1.9/bld/clib/misc/c/rterrmsg.c)
0002:0003c880  __rterr_msg_
Module: /mnt/sda5/.user/root/src/openwatcom-1.9/bld/clib/library/os2.386/mf_rd/clib3r.lib(/mnt/sda5/.user/root/src/openwatcom-1.9/bld/clib/startup/c/argcv.c)
0003:00001d2c  __argc
0003:00001d30  __argv
0003:00001d34  ___argc
0003:00001d38  ___argv
Module: /mnt/sda5/.user/root/src/openwatcom-1.9/bld/clib/library/os2.386/mf_rd/clib3r.lib(/mnt/sda5/.user/root/src/openwatcom-1.9/bld/clib/misc/c/dbgdata.c)
0003:00000c40  ___DbgReportModes
0003:00000c4c  ___DbgReportFiles
0003:00000c58  ___DbgReportHook
Module: /mnt/sda5/.user/root/src/openwatcom-1.9/bld/clib/library/os2.386/mf_rd/clib3r.lib(/mnt/sda5/.user/root/src/openwatcom-1.9/bld/clib/misc/c/rtcshdlr.c)
0003:00000c5c  ___runtime_constraint_handler
Module: /mnt/sda5/.user/root/src/openwatcom-1.9/bld/clib/library/os2.386/mf_rd/clib3r.lib(/mnt/sda5/.user/root/src/openwatcom-1.9/bld/clib/misc/c/locale.c)
0003:00000c60  __LocaleSetting
Module: /mnt/sda5/.user/root/src/openwatcom-1.9/bld/clib/library/os2.386/mf_rd/clib3r.lib(/mnt/sda5/.user/root/src/openwatcom-1.9/bld/clib/misc/c/urtermsg.c)
0002:0003ca50  __wrterr_msg_
Module: /mnt/sda5/.user/root/src/openwatcom-1.9/bld/clib/library/os2.386/mf_rd/clib3r.lib(/mnt/sda5/.user/root/src/openwatcom-1.9/bld/clib/mthread/c/maxthrds.c)
0003:00000c68  ___MaxThreads
Module: /mnt/sda5/.user/root/src/openwatcom-1.9/bld/clib/library/os2.386/mf_rd/clib3r.lib(/mnt/sda5/.user/root/src/openwatcom-1.9/bld/clib/mthread/c/trdalloc.c)
0002:0003cb40  __InitThreadProcessing_
0002:0003cb90  __FiniThreadProcessing_
0003:00001d3c  ___ThreadData
Module: /mnt/sda5/.user/root/src/openwatcom-1.9/bld/clib/library/os2.386/mf_rd/clib3r.lib(/mnt/sda5/.user/root/src/openwatcom-1.9/bld/clib/mthread/c/trdlist.c)
0002:0003cc60  __GetThreadData_
0002:0003cdd0  __ReallocThreadData_
0002:0003cfb0  __AddThreadData_
0002:0003d060  __RemoveThreadData_
0002:0003d0e0  __ResizeThreadDataList_
0002:0003d170  __FreeThreadDataList_
0002:0003d1d0* __ActiveThreads_
Module: /mnt/sda5/.user/root/src/openwatcom-1.9/bld/clib/library/os2.386/mf_rd/clib3r.lib(/mnt/sda5/.user/root/src/openwatcom-1.9/bld/clib/mthread/c/thredo32.c)
0002:0003d2d0  __CBeginThread_
0002:0003d3a0  __CEndThread_
Module: /mnt/sda5/.user/root/src/openwatcom-1.9/bld/clib/library/os2.386/mf_rd/clib3r.lib(/mnt/sda5/.user/root/src/openwatcom-1.9/bld/clib/process/c/cenvarg.c)
0002:0003d406  __cenvarg_
0002:0003d5bf  __ccmdline_
Module: /mnt/sda5/.user/root/src/openwatcom-1.9/bld/clib/library/os2.386/mf_rd/clib3r.lib(/mnt/sda5/.user/root/src/openwatcom-1.9/bld/clib/process/c/dospnos2.c)
0002:0003d740  _dospawn_
Module: /mnt/sda5/.user/root/src/openwatcom-1.9/bld/clib/library/os2.386/mf_rd/clib3r.lib(/mnt/sda5/.user/root/src/openwatcom-1.9/bld/clib/process/c/_slashc.c)
0002:0003da70  __Slash_C_
Module: /mnt/sda5/.user/root/src/openwatcom-1.9/bld/clib/library/os2.386/mf_rd/clib3r.lib(/mnt/sda5/.user/root/src/openwatcom-1.9/bld/clib/process/c/_uslashc.c)
0002:0003dab0  __wSlash_C_
Module: /mnt/sda5/.user/root/src/openwatcom-1.9/bld/clib/library/os2.386/mf_rd/clib3r.lib(/mnt/sda5/.user/root/src/openwatcom-1.9/bld/clib/startup/c/8087cw.c)
0003:00000c6c  __8087cw
Module: /mnt/sda5/.user/root/src/openwatcom-1.9/bld/clib/library/os2.386/mf_rd/clib3r.lib(/mnt/sda5/.user/root/src/openwatcom-1.9/bld/clib/fpu/a/ini87386.asm)
0002:0003daf0  __x87id
Module: /mnt/sda5/.user/root/src/openwatcom-1.9/bld/clib/library/os2.386/mf_rd/clib3r.lib(/mnt/sda5/.user/root/src/openwatcom-1.9/bld/clib/startup/c/initrtns.c)
0002:0003db60  __InitRtns
0002:0003dbf0  __FiniRtns
Module: /mnt/sda5/.user/root/src/openwatcom-1.9/bld/clib/library/os2.386/mf_rd/clib3r.lib(/mnt/sda5/.user/root/src/openwatcom-1.9/bld/clib/startup/c/histsplt.c)
0003:00001d44  ___historical_splitparms
Module: /mnt/sda5/.user/root/src/openwatcom-1.9/bld/clib/library/os2.386/mf_rd/clib3r.lib(/mnt/sda5/.user/root/src/openwatcom-1.9/bld/clib/startup/c/wargcv.c)
0003:00001d48  ___wargc
0003:00001d4c  ___wargv
0003:00001d50  __wargc
0003:00001d54  __wargv
Module: /mnt/sda5/.user/root/src/openwatcom-1.9/bld/clib/library/os2.386/mf_rd/clib3r.lib(/mnt/sda5/.user/root/src/openwatcom-1.9/bld/clib/streamio/c/freefp.c)
0002:0003dc90  __freefp_
0002:0003dd10  __purgefp_
Module: /mnt/sda5/.user/root/src/openwatcom-1.9/bld/clib/library/os2.386/mf_rd/clib3r.lib(/mnt/sda5/.user/root/src/openwatcom-1.9/bld/clib/startup/c/cinit.c)
0002:0003dd60  __CommonInit_
0003:00001d58  ___hmodule
Module: /mnt/sda5/.user/root/src/openwatcom-1.9/bld/clib/library/os2.386/mf_rd/clib3r.lib(/mnt/sda5/.user/root/src/openwatcom-1.9/bld/clib/startup/c/atexit.c)
0002:0003dd81  atexit_
Module: /mnt/sda5/.user/root/src/openwatcom-1.9/bld/clib/library/os2.386/mf_rd/clib3r.lib(/mnt/sda5/.user/root/src/openwatcom-1.9/bld/clib/startup/c/itsto32.c)
0002:0003de10  __init_threadstksize_
Module: /mnt/sda5/.user/root/src/openwatcom-1.9/bld/clib/library/os2.386/mf_rd/clib3r.lib(/mnt/sda5/.user/root/src/openwatcom-1.9/bld/clib/streamio/c/allocfp.c)
0002:0003de40  __allocfp_
Module: /mnt/sda5/.user/root/src/openwatcom-1.9/bld/clib/library/os2.386/mf_rd/clib3r.lib(/mnt/sda5/.user/root/src/openwatcom-1.9/bld/clib/streamio/c/chktty.c)
0002:0003df70  __chktty_
Module: /mnt/sda5/.user/root/src/openwatcom-1.9/bld/clib/library/os2.386/mf_rd/clib3r.lib(/mnt/sda5/.user/root/src/openwatcom-1.9/bld/clib/streamio/c/ioalloc.c)
0002:0003dfc0  __ioalloc_
Module: /mnt/sda5/.user/root/src/openwatcom-1.9/bld/clib/library/os2.386/mf_rd/clib3r.lib(/mnt/sda5/.user/root/src/openwatcom-1.9/bld/clib/handleio/c/qread.c)
0002:0003e090  __qread_
Module: /mnt/sda5/.user/root/src/openwatcom-1.9/bld/clib/library/os2.386/mf_rd/clib3r.lib(/mnt/sda5/.user/root/src/openwatcom-1.9/bld/clib/handleio/c/qwrit.c)
0002:0003e110  __qwrite_
Module: /mnt/sda5/.user/root/src/openwatcom-1.9/bld/clib/library/os2.386/mf_rd/clib3r.lib(/mnt/sda5/.user/root/src/openwatcom-1.9/bld/clib/streamio/c/fprtf.c)
0002:0003e250  __fprtf_
Module: /mnt/sda5/.user/root/src/openwatcom-1.9/bld/clib/library/os2.386/mf_rd/clib3r.lib(/mnt/sda5/.user/root/src/openwatcom-1.9/bld/clib/streamio/c/fprtf_s.c)
0002:0003e3d0  __fprtf_s_
Module: /mnt/sda5/.user/root/src/openwatcom-1.9/bld/clib/library/os2.386/mf_rd/clib3r.lib(/mnt/sda5/.user/root/src/openwatcom-1.9/bld/clib/streamio/c/scnf_s.c)
0002:0003f6e0  __scnf_s_
Module: /mnt/sda5/.user/root/src/openwatcom-1.9/bld/clib/library/os2.386/mf_rd/clib3r.lib(/mnt/sda5/.user/root/src/openwatcom-1.9/bld/clib/streamio/c/initfile.c)
0002:0003fb30  __InitFiles_
Module: /mnt/sda5/.user/root/src/openwatcom-1.9/bld/clib/library/os2.386/mf_rd/clib3r.lib(/mnt/sda5/.user/root/src/openwatcom-1.9/bld/clib/streamio/c/tmputil.c)
0002:0003fd50  __MkTmpFile_
0002:0003fe10  __RmTmpFile_
Module: /mnt/sda5/.user/root/src/openwatcom-1.9/bld/clib/library/os2.386/mf_rd/clib3r.lib(/mnt/sda5/.user/root/src/openwatcom-1.9/bld/clib/streamio/c/ufprtf.c)
0002:0003fe77  __fwprtf_
Module: /mnt/sda5/.user/root/src/openwatcom-1.9/bld/clib/library/os2.386/mf_rd/clib3r.lib(/mnt/sda5/.user/root/src/openwatcom-1.9/bld/clib/streamio/c/ufprtf_s.c)
0002:00040000  __fwprtf_s_
Module: /mnt/sda5/.user/root/src/openwatcom-1.9/bld/clib/library/os2.386/mf_rd/clib3r.lib(/mnt/sda5/.user/root/src/openwatcom-1.9/bld/clib/streamio/c/uscnf.c)
0002:00041099  __wscnf_
Module: /mnt/sda5/.user/root/src/openwatcom-1.9/bld/clib/library/os2.386/mf_rd/clib3r.lib(/mnt/sda5/.user/root/src/openwatcom-1.9/bld/clib/streamio/c/uscnf_s.c)
0002:00042451  __wscnf_s_
Module: /mnt/sda5/.user/root/src/openwatcom-1.9/bld/clib/library/os2.386/mf_rd/clib3r.lib(/mnt/sda5/.user/root/src/openwatcom-1.9/bld/clib/string/c/fsetbits.c)
0002:00042820  __fsetbits_
Module: /mnt/sda5/.user/root/src/openwatcom-1.9/bld/clib/library/os2.386/mf_rd/clib3r.lib(/mnt/sda5/.user/root/src/openwatcom-1.9/bld/clib/string/c/bits.c)
0002:000428a0  __Bits
Module: /mnt/sda5/.user/root/src/openwatcom-1.9/bld/clib/library/os2.386/mf_rd/clib3r.lib(/mnt/sda5/.user/root/src/openwatcom-1.9/bld/clib/streamio/c/prtf_s.c)
0002:000428c0  __prtf_s_
Module: /mnt/sda5/.user/root/src/openwatcom-1.9/bld/clib/library/os2.386/mf_rd/clib3r.lib(/mnt/sda5/.user/root/src/openwatcom-1.9/bld/clib/string/c/setbits.c)
0002:00043a20  __setbits_
Module: /mnt/sda5/.user/root/src/openwatcom-1.9/bld/clib/library/os2.386/mf_rd/clib3r.lib(/mnt/sda5/.user/root/src/openwatcom-1.9/bld/clib/streamio/c/uprtf.c)
0002:00043a7c  __wprtf_
Module: /mnt/sda5/.user/root/src/openwatcom-1.9/bld/clib/library/os2.386/mf_rd/clib3r.lib(/mnt/sda5/.user/root/src/openwatcom-1.9/bld/clib/streamio/c/uprtf_s.c)
0002:00044cc1  __wprtf_s_
Module: /mnt/sda5/.user/root/src/openwatcom-1.9/bld/clib/library/os2.386/mf_rd/clib3r.lib(/mnt/sda5/.user/root/src/openwatcom-1.9/bld/clib/time/c/gtctmos2.c)
0002:00045ee0  __getctime_
Module: /mnt/sda5/.user/root/src/openwatcom-1.9/bld/clib/library/os2.386/mf_rd/clib3r.lib(/mnt/sda5/.user/root/src/openwatcom-1.9/bld/clib/time/c/leapyear.c)
0002:00045f70  __leapyear_
0003:00000034  ___diyr
0003:0000004e  ___dilyr
Module: /mnt/sda5/.user/root/src/openwatcom-1.9/bld/clib/library/os2.386/mf_rd/clib3r.lib(/mnt/sda5/.user/root/src/openwatcom-1.9/bld/clib/time/c/timeutil.c)
0002:000461c0  __isindst_
Module: /mnt/sda5/.user/root/src/openwatcom-1.9/bld/clib/library/os2.386/mf_rd/clib3r.lib(/mnt/sda5/.user/root/src/openwatcom-1.9/bld/clib/time/c/locmktim.c)
0002:00046670  __local_mktime_
Module: /mnt/sda5/.user/root/src/openwatcom-1.9/bld/clib/library/os2.386/mf_rd/clib3r.lib(/mnt/sda5/.user/root/src/openwatcom-1.9/bld/clib/startup/c/fpexcept.c)
0002:00046810  __FPE_exception_
Module: /mnt/sda5/.user/root/src/openwatcom-1.9/bld/clib/library/os2.386/mf_rd/clib3r.lib(/mnt/sda5/.user/root/src/openwatcom-1.9/bld/clib/startup/c/lmaino32.c)
0002:00046840  LibMain
Module: /mnt/sda5/.user/root/src/openwatcom-1.9/bld/clib/library/os2.386/mf_rd/clib3r.lib(/mnt/sda5/.user/root/src/openwatcom-1.9/bld/clib/startup/c/ddgrpo32.c)
0002:00046970  __disallow_single_dgroup_
Module: /mnt/sda5/.user/root/src/openwatcom-1.9/bld/clib/library/os2.386/mf_rd/clib3r.lib(dosseg)
0000:00001234  __DOSseg__
Module: /mnt/sda5/.user/root/src/openwatcom-1.9/bld/clib/library/os2.386/mf_rd/clib3r.lib(/mnt/sda5/.user/root/src/openwatcom-1.9/bld/clib/startup/c/dllmno32.c)
0002:00046bf0  DllMain


                        +---------------------+
                        |   Module Segments   |
                        +---------------------+

! = 32-bit segment
c = initialized communal data

Module          Segment               Class           Address         Size
======          =======               =====           =======         ====

/mnt/sda5/.user/root/src/openwatcom-1.9/bld/clib/startup/c/clibdo32.c
                _TEXT                 CODE           0002:00000010  ! 00000051
                CONST                 DATA           0003:00000004  ! 00000000
                CONST2                DATA           0003:00000068  ! 00000000
                _DATA                 DATA           0003:00000070  ! 00000000
dstrt386        _TEXT                 CODE           0002:00000062  ! 0000005c
                _DATA                 DATA           0003:00000070  ! 00000000
/mnt/sda5/.user/root/src/openwatcom-1.9/bld/clib/alias/a/_iaccess.asm
                _TEXT                 CODE           0002:000000c0  ! 00000005
                _DATA                 DATA           0003:00000070  ! 00000000
/mnt/sda5/.user/root/src/openwatcom-1.9/bld/clib/alias/a/_iatoi64.asm
                _TEXT                 CODE           0002:000000c8  ! 00000005
                _DATA                 DATA           0003:00000070  ! 00000000
/mnt/sda5/.user/root/src/openwatcom-1.9/bld/clib/alias/a/_iclose_.asm
                _TEXT                 CODE           0002:000000d0  ! 00000005
                _DATA                 DATA           0003:00000070  ! 00000000
/mnt/sda5/.user/root/src/openwatcom-1.9/bld/clib/alias/a/_ichdir_.asm
                _TEXT                 CODE           0002:000000d8  ! 00000005
                _DATA                 DATA           0003:00000070  ! 00000000
/mnt/sda5/.user/root/src/openwatcom-1.9/bld/clib/alias/a/_ichmod_.asm
                _TEXT                 CODE           0002:000000e0  ! 00000005
                _DATA                 DATA           0003:00000070  ! 00000000
/mnt/sda5/.user/root/src/openwatcom-1.9/bld/clib/alias/a/_ichsize.asm
                _TEXT                 CODE           0002:000000e8  ! 00000005
                _DATA                 DATA           0003:00000070  ! 00000000
/mnt/sda5/.user/root/src/openwatcom-1.9/bld/clib/alias/a/_icreat_.asm
                _TEXT                 CODE           0002:000000f0  ! 00000005
                _DATA                 DATA           0003:00000070  ! 00000000
/mnt/sda5/.user/root/src/openwatcom-1.9/bld/clib/alias/a/_icwait_.asm
                _TEXT                 CODE           0002:000000f8  ! 00000005
                _DATA                 DATA           0003:00000070  ! 00000000
/mnt/sda5/.user/root/src/openwatcom-1.9/bld/clib/alias/a/_idup___.asm
                _TEXT                 CODE           0002:00000100  ! 00000005
                _DATA                 DATA           0003:00000070  ! 00000000
/mnt/sda5/.user/root/src/openwatcom-1.9/bld/clib/alias/a/_idup2__.asm
                _TEXT                 CODE           0002:00000108  ! 00000005
                _DATA                 DATA           0003:00000070  ! 00000000
/mnt/sda5/.user/root/src/openwatcom-1.9/bld/clib/alias/a/_ieof___.asm
                _TEXT                 CODE           0002:00000110  ! 00000005
                _DATA                 DATA           0003:00000070  ! 00000000
/mnt/sda5/.user/root/src/openwatcom-1.9/bld/clib/alias/a/_ifdopen.asm
                _TEXT                 CODE           0002:00000118  ! 00000005
                _DATA                 DATA           0003:00000070  ! 00000000
/mnt/sda5/.user/root/src/openwatcom-1.9/bld/clib/alias/a/_ifgetch.asm
                _TEXT                 CODE           0002:00000120  ! 00000005
                _DATA                 DATA           0003:00000070  ! 00000000
/mnt/sda5/.user/root/src/openwatcom-1.9/bld/clib/alias/a/_ifgetwc.asm
                _TEXT                 CODE           0002:00000128  ! 00000005
                _DATA                 DATA           0003:00000070  ! 00000000
/mnt/sda5/.user/root/src/openwatcom-1.9/bld/clib/alias/a/_iflelen.asm
                _TEXT                 CODE           0002:00000130  ! 00000005
                _DATA                 DATA           0003:00000070  ! 00000000
/mnt/sda5/.user/root/src/openwatcom-1.9/bld/clib/alias/a/_ifileno.asm
                _TEXT                 CODE           0002:00000138  ! 00000005
                _DATA                 DATA           0003:00000070  ! 00000000
/mnt/sda5/.user/root/src/openwatcom-1.9/bld/clib/alias/a/_ifputch.asm
                _TEXT                 CODE           0002:00000140  ! 00000005
                _DATA                 DATA           0003:00000070  ! 00000000
/mnt/sda5/.user/root/src/openwatcom-1.9/bld/clib/alias/a/_ifputwc.asm
                _TEXT                 CODE           0002:00000148  ! 00000005
                _DATA                 DATA           0003:00000070  ! 00000000
/mnt/sda5/.user/root/src/openwatcom-1.9/bld/clib/alias/a/_ifstat_.asm
                _TEXT                 CODE           0002:00000150  ! 00000005
                _DATA                 DATA           0003:00000070  ! 00000000
/mnt/sda5/.user/root/src/openwatcom-1.9/bld/clib/alias/a/_iftime_.asm
                _TEXT                 CODE           0002:00000158  ! 00000005
                _DATA                 DATA           0003:00000070  ! 00000000
/mnt/sda5/.user/root/src/openwatcom-1.9/bld/clib/alias/a/_igetch_.asm
                _TEXT                 CODE           0002:00000160  ! 00000005
                _DATA                 DATA           0003:00000070  ! 00000000
/mnt/sda5/.user/root/src/openwatcom-1.9/bld/clib/alias/a/_igetche.asm
                _TEXT                 CODE           0002:00000168  ! 00000005
                _DATA                 DATA           0003:00000070  ! 00000000
/mnt/sda5/.user/root/src/openwatcom-1.9/bld/clib/alias/a/_igetcwd.asm
                _TEXT                 CODE           0002:00000170  ! 00000005
                _DATA                 DATA           0003:00000070  ! 00000000
/mnt/sda5/.user/root/src/openwatcom-1.9/bld/clib/alias/a/_igetws_.asm
                _TEXT                 CODE           0002:00000178  ! 00000005
                _DATA                 DATA           0003:00000070  ! 00000000
/mnt/sda5/.user/root/src/openwatcom-1.9/bld/clib/alias/a/_idopen_.asm
                _TEXT                 CODE           0002:00000180  ! 00000005
                _DATA                 DATA           0003:00000070  ! 00000000
/mnt/sda5/.user/root/src/openwatcom-1.9/bld/clib/alias/a/_iisatty.asm
                _TEXT                 CODE           0002:00000188  ! 00000005
                _DATA                 DATA           0003:00000070  ! 00000000
/mnt/sda5/.user/root/src/openwatcom-1.9/bld/clib/alias/a/_i_isasc.asm
                _TEXT                 CODE           0002:00000190  ! 00000005
                _DATA                 DATA           0003:00000070  ! 00000000
/mnt/sda5/.user/root/src/openwatcom-1.9/bld/clib/alias/a/_iiscsym.asm
                _TEXT                 CODE           0002:00000198  ! 00000005
                _DATA                 DATA           0003:00000070  ! 00000000
/mnt/sda5/.user/root/src/openwatcom-1.9/bld/clib/alias/a/_iiscsyf.asm
                _TEXT                 CODE           0002:000001a0  ! 00000005
                _DATA                 DATA           0003:00000070  ! 00000000
/mnt/sda5/.user/root/src/openwatcom-1.9/bld/clib/alias/a/_iismbbk.asm
                _TEXT                 CODE           0002:000001a8  ! 00000005
                _DATA                 DATA           0003:00000070  ! 00000000
/mnt/sda5/.user/root/src/openwatcom-1.9/bld/clib/alias/a/_iislead.asm
                _TEXT                 CODE           0002:000001b0  ! 00000005
                _DATA                 DATA           0003:00000070  ! 00000000
/mnt/sda5/.user/root/src/openwatcom-1.9/bld/clib/alias/a/_iitoa__.asm
                _TEXT                 CODE           0002:000001b8  ! 00000005
                _DATA                 DATA           0003:00000070  ! 00000000
/mnt/sda5/.user/root/src/openwatcom-1.9/bld/clib/alias/a/_iutoa__.asm
                _TEXT                 CODE           0002:000001c0  ! 00000005
                _DATA                 DATA           0003:00000070  ! 00000000
/mnt/sda5/.user/root/src/openwatcom-1.9/bld/clib/alias/a/_ikbhit_.asm
                _TEXT                 CODE           0002:000001c8  ! 00000005
                _DATA                 DATA           0003:00000070  ! 00000000
/mnt/sda5/.user/root/src/openwatcom-1.9/bld/clib/alias/a/_ilockin.asm
                _TEXT                 CODE           0002:000001d0  ! 00000005
                _DATA                 DATA           0003:00000070  ! 00000000
/mnt/sda5/.user/root/src/openwatcom-1.9/bld/clib/alias/a/_ilseek_.asm
                _TEXT                 CODE           0002:000001d8  ! 00000005
                _DATA                 DATA           0003:00000070  ! 00000000
/mnt/sda5/.user/root/src/openwatcom-1.9/bld/clib/alias/a/_iltoa__.asm
                _TEXT                 CODE           0002:000001e0  ! 00000005
                _DATA                 DATA           0003:00000070  ! 00000000
/mnt/sda5/.user/root/src/openwatcom-1.9/bld/clib/alias/a/_ii64toa.asm
                _TEXT                 CODE           0002:000001e8  ! 00000005
                _DATA                 DATA           0003:00000070  ! 00000000
/mnt/sda5/.user/root/src/openwatcom-1.9/bld/clib/alias/a/_illtoa_.asm
                _TEXT                 CODE           0002:000001f0  ! 00000005
                _DATA                 DATA           0003:00000070  ! 00000000
/mnt/sda5/.user/root/src/openwatcom-1.9/bld/clib/alias/a/_iultoa_.asm
                _TEXT                 CODE           0002:000001f8  ! 00000005
                _DATA                 DATA           0003:00000070  ! 00000000
/mnt/sda5/.user/root/src/openwatcom-1.9/bld/clib/alias/a/_iulltoa.asm
                _TEXT                 CODE           0002:00000200  ! 00000005
                _DATA                 DATA           0003:00000070  ! 00000000
/mnt/sda5/.user/root/src/openwatcom-1.9/bld/clib/alias/a/_iu64toa.asm
                _TEXT                 CODE           0002:00000208  ! 00000005
                _DATA                 DATA           0003:00000070  ! 00000000
/mnt/sda5/.user/root/src/openwatcom-1.9/bld/clib/alias/a/_istti64.asm
                _TEXT                 CODE           0002:00000210  ! 00000005
                _DATA                 DATA           0003:00000070  ! 00000000
/mnt/sda5/.user/root/src/openwatcom-1.9/bld/clib/alias/a/_isttu64.asm
                _TEXT                 CODE           0002:00000218  ! 00000005
                _DATA                 DATA           0003:00000070  ! 00000000
/mnt/sda5/.user/root/src/openwatcom-1.9/bld/clib/alias/a/_itccmp_.asm
                _TEXT                 CODE           0002:00000220  ! 00000005
                _DATA                 DATA           0003:00000070  ! 00000000
/mnt/sda5/.user/root/src/openwatcom-1.9/bld/clib/alias/a/_itccpy_.asm
                _TEXT                 CODE           0002:00000228  ! 00000005
                _DATA                 DATA           0003:00000070  ! 00000000
/mnt/sda5/.user/root/src/openwatcom-1.9/bld/clib/alias/a/_itclen_.asm
                _TEXT                 CODE           0002:00000230  ! 00000005
                _DATA                 DATA           0003:00000070  ! 00000000
/mnt/sda5/.user/root/src/openwatcom-1.9/bld/clib/alias/a/_itcschr.asm
                _TEXT                 CODE           0002:00000238  ! 00000005
                _DATA                 DATA           0003:00000070  ! 00000000
/mnt/sda5/.user/root/src/openwatcom-1.9/bld/clib/alias/a/_imbscol.asm
                _TEXT                 CODE           0002:00000240  ! 00000005
                _DATA                 DATA           0003:00000070  ! 00000000
/mnt/sda5/.user/root/src/openwatcom-1.9/bld/clib/alias/a/_itcscmp.asm
                _TEXT                 CODE           0002:00000248  ! 00000005
                _DATA                 DATA           0003:00000070  ! 00000000
/mnt/sda5/.user/root/src/openwatcom-1.9/bld/clib/alias/a/_itcscol.asm
                _TEXT                 CODE           0002:00000250  ! 00000005
                _DATA                 DATA           0003:00000070  ! 00000000
/mnt/sda5/.user/root/src/openwatcom-1.9/bld/clib/alias/a/_itcscsp.asm
                _TEXT                 CODE           0002:00000258  ! 00000005
                _DATA                 DATA           0003:00000070  ! 00000000
/mnt/sda5/.user/root/src/openwatcom-1.9/bld/clib/alias/a/_itcsdec.asm
                _TEXT                 CODE           0002:00000260  ! 00000005
                _DATA                 DATA           0003:00000070  ! 00000000
/mnt/sda5/.user/root/src/openwatcom-1.9/bld/clib/alias/a/_imbsico.asm
                _TEXT                 CODE           0002:00000268  ! 00000005
                _DATA                 DATA           0003:00000070  ! 00000000
/mnt/sda5/.user/root/src/openwatcom-1.9/bld/clib/alias/a/_itcsicm.asm
                _TEXT                 CODE           0002:00000270  ! 00000005
                _DATA                 DATA           0003:00000070  ! 00000000
/mnt/sda5/.user/root/src/openwatcom-1.9/bld/clib/alias/a/_itcsico.asm
                _TEXT                 CODE           0002:00000278  ! 00000005
                _DATA                 DATA           0003:00000070  ! 00000000
/mnt/sda5/.user/root/src/openwatcom-1.9/bld/clib/alias/a/_itcsinc.asm
                _TEXT                 CODE           0002:00000280  ! 00000005
                _DATA                 DATA           0003:00000070  ! 00000000
/mnt/sda5/.user/root/src/openwatcom-1.9/bld/clib/alias/a/_itcscle.asm
                _TEXT                 CODE           0002:00000288  ! 00000005
                _DATA                 DATA           0003:00000070  ! 00000000
/mnt/sda5/.user/root/src/openwatcom-1.9/bld/clib/alias/a/_itcslwr.asm
                _TEXT                 CODE           0002:00000290  ! 00000005
                _DATA                 DATA           0003:00000070  ! 00000000
/mnt/sda5/.user/root/src/openwatcom-1.9/bld/clib/alias/a/_itcsnbc.asm
                _TEXT                 CODE           0002:00000298  ! 00000005
                _DATA                 DATA           0003:00000070  ! 00000000
/mnt/sda5/.user/root/src/openwatcom-1.9/bld/clib/alias/a/_itcsnca.asm
                _TEXT                 CODE           0002:000002a0  ! 00000005
                _DATA                 DATA           0003:00000070  ! 00000000
/mnt/sda5/.user/root/src/openwatcom-1.9/bld/clib/alias/a/_imbsnbc.asm
                _TEXT                 CODE           0002:000002a8  ! 00000005
                _DATA                 DATA           0003:00000070  ! 00000000
/mnt/sda5/.user/root/src/openwatcom-1.9/bld/clib/alias/a/_itcsncm.asm
                _TEXT                 CODE           0002:000002b0  ! 00000005
                _DATA                 DATA           0003:00000070  ! 00000000
/mnt/sda5/.user/root/src/openwatcom-1.9/bld/clib/alias/a/_itcsnco.asm
                _TEXT                 CODE           0002:000002b8  ! 00000005
                _DATA                 DATA           0003:00000070  ! 00000000
/mnt/sda5/.user/root/src/openwatcom-1.9/bld/clib/alias/a/_itcsncp.asm
                _TEXT                 CODE           0002:000002c0  ! 00000005
                _DATA                 DATA           0003:00000070  ! 00000000
/mnt/sda5/.user/root/src/openwatcom-1.9/bld/clib/alias/a/_itcsncc.asm
                _TEXT                 CODE           0002:000002c8  ! 00000005
                _DATA                 DATA           0003:00000070  ! 00000000
/mnt/sda5/.user/root/src/openwatcom-1.9/bld/clib/alias/a/_itcnccm.asm
                _TEXT                 CODE           0002:000002d0  ! 00000005
                _DATA                 DATA           0003:00000070  ! 00000000
/mnt/sda5/.user/root/src/openwatcom-1.9/bld/clib/alias/a/_itcnccn.asm
                _TEXT                 CODE           0002:000002d8  ! 00000005
                _DATA                 DATA           0003:00000070  ! 00000000
/mnt/sda5/.user/root/src/openwatcom-1.9/bld/clib/alias/a/_imbsnco.asm
                _TEXT                 CODE           0002:000002e0  ! 00000005
                _DATA                 DATA           0003:00000070  ! 00000000
/mnt/sda5/.user/root/src/openwatcom-1.9/bld/clib/alias/a/_itcncco.asm
                _TEXT                 CODE           0002:000002e8  ! 00000005
                _DATA                 DATA           0003:00000070  ! 00000000
/mnt/sda5/.user/root/src/openwatcom-1.9/bld/clib/alias/a/_itcnccp.asm
                _TEXT                 CODE           0002:000002f0  ! 00000005
                _DATA                 DATA           0003:00000070  ! 00000000
/mnt/sda5/.user/root/src/openwatcom-1.9/bld/clib/alias/a/_imbsnic.asm
                _TEXT                 CODE           0002:000002f8  ! 00000005
                _DATA                 DATA           0003:00000070  ! 00000000
/mnt/sda5/.user/root/src/openwatcom-1.9/bld/clib/alias/a/_itcsnci.asm
                _TEXT                 CODE           0002:00000300  ! 00000005
                _DATA                 DATA           0003:00000070  ! 00000000
/mnt/sda5/.user/root/src/openwatcom-1.9/bld/clib/alias/a/_itcncic.asm
                _TEXT                 CODE           0002:00000308  ! 00000005
                _DATA                 DATA           0003:00000070  ! 00000000
/mnt/sda5/.user/root/src/openwatcom-1.9/bld/clib/alias/a/_itcsncs.asm
                _TEXT                 CODE           0002:00000310  ! 00000005
                _DATA                 DATA           0003:00000070  ! 00000000
/mnt/sda5/.user/root/src/openwatcom-1.9/bld/clib/alias/a/_itcsnex.asm
                _TEXT                 CODE           0002:00000318  ! 00000005
                _DATA                 DATA           0003:00000070  ! 00000000
/mnt/sda5/.user/root/src/openwatcom-1.9/bld/clib/alias/a/_imbsnbi.asm
                _TEXT                 CODE           0002:00000320  ! 00000005
                _DATA                 DATA           0003:00000070  ! 00000000
/mnt/sda5/.user/root/src/openwatcom-1.9/bld/clib/alias/a/_itcsnic.asm
                _TEXT                 CODE           0002:00000328  ! 00000005
                _DATA                 DATA           0003:00000070  ! 00000000
/mnt/sda5/.user/root/src/openwatcom-1.9/bld/clib/alias/a/_itcnico.asm
                _TEXT                 CODE           0002:00000330  ! 00000005
                _DATA                 DATA           0003:00000070  ! 00000000
/mnt/sda5/.user/root/src/openwatcom-1.9/bld/clib/alias/a/_itcsnin.asm
                _TEXT                 CODE           0002:00000338  ! 00000005
                _DATA                 DATA           0003:00000070  ! 00000000
/mnt/sda5/.user/root/src/openwatcom-1.9/bld/clib/alias/a/_itcsnse.asm
                _TEXT                 CODE           0002:00000340  ! 00000005
                _DATA                 DATA           0003:00000070  ! 00000000
/mnt/sda5/.user/root/src/openwatcom-1.9/bld/clib/alias/a/_itcspbr.asm
                _TEXT                 CODE           0002:00000348  ! 00000005
                _DATA                 DATA           0003:00000070  ! 00000000
/mnt/sda5/.user/root/src/openwatcom-1.9/bld/clib/alias/a/_itcsrch.asm
                _TEXT                 CODE           0002:00000350  ! 00000005
                _DATA                 DATA           0003:00000070  ! 00000000
/mnt/sda5/.user/root/src/openwatcom-1.9/bld/clib/alias/a/_itcsrev.asm
                _TEXT                 CODE           0002:00000358  ! 00000005
                _DATA                 DATA           0003:00000070  ! 00000000
/mnt/sda5/.user/root/src/openwatcom-1.9/bld/clib/alias/a/_itcsset.asm
                _TEXT                 CODE           0002:00000360  ! 00000005
                _DATA                 DATA           0003:00000070  ! 00000000
/mnt/sda5/.user/root/src/openwatcom-1.9/bld/clib/alias/a/_itcsspn.asm
                _TEXT                 CODE           0002:00000368  ! 00000005
                _DATA                 DATA           0003:00000070  ! 00000000
/mnt/sda5/.user/root/src/openwatcom-1.9/bld/clib/alias/a/_itcspnp.asm
                _TEXT                 CODE           0002:00000370  ! 00000005
                _DATA                 DATA           0003:00000070  ! 00000000
/mnt/sda5/.user/root/src/openwatcom-1.9/bld/clib/alias/a/_itcsstr.asm
                _TEXT                 CODE           0002:00000378  ! 00000005
                _DATA                 DATA           0003:00000070  ! 00000000
/mnt/sda5/.user/root/src/openwatcom-1.9/bld/clib/alias/a/_itcstok.asm
                _TEXT                 CODE           0002:00000380  ! 00000005
                _DATA                 DATA           0003:00000070  ! 00000000
/mnt/sda5/.user/root/src/openwatcom-1.9/bld/clib/alias/a/_itcsupr.asm
                _TEXT                 CODE           0002:00000388  ! 00000005
                _DATA                 DATA           0003:00000070  ! 00000000
/mnt/sda5/.user/root/src/openwatcom-1.9/bld/clib/alias/a/_imemicm.asm
                _TEXT                 CODE           0002:00000390  ! 00000005
                _DATA                 DATA           0003:00000070  ! 00000000
/mnt/sda5/.user/root/src/openwatcom-1.9/bld/clib/alias/a/_imkdir_.asm
                _TEXT                 CODE           0002:00000398  ! 00000005
                _DATA                 DATA           0003:00000070  ! 00000000
/mnt/sda5/.user/root/src/openwatcom-1.9/bld/clib/alias/a/_iopen__.asm
                _TEXT                 CODE           0002:000003a0  ! 00000005
                _DATA                 DATA           0003:00000070  ! 00000000
/mnt/sda5/.user/root/src/openwatcom-1.9/bld/clib/alias/a/_iputenv.asm
                _TEXT                 CODE           0002:000003a8  ! 00000005
                _DATA                 DATA           0003:00000070  ! 00000000
/mnt/sda5/.user/root/src/openwatcom-1.9/bld/clib/alias/a/_iputws_.asm
                _TEXT                 CODE           0002:000003b0  ! 00000005
                _DATA                 DATA           0003:00000070  ! 00000000
/mnt/sda5/.user/root/src/openwatcom-1.9/bld/clib/alias/a/_iread__.asm
                _TEXT                 CODE           0002:000003b8  ! 00000005
                _DATA                 DATA           0003:00000070  ! 00000000
/mnt/sda5/.user/root/src/openwatcom-1.9/bld/clib/alias/a/_irmdir_.asm
                _TEXT                 CODE           0002:000003c0  ! 00000005
                _DATA                 DATA           0003:00000070  ! 00000000
/mnt/sda5/.user/root/src/openwatcom-1.9/bld/clib/alias/a/_isetmod.asm
                _TEXT                 CODE           0002:000003c8  ! 00000005
                _DATA                 DATA           0003:00000070  ! 00000000
/mnt/sda5/.user/root/src/openwatcom-1.9/bld/clib/alias/a/_isopen_.asm
                _TEXT                 CODE           0002:000003d0  ! 00000005
                _DATA                 DATA           0003:00000070  ! 00000000
/mnt/sda5/.user/root/src/openwatcom-1.9/bld/clib/alias/a/_istkavl.asm
                _TEXT                 CODE           0002:000003d8  ! 00000005
                _DATA                 DATA           0003:00000070  ! 00000000
/mnt/sda5/.user/root/src/openwatcom-1.9/bld/clib/alias/a/_istat__.asm
                _TEXT                 CODE           0002:000003e0  ! 00000005
                _DATA                 DATA           0003:00000070  ! 00000000
/mnt/sda5/.user/root/src/openwatcom-1.9/bld/clib/alias/a/_ilstat_.asm
                _TEXT                 CODE           0002:000003e8  ! 00000005
                _DATA                 DATA           0003:00000070  ! 00000000
/mnt/sda5/.user/root/src/openwatcom-1.9/bld/clib/alias/a/_istrdup.asm
                _TEXT                 CODE           0002:000003f0  ! 00000005
                _DATA                 DATA           0003:00000070  ! 00000000
/mnt/sda5/.user/root/src/openwatcom-1.9/bld/clib/alias/a/_icstrdu.asm
                _TEXT                 CODE           0002:000003f8  ! 00000005
                _DATA                 DATA           0003:00000070  ! 00000000
/mnt/sda5/.user/root/src/openwatcom-1.9/bld/clib/alias/a/_icwcsdu.asm
                _TEXT                 CODE           0002:00000400  ! 00000005
                _DATA                 DATA           0003:00000070  ! 00000000
/mnt/sda5/.user/root/src/openwatcom-1.9/bld/clib/alias/a/_istrcmp.asm
                _TEXT                 CODE           0002:00000408  ! 00000005
                _DATA                 DATA           0003:00000070  ! 00000000
/mnt/sda5/.user/root/src/openwatcom-1.9/bld/clib/alias/a/_istricm.asm
                _TEXT                 CODE           0002:00000410  ! 00000005
                _DATA                 DATA           0003:00000070  ! 00000000
/mnt/sda5/.user/root/src/openwatcom-1.9/bld/clib/alias/a/_istrico.asm
                _TEXT                 CODE           0002:00000418  ! 00000005
                _DATA                 DATA           0003:00000070  ! 00000000
/mnt/sda5/.user/root/src/openwatcom-1.9/bld/clib/alias/a/_istrlwr.asm
                _TEXT                 CODE           0002:00000420  ! 00000005
                _DATA                 DATA           0003:00000070  ! 00000000
/mnt/sda5/.user/root/src/openwatcom-1.9/bld/clib/alias/a/_istrnco.asm
                _TEXT                 CODE           0002:00000428  ! 00000005
                _DATA                 DATA           0003:00000070  ! 00000000
/mnt/sda5/.user/root/src/openwatcom-1.9/bld/clib/alias/a/_istrnic.asm
                _TEXT                 CODE           0002:00000430  ! 00000005
                _DATA                 DATA           0003:00000070  ! 00000000
/mnt/sda5/.user/root/src/openwatcom-1.9/bld/clib/alias/a/_istnico.asm
                _TEXT                 CODE           0002:00000438  ! 00000005
                _DATA                 DATA           0003:00000070  ! 00000000
/mnt/sda5/.user/root/src/openwatcom-1.9/bld/clib/alias/a/_istrnse.asm
                _TEXT                 CODE           0002:00000440  ! 00000005
                _DATA                 DATA           0003:00000070  ! 00000000
/mnt/sda5/.user/root/src/openwatcom-1.9/bld/clib/alias/a/_istrrev.asm
                _TEXT                 CODE           0002:00000448  ! 00000005
                _DATA                 DATA           0003:00000070  ! 00000000
/mnt/sda5/.user/root/src/openwatcom-1.9/bld/clib/alias/a/_istrset.asm
                _TEXT                 CODE           0002:00000450  ! 00000005
                _DATA                 DATA           0003:00000070  ! 00000000
/mnt/sda5/.user/root/src/openwatcom-1.9/bld/clib/alias/a/_istrspn.asm
                _TEXT                 CODE           0002:00000458  ! 00000005
                _DATA                 DATA           0003:00000070  ! 00000000
/mnt/sda5/.user/root/src/openwatcom-1.9/bld/clib/alias/a/_istrupr.asm
                _TEXT                 CODE           0002:00000460  ! 00000005
                _DATA                 DATA           0003:00000070  ! 00000000
/mnt/sda5/.user/root/src/openwatcom-1.9/bld/clib/alias/a/_istrcc_.asm
                _TEXT                 CODE           0002:00000468  ! 00000005
                _DATA                 DATA           0003:00000070  ! 00000000
/mnt/sda5/.user/root/src/openwatcom-1.9/bld/clib/alias/a/_istrncc.asm
                _TEXT                 CODE           0002:00000470  ! 00000005
                _DATA                 DATA           0003:00000070  ! 00000000
/mnt/sda5/.user/root/src/openwatcom-1.9/bld/clib/alias/a/_itell__.asm
                _TEXT                 CODE           0002:00000478  ! 00000005
                _DATA                 DATA           0003:00000070  ! 00000000
/mnt/sda5/.user/root/src/openwatcom-1.9/bld/clib/alias/a/_itolowe.asm
                _TEXT                 CODE           0002:00000480  ! 00000005
                _DATA                 DATA           0003:00000070  ! 00000000
/mnt/sda5/.user/root/src/openwatcom-1.9/bld/clib/alias/a/_itouppe.asm
                _TEXT                 CODE           0002:00000488  ! 00000005
                _DATA                 DATA           0003:00000070  ! 00000000
/mnt/sda5/.user/root/src/openwatcom-1.9/bld/clib/alias/a/_itzset_.asm
                _TEXT                 CODE           0002:00000490  ! 00000005
                _DATA                 DATA           0003:00000070  ! 00000000
/mnt/sda5/.user/root/src/openwatcom-1.9/bld/clib/alias/a/_iufst64.asm
                _TEXT                 CODE           0002:00000498  ! 00000005
                _DATA                 DATA           0003:00000070  ! 00000000
/mnt/sda5/.user/root/src/openwatcom-1.9/bld/clib/alias/a/_iufstat.asm
                _TEXT                 CODE           0002:000004a0  ! 00000005
                _DATA                 DATA           0003:00000070  ! 00000000
/mnt/sda5/.user/root/src/openwatcom-1.9/bld/clib/alias/a/_iumask_.asm
                _TEXT                 CODE           0002:000004a8  ! 00000005
                _DATA                 DATA           0003:00000070  ! 00000000
/mnt/sda5/.user/root/src/openwatcom-1.9/bld/clib/alias/a/_iunlink.asm
                _TEXT                 CODE           0002:000004b0  ! 00000005
                _DATA                 DATA           0003:00000070  ! 00000000
/mnt/sda5/.user/root/src/openwatcom-1.9/bld/clib/alias/a/_iutime_.asm
                _TEXT                 CODE           0002:000004b8  ! 00000005
                _DATA                 DATA           0003:00000070  ! 00000000
/mnt/sda5/.user/root/src/openwatcom-1.9/bld/clib/alias/a/_iwrite_.asm
                _TEXT                 CODE           0002:000004c0  ! 00000005
                _DATA                 DATA           0003:00000070  ! 00000000
/mnt/sda5/.user/root/src/openwatcom-1.9/bld/clib/alias/a/_iw_acce.asm
                _TEXT                 CODE           0002:000004c8  ! 00000005
                _DATA                 DATA           0003:00000070  ! 00000000
/mnt/sda5/.user/root/src/openwatcom-1.9/bld/clib/alias/a/_iwcscmp.asm
                _TEXT                 CODE           0002:000004d0  ! 00000005
                _DATA                 DATA           0003:00000070  ! 00000000
/mnt/sda5/.user/root/src/openwatcom-1.9/bld/clib/alias/a/_iwcsico.asm
                _TEXT                 CODE           0002:000004d8  ! 00000005
                _DATA                 DATA           0003:00000070  ! 00000000
/mnt/sda5/.user/root/src/openwatcom-1.9/bld/clib/alias/a/_iwcsnco.asm
                _TEXT                 CODE           0002:000004e0  ! 00000005
                _DATA                 DATA           0003:00000070  ! 00000000
/mnt/sda5/.user/root/src/openwatcom-1.9/bld/clib/alias/a/_iwcnico.asm
                _TEXT                 CODE           0002:000004e8  ! 00000005
                _DATA                 DATA           0003:00000070  ! 00000000
/mnt/sda5/.user/root/src/openwatcom-1.9/bld/clib/alias/a/_iw_fsop.asm
                _TEXT                 CODE           0002:000004f0  ! 00000005
                _DATA                 DATA           0003:00000070  ! 00000000
/mnt/sda5/.user/root/src/openwatcom-1.9/bld/clib/alias/a/_iw_full.asm
                _TEXT                 CODE           0002:000004f8  ! 00000005
                _DATA                 DATA           0003:00000070  ! 00000000
/mnt/sda5/.user/root/src/openwatcom-1.9/bld/clib/alias/a/_iitow__.asm
                _TEXT                 CODE           0002:00000500  ! 00000005
                _DATA                 DATA           0003:00000070  ! 00000000
/mnt/sda5/.user/root/src/openwatcom-1.9/bld/clib/alias/a/_iltow__.asm
                _TEXT                 CODE           0002:00000508  ! 00000005
                _DATA                 DATA           0003:00000070  ! 00000000
/mnt/sda5/.user/root/src/openwatcom-1.9/bld/clib/alias/a/_iw_make.asm
                _TEXT                 CODE           0002:00000510  ! 00000005
                _DATA                 DATA           0003:00000070  ! 00000000
/mnt/sda5/.user/root/src/openwatcom-1.9/bld/clib/alias/a/_iw_spli.asm
                _TEXT                 CODE           0002:00000518  ! 00000005
                _DATA                 DATA           0003:00000070  ! 00000000
/mnt/sda5/.user/root/src/openwatcom-1.9/bld/clib/alias/a/_iw_spl2.asm
                _TEXT                 CODE           0002:00000520  ! 00000005
                _DATA                 DATA           0003:00000070  ! 00000000
/mnt/sda5/.user/root/src/openwatcom-1.9/bld/clib/alias/a/_iwtoi__.asm
                _TEXT                 CODE           0002:00000528  ! 00000005
                _DATA                 DATA           0003:00000070  ! 00000000
/mnt/sda5/.user/root/src/openwatcom-1.9/bld/clib/alias/a/_iwtol__.asm
                _TEXT                 CODE           0002:00000530  ! 00000005
                _DATA                 DATA           0003:00000070  ! 00000000
/mnt/sda5/.user/root/src/openwatcom-1.9/bld/clib/alias/a/_iultow_.asm
                _TEXT                 CODE           0002:00000538  ! 00000005
                _DATA                 DATA           0003:00000070  ! 00000000
/mnt/sda5/.user/root/src/openwatcom-1.9/bld/clib/alias/a/_iutow__.asm
                _TEXT                 CODE           0002:00000540  ! 00000005
                _DATA                 DATA           0003:00000070  ! 00000000
/mnt/sda5/.user/root/src/openwatcom-1.9/bld/clib/char/c/isalnum.c
                _TEXT                 CODE           0002:00000550  ! 0000003c
                CONST                 DATA           0003:00000004  ! 00000000
                CONST2                DATA           0003:00000068  ! 00000000
                _DATA                 DATA           0003:00000070  ! 00000000
/mnt/sda5/.user/root/src/openwatcom-1.9/bld/clib/char/c/isalpha.c
                _TEXT                 CODE           0002:00000590  ! 0000003c
                CONST                 DATA           0003:00000004  ! 00000000
                CONST2                DATA           0003:00000068  ! 00000000
                _DATA                 DATA           0003:00000070  ! 00000000
/mnt/sda5/.user/root/src/openwatcom-1.9/bld/clib/char/c/isascii.c
                _TEXT                 CODE           0002:000005d0  ! 00000039
                CONST                 DATA           0003:00000004  ! 00000000
                CONST2                DATA           0003:00000068  ! 00000000
                _DATA                 DATA           0003:00000070  ! 00000000
/mnt/sda5/.user/root/src/openwatcom-1.9/bld/clib/char/c/isblank.c
                _TEXT                 CODE           0002:00000610  ! 00000048
                CONST                 DATA           0003:00000004  ! 00000000
                CONST2                DATA           0003:00000068  ! 00000000
                _DATA                 DATA           0003:00000070  ! 00000000
/mnt/sda5/.user/root/src/openwatcom-1.9/bld/clib/char/c/iscntrl.c
                _TEXT                 CODE           0002:00000660  ! 0000003a
                CONST                 DATA           0003:00000004  ! 00000000
                CONST2                DATA           0003:00000068  ! 00000000
                _DATA                 DATA           0003:00000070  ! 00000000
/mnt/sda5/.user/root/src/openwatcom-1.9/bld/clib/char/c/iscsym.c
                _TEXT                 CODE           0002:000006a0  ! 00000054
                CONST                 DATA           0003:00000004  ! 00000000
                CONST2                DATA           0003:00000068  ! 00000000
                _DATA                 DATA           0003:00000070  ! 00000000
/mnt/sda5/.user/root/src/openwatcom-1.9/bld/clib/char/c/iscsymf.c
                _TEXT                 CODE           0002:00000700  ! 00000054
                CONST                 DATA           0003:00000004  ! 00000000
                CONST2                DATA           0003:00000068  ! 00000000
                _DATA                 DATA           0003:00000070  ! 00000000
/mnt/sda5/.user/root/src/openwatcom-1.9/bld/clib/char/c/isdigit.c
                _TEXT                 CODE           0002:00000760  ! 0000003a
                CONST                 DATA           0003:00000004  ! 00000000
                CONST2                DATA           0003:00000068  ! 00000000
                _DATA                 DATA           0003:00000070  ! 00000000
/mnt/sda5/.user/root/src/openwatcom-1.9/bld/clib/char/c/isgraph.c
                _TEXT                 CODE           0002:000007a0  ! 00000052
                CONST                 DATA           0003:00000004  ! 00000000
                CONST2                DATA           0003:00000068  ! 00000000
                _DATA                 DATA           0003:00000070  ! 00000000
/mnt/sda5/.user/root/src/openwatcom-1.9/bld/clib/char/c/islower.c
                _TEXT                 CODE           0002:00000800  ! 0000003c
                CONST                 DATA           0003:00000004  ! 00000000
                CONST2                DATA           0003:00000068  ! 00000000
                _DATA                 DATA           0003:00000070  ! 00000000
/mnt/sda5/.user/root/src/openwatcom-1.9/bld/clib/char/c/isprint.c
                _TEXT                 CODE           0002:00000840  ! 0000003a
                CONST                 DATA           0003:00000004  ! 00000000
                CONST2                DATA           0003:00000068  ! 00000000
                _DATA                 DATA           0003:00000070  ! 00000000
/mnt/sda5/.user/root/src/openwatcom-1.9/bld/clib/char/c/ispunct.c
                _TEXT                 CODE           0002:00000880  ! 0000003a
                CONST                 DATA           0003:00000004  ! 00000000
                CONST2                DATA           0003:00000068  ! 00000000
                _DATA                 DATA           0003:00000070  ! 00000000
/mnt/sda5/.user/root/src/openwatcom-1.9/bld/clib/char/c/isspace.c
                _TEXT                 CODE           0002:000008c0  ! 0000003a
                CONST                 DATA           0003:00000004  ! 00000000
                CONST2                DATA           0003:00000068  ! 00000000
                _DATA                 DATA           0003:00000070  ! 00000000
/mnt/sda5/.user/root/src/openwatcom-1.9/bld/clib/char/c/istable.c
                _TEXT                 CODE           0002:00000900  ! 00000101
                CONST                 DATA           0003:00000004  ! 00000000
                CONST2                DATA           0003:00000068  ! 00000000
                _DATA                 DATA           0003:00000070  ! 00000000
/mnt/sda5/.user/root/src/openwatcom-1.9/bld/clib/char/c/isupper.c
                _TEXT                 CODE           0002:00000a10  ! 0000003a
                CONST                 DATA           0003:00000004  ! 00000000
                CONST2                DATA           0003:00000068  ! 00000000
                _DATA                 DATA           0003:00000070  ! 00000000
/mnt/sda5/.user/root/src/openwatcom-1.9/bld/clib/char/c/iswctype.c
                _TEXT                 CODE           0002:00000a50  ! 00000145
                CONST                 DATA           0003:00000004  ! 00000000
                CONST2                DATA           0003:00000068  ! 00000000
                _DATA                 DATA           0003:00000070  ! 00000000
/mnt/sda5/.user/root/src/openwatcom-1.9/bld/clib/char/c/isxdigit.c
                _TEXT                 CODE           0002:00000ba0  ! 0000003a
                CONST                 DATA           0003:00000004  ! 00000000
                CONST2                DATA           0003:00000068  ! 00000000
                _DATA                 DATA           0003:00000070  ! 00000000
/mnt/sda5/.user/root/src/openwatcom-1.9/bld/clib/char/c/tolower.c
                _TEXT                 CODE           0002:00000be0  ! 00000035
                CONST                 DATA           0003:00000004  ! 00000000
                CONST2                DATA           0003:00000068  ! 00000000
                _DATA                 DATA           0003:00000070  ! 00000000
/mnt/sda5/.user/root/src/openwatcom-1.9/bld/clib/char/c/toupper.c
                _TEXT                 CODE           0002:00000c20  ! 00000035
                CONST                 DATA           0003:00000004  ! 00000000
                CONST2                DATA           0003:00000068  ! 00000000
                _DATA                 DATA           0003:00000070  ! 00000000
/mnt/sda5/.user/root/src/openwatcom-1.9/bld/clib/char/c/towctrns.c
                _TEXT                 CODE           0002:00000c60  ! 0000005c
                CONST                 DATA           0003:00000004  ! 00000000
                CONST2                DATA           0003:00000068  ! 00000000
                _DATA                 DATA           0003:00000070  ! 00000000
/mnt/sda5/.user/root/src/openwatcom-1.9/bld/clib/char/c/wctrans.c
                _TEXT                 CODE           0002:00000cc0  ! 00000068
                CONST                 DATA           0003:00000004  ! 00000000
                CONST2                DATA           0003:00000068  ! 00000000
                _DATA                 DATA           0003:00000070  ! 00000000
/mnt/sda5/.user/root/src/openwatcom-1.9/bld/clib/char/c/uisalnum.c
                _TEXT                 CODE           0002:00000d28  ! 0000003e
                CONST                 DATA           0003:00000004  ! 00000000
                CONST2                DATA           0003:00000068  ! 00000000
                _DATA                 DATA           0003:00000070  ! 00000000
/mnt/sda5/.user/root/src/openwatcom-1.9/bld/clib/char/c/uisalpha.c
                _TEXT                 CODE           0002:00000d66  ! 0000003e
                CONST                 DATA           0003:00000004  ! 00000000
                CONST2                DATA           0003:00000068  ! 00000000
                _DATA                 DATA           0003:00000070  ! 00000000
/mnt/sda5/.user/root/src/openwatcom-1.9/bld/clib/char/c/uisascii.c
                _TEXT                 CODE           0002:00000da4  ! 00000033
                CONST                 DATA           0003:00000004  ! 00000000
                CONST2                DATA           0003:00000068  ! 00000000
                _DATA                 DATA           0003:00000070  ! 00000000
/mnt/sda5/.user/root/src/openwatcom-1.9/bld/clib/char/c/uisblank.c
                _TEXT                 CODE           0002:00000de0  ! 00000052
                CONST                 DATA           0003:00000004  ! 00000000
                CONST2                DATA           0003:00000068  ! 00000000
                _DATA                 DATA           0003:00000070  ! 00000000
/mnt/sda5/.user/root/src/openwatcom-1.9/bld/clib/char/c/uiscntrl.c
                _TEXT                 CODE           0002:00000e32  ! 0000003c
                CONST                 DATA           0003:00000004  ! 00000000
                CONST2                DATA           0003:00000068  ! 00000000
                _DATA                 DATA           0003:00000070  ! 00000000
/mnt/sda5/.user/root/src/openwatcom-1.9/bld/clib/char/c/uiscsym.c
                _TEXT                 CODE           0002:00000e6e  ! 00000057
                CONST                 DATA           0003:00000004  ! 00000000
                CONST2                DATA           0003:00000068  ! 00000000
                _DATA                 DATA           0003:00000070  ! 00000000
/mnt/sda5/.user/root/src/openwatcom-1.9/bld/clib/char/c/uiscsymf.c
                _TEXT                 CODE           0002:00000ec5  ! 00000057
                CONST                 DATA           0003:00000004  ! 00000000
                CONST2                DATA           0003:00000068  ! 00000000
                _DATA                 DATA           0003:00000070  ! 00000000
/mnt/sda5/.user/root/src/openwatcom-1.9/bld/clib/char/c/uisdigit.c
                _TEXT                 CODE           0002:00000f1c  ! 0000003c
                CONST                 DATA           0003:00000004  ! 00000000
                CONST2                DATA           0003:00000068  ! 00000000
                _DATA                 DATA           0003:00000070  ! 00000000
/mnt/sda5/.user/root/src/openwatcom-1.9/bld/clib/char/c/uisgraph.c
                _TEXT                 CODE           0002:00000f58  ! 00000054
                CONST                 DATA           0003:00000004  ! 00000000
                CONST2                DATA           0003:00000068  ! 00000000
                _DATA                 DATA           0003:00000070  ! 00000000
/mnt/sda5/.user/root/src/openwatcom-1.9/bld/clib/char/c/uislower.c
                _TEXT                 CODE           0002:00000fac  ! 0000003e
                CONST                 DATA           0003:00000004  ! 00000000
                CONST2                DATA           0003:00000068  ! 00000000
                _DATA                 DATA           0003:00000070  ! 00000000
/mnt/sda5/.user/root/src/openwatcom-1.9/bld/clib/char/c/uisprint.c
                _TEXT                 CODE           0002:00000fea  ! 0000003c
                CONST                 DATA           0003:00000004  ! 00000000
                CONST2                DATA           0003:00000068  ! 00000000
                _DATA                 DATA           0003:00000070  ! 00000000
/mnt/sda5/.user/root/src/openwatcom-1.9/bld/clib/char/c/uispunct.c
                _TEXT                 CODE           0002:00001026  ! 0000003c
                CONST                 DATA           0003:00000004  ! 00000000
                CONST2                DATA           0003:00000068  ! 00000000
                _DATA                 DATA           0003:00000070  ! 00000000
/mnt/sda5/.user/root/src/openwatcom-1.9/bld/clib/char/c/uisspace.c
                _TEXT                 CODE           0002:00001062  ! 0000003c
                CONST                 DATA           0003:00000004  ! 00000000
                CONST2                DATA           0003:00000068  ! 00000000
                _DATA                 DATA           0003:00000070  ! 00000000
/mnt/sda5/.user/root/src/openwatcom-1.9/bld/clib/char/c/uisupper.c
                _TEXT                 CODE           0002:0000109e  ! 0000003c
                CONST                 DATA           0003:00000004  ! 00000000
                CONST2                DATA           0003:00000068  ! 00000000
                _DATA                 DATA           0003:00000070  ! 00000000
/mnt/sda5/.user/root/src/openwatcom-1.9/bld/clib/char/c/uisxdig.c
                _TEXT                 CODE           0002:000010da  ! 0000003c
                CONST                 DATA           0003:00000004  ! 00000000
                CONST2                DATA           0003:00000068  ! 00000000
                _DATA                 DATA           0003:00000070  ! 00000000
/mnt/sda5/.user/root/src/openwatcom-1.9/bld/clib/char/c/utolower.c
                _TEXT                 CODE           0002:00001116  ! 00000030
                CONST                 DATA           0003:00000004  ! 00000000
                CONST2                DATA           0003:00000068  ! 00000000
                _DATA                 DATA           0003:00000070  ! 00000000
/mnt/sda5/.user/root/src/openwatcom-1.9/bld/clib/char/c/utoupper.c
                _TEXT                 CODE           0002:00001146  ! 00000030
                CONST                 DATA           0003:00000004  ! 00000000
                CONST2                DATA           0003:00000068  ! 00000000
                _DATA                 DATA           0003:00000070  ! 00000000
/mnt/sda5/.user/root/src/openwatcom-1.9/bld/clib/char/c/wctype.c
                _TEXT                 CODE           0002:00001180  ! 000001c4
                CONST                 DATA           0003:00000004  ! 00000000
                CONST2                DATA           0003:00000068  ! 00000000
                _DATA                 DATA           0003:00000070  ! 00000000
/mnt/sda5/.user/root/src/openwatcom-1.9/bld/clib/conio/c/cgetsos2.c
                _TEXT                 CODE           0002:00001350  ! 000000ba
                CONST                 DATA           0003:00000004  ! 00000000
                CONST2                DATA           0003:00000068  ! 00000000
                _DATA                 DATA           0003:00000070  ! 00000000
/mnt/sda5/.user/root/src/openwatcom-1.9/bld/clib/conio/c/cprintf.c
                _TEXT                 CODE           0002:00001410  ! 000000aa
                CONST                 DATA           0003:00000004  ! 00000000
                CONST2                DATA           0003:00000068  ! 00000000
                _DATA                 DATA           0003:00000070  ! 00000000
/mnt/sda5/.user/root/src/openwatcom-1.9/bld/clib/conio/c/cputs.c
                _TEXT                 CODE           0002:000014c0  ! 00000041
                CONST                 DATA           0003:00000004  ! 00000000
                CONST2                DATA           0003:00000068  ! 00000000
                _DATA                 DATA           0003:00000070  ! 00000000
/mnt/sda5/.user/root/src/openwatcom-1.9/bld/clib/conio/c/cscanf.c
                _TEXT                 CODE           0002:00001510  ! 000000de
                CONST                 DATA           0003:00000004  ! 00000000
                CONST2                DATA           0003:00000068  ! 00000000
                _DATA                 DATA           0003:00000070  ! 00000000
/mnt/sda5/.user/root/src/openwatcom-1.9/bld/clib/conio/c/getchos2.c
                _TEXT                 CODE           0002:000015f0  ! 000000c7
                CONST                 DATA           0003:00000004  ! 00000000
                CONST2                DATA           0003:00000068  ! 00000000
                _DATA                 DATA           0003:00000070  ! 00000000
/mnt/sda5/.user/root/src/openwatcom-1.9/bld/clib/conio/c/gtcheos2.c
                _TEXT                 CODE           0002:000016c0  ! 00000046
                CONST                 DATA           0003:00000004  ! 00000000
                CONST2                DATA           0003:00000068  ! 00000000
                _DATA                 DATA           0003:00000070  ! 00000000
/mnt/sda5/.user/root/src/openwatcom-1.9/bld/clib/conio/c/kbhitos2.c
                _TEXT                 CODE           0002:00001710  ! 00000079
                CONST                 DATA           0003:00000004  ! 00000000
                CONST2                DATA           0003:00000068  ! 00000000
                _DATA                 DATA           0003:00000070  ! 00000000
/mnt/sda5/.user/root/src/openwatcom-1.9/bld/clib/conio/c/putchos2.c
                _TEXT                 CODE           0002:00001790  ! 0000005b
                CONST                 DATA           0003:00000004  ! 00000000
                CONST2                DATA           0003:00000068  ! 00000000
                _DATA                 DATA           0003:00000070  ! 00000000
/mnt/sda5/.user/root/src/openwatcom-1.9/bld/clib/conio/c/ungetch.c
                _TEXT                 CODE           0002:000017f0  ! 0000003d
                CONST                 DATA           0003:00000004  ! 00000000
                CONST2                DATA           0003:00000068  ! 00000000
                _DATA                 DATA           0003:00000070  ! 00000000
/mnt/sda5/.user/root/src/openwatcom-1.9/bld/clib/convert/c/atoi.c
                _TEXT                 CODE           0002:00001830  ! 00000090
                CONST                 DATA           0003:00000004  ! 00000000
                CONST2                DATA           0003:00000068  ! 00000000
                _DATA                 DATA           0003:00000070  ! 00000000
/mnt/sda5/.user/root/src/openwatcom-1.9/bld/clib/convert/c/atol.c
                _TEXT                 CODE           0002:000018c0  ! 00000090
                CONST                 DATA           0003:00000004  ! 00000000
                CONST2                DATA           0003:00000068  ! 00000000
                _DATA                 DATA           0003:00000070  ! 00000000
/mnt/sda5/.user/root/src/openwatcom-1.9/bld/clib/convert/c/atoll.c
                _TEXT                 CODE           0002:00001950  ! 000000c4
                CONST                 DATA           0003:00000004  ! 00000000
                CONST2                DATA           0003:00000068  ! 00000000
                _DATA                 DATA           0003:00000070  ! 00000000
/mnt/sda5/.user/root/src/openwatcom-1.9/bld/clib/convert/c/atouni.c
                _TEXT                 CODE           0002:00001a20  ! 00000054
                CONST                 DATA           0003:00000004  ! 00000000
                CONST2                DATA           0003:00000068  ! 00000000
                _DATA                 DATA           0003:00000070  ! 00000000
/mnt/sda5/.user/root/src/openwatcom-1.9/bld/clib/convert/c/itoa.c
                _TEXT                 CODE           0002:00001a80  ! 000000d1
                CONST                 DATA           0003:00000004  ! 00000000
                CONST2                DATA           0003:00000068  ! 00000000
                _DATA                 DATA           0003:00000070  ! 00000000
/mnt/sda5/.user/root/src/openwatcom-1.9/bld/clib/convert/c/lltoa.c
                _TEXT                 CODE           0002:00001b60  ! 0000010a
                CONST                 DATA           0003:00000004  ! 00000000
                CONST2                DATA           0003:00000068  ! 00000000
                _DATA                 DATA           0003:00000070  ! 00000000
/mnt/sda5/.user/root/src/openwatcom-1.9/bld/clib/convert/c/ltoa.c
                _TEXT                 CODE           0002:00001c70  ! 000000d1
                CONST                 DATA           0003:00000004  ! 00000000
                CONST2                DATA           0003:00000068  ! 00000000
                _DATA                 DATA           0003:00000070  ! 00000000
/mnt/sda5/.user/root/src/openwatcom-1.9/bld/clib/convert/c/strtol.c
                _TEXT                 CODE           0002:00001d50  ! 00000305
                CONST                 DATA           0003:00000004  ! 00000000
                CONST2                DATA           0003:00000068  ! 00000000
                _DATA                 DATA           0003:00000070  ! 0000008c
/mnt/sda5/.user/root/src/openwatcom-1.9/bld/clib/convert/c/strtoll.c
                _TEXT                 CODE           0002:00002060  ! 0000041f
                CONST                 DATA           0003:00000004  ! 00000000
                CONST2                DATA           0003:00000068  ! 00000000
                _DATA                 DATA           0003:00000100  ! 00000118
/mnt/sda5/.user/root/src/openwatcom-1.9/bld/clib/convert/c/uatoi.c
                _TEXT                 CODE           0002:00002480  ! 0000009a
                CONST                 DATA           0003:00000004  ! 00000000
                CONST2                DATA           0003:00000068  ! 00000000
                _DATA                 DATA           0003:00000218  ! 00000000
/mnt/sda5/.user/root/src/openwatcom-1.9/bld/clib/convert/c/uatol.c
                _TEXT                 CODE           0002:00002520  ! 0000009a
                CONST                 DATA           0003:00000004  ! 00000000
                CONST2                DATA           0003:00000068  ! 00000000
                _DATA                 DATA           0003:00000218  ! 00000000
/mnt/sda5/.user/root/src/openwatcom-1.9/bld/clib/convert/c/uatoll.c
                _TEXT                 CODE           0002:000025c0  ! 000000ce
                CONST                 DATA           0003:00000004  ! 00000000
                CONST2                DATA           0003:00000068  ! 00000000
                _DATA                 DATA           0003:00000218  ! 00000000
/mnt/sda5/.user/root/src/openwatcom-1.9/bld/clib/convert/c/uitoa.c
                _TEXT                 CODE           0002:00002690  ! 000000e4
                CONST                 DATA           0003:00000004  ! 00000000
                CONST2                DATA           0003:00000068  ! 00000000
                _DATA                 DATA           0003:00000218  ! 00000000
/mnt/sda5/.user/root/src/openwatcom-1.9/bld/clib/convert/c/ulltoa.c
                _TEXT                 CODE           0002:00002780  ! 0000011d
                CONST                 DATA           0003:00000004  ! 00000000
                CONST2                DATA           0003:00000068  ! 00000000
                _DATA                 DATA           0003:00000218  ! 00000000
/mnt/sda5/.user/root/src/openwatcom-1.9/bld/clib/convert/c/ultoa.c
                _TEXT                 CODE           0002:000028a0  ! 000000d4
                CONST                 DATA           0003:00000004  ! 00000000
                CONST2                DATA           0003:00000068  ! 00000000
                _DATA                 DATA           0003:00000218  ! 00000000
/mnt/sda5/.user/root/src/openwatcom-1.9/bld/clib/convert/c/ustrtol.c
                _TEXT                 CODE           0002:00002980  ! 00000325
                CONST                 DATA           0003:00000004  ! 00000000
                CONST2                DATA           0003:00000068  ! 00000000
                _DATA                 DATA           0003:00000218  ! 0000008c
/mnt/sda5/.user/root/src/openwatcom-1.9/bld/clib/convert/c/ustrtoll.c
                _TEXT                 CODE           0002:00002cb0  ! 0000043f
                CONST                 DATA           0003:00000004  ! 00000000
                CONST2                DATA           0003:00000068  ! 00000000
                _DATA                 DATA           0003:000002b0  ! 00000118
/mnt/sda5/.user/root/src/openwatcom-1.9/bld/clib/convert/a/fdmd386.asm
                _TEXT                 CODE           0002:000030f0  ! 00000059
                _DATA                 DATA           0003:000003c8  ! 00000000
/mnt/sda5/.user/root/src/openwatcom-1.9/bld/clib/convert/a/fsms386.asm
                _TEXT                 CODE           0002:0000314c  ! 00000050
                _DATA                 DATA           0003:000003c8  ! 00000000
/mnt/sda5/.user/root/src/openwatcom-1.9/bld/clib/convert/a/mdfd386.asm
                _TEXT                 CODE           0002:0000319c  ! 00000054
                _DATA                 DATA           0003:000003c8  ! 00000000
/mnt/sda5/.user/root/src/openwatcom-1.9/bld/clib/convert/a/msfs386.asm
                _TEXT                 CODE           0002:000031f0  ! 00000048
                _DATA                 DATA           0003:000003c8  ! 00000000
/mnt/sda5/.user/root/src/openwatcom-1.9/bld/clib/defwin/c/nodefwin.c
                _TEXT                 CODE           0002:00003240  ! 00000111
                CONST                 DATA           0003:00000004  ! 00000000
                CONST2                DATA           0003:00000068  ! 00000000
                _DATA                 DATA           0003:000003c8  ! 00000044
                _BSS                  BSS            0003:00001030  ! 00000001
/mnt/sda5/.user/root/src/openwatcom-1.9/bld/clib/direct/c/chdiros2.c
                _TEXT                 CODE           0002:00003360  ! 00000046
                CONST                 DATA           0003:00000004  ! 00000000
                CONST2                DATA           0003:00000068  ! 00000000
                _DATA                 DATA           0003:0000040c  ! 00000000
/mnt/sda5/.user/root/src/openwatcom-1.9/bld/clib/direct/c/chdrive.c
                _TEXT                 CODE           0002:000033b0  ! 0000004e
                CONST                 DATA           0003:00000004  ! 00000000
                CONST2                DATA           0003:00000068  ! 00000000
                _DATA                 DATA           0003:0000040c  ! 00000000
/mnt/sda5/.user/root/src/openwatcom-1.9/bld/clib/direct/c/diros2.c
                _TEXT                 CODE           0002:00003400  ! 000005e2
                CONST                 DATA           0003:00000004  ! 00000000
                CONST2                DATA           0003:00000068  ! 00000000
                _DATA                 DATA           0003:0000040c  ! 00000000
/mnt/sda5/.user/root/src/openwatcom-1.9/bld/clib/direct/c/diskfree.c
                _TEXT                 CODE           0002:000039f0  ! 0000002c
                CONST                 DATA           0003:00000004  ! 00000000
                CONST2                DATA           0003:00000068  ! 00000000
                _DATA                 DATA           0003:0000040c  ! 00000000
/mnt/sda5/.user/root/src/openwatcom-1.9/bld/clib/direct/c/getdrive.c
                _TEXT                 CODE           0002:00003a20  ! 00000028
                CONST                 DATA           0003:00000004  ! 00000000
                CONST2                DATA           0003:00000068  ! 00000000
                _DATA                 DATA           0003:0000040c  ! 00000000
/mnt/sda5/.user/root/src/openwatcom-1.9/bld/clib/direct/c/gtcwdos2.c
                _TEXT                 CODE           0002:00003a50  ! 000000ec
                CONST                 DATA           0003:00000004  ! 00000000
                CONST2                DATA           0003:00000068  ! 00000000
                _DATA                 DATA           0003:0000040c  ! 00000000
/mnt/sda5/.user/root/src/openwatcom-1.9/bld/clib/direct/c/getdcwd.c
                _TEXT                 CODE           0002:00003b40  ! 00000080
                CONST                 DATA           0003:00000004  ! 00000000
                CONST2                DATA           0003:00000068  ! 00000000
                _DATA                 DATA           0003:0000040c  ! 00000000
/mnt/sda5/.user/root/src/openwatcom-1.9/bld/clib/direct/c/mkdiros2.c
                _TEXT                 CODE           0002:00003bc0  ! 00000048
                CONST                 DATA           0003:00000004  ! 00000000
                CONST2                DATA           0003:00000068  ! 00000000
                _DATA                 DATA           0003:0000040c  ! 00000000
/mnt/sda5/.user/root/src/openwatcom-1.9/bld/clib/direct/c/rmdiros2.c
                _TEXT                 CODE           0002:00003c10  ! 00000046
                CONST                 DATA           0003:00000004  ! 00000000
                CONST2                DATA           0003:00000068  ! 00000000
                _DATA                 DATA           0003:0000040c  ! 00000000
/mnt/sda5/.user/root/src/openwatcom-1.9/bld/clib/direct/c/uchdros2.c
                _TEXT                 CODE           0002:00003c60  ! 00000076
                CONST                 DATA           0003:00000004  ! 00000000
                CONST2                DATA           0003:00000068  ! 00000000
                _DATA                 DATA           0003:0000040c  ! 00000000
/mnt/sda5/.user/root/src/openwatcom-1.9/bld/clib/direct/c/udiros2.c
                _TEXT                 CODE           0002:00003ce0  ! 00000652
                CONST                 DATA           0003:00000004  ! 00000000
                CONST2                DATA           0003:00000068  ! 00000000
                _DATA                 DATA           0003:0000040c  ! 00000000
/mnt/sda5/.user/root/src/openwatcom-1.9/bld/clib/direct/c/ugetdcwd.c
                _TEXT                 CODE           0002:00004340  ! 00000080
                CONST                 DATA           0003:00000004  ! 00000000
                CONST2                DATA           0003:00000068  ! 00000000
                _DATA                 DATA           0003:0000040c  ! 00000000
/mnt/sda5/.user/root/src/openwatcom-1.9/bld/clib/direct/c/ugtcdos2.c
                _TEXT                 CODE           0002:000043c0  ! 000000ff
                CONST                 DATA           0003:00000004  ! 00000000
                CONST2                DATA           0003:00000068  ! 00000000
                _DATA                 DATA           0003:0000040c  ! 00000000
/mnt/sda5/.user/root/src/openwatcom-1.9/bld/clib/direct/c/umkdros2.c
                _TEXT                 CODE           0002:000044c0  ! 00000078
                CONST                 DATA           0003:00000004  ! 00000000
                CONST2                DATA           0003:00000068  ! 00000000
                _DATA                 DATA           0003:0000040c  ! 00000000
/mnt/sda5/.user/root/src/openwatcom-1.9/bld/clib/direct/c/urmdros2.c
                _TEXT                 CODE           0002:00004540  ! 00000076
                CONST                 DATA           0003:00000004  ! 00000000
                CONST2                DATA           0003:00000068  ! 00000000
                _DATA                 DATA           0003:0000040c  ! 00000000
/mnt/sda5/.user/root/src/openwatcom-1.9/bld/clib/environ/c/clearenv.c
                _TEXT                 CODE           0002:000045c0  ! 000000d5
                CONST                 DATA           0003:00000004  ! 00000000
                CONST2                DATA           0003:00000068  ! 00000000
                _DATA                 DATA           0003:0000040c  ! 00000000
/mnt/sda5/.user/root/src/openwatcom-1.9/bld/clib/environ/c/environ.c
                _TEXT                 CODE           0002:000046a0  ! 00000000
                CONST                 DATA           0003:00000004  ! 00000000
                CONST2                DATA           0003:00000068  ! 00000000
                _DATA                 DATA           0003:0000040c  ! 00000000
                _BSS                  BSS            0003:00001034  ! 0000000c
                XIB                   DATA           0003:00000c88  ! 00000000
                XI                    DATA           0003:00000c88  ! 00000006
                XIE                   DATA           0003:00000cee  ! 00000000
                YIB                   DATA           0003:00000cee  ! 00000000
                YI                    DATA           0003:00000cee  ! 00000006
                YIE                   DATA           0003:00000d18  ! 00000000
/mnt/sda5/.user/root/src/openwatcom-1.9/bld/clib/environ/c/envptr.c
                _TEXT                 CODE           0002:000046a0  ! 00000021
                CONST                 DATA           0003:00000004  ! 00000000
                CONST2                DATA           0003:00000068  ! 00000000
                _DATA                 DATA           0003:0000040c  ! 00000000
/mnt/sda5/.user/root/src/openwatcom-1.9/bld/clib/environ/c/getenv.c
                _TEXT                 CODE           0002:000046d0  ! 000000bc
                CONST                 DATA           0003:00000004  ! 00000000
                CONST2                DATA           0003:00000068  ! 00000000
                _DATA                 DATA           0003:0000040c  ! 00000000
/mnt/sda5/.user/root/src/openwatcom-1.9/bld/clib/environ/c/getenv_s.c
                _TEXT                 CODE           0002:00004790  ! 00000169
                CONST                 DATA           0003:00000004  ! 00000000
                CONST2                DATA           0003:00000068  ! 00000000
                _DATA                 DATA           0003:0000040c  ! 00000000
/mnt/sda5/.user/root/src/openwatcom-1.9/bld/clib/environ/c/gtcmd.c
                _TEXT                 CODE           0002:00004900  ! 00000170
                CONST                 DATA           0003:00000004  ! 00000000
                CONST2                DATA           0003:00000068  ! 00000000
                _DATA                 DATA           0003:0000040c  ! 00000000
/mnt/sda5/.user/root/src/openwatcom-1.9/bld/clib/environ/c/gtpidos2.c
                _TEXT                 CODE           0002:00004a70  ! 00000032
                CONST                 DATA           0003:00000004  ! 00000000
                CONST2                DATA           0003:00000068  ! 00000000
                _DATA                 DATA           0003:0000040c  ! 00000000
/mnt/sda5/.user/root/src/openwatcom-1.9/bld/clib/environ/c/isattos2.c
                _TEXT                 CODE           0002:00004ab0  ! 00000079
                CONST                 DATA           0003:00000004  ! 00000000
                CONST2                DATA           0003:00000068  ! 00000000
                _DATA                 DATA           0003:0000040c  ! 00000000
/mnt/sda5/.user/root/src/openwatcom-1.9/bld/clib/environ/c/putenv.c
                _TEXT                 CODE           0002:00004b30  ! 0000045c
                CONST                 DATA           0003:00000004  ! 00000000
                CONST2                DATA           0003:00000068  ! 00000000
                _DATA                 DATA           0003:0000040c  ! 00000000
/mnt/sda5/.user/root/src/openwatcom-1.9/bld/clib/environ/c/searchen.c
                _TEXT                 CODE           0002:00004f90  ! 000001e5
                CONST                 DATA           0003:00000004  ! 00000000
                CONST2                DATA           0003:00000068  ! 00000000
                _DATA                 DATA           0003:0000040c  ! 00000000
/mnt/sda5/.user/root/src/openwatcom-1.9/bld/clib/environ/c/setenv.c
                _TEXT                 CODE           0002:00005180  ! 0000059c
                CONST                 DATA           0003:00000004  ! 00000000
                CONST2                DATA           0003:00000068  ! 00000000
                _DATA                 DATA           0003:0000040c  ! 00000000
/mnt/sda5/.user/root/src/openwatcom-1.9/bld/clib/environ/c/ugetenv.c
                _TEXT                 CODE           0002:00005720  ! 00000099
                CONST                 DATA           0003:00000004  ! 00000000
                CONST2                DATA           0003:00000068  ! 00000000
                _DATA                 DATA           0003:0000040c  ! 00000000
/mnt/sda5/.user/root/src/openwatcom-1.9/bld/clib/environ/c/uputenv.c
                _TEXT                 CODE           0002:000057c0  ! 0000035e
                CONST                 DATA           0003:00000004  ! 00000000
                CONST2                DATA           0003:00000068  ! 00000000
                _DATA                 DATA           0003:0000040c  ! 00000000
/mnt/sda5/.user/root/src/openwatcom-1.9/bld/clib/environ/c/usrchen.c
                _TEXT                 CODE           0002:00005b20  ! 00000216
                CONST                 DATA           0003:00000004  ! 00000000
                CONST2                DATA           0003:00000068  ! 00000000
                _DATA                 DATA           0003:0000040c  ! 00000000
/mnt/sda5/.user/root/src/openwatcom-1.9/bld/clib/environ/c/usetenv.c
                _TEXT                 CODE           0002:00005d40  ! 00000496
                CONST                 DATA           0003:00000004  ! 00000000
                CONST2                DATA           0003:00000068  ! 00000000
                _DATA                 DATA           0003:0000040c  ! 00000000
/mnt/sda5/.user/root/src/openwatcom-1.9/bld/clib/environ/c/wenvptr.c
                _TEXT                 CODE           0002:000061e0  ! 00000021
                CONST                 DATA           0003:00000004  ! 00000000
                CONST2                DATA           0003:00000068  ! 00000000
                _DATA                 DATA           0003:0000040c  ! 00000000
/mnt/sda5/.user/root/src/openwatcom-1.9/bld/clib/file/c/64findfi.c
                _TEXT                 CODE           0002:00006210  ! 00000186
                CONST                 DATA           0003:00000004  ! 00000000
                CONST2                DATA           0003:00000068  ! 00000000
                _DATA                 DATA           0003:0000040c  ! 00000000
/mnt/sda5/.user/root/src/openwatcom-1.9/bld/clib/file/c/64findne.c
                _TEXT                 CODE           0002:000063a0  ! 0000006c
                CONST                 DATA           0003:00000004  ! 00000000
                CONST2                DATA           0003:00000068  ! 00000000
                _DATA                 DATA           0003:0000040c  ! 00000000
/mnt/sda5/.user/root/src/openwatcom-1.9/bld/clib/file/c/64staos2.c
                _TEXT                 CODE           0002:00006410  ! 000004f2
                CONST                 DATA           0003:00000004  ! 00000000
                CONST2                DATA           0003:00000068  ! 00000000
                _DATA                 DATA           0003:0000040c  ! 00000000
/mnt/sda5/.user/root/src/openwatcom-1.9/bld/clib/file/c/accssos2.c
                _TEXT                 CODE           0002:00006910  ! 00000080
                CONST                 DATA           0003:00000004  ! 00000000
                CONST2                DATA           0003:00000068  ! 00000000
                _DATA                 DATA           0003:0000040c  ! 00000000
/mnt/sda5/.user/root/src/openwatcom-1.9/bld/clib/file/c/chmodos2.c
                _TEXT                 CODE           0002:00006990  ! 00000098
                CONST                 DATA           0003:00000004  ! 00000000
                CONST2                DATA           0003:00000068  ! 00000000
                _DATA                 DATA           0003:0000040c  ! 00000000
/mnt/sda5/.user/root/src/openwatcom-1.9/bld/clib/file/c/findclos.c
                _TEXT                 CODE           0002:00006a30  ! 0000003d
                CONST                 DATA           0003:00000004  ! 00000000
                CONST2                DATA           0003:00000068  ! 00000000
                _DATA                 DATA           0003:0000040c  ! 00000000
/mnt/sda5/.user/root/src/openwatcom-1.9/bld/clib/file/c/findfirs.c
                _TEXT                 CODE           0002:00006a70  ! 0000012f
                CONST                 DATA           0003:00000004  ! 00000000
                CONST2                DATA           0003:00000068  ! 00000000
                _DATA                 DATA           0003:0000040c  ! 00000000
/mnt/sda5/.user/root/src/openwatcom-1.9/bld/clib/file/c/findnext.c
                _TEXT                 CODE           0002:00006ba0  ! 0000006c
                CONST                 DATA           0003:00000004  ! 00000000
                CONST2                DATA           0003:00000068  ! 00000000
                _DATA                 DATA           0003:0000040c  ! 00000000
/mnt/sda5/.user/root/src/openwatcom-1.9/bld/clib/file/c/mkstemp.c
                _TEXT                 CODE           0002:00006c10  ! 0000015a
                CONST                 DATA           0003:00000004  ! 00000000
                CONST2                DATA           0003:00000068  ! 00000000
                _DATA                 DATA           0003:0000040c  ! 00000000
/mnt/sda5/.user/root/src/openwatcom-1.9/bld/clib/file/c/mktemp.c
                _TEXT                 CODE           0002:00006d70  ! 00000131
                CONST                 DATA           0003:00000004  ! 00000000
                CONST2                DATA           0003:00000068  ! 00000000
                _DATA                 DATA           0003:0000040c  ! 00000000
/mnt/sda5/.user/root/src/openwatcom-1.9/bld/clib/file/c/remove.c
                _TEXT                 CODE           0002:00006eb0  ! 00000028
                CONST                 DATA           0003:00000004  ! 00000000
                CONST2                DATA           0003:00000068  ! 00000000
                _DATA                 DATA           0003:0000040c  ! 00000000
/mnt/sda5/.user/root/src/openwatcom-1.9/bld/clib/file/c/renamos2.c
                _TEXT                 CODE           0002:00006ee0  ! 0000004b
                CONST                 DATA           0003:00000004  ! 00000000
                CONST2                DATA           0003:00000068  ! 00000000
                _DATA                 DATA           0003:0000040c  ! 00000000
/mnt/sda5/.user/root/src/openwatcom-1.9/bld/clib/file/c/statos2.c
                _TEXT                 CODE           0002:00006f2b  ! 0000044c
                CONST                 DATA           0003:00000004  ! 00000000
                CONST2                DATA           0003:00000068  ! 00000000
                _DATA                 DATA           0003:0000040c  ! 00000000
/mnt/sda5/.user/root/src/openwatcom-1.9/bld/clib/file/c/tempnam.c
                _TEXT                 CODE           0002:00007380  ! 00000225
                CONST                 DATA           0003:00000004  ! 00000000
                CONST2                DATA           0003:00000068  ! 00000000
                _DATA                 DATA           0003:0000040c  ! 00000000
/mnt/sda5/.user/root/src/openwatcom-1.9/bld/clib/file/c/tmpnm.c
                _TEXT                 CODE           0002:000075b0  ! 000001de
                CONST                 DATA           0003:00000004  ! 00000000
                CONST2                DATA           0003:00000068  ! 00000000
                _DATA                 DATA           0003:0000040c  ! 00000000
                _BSS                  BSS            0003:00001040  ! 0000000d
/mnt/sda5/.user/root/src/openwatcom-1.9/bld/clib/file/c/tmpnm_s.c
                _TEXT                 CODE           0002:00007790  ! 00000170
                CONST                 DATA           0003:00000004  ! 00000000
                CONST2                DATA           0003:00000068  ! 00000000
                _DATA                 DATA           0003:0000040c  ! 00000000
/mnt/sda5/.user/root/src/openwatcom-1.9/bld/clib/file/c/u64findf.c
                _TEXT                 CODE           0002:00007900  ! 000001d2
                CONST                 DATA           0003:00000004  ! 00000000
                CONST2                DATA           0003:00000068  ! 00000000
                _DATA                 DATA           0003:0000040c  ! 00000000
/mnt/sda5/.user/root/src/openwatcom-1.9/bld/clib/file/c/u64findn.c
                _TEXT                 CODE           0002:00007ae0  ! 0000006c
                CONST                 DATA           0003:00000004  ! 00000000
                CONST2                DATA           0003:00000068  ! 00000000
                _DATA                 DATA           0003:0000040c  ! 00000000
/mnt/sda5/.user/root/src/openwatcom-1.9/bld/clib/file/c/u64stos2.c
                _TEXT                 CODE           0002:00007b50  ! 00000522
                CONST                 DATA           0003:00000004  ! 00000000
                CONST2                DATA           0003:00000068  ! 00000000
                _DATA                 DATA           0003:0000040c  ! 00000000
/mnt/sda5/.user/root/src/openwatcom-1.9/bld/clib/file/c/uaccsos2.c
                _TEXT                 CODE           0002:00008080  ! 000000a2
                CONST                 DATA           0003:00000004  ! 00000000
                CONST2                DATA           0003:00000068  ! 00000000
                _DATA                 DATA           0003:0000040c  ! 00000000
/mnt/sda5/.user/root/src/openwatcom-1.9/bld/clib/file/c/uchmdos2.c
                _TEXT                 CODE           0002:00008130  ! 000000bd
                CONST                 DATA           0003:00000004  ! 00000000
                CONST2                DATA           0003:00000068  ! 00000000
                _DATA                 DATA           0003:0000040c  ! 00000000
/mnt/sda5/.user/root/src/openwatcom-1.9/bld/clib/file/c/ufindfir.c
                _TEXT                 CODE           0002:000081f0  ! 0000015d
                CONST                 DATA           0003:00000004  ! 00000000
                CONST2                DATA           0003:00000068  ! 00000000
                _DATA                 DATA           0003:0000040c  ! 00000000
/mnt/sda5/.user/root/src/openwatcom-1.9/bld/clib/file/c/ufindnex.c
                _TEXT                 CODE           0002:00008350  ! 0000006c
                CONST                 DATA           0003:00000004  ! 00000000
                CONST2                DATA           0003:00000068  ! 00000000
                _DATA                 DATA           0003:0000040c  ! 00000000
/mnt/sda5/.user/root/src/openwatcom-1.9/bld/clib/file/c/uremove.c
                _TEXT                 CODE           0002:000083bc  ! 00000021
                CONST                 DATA           0003:00000004  ! 00000000
                CONST2                DATA           0003:00000068  ! 00000000
                _DATA                 DATA           0003:0000040c  ! 00000000
/mnt/sda5/.user/root/src/openwatcom-1.9/bld/clib/file/c/urenmos2.c
                _TEXT                 CODE           0002:000083e0  ! 0000008f
                CONST                 DATA           0003:00000004  ! 00000000
                CONST2                DATA           0003:00000068  ! 00000000
                _DATA                 DATA           0003:0000040c  ! 00000000
/mnt/sda5/.user/root/src/openwatcom-1.9/bld/clib/file/c/ustatos2.c
                _TEXT                 CODE           0002:00008470  ! 000004a4
                CONST                 DATA           0003:00000004  ! 00000000
                CONST2                DATA           0003:00000068  ! 00000000
                _DATA                 DATA           0003:0000040c  ! 00000000
/mnt/sda5/.user/root/src/openwatcom-1.9/bld/clib/file/c/utimeos2.c
                _TEXT                 CODE           0002:00008920  ! 0000027f
                CONST                 DATA           0003:00000004  ! 00000000
                CONST2                DATA           0003:00000068  ! 00000000
                _DATA                 DATA           0003:0000040c  ! 00000000
/mnt/sda5/.user/root/src/openwatcom-1.9/bld/clib/file/c/utempnam.c
                _TEXT                 CODE           0002:00008ba0  ! 00000215
                CONST                 DATA           0003:00000004  ! 00000000
                CONST2                DATA           0003:00000068  ! 00000000
                _DATA                 DATA           0003:0000040c  ! 00000000
/mnt/sda5/.user/root/src/openwatcom-1.9/bld/clib/file/c/utmpnm.c
                _TEXT                 CODE           0002:00008db5  ! 000001e7
                CONST                 DATA           0003:00000004  ! 00000000
                CONST2                DATA           0003:00000068  ! 00000000
                _DATA                 DATA           0003:0000040c  ! 00000000
                _BSS                  BSS            0003:00001050  ! 0000001a
/mnt/sda5/.user/root/src/openwatcom-1.9/bld/clib/file/c/utmpnm_s.c
                _TEXT                 CODE           0002:00008fa0  ! 00000172
                CONST                 DATA           0003:00000004  ! 00000000
                CONST2                DATA           0003:00000068  ! 00000000
                _DATA                 DATA           0003:0000040c  ! 00000000
/mnt/sda5/.user/root/src/openwatcom-1.9/bld/clib/file/c/uutimos2.c
                _TEXT                 CODE           0002:00009120  ! 000002a1
                CONST                 DATA           0003:00000004  ! 00000000
                CONST2                DATA           0003:00000068  ! 00000000
                _DATA                 DATA           0003:0000040c  ! 00000000
/mnt/sda5/.user/root/src/openwatcom-1.9/bld/clib/fpu/a/chipd32.asm
                _TEXT                 CODE           0002:000093c4  ! 00000720
                _DATA                 DATA           0003:0000040c  ! 00000000
                DATA32                DATA           0003:00000d18  ! 0000011c
                CONST32               CONST          0003:00001028  ! 00000000
                BSS32                 BSS            0003:0000209c  ! 00000000
/mnt/sda5/.user/root/src/openwatcom-1.9/bld/clib/fpu/a/chipa32.asm
                _TEXT                 CODE           0002:00009af0  ! 00000201
                _DATA                 DATA           0003:0000040c  ! 00000000
                CONST                 DATA           0003:00000004  ! 00000000
                CONST2                DATA           0003:00000068  ! 00000000
                DATA32                DATA           0003:00000e34  ! 00000198
                BSS32                 BSS            0003:0000209c  ! 00000000
/mnt/sda5/.user/root/src/openwatcom-1.9/bld/clib/fpu/a/chipw32.asm
                _TEXT                 CODE           0002:00009cf4  ! 00000035
                _DATA                 DATA           0003:0000040c  ! 00000000
                DATA32                DATA           0003:00000fcc  ! 00000000
/mnt/sda5/.user/root/src/openwatcom-1.9/bld/clib/fpu/a/chipt32.asm
                _TEXT                 CODE           0002:00009d2c  ! 000000b2
                _DATA                 DATA           0003:0000040c  ! 00000000
                DATA32                DATA           0003:00000fcc  ! 00000018
/mnt/sda5/.user/root/src/openwatcom-1.9/bld/clib/fpu/a/chipr32.asm
                _TEXT                 CODE           0002:00009de0  ! 00000000
                _DATA                 DATA           0003:0000040c  ! 00000000
                DATA32                DATA           0003:00000fe4  ! 00000042
                CONST32               CONST          0003:00001028  ! 00000000
                BSS32                 BSS            0003:0000209c  ! 00000000
                CODE32                CODE           0002:00046c20  ! 00000575
/mnt/sda5/.user/root/src/openwatcom-1.9/bld/clib/fpu/c/cntrl87.c
                _TEXT                 CODE           0002:00009de0  ! 0000005f
                CONST                 DATA           0003:00000004  ! 00000000
                CONST2                DATA           0003:00000068  ! 00000000
                _DATA                 DATA           0003:0000040c  ! 00000000
/mnt/sda5/.user/root/src/openwatcom-1.9/bld/clib/fpu/c/cntrlfp.c
                _TEXT                 CODE           0002:00009e40  ! 0000002c
                CONST                 DATA           0003:00000004  ! 00000000
                CONST2                DATA           0003:00000068  ! 00000000
                _DATA                 DATA           0003:0000040c  ! 00000000
/mnt/sda5/.user/root/src/openwatcom-1.9/bld/clib/fpu/c/fenv.c
                _TEXT                 CODE           0002:00009e70  ! 00000360
                CONST                 DATA           0003:00000004  ! 00000000
                CONST2                DATA           0003:00000068  ! 00000000
                _DATA                 DATA           0003:0000040c  ! 00000000
/mnt/sda5/.user/root/src/openwatcom-1.9/bld/clib/handleio/c/64lseek.c
                _TEXT                 CODE           0002:0000a1d0  ! 000000a3
                CONST                 DATA           0003:00000004  ! 00000000
                CONST2                DATA           0003:00000068  ! 00000000
                _DATA                 DATA           0003:0000040c  ! 00000000
/mnt/sda5/.user/root/src/openwatcom-1.9/bld/clib/handleio/c/64_lseek.c
                _TEXT                 CODE           0002:0000a280  ! 0000011d
                CONST                 DATA           0003:00000004  ! 00000000
                CONST2                DATA           0003:00000068  ! 00000000
                _DATA                 DATA           0003:0000040c  ! 00000000
/mnt/sda5/.user/root/src/openwatcom-1.9/bld/clib/handleio/c/64fillen.c
                _TEXT                 CODE           0002:0000a3a0  ! 000000e1
                CONST                 DATA           0003:00000004  ! 00000000
                CONST2                DATA           0003:00000068  ! 00000000
                _DATA                 DATA           0003:0000040c  ! 00000000
/mnt/sda5/.user/root/src/openwatcom-1.9/bld/clib/handleio/c/64fstos2.c
                _TEXT                 CODE           0002:0000a490  ! 00000309
                CONST                 DATA           0003:00000004  ! 00000000
                CONST2                DATA           0003:00000068  ! 00000000
                _DATA                 DATA           0003:0000040c  ! 00000000
/mnt/sda5/.user/root/src/openwatcom-1.9/bld/clib/handleio/c/64tell.c
                _TEXT                 CODE           0002:0000a7a0  ! 0000003d
                CONST                 DATA           0003:00000004  ! 00000000
                CONST2                DATA           0003:00000068  ! 00000000
                _DATA                 DATA           0003:0000040c  ! 00000000
/mnt/sda5/.user/root/src/openwatcom-1.9/bld/clib/handleio/c/chsizos2.c
                _TEXT                 CODE           0002:0000a7e0  ! 00000193
                CONST                 DATA           0003:00000004  ! 00000000
                CONST2                DATA           0003:00000068  ! 00000000
                _DATA                 DATA           0003:0000040c  ! 00000000
/mnt/sda5/.user/root/src/openwatcom-1.9/bld/clib/handleio/c/close.c
                _TEXT                 CODE           0002:0000a980  ! 00000052
                CONST                 DATA           0003:00000004  ! 00000000
                CONST2                DATA           0003:00000068  ! 00000000
                _DATA                 DATA           0003:0000040c  ! 00000000
/mnt/sda5/.user/root/src/openwatcom-1.9/bld/clib/handleio/c/creat.c
                _TEXT                 CODE           0002:0000a9e0  ! 00000033
                CONST                 DATA           0003:00000004  ! 00000000
                CONST2                DATA           0003:00000068  ! 00000000
                _DATA                 DATA           0003:0000040c  ! 00000000
/mnt/sda5/.user/root/src/openwatcom-1.9/bld/clib/handleio/c/dup2os2.c
                _TEXT                 CODE           0002:0000aa20  ! 00000093
                CONST                 DATA           0003:00000004  ! 00000000
                CONST2                DATA           0003:00000068  ! 00000000
                _DATA                 DATA           0003:0000040c  ! 00000000
/mnt/sda5/.user/root/src/openwatcom-1.9/bld/clib/handleio/c/dupos2.c
                _TEXT                 CODE           0002:0000aac0  ! 00000088
                CONST                 DATA           0003:00000004  ! 00000000
                CONST2                DATA           0003:00000068  ! 00000000
                _DATA                 DATA           0003:0000040c  ! 00000000
/mnt/sda5/.user/root/src/openwatcom-1.9/bld/clib/handleio/c/eof.c
                _TEXT                 CODE           0002:0000ab50  ! 0000008d
                CONST                 DATA           0003:00000004  ! 00000000
                CONST2                DATA           0003:00000068  ! 00000000
                _DATA                 DATA           0003:0000040c  ! 00000000
/mnt/sda5/.user/root/src/openwatcom-1.9/bld/clib/handleio/c/filelen.c
                _TEXT                 CODE           0002:0000abe0  ! 000000a2
                CONST                 DATA           0003:00000004  ! 00000000
                CONST2                DATA           0003:00000068  ! 00000000
                _DATA                 DATA           0003:0000040c  ! 00000000
/mnt/sda5/.user/root/src/openwatcom-1.9/bld/clib/handleio/c/fileno.c
                _TEXT                 CODE           0002:0000ac90  ! 00000026
                CONST                 DATA           0003:00000004  ! 00000000
                CONST2                DATA           0003:00000068  ! 00000000
                _DATA                 DATA           0003:0000040c  ! 00000000
/mnt/sda5/.user/root/src/openwatcom-1.9/bld/clib/handleio/c/fstatos2.c
                _TEXT                 CODE           0002:0000acc0  ! 000002a4
                CONST                 DATA           0003:00000004  ! 00000000
                CONST2                DATA           0003:00000068  ! 00000000
                _DATA                 DATA           0003:0000040c  ! 00000000
/mnt/sda5/.user/root/src/openwatcom-1.9/bld/clib/handleio/c/fsync.c
                _TEXT                 CODE           0002:0000af70  ! 0000006f
                CONST                 DATA           0003:00000004  ! 00000000
                CONST2                DATA           0003:00000068  ! 00000000
                _DATA                 DATA           0003:0000040c  ! 00000000
/mnt/sda5/.user/root/src/openwatcom-1.9/bld/clib/handleio/c/hdlman.c
                _TEXT                 CODE           0002:0000afe0  ! 000000a0
                CONST                 DATA           0003:00000004  ! 00000000
                CONST2                DATA           0003:00000068  ! 00000000
                _DATA                 DATA           0003:0000040c  ! 00000004
/mnt/sda5/.user/root/src/openwatcom-1.9/bld/clib/handleio/c/hdopen.c
                _TEXT                 CODE           0002:0000b080  ! 0000018c
                CONST                 DATA           0003:00000004  ! 00000000
                CONST2                DATA           0003:00000068  ! 00000000
                _DATA                 DATA           0003:00000410  ! 00000000
/mnt/sda5/.user/root/src/openwatcom-1.9/bld/clib/handleio/c/lock.c
                _TEXT                 CODE           0002:0000b210  ! 00000082
                CONST                 DATA           0003:00000004  ! 00000000
                CONST2                DATA           0003:00000068  ! 00000000
                _DATA                 DATA           0003:00000410  ! 00000000
/mnt/sda5/.user/root/src/openwatcom-1.9/bld/clib/handleio/c/locking.c
                _TEXT                 CODE           0002:0000b2a0  ! 000000dd
                CONST                 DATA           0003:00000004  ! 00000000
                CONST2                DATA           0003:00000068  ! 00000000
                _DATA                 DATA           0003:00000410  ! 00000000
/mnt/sda5/.user/root/src/openwatcom-1.9/bld/clib/handleio/c/__lseek.c
                _TEXT                 CODE           0002:0000b380  ! 00000077
                CONST                 DATA           0003:00000004  ! 00000000
                CONST2                DATA           0003:00000068  ! 00000000
                _DATA                 DATA           0003:00000410  ! 00000000
/mnt/sda5/.user/root/src/openwatcom-1.9/bld/clib/handleio/c/lseek.c
                _TEXT                 CODE           0002:0000b400  ! 0000007e
                CONST                 DATA           0003:00000004  ! 00000000
                CONST2                DATA           0003:00000068  ! 00000000
                _DATA                 DATA           0003:00000410  ! 00000000
/mnt/sda5/.user/root/src/openwatcom-1.9/bld/clib/handleio/c/openos2.c
                _TEXT                 CODE           0002:0000b480  ! 000002a4
                CONST                 DATA           0003:00000004  ! 00000000
                CONST2                DATA           0003:00000068  ! 00000000
                _DATA                 DATA           0003:00000410  ! 00000000
/mnt/sda5/.user/root/src/openwatcom-1.9/bld/clib/handleio/c/oshdl.c
                _TEXT                 CODE           0002:0000b730  ! 00000078
                CONST                 DATA           0003:00000004  ! 00000000
                CONST2                DATA           0003:00000068  ! 00000000
                _DATA                 DATA           0003:00000410  ! 00000000
/mnt/sda5/.user/root/src/openwatcom-1.9/bld/clib/handleio/c/pipe.c
                _TEXT                 CODE           0002:0000b7b0  ! 000000e3
                CONST                 DATA           0003:00000004  ! 00000000
                CONST2                DATA           0003:00000068  ! 00000000
                _DATA                 DATA           0003:00000410  ! 00000000
/mnt/sda5/.user/root/src/openwatcom-1.9/bld/clib/handleio/c/plusfsta.c
                _TEXT                 CODE           0002:0000b8a0  ! 0000007f
                CONST                 DATA           0003:00000004  ! 00000000
                CONST2                DATA           0003:00000068  ! 00000000
                _DATA                 DATA           0003:00000410  ! 00000000
/mnt/sda5/.user/root/src/openwatcom-1.9/bld/clib/handleio/c/plusopen.c
                _TEXT                 CODE           0002:0000b920  ! 00000168
                CONST                 DATA           0003:00000004  ! 00000000
                CONST2                DATA           0003:00000068  ! 00000000
                _DATA                 DATA           0003:00000410  ! 00000000
/mnt/sda5/.user/root/src/openwatcom-1.9/bld/clib/handleio/c/read.c
                _TEXT                 CODE           0002:0000ba90  ! 000001e8
                CONST                 DATA           0003:00000004  ! 00000000
                CONST2                DATA           0003:00000068  ! 00000000
                _DATA                 DATA           0003:00000410  ! 00000000
/mnt/sda5/.user/root/src/openwatcom-1.9/bld/clib/handleio/c/setmd.c
                _TEXT                 CODE           0002:0000bc80  ! 00000142
                CONST                 DATA           0003:00000004  ! 00000000
                CONST2                DATA           0003:00000068  ! 00000000
                _DATA                 DATA           0003:00000410  ! 00000000
/mnt/sda5/.user/root/src/openwatcom-1.9/bld/clib/handleio/c/tell.c
                _TEXT                 CODE           0002:0000bdd0  ! 0000002f
                CONST                 DATA           0003:00000004  ! 00000000
                CONST2                DATA           0003:00000068  ! 00000000
                _DATA                 DATA           0003:00000410  ! 00000000
/mnt/sda5/.user/root/src/openwatcom-1.9/bld/clib/handleio/c/ucreat.c
                _TEXT                 CODE           0002:0000be00  ! 00000033
                CONST                 DATA           0003:00000004  ! 00000000
                CONST2                DATA           0003:00000068  ! 00000000
                _DATA                 DATA           0003:00000410  ! 00000000
/mnt/sda5/.user/root/src/openwatcom-1.9/bld/clib/handleio/c/umask.c
                _TEXT                 CODE           0002:0000be40  ! 00000038
                CONST                 DATA           0003:00000004  ! 00000000
                CONST2                DATA           0003:00000068  ! 00000000
                _DATA                 DATA           0003:00000410  ! 00000000
/mnt/sda5/.user/root/src/openwatcom-1.9/bld/clib/handleio/c/unlck.c
                _TEXT                 CODE           0002:0000be80  ! 00000082
                CONST                 DATA           0003:00000004  ! 00000000
                CONST2                DATA           0003:00000068  ! 00000000
                _DATA                 DATA           0003:00000410  ! 00000000
/mnt/sda5/.user/root/src/openwatcom-1.9/bld/clib/handleio/c/unlnkos2.c
                _TEXT                 CODE           0002:0000bf10  ! 00000046
                CONST                 DATA           0003:00000004  ! 00000000
                CONST2                DATA           0003:00000068  ! 00000000
                _DATA                 DATA           0003:00000410  ! 00000000
/mnt/sda5/.user/root/src/openwatcom-1.9/bld/clib/handleio/c/uopenos2.c
                _TEXT                 CODE           0002:0000bf60  ! 000002d4
                CONST                 DATA           0003:00000004  ! 00000000
                CONST2                DATA           0003:00000068  ! 00000000
                _DATA                 DATA           0003:00000410  ! 00000000
/mnt/sda5/.user/root/src/openwatcom-1.9/bld/clib/handleio/c/uunlnos2.c
                _TEXT                 CODE           0002:0000c240  ! 00000068
                CONST                 DATA           0003:00000004  ! 00000000
                CONST2                DATA           0003:00000068  ! 00000000
                _DATA                 DATA           0003:00000410  ! 00000000
/mnt/sda5/.user/root/src/openwatcom-1.9/bld/clib/handleio/c/write.c
                _TEXT                 CODE           0002:0000c2b0  ! 00000413
                CONST                 DATA           0003:00000004  ! 00000000
                CONST2                DATA           0003:00000068  ! 00000000
                _DATA                 DATA           0003:00000410  ! 00000000
/mnt/sda5/.user/root/src/openwatcom-1.9/bld/clib/heap/c/ambsptr.c
                _TEXT                 CODE           0002:0000c6d0  ! 00000021
                CONST                 DATA           0003:00000004  ! 00000000
                CONST2                DATA           0003:00000068  ! 00000000
                _DATA                 DATA           0003:00000410  ! 00000000
/mnt/sda5/.user/root/src/openwatcom-1.9/bld/clib/heap/c/amblksiz.c
                _TEXT                 CODE           0002:0000c700  ! 00000000
                CONST                 DATA           0003:00000004  ! 00000000
                CONST2                DATA           0003:00000068  ! 00000000
                _DATA                 DATA           0003:00000410  ! 00000004
/mnt/sda5/.user/root/src/openwatcom-1.9/bld/clib/heap/c/calloc.c
                _TEXT                 CODE           0002:0000c700  ! 00000058
                CONST                 DATA           0003:00000004  ! 00000000
                CONST2                DATA           0003:00000068  ! 00000000
                _DATA                 DATA           0003:00000414  ! 00000000
/mnt/sda5/.user/root/src/openwatcom-1.9/bld/clib/heap/c/freect.c
                _TEXT                 CODE           0002:0000c760  ! 000000aa
                CONST                 DATA           0003:00000004  ! 00000000
                CONST2                DATA           0003:00000068  ! 00000000
                _DATA                 DATA           0003:00000414  ! 00000000
/mnt/sda5/.user/root/src/openwatcom-1.9/bld/clib/heap/c/heapen.c
                _TEXT                 CODE           0002:0000c810  ! 0000003f
                CONST                 DATA           0003:00000004  ! 00000000
                CONST2                DATA           0003:00000068  ! 00000000
                _DATA                 DATA           0003:00000414  ! 00000004
/mnt/sda5/.user/root/src/openwatcom-1.9/bld/clib/heap/c/heapgrow.c
                _TEXT                 CODE           0002:0000c850  ! 00000056
                CONST                 DATA           0003:00000004  ! 00000000
                CONST2                DATA           0003:00000068  ! 00000000
                _DATA                 DATA           0003:00000418  ! 00000000
/mnt/sda5/.user/root/src/openwatcom-1.9/bld/clib/heap/c/memavl.c
                _TEXT                 CODE           0002:0000c8b0  ! 00000078
                CONST                 DATA           0003:00000004  ! 00000000
                CONST2                DATA           0003:00000068  ! 00000000
                _DATA                 DATA           0003:00000418  ! 00000000
/mnt/sda5/.user/root/src/openwatcom-1.9/bld/clib/heap/c/memmax.c
                _TEXT                 CODE           0002:0000c930  ! 00000086
                CONST                 DATA           0003:00000004  ! 00000000
                CONST2                DATA           0003:00000068  ! 00000000
                _DATA                 DATA           0003:00000418  ! 00000000
/mnt/sda5/.user/root/src/openwatcom-1.9/bld/clib/heap/c/ncalloc.c
                _TEXT                 CODE           0002:0000c9c0  ! 00000052
                CONST                 DATA           0003:00000004  ! 00000000
                CONST2                DATA           0003:00000068  ! 00000000
                _DATA                 DATA           0003:00000418  ! 00000000
/mnt/sda5/.user/root/src/openwatcom-1.9/bld/clib/heap/c/nexpand.c
                _TEXT                 CODE           0002:0000ca20  ! 00000339
                CONST                 DATA           0003:00000004  ! 00000000
                CONST2                DATA           0003:00000068  ! 00000000
                _DATA                 DATA           0003:00000418  ! 00000000
/mnt/sda5/.user/root/src/openwatcom-1.9/bld/clib/heap/c/nfree.c
                _TEXT                 CODE           0002:0000cd60  ! 00000206
                CONST                 DATA           0003:00000004  ! 00000000
                CONST2                DATA           0003:00000068  ! 00000000
                _DATA                 DATA           0003:00000418  ! 00000000
                _BSS                  BSS            0003:0000106c  ! 00000004
/mnt/sda5/.user/root/src/openwatcom-1.9/bld/clib/heap/c/nheapchk.c
                _TEXT                 CODE           0002:0000cf70  ! 00000350
                CONST                 DATA           0003:00000004  ! 00000000
                CONST2                DATA           0003:00000068  ! 00000000
                _DATA                 DATA           0003:00000418  ! 00000000
                _BSS                  BSS            0003:00001070  ! 00000004
/mnt/sda5/.user/root/src/openwatcom-1.9/bld/clib/heap/c/nheapmin.c
                _TEXT                 CODE           0002:0000d2c0  ! 000001f6
                CONST                 DATA           0003:00000004  ! 00000000
                CONST2                DATA           0003:00000068  ! 00000000
                _DATA                 DATA           0003:00000418  ! 00000000
/mnt/sda5/.user/root/src/openwatcom-1.9/bld/clib/heap/c/nheapset.c
                _TEXT                 CODE           0002:0000d4c0  ! 000000e4
                CONST                 DATA           0003:00000004  ! 00000000
                CONST2                DATA           0003:00000068  ! 00000000
                _DATA                 DATA           0003:00000418  ! 00000000
/mnt/sda5/.user/root/src/openwatcom-1.9/bld/clib/heap/c/nheapwal.c
                _TEXT                 CODE           0002:0000d5b0  ! 000001c0
                CONST                 DATA           0003:00000004  ! 00000000
                CONST2                DATA           0003:00000068  ! 00000000
                _DATA                 DATA           0003:00000418  ! 00000000
/mnt/sda5/.user/root/src/openwatcom-1.9/bld/clib/heap/c/nmalloc.c
                _TEXT                 CODE           0002:0000d770  ! 00000172
                CONST                 DATA           0003:00000004  ! 00000000
                CONST2                DATA           0003:00000068  ! 00000000
                _DATA                 DATA           0003:00000418  ! 0000000c
/mnt/sda5/.user/root/src/openwatcom-1.9/bld/clib/heap/c/nmemneed.c
                _TEXT                 CODE           0002:0000d8f0  ! 00000024
                CONST                 DATA           0003:00000004  ! 00000000
                CONST2                DATA           0003:00000068  ! 00000000
                _DATA                 DATA           0003:00000424  ! 00000000
/mnt/sda5/.user/root/src/openwatcom-1.9/bld/clib/heap/c/nmsize.c
                _TEXT                 CODE           0002:0000d920  ! 00000073
                CONST                 DATA           0003:00000004  ! 00000000
                CONST2                DATA           0003:00000068  ! 00000000
                _DATA                 DATA           0003:00000424  ! 00000000
/mnt/sda5/.user/root/src/openwatcom-1.9/bld/clib/heap/c/nrealloc.c
                _TEXT                 CODE           0002:0000d9a0  ! 000000df
                CONST                 DATA           0003:00000004  ! 00000000
                CONST2                DATA           0003:00000068  ! 00000000
                _DATA                 DATA           0003:00000424  ! 00000000
/mnt/sda5/.user/root/src/openwatcom-1.9/bld/clib/heap/c/sbrk386.c
                _TEXT                 CODE           0002:0000da80  ! 0000006f
                CONST                 DATA           0003:00000004  ! 00000000
                CONST2                DATA           0003:00000068  ! 00000000
                _DATA                 DATA           0003:00000424  ! 00000000
/mnt/sda5/.user/root/src/openwatcom-1.9/bld/clib/intel/c/chipbug.c
                _TEXT                 CODE           0002:0000daf0  ! 0000005a
                CONST                 DATA           0003:00000004  ! 00000008
                CONST2                DATA           0003:00000068  ! 00000000
                _DATA                 DATA           0003:00000424  ! 00000000
                XIB                   DATA           0003:00000c88  ! 00000000
                XI                    DATA           0003:00000c8e  ! 00000006
                XIE                   DATA           0003:00000cee  ! 00000000
/mnt/sda5/.user/root/src/openwatcom-1.9/bld/clib/intel/c/disable.c
                _TEXT                 CODE           0002:0000db50  ! 00000018
                CONST                 DATA           0003:0000000c  ! 00000000
                CONST2                DATA           0003:00000068  ! 00000000
                _DATA                 DATA           0003:00000424  ! 00000000
/mnt/sda5/.user/root/src/openwatcom-1.9/bld/clib/intel/c/enable.c
                _TEXT                 CODE           0002:0000db70  ! 00000018
                CONST                 DATA           0003:0000000c  ! 00000000
                CONST2                DATA           0003:00000068  ! 00000000
                _DATA                 DATA           0003:00000424  ! 00000000
/mnt/sda5/.user/root/src/openwatcom-1.9/bld/clib/intel/a/i64ts386.asm
                _TEXT                 CODE           0002:0000db88  ! 000001c6
                _DATA                 DATA           0003:00000424  ! 00000000
/mnt/sda5/.user/root/src/openwatcom-1.9/bld/clib/intel/c/inp.c
                _TEXT                 CODE           0002:0000dd50  ! 00000026
                CONST                 DATA           0003:0000000c  ! 00000000
                CONST2                DATA           0003:00000068  ! 00000000
                _DATA                 DATA           0003:00000424  ! 00000000
/mnt/sda5/.user/root/src/openwatcom-1.9/bld/clib/intel/c/inpw.c
                _TEXT                 CODE           0002:0000dd80  ! 00000027
                CONST                 DATA           0003:0000000c  ! 00000000
                CONST2                DATA           0003:00000068  ! 00000000
                _DATA                 DATA           0003:00000424  ! 00000000
/mnt/sda5/.user/root/src/openwatcom-1.9/bld/clib/intel/c/inpd.c
                _TEXT                 CODE           0002:0000ddb0  ! 00000024
                CONST                 DATA           0003:0000000c  ! 00000000
                CONST2                DATA           0003:00000068  ! 00000000
                _DATA                 DATA           0003:00000424  ! 00000000
/mnt/sda5/.user/root/src/openwatcom-1.9/bld/clib/intel/c/outp.c
                _TEXT                 CODE           0002:0000dde0  ! 0000002c
                CONST                 DATA           0003:0000000c  ! 00000000
                CONST2                DATA           0003:00000068  ! 00000000
                _DATA                 DATA           0003:00000424  ! 00000000
/mnt/sda5/.user/root/src/openwatcom-1.9/bld/clib/intel/c/outpw.c
                _TEXT                 CODE           0002:0000de10  ! 00000029
                CONST                 DATA           0003:0000000c  ! 00000000
                CONST2                DATA           0003:00000068  ! 00000000
                _DATA                 DATA           0003:00000424  ! 00000000
/mnt/sda5/.user/root/src/openwatcom-1.9/bld/clib/intel/c/outpd.c
                _TEXT                 CODE           0002:0000de40  ! 00000028
                CONST                 DATA           0003:0000000c  ! 00000000
                CONST2                DATA           0003:00000068  ! 00000000
                _DATA                 DATA           0003:00000424  ! 00000000
/mnt/sda5/.user/root/src/openwatcom-1.9/bld/clib/intel/c/profilog.c
                _TEXT                 CODE           0002:0000de70  ! 000006a4
                CONST                 DATA           0003:0000000c  ! 00000000
                CONST2                DATA           0003:00000068  ! 00000000
                _DATA                 DATA           0003:00000424  ! 00000000
                _BSS                  BSS            0003:00001080  ! 0000000d
/mnt/sda5/.user/root/src/openwatcom-1.9/bld/clib/intel/c/segread.c
                _TEXT                 CODE           0002:0000e520  ! 0000004f
                CONST                 DATA           0003:0000000c  ! 00000000
                CONST2                DATA           0003:00000068  ! 00000000
                _DATA                 DATA           0003:00000424  ! 00000000
/mnt/sda5/.user/root/src/openwatcom-1.9/bld/clib/kanji/c/btom.c
                _TEXT                 CODE           0002:0000e570  ! 0000005b
                CONST                 DATA           0003:0000000c  ! 00000000
                CONST2                DATA           0003:00000068  ! 00000000
                _DATA                 DATA           0003:00000424  ! 00000000
/mnt/sda5/.user/root/src/openwatcom-1.9/bld/clib/kanji/c/chkctype.c
                _TEXT                 CODE           0002:0000e5d0  ! 0000007d
                CONST                 DATA           0003:0000000c  ! 00000000
                CONST2                DATA           0003:00000068  ! 00000000
                _DATA                 DATA           0003:00000424  ! 00000000
/mnt/sda5/.user/root/src/openwatcom-1.9/bld/clib/kanji/c/fbtom.c
                _TEXT                 CODE           0002:0000e650  ! 0000007b
                CONST                 DATA           0003:0000000c  ! 00000000
                CONST2                DATA           0003:00000068  ! 00000000
                _DATA                 DATA           0003:00000424  ! 00000000
/mnt/sda5/.user/root/src/openwatcom-1.9/bld/clib/kanji/c/fjgetmoj.c
                _TEXT                 CODE           0002:0000e6d0  ! 000000c3
                CONST                 DATA           0003:0000000c  ! 00000000
                CONST2                DATA           0003:00000068  ! 00000000
                _DATA                 DATA           0003:00000424  ! 00000000
/mnt/sda5/.user/root/src/openwatcom-1.9/bld/clib/kanji/c/fjputmoj.c
                _TEXT                 CODE           0002:0000e7a0  ! 00000073
                CONST                 DATA           0003:0000000c  ! 00000000
                CONST2                DATA           0003:00000068  ! 00000000
                _DATA                 DATA           0003:00000424  ! 00000000
/mnt/sda5/.user/root/src/openwatcom-1.9/bld/clib/kanji/c/fjstradv.c
                _TEXT                 CODE           0002:0000e820  ! 00000046
                CONST                 DATA           0003:0000000c  ! 00000000
                CONST2                DATA           0003:00000068  ! 00000000
                _DATA                 DATA           0003:00000424  ! 00000000
/mnt/sda5/.user/root/src/openwatcom-1.9/bld/clib/kanji/c/fjstrcat.c
                _TEXT                 CODE           0002:0000e870  ! 00000127
                CONST                 DATA           0003:0000000c  ! 00000000
                CONST2                DATA           0003:00000068  ! 00000000
                _DATA                 DATA           0003:00000424  ! 00000000
/mnt/sda5/.user/root/src/openwatcom-1.9/bld/clib/kanji/c/fjstrchr.c
                _TEXT                 CODE           0002:0000e9a0  ! 00000081
                CONST                 DATA           0003:0000000c  ! 00000000
                CONST2                DATA           0003:00000068  ! 00000000
                _DATA                 DATA           0003:00000424  ! 00000000
/mnt/sda5/.user/root/src/openwatcom-1.9/bld/clib/kanji/c/fjstrcmp.c
                _TEXT                 CODE           0002:0000ea30  ! 000000af
                CONST                 DATA           0003:0000000c  ! 00000000
                CONST2                DATA           0003:00000068  ! 00000000
                _DATA                 DATA           0003:00000424  ! 00000000
/mnt/sda5/.user/root/src/openwatcom-1.9/bld/clib/kanji/c/fjstrcsp.c
                _TEXT                 CODE           0002:0000eae0  ! 000000ac
                CONST                 DATA           0003:0000000c  ! 00000000
                CONST2                DATA           0003:00000068  ! 00000000
                _DATA                 DATA           0003:00000424  ! 00000000
/mnt/sda5/.user/root/src/openwatcom-1.9/bld/clib/kanji/c/fjstricm.c
                _TEXT                 CODE           0002:0000eb90  ! 000000fb
                CONST                 DATA           0003:0000000c  ! 00000000
                CONST2                DATA           0003:00000068  ! 00000000
                _DATA                 DATA           0003:00000424  ! 00000000
/mnt/sda5/.user/root/src/openwatcom-1.9/bld/clib/kanji/c/fjstrlen.c
                _TEXT                 CODE           0002:0000ec90  ! 00000060
                CONST                 DATA           0003:0000000c  ! 00000000
                CONST2                DATA           0003:00000068  ! 00000000
                _DATA                 DATA           0003:00000424  ! 00000000
/mnt/sda5/.user/root/src/openwatcom-1.9/bld/clib/kanji/c/fjstrlwr.c
                _TEXT                 CODE           0002:0000ecf0  ! 000000a1
                CONST                 DATA           0003:0000000c  ! 00000000
                CONST2                DATA           0003:00000068  ! 00000000
                _DATA                 DATA           0003:00000424  ! 00000000
/mnt/sda5/.user/root/src/openwatcom-1.9/bld/clib/kanji/c/fjstrmat.c
                _TEXT                 CODE           0002:0000eda0  ! 000000c3
                CONST                 DATA           0003:0000000c  ! 00000000
                CONST2                DATA           0003:00000068  ! 00000000
                _DATA                 DATA           0003:00000424  ! 00000000
/mnt/sda5/.user/root/src/openwatcom-1.9/bld/clib/kanji/c/fjstrncm.c
                _TEXT                 CODE           0002:0000ee70  ! 000000bf
                CONST                 DATA           0003:0000000c  ! 00000000
                CONST2                DATA           0003:00000068  ! 00000000
                _DATA                 DATA           0003:00000424  ! 00000000
/mnt/sda5/.user/root/src/openwatcom-1.9/bld/clib/kanji/c/fjstrncp.c
                _TEXT                 CODE           0002:0000ef30  ! 00000157
                CONST                 DATA           0003:0000000c  ! 00000000
                CONST2                DATA           0003:00000068  ! 00000000
                _DATA                 DATA           0003:00000424  ! 00000000
/mnt/sda5/.user/root/src/openwatcom-1.9/bld/clib/kanji/c/fjstrnic.c
                _TEXT                 CODE           0002:0000f090  ! 00000185
                CONST                 DATA           0003:0000000c  ! 00000000
                CONST2                DATA           0003:00000068  ! 00000000
                _DATA                 DATA           0003:00000424  ! 00000000
/mnt/sda5/.user/root/src/openwatcom-1.9/bld/clib/kanji/c/fjstrnse.c
                _TEXT                 CODE           0002:0000f220  ! 000001fe
                CONST                 DATA           0003:0000000c  ! 00000000
                CONST2                DATA           0003:00000068  ! 00000000
                _DATA                 DATA           0003:00000424  ! 00000000
/mnt/sda5/.user/root/src/openwatcom-1.9/bld/clib/kanji/c/fjstrrch.c
                _TEXT                 CODE           0002:0000f420  ! 00000090
                CONST                 DATA           0003:0000000c  ! 00000000
                CONST2                DATA           0003:00000068  ! 00000000
                _DATA                 DATA           0003:00000424  ! 00000000
/mnt/sda5/.user/root/src/openwatcom-1.9/bld/clib/kanji/c/fjstrrev.c
                _TEXT                 CODE           0002:0000f4b0  ! 0000015e
                CONST                 DATA           0003:0000000c  ! 00000000
                CONST2                DATA           0003:00000068  ! 00000000
                _DATA                 DATA           0003:00000424  ! 00000000
/mnt/sda5/.user/root/src/openwatcom-1.9/bld/clib/kanji/c/fjstrset.c
                _TEXT                 CODE           0002:0000f610  ! 000000c4
                CONST                 DATA           0003:0000000c  ! 00000000
                CONST2                DATA           0003:00000068  ! 00000000
                _DATA                 DATA           0003:00000424  ! 00000000
/mnt/sda5/.user/root/src/openwatcom-1.9/bld/clib/kanji/c/fjstrski.c
                _TEXT                 CODE           0002:0000f6e0  ! 000000c5
                CONST                 DATA           0003:0000000c  ! 00000000
                CONST2                DATA           0003:00000068  ! 00000000
                _DATA                 DATA           0003:00000424  ! 00000000
/mnt/sda5/.user/root/src/openwatcom-1.9/bld/clib/kanji/c/fjstrspn.c
                _TEXT                 CODE           0002:0000f7b0  ! 000000af
                CONST                 DATA           0003:0000000c  ! 00000000
                CONST2                DATA           0003:00000068  ! 00000000
                _DATA                 DATA           0003:00000424  ! 00000000
/mnt/sda5/.user/root/src/openwatcom-1.9/bld/clib/kanji/c/fjstrstr.c
                _TEXT                 CODE           0002:0000f860  ! 000001a1
                CONST                 DATA           0003:0000000c  ! 00000000
                CONST2                DATA           0003:00000068  ! 00000000
                _DATA                 DATA           0003:00000424  ! 00000000
/mnt/sda5/.user/root/src/openwatcom-1.9/bld/clib/kanji/c/fjstrtok.c
                _TEXT                 CODE           0002:0000fa10  ! 000001c7
                CONST                 DATA           0003:0000000c  ! 00000000
                CONST2                DATA           0003:00000068  ! 00000000
                _DATA                 DATA           0003:00000424  ! 00000000
                _BSS                  BSS            0003:00001090  ! 00000006
/mnt/sda5/.user/root/src/openwatcom-1.9/bld/clib/kanji/c/fjstrupr.c
                _TEXT                 CODE           0002:0000fbe0  ! 000000a1
                CONST                 DATA           0003:0000000c  ! 00000000
                CONST2                DATA           0003:00000068  ! 00000000
                _DATA                 DATA           0003:00000424  ! 00000000
/mnt/sda5/.user/root/src/openwatcom-1.9/bld/clib/kanji/c/fmtob.c
                _TEXT                 CODE           0002:0000fc90  ! 00000070
                CONST                 DATA           0003:0000000c  ! 00000000
                CONST2                DATA           0003:00000068  ! 00000000
                _DATA                 DATA           0003:00000424  ! 00000000
/mnt/sda5/.user/root/src/openwatcom-1.9/bld/clib/kanji/c/fnthctyp.c
                _TEXT                 CODE           0002:0000fd00  ! 0000006f
                CONST                 DATA           0003:0000000c  ! 00000000
                CONST2                DATA           0003:00000068  ! 00000000
                _DATA                 DATA           0003:00000424  ! 00000000
/mnt/sda5/.user/root/src/openwatcom-1.9/bld/clib/kanji/c/hantozen.c
                _TEXT                 CODE           0002:0000fd70  ! 000000ac
                CONST                 DATA           0003:0000000c  ! 00000000
                CONST2                DATA           0003:00000068  ! 00000000
                _DATA                 DATA           0003:00000424  ! 00000000
/mnt/sda5/.user/root/src/openwatcom-1.9/bld/clib/kanji/c/isktable.c
                _TEXT                 CODE           0002:0000fe20  ! 00000101
                CONST                 DATA           0003:0000000c  ! 00000000
                CONST2                DATA           0003:00000068  ! 00000000
                _DATA                 DATA           0003:00000424  ! 00000000
/mnt/sda5/.user/root/src/openwatcom-1.9/bld/clib/kanji/c/ismbdaln.c
                _TEXT                 CODE           0002:0000ff30  ! 0000004b
                CONST                 DATA           0003:0000000c  ! 00000000
                CONST2                DATA           0003:00000068  ! 00000000
                _DATA                 DATA           0003:00000424  ! 00000000
/mnt/sda5/.user/root/src/openwatcom-1.9/bld/clib/kanji/c/ismbdalp.c
                _TEXT                 CODE           0002:0000ff80  ! 0000007c
                CONST                 DATA           0003:0000000c  ! 00000000
                CONST2                DATA           0003:00000068  ! 00000000
                _DATA                 DATA           0003:00000424  ! 00000000
/mnt/sda5/.user/root/src/openwatcom-1.9/bld/clib/kanji/c/ismbddig.c
                _TEXT                 CODE           0002:00010000  ! 0000006a
                CONST                 DATA           0003:0000000c  ! 00000000
                CONST2                DATA           0003:00000068  ! 00000000
                _DATA                 DATA           0003:00000424  ! 00000000
/mnt/sda5/.user/root/src/openwatcom-1.9/bld/clib/kanji/c/ismbdgra.c
                _TEXT                 CODE           0002:00010070  ! 0000004d
                CONST                 DATA           0003:0000000c  ! 00000000
                CONST2                DATA           0003:00000068  ! 00000000
                _DATA                 DATA           0003:00000424  ! 00000000
/mnt/sda5/.user/root/src/openwatcom-1.9/bld/clib/kanji/c/ismbdhir.c
                _TEXT                 CODE           0002:000100c0  ! 00000047
                CONST                 DATA           0003:0000000c  ! 00000000
                CONST2                DATA           0003:00000068  ! 00000000
                _DATA                 DATA           0003:00000424  ! 00000000
/mnt/sda5/.user/root/src/openwatcom-1.9/bld/clib/kanji/c/ismbdkan.c
                _TEXT                 CODE           0002:00010110  ! 00000052
                CONST                 DATA           0003:0000000c  ! 00000000
                CONST2                DATA           0003:00000068  ! 00000000
                _DATA                 DATA           0003:00000424  ! 00000000
/mnt/sda5/.user/root/src/openwatcom-1.9/bld/clib/kanji/c/ismbdlow.c
                _TEXT                 CODE           0002:00010170  ! 0000006a
                CONST                 DATA           0003:0000000c  ! 00000000
                CONST2                DATA           0003:00000068  ! 00000000
                _DATA                 DATA           0003:00000424  ! 00000000
/mnt/sda5/.user/root/src/openwatcom-1.9/bld/clib/kanji/c/ismbdpri.c
                _TEXT                 CODE           0002:000101e0  ! 00000047
                CONST                 DATA           0003:0000000c  ! 00000000
                CONST2                DATA           0003:00000068  ! 00000000
                _DATA                 DATA           0003:00000424  ! 00000000
/mnt/sda5/.user/root/src/openwatcom-1.9/bld/clib/kanji/c/ismbdpun.c
                _TEXT                 CODE           0002:00010230  ! 00000044
                CONST                 DATA           0003:0000000c  ! 00000000
                CONST2                DATA           0003:00000068  ! 00000000
                _DATA                 DATA           0003:00000424  ! 00000000
/mnt/sda5/.user/root/src/openwatcom-1.9/bld/clib/kanji/c/ismbdspa.c
                _TEXT                 CODE           0002:00010280  ! 00000065
                CONST                 DATA           0003:0000000c  ! 00000000
                CONST2                DATA           0003:00000068  ! 00000000
                _DATA                 DATA           0003:00000424  ! 00000000
/mnt/sda5/.user/root/src/openwatcom-1.9/bld/clib/kanji/c/ismbdupp.c
                _TEXT                 CODE           0002:000102f0  ! 0000006a
                CONST                 DATA           0003:0000000c  ! 00000000
                CONST2                DATA           0003:00000068  ! 00000000
                _DATA                 DATA           0003:00000424  ! 00000000
/mnt/sda5/.user/root/src/openwatcom-1.9/bld/clib/kanji/c/ismbdxdi.c
                _TEXT                 CODE           0002:00010360  ! 00000072
                CONST                 DATA           0003:0000000c  ! 00000000
                CONST2                DATA           0003:00000068  ! 00000000
                _DATA                 DATA           0003:00000424  ! 00000000
/mnt/sda5/.user/root/src/openwatcom-1.9/bld/clib/kanji/c/jasctime.c
                _TEXT                 CODE           0002:000103e0  ! 000000c2
                CONST                 DATA           0003:0000000c  ! 00000000
                CONST2                DATA           0003:00000068  ! 00000000
                _DATA                 DATA           0003:00000424  ! 0000001c
                _BSS                  BSS            0003:00001098  ! 00000025
/mnt/sda5/.user/root/src/openwatcom-1.9/bld/clib/kanji/c/jctime.c
                _TEXT                 CODE           0002:000104b0  ! 0000002d
                CONST                 DATA           0003:0000000c  ! 00000000
                CONST2                DATA           0003:00000068  ! 00000000
                _DATA                 DATA           0003:00000440  ! 00000000
/mnt/sda5/.user/root/src/openwatcom-1.9/bld/clib/kanji/c/jgetmoji.c
                _TEXT                 CODE           0002:000104e0  ! 00000080
                CONST                 DATA           0003:0000000c  ! 00000000
                CONST2                DATA           0003:00000068  ! 00000000
                _DATA                 DATA           0003:00000440  ! 00000000
/mnt/sda5/.user/root/src/openwatcom-1.9/bld/clib/kanji/c/jisalpha.c
                _TEXT                 CODE           0002:00010560  ! 00000051
                CONST                 DATA           0003:0000000c  ! 00000000
                CONST2                DATA           0003:00000068  ! 00000000
                _DATA                 DATA           0003:00000440  ! 00000000
/mnt/sda5/.user/root/src/openwatcom-1.9/bld/clib/kanji/c/jisdigit.c
                _TEXT                 CODE           0002:000105c0  ! 00000045
                CONST                 DATA           0003:0000000c  ! 00000000
                CONST2                DATA           0003:00000068  ! 00000000
                _DATA                 DATA           0003:00000440  ! 00000000
/mnt/sda5/.user/root/src/openwatcom-1.9/bld/clib/kanji/c/jishira.c
                _TEXT                 CODE           0002:00010610  ! 00000045
                CONST                 DATA           0003:0000000c  ! 00000000
                CONST2                DATA           0003:00000068  ! 00000000
                _DATA                 DATA           0003:00000440  ! 00000000
/mnt/sda5/.user/root/src/openwatcom-1.9/bld/clib/kanji/c/jiskana.c
                _TEXT                 CODE           0002:00010660  ! 0000004f
                CONST                 DATA           0003:0000000c  ! 00000000
                CONST2                DATA           0003:00000068  ! 00000000
                _DATA                 DATA           0003:00000440  ! 00000000
/mnt/sda5/.user/root/src/openwatcom-1.9/bld/clib/kanji/c/jiskigou.c
                _TEXT                 CODE           0002:000106b0  ! 0000004f
                CONST                 DATA           0003:0000000c  ! 00000000
                CONST2                DATA           0003:00000068  ! 00000000
                _DATA                 DATA           0003:00000440  ! 00000000
/mnt/sda5/.user/root/src/openwatcom-1.9/bld/clib/kanji/c/jisl0.c
                _TEXT                 CODE           0002:00010700  ! 0000004c
                CONST                 DATA           0003:0000000c  ! 00000000
                CONST2                DATA           0003:00000068  ! 00000000
                _DATA                 DATA           0003:00000440  ! 00000000
/mnt/sda5/.user/root/src/openwatcom-1.9/bld/clib/kanji/c/jisl1.c
                _TEXT                 CODE           0002:00010750  ! 00000056
                CONST                 DATA           0003:0000000c  ! 00000000
                CONST2                DATA           0003:00000068  ! 00000000
                _DATA                 DATA           0003:00000440  ! 00000000
/mnt/sda5/.user/root/src/openwatcom-1.9/bld/clib/kanji/c/jisl2.c
                _TEXT                 CODE           0002:000107b0  ! 00000056
                CONST                 DATA           0003:0000000c  ! 00000000
                CONST2                DATA           0003:00000068  ! 00000000
                _DATA                 DATA           0003:00000440  ! 00000000
/mnt/sda5/.user/root/src/openwatcom-1.9/bld/clib/kanji/c/jislower.c
                _TEXT                 CODE           0002:00010810  ! 00000045
                CONST                 DATA           0003:0000000c  ! 00000000
                CONST2                DATA           0003:00000068  ! 00000000
                _DATA                 DATA           0003:00000440  ! 00000000
/mnt/sda5/.user/root/src/openwatcom-1.9/bld/clib/kanji/c/jisprint.c
                _TEXT                 CODE           0002:00010860  ! 00000061
                CONST                 DATA           0003:0000000c  ! 00000000
                CONST2                DATA           0003:00000068  ! 00000000
                _DATA                 DATA           0003:00000440  ! 00000000
/mnt/sda5/.user/root/src/openwatcom-1.9/bld/clib/kanji/c/jisspace.c
                _TEXT                 CODE           0002:000108d0  ! 0000003b
                CONST                 DATA           0003:0000000c  ! 00000000
                CONST2                DATA           0003:00000068  ! 00000000
                _DATA                 DATA           0003:00000440  ! 00000000
/mnt/sda5/.user/root/src/openwatcom-1.9/bld/clib/kanji/c/jistojms.c
                _TEXT                 CODE           0002:00010910  ! 0000010c
                CONST                 DATA           0003:0000000c  ! 00000000
                CONST2                DATA           0003:00000068  ! 00000000
                _DATA                 DATA           0003:00000440  ! 00000000
/mnt/sda5/.user/root/src/openwatcom-1.9/bld/clib/kanji/c/jisupper.c
                _TEXT                 CODE           0002:00010a20  ! 00000045
                CONST                 DATA           0003:0000000c  ! 00000000
                CONST2                DATA           0003:00000068  ! 00000000
                _DATA                 DATA           0003:00000440  ! 00000000
/mnt/sda5/.user/root/src/openwatcom-1.9/bld/clib/kanji/c/jiszen.c
                _TEXT                 CODE           0002:00010a70  ! 0000005e
                CONST                 DATA           0003:0000000c  ! 00000000
                CONST2                DATA           0003:00000068  ! 00000000
                _DATA                 DATA           0003:00000440  ! 00000000
/mnt/sda5/.user/root/src/openwatcom-1.9/bld/clib/kanji/c/jmstojis.c
                _TEXT                 CODE           0002:00010ad0  ! 00000106
                CONST                 DATA           0003:0000000c  ! 00000000
                CONST2                DATA           0003:00000068  ! 00000000
                _DATA                 DATA           0003:00000440  ! 00000000
/mnt/sda5/.user/root/src/openwatcom-1.9/bld/clib/kanji/c/jperror.c
                _TEXT                 CODE           0002:00010be0  ! 0000007d
                CONST                 DATA           0003:0000000c  ! 00000000
                CONST2                DATA           0003:00000068  ! 00000000
                _DATA                 DATA           0003:00000440  ! 00000000
/mnt/sda5/.user/root/src/openwatcom-1.9/bld/clib/kanji/c/jputmoji.c
                _TEXT                 CODE           0002:00010c60  ! 0000004f
                CONST                 DATA           0003:0000000c  ! 00000000
                CONST2                DATA           0003:00000068  ! 00000000
                _DATA                 DATA           0003:00000440  ! 00000000
/mnt/sda5/.user/root/src/openwatcom-1.9/bld/clib/kanji/c/jstradv.c
                _TEXT                 CODE           0002:00010cb0  ! 00000031
                CONST                 DATA           0003:0000000c  ! 00000000
                CONST2                DATA           0003:00000068  ! 00000000
                _DATA                 DATA           0003:00000440  ! 00000000
/mnt/sda5/.user/root/src/openwatcom-1.9/bld/clib/kanji/c/jstrcat.c
                _TEXT                 CODE           0002:00010cf0  ! 000000b8
                CONST                 DATA           0003:0000000c  ! 00000000
                CONST2                DATA           0003:00000068  ! 00000000
                _DATA                 DATA           0003:00000440  ! 00000000
/mnt/sda5/.user/root/src/openwatcom-1.9/bld/clib/kanji/c/jstrchr.c
                _TEXT                 CODE           0002:00010db0  ! 00000051
                CONST                 DATA           0003:0000000c  ! 00000000
                CONST2                DATA           0003:00000068  ! 00000000
                _DATA                 DATA           0003:00000440  ! 00000000
/mnt/sda5/.user/root/src/openwatcom-1.9/bld/clib/kanji/c/jstrcmp.c
                _TEXT                 CODE           0002:00010e10  ! 00000076
                CONST                 DATA           0003:0000000c  ! 00000000
                CONST2                DATA           0003:00000068  ! 00000000
                _DATA                 DATA           0003:00000440  ! 00000000
/mnt/sda5/.user/root/src/openwatcom-1.9/bld/clib/kanji/c/jstrcspn.c
                _TEXT                 CODE           0002:00010e90  ! 00000073
                CONST                 DATA           0003:0000000c  ! 00000000
                CONST2                DATA           0003:00000068  ! 00000000
                _DATA                 DATA           0003:00000440  ! 00000000
/mnt/sda5/.user/root/src/openwatcom-1.9/bld/clib/kanji/c/jstrerro.c
                _TEXT                 CODE           0002:00010f10  ! 00000414
                CONST                 DATA           0003:0000000c  ! 00000000
                CONST2                DATA           0003:00000068  ! 00000000
                _DATA                 DATA           0003:00000440  ! 000000a8
/mnt/sda5/.user/root/src/openwatcom-1.9/bld/clib/kanji/c/jstricmp.c
                _TEXT                 CODE           0002:00011330  ! 000000c5
                CONST                 DATA           0003:0000000c  ! 00000000
                CONST2                DATA           0003:00000068  ! 00000000
                _DATA                 DATA           0003:000004e8  ! 00000000
/mnt/sda5/.user/root/src/openwatcom-1.9/bld/clib/kanji/c/jstrlen.c
                _TEXT                 CODE           0002:00011400  ! 00000047
                CONST                 DATA           0003:0000000c  ! 00000000
                CONST2                DATA           0003:00000068  ! 00000000
                _DATA                 DATA           0003:000004e8  ! 00000000
/mnt/sda5/.user/root/src/openwatcom-1.9/bld/clib/kanji/c/jstrlwr.c
                _TEXT                 CODE           0002:00011450  ! 00000061
                CONST                 DATA           0003:0000000c  ! 00000000
                CONST2                DATA           0003:00000068  ! 00000000
                _DATA                 DATA           0003:000004e8  ! 00000000
/mnt/sda5/.user/root/src/openwatcom-1.9/bld/clib/kanji/c/jstrmatc.c
                _TEXT                 CODE           0002:000114c0  ! 00000070
                CONST                 DATA           0003:0000000c  ! 00000000
                CONST2                DATA           0003:00000068  ! 00000000
                _DATA                 DATA           0003:000004e8  ! 00000000
/mnt/sda5/.user/root/src/openwatcom-1.9/bld/clib/kanji/c/jstrncmp.c
                _TEXT                 CODE           0002:00011530  ! 00000081
                CONST                 DATA           0003:0000000c  ! 00000000
                CONST2                DATA           0003:00000068  ! 00000000
                _DATA                 DATA           0003:000004e8  ! 00000000
/mnt/sda5/.user/root/src/openwatcom-1.9/bld/clib/kanji/c/jstrncpy.c
                _TEXT                 CODE           0002:000115c0  ! 000000ce
                CONST                 DATA           0003:0000000c  ! 00000000
                CONST2                DATA           0003:00000068  ! 00000000
                _DATA                 DATA           0003:000004e8  ! 00000000
/mnt/sda5/.user/root/src/openwatcom-1.9/bld/clib/kanji/c/jstrnicm.c
                _TEXT                 CODE           0002:00011690  ! 000000e2
                CONST                 DATA           0003:0000000c  ! 00000000
                CONST2                DATA           0003:00000068  ! 00000000
                _DATA                 DATA           0003:000004e8  ! 00000000
/mnt/sda5/.user/root/src/openwatcom-1.9/bld/clib/kanji/c/jstrnset.c
                _TEXT                 CODE           0002:00011780  ! 00000174
                CONST                 DATA           0003:0000000c  ! 00000000
                CONST2                DATA           0003:00000068  ! 00000000
                _DATA                 DATA           0003:000004e8  ! 00000000
/mnt/sda5/.user/root/src/openwatcom-1.9/bld/clib/kanji/c/jstrrchr.c
                _TEXT                 CODE           0002:00011900  ! 00000059
                CONST                 DATA           0003:0000000c  ! 00000000
                CONST2                DATA           0003:00000068  ! 00000000
                _DATA                 DATA           0003:000004e8  ! 00000000
/mnt/sda5/.user/root/src/openwatcom-1.9/bld/clib/kanji/c/jstrrev.c
                _TEXT                 CODE           0002:00011960  ! 000000cc
                CONST                 DATA           0003:0000000c  ! 00000000
                CONST2                DATA           0003:00000068  ! 00000000
                _DATA                 DATA           0003:000004e8  ! 00000000
/mnt/sda5/.user/root/src/openwatcom-1.9/bld/clib/kanji/c/jstrset.c
                _TEXT                 CODE           0002:00011a30  ! 00000090
                CONST                 DATA           0003:0000000c  ! 00000000
                CONST2                DATA           0003:00000068  ! 00000000
                _DATA                 DATA           0003:000004e8  ! 00000000
/mnt/sda5/.user/root/src/openwatcom-1.9/bld/clib/kanji/c/jstrskip.c
                _TEXT                 CODE           0002:00011ac0  ! 00000072
                CONST                 DATA           0003:0000000c  ! 00000000
                CONST2                DATA           0003:00000068  ! 00000000
                _DATA                 DATA           0003:000004e8  ! 00000000
/mnt/sda5/.user/root/src/openwatcom-1.9/bld/clib/kanji/c/jstrspn.c
                _TEXT                 CODE           0002:00011b40  ! 0000007b
                CONST                 DATA           0003:0000000c  ! 00000000
                CONST2                DATA           0003:00000068  ! 00000000
                _DATA                 DATA           0003:000004e8  ! 00000000
/mnt/sda5/.user/root/src/openwatcom-1.9/bld/clib/kanji/c/jstrstr.c
                _TEXT                 CODE           0002:00011bc0  ! 000000d7
                CONST                 DATA           0003:0000000c  ! 00000000
                CONST2                DATA           0003:00000068  ! 00000000
                _DATA                 DATA           0003:000004e8  ! 00000000
/mnt/sda5/.user/root/src/openwatcom-1.9/bld/clib/kanji/c/jstrtok.c
                _TEXT                 CODE           0002:00011ca0  ! 000000ff
                CONST                 DATA           0003:0000000c  ! 00000000
                CONST2                DATA           0003:00000068  ! 00000000
                _DATA                 DATA           0003:000004e8  ! 00000000
                _BSS                  BSS            0003:000010c0  ! 00000004
/mnt/sda5/.user/root/src/openwatcom-1.9/bld/clib/kanji/c/jstrupr.c
                _TEXT                 CODE           0002:00011da0  ! 00000061
                CONST                 DATA           0003:0000000c  ! 00000000
                CONST2                DATA           0003:00000068  ! 00000000
                _DATA                 DATA           0003:000004e8  ! 00000000
/mnt/sda5/.user/root/src/openwatcom-1.9/bld/clib/kanji/c/jtohira.c
                _TEXT                 CODE           0002:00011e10  ! 00000090
                CONST                 DATA           0003:0000000c  ! 00000000
                CONST2                DATA           0003:00000068  ! 00000000
                _DATA                 DATA           0003:000004e8  ! 00000000
/mnt/sda5/.user/root/src/openwatcom-1.9/bld/clib/kanji/c/jtokata.c
                _TEXT                 CODE           0002:00011ea0  ! 00000086
                CONST                 DATA           0003:0000000c  ! 00000000
                CONST2                DATA           0003:00000068  ! 00000000
                _DATA                 DATA           0003:000004e8  ! 00000000
/mnt/sda5/.user/root/src/openwatcom-1.9/bld/clib/kanji/c/jtolower.c
                _TEXT                 CODE           0002:00011f30  ! 00000049
                CONST                 DATA           0003:0000000c  ! 00000000
                CONST2                DATA           0003:00000068  ! 00000000
                _DATA                 DATA           0003:000004e8  ! 00000000
/mnt/sda5/.user/root/src/openwatcom-1.9/bld/clib/kanji/c/jtoupper.c
                _TEXT                 CODE           0002:00011f80  ! 00000049
                CONST                 DATA           0003:0000000c  ! 00000000
                CONST2                DATA           0003:00000068  ! 00000000
                _DATA                 DATA           0003:000004e8  ! 00000000
/mnt/sda5/.user/root/src/openwatcom-1.9/bld/clib/kanji/c/mbdhanto.c
                _TEXT                 CODE           0002:00011fd0  ! 0000006b
                CONST                 DATA           0003:0000000c  ! 00000000
                CONST2                DATA           0003:00000068  ! 00000000
                _DATA                 DATA           0003:000004e8  ! 00000000
/mnt/sda5/.user/root/src/openwatcom-1.9/bld/clib/kanji/c/mbdtolow.c
                _TEXT                 CODE           0002:00012040  ! 00000040
                CONST                 DATA           0003:0000000c  ! 00000000
                CONST2                DATA           0003:00000068  ! 00000000
                _DATA                 DATA           0003:000004e8  ! 00000000
/mnt/sda5/.user/root/src/openwatcom-1.9/bld/clib/kanji/c/mbdtoupp.c
                _TEXT                 CODE           0002:00012080  ! 00000048
                CONST                 DATA           0003:0000000c  ! 00000000
                CONST2                DATA           0003:00000068  ! 00000000
                _DATA                 DATA           0003:000004e8  ! 00000000
/mnt/sda5/.user/root/src/openwatcom-1.9/bld/clib/kanji/c/mbdzento.c
                _TEXT                 CODE           0002:000120d0  ! 0000006c
                CONST                 DATA           0003:0000000c  ! 00000000
                CONST2                DATA           0003:00000068  ! 00000000
                _DATA                 DATA           0003:000004e8  ! 00000000
/mnt/sda5/.user/root/src/openwatcom-1.9/bld/clib/kanji/c/mbisl0.c
                _TEXT                 CODE           0002:00012140  ! 0000004a
                CONST                 DATA           0003:0000000c  ! 00000000
                CONST2                DATA           0003:00000068  ! 00000000
                _DATA                 DATA           0003:000004e8  ! 00000000
/mnt/sda5/.user/root/src/openwatcom-1.9/bld/clib/kanji/c/mbisl1.c
                _TEXT                 CODE           0002:00012190  ! 00000055
                CONST                 DATA           0003:0000000c  ! 00000000
                CONST2                DATA           0003:00000068  ! 00000000
                _DATA                 DATA           0003:000004e8  ! 00000000
/mnt/sda5/.user/root/src/openwatcom-1.9/bld/clib/kanji/c/mbisl2.c
                _TEXT                 CODE           0002:000121f0  ! 00000055
                CONST                 DATA           0003:0000000c  ! 00000000
                CONST2                DATA           0003:00000068  ! 00000000
                _DATA                 DATA           0003:000004e8  ! 00000000
/mnt/sda5/.user/root/src/openwatcom-1.9/bld/clib/kanji/c/mtob.c
                _TEXT                 CODE           0002:00012250  ! 00000050
                CONST                 DATA           0003:0000000c  ! 00000000
                CONST2                DATA           0003:00000068  ! 00000000
                _DATA                 DATA           0003:000004e8  ! 00000000
/mnt/sda5/.user/root/src/openwatcom-1.9/bld/clib/kanji/c/nthctype.c
                _TEXT                 CODE           0002:000122a0  ! 0000005e
                CONST                 DATA           0003:0000000c  ! 00000000
                CONST2                DATA           0003:00000068  ! 00000000
                _DATA                 DATA           0003:000004e8  ! 00000000
/mnt/sda5/.user/root/src/openwatcom-1.9/bld/clib/math/c/abs.c
                _TEXT                 CODE           0002:00012300  ! 0000002c
                CONST                 DATA           0003:0000000c  ! 00000000
                CONST2                DATA           0003:00000068  ! 00000000
                _DATA                 DATA           0003:000004e8  ! 00000000
/mnt/sda5/.user/root/src/openwatcom-1.9/bld/clib/math/c/hvalptr.c
                _TEXT                 CODE           0002:00012330  ! 00000021
                CONST                 DATA           0003:0000000c  ! 00000000
                CONST2                DATA           0003:00000068  ! 00000000
                _DATA                 DATA           0003:000004e8  ! 00000000
/mnt/sda5/.user/root/src/openwatcom-1.9/bld/clib/math/c/hugeval.c
                _TEXT                 CODE           0002:00012360  ! 00000008
                CONST                 DATA           0003:0000000c  ! 00000000
                CONST2                DATA           0003:00000068  ! 00000000
                _DATA                 DATA           0003:000004e8  ! 00000000
/mnt/sda5/.user/root/src/openwatcom-1.9/bld/clib/math/c/imaxabs.c
                _TEXT                 CODE           0002:00012370  ! 00000049
                CONST                 DATA           0003:0000000c  ! 00000000
                CONST2                DATA           0003:00000068  ! 00000000
                _DATA                 DATA           0003:000004e8  ! 00000000
/mnt/sda5/.user/root/src/openwatcom-1.9/bld/clib/math/c/imaxdiv.c
                _TEXT                 CODE           0002:000123c0  ! 00000063
                CONST                 DATA           0003:0000000c  ! 00000000
                CONST2                DATA           0003:00000068  ! 00000000
                _DATA                 DATA           0003:000004e8  ! 00000000
/mnt/sda5/.user/root/src/openwatcom-1.9/bld/clib/math/c/labs.c
                _TEXT                 CODE           0002:00012430  ! 0000002c
                CONST                 DATA           0003:0000000c  ! 00000000
                CONST2                DATA           0003:00000068  ! 00000000
                _DATA                 DATA           0003:000004e8  ! 00000000
/mnt/sda5/.user/root/src/openwatcom-1.9/bld/clib/math/c/llabs.c
                _TEXT                 CODE           0002:00012460  ! 00000049
                CONST                 DATA           0003:0000000c  ! 00000000
                CONST2                DATA           0003:00000068  ! 00000000
                _DATA                 DATA           0003:000004e8  ! 00000000
/mnt/sda5/.user/root/src/openwatcom-1.9/bld/clib/math/c/max.c
                _TEXT                 CODE           0002:000124b0  ! 0000003a
                CONST                 DATA           0003:0000000c  ! 00000000
                CONST2                DATA           0003:00000068  ! 00000000
                _DATA                 DATA           0003:000004e8  ! 00000000
/mnt/sda5/.user/root/src/openwatcom-1.9/bld/clib/math/c/min.c
                _TEXT                 CODE           0002:000124f0  ! 0000003a
                CONST                 DATA           0003:0000000c  ! 00000000
                CONST2                DATA           0003:00000068  ! 00000000
                _DATA                 DATA           0003:000004e8  ! 00000000
/mnt/sda5/.user/root/src/openwatcom-1.9/bld/clib/math/c/rand.c
                _TEXT                 CODE           0002:00012530  ! 0000009a
                CONST                 DATA           0003:0000000c  ! 00000000
                CONST2                DATA           0003:00000068  ! 00000000
                _DATA                 DATA           0003:000004e8  ! 00000000
/mnt/sda5/.user/root/src/openwatcom-1.9/bld/clib/mbyte/c/btowc.c
                _TEXT                 CODE           0002:000125d0  ! 0000005f
                CONST                 DATA           0003:0000000c  ! 00000000
                CONST2                DATA           0003:00000068  ! 00000000
                _DATA                 DATA           0003:000004e8  ! 00000000
/mnt/sda5/.user/root/src/openwatcom-1.9/bld/clib/mbyte/c/fmbccmp.c
                _TEXT                 CODE           0002:00012630  ! 000000a6
                CONST                 DATA           0003:0000000c  ! 00000000
                CONST2                DATA           0003:00000068  ! 00000000
                _DATA                 DATA           0003:000004e8  ! 00000000
/mnt/sda5/.user/root/src/openwatcom-1.9/bld/clib/mbyte/c/fmbccpy.c
                _TEXT                 CODE           0002:000126e0  ! 0000008f
                CONST                 DATA           0003:0000000c  ! 00000000
                CONST2                DATA           0003:00000068  ! 00000000
                _DATA                 DATA           0003:000004e8  ! 00000000
/mnt/sda5/.user/root/src/openwatcom-1.9/bld/clib/mbyte/c/fmbcicmp.c
                _TEXT                 CODE           0002:00012770  ! 0000008c
                CONST                 DATA           0003:0000000c  ! 00000000
                CONST2                DATA           0003:00000068  ! 00000000
                _DATA                 DATA           0003:000004e8  ! 00000000
/mnt/sda5/.user/root/src/openwatcom-1.9/bld/clib/mbyte/c/fmbclen.c
                _TEXT                 CODE           0002:00012800  ! 0000006b
                CONST                 DATA           0003:0000000c  ! 00000000
                CONST2                DATA           0003:00000068  ! 00000000
                _DATA                 DATA           0003:000004e8  ! 00000000
/mnt/sda5/.user/root/src/openwatcom-1.9/bld/clib/mbyte/c/fmbconv.c
                _TEXT                 CODE           0002:00012870  ! 00000061
                CONST                 DATA           0003:0000000c  ! 00000000
                CONST2                DATA           0003:00000068  ! 00000000
                _DATA                 DATA           0003:000004e8  ! 00000000
/mnt/sda5/.user/root/src/openwatcom-1.9/bld/clib/mbyte/c/fmbgetco.c
                _TEXT                 CODE           0002:000128e0  ! 0000010c
                CONST                 DATA           0003:0000000c  ! 00000000
                CONST2                DATA           0003:00000068  ! 00000000
                _DATA                 DATA           0003:000004e8  ! 00000000
/mnt/sda5/.user/root/src/openwatcom-1.9/bld/clib/mbyte/c/fmblen.c
                _TEXT                 CODE           0002:000129f0  ! 0000003e
                CONST                 DATA           0003:0000000c  ! 00000000
                CONST2                DATA           0003:00000068  ! 00000000
                _DATA                 DATA           0003:000004e8  ! 00000000
/mnt/sda5/.user/root/src/openwatcom-1.9/bld/clib/mbyte/c/fmbputch.c
                _TEXT                 CODE           0002:00012a30  ! 00000096
                CONST                 DATA           0003:0000000c  ! 00000000
                CONST2                DATA           0003:00000068  ! 00000000
                _DATA                 DATA           0003:000004e8  ! 00000000
/mnt/sda5/.user/root/src/openwatcom-1.9/bld/clib/mbyte/c/fmbrlen.c
                _TEXT                 CODE           0002:00012ad0  ! 00000044
                CONST                 DATA           0003:0000000c  ! 00000000
                CONST2                DATA           0003:00000068  ! 00000000
                _DATA                 DATA           0003:000004e8  ! 00000000
/mnt/sda5/.user/root/src/openwatcom-1.9/bld/clib/mbyte/c/fmbrtowc.c
                _TEXT                 CODE           0002:00012b20  ! 000000d5
                CONST                 DATA           0003:0000000c  ! 00000000
                CONST2                DATA           0003:00000068  ! 00000000
                _DATA                 DATA           0003:000004e8  ! 00000000
/mnt/sda5/.user/root/src/openwatcom-1.9/bld/clib/mbyte/c/fmbsbtyp.c
                _TEXT                 CODE           0002:00012c00  ! 00000072
                CONST                 DATA           0003:0000000c  ! 00000000
                CONST2                DATA           0003:00000068  ! 00000000
                _DATA                 DATA           0003:000004e8  ! 00000000
/mnt/sda5/.user/root/src/openwatcom-1.9/bld/clib/mbyte/c/fmbscat.c
                _TEXT                 CODE           0002:00012c80  ! 00000049
                CONST                 DATA           0003:0000000c  ! 00000000
                CONST2                DATA           0003:00000068  ! 00000000
                _DATA                 DATA           0003:000004e8  ! 00000000
/mnt/sda5/.user/root/src/openwatcom-1.9/bld/clib/mbyte/c/fmbschr.c
                _TEXT                 CODE           0002:00012cd0  ! 000000c1
                CONST                 DATA           0003:0000000c  ! 00000000
                CONST2                DATA           0003:00000068  ! 00000000
                _DATA                 DATA           0003:000004e8  ! 00000000
/mnt/sda5/.user/root/src/openwatcom-1.9/bld/clib/mbyte/c/fmbscmp.c
                _TEXT                 CODE           0002:00012da0  ! 000000fd
                CONST                 DATA           0003:0000000c  ! 00000000
                CONST2                DATA           0003:00000068  ! 00000000
                _DATA                 DATA           0003:000004e8  ! 00000000
/mnt/sda5/.user/root/src/openwatcom-1.9/bld/clib/mbyte/c/fmbscpy.c
                _TEXT                 CODE           0002:00012ea0  ! 00000049
                CONST                 DATA           0003:0000000c  ! 00000000
                CONST2                DATA           0003:00000068  ! 00000000
                _DATA                 DATA           0003:000004e8  ! 00000000
/mnt/sda5/.user/root/src/openwatcom-1.9/bld/clib/mbyte/c/fmbscspn.c
                _TEXT                 CODE           0002:00012ef0  ! 00000096
                CONST                 DATA           0003:0000000c  ! 00000000
                CONST2                DATA           0003:00000068  ! 00000000
                _DATA                 DATA           0003:000004e8  ! 00000000
/mnt/sda5/.user/root/src/openwatcom-1.9/bld/clib/mbyte/c/fmbsdup.c
                _TEXT                 CODE           0002:00012f90  ! 0000007a
                CONST                 DATA           0003:0000000c  ! 00000000
                CONST2                DATA           0003:00000068  ! 00000000
                _DATA                 DATA           0003:000004e8  ! 00000000
/mnt/sda5/.user/root/src/openwatcom-1.9/bld/clib/mbyte/c/fmbsdec.c
                _TEXT                 CODE           0002:00013010  ! 00000108
                CONST                 DATA           0003:0000000c  ! 00000000
                CONST2                DATA           0003:00000068  ! 00000000
                _DATA                 DATA           0003:000004e8  ! 00000000
/mnt/sda5/.user/root/src/openwatcom-1.9/bld/clib/mbyte/c/fmbsicmp.c
                _TEXT                 CODE           0002:00013120  ! 000000fd
                CONST                 DATA           0003:0000000c  ! 00000000
                CONST2                DATA           0003:00000068  ! 00000000
                _DATA                 DATA           0003:000004e8  ! 00000000
/mnt/sda5/.user/root/src/openwatcom-1.9/bld/clib/mbyte/c/fmbsinc.c
                _TEXT                 CODE           0002:00013220  ! 00000087
                CONST                 DATA           0003:0000000c  ! 00000000
                CONST2                DATA           0003:00000068  ! 00000000
                _DATA                 DATA           0003:000004e8  ! 00000000
/mnt/sda5/.user/root/src/openwatcom-1.9/bld/clib/mbyte/c/_fmbslen.c
                _TEXT                 CODE           0002:000132b0  ! 000000b4
                CONST                 DATA           0003:0000000c  ! 00000000
                CONST2                DATA           0003:00000068  ! 00000000
                _DATA                 DATA           0003:000004e8  ! 00000000
/mnt/sda5/.user/root/src/openwatcom-1.9/bld/clib/mbyte/c/fmbslen.c
                _TEXT                 CODE           0002:00013370  ! 00000061
                CONST                 DATA           0003:0000000c  ! 00000000
                CONST2                DATA           0003:00000068  ! 00000000
                _DATA                 DATA           0003:000004e8  ! 00000000
/mnt/sda5/.user/root/src/openwatcom-1.9/bld/clib/mbyte/c/fmbslwr.c
                _TEXT                 CODE           0002:000133e0  ! 000000d1
                CONST                 DATA           0003:0000000c  ! 00000000
                CONST2                DATA           0003:00000068  ! 00000000
                _DATA                 DATA           0003:000004e8  ! 00000000
/mnt/sda5/.user/root/src/openwatcom-1.9/bld/clib/mbyte/c/fmbsnbca.c
                _TEXT                 CODE           0002:000134c0  ! 000001e9
                CONST                 DATA           0003:0000000c  ! 00000000
                CONST2                DATA           0003:00000068  ! 00000000
                _DATA                 DATA           0003:000004e8  ! 00000000
/mnt/sda5/.user/root/src/openwatcom-1.9/bld/clib/mbyte/c/fmbsnbcm.c
                _TEXT                 CODE           0002:000136b0  ! 00000119
                CONST                 DATA           0003:0000000c  ! 00000000
                CONST2                DATA           0003:00000068  ! 00000000
                _DATA                 DATA           0003:000004e8  ! 00000000
/mnt/sda5/.user/root/src/openwatcom-1.9/bld/clib/mbyte/c/fmbsnbcn.c
                _TEXT                 CODE           0002:000137d0  ! 000000d8
                CONST                 DATA           0003:0000000c  ! 00000000
                CONST2                DATA           0003:00000068  ! 00000000
                _DATA                 DATA           0003:000004e8  ! 00000000
/mnt/sda5/.user/root/src/openwatcom-1.9/bld/clib/mbyte/c/fmbsnbcp.c
                _TEXT                 CODE           0002:000138b0  ! 000000f5
                CONST                 DATA           0003:0000000c  ! 00000000
                CONST2                DATA           0003:00000068  ! 00000000
                _DATA                 DATA           0003:000004e8  ! 00000000
/mnt/sda5/.user/root/src/openwatcom-1.9/bld/clib/mbyte/c/fmbsnbic.c
                _TEXT                 CODE           0002:000139b0  ! 00000119
                CONST                 DATA           0003:0000000c  ! 00000000
                CONST2                DATA           0003:00000068  ! 00000000
                _DATA                 DATA           0003:000004e8  ! 00000000
/mnt/sda5/.user/root/src/openwatcom-1.9/bld/clib/mbyte/c/fmbsnbst.c
                _TEXT                 CODE           0002:00013ad0  ! 000000ce
                CONST                 DATA           0003:0000000c  ! 00000000
                CONST2                DATA           0003:00000068  ! 00000000
                _DATA                 DATA           0003:000004e8  ! 00000000
/mnt/sda5/.user/root/src/openwatcom-1.9/bld/clib/mbyte/c/fmbsncat.c
                _TEXT                 CODE           0002:00013ba0  ! 00000099
                CONST                 DATA           0003:0000000c  ! 00000000
                CONST2                DATA           0003:00000068  ! 00000000
                _DATA                 DATA           0003:000004e8  ! 00000000
/mnt/sda5/.user/root/src/openwatcom-1.9/bld/clib/mbyte/c/fmbsnccn.c
                _TEXT                 CODE           0002:00013c40  ! 00000087
                CONST                 DATA           0003:0000000c  ! 00000000
                CONST2                DATA           0003:00000068  ! 00000000
                _DATA                 DATA           0003:000004e8  ! 00000000
/mnt/sda5/.user/root/src/openwatcom-1.9/bld/clib/mbyte/c/fmbsncmp.c
                _TEXT                 CODE           0002:00013cd0  ! 0000011c
                CONST                 DATA           0003:0000000c  ! 00000000
                CONST2                DATA           0003:00000068  ! 00000000
                _DATA                 DATA           0003:000004e8  ! 00000000
/mnt/sda5/.user/root/src/openwatcom-1.9/bld/clib/mbyte/c/fmbsncpy.c
                _TEXT                 CODE           0002:00013df0  ! 00000061
                CONST                 DATA           0003:0000000c  ! 00000000
                CONST2                DATA           0003:00000068  ! 00000000
                _DATA                 DATA           0003:000004e8  ! 00000000
/mnt/sda5/.user/root/src/openwatcom-1.9/bld/clib/mbyte/c/fmbsnxtc.c
                _TEXT                 CODE           0002:00013e60  ! 0000007a
                CONST                 DATA           0003:0000000c  ! 00000000
                CONST2                DATA           0003:00000068  ! 00000000
                _DATA                 DATA           0003:000004e8  ! 00000000
/mnt/sda5/.user/root/src/openwatcom-1.9/bld/clib/mbyte/c/fmbsnicm.c
                _TEXT                 CODE           0002:00013ee0  ! 000000ef
                CONST                 DATA           0003:0000000c  ! 00000000
                CONST2                DATA           0003:00000068  ! 00000000
                _DATA                 DATA           0003:000004e8  ! 00000000
/mnt/sda5/.user/root/src/openwatcom-1.9/bld/clib/mbyte/c/_fmbsnin.c
                _TEXT                 CODE           0002:00013fd0  ! 000000b1
                CONST                 DATA           0003:0000000c  ! 00000000
                CONST2                DATA           0003:00000068  ! 00000000
                _DATA                 DATA           0003:000004e8  ! 00000000
/mnt/sda5/.user/root/src/openwatcom-1.9/bld/clib/mbyte/c/fmbsninc.c
                _TEXT                 CODE           0002:00014090  ! 00000075
                CONST                 DATA           0003:0000000c  ! 00000000
                CONST2                DATA           0003:00000068  ! 00000000
                _DATA                 DATA           0003:000004e8  ! 00000000
/mnt/sda5/.user/root/src/openwatcom-1.9/bld/clib/mbyte/c/fmbsnset.c
                _TEXT                 CODE           0002:00014110  ! 0000009a
                CONST                 DATA           0003:0000000c  ! 00000000
                CONST2                DATA           0003:00000068  ! 00000000
                _DATA                 DATA           0003:000004e8  ! 00000000
/mnt/sda5/.user/root/src/openwatcom-1.9/bld/clib/mbyte/c/fmbspbrk.c
                _TEXT                 CODE           0002:000141b0  ! 0000009f
                CONST                 DATA           0003:0000000c  ! 00000000
                CONST2                DATA           0003:00000068  ! 00000000
                _DATA                 DATA           0003:000004e8  ! 00000000
/mnt/sda5/.user/root/src/openwatcom-1.9/bld/clib/mbyte/c/fmbsrchr.c
                _TEXT                 CODE           0002:00014250  ! 000000a8
                CONST                 DATA           0003:0000000c  ! 00000000
                CONST2                DATA           0003:00000068  ! 00000000
                _DATA                 DATA           0003:000004e8  ! 00000000
/mnt/sda5/.user/root/src/openwatcom-1.9/bld/clib/mbyte/c/fmbsrev.c
                _TEXT                 CODE           0002:00014300  ! 00000173
                CONST                 DATA           0003:0000000c  ! 00000000
                CONST2                DATA           0003:00000068  ! 00000000
                _DATA                 DATA           0003:000004e8  ! 00000000
/mnt/sda5/.user/root/src/openwatcom-1.9/bld/clib/mbyte/c/fmbsrtow.c
                _TEXT                 CODE           0002:00014480  ! 0000017f
                CONST                 DATA           0003:0000000c  ! 00000000
                CONST2                DATA           0003:00000068  ! 00000000
                _DATA                 DATA           0003:000004e8  ! 00000000
/mnt/sda5/.user/root/src/openwatcom-1.9/bld/clib/mbyte/c/fmbsrt_s.c
                _TEXT                 CODE           0002:00014600  ! 0000051d
                CONST                 DATA           0003:0000000c  ! 00000000
                CONST2                DATA           0003:00000068  ! 00000000
                _DATA                 DATA           0003:000004e8  ! 00000000
/mnt/sda5/.user/root/src/openwatcom-1.9/bld/clib/mbyte/c/fmbsset.c
                _TEXT                 CODE           0002:00014b20  ! 00000055
                CONST                 DATA           0003:0000000c  ! 00000000
                CONST2                DATA           0003:00000068  ! 00000000
                _DATA                 DATA           0003:000004e8  ! 00000000
/mnt/sda5/.user/root/src/openwatcom-1.9/bld/clib/mbyte/c/fmbsspn.c
                _TEXT                 CODE           0002:00014b80  ! 00000096
                CONST                 DATA           0003:0000000c  ! 00000000
                CONST2                DATA           0003:00000068  ! 00000000
                _DATA                 DATA           0003:000004e8  ! 00000000
/mnt/sda5/.user/root/src/openwatcom-1.9/bld/clib/mbyte/c/fmbsspnp.c
                _TEXT                 CODE           0002:00014c20  ! 0000009d
                CONST                 DATA           0003:0000000c  ! 00000000
                CONST2                DATA           0003:00000068  ! 00000000
                _DATA                 DATA           0003:000004e8  ! 00000000
/mnt/sda5/.user/root/src/openwatcom-1.9/bld/clib/mbyte/c/fmbsstr.c
                _TEXT                 CODE           0002:00014cc0  ! 000000a3
                CONST                 DATA           0003:0000000c  ! 00000000
                CONST2                DATA           0003:00000068  ! 00000000
                _DATA                 DATA           0003:000004e8  ! 00000000
/mnt/sda5/.user/root/src/openwatcom-1.9/bld/clib/mbyte/c/fmbstok.c
                _TEXT                 CODE           0002:00014d70  ! 00000201
                CONST                 DATA           0003:0000000c  ! 00000000
                CONST2                DATA           0003:00000068  ! 00000000
                _DATA                 DATA           0003:000004e8  ! 00000000
/mnt/sda5/.user/root/src/openwatcom-1.9/bld/clib/mbyte/c/fmbsto_s.c
                _TEXT                 CODE           0002:00014f80  ! 000003e7
                CONST                 DATA           0003:0000000c  ! 00000000
                CONST2                DATA           0003:00000068  ! 00000000
                _DATA                 DATA           0003:000004e8  ! 00000000
/mnt/sda5/.user/root/src/openwatcom-1.9/bld/clib/mbyte/c/fmbstowc.c
                _TEXT                 CODE           0002:00015370  ! 00000134
                CONST                 DATA           0003:0000000c  ! 00000000
                CONST2                DATA           0003:00000068  ! 00000000
                _DATA                 DATA           0003:000004e8  ! 00000000
/mnt/sda5/.user/root/src/openwatcom-1.9/bld/clib/mbyte/c/fmbsupr.c
                _TEXT                 CODE           0002:000154b0  ! 000000d1
                CONST                 DATA           0003:0000000c  ! 00000000
                CONST2                DATA           0003:00000068  ! 00000000
                _DATA                 DATA           0003:000004e8  ! 00000000
/mnt/sda5/.user/root/src/openwatcom-1.9/bld/clib/mbyte/c/fmbterm.c
                _TEXT                 CODE           0002:00015590  ! 00000089
                CONST                 DATA           0003:0000000c  ! 00000000
                CONST2                DATA           0003:00000068  ! 00000000
                _DATA                 DATA           0003:000004e8  ! 00000000
/mnt/sda5/.user/root/src/openwatcom-1.9/bld/clib/mbyte/c/fmbtowc.c
                _TEXT                 CODE           0002:00015620  ! 000001b8
                CONST                 DATA           0003:0000000c  ! 00000000
                CONST2                DATA           0003:00000068  ! 00000000
                _DATA                 DATA           0003:000004e8  ! 00000000
/mnt/sda5/.user/root/src/openwatcom-1.9/bld/clib/mbyte/c/fwcrtomb.c
                _TEXT                 CODE           0002:000157e0  ! 0000007e
                CONST                 DATA           0003:0000000c  ! 00000000
                CONST2                DATA           0003:00000068  ! 00000000
                _DATA                 DATA           0003:000004e8  ! 00000000
/mnt/sda5/.user/root/src/openwatcom-1.9/bld/clib/mbyte/c/fwcrto_s.c
                _TEXT                 CODE           0002:00015860  ! 00000231
                CONST                 DATA           0003:0000000c  ! 00000000
                CONST2                DATA           0003:00000068  ! 00000000
                _DATA                 DATA           0003:000004e8  ! 00000000
/mnt/sda5/.user/root/src/openwatcom-1.9/bld/clib/mbyte/c/fwcsrtom.c
                _TEXT                 CODE           0002:00015aa0  ! 000001cc
                CONST                 DATA           0003:0000000c  ! 00000000
                CONST2                DATA           0003:00000068  ! 00000000
                _DATA                 DATA           0003:000004e8  ! 00000000
/mnt/sda5/.user/root/src/openwatcom-1.9/bld/clib/mbyte/c/fwcstomb.c
                _TEXT                 CODE           0002:00015c70  ! 00000147
                CONST                 DATA           0003:0000000c  ! 00000000
                CONST2                DATA           0003:00000068  ! 00000000
                _DATA                 DATA           0003:000004e8  ! 00000000
/mnt/sda5/.user/root/src/openwatcom-1.9/bld/clib/mbyte/c/fwcsto_s.c
                _TEXT                 CODE           0002:00015dc0  ! 000003aa
                CONST                 DATA           0003:0000000c  ! 00000000
                CONST2                DATA           0003:00000068  ! 00000000
                _DATA                 DATA           0003:000004e8  ! 00000000
/mnt/sda5/.user/root/src/openwatcom-1.9/bld/clib/mbyte/c/fwctomb.c
                _TEXT                 CODE           0002:00016170  ! 00000080
                CONST                 DATA           0003:0000000c  ! 00000000
                CONST2                DATA           0003:00000068  ! 00000000
                _DATA                 DATA           0003:000004e8  ! 00000000
/mnt/sda5/.user/root/src/openwatcom-1.9/bld/clib/mbyte/c/fwctom_s.c
                _TEXT                 CODE           0002:000161f0  ! 0000017c
                CONST                 DATA           0003:0000000c  ! 00000000
                CONST2                DATA           0003:00000068  ! 00000000
                _DATA                 DATA           0003:000004e8  ! 00000000
/mnt/sda5/.user/root/src/openwatcom-1.9/bld/clib/mbyte/c/getmbcp.c
                _TEXT                 CODE           0002:00016370  ! 0000003a
                CONST                 DATA           0003:0000000c  ! 00000000
                CONST2                DATA           0003:00000068  ! 00000000
                _DATA                 DATA           0003:000004e8  ! 00000000
/mnt/sda5/.user/root/src/openwatcom-1.9/bld/clib/mbyte/c/ismbbaln.c
                _TEXT                 CODE           0002:000163b0  ! 0000006d
                CONST                 DATA           0003:0000000c  ! 00000000
                CONST2                DATA           0003:00000068  ! 00000000
                _DATA                 DATA           0003:000004e8  ! 00000000
/mnt/sda5/.user/root/src/openwatcom-1.9/bld/clib/mbyte/c/ismbbalp.c
                _TEXT                 CODE           0002:00016420  ! 0000006d
                CONST                 DATA           0003:0000000c  ! 00000000
                CONST2                DATA           0003:00000068  ! 00000000
                _DATA                 DATA           0003:000004e8  ! 00000000
/mnt/sda5/.user/root/src/openwatcom-1.9/bld/clib/mbyte/c/ismbbgra.c
                _TEXT                 CODE           0002:00016490  ! 00000070
                CONST                 DATA           0003:0000000c  ! 00000000
                CONST2                DATA           0003:00000068  ! 00000000
                _DATA                 DATA           0003:000004e8  ! 00000000
/mnt/sda5/.user/root/src/openwatcom-1.9/bld/clib/mbyte/c/ismbbkal.c
                _TEXT                 CODE           0002:00016500  ! 00000047
                CONST                 DATA           0003:0000000c  ! 00000000
                CONST2                DATA           0003:00000068  ! 00000000
                _DATA                 DATA           0003:000004e8  ! 00000000
/mnt/sda5/.user/root/src/openwatcom-1.9/bld/clib/mbyte/c/ismbbkan.c
                _TEXT                 CODE           0002:00016550  ! 00000047
                CONST                 DATA           0003:0000000c  ! 00000000
                CONST2                DATA           0003:00000068  ! 00000000
                _DATA                 DATA           0003:000004e8  ! 00000000
/mnt/sda5/.user/root/src/openwatcom-1.9/bld/clib/mbyte/c/ismbbkpu.c
                _TEXT                 CODE           0002:000165a0  ! 00000047
                CONST                 DATA           0003:0000000c  ! 00000000
                CONST2                DATA           0003:00000068  ! 00000000
                _DATA                 DATA           0003:000004e8  ! 00000000
/mnt/sda5/.user/root/src/openwatcom-1.9/bld/clib/mbyte/c/ismbbkpr.c
                _TEXT                 CODE           0002:000165f0  ! 00000047
                CONST                 DATA           0003:0000000c  ! 00000000
                CONST2                DATA           0003:00000068  ! 00000000
                _DATA                 DATA           0003:000004e8  ! 00000000
/mnt/sda5/.user/root/src/openwatcom-1.9/bld/clib/mbyte/c/ismbbpri.c
                _TEXT                 CODE           0002:00016640  ! 0000006d
                CONST                 DATA           0003:0000000c  ! 00000000
                CONST2                DATA           0003:00000068  ! 00000000
                _DATA                 DATA           0003:000004e8  ! 00000000
/mnt/sda5/.user/root/src/openwatcom-1.9/bld/clib/mbyte/c/ismbbpun.c
                _TEXT                 CODE           0002:000166b0  ! 0000006d
                CONST                 DATA           0003:0000000c  ! 00000000
                CONST2                DATA           0003:00000068  ! 00000000
                _DATA                 DATA           0003:000004e8  ! 00000000
/mnt/sda5/.user/root/src/openwatcom-1.9/bld/clib/mbyte/c/ismbchir.c
                _TEXT                 CODE           0002:00016720  ! 0000003d
                CONST                 DATA           0003:0000000c  ! 00000000
                CONST2                DATA           0003:00000068  ! 00000000
                _DATA                 DATA           0003:000004e8  ! 00000000
/mnt/sda5/.user/root/src/openwatcom-1.9/bld/clib/mbyte/c/ismbckat.c
                _TEXT                 CODE           0002:00016760  ! 0000003d
                CONST                 DATA           0003:0000000c  ! 00000000
                CONST2                DATA           0003:00000068  ! 00000000
                _DATA                 DATA           0003:000004e8  ! 00000000
/mnt/sda5/.user/root/src/openwatcom-1.9/bld/clib/mbyte/c/mbbtombc.c
                _TEXT                 CODE           0002:000167a0  ! 0000003c
                CONST                 DATA           0003:0000000c  ! 00000000
                CONST2                DATA           0003:00000068  ! 00000000
                _DATA                 DATA           0003:000004e8  ! 00000000
/mnt/sda5/.user/root/src/openwatcom-1.9/bld/clib/mbyte/c/mbctombb.c
                _TEXT                 CODE           0002:000167e0  ! 0000003c
                CONST                 DATA           0003:0000000c  ! 00000000
                CONST2                DATA           0003:00000068  ! 00000000
                _DATA                 DATA           0003:000004e8  ! 00000000
/mnt/sda5/.user/root/src/openwatcom-1.9/bld/clib/mbyte/c/mbbtype.c
                _TEXT                 CODE           0002:00016820  ! 00000147
                CONST                 DATA           0003:0000000c  ! 00000000
                CONST2                DATA           0003:00000068  ! 00000000
                _DATA                 DATA           0003:000004e8  ! 00000000
/mnt/sda5/.user/root/src/openwatcom-1.9/bld/clib/mbyte/c/mbccmp.c
                _TEXT                 CODE           0002:00016970  ! 0000008e
                CONST                 DATA           0003:0000000c  ! 00000000
                CONST2                DATA           0003:00000068  ! 00000000
                _DATA                 DATA           0003:000004e8  ! 00000000
/mnt/sda5/.user/root/src/openwatcom-1.9/bld/clib/mbyte/c/mbccpy.c
                _TEXT                 CODE           0002:00016a00  ! 0000006f
                CONST                 DATA           0003:0000000c  ! 00000000
                CONST2                DATA           0003:00000068  ! 00000000
                _DATA                 DATA           0003:000004e8  ! 00000000
/mnt/sda5/.user/root/src/openwatcom-1.9/bld/clib/mbyte/c/mbcicmp.c
                _TEXT                 CODE           0002:00016a70  ! 0000007a
                CONST                 DATA           0003:0000000c  ! 00000000
                CONST2                DATA           0003:00000068  ! 00000000
                _DATA                 DATA           0003:000004e8  ! 00000000
/mnt/sda5/.user/root/src/openwatcom-1.9/bld/clib/mbyte/c/mbclen.c
                _TEXT                 CODE           0002:00016af0  ! 00000065
                CONST                 DATA           0003:0000000c  ! 00000000
                CONST2                DATA           0003:00000068  ! 00000000
                _DATA                 DATA           0003:000004e8  ! 00000000
/mnt/sda5/.user/root/src/openwatcom-1.9/bld/clib/mbyte/c/mbclower.c
                _TEXT                 CODE           0002:00016b60  ! 0000008b
                CONST                 DATA           0003:0000000c  ! 00000000
                CONST2                DATA           0003:00000068  ! 00000000
                _DATA                 DATA           0003:000004e8  ! 00000000
/mnt/sda5/.user/root/src/openwatcom-1.9/bld/clib/mbyte/c/mbconv.c
                _TEXT                 CODE           0002:00016bf0  ! 0000004b
                CONST                 DATA           0003:0000000c  ! 00000000
                CONST2                DATA           0003:00000068  ! 00000000
                _DATA                 DATA           0003:000004e8  ! 00000000
/mnt/sda5/.user/root/src/openwatcom-1.9/bld/clib/mbyte/c/mbcupper.c
                _TEXT                 CODE           0002:00016c40  ! 00000052
                CONST                 DATA           0003:0000000c  ! 00000000
                CONST2                DATA           0003:00000068  ! 00000000
                _DATA                 DATA           0003:000004e8  ! 00000000
/mnt/sda5/.user/root/src/openwatcom-1.9/bld/clib/mbyte/c/mbgetcod.c
                _TEXT                 CODE           0002:00016ca0  ! 000000ca
                CONST                 DATA           0003:0000000c  ! 00000000
                CONST2                DATA           0003:00000068  ! 00000000
                _DATA                 DATA           0003:000004e8  ! 00000000
/mnt/sda5/.user/root/src/openwatcom-1.9/bld/clib/mbyte/c/mbisalnu.c
                _TEXT                 CODE           0002:00016d70  ! 0000004b
                CONST                 DATA           0003:0000000c  ! 00000000
                CONST2                DATA           0003:00000068  ! 00000000
                _DATA                 DATA           0003:000004e8  ! 00000000
/mnt/sda5/.user/root/src/openwatcom-1.9/bld/clib/mbyte/c/mbisalph.c
                _TEXT                 CODE           0002:00016dc0  ! 0000009a
                CONST                 DATA           0003:0000000c  ! 00000000
                CONST2                DATA           0003:00000068  ! 00000000
                _DATA                 DATA           0003:000004e8  ! 00000000
/mnt/sda5/.user/root/src/openwatcom-1.9/bld/clib/mbyte/c/mbiscntr.c
                _TEXT                 CODE           0002:00016e60  ! 00000044
                CONST                 DATA           0003:0000000c  ! 00000000
                CONST2                DATA           0003:00000068  ! 00000000
                _DATA                 DATA           0003:000004e8  ! 00000000
/mnt/sda5/.user/root/src/openwatcom-1.9/bld/clib/mbyte/c/mbisdbcs.c
                _TEXT                 CODE           0002:00016eb0  ! 00000000
                CONST                 DATA           0003:0000000c  ! 00000000
                CONST2                DATA           0003:00000068  ! 00000000
                _DATA                 DATA           0003:000004e8  ! 00000000
                _BSS                  BSS            0003:000010c4  ! 00000004
/mnt/sda5/.user/root/src/openwatcom-1.9/bld/clib/mbyte/c/mbisdigi.c
                _TEXT                 CODE           0002:00016eb0  ! 0000005d
                CONST                 DATA           0003:0000000c  ! 00000000
                CONST2                DATA           0003:00000068  ! 00000000
                _DATA                 DATA           0003:000004e8  ! 00000000
/mnt/sda5/.user/root/src/openwatcom-1.9/bld/clib/mbyte/c/mbisgrap.c
                _TEXT                 CODE           0002:00016f10  ! 0000004d
                CONST                 DATA           0003:0000000c  ! 00000000
                CONST2                DATA           0003:00000068  ! 00000000
                _DATA                 DATA           0003:000004e8  ! 00000000
/mnt/sda5/.user/root/src/openwatcom-1.9/bld/clib/mbyte/c/mbislead.c
                _TEXT                 CODE           0002:00016f60  ! 0000004e
                CONST                 DATA           0003:0000000c  ! 00000000
                CONST2                DATA           0003:00000068  ! 00000000
                _DATA                 DATA           0003:000004e8  ! 00000000
                _BSS                  BSS            0003:000010c8  ! 00000101
                XIB                   DATA           0003:00000c88  ! 00000000
                XI                    DATA           0003:00000c94  ! 00000006
                XIE                   DATA           0003:00000cee  ! 00000000
/mnt/sda5/.user/root/src/openwatcom-1.9/bld/clib/mbyte/c/mbislegl.c
                _TEXT                 CODE           0002:00016fb0  ! 00000079
                CONST                 DATA           0003:0000000c  ! 00000000
                CONST2                DATA           0003:00000068  ! 00000000
                _DATA                 DATA           0003:000004e8  ! 00000000
/mnt/sda5/.user/root/src/openwatcom-1.9/bld/clib/mbyte/c/mbislowe.c
                _TEXT                 CODE           0002:00017030  ! 0000005d
                CONST                 DATA           0003:0000000c  ! 00000000
                CONST2                DATA           0003:00000068  ! 00000000
                _DATA                 DATA           0003:000004e8  ! 00000000
/mnt/sda5/.user/root/src/openwatcom-1.9/bld/clib/mbyte/c/mbisprin.c
                _TEXT                 CODE           0002:00017090  ! 0000005d
                CONST                 DATA           0003:0000000c  ! 00000000
                CONST2                DATA           0003:00000068  ! 00000000
                _DATA                 DATA           0003:000004e8  ! 00000000
/mnt/sda5/.user/root/src/openwatcom-1.9/bld/clib/mbyte/c/mbispunc.c
                _TEXT                 CODE           0002:000170f0  ! 00000084
                CONST                 DATA           0003:0000000c  ! 00000000
                CONST2                DATA           0003:00000068  ! 00000000
                _DATA                 DATA           0003:000004e8  ! 00000000
/mnt/sda5/.user/root/src/openwatcom-1.9/bld/clib/mbyte/c/mbisspac.c
                _TEXT                 CODE           0002:00017180  ! 0000005d
                CONST                 DATA           0003:0000000c  ! 00000000
                CONST2                DATA           0003:00000068  ! 00000000
                _DATA                 DATA           0003:000004e8  ! 00000000
/mnt/sda5/.user/root/src/openwatcom-1.9/bld/clib/mbyte/c/mbissymb.c
                _TEXT                 CODE           0002:000171e0  ! 00000067
                CONST                 DATA           0003:0000000c  ! 00000000
                CONST2                DATA           0003:00000068  ! 00000000
                _DATA                 DATA           0003:000004e8  ! 00000000
/mnt/sda5/.user/root/src/openwatcom-1.9/bld/clib/mbyte/c/mbistrai.c
                _TEXT                 CODE           0002:00017250  ! 00000068
                CONST                 DATA           0003:0000000c  ! 00000000
                CONST2                DATA           0003:00000068  ! 00000000
                _DATA                 DATA           0003:000004e8  ! 00000000
/mnt/sda5/.user/root/src/openwatcom-1.9/bld/clib/mbyte/c/mbisuppe.c
                _TEXT                 CODE           0002:000172c0  ! 0000005d
                CONST                 DATA           0003:0000000c  ! 00000000
                CONST2                DATA           0003:00000068  ! 00000000
                _DATA                 DATA           0003:000004e8  ! 00000000
/mnt/sda5/.user/root/src/openwatcom-1.9/bld/clib/mbyte/c/mbisxdig.c
                _TEXT                 CODE           0002:00017320  ! 0000005d
                CONST                 DATA           0003:0000000c  ! 00000000
                CONST2                DATA           0003:00000068  ! 00000000
                _DATA                 DATA           0003:000004e8  ! 00000000
/mnt/sda5/.user/root/src/openwatcom-1.9/bld/clib/mbyte/c/mblen.c
                _TEXT                 CODE           0002:00017380  ! 0000002e
                CONST                 DATA           0003:0000000c  ! 00000000
                CONST2                DATA           0003:00000068  ! 00000000
                _DATA                 DATA           0003:000004e8  ! 00000000
/mnt/sda5/.user/root/src/openwatcom-1.9/bld/clib/mbyte/c/mbputchr.c
                _TEXT                 CODE           0002:000173b0  ! 00000065
                CONST                 DATA           0003:0000000c  ! 00000000
                CONST2                DATA           0003:00000068  ! 00000000
                _DATA                 DATA           0003:000004e8  ! 00000000
/mnt/sda5/.user/root/src/openwatcom-1.9/bld/clib/mbyte/c/mbrlen.c
                _TEXT                 CODE           0002:00017420  ! 00000031
                CONST                 DATA           0003:0000000c  ! 00000000
                CONST2                DATA           0003:00000068  ! 00000000
                _DATA                 DATA           0003:000004e8  ! 00000000
/mnt/sda5/.user/root/src/openwatcom-1.9/bld/clib/mbyte/c/mbrtowc.c
                _TEXT                 CODE           0002:00017460  ! 000000b7
                CONST                 DATA           0003:0000000c  ! 00000000
                CONST2                DATA           0003:00000068  ! 00000000
                _DATA                 DATA           0003:000004e8  ! 00000000
/mnt/sda5/.user/root/src/openwatcom-1.9/bld/clib/mbyte/c/mbsbtype.c
                _TEXT                 CODE           0002:00017520  ! 00000061
                CONST                 DATA           0003:0000000c  ! 00000000
                CONST2                DATA           0003:00000068  ! 00000000
                _DATA                 DATA           0003:000004e8  ! 00000000
/mnt/sda5/.user/root/src/openwatcom-1.9/bld/clib/mbyte/c/mbscat.c
                _TEXT                 CODE           0002:00017590  ! 0000002c
                CONST                 DATA           0003:0000000c  ! 00000000
                CONST2                DATA           0003:00000068  ! 00000000
                _DATA                 DATA           0003:000004e8  ! 00000000
/mnt/sda5/.user/root/src/openwatcom-1.9/bld/clib/mbyte/c/mbschr.c
                _TEXT                 CODE           0002:000175c0  ! 00000081
                CONST                 DATA           0003:0000000c  ! 00000000
                CONST2                DATA           0003:00000068  ! 00000000
                _DATA                 DATA           0003:000004e8  ! 00000000
/mnt/sda5/.user/root/src/openwatcom-1.9/bld/clib/mbyte/c/mbscmp.c
                _TEXT                 CODE           0002:00017650  ! 000000a5
                CONST                 DATA           0003:0000000c  ! 00000000
                CONST2                DATA           0003:00000068  ! 00000000
                _DATA                 DATA           0003:000004e8  ! 00000000
/mnt/sda5/.user/root/src/openwatcom-1.9/bld/clib/mbyte/c/mbscpy.c
                _TEXT                 CODE           0002:00017700  ! 0000002c
                CONST                 DATA           0003:0000000c  ! 00000000
                CONST2                DATA           0003:00000068  ! 00000000
                _DATA                 DATA           0003:000004e8  ! 00000000
/mnt/sda5/.user/root/src/openwatcom-1.9/bld/clib/mbyte/c/mbscspn.c
                _TEXT                 CODE           0002:00017730  ! 00000060
                CONST                 DATA           0003:0000000c  ! 00000000
                CONST2                DATA           0003:00000068  ! 00000000
                _DATA                 DATA           0003:000004e8  ! 00000000
/mnt/sda5/.user/root/src/openwatcom-1.9/bld/clib/mbyte/c/mbsdec.c
                _TEXT                 CODE           0002:00017790  ! 000000d1
                CONST                 DATA           0003:0000000c  ! 00000000
                CONST2                DATA           0003:00000068  ! 00000000
                _DATA                 DATA           0003:000004e8  ! 00000000
/mnt/sda5/.user/root/src/openwatcom-1.9/bld/clib/mbyte/c/mbsdup.c
                _TEXT                 CODE           0002:00017870  ! 0000004e
                CONST                 DATA           0003:0000000c  ! 00000000
                CONST2                DATA           0003:00000068  ! 00000000
                _DATA                 DATA           0003:000004e8  ! 00000000
/mnt/sda5/.user/root/src/openwatcom-1.9/bld/clib/mbyte/c/mbsicmp.c
                _TEXT                 CODE           0002:000178c0  ! 000000a5
                CONST                 DATA           0003:0000000c  ! 00000000
                CONST2                DATA           0003:00000068  ! 00000000
                _DATA                 DATA           0003:000004e8  ! 00000000
/mnt/sda5/.user/root/src/openwatcom-1.9/bld/clib/mbyte/c/mbsinc.c
                _TEXT                 CODE           0002:00017970  ! 0000006c
                CONST                 DATA           0003:0000000c  ! 00000000
                CONST2                DATA           0003:00000068  ! 00000000
                _DATA                 DATA           0003:000004e8  ! 00000000
/mnt/sda5/.user/root/src/openwatcom-1.9/bld/clib/mbyte/c/mbsinit.c
                _TEXT                 CODE           0002:000179e0  ! 0000003b
                CONST                 DATA           0003:0000000c  ! 00000000
                CONST2                DATA           0003:00000068  ! 00000000
                _DATA                 DATA           0003:000004e8  ! 00000000
/mnt/sda5/.user/root/src/openwatcom-1.9/bld/clib/mbyte/c/_mbslen.c
                _TEXT                 CODE           0002:00017a20  ! 00000098
                CONST                 DATA           0003:0000000c  ! 00000000
                CONST2                DATA           0003:00000068  ! 00000000
                _DATA                 DATA           0003:000004e8  ! 00000000
/mnt/sda5/.user/root/src/openwatcom-1.9/bld/clib/mbyte/c/mbslen.c
                _TEXT                 CODE           0002:00017ac0  ! 00000049
                CONST                 DATA           0003:0000000c  ! 00000000
                CONST2                DATA           0003:00000068  ! 00000000
                _DATA                 DATA           0003:000004e8  ! 00000000
/mnt/sda5/.user/root/src/openwatcom-1.9/bld/clib/mbyte/c/mbslwr.c
                _TEXT                 CODE           0002:00017b10  ! 00000075
                CONST                 DATA           0003:0000000c  ! 00000000
                CONST2                DATA           0003:00000068  ! 00000000
                _DATA                 DATA           0003:000004e8  ! 00000000
/mnt/sda5/.user/root/src/openwatcom-1.9/bld/clib/mbyte/c/mbsnbcat.c
                _TEXT                 CODE           0002:00017b90  ! 00000127
                CONST                 DATA           0003:0000000c  ! 00000000
                CONST2                DATA           0003:00000068  ! 00000000
                _DATA                 DATA           0003:000004e8  ! 00000000
/mnt/sda5/.user/root/src/openwatcom-1.9/bld/clib/mbyte/c/mbsnbcmp.c
                _TEXT                 CODE           0002:00017cc0  ! 000000c6
                CONST                 DATA           0003:0000000c  ! 00000000
                CONST2                DATA           0003:00000068  ! 00000000
                _DATA                 DATA           0003:000004e8  ! 00000000
/mnt/sda5/.user/root/src/openwatcom-1.9/bld/clib/mbyte/c/mbsnbcnt.c
                _TEXT                 CODE           0002:00017d90  ! 000000b1
                CONST                 DATA           0003:0000000c  ! 00000000
                CONST2                DATA           0003:00000068  ! 00000000
                _DATA                 DATA           0003:000004e8  ! 00000000
/mnt/sda5/.user/root/src/openwatcom-1.9/bld/clib/mbyte/c/mbsnbcpy.c
                _TEXT                 CODE           0002:00017e50  ! 000000b0
                CONST                 DATA           0003:0000000c  ! 00000000
                CONST2                DATA           0003:00000068  ! 00000000
                _DATA                 DATA           0003:000004e8  ! 00000000
/mnt/sda5/.user/root/src/openwatcom-1.9/bld/clib/mbyte/c/mbsnbicm.c
                _TEXT                 CODE           0002:00017f00  ! 000000c6
                CONST                 DATA           0003:0000000c  ! 00000000
                CONST2                DATA           0003:00000068  ! 00000000
                _DATA                 DATA           0003:000004e8  ! 00000000
/mnt/sda5/.user/root/src/openwatcom-1.9/bld/clib/mbyte/c/mbsnbset.c
                _TEXT                 CODE           0002:00017fd0  ! 0000007c
                CONST                 DATA           0003:0000000c  ! 00000000
                CONST2                DATA           0003:00000068  ! 00000000
                _DATA                 DATA           0003:000004e8  ! 00000000
/mnt/sda5/.user/root/src/openwatcom-1.9/bld/clib/mbyte/c/mbsncat.c
                _TEXT                 CODE           0002:00018050  ! 0000005b
                CONST                 DATA           0003:0000000c  ! 00000000
                CONST2                DATA           0003:00000068  ! 00000000
                _DATA                 DATA           0003:000004e8  ! 00000000
/mnt/sda5/.user/root/src/openwatcom-1.9/bld/clib/mbyte/c/mbsnccnt.c
                _TEXT                 CODE           0002:000180b0  ! 00000070
                CONST                 DATA           0003:0000000c  ! 00000000
                CONST2                DATA           0003:00000068  ! 00000000
                _DATA                 DATA           0003:000004e8  ! 00000000
/mnt/sda5/.user/root/src/openwatcom-1.9/bld/clib/mbyte/c/mbsncmp.c
                _TEXT                 CODE           0002:00018120  ! 000000c3
                CONST                 DATA           0003:0000000c  ! 00000000
                CONST2                DATA           0003:00000068  ! 00000000
                _DATA                 DATA           0003:000004e8  ! 00000000
/mnt/sda5/.user/root/src/openwatcom-1.9/bld/clib/mbyte/c/mbsncpy.c
                _TEXT                 CODE           0002:000181f0  ! 0000003e
                CONST                 DATA           0003:0000000c  ! 00000000
                CONST2                DATA           0003:00000068  ! 00000000
                _DATA                 DATA           0003:000004e8  ! 00000000
/mnt/sda5/.user/root/src/openwatcom-1.9/bld/clib/mbyte/c/mbsnextc.c
                _TEXT                 CODE           0002:00018230  ! 00000070
                CONST                 DATA           0003:0000000c  ! 00000000
                CONST2                DATA           0003:00000068  ! 00000000
                _DATA                 DATA           0003:000004e8  ! 00000000
/mnt/sda5/.user/root/src/openwatcom-1.9/bld/clib/mbyte/c/mbsnicmp.c
                _TEXT                 CODE           0002:000182a0  ! 000000a7
                CONST                 DATA           0003:0000000c  ! 00000000
                CONST2                DATA           0003:00000068  ! 00000000
                _DATA                 DATA           0003:000004e8  ! 00000000
/mnt/sda5/.user/root/src/openwatcom-1.9/bld/clib/mbyte/c/_mbsninc.c
                _TEXT                 CODE           0002:00018350  ! 0000008f
                CONST                 DATA           0003:0000000c  ! 00000000
                CONST2                DATA           0003:00000068  ! 00000000
                _DATA                 DATA           0003:000004e8  ! 00000000
/mnt/sda5/.user/root/src/openwatcom-1.9/bld/clib/mbyte/c/mbsninc.c
                _TEXT                 CODE           0002:000183e0  ! 0000004d
                CONST                 DATA           0003:0000000c  ! 00000000
                CONST2                DATA           0003:00000068  ! 00000000
                _DATA                 DATA           0003:000004e8  ! 00000000
/mnt/sda5/.user/root/src/openwatcom-1.9/bld/clib/mbyte/c/mbsnset.c
                _TEXT                 CODE           0002:00018430  ! 00000069
                CONST                 DATA           0003:0000000c  ! 00000000
                CONST2                DATA           0003:00000068  ! 00000000
                _DATA                 DATA           0003:000004e8  ! 00000000
/mnt/sda5/.user/root/src/openwatcom-1.9/bld/clib/mbyte/c/mbspbrk.c
                _TEXT                 CODE           0002:000184a0  ! 00000060
                CONST                 DATA           0003:0000000c  ! 00000000
                CONST2                DATA           0003:00000068  ! 00000000
                _DATA                 DATA           0003:000004e8  ! 00000000
/mnt/sda5/.user/root/src/openwatcom-1.9/bld/clib/mbyte/c/mbsrchr.c
                _TEXT                 CODE           0002:00018500  ! 0000006b
                CONST                 DATA           0003:0000000c  ! 00000000
                CONST2                DATA           0003:00000068  ! 00000000
                _DATA                 DATA           0003:000004e8  ! 00000000
/mnt/sda5/.user/root/src/openwatcom-1.9/bld/clib/mbyte/c/mbsrev.c
                _TEXT                 CODE           0002:00018570  ! 000000cd
                CONST                 DATA           0003:0000000c  ! 00000000
                CONST2                DATA           0003:00000068  ! 00000000
                _DATA                 DATA           0003:000004e8  ! 00000000
/mnt/sda5/.user/root/src/openwatcom-1.9/bld/clib/mbyte/c/mbsrtowc.c
                _TEXT                 CODE           0002:00018640  ! 000000ee
                CONST                 DATA           0003:0000000c  ! 00000000
                CONST2                DATA           0003:00000068  ! 00000000
                _DATA                 DATA           0003:000004e8  ! 00000000
/mnt/sda5/.user/root/src/openwatcom-1.9/bld/clib/mbyte/c/mbsrto_s.c
                _TEXT                 CODE           0002:00018730  ! 00000414
                CONST                 DATA           0003:0000000c  ! 00000000
                CONST2                DATA           0003:00000068  ! 00000000
                _DATA                 DATA           0003:000004e8  ! 00000000
/mnt/sda5/.user/root/src/openwatcom-1.9/bld/clib/mbyte/c/mbsset.c
                _TEXT                 CODE           0002:00018b50  ! 0000003a
                CONST                 DATA           0003:0000000c  ! 00000000
                CONST2                DATA           0003:00000068  ! 00000000
                _DATA                 DATA           0003:000004e8  ! 00000000
/mnt/sda5/.user/root/src/openwatcom-1.9/bld/clib/mbyte/c/mbsspn.c
                _TEXT                 CODE           0002:00018b90  ! 00000060
                CONST                 DATA           0003:0000000c  ! 00000000
                CONST2                DATA           0003:00000068  ! 00000000
                _DATA                 DATA           0003:000004e8  ! 00000000
/mnt/sda5/.user/root/src/openwatcom-1.9/bld/clib/mbyte/c/mbsspnp.c
                _TEXT                 CODE           0002:00018bf0  ! 0000005e
                CONST                 DATA           0003:0000000c  ! 00000000
                CONST2                DATA           0003:00000068  ! 00000000
                _DATA                 DATA           0003:000004e8  ! 00000000
/mnt/sda5/.user/root/src/openwatcom-1.9/bld/clib/mbyte/c/mbsstr.c
                _TEXT                 CODE           0002:00018c50  ! 00000063
                CONST                 DATA           0003:0000000c  ! 00000000
                CONST2                DATA           0003:00000068  ! 00000000
                _DATA                 DATA           0003:000004e8  ! 00000000
/mnt/sda5/.user/root/src/openwatcom-1.9/bld/clib/mbyte/c/mbstok.c
                _TEXT                 CODE           0002:00018cc0  ! 00000135
                CONST                 DATA           0003:0000000c  ! 00000000
                CONST2                DATA           0003:00000068  ! 00000000
                _DATA                 DATA           0003:000004e8  ! 00000000
/mnt/sda5/.user/root/src/openwatcom-1.9/bld/clib/mbyte/c/mbstow_s.c
                _TEXT                 CODE           0002:00018e00  ! 0000036b
                CONST                 DATA           0003:0000000c  ! 00000000
                CONST2                DATA           0003:00000068  ! 00000000
                _DATA                 DATA           0003:000004e8  ! 00000000
/mnt/sda5/.user/root/src/openwatcom-1.9/bld/clib/mbyte/c/mbstowcs.c
                _TEXT                 CODE           0002:00019170  ! 000000d4
                CONST                 DATA           0003:0000000c  ! 00000000
                CONST2                DATA           0003:00000068  ! 00000000
                _DATA                 DATA           0003:000004e8  ! 00000000
/mnt/sda5/.user/root/src/openwatcom-1.9/bld/clib/mbyte/c/mbsupr.c
                _TEXT                 CODE           0002:00019250  ! 00000075
                CONST                 DATA           0003:0000000c  ! 00000000
                CONST2                DATA           0003:00000068  ! 00000000
                _DATA                 DATA           0003:000004e8  ! 00000000
/mnt/sda5/.user/root/src/openwatcom-1.9/bld/clib/mbyte/c/mbterm.c
                _TEXT                 CODE           0002:000192d0  ! 0000007b
                CONST                 DATA           0003:0000000c  ! 00000000
                CONST2                DATA           0003:00000068  ! 00000000
                _DATA                 DATA           0003:000004e8  ! 00000000
/mnt/sda5/.user/root/src/openwatcom-1.9/bld/clib/mbyte/c/mbtowc.c
                _TEXT                 CODE           0002:00019350  ! 00000168
                CONST                 DATA           0003:0000000c  ! 00000000
                CONST2                DATA           0003:00000068  ! 00000000
                _DATA                 DATA           0003:000004e8  ! 00000000
/mnt/sda5/.user/root/src/openwatcom-1.9/bld/clib/mbyte/c/setmbcp.c
                _TEXT                 CODE           0002:000194c0  ! 00000076
                CONST                 DATA           0003:0000000c  ! 00000000
                CONST2                DATA           0003:00000068  ! 00000000
                _DATA                 DATA           0003:000004e8  ! 00000000
/mnt/sda5/.user/root/src/openwatcom-1.9/bld/clib/mbyte/c/sisinit.c
                _TEXT                 CODE           0002:00019540  ! 00000033
                CONST                 DATA           0003:0000000c  ! 00000000
                CONST2                DATA           0003:00000068  ! 00000000
                _DATA                 DATA           0003:000004e8  ! 00000000
/mnt/sda5/.user/root/src/openwatcom-1.9/bld/clib/mbyte/c/wcrtomb.c
                _TEXT                 CODE           0002:00019580  ! 0000006d
                CONST                 DATA           0003:0000000c  ! 00000000
                CONST2                DATA           0003:00000068  ! 00000000
                _DATA                 DATA           0003:000004e8  ! 00000000
/mnt/sda5/.user/root/src/openwatcom-1.9/bld/clib/mbyte/c/wcrtom_s.c
                _TEXT                 CODE           0002:000195f0  ! 000001f5
                CONST                 DATA           0003:0000000c  ! 00000000
                CONST2                DATA           0003:00000068  ! 00000000
                _DATA                 DATA           0003:000004e8  ! 00000000
/mnt/sda5/.user/root/src/openwatcom-1.9/bld/clib/mbyte/c/wcsrtomb.c
                _TEXT                 CODE           0002:000197f0  ! 0000011e
                CONST                 DATA           0003:0000000c  ! 00000000
                CONST2                DATA           0003:00000068  ! 00000000
                _DATA                 DATA           0003:000004e8  ! 00000000
/mnt/sda5/.user/root/src/openwatcom-1.9/bld/clib/mbyte/c/wcsrto_s.c
                _TEXT                 CODE           0002:00019910  ! 000003bf
                CONST                 DATA           0003:0000000c  ! 00000000
                CONST2                DATA           0003:00000068  ! 00000000
                _DATA                 DATA           0003:000004e8  ! 00000000
/mnt/sda5/.user/root/src/openwatcom-1.9/bld/clib/mbyte/c/wcstombs.c
                _TEXT                 CODE           0002:00019cd0  ! 000000f3
                CONST                 DATA           0003:0000000c  ! 00000000
                CONST2                DATA           0003:00000068  ! 00000000
                _DATA                 DATA           0003:000004e8  ! 00000000
/mnt/sda5/.user/root/src/openwatcom-1.9/bld/clib/mbyte/c/wcstom_s.c
                _TEXT                 CODE           0002:00019dd0  ! 00000333
                CONST                 DATA           0003:0000000c  ! 00000000
                CONST2                DATA           0003:00000068  ! 00000000
                _DATA                 DATA           0003:000004e8  ! 00000000
/mnt/sda5/.user/root/src/openwatcom-1.9/bld/clib/mbyte/c/wctob.c
                _TEXT                 CODE           0002:0001a110  ! 00000057
                CONST                 DATA           0003:0000000c  ! 00000000
                CONST2                DATA           0003:00000068  ! 00000000
                _DATA                 DATA           0003:000004e8  ! 00000000
/mnt/sda5/.user/root/src/openwatcom-1.9/bld/clib/mbyte/c/wctomb.c
                _TEXT                 CODE           0002:0001a170  ! 0000006b
                CONST                 DATA           0003:0000000c  ! 00000000
                CONST2                DATA           0003:00000068  ! 00000000
                _DATA                 DATA           0003:000004e8  ! 00000000
/mnt/sda5/.user/root/src/openwatcom-1.9/bld/clib/mbyte/c/wctomb_s.c
                _TEXT                 CODE           0002:0001a1e0  ! 00000166
                CONST                 DATA           0003:0000000c  ! 00000000
                CONST2                DATA           0003:00000068  ! 00000000
                _DATA                 DATA           0003:000004e8  ! 00000000
/mnt/sda5/.user/root/src/openwatcom-1.9/bld/clib/mbyte/c/wrlang.c
                _TEXT                 CODE           0002:0001a350  ! 000000fe
                CONST                 DATA           0003:0000000c  ! 00000000
                CONST2                DATA           0003:00000068  ! 00000000
                _DATA                 DATA           0003:000004e8  ! 00000000
/mnt/sda5/.user/root/src/openwatcom-1.9/bld/clib/memory/c/bcmp.c
                _TEXT                 CODE           0002:0001a450  ! 00000041
                CONST                 DATA           0003:0000000c  ! 00000000
                CONST2                DATA           0003:00000068  ! 00000000
                _DATA                 DATA           0003:000004e8  ! 00000000
/mnt/sda5/.user/root/src/openwatcom-1.9/bld/clib/memory/c/bcopy.c
                _TEXT                 CODE           0002:0001a4a0  ! 0000002a
                CONST                 DATA           0003:0000000c  ! 00000000
                CONST2                DATA           0003:00000068  ! 00000000
                _DATA                 DATA           0003:000004e8  ! 00000000
/mnt/sda5/.user/root/src/openwatcom-1.9/bld/clib/memory/c/bzero.c
                _TEXT                 CODE           0002:0001a4d0  ! 00000028
                CONST                 DATA           0003:0000000c  ! 00000000
                CONST2                DATA           0003:00000068  ! 00000000
                _DATA                 DATA           0003:000004e8  ! 00000000
/mnt/sda5/.user/root/src/openwatcom-1.9/bld/clib/memory/c/fmemccpy.c
                _TEXT                 CODE           0002:0001a500  ! 000000a4
                CONST                 DATA           0003:0000000c  ! 00000000
                CONST2                DATA           0003:00000068  ! 00000000
                _DATA                 DATA           0003:000004e8  ! 00000000
/mnt/sda5/.user/root/src/openwatcom-1.9/bld/clib/memory/c/fmemchr.c
                _TEXT                 CODE           0002:0001a5b0  ! 00000076
                CONST                 DATA           0003:0000000c  ! 00000000
                CONST2                DATA           0003:00000068  ! 00000000
                _DATA                 DATA           0003:000004e8  ! 00000000
/mnt/sda5/.user/root/src/openwatcom-1.9/bld/clib/memory/c/fmemcmp.c
                _TEXT                 CODE           0002:0001a630  ! 00000099
                CONST                 DATA           0003:0000000c  ! 00000000
                CONST2                DATA           0003:00000068  ! 00000000
                _DATA                 DATA           0003:000004e8  ! 00000000
/mnt/sda5/.user/root/src/openwatcom-1.9/bld/clib/memory/c/fmemcpy.c
                _TEXT                 CODE           0002:0001a6d0  ! 00000082
                CONST                 DATA           0003:0000000c  ! 00000000
                CONST2                DATA           0003:00000068  ! 00000000
                _DATA                 DATA           0003:000004e8  ! 00000000
/mnt/sda5/.user/root/src/openwatcom-1.9/bld/clib/memory/c/fmemicmp.c
                _TEXT                 CODE           0002:0001a760  ! 000000be
                CONST                 DATA           0003:0000000c  ! 00000000
                CONST2                DATA           0003:00000068  ! 00000000
                _DATA                 DATA           0003:000004e8  ! 00000000
/mnt/sda5/.user/root/src/openwatcom-1.9/bld/clib/memory/c/fmemmove.c
                _TEXT                 CODE           0002:0001a820  ! 0000010f
                CONST                 DATA           0003:0000000c  ! 00000000
                CONST2                DATA           0003:00000068  ! 00000000
                _DATA                 DATA           0003:000004e8  ! 00000000
/mnt/sda5/.user/root/src/openwatcom-1.9/bld/clib/memory/c/fmemset.c
                _TEXT                 CODE           0002:0001a930  ! 00000060
                CONST                 DATA           0003:0000000c  ! 00000000
                CONST2                DATA           0003:00000068  ! 00000000
                _DATA                 DATA           0003:000004e8  ! 00000000
/mnt/sda5/.user/root/src/openwatcom-1.9/bld/clib/memory/c/memccpy.c
                _TEXT                 CODE           0002:0001a990  ! 00000068
                CONST                 DATA           0003:0000000c  ! 00000000
                CONST2                DATA           0003:00000068  ! 00000000
                _DATA                 DATA           0003:000004e8  ! 00000000
/mnt/sda5/.user/root/src/openwatcom-1.9/bld/clib/memory/c/memchr.c
                _TEXT                 CODE           0002:0001aa00  ! 00000052
                CONST                 DATA           0003:0000000c  ! 00000000
                CONST2                DATA           0003:00000068  ! 00000000
                _DATA                 DATA           0003:000004e8  ! 00000000
/mnt/sda5/.user/root/src/openwatcom-1.9/bld/clib/memory/c/memcmp.c
                _TEXT                 CODE           0002:0001aa60  ! 00000068
                CONST                 DATA           0003:0000000c  ! 00000000
                CONST2                DATA           0003:00000068  ! 00000000
                _DATA                 DATA           0003:000004e8  ! 00000000
/mnt/sda5/.user/root/src/openwatcom-1.9/bld/clib/memory/c/memcpy.c
                _TEXT                 CODE           0002:0001aad0  ! 0000004d
                CONST                 DATA           0003:0000000c  ! 00000000
                CONST2                DATA           0003:00000068  ! 00000000
                _DATA                 DATA           0003:000004e8  ! 00000000
/mnt/sda5/.user/root/src/openwatcom-1.9/bld/clib/memory/c/memicmp.c
                _TEXT                 CODE           0002:0001ab20  ! 00000091
                CONST                 DATA           0003:0000000c  ! 00000000
                CONST2                DATA           0003:00000068  ! 00000000
                _DATA                 DATA           0003:000004e8  ! 00000000
/mnt/sda5/.user/root/src/openwatcom-1.9/bld/clib/memory/c/memmove.c
                _TEXT                 CODE           0002:0001abc0  ! 000000a4
                CONST                 DATA           0003:0000000c  ! 00000000
                CONST2                DATA           0003:00000068  ! 00000000
                _DATA                 DATA           0003:000004e8  ! 00000000
/mnt/sda5/.user/root/src/openwatcom-1.9/bld/clib/memory/c/memset.c
                _TEXT                 CODE           0002:0001ac70  ! 00000042
                CONST                 DATA           0003:0000000c  ! 00000000
                CONST2                DATA           0003:00000068  ! 00000000
                _DATA                 DATA           0003:000004e8  ! 00000000
/mnt/sda5/.user/root/src/openwatcom-1.9/bld/clib/memory/c/movedata.c
                _TEXT                 CODE           0002:0001acc0  ! 00000044
                CONST                 DATA           0003:0000000c  ! 00000000
                CONST2                DATA           0003:00000068  ! 00000000
                _DATA                 DATA           0003:000004e8  ! 00000000
/mnt/sda5/.user/root/src/openwatcom-1.9/bld/clib/memory/c/memcpy_s.c
                _TEXT                 CODE           0002:0001ad10  ! 000001e3
                CONST                 DATA           0003:0000000c  ! 00000000
                CONST2                DATA           0003:00000068  ! 00000000
                _DATA                 DATA           0003:000004e8  ! 00000000
/mnt/sda5/.user/root/src/openwatcom-1.9/bld/clib/memory/c/memmov_s.c
                _TEXT                 CODE           0002:0001af00  ! 00000180
                CONST                 DATA           0003:0000000c  ! 00000000
                CONST2                DATA           0003:00000068  ! 00000000
                _DATA                 DATA           0003:000004e8  ! 00000000
/mnt/sda5/.user/root/src/openwatcom-1.9/bld/clib/memory/c/swab.c
                _TEXT                 CODE           0002:0001b080  ! 0000004f
                CONST                 DATA           0003:0000000c  ! 00000000
                CONST2                DATA           0003:00000068  ! 00000000
                _DATA                 DATA           0003:000004e8  ! 00000000
/mnt/sda5/.user/root/src/openwatcom-1.9/bld/clib/memory/c/umemchr.c
                _TEXT                 CODE           0002:0001b0d0  ! 00000050
                CONST                 DATA           0003:0000000c  ! 00000000
                CONST2                DATA           0003:00000068  ! 00000000
                _DATA                 DATA           0003:000004e8  ! 00000000
/mnt/sda5/.user/root/src/openwatcom-1.9/bld/clib/memory/c/umemcmp.c
                _TEXT                 CODE           0002:0001b120  ! 0000006e
                CONST                 DATA           0003:0000000c  ! 00000000
                CONST2                DATA           0003:00000068  ! 00000000
                _DATA                 DATA           0003:000004e8  ! 00000000
/mnt/sda5/.user/root/src/openwatcom-1.9/bld/clib/memory/c/umemcpy.c
                _TEXT                 CODE           0002:0001b190  ! 00000051
                CONST                 DATA           0003:0000000c  ! 00000000
                CONST2                DATA           0003:00000068  ! 00000000
                _DATA                 DATA           0003:000004e8  ! 00000000
/mnt/sda5/.user/root/src/openwatcom-1.9/bld/clib/memory/c/umemmov.c
                _TEXT                 CODE           0002:0001b1f0  ! 000000ad
                CONST                 DATA           0003:0000000c  ! 00000000
                CONST2                DATA           0003:00000068  ! 00000000
                _DATA                 DATA           0003:000004e8  ! 00000000
/mnt/sda5/.user/root/src/openwatcom-1.9/bld/clib/memory/c/umemset.c
                _TEXT                 CODE           0002:0001b2a0  ! 00000044
                CONST                 DATA           0003:0000000c  ! 00000000
                CONST2                DATA           0003:00000068  ! 00000000
                _DATA                 DATA           0003:000004e8  ! 00000000
/mnt/sda5/.user/root/src/openwatcom-1.9/bld/clib/memory/c/umemcp_s.c
                _TEXT                 CODE           0002:0001b2f0  ! 000001eb
                CONST                 DATA           0003:0000000c  ! 00000000
                CONST2                DATA           0003:00000068  ! 00000000
                _DATA                 DATA           0003:000004e8  ! 00000000
/mnt/sda5/.user/root/src/openwatcom-1.9/bld/clib/memory/c/umemmv_s.c
                _TEXT                 CODE           0002:0001b4e0  ! 00000180
                CONST                 DATA           0003:0000000c  ! 00000000
                CONST2                DATA           0003:00000068  ! 00000000
                _DATA                 DATA           0003:000004e8  ! 00000000
/mnt/sda5/.user/root/src/openwatcom-1.9/bld/clib/misc/c/aborthnd.c
                _TEXT                 CODE           0002:0001b660  ! 0000004e
                CONST                 DATA           0003:0000000c  ! 00000000
                CONST2                DATA           0003:00000068  ! 00000000
                _DATA                 DATA           0003:000004e8  ! 00000000
/mnt/sda5/.user/root/src/openwatcom-1.9/bld/clib/misc/c/assert.c
                _TEXT                 CODE           0002:0001b6b0  ! 0000023b
                CONST                 DATA           0003:0000000c  ! 00000000
                CONST2                DATA           0003:00000068  ! 00000000
                _DATA                 DATA           0003:000004e8  ! 00000000
                _BSS                  BSS            0003:000011cc  ! 00000004
/mnt/sda5/.user/root/src/openwatcom-1.9/bld/clib/misc/c/assert99.c
                _TEXT                 CODE           0002:0001b8f0  ! 00000250
                CONST                 DATA           0003:0000000c  ! 00000000
                CONST2                DATA           0003:00000068  ! 00000000
                _DATA                 DATA           0003:000004e8  ! 00000000
                _BSS                  BSS            0003:000011d0  ! 00000004
/mnt/sda5/.user/root/src/openwatcom-1.9/bld/clib/misc/c/basename.c
                _TEXT                 CODE           0002:0001bb40  ! 00000152
                CONST                 DATA           0003:0000000c  ! 00000000
                CONST2                DATA           0003:00000068  ! 00000000
                _DATA                 DATA           0003:000004e8  ! 00000000
                _BSS                  BSS            0003:000011d4  ! 00000104
/mnt/sda5/.user/root/src/openwatcom-1.9/bld/clib/misc/c/ffs.c
                _TEXT                 CODE           0002:0001bca0  ! 0000002b
                CONST                 DATA           0003:0000000c  ! 00000000
                CONST2                DATA           0003:00000068  ! 00000000
                _DATA                 DATA           0003:000004e8  ! 00000000
/mnt/sda5/.user/root/src/openwatcom-1.9/bld/clib/misc/c/dbgbreak.c
                _TEXT                 CODE           0002:0001bcd0  ! 00000017
                CONST                 DATA           0003:0000000c  ! 00000000
                CONST2                DATA           0003:00000068  ! 00000000
                _DATA                 DATA           0003:000004e8  ! 00000000
/mnt/sda5/.user/root/src/openwatcom-1.9/bld/clib/misc/c/dbgrpt.c
                _TEXT                 CODE           0002:0001bcf0  ! 00000d42
                CONST                 DATA           0003:0000000c  ! 00000000
                CONST2                DATA           0003:00000068  ! 00000000
                _DATA                 DATA           0003:000004e8  ! 0000000c
/mnt/sda5/.user/root/src/openwatcom-1.9/bld/clib/misc/c/dbgrptfi.c
                _TEXT                 CODE           0002:0001ca40  ! 000000ae
                CONST                 DATA           0003:0000000c  ! 00000000
                CONST2                DATA           0003:00000068  ! 00000000
                _DATA                 DATA           0003:000004f4  ! 00000000
/mnt/sda5/.user/root/src/openwatcom-1.9/bld/clib/misc/c/dbgrptho.c
                _TEXT                 CODE           0002:0001caf0  ! 00000033
                CONST                 DATA           0003:0000000c  ! 00000000
                CONST2                DATA           0003:00000068  ! 00000000
                _DATA                 DATA           0003:000004f4  ! 00000000
/mnt/sda5/.user/root/src/openwatcom-1.9/bld/clib/misc/c/dbgrptmo.c
                _TEXT                 CODE           0002:0001cb30  ! 0000006f
                CONST                 DATA           0003:0000000c  ! 00000000
                CONST2                DATA           0003:00000068  ! 00000000
                _DATA                 DATA           0003:000004f4  ! 00000000
/mnt/sda5/.user/root/src/openwatcom-1.9/bld/clib/misc/c/demangl.c
                _TEXT                 CODE           0002:0001cba0  ! 0000309d
                CONST                 DATA           0003:0000000c  ! 00000000
                CONST2                DATA           0003:00000068  ! 00000000
                _DATA                 DATA           0003:000004f4  ! 00000000
                _BSS                  BSS            0003:000012d8  ! 00000058
/mnt/sda5/.user/root/src/openwatcom-1.9/bld/clib/misc/c/dirname.c
                _TEXT                 CODE           0002:0001fc40  ! 000001a6
                CONST                 DATA           0003:0000000c  ! 00000000
                CONST2                DATA           0003:00000068  ! 00000000
                _DATA                 DATA           0003:000004f4  ! 00000000
                _BSS                  BSS            0003:00001330  ! 00000104
/mnt/sda5/.user/root/src/openwatcom-1.9/bld/clib/misc/c/fullpath.c
                _TEXT                 CODE           0002:0001fdf0  ! 00000243
                CONST                 DATA           0003:0000000c  ! 00000000
                CONST2                DATA           0003:00000068  ! 00000000
                _DATA                 DATA           0003:000004f4  ! 00000000
/mnt/sda5/.user/root/src/openwatcom-1.9/bld/clib/misc/c/getopt.c
                _TEXT                 CODE           0002:00020040  ! 000002ff
                CONST                 DATA           0003:0000000c  ! 00000000
                CONST2                DATA           0003:00000068  ! 00000000
                _DATA                 DATA           0003:000004f4  ! 00000010
                _BSS                  BSS            0003:00001434  ! 00000009
/mnt/sda5/.user/root/src/openwatcom-1.9/bld/clib/misc/c/ignorhnd.c
                _TEXT                 CODE           0002:00020340  ! 0000001c
                CONST                 DATA           0003:0000000c  ! 00000000
                CONST2                DATA           0003:00000068  ! 00000000
                _DATA                 DATA           0003:00000504  ! 00000000
/mnt/sda5/.user/root/src/openwatcom-1.9/bld/clib/misc/c/localeco.c
                _TEXT                 CODE           0002:00020360  ! 00000031
                CONST                 DATA           0003:0000000c  ! 00000000
                CONST2                DATA           0003:00000068  ! 00000000
                _DATA                 DATA           0003:00000504  ! 00000030
/mnt/sda5/.user/root/src/openwatcom-1.9/bld/clib/misc/c/lrotl.c
                _TEXT                 CODE           0002:000203a0  ! 00000029
                CONST                 DATA           0003:0000000c  ! 00000000
                CONST2                DATA           0003:00000068  ! 00000000
                _DATA                 DATA           0003:00000534  ! 00000000
/mnt/sda5/.user/root/src/openwatcom-1.9/bld/clib/misc/c/lrotr.c
                _TEXT                 CODE           0002:000203d0  ! 00000029
                CONST                 DATA           0003:0000000c  ! 00000000
                CONST2                DATA           0003:00000068  ! 00000000
                _DATA                 DATA           0003:00000534  ! 00000000
/mnt/sda5/.user/root/src/openwatcom-1.9/bld/clib/misc/c/makepath.c
                _TEXT                 CODE           0002:00020400  ! 00000251
                CONST                 DATA           0003:0000000c  ! 00000000
                CONST2                DATA           0003:00000068  ! 00000000
                _DATA                 DATA           0003:00000534  ! 00000000
/mnt/sda5/.user/root/src/openwatcom-1.9/bld/clib/misc/c/rotl.c
                _TEXT                 CODE           0002:00020660  ! 00000029
                CONST                 DATA           0003:0000000c  ! 00000000
                CONST2                DATA           0003:00000068  ! 00000000
                _DATA                 DATA           0003:00000534  ! 00000000
/mnt/sda5/.user/root/src/openwatcom-1.9/bld/clib/misc/c/rotr.c
                _TEXT                 CODE           0002:00020690  ! 00000029
                CONST                 DATA           0003:0000000c  ! 00000000
                CONST2                DATA           0003:00000068  ! 00000000
                _DATA                 DATA           0003:00000534  ! 00000000
/mnt/sda5/.user/root/src/openwatcom-1.9/bld/clib/misc/c/rtconstr.c
                _TEXT                 CODE           0002:000206c0  ! 00000045
                CONST                 DATA           0003:0000000c  ! 00000000
                CONST2                DATA           0003:00000068  ! 00000000
                _DATA                 DATA           0003:00000534  ! 00000000
/mnt/sda5/.user/root/src/openwatcom-1.9/bld/clib/misc/c/setlocal.c
                _TEXT                 CODE           0002:00020710  ! 000000eb
                CONST                 DATA           0003:0000000c  ! 00000000
                CONST2                DATA           0003:00000068  ! 00000000
                _DATA                 DATA           0003:00000534  ! 0000000c
/mnt/sda5/.user/root/src/openwatcom-1.9/bld/clib/misc/c/split2.c
                _TEXT                 CODE           0002:00020800  ! 00000227
                CONST                 DATA           0003:0000000c  ! 00000000
                CONST2                DATA           0003:00000068  ! 00000000
                _DATA                 DATA           0003:00000540  ! 00000000
/mnt/sda5/.user/root/src/openwatcom-1.9/bld/clib/misc/c/splitpat.c
                _TEXT                 CODE           0002:00020a30  ! 0000016f
                CONST                 DATA           0003:0000000c  ! 00000000
                CONST2                DATA           0003:00000068  ! 00000000
                _DATA                 DATA           0003:00000540  ! 00000000
/mnt/sda5/.user/root/src/openwatcom-1.9/bld/clib/misc/c/uassert.c
                _TEXT                 CODE           0002:00020ba0  ! 000000f1
                CONST                 DATA           0003:0000000c  ! 00000000
                CONST2                DATA           0003:00000068  ! 00000000
                _DATA                 DATA           0003:00000540  ! 00000000
/mnt/sda5/.user/root/src/openwatcom-1.9/bld/clib/misc/c/uassrt99.c
                _TEXT                 CODE           0002:00020ca0  ! 00000106
                CONST                 DATA           0003:0000000c  ! 00000000
                CONST2                DATA           0003:00000068  ! 00000000
                _DATA                 DATA           0003:00000540  ! 00000000
/mnt/sda5/.user/root/src/openwatcom-1.9/bld/clib/misc/c/ufulpath.c
                _TEXT                 CODE           0002:00020db0  ! 000002a8
                CONST                 DATA           0003:0000000c  ! 00000000
                CONST2                DATA           0003:00000068  ! 00000000
                _DATA                 DATA           0003:00000540  ! 00000000
/mnt/sda5/.user/root/src/openwatcom-1.9/bld/clib/misc/c/umkpath.c
                _TEXT                 CODE           0002:00021060  ! 00000215
                CONST                 DATA           0003:0000000c  ! 00000000
                CONST2                DATA           0003:00000068  ! 00000000
                _DATA                 DATA           0003:00000540  ! 00000000
/mnt/sda5/.user/root/src/openwatcom-1.9/bld/clib/misc/c/usplit2.c
                _TEXT                 CODE           0002:00021280  ! 00000222
                CONST                 DATA           0003:0000000c  ! 00000000
                CONST2                DATA           0003:00000068  ! 00000000
                _DATA                 DATA           0003:00000540  ! 00000000
/mnt/sda5/.user/root/src/openwatcom-1.9/bld/clib/misc/c/uspltpat.c
                _TEXT                 CODE           0002:000214b0  ! 0000016b
                CONST                 DATA           0003:0000000c  ! 00000000
                CONST2                DATA           0003:00000068  ! 00000000
                _DATA                 DATA           0003:00000540  ! 00000000
/mnt/sda5/.user/root/src/openwatcom-1.9/bld/clib/misc/c/ustlocal.c
                _TEXT                 CODE           0002:00021620  ! 000000ec
                CONST                 DATA           0003:0000000c  ! 00000000
                CONST2                DATA           0003:00000068  ! 00000000
                _DATA                 DATA           0003:00000540  ! 0000000c
/mnt/sda5/.user/root/src/openwatcom-1.9/bld/clib/mthread/c/mthread.c
                _TEXT                 CODE           0002:00021710  ! 000007e0
                CONST                 DATA           0003:0000000c  ! 00000000
                CONST2                DATA           0003:00000068  ! 00000000
                _DATA                 DATA           0003:0000054c  ! 0000000c
                _BSS                  BSS            0003:00001440  ! 00000150
                YIB                   DATA           0003:00000cee  ! 00000000
                YI                    DATA           0003:00000cf4  ! 00000006
                YIE                   DATA           0003:00000d18  ! 00000000
/mnt/sda5/.user/root/src/openwatcom-1.9/bld/clib/mthread/c/mthrdini.c
                _TEXT                 CODE           0002:00021ef0  ! 00000039
                CONST                 DATA           0003:0000000c  ! 00000000
                CONST2                DATA           0003:00000068  ! 00000000
                _DATA                 DATA           0003:00000558  ! 00000004
/mnt/sda5/.user/root/src/openwatcom-1.9/bld/clib/mthread/c/regdata.c
                _TEXT                 CODE           0002:00021f30  ! 00000045
                CONST                 DATA           0003:0000000c  ! 00000000
                CONST2                DATA           0003:00000068  ! 00000000
                _DATA                 DATA           0003:0000055c  ! 00000000
/mnt/sda5/.user/root/src/openwatcom-1.9/bld/clib/mthread/c/register.c
                _TEXT                 CODE           0002:00021f80  ! 0000013c
                CONST                 DATA           0003:0000000c  ! 00000000
                CONST2                DATA           0003:00000068  ! 00000000
                _DATA                 DATA           0003:0000055c  ! 0000000c
/mnt/sda5/.user/root/src/openwatcom-1.9/bld/clib/mthread/c/thrdmax.c
                _TEXT                 CODE           0002:000220c0  ! 00000022
                CONST                 DATA           0003:0000000c  ! 00000000
                CONST2                DATA           0003:00000068  ! 00000000
                _DATA                 DATA           0003:00000568  ! 00000000
/mnt/sda5/.user/root/src/openwatcom-1.9/bld/clib/process/c/cwaitos2.c
                _TEXT                 CODE           0002:000220f0  ! 000000b1
                CONST                 DATA           0003:0000000c  ! 00000000
                CONST2                DATA           0003:00000068  ! 00000000
                _DATA                 DATA           0003:00000568  ! 00000000
/mnt/sda5/.user/root/src/openwatcom-1.9/bld/clib/process/c/delayos2.c
                _TEXT                 CODE           0002:000221b0  ! 00000026
                CONST                 DATA           0003:0000000c  ! 00000000
                CONST2                DATA           0003:00000068  ! 00000000
                _DATA                 DATA           0003:00000568  ! 00000000
/mnt/sda5/.user/root/src/openwatcom-1.9/bld/clib/process/c/exl.c
                _TEXT                 CODE           0002:000221e0  ! 00000034
                CONST                 DATA           0003:0000000c  ! 00000000
                CONST2                DATA           0003:00000068  ! 00000000
                _DATA                 DATA           0003:00000568  ! 00000000
/mnt/sda5/.user/root/src/openwatcom-1.9/bld/clib/process/c/exle.c
                _TEXT                 CODE           0002:00022220  ! 00000060
                CONST                 DATA           0003:0000000c  ! 00000000
                CONST2                DATA           0003:00000068  ! 00000000
                _DATA                 DATA           0003:00000568  ! 00000000
/mnt/sda5/.user/root/src/openwatcom-1.9/bld/clib/process/c/exlp.c
                _TEXT                 CODE           0002:00022280  ! 0000002e
                CONST                 DATA           0003:0000000c  ! 00000000
                CONST2                DATA           0003:00000068  ! 00000000
                _DATA                 DATA           0003:00000568  ! 00000000
/mnt/sda5/.user/root/src/openwatcom-1.9/bld/clib/process/c/exlpe.c
                _TEXT                 CODE           0002:000222b0  ! 00000060
                CONST                 DATA           0003:0000000c  ! 00000000
                CONST2                DATA           0003:00000068  ! 00000000
                _DATA                 DATA           0003:00000568  ! 00000000
/mnt/sda5/.user/root/src/openwatcom-1.9/bld/clib/process/c/exv.c
                _TEXT                 CODE           0002:00022310  ! 00000032
                CONST                 DATA           0003:0000000c  ! 00000000
                CONST2                DATA           0003:00000068  ! 00000000
                _DATA                 DATA           0003:00000568  ! 00000000
/mnt/sda5/.user/root/src/openwatcom-1.9/bld/clib/process/c/exveos2.c
                _TEXT                 CODE           0002:00022342  ! 0000005e
                CONST                 DATA           0003:0000000c  ! 00000000
                CONST2                DATA           0003:00000068  ! 00000000
                _DATA                 DATA           0003:00000568  ! 00000004
/mnt/sda5/.user/root/src/openwatcom-1.9/bld/clib/process/c/exvp.c
                _TEXT                 CODE           0002:000223a0  ! 00000032
                CONST                 DATA           0003:0000000c  ! 00000000
                CONST2                DATA           0003:00000068  ! 00000000
                _DATA                 DATA           0003:0000056c  ! 00000000
/mnt/sda5/.user/root/src/openwatcom-1.9/bld/clib/process/c/exvpe.c
                _TEXT                 CODE           0002:000223d2  ! 000001a7
                CONST                 DATA           0003:0000000c  ! 00000000
                CONST2                DATA           0003:00000068  ! 00000000
                _DATA                 DATA           0003:0000056c  ! 00000000
/mnt/sda5/.user/root/src/openwatcom-1.9/bld/clib/process/c/exwc2mb.c
                _TEXT                 CODE           0002:00022580  ! 00000490
                CONST                 DATA           0003:0000000c  ! 00000000
                CONST2                DATA           0003:00000068  ! 00000000
                _DATA                 DATA           0003:0000056c  ! 00000000
/mnt/sda5/.user/root/src/openwatcom-1.9/bld/clib/process/c/signlo32.c
                _TEXT                 CODE           0002:00022a10  ! 000006c5
                CONST                 DATA           0003:0000000c  ! 00000000
                CONST2                DATA           0003:00000068  ! 00000000
                _DATA                 DATA           0003:0000056c  ! 00000068
                _BSS                  BSS            0003:00001590  ! 00000001
                XIB                   DATA           0003:00000c88  ! 00000000
                XI                    DATA           0003:00000c9a  ! 00000006
                XIE                   DATA           0003:00000cee  ! 00000000
/mnt/sda5/.user/root/src/openwatcom-1.9/bld/clib/process/c/sleepos2.c
                _TEXT                 CODE           0002:000230e0  ! 00000034
                CONST                 DATA           0003:0000000c  ! 00000000
                CONST2                DATA           0003:00000068  ! 00000000
                _DATA                 DATA           0003:000005d4  ! 00000000
/mnt/sda5/.user/root/src/openwatcom-1.9/bld/clib/process/c/spl.c
                _TEXT                 CODE           0002:00023120  ! 00000037
                CONST                 DATA           0003:0000000c  ! 00000000
                CONST2                DATA           0003:00000068  ! 00000000
                _DATA                 DATA           0003:000005d4  ! 00000000
/mnt/sda5/.user/root/src/openwatcom-1.9/bld/clib/process/c/sple.c
                _TEXT                 CODE           0002:00023160  ! 0000005d
                CONST                 DATA           0003:0000000c  ! 00000000
                CONST2                DATA           0003:00000068  ! 00000000
                _DATA                 DATA           0003:000005d4  ! 00000000
/mnt/sda5/.user/root/src/openwatcom-1.9/bld/clib/process/c/splp.c
                _TEXT                 CODE           0002:000231c0  ! 0000003e
                CONST                 DATA           0003:0000000c  ! 00000000
                CONST2                DATA           0003:00000068  ! 00000000
                _DATA                 DATA           0003:000005d4  ! 00000000
/mnt/sda5/.user/root/src/openwatcom-1.9/bld/clib/process/c/splpe.c
                _TEXT                 CODE           0002:00023200  ! 0000005d
                CONST                 DATA           0003:0000000c  ! 00000000
                CONST2                DATA           0003:00000068  ! 00000000
                _DATA                 DATA           0003:000005d4  ! 00000000
/mnt/sda5/.user/root/src/openwatcom-1.9/bld/clib/process/c/spv.c
                _TEXT                 CODE           0002:00023260  ! 00000036
                CONST                 DATA           0003:0000000c  ! 00000000
                CONST2                DATA           0003:00000068  ! 00000000
                _DATA                 DATA           0003:000005d4  ! 00000000
/mnt/sda5/.user/root/src/openwatcom-1.9/bld/clib/process/c/spve.c
                _TEXT                 CODE           0002:000232a0  ! 00000440
                CONST                 DATA           0003:0000000c  ! 00000000
                CONST2                DATA           0003:00000068  ! 00000000
                _DATA                 DATA           0003:000005d4  ! 00000000
/mnt/sda5/.user/root/src/openwatcom-1.9/bld/clib/process/c/spvp.c
                _TEXT                 CODE           0002:000236e0  ! 00000036
                CONST                 DATA           0003:0000000c  ! 00000000
                CONST2                DATA           0003:00000068  ! 00000000
                _DATA                 DATA           0003:000005d4  ! 00000000
/mnt/sda5/.user/root/src/openwatcom-1.9/bld/clib/process/c/spvpe.c
                _TEXT                 CODE           0002:00023716  ! 000001b8
                CONST                 DATA           0003:0000000c  ! 00000000
                CONST2                DATA           0003:00000068  ! 00000000
                _DATA                 DATA           0003:000005d4  ! 00000000
/mnt/sda5/.user/root/src/openwatcom-1.9/bld/clib/process/c/system.c
                _TEXT                 CODE           0002:000238d0  ! 000000db
                CONST                 DATA           0003:0000000c  ! 00000000
                CONST2                DATA           0003:00000068  ! 00000000
                _DATA                 DATA           0003:000005d4  ! 00000000
/mnt/sda5/.user/root/src/openwatcom-1.9/bld/clib/process/c/uexl.c
                _TEXT                 CODE           0002:000239b0  ! 00000034
                CONST                 DATA           0003:0000000c  ! 00000000
                CONST2                DATA           0003:00000068  ! 00000000
                _DATA                 DATA           0003:000005d4  ! 00000000
/mnt/sda5/.user/root/src/openwatcom-1.9/bld/clib/process/c/uexle.c
                _TEXT                 CODE           0002:000239f0  ! 00000060
                CONST                 DATA           0003:0000000c  ! 00000000
                CONST2                DATA           0003:00000068  ! 00000000
                _DATA                 DATA           0003:000005d4  ! 00000000
/mnt/sda5/.user/root/src/openwatcom-1.9/bld/clib/process/c/uexlp.c
                _TEXT                 CODE           0002:00023a50  ! 0000002e
                CONST                 DATA           0003:0000000c  ! 00000000
                CONST2                DATA           0003:00000068  ! 00000000
                _DATA                 DATA           0003:000005d4  ! 00000000
/mnt/sda5/.user/root/src/openwatcom-1.9/bld/clib/process/c/uexlpe.c
                _TEXT                 CODE           0002:00023a80  ! 00000060
                CONST                 DATA           0003:0000000c  ! 00000000
                CONST2                DATA           0003:00000068  ! 00000000
                _DATA                 DATA           0003:000005d4  ! 00000000
/mnt/sda5/.user/root/src/openwatcom-1.9/bld/clib/process/c/uexv.c
                _TEXT                 CODE           0002:00023ae0  ! 00000040
                CONST                 DATA           0003:0000000c  ! 00000000
                CONST2                DATA           0003:00000068  ! 00000000
                _DATA                 DATA           0003:000005d4  ! 00000000
/mnt/sda5/.user/root/src/openwatcom-1.9/bld/clib/process/c/uexve.c
                _TEXT                 CODE           0002:00023b20  ! 000000c6
                CONST                 DATA           0003:0000000c  ! 00000000
                CONST2                DATA           0003:00000068  ! 00000000
                _DATA                 DATA           0003:000005d4  ! 00000000
/mnt/sda5/.user/root/src/openwatcom-1.9/bld/clib/process/c/uexvp.c
                _TEXT                 CODE           0002:00023bf0  ! 00000040
                CONST                 DATA           0003:0000000c  ! 00000000
                CONST2                DATA           0003:00000068  ! 00000000
                _DATA                 DATA           0003:000005d4  ! 00000000
/mnt/sda5/.user/root/src/openwatcom-1.9/bld/clib/process/c/uexvpe.c
                _TEXT                 CODE           0002:00023c30  ! 000001d4
                CONST                 DATA           0003:0000000c  ! 00000000
                CONST2                DATA           0003:00000068  ! 00000000
                _DATA                 DATA           0003:000005d4  ! 00000000
/mnt/sda5/.user/root/src/openwatcom-1.9/bld/clib/process/c/uspl.c
                _TEXT                 CODE           0002:00023e10  ! 00000045
                CONST                 DATA           0003:0000000c  ! 00000000
                CONST2                DATA           0003:00000068  ! 00000000
                _DATA                 DATA           0003:000005d4  ! 00000000
/mnt/sda5/.user/root/src/openwatcom-1.9/bld/clib/process/c/usple.c
                _TEXT                 CODE           0002:00023e60  ! 0000005d
                CONST                 DATA           0003:0000000c  ! 00000000
                CONST2                DATA           0003:00000068  ! 00000000
                _DATA                 DATA           0003:000005d4  ! 00000000
/mnt/sda5/.user/root/src/openwatcom-1.9/bld/clib/process/c/usplp.c
                _TEXT                 CODE           0002:00023ec0  ! 0000003e
                CONST                 DATA           0003:0000000c  ! 00000000
                CONST2                DATA           0003:00000068  ! 00000000
                _DATA                 DATA           0003:000005d4  ! 00000000
/mnt/sda5/.user/root/src/openwatcom-1.9/bld/clib/process/c/usplpe.c
                _TEXT                 CODE           0002:00023f00  ! 0000005d
                CONST                 DATA           0003:0000000c  ! 00000000
                CONST2                DATA           0003:00000068  ! 00000000
                _DATA                 DATA           0003:000005d4  ! 00000000
/mnt/sda5/.user/root/src/openwatcom-1.9/bld/clib/process/c/uspv.c
                _TEXT                 CODE           0002:00023f60  ! 00000044
                CONST                 DATA           0003:0000000c  ! 00000000
                CONST2                DATA           0003:00000068  ! 00000000
                _DATA                 DATA           0003:000005d4  ! 00000000
/mnt/sda5/.user/root/src/openwatcom-1.9/bld/clib/process/c/uspve.c
                _TEXT                 CODE           0002:00023fb0  ! 000000ca
                CONST                 DATA           0003:0000000c  ! 00000000
                CONST2                DATA           0003:00000068  ! 00000000
                _DATA                 DATA           0003:000005d4  ! 00000000
/mnt/sda5/.user/root/src/openwatcom-1.9/bld/clib/process/c/uspvp.c
                _TEXT                 CODE           0002:00024080  ! 00000044
                CONST                 DATA           0003:0000000c  ! 00000000
                CONST2                DATA           0003:00000068  ! 00000000
                _DATA                 DATA           0003:000005d4  ! 00000000
/mnt/sda5/.user/root/src/openwatcom-1.9/bld/clib/process/c/uspvpe.c
                _TEXT                 CODE           0002:000240d0  ! 000001e5
                CONST                 DATA           0003:0000000c  ! 00000000
                CONST2                DATA           0003:00000068  ! 00000000
                _DATA                 DATA           0003:000005d4  ! 00000000
/mnt/sda5/.user/root/src/openwatcom-1.9/bld/clib/process/c/usystem.c
                _TEXT                 CODE           0002:000242c0  ! 00000100
                CONST                 DATA           0003:0000000c  ! 00000000
                CONST2                DATA           0003:00000068  ! 00000000
                _DATA                 DATA           0003:000005d4  ! 00000000
/mnt/sda5/.user/root/src/openwatcom-1.9/bld/clib/process/c/waitos2.c
                _TEXT                 CODE           0002:000243c0  ! 0000002c
                CONST                 DATA           0003:0000000c  ! 00000000
                CONST2                DATA           0003:00000068  ! 00000000
                _DATA                 DATA           0003:000005d4  ! 00000000
/mnt/sda5/.user/root/src/openwatcom-1.9/bld/clib/search/c/bsearch.c
                _TEXT                 CODE           0002:000243f0  ! 000000d7
                CONST                 DATA           0003:0000000c  ! 00000000
                CONST2                DATA           0003:00000068  ! 00000000
                _DATA                 DATA           0003:000005d4  ! 00000000
/mnt/sda5/.user/root/src/openwatcom-1.9/bld/clib/search/c/lfind.c
                _TEXT                 CODE           0002:000244d0  ! 0000005e
                CONST                 DATA           0003:0000000c  ! 00000000
                CONST2                DATA           0003:00000068  ! 00000000
                _DATA                 DATA           0003:000005d4  ! 00000000
/mnt/sda5/.user/root/src/openwatcom-1.9/bld/clib/search/c/lsearch.c
                _TEXT                 CODE           0002:00024530  ! 00000070
                CONST                 DATA           0003:0000000c  ! 00000000
                CONST2                DATA           0003:00000068  ! 00000000
                _DATA                 DATA           0003:000005d4  ! 00000000
/mnt/sda5/.user/root/src/openwatcom-1.9/bld/clib/search/c/qsort.c
                _TEXT                 CODE           0002:000245a0  ! 0000076c
                CONST                 DATA           0003:0000000c  ! 00000000
                CONST2                DATA           0003:00000068  ! 00000000
                _DATA                 DATA           0003:000005d4  ! 00000000
/mnt/sda5/.user/root/src/openwatcom-1.9/bld/clib/search/c/bsrch_s.c
                _TEXT                 CODE           0002:00024d10  ! 0000023e
                CONST                 DATA           0003:0000000c  ! 00000000
                CONST2                DATA           0003:00000068  ! 00000000
                _DATA                 DATA           0003:000005d4  ! 00000000
/mnt/sda5/.user/root/src/openwatcom-1.9/bld/clib/search/c/qsort_s.c
                _TEXT                 CODE           0002:00024f50  ! 000008f0
                CONST                 DATA           0003:0000000c  ! 00000000
                CONST2                DATA           0003:00000068  ! 00000000
                _DATA                 DATA           0003:000005d4  ! 00000000
/mnt/sda5/.user/root/src/openwatcom-1.9/bld/clib/startup/c/abort.c
                _TEXT                 CODE           0002:00025840  ! 0000005c
                CONST                 DATA           0003:0000000c  ! 00000000
                CONST2                DATA           0003:00000068  ! 00000000
                _DATA                 DATA           0003:000005d4  ! 00000004
/mnt/sda5/.user/root/src/openwatcom-1.9/bld/clib/startup/c/chk8087.c
                _TEXT                 CODE           0002:000258a0  ! 000000ba
                CONST                 DATA           0003:0000000c  ! 00000000
                CONST2                DATA           0003:00000068  ! 00000000
                _DATA                 DATA           0003:000005d8  ! 00000000
/mnt/sda5/.user/root/src/openwatcom-1.9/bld/clib/startup/c/cmdname.c
                _TEXT                 CODE           0002:00025960  ! 00000030
                CONST                 DATA           0003:0000000c  ! 00000000
                CONST2                DATA           0003:00000068  ! 00000000
                _DATA                 DATA           0003:000005d8  ! 00000000
/mnt/sda5/.user/root/src/openwatcom-1.9/bld/clib/startup/c/cvtbuf.c
                _TEXT                 CODE           0002:00025990  ! 00000028
                CONST                 DATA           0003:0000000c  ! 00000000
                CONST2                DATA           0003:00000068  ! 00000000
                _DATA                 DATA           0003:000005d8  ! 00000000
/mnt/sda5/.user/root/src/openwatcom-1.9/bld/clib/startup/c/enterdb.c
                _TEXT                 CODE           0002:000259c0  ! 00000051
                CONST                 DATA           0003:0000000c  ! 00000000
                CONST2                DATA           0003:00000068  ! 00000000
                _DATA                 DATA           0003:000005d8  ! 00000001
/mnt/sda5/.user/root/src/openwatcom-1.9/bld/clib/startup/c/errno.c
                _TEXT                 CODE           0002:00025a20  ! 00000056
                CONST                 DATA           0003:0000000c  ! 00000000
                CONST2                DATA           0003:00000068  ! 00000000
                _DATA                 DATA           0003:000005dc  ! 00000000
/mnt/sda5/.user/root/src/openwatcom-1.9/bld/clib/startup/c/exit.c
                _TEXT                 CODE           0002:00025a76  ! 0000009f
                CONST                 DATA           0003:0000000c  ! 00000000
                CONST2                DATA           0003:00000068  ! 00000000
                _DATA                 DATA           0003:000005dc  ! 00000008
/mnt/sda5/.user/root/src/openwatcom-1.9/bld/clib/startup/c/imthread.c
                _TEXT                 CODE           0002:00025b20  ! 00000027
                CONST                 DATA           0003:0000000c  ! 00000000
                CONST2                DATA           0003:00000068  ! 00000000
                _DATA                 DATA           0003:000005e4  ! 00000000
                XIB                   DATA           0003:00000c88  ! 00000000
                XI                    DATA           0003:00000ca0  ! 00000006
                XIE                   DATA           0003:00000cee  ! 00000000
/mnt/sda5/.user/root/src/openwatcom-1.9/bld/clib/startup/c/initargv.c
                _TEXT                 CODE           0002:00025b50  ! 0000030a
                CONST                 DATA           0003:0000000c  ! 00000000
                CONST2                DATA           0003:00000068  ! 00000000
                _DATA                 DATA           0003:000005e4  ! 00000000
                _BSS                  BSS            0003:00001594  ! 00000004
/mnt/sda5/.user/root/src/openwatcom-1.9/bld/clib/startup/c/initwarg.c
                _TEXT                 CODE           0002:00025e60  ! 0000032a
                CONST                 DATA           0003:0000000c  ! 00000000
                CONST2                DATA           0003:00000068  ! 00000000
                _DATA                 DATA           0003:000005e4  ! 00000000
                _BSS                  BSS            0003:00001598  ! 00000004
/mnt/sda5/.user/root/src/openwatcom-1.9/bld/clib/startup/c/ioexit.c
                _TEXT                 CODE           0002:00026190  ! 00000113
                CONST                 DATA           0003:0000000c  ! 00000000
                CONST2                DATA           0003:00000068  ! 00000000
                _DATA                 DATA           0003:000005e4  ! 00000000
/mnt/sda5/.user/root/src/openwatcom-1.9/bld/clib/startup/c/liballoc.c
                _TEXT                 CODE           0002:000262b0  ! 00000052
                CONST                 DATA           0003:0000000c  ! 00000000
                CONST2                DATA           0003:00000068  ! 00000000
                _DATA                 DATA           0003:000005e4  ! 00000000
/mnt/sda5/.user/root/src/openwatcom-1.9/bld/clib/startup/c/ljmphdl.c
                _TEXT                 CODE           0002:00026310  ! 0000001c
                CONST                 DATA           0003:0000000c  ! 00000000
                CONST2                DATA           0003:00000068  ! 00000000
                _DATA                 DATA           0003:000005e4  ! 00000004
/mnt/sda5/.user/root/src/openwatcom-1.9/bld/clib/startup/c/maino32.c
                _TEXT                 CODE           0002:0002632c  ! 00000233
                CONST                 DATA           0003:0000000c  ! 00000000
                CONST2                DATA           0003:00000068  ! 00000000
                _DATA                 DATA           0003:000005e8  ! 00000040
                _BSS                  BSS            0003:0000159c  ! 00000106
/mnt/sda5/.user/root/src/openwatcom-1.9/bld/clib/startup/c/mtype.c
                _TEXT                 CODE           0002:00026560  ! 0000003c
                CONST                 DATA           0003:0000000c  ! 00000000
                CONST2                DATA           0003:00000068  ! 00000000
                _DATA                 DATA           0003:00000628  ! 00000000
/mnt/sda5/.user/root/src/openwatcom-1.9/bld/clib/startup/c/nomem.c
                _TEXT                 CODE           0002:000265a0  ! 00000046
                CONST                 DATA           0003:0000000c  ! 00000000
                CONST2                DATA           0003:00000068  ! 00000000
                _DATA                 DATA           0003:00000628  ! 00000000
/mnt/sda5/.user/root/src/openwatcom-1.9/bld/clib/startup/c/nonibm.c
                _TEXT                 CODE           0002:000265f0  ! 00000056
                CONST                 DATA           0003:0000000c  ! 00000000
                CONST2                DATA           0003:00000068  ! 00000000
                _DATA                 DATA           0003:00000628  ! 00000004
                XIB                   DATA           0003:00000c88  ! 00000000
                XI                    DATA           0003:00000ca6  ! 00000006
                XIE                   DATA           0003:00000cee  ! 00000000
/mnt/sda5/.user/root/src/openwatcom-1.9/bld/clib/startup/c/onexit.c
                _TEXT                 CODE           0002:00026650  ! 00000038
                CONST                 DATA           0003:0000000c  ! 00000000
                CONST2                DATA           0003:00000068  ! 00000000
                _DATA                 DATA           0003:0000062c  ! 00000000
/mnt/sda5/.user/root/src/openwatcom-1.9/bld/clib/startup/c/osmjptr.c
                _TEXT                 CODE           0002:00026690  ! 00000021
                CONST                 DATA           0003:0000000c  ! 00000000
                CONST2                DATA           0003:00000068  ! 00000000
                _DATA                 DATA           0003:0000062c  ! 00000000
/mnt/sda5/.user/root/src/openwatcom-1.9/bld/clib/startup/c/osmnptr.c
                _TEXT                 CODE           0002:000266c0  ! 00000021
                CONST                 DATA           0003:0000000c  ! 00000000
                CONST2                DATA           0003:00000068  ! 00000000
                _DATA                 DATA           0003:0000062c  ! 00000000
/mnt/sda5/.user/root/src/openwatcom-1.9/bld/clib/startup/c/pgmptr.c
                _TEXT                 CODE           0002:000266f0  ! 00000021
                CONST                 DATA           0003:0000000c  ! 00000000
                CONST2                DATA           0003:00000068  ! 00000000
                _DATA                 DATA           0003:0000062c  ! 00000000
/mnt/sda5/.user/root/src/openwatcom-1.9/bld/clib/startup/c/rtcntrl.c
                _TEXT                 CODE           0002:00026720  ! 00000079
                CONST                 DATA           0003:0000000c  ! 00000000
                CONST2                DATA           0003:00000068  ! 00000000
                _DATA                 DATA           0003:0000062c  ! 00000001
far16fun        _TEXT                 CODE           0002:0002679a  ! 000001dd
                _DATA                 DATA           0003:00000630  ! 00000000
                _TEXT16               CODE           0001:00000000    00000068
seh             _TEXT                 CODE           0002:00026978  ! 00000124
                _DATA                 DATA           0003:00000630  ! 00000000
sehv2           _TEXT                 CODE           0002:00026a9c  ! 00000124
                _DATA                 DATA           0003:00000630  ! 00000000
/mnt/sda5/.user/root/src/openwatcom-1.9/bld/clib/startup/c/seterrno.c
                _TEXT                 CODE           0002:00026bc0  ! 000000bb
                CONST                 DATA           0003:0000000c  ! 00000000
                CONST2                DATA           0003:00000068  ! 00000000
                _DATA                 DATA           0003:00000630  ! 00000000
/mnt/sda5/.user/root/src/openwatcom-1.9/bld/clib/startup/c/stack386.c
                _TEXT                 CODE           0002:00026c80  ! 00000029
                CONST                 DATA           0003:0000000c  ! 00000000
                CONST2                DATA           0003:00000068  ! 00000000
                _DATA                 DATA           0003:00000630  ! 00000000
/mnt/sda5/.user/root/src/openwatcom-1.9/bld/clib/startup/a/stjmp386.asm
                _TEXT                 CODE           0002:00026cac  ! 000000b6
                _DATA                 DATA           0003:00000630  ! 00000000
/mnt/sda5/.user/root/src/openwatcom-1.9/bld/clib/startup/a/stko32.asm
                _TEXT                 CODE           0002:00026d64  ! 00000060
                _DATA                 DATA           0003:00000630  ! 00000010
                XIB                   DATA           0003:00000c88  ! 00000000
                XI                    DATA           0003:00000cac  ! 00000006
                XIE                   DATA           0003:00000cee  ! 00000000
                YIB                   DATA           0003:00000cee  ! 00000000
                YI                    DATA           0003:00000cfa  ! 00000000
                YIE                   DATA           0003:00000d18  ! 00000000
/mnt/sda5/.user/root/src/openwatcom-1.9/bld/clib/startup/a/tnkcdo32.asm
                _TEXT                 CODE           0002:00026dc4  ! 0000002f
                _DATA                 DATA           0003:00000640  ! 00000000
                _TEXT16               CODE           0001:00000068    0000004e
thunk           _TEXT                 CODE           0002:00026df4  ! 00000063
                _DATA                 DATA           0003:00000640  ! 00000000
                stack                 STACK          0003:000020a0  ! 00002000
/mnt/sda5/.user/root/src/openwatcom-1.9/bld/clib/startup/c/wpgmptr.c
                _TEXT                 CODE           0002:00026e60  ! 00000021
                CONST                 DATA           0003:0000000c  ! 00000000
                CONST2                DATA           0003:00000068  ! 00000000
                _DATA                 DATA           0003:00000640  ! 00000000
/mnt/sda5/.user/root/src/openwatcom-1.9/bld/clib/startup/c/xmsgo32.c
                _TEXT                 CODE           0002:00026e90  ! 000000a8
                CONST                 DATA           0003:0000000c  ! 00000000
                CONST2                DATA           0003:00000068  ! 00000000
                _DATA                 DATA           0003:00000640  ! 00000000
/mnt/sda5/.user/root/src/openwatcom-1.9/bld/clib/startup/c/___argc.c
                _TEXT                 CODE           0002:00026f40  ! 00000000
                CONST                 DATA           0003:0000000c  ! 00000000
                CONST2                DATA           0003:00000068  ! 00000000
                _DATA                 DATA           0003:00000640  ! 00000000
                _BSS                  BSS            0003:000016a4  ! 00000008
/mnt/sda5/.user/root/src/openwatcom-1.9/bld/clib/startup/c/___wargc.c
                _TEXT                 CODE           0002:00026f40  ! 00000000
                CONST                 DATA           0003:0000000c  ! 00000000
                CONST2                DATA           0003:00000068  ! 00000000
                _DATA                 DATA           0003:00000640  ! 00000000
                _BSS                  BSS            0003:000016ac  ! 00000008
/mnt/sda5/.user/root/src/openwatcom-1.9/bld/clib/streamio/c/64fseek.c
                _TEXT                 CODE           0002:00026f40  ! 00000392
                CONST                 DATA           0003:0000000c  ! 00000000
                CONST2                DATA           0003:00000068  ! 00000000
                _DATA                 DATA           0003:00000640  ! 00000000
/mnt/sda5/.user/root/src/openwatcom-1.9/bld/clib/streamio/c/64ftell.c
                _TEXT                 CODE           0002:000272e0  ! 000000bd
                CONST                 DATA           0003:0000000c  ! 00000000
                CONST2                DATA           0003:00000068  ! 00000000
                _DATA                 DATA           0003:00000640  ! 00000000
/mnt/sda5/.user/root/src/openwatcom-1.9/bld/clib/streamio/c/clearerr.c
                _TEXT                 CODE           0002:000273a0  ! 00000039
                CONST                 DATA           0003:0000000c  ! 00000000
                CONST2                DATA           0003:00000068  ! 00000000
                _DATA                 DATA           0003:00000640  ! 00000000
/mnt/sda5/.user/root/src/openwatcom-1.9/bld/clib/streamio/c/comtflag.c
                _TEXT                 CODE           0002:000273e0  ! 00000021
                CONST                 DATA           0003:0000000c  ! 00000000
                CONST2                DATA           0003:00000068  ! 00000000
                _DATA                 DATA           0003:00000640  ! 00000004
/mnt/sda5/.user/root/src/openwatcom-1.9/bld/clib/streamio/c/fclose.c
                _TEXT                 CODE           0002:00027410  ! 0000018d
                CONST                 DATA           0003:0000000c  ! 00000000
                CONST2                DATA           0003:00000068  ! 00000000
                _DATA                 DATA           0003:00000644  ! 00000000
                _BSS                  BSS            0003:000016b4  ! 00000004
/mnt/sda5/.user/root/src/openwatcom-1.9/bld/clib/streamio/c/fdopen.c
                _TEXT                 CODE           0002:000275a0  ! 000001c7
                CONST                 DATA           0003:0000000c  ! 00000000
                CONST2                DATA           0003:00000068  ! 00000000
                _DATA                 DATA           0003:00000644  ! 00000000
/mnt/sda5/.user/root/src/openwatcom-1.9/bld/clib/streamio/c/feof.c
                _TEXT                 CODE           0002:00027770  ! 00000029
                CONST                 DATA           0003:0000000c  ! 00000000
                CONST2                DATA           0003:00000068  ! 00000000
                _DATA                 DATA           0003:00000644  ! 00000000
/mnt/sda5/.user/root/src/openwatcom-1.9/bld/clib/streamio/c/ferror.c
                _TEXT                 CODE           0002:000277a0  ! 00000029
                CONST                 DATA           0003:0000000c  ! 00000000
                CONST2                DATA           0003:00000068  ! 00000000
                _DATA                 DATA           0003:00000644  ! 00000000
/mnt/sda5/.user/root/src/openwatcom-1.9/bld/clib/streamio/c/fflush.c
                _TEXT                 CODE           0002:000277d0  ! 0000003c
                CONST                 DATA           0003:0000000c  ! 00000000
                CONST2                DATA           0003:00000068  ! 00000000
                _DATA                 DATA           0003:00000644  ! 00000000
/mnt/sda5/.user/root/src/openwatcom-1.9/bld/clib/streamio/c/fgetc.c
                _TEXT                 CODE           0002:00027810  ! 0000028a
                CONST                 DATA           0003:0000000c  ! 00000000
                CONST2                DATA           0003:00000068  ! 00000000
                _DATA                 DATA           0003:00000644  ! 00000000
/mnt/sda5/.user/root/src/openwatcom-1.9/bld/clib/streamio/c/fgetchar.c
                _TEXT                 CODE           0002:00027aa0  ! 00000027
                CONST                 DATA           0003:0000000c  ! 00000000
                CONST2                DATA           0003:00000068  ! 00000000
                _DATA                 DATA           0003:00000644  ! 00000000
/mnt/sda5/.user/root/src/openwatcom-1.9/bld/clib/streamio/c/fgetpos.c
                _TEXT                 CODE           0002:00027ad0  ! 00000049
                CONST                 DATA           0003:0000000c  ! 00000000
                CONST2                DATA           0003:00000068  ! 00000000
                _DATA                 DATA           0003:00000644  ! 00000000
/mnt/sda5/.user/root/src/openwatcom-1.9/bld/clib/streamio/c/fgets.c
                _TEXT                 CODE           0002:00027b20  ! 000000bb
                CONST                 DATA           0003:0000000c  ! 00000000
                CONST2                DATA           0003:00000068  ! 00000000
                _DATA                 DATA           0003:00000644  ! 00000000
/mnt/sda5/.user/root/src/openwatcom-1.9/bld/clib/streamio/c/flush.c
                _TEXT                 CODE           0002:00027be0  ! 00000185
                CONST                 DATA           0003:0000000c  ! 00000000
                CONST2                DATA           0003:00000068  ! 00000000
                _DATA                 DATA           0003:00000644  ! 00000000
/mnt/sda5/.user/root/src/openwatcom-1.9/bld/clib/streamio/c/flushall.c
                _TEXT                 CODE           0002:00027d70  ! 000000a7
                CONST                 DATA           0003:0000000c  ! 00000000
                CONST2                DATA           0003:00000068  ! 00000000
                _DATA                 DATA           0003:00000644  ! 00000000
/mnt/sda5/.user/root/src/openwatcom-1.9/bld/clib/streamio/c/fopen.c
                _TEXT                 CODE           0002:00027e20  ! 0000055a
                CONST                 DATA           0003:0000000c  ! 00000000
                CONST2                DATA           0003:00000068  ! 00000000
                _DATA                 DATA           0003:00000644  ! 00000000
/mnt/sda5/.user/root/src/openwatcom-1.9/bld/clib/streamio/c/fopen_s.c
                _TEXT                 CODE           0002:00028380  ! 00000149
                CONST                 DATA           0003:0000000c  ! 00000000
                CONST2                DATA           0003:00000068  ! 00000000
                _DATA                 DATA           0003:00000644  ! 00000000
/mnt/sda5/.user/root/src/openwatcom-1.9/bld/clib/streamio/c/freop_s.c
                _TEXT                 CODE           0002:000284d0  ! 0000014b
                CONST                 DATA           0003:0000000c  ! 00000000
                CONST2                DATA           0003:00000068  ! 00000000
                _DATA                 DATA           0003:00000644  ! 00000000
/mnt/sda5/.user/root/src/openwatcom-1.9/bld/clib/streamio/c/fprintf.c
                _TEXT                 CODE           0002:00028620  ! 00000031
                CONST                 DATA           0003:0000000c  ! 00000000
                CONST2                DATA           0003:00000068  ! 00000000
                _DATA                 DATA           0003:00000644  ! 00000000
/mnt/sda5/.user/root/src/openwatcom-1.9/bld/clib/streamio/c/fprntf_s.c
                _TEXT                 CODE           0002:00028660  ! 00000031
                CONST                 DATA           0003:0000000c  ! 00000000
                CONST2                DATA           0003:00000068  ! 00000000
                _DATA                 DATA           0003:00000644  ! 00000000
/mnt/sda5/.user/root/src/openwatcom-1.9/bld/clib/streamio/c/fputc.c
                _TEXT                 CODE           0002:000286a0  ! 0000017f
                CONST                 DATA           0003:0000000c  ! 00000000
                CONST2                DATA           0003:00000068  ! 00000000
                _DATA                 DATA           0003:00000644  ! 00000000
/mnt/sda5/.user/root/src/openwatcom-1.9/bld/clib/streamio/c/fputchar.c
                _TEXT                 CODE           0002:00028820  ! 0000002d
                CONST                 DATA           0003:0000000c  ! 00000000
                CONST2                DATA           0003:00000068  ! 00000000
                _DATA                 DATA           0003:00000644  ! 00000000
/mnt/sda5/.user/root/src/openwatcom-1.9/bld/clib/streamio/c/fputs.c
                _TEXT                 CODE           0002:00028850  ! 000000e7
                CONST                 DATA           0003:0000000c  ! 00000000
                CONST2                DATA           0003:00000068  ! 00000000
                _DATA                 DATA           0003:00000644  ! 00000000
/mnt/sda5/.user/root/src/openwatcom-1.9/bld/clib/streamio/c/fread.c
                _TEXT                 CODE           0002:00028940  ! 0000026c
                CONST                 DATA           0003:0000000c  ! 00000000
                CONST2                DATA           0003:00000068  ! 00000000
                _DATA                 DATA           0003:00000644  ! 00000000
/mnt/sda5/.user/root/src/openwatcom-1.9/bld/clib/streamio/c/fscanf.c
                _TEXT                 CODE           0002:00028bb0  ! 00000141
                CONST                 DATA           0003:0000000c  ! 00000000
                CONST2                DATA           0003:00000068  ! 00000000
                _DATA                 DATA           0003:00000644  ! 00000000
/mnt/sda5/.user/root/src/openwatcom-1.9/bld/clib/streamio/c/fscanf_s.c
                _TEXT                 CODE           0002:00028d00  ! 000001b9
                CONST                 DATA           0003:0000000c  ! 00000000
                CONST2                DATA           0003:00000068  ! 00000000
                _DATA                 DATA           0003:00000644  ! 00000000
/mnt/sda5/.user/root/src/openwatcom-1.9/bld/clib/streamio/c/fseek.c
                _TEXT                 CODE           0002:00028ec0  ! 000002cc
                CONST                 DATA           0003:0000000c  ! 00000000
                CONST2                DATA           0003:00000068  ! 00000000
                _DATA                 DATA           0003:00000644  ! 00000000
/mnt/sda5/.user/root/src/openwatcom-1.9/bld/clib/streamio/c/fsetpos.c
                _TEXT                 CODE           0002:00029190  ! 00000030
                CONST                 DATA           0003:0000000c  ! 00000000
                CONST2                DATA           0003:00000068  ! 00000000
                _DATA                 DATA           0003:00000644  ! 00000000
/mnt/sda5/.user/root/src/openwatcom-1.9/bld/clib/streamio/c/ftell.c
                _TEXT                 CODE           0002:000291c0  ! 00000091
                CONST                 DATA           0003:0000000c  ! 00000000
                CONST2                DATA           0003:00000068  ! 00000000
                _DATA                 DATA           0003:00000644  ! 00000000
/mnt/sda5/.user/root/src/openwatcom-1.9/bld/clib/streamio/c/fwide.c
                _TEXT                 CODE           0002:00029260  ! 000000bd
                CONST                 DATA           0003:0000000c  ! 00000000
                CONST2                DATA           0003:00000068  ! 00000000
                _DATA                 DATA           0003:00000644  ! 00000000
/mnt/sda5/.user/root/src/openwatcom-1.9/bld/clib/streamio/c/fwrite.c
                _TEXT                 CODE           0002:00029320  ! 0000028c
                CONST                 DATA           0003:0000000c  ! 00000000
                CONST2                DATA           0003:00000068  ! 00000000
                _DATA                 DATA           0003:00000644  ! 00000000
/mnt/sda5/.user/root/src/openwatcom-1.9/bld/clib/streamio/c/getc.c
                _TEXT                 CODE           0002:000295b0  ! 00000028
                CONST                 DATA           0003:0000000c  ! 00000000
                CONST2                DATA           0003:00000068  ! 00000000
                _DATA                 DATA           0003:00000644  ! 00000000
/mnt/sda5/.user/root/src/openwatcom-1.9/bld/clib/streamio/c/getchar.c
                _TEXT                 CODE           0002:000295e0  ! 00000027
                CONST                 DATA           0003:0000000c  ! 00000000
                CONST2                DATA           0003:00000068  ! 00000000
                _DATA                 DATA           0003:00000644  ! 00000000
/mnt/sda5/.user/root/src/openwatcom-1.9/bld/clib/streamio/c/gets.c
                _TEXT                 CODE           0002:00029610  ! 00000096
                CONST                 DATA           0003:0000000c  ! 00000000
                CONST2                DATA           0003:00000068  ! 00000000
                _DATA                 DATA           0003:00000644  ! 00000000
/mnt/sda5/.user/root/src/openwatcom-1.9/bld/clib/streamio/c/gets_s.c
                _TEXT                 CODE           0002:000296b0  ! 000001fb
                CONST                 DATA           0003:0000000c  ! 00000000
                CONST2                DATA           0003:00000068  ! 00000000
                _DATA                 DATA           0003:00000644  ! 00000000
/mnt/sda5/.user/root/src/openwatcom-1.9/bld/clib/streamio/c/getw.c
                _TEXT                 CODE           0002:000298b0  ! 0000004a
                CONST                 DATA           0003:0000000c  ! 00000000
                CONST2                DATA           0003:00000068  ! 00000000
                _DATA                 DATA           0003:00000644  ! 00000000
/mnt/sda5/.user/root/src/openwatcom-1.9/bld/clib/streamio/c/iob.c
                _TEXT                 CODE           0002:00029900  ! 00000000
                CONST                 DATA           0003:0000000c  ! 00000000
                CONST2                DATA           0003:00000068  ! 00000000
                _DATA                 DATA           0003:00000644  ! 0000020c
                _BSS                  BSS            0003:000016b8  ! 00000008
                XIB                   DATA           0003:00000c88  ! 00000000
                XI                    DATA           0003:00000cb2  ! 00000006
                XIE                   DATA           0003:00000cee  ! 00000000
                YIB                   DATA           0003:00000cee  ! 00000000
                YI                    DATA           0003:00000cfa  ! 00000006
                YIE                   DATA           0003:00000d18  ! 00000000
/mnt/sda5/.user/root/src/openwatcom-1.9/bld/clib/streamio/c/iobaddr.c
                _TEXT                 CODE           0002:00029900  ! 00000068
                CONST                 DATA           0003:0000000c  ! 00000000
                CONST2                DATA           0003:00000068  ! 00000000
                _DATA                 DATA           0003:00000850  ! 00000000
/mnt/sda5/.user/root/src/openwatcom-1.9/bld/clib/streamio/c/iobptr.c
                _TEXT                 CODE           0002:00029970  ! 00000021
                CONST                 DATA           0003:0000000c  ! 00000000
                CONST2                DATA           0003:00000068  ! 00000000
                _DATA                 DATA           0003:00000850  ! 00000000
/mnt/sda5/.user/root/src/openwatcom-1.9/bld/clib/streamio/c/noefgfmt.c
                _TEXT                 CODE           0002:000299a0  ! 00000056
                CONST                 DATA           0003:0000000c  ! 00000000
                CONST2                DATA           0003:00000068  ! 00000000
                _DATA                 DATA           0003:00000850  ! 00000008
/mnt/sda5/.user/root/src/openwatcom-1.9/bld/clib/streamio/c/pclose.c
                _TEXT                 CODE           0002:00029a00  ! 0000008a
                CONST                 DATA           0003:0000000c  ! 00000000
                CONST2                DATA           0003:00000068  ! 00000000
                _DATA                 DATA           0003:00000858  ! 00000000
/mnt/sda5/.user/root/src/openwatcom-1.9/bld/clib/streamio/c/perror.c
                _TEXT                 CODE           0002:00029a90  ! 0000007d
                CONST                 DATA           0003:0000000c  ! 00000000
                CONST2                DATA           0003:00000068  ! 00000000
                _DATA                 DATA           0003:00000858  ! 00000000
/mnt/sda5/.user/root/src/openwatcom-1.9/bld/clib/streamio/c/popen.c
                _TEXT                 CODE           0002:00029b10  ! 00000667
                CONST                 DATA           0003:0000000c  ! 00000000
                CONST2                DATA           0003:00000068  ! 00000000
                _DATA                 DATA           0003:00000858  ! 00000000
/mnt/sda5/.user/root/src/openwatcom-1.9/bld/clib/streamio/c/printf.c
                _TEXT                 CODE           0002:0002a180  ! 00000033
                CONST                 DATA           0003:0000000c  ! 00000000
                CONST2                DATA           0003:00000068  ! 00000000
                _DATA                 DATA           0003:00000858  ! 00000000
/mnt/sda5/.user/root/src/openwatcom-1.9/bld/clib/streamio/c/printf_s.c
                _TEXT                 CODE           0002:0002a1c0  ! 00000033
                CONST                 DATA           0003:0000000c  ! 00000000
                CONST2                DATA           0003:00000068  ! 00000000
                _DATA                 DATA           0003:00000858  ! 00000000
/mnt/sda5/.user/root/src/openwatcom-1.9/bld/clib/streamio/c/putc.c
                _TEXT                 CODE           0002:0002a200  ! 0000002c
                CONST                 DATA           0003:0000000c  ! 00000000
                CONST2                DATA           0003:00000068  ! 00000000
                _DATA                 DATA           0003:00000858  ! 00000000
/mnt/sda5/.user/root/src/openwatcom-1.9/bld/clib/streamio/c/putchar.c
                _TEXT                 CODE           0002:0002a230  ! 0000002d
                CONST                 DATA           0003:0000000c  ! 00000000
                CONST2                DATA           0003:00000068  ! 00000000
                _DATA                 DATA           0003:00000858  ! 00000000
/mnt/sda5/.user/root/src/openwatcom-1.9/bld/clib/streamio/c/puts.c
                _TEXT                 CODE           0002:0002a260  ! 0000005c
                CONST                 DATA           0003:0000000c  ! 00000000
                CONST2                DATA           0003:00000068  ! 00000000
                _DATA                 DATA           0003:00000858  ! 00000000
/mnt/sda5/.user/root/src/openwatcom-1.9/bld/clib/streamio/c/putw.c
                _TEXT                 CODE           0002:0002a2c0  ! 0000004b
                CONST                 DATA           0003:0000000c  ! 00000000
                CONST2                DATA           0003:00000068  ! 00000000
                _DATA                 DATA           0003:00000858  ! 00000000
/mnt/sda5/.user/root/src/openwatcom-1.9/bld/clib/streamio/c/rewind.c
                _TEXT                 CODE           0002:0002a310  ! 0000002d
                CONST                 DATA           0003:0000000c  ! 00000000
                CONST2                DATA           0003:00000068  ! 00000000
                _DATA                 DATA           0003:00000858  ! 00000000
/mnt/sda5/.user/root/src/openwatcom-1.9/bld/clib/streamio/c/scanf.c
                _TEXT                 CODE           0002:0002a340  ! 000000de
                CONST                 DATA           0003:0000000c  ! 00000000
                CONST2                DATA           0003:00000068  ! 00000000
                _DATA                 DATA           0003:00000858  ! 00000000
/mnt/sda5/.user/root/src/openwatcom-1.9/bld/clib/streamio/c/scanf_s.c
                _TEXT                 CODE           0002:0002a420  ! 00000127
                CONST                 DATA           0003:0000000c  ! 00000000
                CONST2                DATA           0003:00000068  ! 00000000
                _DATA                 DATA           0003:00000858  ! 00000000
/mnt/sda5/.user/root/src/openwatcom-1.9/bld/clib/streamio/c/setbuf.c
                _TEXT                 CODE           0002:0002a550  ! 00000042
                CONST                 DATA           0003:0000000c  ! 00000000
                CONST2                DATA           0003:00000068  ! 00000000
                _DATA                 DATA           0003:00000858  ! 00000000
/mnt/sda5/.user/root/src/openwatcom-1.9/bld/clib/streamio/c/setvbuf.c
                _TEXT                 CODE           0002:0002a5a0  ! 000000df
                CONST                 DATA           0003:0000000c  ! 00000000
                CONST2                DATA           0003:00000068  ! 00000000
                _DATA                 DATA           0003:00000858  ! 00000000
/mnt/sda5/.user/root/src/openwatcom-1.9/bld/clib/streamio/c/tmpfl.c
                _TEXT                 CODE           0002:0002a680  ! 000001a1
                CONST                 DATA           0003:0000000c  ! 00000000
                CONST2                DATA           0003:00000068  ! 00000000
                _DATA                 DATA           0003:00000858  ! 00000001
                XIB                   DATA           0003:00000c88  ! 00000000
                XI                    DATA           0003:00000cb8  ! 00000006
                XIE                   DATA           0003:00000cee  ! 00000000
/mnt/sda5/.user/root/src/openwatcom-1.9/bld/clib/streamio/c/tmpfl_s.c
                _TEXT                 CODE           0002:0002a830  ! 00000090
                CONST                 DATA           0003:0000000c  ! 00000000
                CONST2                DATA           0003:00000068  ! 00000000
                _DATA                 DATA           0003:0000085c  ! 00000000
/mnt/sda5/.user/root/src/openwatcom-1.9/bld/clib/streamio/c/ufdopen.c
                _TEXT                 CODE           0002:0002a8c0  ! 000001ab
                CONST                 DATA           0003:0000000c  ! 00000000
                CONST2                DATA           0003:00000068  ! 00000000
                _DATA                 DATA           0003:0000085c  ! 00000000
/mnt/sda5/.user/root/src/openwatcom-1.9/bld/clib/streamio/c/ufgetc.c
                _TEXT                 CODE           0002:0002aa6b  ! 000001b7
                CONST                 DATA           0003:0000000c  ! 00000000
                CONST2                DATA           0003:00000068  ! 00000000
                _DATA                 DATA           0003:0000085c  ! 00000000
/mnt/sda5/.user/root/src/openwatcom-1.9/bld/clib/streamio/c/ufgetcha.c
                _TEXT                 CODE           0002:0002ac22  ! 00000020
                CONST                 DATA           0003:0000000c  ! 00000000
                CONST2                DATA           0003:00000068  ! 00000000
                _DATA                 DATA           0003:0000085c  ! 00000000
/mnt/sda5/.user/root/src/openwatcom-1.9/bld/clib/streamio/c/ufgets.c
                _TEXT                 CODE           0002:0002ac42  ! 000000bd
                CONST                 DATA           0003:0000000c  ! 00000000
                CONST2                DATA           0003:00000068  ! 00000000
                _DATA                 DATA           0003:0000085c  ! 00000000
/mnt/sda5/.user/root/src/openwatcom-1.9/bld/clib/streamio/c/ufopen.c
                _TEXT                 CODE           0002:0002acff  ! 0000051a
                CONST                 DATA           0003:0000000c  ! 00000000
                CONST2                DATA           0003:00000068  ! 00000000
                _DATA                 DATA           0003:0000085c  ! 00000000
/mnt/sda5/.user/root/src/openwatcom-1.9/bld/clib/streamio/c/ufopen_s.c
                _TEXT                 CODE           0002:0002b220  ! 0000014e
                CONST                 DATA           0003:0000000c  ! 00000000
                CONST2                DATA           0003:00000068  ! 00000000
                _DATA                 DATA           0003:0000085c  ! 00000000
/mnt/sda5/.user/root/src/openwatcom-1.9/bld/clib/streamio/c/ufreop_s.c
                _TEXT                 CODE           0002:0002b370  ! 00000150
                CONST                 DATA           0003:0000000c  ! 00000000
                CONST2                DATA           0003:00000068  ! 00000000
                _DATA                 DATA           0003:0000085c  ! 00000000
/mnt/sda5/.user/root/src/openwatcom-1.9/bld/clib/streamio/c/ufprintf.c
                _TEXT                 CODE           0002:0002b4c0  ! 0000002a
                CONST                 DATA           0003:0000000c  ! 00000000
                CONST2                DATA           0003:00000068  ! 00000000
                _DATA                 DATA           0003:0000085c  ! 00000000
/mnt/sda5/.user/root/src/openwatcom-1.9/bld/clib/streamio/c/ufprnt_s.c
                _TEXT                 CODE           0002:0002b4f0  ! 00000031
                CONST                 DATA           0003:0000000c  ! 00000000
                CONST2                DATA           0003:00000068  ! 00000000
                _DATA                 DATA           0003:0000085c  ! 00000000
/mnt/sda5/.user/root/src/openwatcom-1.9/bld/clib/streamio/c/ufputc.c
                _TEXT                 CODE           0002:0002b521  ! 0000010e
                CONST                 DATA           0003:0000000c  ! 00000000
                CONST2                DATA           0003:00000068  ! 00000000
                _DATA                 DATA           0003:0000085c  ! 00000000
/mnt/sda5/.user/root/src/openwatcom-1.9/bld/clib/streamio/c/ufputcha.c
                _TEXT                 CODE           0002:0002b62f  ! 00000027
                CONST                 DATA           0003:0000000c  ! 00000000
                CONST2                DATA           0003:00000068  ! 00000000
                _DATA                 DATA           0003:0000085c  ! 00000000
/mnt/sda5/.user/root/src/openwatcom-1.9/bld/clib/streamio/c/ufputs.c
                _TEXT                 CODE           0002:0002b656  ! 000000e5
                CONST                 DATA           0003:0000000c  ! 00000000
                CONST2                DATA           0003:00000068  ! 00000000
                _DATA                 DATA           0003:0000085c  ! 00000000
/mnt/sda5/.user/root/src/openwatcom-1.9/bld/clib/streamio/c/ufscanf.c
                _TEXT                 CODE           0002:0002b73b  ! 00000121
                CONST                 DATA           0003:0000000c  ! 00000000
                CONST2                DATA           0003:00000068  ! 00000000
                _DATA                 DATA           0003:0000085c  ! 00000000
/mnt/sda5/.user/root/src/openwatcom-1.9/bld/clib/streamio/c/ufscnf_s.c
                _TEXT                 CODE           0002:0002b860  ! 000001c9
                CONST                 DATA           0003:0000000c  ! 00000000
                CONST2                DATA           0003:00000068  ! 00000000
                _DATA                 DATA           0003:0000085c  ! 00000000
/mnt/sda5/.user/root/src/openwatcom-1.9/bld/clib/streamio/c/ugetc.c
                _TEXT                 CODE           0002:0002ba29  ! 00000021
                CONST                 DATA           0003:0000000c  ! 00000000
                CONST2                DATA           0003:00000068  ! 00000000
                _DATA                 DATA           0003:0000085c  ! 00000000
/mnt/sda5/.user/root/src/openwatcom-1.9/bld/clib/streamio/c/ugetchar.c
                _TEXT                 CODE           0002:0002ba4a  ! 00000020
                CONST                 DATA           0003:0000000c  ! 00000000
                CONST2                DATA           0003:00000068  ! 00000000
                _DATA                 DATA           0003:0000085c  ! 00000000
/mnt/sda5/.user/root/src/openwatcom-1.9/bld/clib/streamio/c/ugets.c
                _TEXT                 CODE           0002:0002ba6a  ! 00000096
                CONST                 DATA           0003:0000000c  ! 00000000
                CONST2                DATA           0003:00000068  ! 00000000
                _DATA                 DATA           0003:0000085c  ! 00000000
/mnt/sda5/.user/root/src/openwatcom-1.9/bld/clib/streamio/c/ungetc.c
                _TEXT                 CODE           0002:0002bb00  ! 0000017a
                CONST                 DATA           0003:0000000c  ! 00000000
                CONST2                DATA           0003:00000068  ! 00000000
                _DATA                 DATA           0003:0000085c  ! 00000000
/mnt/sda5/.user/root/src/openwatcom-1.9/bld/clib/streamio/c/uperror.c
                _TEXT                 CODE           0002:0002bc7a  ! 0000006d
                CONST                 DATA           0003:0000000c  ! 00000000
                CONST2                DATA           0003:00000068  ! 00000000
                _DATA                 DATA           0003:0000085c  ! 00000000
/mnt/sda5/.user/root/src/openwatcom-1.9/bld/clib/streamio/c/upopen.c
                _TEXT                 CODE           0002:0002bcf0  ! 0000069e
                CONST                 DATA           0003:0000000c  ! 00000000
                CONST2                DATA           0003:00000068  ! 00000000
                _DATA                 DATA           0003:0000085c  ! 00000000
/mnt/sda5/.user/root/src/openwatcom-1.9/bld/clib/streamio/c/uprintf.c
                _TEXT                 CODE           0002:0002c38e  ! 0000002c
                CONST                 DATA           0003:0000000c  ! 00000000
                CONST2                DATA           0003:00000068  ! 00000000
                _DATA                 DATA           0003:0000085c  ! 00000000
/mnt/sda5/.user/root/src/openwatcom-1.9/bld/clib/streamio/c/uprntf_s.c
                _TEXT                 CODE           0002:0002c3c0  ! 00000033
                CONST                 DATA           0003:0000000c  ! 00000000
                CONST2                DATA           0003:00000068  ! 00000000
                _DATA                 DATA           0003:0000085c  ! 00000000
/mnt/sda5/.user/root/src/openwatcom-1.9/bld/clib/streamio/c/uputc.c
                _TEXT                 CODE           0002:0002c3f3  ! 00000026
                CONST                 DATA           0003:0000000c  ! 00000000
                CONST2                DATA           0003:00000068  ! 00000000
                _DATA                 DATA           0003:0000085c  ! 00000000
/mnt/sda5/.user/root/src/openwatcom-1.9/bld/clib/streamio/c/uputchar.c
                _TEXT                 CODE           0002:0002c419  ! 00000027
                CONST                 DATA           0003:0000000c  ! 00000000
                CONST2                DATA           0003:00000068  ! 00000000
                _DATA                 DATA           0003:0000085c  ! 00000000
/mnt/sda5/.user/root/src/openwatcom-1.9/bld/clib/streamio/c/uputs.c
                _TEXT                 CODE           0002:0002c440  ! 00000056
                CONST                 DATA           0003:0000000c  ! 00000000
                CONST2                DATA           0003:00000068  ! 00000000
                _DATA                 DATA           0003:0000085c  ! 00000000
/mnt/sda5/.user/root/src/openwatcom-1.9/bld/clib/streamio/c/uscanf.c
                _TEXT                 CODE           0002:0002c496  ! 000000bb
                CONST                 DATA           0003:0000000c  ! 00000000
                CONST2                DATA           0003:00000068  ! 00000000
                _DATA                 DATA           0003:0000085c  ! 00000000
/mnt/sda5/.user/root/src/openwatcom-1.9/bld/clib/streamio/c/uscanf_s.c
                _TEXT                 CODE           0002:0002c560  ! 00000137
                CONST                 DATA           0003:0000000c  ! 00000000
                CONST2                DATA           0003:00000068  ! 00000000
                _DATA                 DATA           0003:0000085c  ! 00000000
/mnt/sda5/.user/root/src/openwatcom-1.9/bld/clib/streamio/c/uungetc.c
                _TEXT                 CODE           0002:0002c697  ! 00000246
                CONST                 DATA           0003:0000000c  ! 00000000
                CONST2                DATA           0003:00000068  ! 00000000
                _DATA                 DATA           0003:0000085c  ! 00000000
/mnt/sda5/.user/root/src/openwatcom-1.9/bld/clib/streamio/c/uvfprint.c
                _TEXT                 CODE           0002:0002c8dd  ! 00000029
                CONST                 DATA           0003:0000000c  ! 00000000
                CONST2                DATA           0003:00000068  ! 00000000
                _DATA                 DATA           0003:0000085c  ! 00000000
/mnt/sda5/.user/root/src/openwatcom-1.9/bld/clib/streamio/c/uvfprt_s.c
                _TEXT                 CODE           0002:0002c910  ! 00000030
                CONST                 DATA           0003:0000000c  ! 00000000
                CONST2                DATA           0003:00000068  ! 00000000
                _DATA                 DATA           0003:0000085c  ! 00000000
/mnt/sda5/.user/root/src/openwatcom-1.9/bld/clib/streamio/c/uvfscn_s.c
                _TEXT                 CODE           0002:0002c940  ! 000001c1
                CONST                 DATA           0003:0000000c  ! 00000000
                CONST2                DATA           0003:00000068  ! 00000000
                _DATA                 DATA           0003:0000085c  ! 00000000
/mnt/sda5/.user/root/src/openwatcom-1.9/bld/clib/streamio/c/uvprintf.c
                _TEXT                 CODE           0002:0002cb01  ! 0000002a
                CONST                 DATA           0003:0000000c  ! 00000000
                CONST2                DATA           0003:00000068  ! 00000000
                _DATA                 DATA           0003:0000085c  ! 00000000
/mnt/sda5/.user/root/src/openwatcom-1.9/bld/clib/streamio/c/uvprtf_s.c
                _TEXT                 CODE           0002:0002cb30  ! 00000031
                CONST                 DATA           0003:0000000c  ! 00000000
                CONST2                DATA           0003:00000068  ! 00000000
                _DATA                 DATA           0003:0000085c  ! 00000000
/mnt/sda5/.user/root/src/openwatcom-1.9/bld/clib/streamio/c/uvscnf_s.c
                _TEXT                 CODE           0002:0002cb70  ! 0000012e
                CONST                 DATA           0003:0000000c  ! 00000000
                CONST2                DATA           0003:00000068  ! 00000000
                _DATA                 DATA           0003:0000085c  ! 00000000
/mnt/sda5/.user/root/src/openwatcom-1.9/bld/clib/streamio/c/vfprintf.c
                _TEXT                 CODE           0002:0002cca0  ! 00000030
                CONST                 DATA           0003:0000000c  ! 00000000
                CONST2                DATA           0003:00000068  ! 00000000
                _DATA                 DATA           0003:0000085c  ! 00000000
/mnt/sda5/.user/root/src/openwatcom-1.9/bld/clib/streamio/c/vfprnt_s.c
                _TEXT                 CODE           0002:0002ccd0  ! 00000030
                CONST                 DATA           0003:0000000c  ! 00000000
                CONST2                DATA           0003:00000068  ! 00000000
                _DATA                 DATA           0003:0000085c  ! 00000000
/mnt/sda5/.user/root/src/openwatcom-1.9/bld/clib/streamio/c/vfscnf_s.c
                _TEXT                 CODE           0002:0002cd00  ! 000001b1
                CONST                 DATA           0003:0000000c  ! 00000000
                CONST2                DATA           0003:00000068  ! 00000000
                _DATA                 DATA           0003:0000085c  ! 00000000
/mnt/sda5/.user/root/src/openwatcom-1.9/bld/clib/streamio/c/vprintf.c
                _TEXT                 CODE           0002:0002cec0  ! 00000031
                CONST                 DATA           0003:0000000c  ! 00000000
                CONST2                DATA           0003:00000068  ! 00000000
                _DATA                 DATA           0003:0000085c  ! 00000000
/mnt/sda5/.user/root/src/openwatcom-1.9/bld/clib/streamio/c/vprntf_s.c
                _TEXT                 CODE           0002:0002cf00  ! 00000031
                CONST                 DATA           0003:0000000c  ! 00000000
                CONST2                DATA           0003:00000068  ! 00000000
                _DATA                 DATA           0003:0000085c  ! 00000000
/mnt/sda5/.user/root/src/openwatcom-1.9/bld/clib/streamio/c/vscanf_s.c
                _TEXT                 CODE           0002:0002cf40  ! 0000011e
                CONST                 DATA           0003:0000000c  ! 00000000
                CONST2                DATA           0003:00000068  ! 00000000
                _DATA                 DATA           0003:0000085c  ! 00000000
/mnt/sda5/.user/root/src/openwatcom-1.9/bld/clib/string/c/bprintf.c
                _TEXT                 CODE           0002:0002d060  ! 000001b4
                CONST                 DATA           0003:0000000c  ! 00000000
                CONST2                DATA           0003:00000068  ! 00000000
                _DATA                 DATA           0003:0000085c  ! 00000000
/mnt/sda5/.user/root/src/openwatcom-1.9/bld/clib/string/a/cmp386.asm
                _TEXT                 CODE           0002:0002d220  ! 0000013e
                _DATA                 DATA           0003:0000085c  ! 00000000
/mnt/sda5/.user/root/src/openwatcom-1.9/bld/clib/string/c/fstrcat.c
                _TEXT                 CODE           0002:0002d360  ! 0000008a
                CONST                 DATA           0003:0000000c  ! 00000000
                CONST2                DATA           0003:00000068  ! 00000000
                _DATA                 DATA           0003:0000085c  ! 00000000
/mnt/sda5/.user/root/src/openwatcom-1.9/bld/clib/string/c/fstrchr.c
                _TEXT                 CODE           0002:0002d3f0  ! 00000068
                CONST                 DATA           0003:0000000c  ! 00000000
                CONST2                DATA           0003:00000068  ! 00000000
                _DATA                 DATA           0003:0000085c  ! 00000000
/mnt/sda5/.user/root/src/openwatcom-1.9/bld/clib/string/c/fstrcmp.c
                _TEXT                 CODE           0002:0002d460  ! 0000008b
                CONST                 DATA           0003:0000000c  ! 00000000
                CONST2                DATA           0003:00000068  ! 00000000
                _DATA                 DATA           0003:0000085c  ! 00000000
/mnt/sda5/.user/root/src/openwatcom-1.9/bld/clib/string/c/fstrcpy.c
                _TEXT                 CODE           0002:0002d4f0  ! 00000072
                CONST                 DATA           0003:0000000c  ! 00000000
                CONST2                DATA           0003:00000068  ! 00000000
                _DATA                 DATA           0003:0000085c  ! 00000000
/mnt/sda5/.user/root/src/openwatcom-1.9/bld/clib/string/c/fstrcspn.c
                _TEXT                 CODE           0002:0002d570  ! 00000095
                CONST                 DATA           0003:0000000c  ! 00000000
                CONST2                DATA           0003:00000068  ! 00000000
                _DATA                 DATA           0003:0000085c  ! 00000000
/mnt/sda5/.user/root/src/openwatcom-1.9/bld/clib/string/c/fstrdup.c
                _TEXT                 CODE           0002:0002d610  ! 0000007a
                CONST                 DATA           0003:0000000c  ! 00000000
                CONST2                DATA           0003:00000068  ! 00000000
                _DATA                 DATA           0003:0000085c  ! 00000000
/mnt/sda5/.user/root/src/openwatcom-1.9/bld/clib/string/c/fstricmp.c
                _TEXT                 CODE           0002:0002d690  ! 00000095
                CONST                 DATA           0003:0000000c  ! 00000000
                CONST2                DATA           0003:00000068  ! 00000000
                _DATA                 DATA           0003:0000085c  ! 00000000
/mnt/sda5/.user/root/src/openwatcom-1.9/bld/clib/string/c/fstrlen.c
                _TEXT                 CODE           0002:0002d730  ! 0000004d
                CONST                 DATA           0003:0000000c  ! 00000000
                CONST2                DATA           0003:00000068  ! 00000000
                _DATA                 DATA           0003:0000085c  ! 00000000
/mnt/sda5/.user/root/src/openwatcom-1.9/bld/clib/string/c/fstrlwr.c
                _TEXT                 CODE           0002:0002d780  ! 00000074
                CONST                 DATA           0003:0000000c  ! 00000000
                CONST2                DATA           0003:00000068  ! 00000000
                _DATA                 DATA           0003:0000085c  ! 00000000
/mnt/sda5/.user/root/src/openwatcom-1.9/bld/clib/string/c/fstrncat.c
                _TEXT                 CODE           0002:0002d800  ! 0000009f
                CONST                 DATA           0003:0000000c  ! 00000000
                CONST2                DATA           0003:00000068  ! 00000000
                _DATA                 DATA           0003:0000085c  ! 00000000
/mnt/sda5/.user/root/src/openwatcom-1.9/bld/clib/string/c/fstrncmp.c
                _TEXT                 CODE           0002:0002d8a0  ! 00000096
                CONST                 DATA           0003:0000000c  ! 00000000
                CONST2                DATA           0003:00000068  ! 00000000
                _DATA                 DATA           0003:0000085c  ! 00000000
/mnt/sda5/.user/root/src/openwatcom-1.9/bld/clib/string/c/fstrncpy.c
                _TEXT                 CODE           0002:0002d940  ! 000000a3
                CONST                 DATA           0003:0000000c  ! 00000000
                CONST2                DATA           0003:00000068  ! 00000000
                _DATA                 DATA           0003:0000085c  ! 00000000
/mnt/sda5/.user/root/src/openwatcom-1.9/bld/clib/string/c/fstrnicm.c
                _TEXT                 CODE           0002:0002d9f0  ! 000000b7
                CONST                 DATA           0003:0000000c  ! 00000000
                CONST2                DATA           0003:00000068  ! 00000000
                _DATA                 DATA           0003:0000085c  ! 00000000
/mnt/sda5/.user/root/src/openwatcom-1.9/bld/clib/string/c/fstrnset.c
                _TEXT                 CODE           0002:0002dab0  ! 0000006e
                CONST                 DATA           0003:0000000c  ! 00000000
                CONST2                DATA           0003:00000068  ! 00000000
                _DATA                 DATA           0003:0000085c  ! 00000000
/mnt/sda5/.user/root/src/openwatcom-1.9/bld/clib/string/c/fstrpbrk.c
                _TEXT                 CODE           0002:0002db20  ! 000000a2
                CONST                 DATA           0003:0000000c  ! 00000000
                CONST2                DATA           0003:00000068  ! 00000000
                _DATA                 DATA           0003:0000085c  ! 00000000
/mnt/sda5/.user/root/src/openwatcom-1.9/bld/clib/string/c/fstrrchr.c
                _TEXT                 CODE           0002:0002dbd0  ! 00000073
                CONST                 DATA           0003:0000000c  ! 00000000
                CONST2                DATA           0003:00000068  ! 00000000
                _DATA                 DATA           0003:0000085c  ! 00000000
/mnt/sda5/.user/root/src/openwatcom-1.9/bld/clib/string/c/fstrrev.c
                _TEXT                 CODE           0002:0002dc50  ! 000000a9
                CONST                 DATA           0003:0000000c  ! 00000000
                CONST2                DATA           0003:00000068  ! 00000000
                _DATA                 DATA           0003:0000085c  ! 00000000
/mnt/sda5/.user/root/src/openwatcom-1.9/bld/clib/string/c/fstrset.c
                _TEXT                 CODE           0002:0002dd00  ! 00000061
                CONST                 DATA           0003:0000000c  ! 00000000
                CONST2                DATA           0003:00000068  ! 00000000
                _DATA                 DATA           0003:0000085c  ! 00000000
/mnt/sda5/.user/root/src/openwatcom-1.9/bld/clib/string/c/fstrspn.c
                _TEXT                 CODE           0002:0002dd70  ! 00000095
                CONST                 DATA           0003:0000000c  ! 00000000
                CONST2                DATA           0003:00000068  ! 00000000
                _DATA                 DATA           0003:0000085c  ! 00000000
/mnt/sda5/.user/root/src/openwatcom-1.9/bld/clib/string/c/fstrspnp.c
                _TEXT                 CODE           0002:0002de10  ! 0000006f
                CONST                 DATA           0003:0000000c  ! 00000000
                CONST2                DATA           0003:00000068  ! 00000000
                _DATA                 DATA           0003:0000085c  ! 00000000
/mnt/sda5/.user/root/src/openwatcom-1.9/bld/clib/string/c/fstrstr.c
                _TEXT                 CODE           0002:0002de80  ! 0000014e
                CONST                 DATA           0003:0000000c  ! 00000000
                CONST2                DATA           0003:00000068  ! 00000000
                _DATA                 DATA           0003:0000085c  ! 00000000
/mnt/sda5/.user/root/src/openwatcom-1.9/bld/clib/string/c/fstrtok.c
                _TEXT                 CODE           0002:0002dfd0  ! 000001ab
                CONST                 DATA           0003:0000000c  ! 00000000
                CONST2                DATA           0003:00000068  ! 00000000
                _DATA                 DATA           0003:0000085c  ! 00000000
/mnt/sda5/.user/root/src/openwatcom-1.9/bld/clib/string/c/fstrupr.c
                _TEXT                 CODE           0002:0002e180  ! 00000074
                CONST                 DATA           0003:0000000c  ! 00000000
                CONST2                DATA           0003:00000068  ! 00000000
                _DATA                 DATA           0003:0000085c  ! 00000000
/mnt/sda5/.user/root/src/openwatcom-1.9/bld/clib/string/c/selptr.c
                _TEXT                 CODE           0002:0002e200  ! 00000021
                CONST                 DATA           0003:0000000c  ! 00000000
                CONST2                DATA           0003:00000068  ! 00000000
                _DATA                 DATA           0003:0000085c  ! 00000000
/mnt/sda5/.user/root/src/openwatcom-1.9/bld/clib/string/c/sneptr.c
                _TEXT                 CODE           0002:0002e230  ! 00000021
                CONST                 DATA           0003:0000000c  ! 00000000
                CONST2                DATA           0003:00000068  ! 00000000
                _DATA                 DATA           0003:0000085c  ! 00000000
/mnt/sda5/.user/root/src/openwatcom-1.9/bld/clib/string/c/snprintf.c
                _TEXT                 CODE           0002:0002e260  ! 00000144
                CONST                 DATA           0003:0000000c  ! 00000000
                CONST2                DATA           0003:00000068  ! 00000000
                _DATA                 DATA           0003:0000085c  ! 00000000
/mnt/sda5/.user/root/src/openwatcom-1.9/bld/clib/string/c/snprtf_s.c
                _TEXT                 CODE           0002:0002e3b0  ! 000001b5
                CONST                 DATA           0003:0000000c  ! 00000000
                CONST2                DATA           0003:00000068  ! 00000000
                _DATA                 DATA           0003:0000085c  ! 00000000
/mnt/sda5/.user/root/src/openwatcom-1.9/bld/clib/string/c/sprintf.c
                _TEXT                 CODE           0002:0002e570  ! 00000031
                CONST                 DATA           0003:0000000c  ! 00000000
                CONST2                DATA           0003:00000068  ! 00000000
                _DATA                 DATA           0003:0000085c  ! 00000000
/mnt/sda5/.user/root/src/openwatcom-1.9/bld/clib/string/c/sprntf_s.c
                _TEXT                 CODE           0002:0002e5b0  ! 000001d7
                CONST                 DATA           0003:0000000c  ! 00000000
                CONST2                DATA           0003:00000068  ! 00000000
                _DATA                 DATA           0003:0000085c  ! 00000000
/mnt/sda5/.user/root/src/openwatcom-1.9/bld/clib/string/c/sscanf.c
                _TEXT                 CODE           0002:0002e790  ! 00000101
                CONST                 DATA           0003:0000000c  ! 00000000
                CONST2                DATA           0003:00000068  ! 00000000
                _DATA                 DATA           0003:0000085c  ! 00000000
/mnt/sda5/.user/root/src/openwatcom-1.9/bld/clib/string/c/sscanf_s.c
                _TEXT                 CODE           0002:0002e8a0  ! 00000172
                CONST                 DATA           0003:0000000c  ! 00000000
                CONST2                DATA           0003:00000068  ! 00000000
                _DATA                 DATA           0003:0000085c  ! 00000000
/mnt/sda5/.user/root/src/openwatcom-1.9/bld/clib/string/c/strcat.c
                _TEXT                 CODE           0002:0002ea20  ! 0000004f
                CONST                 DATA           0003:0000000c  ! 00000000
                CONST2                DATA           0003:00000068  ! 00000000
                _DATA                 DATA           0003:0000085c  ! 00000000
/mnt/sda5/.user/root/src/openwatcom-1.9/bld/clib/string/c/strchr.c
                _TEXT                 CODE           0002:0002ea70  ! 00000048
                CONST                 DATA           0003:0000000c  ! 00000000
                CONST2                DATA           0003:00000068  ! 00000000
                _DATA                 DATA           0003:0000085c  ! 00000000
/mnt/sda5/.user/root/src/openwatcom-1.9/bld/clib/string/c/strcoll.c
                _TEXT                 CODE           0002:0002eac0  ! 0000005f
                CONST                 DATA           0003:0000000c  ! 00000000
                CONST2                DATA           0003:00000068  ! 00000000
                _DATA                 DATA           0003:0000085c  ! 00000000
/mnt/sda5/.user/root/src/openwatcom-1.9/bld/clib/string/c/strcpy.c
                _TEXT                 CODE           0002:0002eb20  ! 00000047
                CONST                 DATA           0003:0000000c  ! 00000000
                CONST2                DATA           0003:00000068  ! 00000000
                _DATA                 DATA           0003:0000085c  ! 00000000
/mnt/sda5/.user/root/src/openwatcom-1.9/bld/clib/string/c/strcspn.c
                _TEXT                 CODE           0002:0002eb70  ! 00000075
                CONST                 DATA           0003:0000000c  ! 00000000
                CONST2                DATA           0003:00000068  ! 00000000
                _DATA                 DATA           0003:0000085c  ! 00000000
/mnt/sda5/.user/root/src/openwatcom-1.9/bld/clib/string/c/strdup.c
                _TEXT                 CODE           0002:0002ebf0  ! 0000004e
                CONST                 DATA           0003:0000000c  ! 00000000
                CONST2                DATA           0003:00000068  ! 00000000
                _DATA                 DATA           0003:0000085c  ! 00000000
/mnt/sda5/.user/root/src/openwatcom-1.9/bld/clib/string/c/strerror.c
                _TEXT                 CODE           0002:0002ec40  ! 000003fa
                CONST                 DATA           0003:0000000c  ! 00000000
                CONST2                DATA           0003:00000068  ! 00000000
                _DATA                 DATA           0003:0000085c  ! 000000a8
                _BSS                  BSS            0003:000016c0  ! 00000100
/mnt/sda5/.user/root/src/openwatcom-1.9/bld/clib/string/c/stricmp.c
                _TEXT                 CODE           0002:0002f040  ! 0000007b
                CONST                 DATA           0003:0000000c  ! 00000000
                CONST2                DATA           0003:00000068  ! 00000000
                _DATA                 DATA           0003:00000904  ! 00000000
/mnt/sda5/.user/root/src/openwatcom-1.9/bld/clib/string/c/strlcat.c
                _TEXT                 CODE           0002:0002f0c0  ! 000000a0
                CONST                 DATA           0003:0000000c  ! 00000000
                CONST2                DATA           0003:00000068  ! 00000000
                _DATA                 DATA           0003:00000904  ! 00000000
/mnt/sda5/.user/root/src/openwatcom-1.9/bld/clib/string/c/strlcpy.c
                _TEXT                 CODE           0002:0002f160  ! 0000008c
                CONST                 DATA           0003:0000000c  ! 00000000
                CONST2                DATA           0003:00000068  ! 00000000
                _DATA                 DATA           0003:00000904  ! 00000000
/mnt/sda5/.user/root/src/openwatcom-1.9/bld/clib/string/c/strlen.c
                _TEXT                 CODE           0002:0002f1f0  ! 00000039
                CONST                 DATA           0003:0000000c  ! 00000000
                CONST2                DATA           0003:00000068  ! 00000000
                _DATA                 DATA           0003:00000904  ! 00000000
/mnt/sda5/.user/root/src/openwatcom-1.9/bld/clib/string/c/strlwr.c
                _TEXT                 CODE           0002:0002f230  ! 00000052
                CONST                 DATA           0003:0000000c  ! 00000000
                CONST2                DATA           0003:00000068  ! 00000000
                _DATA                 DATA           0003:00000904  ! 00000000
/mnt/sda5/.user/root/src/openwatcom-1.9/bld/clib/string/c/strncat.c
                _TEXT                 CODE           0002:0002f290  ! 00000063
                CONST                 DATA           0003:0000000c  ! 00000000
                CONST2                DATA           0003:00000068  ! 00000000
                _DATA                 DATA           0003:00000904  ! 00000000
/mnt/sda5/.user/root/src/openwatcom-1.9/bld/clib/string/c/strncmp.c
                _TEXT                 CODE           0002:0002f300  ! 0000006f
                CONST                 DATA           0003:0000000c  ! 00000000
                CONST2                DATA           0003:00000068  ! 00000000
                _DATA                 DATA           0003:00000904  ! 00000000
/mnt/sda5/.user/root/src/openwatcom-1.9/bld/clib/string/c/strncpy.c
                _TEXT                 CODE           0002:0002f370  ! 00000066
                CONST                 DATA           0003:0000000c  ! 00000000
                CONST2                DATA           0003:00000068  ! 00000000
                _DATA                 DATA           0003:00000904  ! 00000000
/mnt/sda5/.user/root/src/openwatcom-1.9/bld/clib/string/c/strnicmp.c
                _TEXT                 CODE           0002:0002f3e0  ! 00000099
                CONST                 DATA           0003:0000000c  ! 00000000
                CONST2                DATA           0003:00000068  ! 00000000
                _DATA                 DATA           0003:00000904  ! 00000000
/mnt/sda5/.user/root/src/openwatcom-1.9/bld/clib/string/c/strnset.c
                _TEXT                 CODE           0002:0002f480  ! 0000004c
                CONST                 DATA           0003:0000000c  ! 00000000
                CONST2                DATA           0003:00000068  ! 00000000
                _DATA                 DATA           0003:00000904  ! 00000000
/mnt/sda5/.user/root/src/openwatcom-1.9/bld/clib/string/c/strpbrk.c
                _TEXT                 CODE           0002:0002f4d0  ! 00000072
                CONST                 DATA           0003:0000000c  ! 00000000
                CONST2                DATA           0003:00000068  ! 00000000
                _DATA                 DATA           0003:00000904  ! 00000000
/mnt/sda5/.user/root/src/openwatcom-1.9/bld/clib/string/c/strrchr.c
                _TEXT                 CODE           0002:0002f550  ! 0000004c
                CONST                 DATA           0003:0000000c  ! 00000000
                CONST2                DATA           0003:00000068  ! 00000000
                _DATA                 DATA           0003:00000904  ! 00000000
/mnt/sda5/.user/root/src/openwatcom-1.9/bld/clib/string/c/strrev.c
                _TEXT                 CODE           0002:0002f5a0  ! 00000069
                CONST                 DATA           0003:0000000c  ! 00000000
                CONST2                DATA           0003:00000068  ! 00000000
                _DATA                 DATA           0003:00000904  ! 00000000
/mnt/sda5/.user/root/src/openwatcom-1.9/bld/clib/string/c/strset.c
                _TEXT                 CODE           0002:0002f610  ! 0000003f
                CONST                 DATA           0003:0000000c  ! 00000000
                CONST2                DATA           0003:00000068  ! 00000000
                _DATA                 DATA           0003:00000904  ! 00000000
/mnt/sda5/.user/root/src/openwatcom-1.9/bld/clib/string/c/strspnp.c
                _TEXT                 CODE           0002:0002f650  ! 00000049
                CONST                 DATA           0003:0000000c  ! 00000000
                CONST2                DATA           0003:00000068  ! 00000000
                _DATA                 DATA           0003:00000904  ! 00000000
/mnt/sda5/.user/root/src/openwatcom-1.9/bld/clib/string/c/strspn.c
                _TEXT                 CODE           0002:0002f6a0  ! 00000075
                CONST                 DATA           0003:0000000c  ! 00000000
                CONST2                DATA           0003:00000068  ! 00000000
                _DATA                 DATA           0003:00000904  ! 00000000
/mnt/sda5/.user/root/src/openwatcom-1.9/bld/clib/string/c/strstr.c
                _TEXT                 CODE           0002:0002f720  ! 000000cc
                CONST                 DATA           0003:0000000c  ! 00000000
                CONST2                DATA           0003:00000068  ! 00000000
                _DATA                 DATA           0003:00000904  ! 00000000
/mnt/sda5/.user/root/src/openwatcom-1.9/bld/clib/string/c/strtok.c
                _TEXT                 CODE           0002:0002f7f0  ! 00000110
                CONST                 DATA           0003:0000000c  ! 00000000
                CONST2                DATA           0003:00000068  ! 00000000
                _DATA                 DATA           0003:00000904  ! 00000000
/mnt/sda5/.user/root/src/openwatcom-1.9/bld/clib/string/c/strupr.c
                _TEXT                 CODE           0002:0002f900  ! 00000052
                CONST                 DATA           0003:0000000c  ! 00000000
                CONST2                DATA           0003:00000068  ! 00000000
                _DATA                 DATA           0003:00000904  ! 00000000
/mnt/sda5/.user/root/src/openwatcom-1.9/bld/clib/string/c/strxfrm.c
                _TEXT                 CODE           0002:0002f960  ! 00000053
                CONST                 DATA           0003:0000000c  ! 00000000
                CONST2                DATA           0003:00000068  ! 00000000
                _DATA                 DATA           0003:00000904  ! 00000000
/mnt/sda5/.user/root/src/openwatcom-1.9/bld/clib/string/c/stncat_s.c
                _TEXT                 CODE           0002:0002f9c0  ! 000002b9
                CONST                 DATA           0003:0000000c  ! 00000000
                CONST2                DATA           0003:00000068  ! 00000000
                _DATA                 DATA           0003:00000904  ! 00000000
/mnt/sda5/.user/root/src/openwatcom-1.9/bld/clib/string/c/stncpy_s.c
                _TEXT                 CODE           0002:0002fc80  ! 00000250
                CONST                 DATA           0003:0000000c  ! 00000000
                CONST2                DATA           0003:00000068  ! 00000000
                _DATA                 DATA           0003:00000904  ! 00000000
/mnt/sda5/.user/root/src/openwatcom-1.9/bld/clib/string/c/strcat_s.c
                _TEXT                 CODE           0002:0002fed0  ! 00000262
                CONST                 DATA           0003:0000000c  ! 00000000
                CONST2                DATA           0003:00000068  ! 00000000
                _DATA                 DATA           0003:00000904  ! 00000000
/mnt/sda5/.user/root/src/openwatcom-1.9/bld/clib/string/c/strcpy_s.c
                _TEXT                 CODE           0002:00030140  ! 000001f9
                CONST                 DATA           0003:0000000c  ! 00000000
                CONST2                DATA           0003:00000068  ! 00000000
                _DATA                 DATA           0003:00000904  ! 00000000
/mnt/sda5/.user/root/src/openwatcom-1.9/bld/clib/string/c/streln_s.c
                _TEXT                 CODE           0002:00030340  ! 00000073
                CONST                 DATA           0003:0000000c  ! 00000000
                CONST2                DATA           0003:00000068  ! 00000000
                _DATA                 DATA           0003:00000904  ! 00000000
/mnt/sda5/.user/root/src/openwatcom-1.9/bld/clib/string/c/strerr_s.c
                _TEXT                 CODE           0002:000303c0  ! 000001b6
                CONST                 DATA           0003:0000000c  ! 00000000
                CONST2                DATA           0003:00000068  ! 00000000
                _DATA                 DATA           0003:00000904  ! 00000000
/mnt/sda5/.user/root/src/openwatcom-1.9/bld/clib/string/c/strnln_s.c
                _TEXT                 CODE           0002:00030580  ! 0000004b
                CONST                 DATA           0003:0000000c  ! 00000000
                CONST2                DATA           0003:00000068  ! 00000000
                _DATA                 DATA           0003:00000904  ! 00000000
/mnt/sda5/.user/root/src/openwatcom-1.9/bld/clib/string/c/strtok_s.c
                _TEXT                 CODE           0002:000305d0  ! 00000311
                CONST                 DATA           0003:0000000c  ! 00000000
                CONST2                DATA           0003:00000068  ! 00000000
                _DATA                 DATA           0003:00000904  ! 00000000
/mnt/sda5/.user/root/src/openwatcom-1.9/bld/clib/string/c/u_stprtf.c
                _TEXT                 CODE           0002:000308f0  ! 00000043
                CONST                 DATA           0003:0000000c  ! 00000000
                CONST2                DATA           0003:00000068  ! 00000000
                _DATA                 DATA           0003:00000904  ! 00000000
/mnt/sda5/.user/root/src/openwatcom-1.9/bld/clib/string/c/ubprintf.c
                _TEXT                 CODE           0002:00030933  ! 00000173
                CONST                 DATA           0003:0000000c  ! 00000000
                CONST2                DATA           0003:00000068  ! 00000000
                _DATA                 DATA           0003:00000904  ! 00000000
/mnt/sda5/.user/root/src/openwatcom-1.9/bld/clib/string/c/usnprt_s.c
                _TEXT                 CODE           0002:00030ab0  ! 000001bb
                CONST                 DATA           0003:0000000c  ! 00000000
                CONST2                DATA           0003:00000068  ! 00000000
                _DATA                 DATA           0003:00000904  ! 00000000
/mnt/sda5/.user/root/src/openwatcom-1.9/bld/clib/string/c/usprintf.c
                _TEXT                 CODE           0002:00030c6b  ! 00000057
                CONST                 DATA           0003:0000000c  ! 00000000
                CONST2                DATA           0003:00000068  ! 00000000
                _DATA                 DATA           0003:00000904  ! 00000000
/mnt/sda5/.user/root/src/openwatcom-1.9/bld/clib/string/c/usprtf_s.c
                _TEXT                 CODE           0002:00030cd0  ! 000001e4
                CONST                 DATA           0003:0000000c  ! 00000000
                CONST2                DATA           0003:00000068  ! 00000000
                _DATA                 DATA           0003:00000904  ! 00000000
/mnt/sda5/.user/root/src/openwatcom-1.9/bld/clib/string/c/usscanf.c
                _TEXT                 CODE           0002:00030eb4  ! 000000c7
                CONST                 DATA           0003:0000000c  ! 00000000
                CONST2                DATA           0003:00000068  ! 00000000
                _DATA                 DATA           0003:00000904  ! 00000000
/mnt/sda5/.user/root/src/openwatcom-1.9/bld/clib/string/c/usscnf_s.c
                _TEXT                 CODE           0002:00030f80  ! 00000172
                CONST                 DATA           0003:0000000c  ! 00000000
                CONST2                DATA           0003:00000068  ! 00000000
                _DATA                 DATA           0003:00000904  ! 00000000
/mnt/sda5/.user/root/src/openwatcom-1.9/bld/clib/string/c/ustrcat.c
                _TEXT                 CODE           0002:000310f2  ! 00000050
                CONST                 DATA           0003:0000000c  ! 00000000
                CONST2                DATA           0003:00000068  ! 00000000
                _DATA                 DATA           0003:00000904  ! 00000000
/mnt/sda5/.user/root/src/openwatcom-1.9/bld/clib/string/c/ustrchr.c
                _TEXT                 CODE           0002:00031142  ! 00000045
                CONST                 DATA           0003:0000000c  ! 00000000
                CONST2                DATA           0003:00000068  ! 00000000
                _DATA                 DATA           0003:00000904  ! 00000000
/mnt/sda5/.user/root/src/openwatcom-1.9/bld/clib/string/c/ustrcmp.c
                _TEXT                 CODE           0002:00031187  ! 00000058
                CONST                 DATA           0003:0000000c  ! 00000000
                CONST2                DATA           0003:00000068  ! 00000000
                _DATA                 DATA           0003:00000904  ! 00000000
/mnt/sda5/.user/root/src/openwatcom-1.9/bld/clib/string/c/ustrcoll.c
                _TEXT                 CODE           0002:000311e0  ! 00000066
                CONST                 DATA           0003:0000000c  ! 00000000
                CONST2                DATA           0003:00000068  ! 00000000
                _DATA                 DATA           0003:00000904  ! 00000000
/mnt/sda5/.user/root/src/openwatcom-1.9/bld/clib/string/c/ustrcpy.c
                _TEXT                 CODE           0002:00031246  ! 00000041
                CONST                 DATA           0003:0000000c  ! 00000000
                CONST2                DATA           0003:00000068  ! 00000000
                _DATA                 DATA           0003:00000904  ! 00000000
/mnt/sda5/.user/root/src/openwatcom-1.9/bld/clib/string/c/ustrcspn.c
                _TEXT                 CODE           0002:00031287  ! 0000007c
                CONST                 DATA           0003:0000000c  ! 00000000
                CONST2                DATA           0003:00000068  ! 00000000
                _DATA                 DATA           0003:00000904  ! 00000000
/mnt/sda5/.user/root/src/openwatcom-1.9/bld/clib/string/c/ustrdup.c
                _TEXT                 CODE           0002:00031303  ! 0000004b
                CONST                 DATA           0003:0000000c  ! 00000000
                CONST2                DATA           0003:00000068  ! 00000000
                _DATA                 DATA           0003:00000904  ! 00000000
/mnt/sda5/.user/root/src/openwatcom-1.9/bld/clib/string/c/ustrerro.c
                _TEXT                 CODE           0002:00031350  ! 0000010e
                CONST                 DATA           0003:0000000c  ! 00000000
                CONST2                DATA           0003:00000068  ! 00000000
                _DATA                 DATA           0003:00000904  ! 00000000
                _BSS                  BSS            0003:000017c0  ! 00000250
/mnt/sda5/.user/root/src/openwatcom-1.9/bld/clib/string/c/ustricmp.c
                _TEXT                 CODE           0002:0003145e  ! 0000008e
                CONST                 DATA           0003:0000000c  ! 00000000
                CONST2                DATA           0003:00000068  ! 00000000
                _DATA                 DATA           0003:00000904  ! 00000000
/mnt/sda5/.user/root/src/openwatcom-1.9/bld/clib/string/c/ustrlcat.c
                _TEXT                 CODE           0002:000314ec  ! 000000a5
                CONST                 DATA           0003:0000000c  ! 00000000
                CONST2                DATA           0003:00000068  ! 00000000
                _DATA                 DATA           0003:00000904  ! 00000000
/mnt/sda5/.user/root/src/openwatcom-1.9/bld/clib/string/c/ustrlcpy.c
                _TEXT                 CODE           0002:00031591  ! 00000090
                CONST                 DATA           0003:0000000c  ! 00000000
                CONST2                DATA           0003:00000068  ! 00000000
                _DATA                 DATA           0003:00000904  ! 00000000
/mnt/sda5/.user/root/src/openwatcom-1.9/bld/clib/string/c/ustrlen.c
                _TEXT                 CODE           0002:00031621  ! 00000036
                CONST                 DATA           0003:0000000c  ! 00000000
                CONST2                DATA           0003:00000068  ! 00000000
                _DATA                 DATA           0003:00000904  ! 00000000
/mnt/sda5/.user/root/src/openwatcom-1.9/bld/clib/string/c/ustrlwr.c
                _TEXT                 CODE           0002:00031657  ! 00000058
                CONST                 DATA           0003:0000000c  ! 00000000
                CONST2                DATA           0003:00000068  ! 00000000
                _DATA                 DATA           0003:00000904  ! 00000000
/mnt/sda5/.user/root/src/openwatcom-1.9/bld/clib/string/c/ustrncat.c
                _TEXT                 CODE           0002:000316af  ! 00000063
                CONST                 DATA           0003:0000000c  ! 00000000
                CONST2                DATA           0003:00000068  ! 00000000
                _DATA                 DATA           0003:00000904  ! 00000000
/mnt/sda5/.user/root/src/openwatcom-1.9/bld/clib/string/c/ustrncmp.c
                _TEXT                 CODE           0002:00031712  ! 00000068
                CONST                 DATA           0003:0000000c  ! 00000000
                CONST2                DATA           0003:00000068  ! 00000000
                _DATA                 DATA           0003:00000904  ! 00000000
/mnt/sda5/.user/root/src/openwatcom-1.9/bld/clib/string/c/ustrncpy.c
                _TEXT                 CODE           0002:0003177a  ! 00000067
                CONST                 DATA           0003:0000000c  ! 00000000
                CONST2                DATA           0003:00000068  ! 00000000
                _DATA                 DATA           0003:00000904  ! 00000000
/mnt/sda5/.user/root/src/openwatcom-1.9/bld/clib/string/c/ustrnicm.c
                _TEXT                 CODE           0002:000317e1  ! 000000af
                CONST                 DATA           0003:0000000c  ! 00000000
                CONST2                DATA           0003:00000068  ! 00000000
                _DATA                 DATA           0003:00000904  ! 00000000
/mnt/sda5/.user/root/src/openwatcom-1.9/bld/clib/string/c/ustrnset.c
                _TEXT                 CODE           0002:00031890  ! 00000048
                CONST                 DATA           0003:0000000c  ! 00000000
                CONST2                DATA           0003:00000068  ! 00000000
                _DATA                 DATA           0003:00000904  ! 00000000
/mnt/sda5/.user/root/src/openwatcom-1.9/bld/clib/string/c/ustrpbrk.c
                _TEXT                 CODE           0002:000318d8  ! 00000083
                CONST                 DATA           0003:0000000c  ! 00000000
                CONST2                DATA           0003:00000068  ! 00000000
                _DATA                 DATA           0003:00000904  ! 00000000
/mnt/sda5/.user/root/src/openwatcom-1.9/bld/clib/string/c/ustrrchr.c
                _TEXT                 CODE           0002:0003195b  ! 00000049
                CONST                 DATA           0003:0000000c  ! 00000000
                CONST2                DATA           0003:00000068  ! 00000000
                _DATA                 DATA           0003:00000904  ! 00000000
/mnt/sda5/.user/root/src/openwatcom-1.9/bld/clib/string/c/ustrrev.c
                _TEXT                 CODE           0002:000319a4  ! 0000006a
                CONST                 DATA           0003:0000000c  ! 00000000
                CONST2                DATA           0003:00000068  ! 00000000
                _DATA                 DATA           0003:00000904  ! 00000000
/mnt/sda5/.user/root/src/openwatcom-1.9/bld/clib/string/c/ustrset.c
                _TEXT                 CODE           0002:00031a0e  ! 0000003b
                CONST                 DATA           0003:0000000c  ! 00000000
                CONST2                DATA           0003:00000068  ! 00000000
                _DATA                 DATA           0003:00000904  ! 00000000
/mnt/sda5/.user/root/src/openwatcom-1.9/bld/clib/string/c/ustrspn.c
                _TEXT                 CODE           0002:00031a49  ! 0000007c
                CONST                 DATA           0003:0000000c  ! 00000000
                CONST2                DATA           0003:00000068  ! 00000000
                _DATA                 DATA           0003:00000904  ! 00000000
/mnt/sda5/.user/root/src/openwatcom-1.9/bld/clib/string/c/ustrspnp.c
                _TEXT                 CODE           0002:00031ad0  ! 00000050
                CONST                 DATA           0003:0000000c  ! 00000000
                CONST2                DATA           0003:00000068  ! 00000000
                _DATA                 DATA           0003:00000904  ! 00000000
/mnt/sda5/.user/root/src/openwatcom-1.9/bld/clib/string/c/ustrstr.c
                _TEXT                 CODE           0002:00031b20  ! 000000bf
                CONST                 DATA           0003:0000000c  ! 00000000
                CONST2                DATA           0003:00000068  ! 00000000
                _DATA                 DATA           0003:00000904  ! 00000000
/mnt/sda5/.user/root/src/openwatcom-1.9/bld/clib/string/c/ustrtok.c
                _TEXT                 CODE           0002:00031bdf  ! 0000018b
                CONST                 DATA           0003:0000000c  ! 00000000
                CONST2                DATA           0003:00000068  ! 00000000
                _DATA                 DATA           0003:00000904  ! 00000000
/mnt/sda5/.user/root/src/openwatcom-1.9/bld/clib/string/c/ustrupr.c
                _TEXT                 CODE           0002:00031d6a  ! 00000058
                CONST                 DATA           0003:0000000c  ! 00000000
                CONST2                DATA           0003:00000068  ! 00000000
                _DATA                 DATA           0003:00000904  ! 00000000
/mnt/sda5/.user/root/src/openwatcom-1.9/bld/clib/string/c/ustrxfrm.c
                _TEXT                 CODE           0002:00031dd0  ! 00000058
                CONST                 DATA           0003:0000000c  ! 00000000
                CONST2                DATA           0003:00000068  ! 00000000
                _DATA                 DATA           0003:00000904  ! 00000000
/mnt/sda5/.user/root/src/openwatcom-1.9/bld/clib/string/c/uvsnpr_s.c
                _TEXT                 CODE           0002:00031e30  ! 000001b4
                CONST                 DATA           0003:0000000c  ! 00000000
                CONST2                DATA           0003:00000068  ! 00000000
                _DATA                 DATA           0003:00000904  ! 00000000
/mnt/sda5/.user/root/src/openwatcom-1.9/bld/clib/string/c/uvsprint.c
                _TEXT                 CODE           0002:00031fe4  ! 000000fd
                CONST                 DATA           0003:0000000c  ! 00000000
                CONST2                DATA           0003:00000068  ! 00000000
                _DATA                 DATA           0003:00000904  ! 00000000
/mnt/sda5/.user/root/src/openwatcom-1.9/bld/clib/string/c/uvsprt_s.c
                _TEXT                 CODE           0002:000320f0  ! 000001dd
                CONST                 DATA           0003:0000000c  ! 00000000
                CONST2                DATA           0003:00000068  ! 00000000
                _DATA                 DATA           0003:00000904  ! 00000000
/mnt/sda5/.user/root/src/openwatcom-1.9/bld/clib/string/c/uvsscn_s.c
                _TEXT                 CODE           0002:000322d0  ! 0000016a
                CONST                 DATA           0003:0000000c  ! 00000000
                CONST2                DATA           0003:00000068  ! 00000000
                _DATA                 DATA           0003:00000904  ! 00000000
/mnt/sda5/.user/root/src/openwatcom-1.9/bld/clib/string/c/ustcat_s.c
                _TEXT                 CODE           0002:00032440  ! 00000277
                CONST                 DATA           0003:0000000c  ! 00000000
                CONST2                DATA           0003:00000068  ! 00000000
                _DATA                 DATA           0003:00000904  ! 00000000
/mnt/sda5/.user/root/src/openwatcom-1.9/bld/clib/string/c/ustncp_s.c
                _TEXT                 CODE           0002:000326c0  ! 00000261
                CONST                 DATA           0003:0000000c  ! 00000000
                CONST2                DATA           0003:00000068  ! 00000000
                _DATA                 DATA           0003:00000904  ! 00000000
/mnt/sda5/.user/root/src/openwatcom-1.9/bld/clib/string/c/ustnct_s.c
                _TEXT                 CODE           0002:00032930  ! 000002cf
                CONST                 DATA           0003:0000000c  ! 00000000
                CONST2                DATA           0003:00000068  ! 00000000
                _DATA                 DATA           0003:00000904  ! 00000000
/mnt/sda5/.user/root/src/openwatcom-1.9/bld/clib/string/c/ustnln_s.c
                _TEXT                 CODE           0002:00032c00  ! 0000004e
                CONST                 DATA           0003:0000000c  ! 00000000
                CONST2                DATA           0003:00000068  ! 00000000
                _DATA                 DATA           0003:00000904  ! 00000000
/mnt/sda5/.user/root/src/openwatcom-1.9/bld/clib/string/c/ustrcp_s.c
                _TEXT                 CODE           0002:00032c50  ! 00000209
                CONST                 DATA           0003:0000000c  ! 00000000
                CONST2                DATA           0003:00000068  ! 00000000
                _DATA                 DATA           0003:00000904  ! 00000000
/mnt/sda5/.user/root/src/openwatcom-1.9/bld/clib/string/c/ustrel_s.c
                _TEXT                 CODE           0002:00032e60  ! 00000073
                CONST                 DATA           0003:0000000c  ! 00000000
                CONST2                DATA           0003:00000068  ! 00000000
                _DATA                 DATA           0003:00000904  ! 00000000
/mnt/sda5/.user/root/src/openwatcom-1.9/bld/clib/string/c/ustrer_s.c
                _TEXT                 CODE           0002:00032ee0  ! 000001ce
                CONST                 DATA           0003:0000000c  ! 00000000
                CONST2                DATA           0003:00000068  ! 00000000
                _DATA                 DATA           0003:00000904  ! 00000000
/mnt/sda5/.user/root/src/openwatcom-1.9/bld/clib/string/c/ustrtk_s.c
                _TEXT                 CODE           0002:000330b0  ! 0000032c
                CONST                 DATA           0003:0000000c  ! 00000000
                CONST2                DATA           0003:00000068  ! 00000000
                _DATA                 DATA           0003:00000904  ! 00000000
/mnt/sda5/.user/root/src/openwatcom-1.9/bld/clib/string/c/vsnprt_s.c
                _TEXT                 CODE           0002:000333e0  ! 000001ae
                CONST                 DATA           0003:0000000c  ! 00000000
                CONST2                DATA           0003:00000068  ! 00000000
                _DATA                 DATA           0003:00000904  ! 00000000
/mnt/sda5/.user/root/src/openwatcom-1.9/bld/clib/string/c/vsprintf.c
                _TEXT                 CODE           0002:00033590  ! 00000079
                CONST                 DATA           0003:0000000c  ! 00000000
                CONST2                DATA           0003:00000068  ! 00000000
                _DATA                 DATA           0003:00000904  ! 00000000
/mnt/sda5/.user/root/src/openwatcom-1.9/bld/clib/string/c/vsprtf_s.c
                _TEXT                 CODE           0002:00033610  ! 000001d0
                CONST                 DATA           0003:0000000c  ! 00000000
                CONST2                DATA           0003:00000068  ! 00000000
                _DATA                 DATA           0003:00000904  ! 00000000
/mnt/sda5/.user/root/src/openwatcom-1.9/bld/clib/string/c/vsscnf_s.c
                _TEXT                 CODE           0002:000337e0  ! 0000016a
                CONST                 DATA           0003:0000000c  ! 00000000
                CONST2                DATA           0003:00000068  ! 00000000
                _DATA                 DATA           0003:00000904  ! 00000000
/mnt/sda5/.user/root/src/openwatcom-1.9/bld/clib/time/c/asctime.c
                _TEXT                 CODE           0002:0003394a  ! 00000276
                CONST                 DATA           0003:0000000c  ! 00000000
                CONST2                DATA           0003:00000068  ! 00000000
                _DATA                 DATA           0003:00000904  ! 00000000
/mnt/sda5/.user/root/src/openwatcom-1.9/bld/clib/time/c/clocko32.c
                _TEXT                 CODE           0002:00033bc0  ! 00000055
                CONST                 DATA           0003:0000000c  ! 00000000
                CONST2                DATA           0003:00000068  ! 00000000
                _DATA                 DATA           0003:00000904  ! 00000000
                _BSS                  BSS            0003:00001a10  ! 00000004
                XIB                   DATA           0003:00000c88  ! 00000000
                XI                    DATA           0003:00000cbe  ! 00000006
                XIE                   DATA           0003:00000cee  ! 00000000
/mnt/sda5/.user/root/src/openwatcom-1.9/bld/clib/time/c/dyltptr.c
                _TEXT                 CODE           0002:00033c20  ! 00000021
                CONST                 DATA           0003:0000000c  ! 00000000
                CONST2                DATA           0003:00000068  ! 00000000
                _DATA                 DATA           0003:00000904  ! 00000000
/mnt/sda5/.user/root/src/openwatcom-1.9/bld/clib/time/c/ftime.c
                _TEXT                 CODE           0002:00033c50  ! 00000066
                CONST                 DATA           0003:0000000c  ! 00000000
                CONST2                DATA           0003:00000068  ! 00000000
                _DATA                 DATA           0003:00000904  ! 00000000
/mnt/sda5/.user/root/src/openwatcom-1.9/bld/clib/time/c/gmtime.c
                _TEXT                 CODE           0002:00033cc0  ! 00000261
                CONST                 DATA           0003:0000000c  ! 00000000
                CONST2                DATA           0003:00000068  ! 00000000
                _DATA                 DATA           0003:00000904  ! 00000000
/mnt/sda5/.user/root/src/openwatcom-1.9/bld/clib/time/c/localtim.c
                _TEXT                 CODE           0002:00033f30  ! 000000b1
                CONST                 DATA           0003:0000000c  ! 00000000
                CONST2                DATA           0003:00000068  ! 00000000
                _DATA                 DATA           0003:00000904  ! 00000000
/mnt/sda5/.user/root/src/openwatcom-1.9/bld/clib/time/c/mktime.c
                _TEXT                 CODE           0002:00033ff0  ! 0000009b
                CONST                 DATA           0003:0000000c  ! 00000000
                CONST2                DATA           0003:00000068  ! 00000000
                _DATA                 DATA           0003:00000904  ! 00000000
/mnt/sda5/.user/root/src/openwatcom-1.9/bld/clib/time/c/strdate.c
                _TEXT                 CODE           0002:00034090  ! 0000005d
                CONST                 DATA           0003:0000000c  ! 00000000
                CONST2                DATA           0003:00000068  ! 00000000
                _DATA                 DATA           0003:00000904  ! 00000000
/mnt/sda5/.user/root/src/openwatcom-1.9/bld/clib/time/c/strftime.c
                _TEXT                 CODE           0002:000340ed  ! 000009bd
                CONST                 DATA           0003:0000000c  ! 00000000
                CONST2                DATA           0003:00000068  ! 00000000
                _DATA                 DATA           0003:00000904  ! 00000000
/mnt/sda5/.user/root/src/openwatcom-1.9/bld/clib/time/c/strtime.c
                _TEXT                 CODE           0002:00034ab0  ! 0000005d
                CONST                 DATA           0003:0000000c  ! 00000000
                CONST2                DATA           0003:00000068  ! 00000000
                _DATA                 DATA           0003:00000904  ! 00000000
/mnt/sda5/.user/root/src/openwatcom-1.9/bld/clib/time/c/time.c
                _TEXT                 CODE           0002:00034b10  ! 00000056
                CONST                 DATA           0003:0000000c  ! 00000000
                CONST2                DATA           0003:00000068  ! 00000000
                _DATA                 DATA           0003:00000904  ! 00000000
/mnt/sda5/.user/root/src/openwatcom-1.9/bld/clib/time/c/tmznptr.c
                _TEXT                 CODE           0002:00034b70  ! 00000021
                CONST                 DATA           0003:0000000c  ! 00000000
                CONST2                DATA           0003:00000068  ! 00000000
                _DATA                 DATA           0003:00000904  ! 00000000
/mnt/sda5/.user/root/src/openwatcom-1.9/bld/clib/time/c/tznmptr.c
                _TEXT                 CODE           0002:00034ba0  ! 00000021
                CONST                 DATA           0003:0000000c  ! 00000000
                CONST2                DATA           0003:00000068  ! 00000000
                _DATA                 DATA           0003:00000904  ! 00000000
/mnt/sda5/.user/root/src/openwatcom-1.9/bld/clib/time/c/tzset.c
                _TEXT                 CODE           0002:00034bd0  ! 00000990
                CONST                 DATA           0003:0000000c  ! 00000000
                CONST2                DATA           0003:00000068  ! 00000000
                _DATA                 DATA           0003:00000904  ! 00000164
/mnt/sda5/.user/root/src/openwatcom-1.9/bld/clib/time/c/asctim_s.c
                _TEXT                 CODE           0002:00035560  ! 000001cc
                CONST                 DATA           0003:0000000c  ! 00000000
                CONST2                DATA           0003:00000068  ! 00000000
                _DATA                 DATA           0003:00000a68  ! 00000000
/mnt/sda5/.user/root/src/openwatcom-1.9/bld/clib/time/c/ctime_s.c
                _TEXT                 CODE           0002:00035730  ! 000001ac
                CONST                 DATA           0003:0000000c  ! 00000000
                CONST2                DATA           0003:00000068  ! 00000000
                _DATA                 DATA           0003:00000a68  ! 00000000
/mnt/sda5/.user/root/src/openwatcom-1.9/bld/clib/time/c/gmtime_s.c
                _TEXT                 CODE           0002:000358e0  ! 000000c3
                CONST                 DATA           0003:0000000c  ! 00000000
                CONST2                DATA           0003:00000068  ! 00000000
                _DATA                 DATA           0003:00000a68  ! 00000000
/mnt/sda5/.user/root/src/openwatcom-1.9/bld/clib/time/c/lcltim_s.c
                _TEXT                 CODE           0002:000359b0  ! 000000c3
                CONST                 DATA           0003:0000000c  ! 00000000
                CONST2                DATA           0003:00000068  ! 00000000
                _DATA                 DATA           0003:00000a68  ! 00000000
/mnt/sda5/.user/root/src/openwatcom-1.9/bld/clib/time/c/uasctime.c
                _TEXT                 CODE           0002:00035a73  ! 000002a1
                CONST                 DATA           0003:0000000c  ! 00000000
                CONST2                DATA           0003:00000068  ! 00000000
                _DATA                 DATA           0003:00000a68  ! 00000000
/mnt/sda5/.user/root/src/openwatcom-1.9/bld/clib/time/c/ustrdate.c
                _TEXT                 CODE           0002:00035d20  ! 0000005d
                CONST                 DATA           0003:0000000c  ! 00000000
                CONST2                DATA           0003:00000068  ! 00000000
                _DATA                 DATA           0003:00000a68  ! 00000000
/mnt/sda5/.user/root/src/openwatcom-1.9/bld/clib/time/c/ustrftim.c
                _TEXT                 CODE           0002:00035d7d  ! 00000b08
                CONST                 DATA           0003:0000000c  ! 00000000
                CONST2                DATA           0003:00000068  ! 00000000
                _DATA                 DATA           0003:00000a68  ! 00000000
/mnt/sda5/.user/root/src/openwatcom-1.9/bld/clib/time/c/ustrtime.c
                _TEXT                 CODE           0002:00036890  ! 0000005d
                CONST                 DATA           0003:0000000c  ! 00000000
                CONST2                DATA           0003:00000068  ! 00000000
                _DATA                 DATA           0003:00000a68  ! 00000000
/mnt/sda5/.user/root/src/openwatcom-1.9/bld/clib/time/c/uasctm_s.c
                _TEXT                 CODE           0002:000368ed  ! 000001d0
                CONST                 DATA           0003:0000000c  ! 00000000
                CONST2                DATA           0003:00000068  ! 00000000
                _DATA                 DATA           0003:00000a68  ! 00000000
/mnt/sda5/.user/root/src/openwatcom-1.9/bld/clib/time/c/uctime_s.c
                _TEXT                 CODE           0002:00036ac0  ! 000001ae
                CONST                 DATA           0003:0000000c  ! 00000000
                CONST2                DATA           0003:00000068  ! 00000000
                _DATA                 DATA           0003:00000a68  ! 00000000
/mnt/sda5/.user/root/src/openwatcom-1.9/bld/clib/_dos/c/allocos2.c
                _TEXT                 CODE           0002:00036c70  ! 000000a6
                CONST                 DATA           0003:0000000c  ! 00000000
                CONST2                DATA           0003:00000068  ! 00000000
                _DATA                 DATA           0003:00000a68  ! 00000000
/mnt/sda5/.user/root/src/openwatcom-1.9/bld/clib/_dos/c/creatos2.c
                _TEXT                 CODE           0002:00036d20  ! 0000007e
                CONST                 DATA           0003:0000000c  ! 00000000
                CONST2                DATA           0003:00000068  ! 00000000
                _DATA                 DATA           0003:00000a68  ! 00000000
/mnt/sda5/.user/root/src/openwatcom-1.9/bld/clib/_dos/c/crtnwos2.c
                _TEXT                 CODE           0002:00036da0  ! 0000007e
                CONST                 DATA           0003:0000000c  ! 00000000
                CONST2                DATA           0003:00000068  ! 00000000
                _DATA                 DATA           0003:00000a68  ! 00000000
/mnt/sda5/.user/root/src/openwatcom-1.9/bld/clib/_dos/c/dosgdf.c
                _TEXT                 CODE           0002:00036e20  ! 00000075
                CONST                 DATA           0003:0000000c  ! 00000000
                CONST2                DATA           0003:00000068  ! 00000000
                _DATA                 DATA           0003:00000a68  ! 00000000
/mnt/sda5/.user/root/src/openwatcom-1.9/bld/clib/_dos/c/dosret.c
                _TEXT                 CODE           0002:00036ea0  ! 000000fb
                CONST                 DATA           0003:0000000c  ! 00000000
                CONST2                DATA           0003:00000068  ! 00000000
                _DATA                 DATA           0003:00000a68  ! 00000101
/mnt/sda5/.user/root/src/openwatcom-1.9/bld/clib/_dos/c/fileos2.c
                _TEXT                 CODE           0002:00036fa0  ! 00000176
                CONST                 DATA           0003:0000000c  ! 00000000
                CONST2                DATA           0003:00000068  ! 00000000
                _DATA                 DATA           0003:00000b6c  ! 00000000
/mnt/sda5/.user/root/src/openwatcom-1.9/bld/clib/_dos/c/findos2.c
                _TEXT                 CODE           0002:00037120  ! 000001cf
                CONST                 DATA           0003:0000000c  ! 00000000
                CONST2                DATA           0003:00000068  ! 00000000
                _DATA                 DATA           0003:00000b6c  ! 00000000
/mnt/sda5/.user/root/src/openwatcom-1.9/bld/clib/_dos/c/gdateos2.c
                _TEXT                 CODE           0002:000372f0  ! 0000004a
                CONST                 DATA           0003:0000000c  ! 00000000
                CONST2                DATA           0003:00000068  ! 00000000
                _DATA                 DATA           0003:00000b6c  ! 00000000
/mnt/sda5/.user/root/src/openwatcom-1.9/bld/clib/_dos/c/gdrveos2.c
                _TEXT                 CODE           0002:00037340  ! 00000032
                CONST                 DATA           0003:0000000c  ! 00000000
                CONST2                DATA           0003:00000068  ! 00000000
                _DATA                 DATA           0003:00000b6c  ! 00000000
/mnt/sda5/.user/root/src/openwatcom-1.9/bld/clib/_dos/c/gfatto32.c
                _TEXT                 CODE           0002:00037380  ! 00000057
                CONST                 DATA           0003:0000000c  ! 00000000
                CONST2                DATA           0003:00000068  ! 00000000
                _DATA                 DATA           0003:00000b6c  ! 00000000
/mnt/sda5/.user/root/src/openwatcom-1.9/bld/clib/_dos/c/gftimos2.c
                _TEXT                 CODE           0002:000373e0  ! 000000b6
                CONST                 DATA           0003:0000000c  ! 00000000
                CONST2                DATA           0003:00000068  ! 00000000
                _DATA                 DATA           0003:00000b6c  ! 00000000
/mnt/sda5/.user/root/src/openwatcom-1.9/bld/clib/_dos/c/gtimeos2.c
                _TEXT                 CODE           0002:000374a0  ! 00000049
                CONST                 DATA           0003:0000000c  ! 00000000
                CONST2                DATA           0003:00000068  ! 00000000
                _DATA                 DATA           0003:00000b6c  ! 00000000
/mnt/sda5/.user/root/src/openwatcom-1.9/bld/clib/_dos/c/reados2.c
                _TEXT                 CODE           0002:000374f0  ! 00000055
                CONST                 DATA           0003:0000000c  ! 00000000
                CONST2                DATA           0003:00000068  ! 00000000
                _DATA                 DATA           0003:00000b6c  ! 00000000
/mnt/sda5/.user/root/src/openwatcom-1.9/bld/clib/_dos/c/sdateos2.c
                _TEXT                 CODE           0002:00037550  ! 0000005d
                CONST                 DATA           0003:0000000c  ! 00000000
                CONST2                DATA           0003:00000068  ! 00000000
                _DATA                 DATA           0003:00000b6c  ! 00000000
/mnt/sda5/.user/root/src/openwatcom-1.9/bld/clib/_dos/c/sdrveos2.c
                _TEXT                 CODE           0002:000375b0  ! 0000005d
                CONST                 DATA           0003:0000000c  ! 00000000
                CONST2                DATA           0003:00000068  ! 00000000
                _DATA                 DATA           0003:00000b6c  ! 00000000
/mnt/sda5/.user/root/src/openwatcom-1.9/bld/clib/_dos/c/sfattos2.c
                _TEXT                 CODE           0002:00037610  ! 00000074
                CONST                 DATA           0003:0000000c  ! 00000000
                CONST2                DATA           0003:00000068  ! 00000000
                _DATA                 DATA           0003:00000b6c  ! 00000000
/mnt/sda5/.user/root/src/openwatcom-1.9/bld/clib/_dos/c/sftimos2.c
                _TEXT                 CODE           0002:00037690  ! 000000b1
                CONST                 DATA           0003:0000000c  ! 00000000
                CONST2                DATA           0003:00000068  ! 00000000
                _DATA                 DATA           0003:00000b6c  ! 00000000
/mnt/sda5/.user/root/src/openwatcom-1.9/bld/clib/_dos/c/stimeos2.c
                _TEXT                 CODE           0002:00037750  ! 0000005b
                CONST                 DATA           0003:0000000c  ! 00000000
                CONST2                DATA           0003:00000068  ! 00000000
                _DATA                 DATA           0003:00000b6c  ! 00000000
/mnt/sda5/.user/root/src/openwatcom-1.9/bld/clib/_dos/c/ufind.c
                _TEXT                 CODE           0002:000377b0  ! 00000188
                CONST                 DATA           0003:0000000c  ! 00000000
                CONST2                DATA           0003:00000068  ! 00000000
                _DATA                 DATA           0003:00000b6c  ! 00000000
/mnt/sda5/.user/root/src/openwatcom-1.9/bld/clib/_dos/c/writeos2.c
                _TEXT                 CODE           0002:00037940  ! 00000055
                CONST                 DATA           0003:0000000c  ! 00000000
                CONST2                DATA           0003:00000068  ! 00000000
                _DATA                 DATA           0003:00000b6c  ! 00000000
/mnt/sda5/.user/root/src/openwatcom-1.9/bld/clib/cgsupp/a/__stos.asm
                _TEXT                 CODE           0002:000379a0  ! 000000a3
                _DATA                 DATA           0003:00000b6c  ! 00000000
/mnt/sda5/.user/root/src/openwatcom-1.9/bld/clib/cgsupp/a/7fu8386.asm
                _TEXT                 CODE           0002:00037a44  ! 0000006a
                _DATA                 DATA           0003:00000b6c  ! 00000000
/mnt/sda5/.user/root/src/openwatcom-1.9/bld/clib/cgsupp/a/7u8f386.asm
                _TEXT                 CODE           0002:00037ab0  ! 00000036
                _DATA                 DATA           0003:00000b6c  ! 00000000
/mnt/sda5/.user/root/src/openwatcom-1.9/bld/clib/cgsupp/a/div386.asm
                _TEXT                 CODE           0002:00037ae8  ! 00000206
                _DATA                 DATA           0003:00000b6c  ! 00000000
/mnt/sda5/.user/root/src/openwatcom-1.9/bld/clib/cgsupp/a/fdc386.asm
                _TEXT                 CODE           0002:00037cf0  ! 00000038
                _DATA                 DATA           0003:00000b6c  ! 00000000
/mnt/sda5/.user/root/src/openwatcom-1.9/bld/clib/cgsupp/a/fdfs386.asm
                _TEXT                 CODE           0002:00037d28  ! 0000004c
                _DATA                 DATA           0003:00000b6c  ! 00000000
/mnt/sda5/.user/root/src/openwatcom-1.9/bld/clib/cgsupp/a/fdi4386.asm
                _TEXT                 CODE           0002:00037d74  ! 00000081
                _DATA                 DATA           0003:00000b6c  ! 00000000
/mnt/sda5/.user/root/src/openwatcom-1.9/bld/clib/cgsupp/a/fdi8386.asm
                _TEXT                 CODE           0002:00037df8  ! 0000008b
                _DATA                 DATA           0003:00000b6c  ! 00000000
/mnt/sda5/.user/root/src/openwatcom-1.9/bld/clib/cgsupp/a/fdmth386.asm
                _TEXT                 CODE           0002:00037e84  ! 0000035a
                _DATA                 DATA           0003:00000b6c  ! 00000000
/mnt/sda5/.user/root/src/openwatcom-1.9/bld/clib/cgsupp/a/fdn386.asm
                _TEXT                 CODE           0002:000381e0  ! 0000000f
                _DATA                 DATA           0003:00000b6c  ! 00000000
/mnt/sda5/.user/root/src/openwatcom-1.9/bld/clib/cgsupp/a/fsc386.asm
                _TEXT                 CODE           0002:000381f0  ! 0000001a
                _DATA                 DATA           0003:00000b6c  ! 00000000
/mnt/sda5/.user/root/src/openwatcom-1.9/bld/clib/cgsupp/a/fsfd386.asm
                _TEXT                 CODE           0002:0003820c  ! 0000007b
                _DATA                 DATA           0003:00000b6c  ! 00000000
/mnt/sda5/.user/root/src/openwatcom-1.9/bld/clib/cgsupp/a/fsi4386.asm
                _TEXT                 CODE           0002:00038288  ! 00000084
                _DATA                 DATA           0003:00000b6c  ! 00000000
/mnt/sda5/.user/root/src/openwatcom-1.9/bld/clib/cgsupp/a/fsi8386.asm
                _TEXT                 CODE           0002:0003830c  ! 0000007b
                _DATA                 DATA           0003:00000b6c  ! 00000000
/mnt/sda5/.user/root/src/openwatcom-1.9/bld/clib/cgsupp/a/fsmth386.asm
                _TEXT                 CODE           0002:00038388  ! 00000284
                _DATA                 DATA           0003:00000b6c  ! 0000000c
/mnt/sda5/.user/root/src/openwatcom-1.9/bld/clib/cgsupp/a/fsn386.asm
                _TEXT                 CODE           0002:0003860c  ! 0000000a
                _DATA                 DATA           0003:00000b78  ! 00000000
/mnt/sda5/.user/root/src/openwatcom-1.9/bld/clib/cgsupp/a/fstat386.asm
                _TEXT                 CODE           0002:00038618  ! 00000065
                _DATA                 DATA           0003:00000b78  ! 00000000
/mnt/sda5/.user/root/src/openwatcom-1.9/bld/clib/cgsupp/a/i4fs386.asm
                _TEXT                 CODE           0002:00038680  ! 0000003c
                _DATA                 DATA           0003:00000b78  ! 00000000
/mnt/sda5/.user/root/src/openwatcom-1.9/bld/clib/cgsupp/a/i4fd386.asm
                _TEXT                 CODE           0002:000386bc  ! 00000040
                _DATA                 DATA           0003:00000b78  ! 00000000
/mnt/sda5/.user/root/src/openwatcom-1.9/bld/clib/cgsupp/a/i8d.asm
                _TEXT                 CODE           0002:000386fc  ! 000000e3
                _DATA                 DATA           0003:00000b78  ! 00000000
/mnt/sda5/.user/root/src/openwatcom-1.9/bld/clib/cgsupp/a/i8fs386.asm
                _TEXT                 CODE           0002:000387e0  ! 0000005c
                _DATA                 DATA           0003:00000b78  ! 00000000
/mnt/sda5/.user/root/src/openwatcom-1.9/bld/clib/cgsupp/a/i8fd386.asm
                _TEXT                 CODE           0002:0003883c  ! 0000005d
                _DATA                 DATA           0003:00000b78  ! 00000000
/mnt/sda5/.user/root/src/openwatcom-1.9/bld/clib/cgsupp/a/i8m386.asm
                _TEXT                 CODE           0002:0003889c  ! 0000001c
                _DATA                 DATA           0003:00000b78  ! 00000000
/mnt/sda5/.user/root/src/openwatcom-1.9/bld/clib/cgsupp/a/i8rs386.asm
                _TEXT                 CODE           0002:000388b8  ! 0000004f
                _DATA                 DATA           0003:00000b78  ! 00000000
/mnt/sda5/.user/root/src/openwatcom-1.9/bld/clib/cgsupp/a/ldiv386.asm
                _TEXT                 CODE           0002:00038908  ! 0000000d
                _DATA                 DATA           0003:00000b78  ! 00000000
/mnt/sda5/.user/root/src/openwatcom-1.9/bld/clib/cgsupp/a/lldiv386.asm
                _TEXT                 CODE           0002:00038918  ! 00000011
                _DATA                 DATA           0003:00000b78  ! 00000000
timstamp        _TEXT                 CODE           0002:00038930  ! 00000015
                CONST                 DATA           0003:0000000c  ! 00000000
                CONST2                DATA           0003:00000068  ! 00000000
                _DATA                 DATA           0003:00000b78  ! 00000004
chipvar         _TEXT                 CODE           0002:00038948  ! 00000000
                _DATA                 DATA           0003:00000b7c  ! 00000004
/mnt/sda5/.user/root/src/openwatcom-1.9/bld/clib/startup/a/_8087386.asm
                _TEXT                 CODE           0002:00038948  ! 00000000
                _DATA                 DATA           0003:00000b80  ! 00000002
                XIB                   DATA           0003:00000c88  ! 00000000
                XI                    DATA           0003:00000cc4  ! 00000006
                XIE                   DATA           0003:00000cee  ! 00000000
                YIB                   DATA           0003:00000cee  ! 00000000
                YI                    DATA           0003:00000d00  ! 00000000
                YIE                   DATA           0003:00000d18  ! 00000000
crwdata         _TEXT                 CODE           0002:00038948  ! 00000001
                _DATA                 DATA           0003:00000b84  ! 0000004a
/mnt/sda5/.user/root/src/openwatcom-1.9/bld/clib/startup/c/dmaino32.c
                _TEXT                 CODE           0002:00038949  ! 0000028f
                CONST                 DATA           0003:0000000c  ! 00000000
                CONST2                DATA           0003:00000068  ! 00000000
                _DATA                 DATA           0003:00000bd0  ! 00000000
                _BSS                  BSS            0003:00001a14  ! 00000310
segdefns        _TEXT                 CODE           0002:00038bd8  ! 00000000
                _DATA                 DATA           0003:00000bd0  ! 00000000
                BEGTEXT               CODE           0002:00000000  ! 00000007
                _NULL                 BEGDATA        0003:00000000  ! 00000004
                _AFTERNULL            BEGDATA        0003:00000004  ! 00000000
                CONST                 DATA           0003:0000000c  ! 00000000
                TIB                   DATA           0003:00001026  ! 00000000
                TI                    DATA           0003:00001026  ! 00000000
                TIE                   DATA           0003:00001026  ! 00000000
                XIB                   DATA           0003:00000c88  ! 00000000
                XI                    DATA           0003:00000cca  ! 00000000
                XIE                   DATA           0003:00000cee  ! 00000000
                YIB                   DATA           0003:00000cee  ! 00000000
                YI                    DATA           0003:00000d00  ! 00000000
                YIE                   DATA           0003:00000d18  ! 00000000
                DATA                  DATA           0003:00001026  ! 00000000
                _BSS                  BSS            0003:00001d24  ! 00000000
                stack                 STACK          0003:000040a0  ! 00010000
/mnt/sda5/.user/root/src/openwatcom-1.9/bld/clib/streamio/c/prtf.c
                _TEXT                 CODE           0002:00038be0  ! 00001182
                CONST                 DATA           0003:0000000c  ! 00000000
                CONST2                DATA           0003:00000068  ! 00000000
                _DATA                 DATA           0003:00000bd0  ! 00000000
/mnt/sda5/.user/root/src/openwatcom-1.9/bld/clib/streamio/c/scnf.c
                _TEXT                 CODE           0002:00039d70  ! 00001401
                CONST                 DATA           0003:0000000c  ! 00000000
                CONST2                DATA           0003:00000068  ! 00000000
                _DATA                 DATA           0003:00000bd0  ! 00000000
/mnt/sda5/.user/root/src/openwatcom-1.9/bld/clib/convert/c/alphabet.c
                _TEXT                 CODE           0002:0003b180  ! 00000000
                CONST                 DATA           0003:0000000c  ! 00000025
                CONST2                DATA           0003:00000068  ! 00000000
                _DATA                 DATA           0003:00000bd0  ! 00000000
/mnt/sda5/.user/root/src/openwatcom-1.9/bld/clib/environ/c/setenvp.c
                _TEXT                 CODE           0002:0003b180  ! 00000186
                CONST                 DATA           0003:00000034  ! 00000000
                CONST2                DATA           0003:00000068  ! 00000000
                _DATA                 DATA           0003:00000bd0  ! 00000000
                _BSS                  BSS            0003:00001d24  ! 00000004
/mnt/sda5/.user/root/src/openwatcom-1.9/bld/clib/misc/c/rtcswrap.c
                _TEXT                 CODE           0002:0003b310  ! 0000007c
                CONST                 DATA           0003:00000034  ! 00000000
                CONST2                DATA           0003:00000068  ! 00000000
                _DATA                 DATA           0003:00000bd0  ! 00000000
/mnt/sda5/.user/root/src/openwatcom-1.9/bld/clib/handleio/c/iomode.c
                _TEXT                 CODE           0002:0003b390  ! 00000089
                CONST                 DATA           0003:00000034  ! 00000000
                CONST2                DATA           0003:00000068  ! 00000000
                _DATA                 DATA           0003:00000bd0  ! 00000058
/mnt/sda5/.user/root/src/openwatcom-1.9/bld/clib/environ/c/crtwenv.c
                _TEXT                 CODE           0002:0003b420  ! 0000007f
                CONST                 DATA           0003:00000034  ! 00000000
                CONST2                DATA           0003:00000068  ! 00000000
                _DATA                 DATA           0003:00000c28  ! 00000000
/mnt/sda5/.user/root/src/openwatcom-1.9/bld/clib/startup/c/os2fil64.c
                _TEXT                 CODE           0002:0003b4a0  ! 000000e3
                CONST                 DATA           0003:00000034  ! 00000000
                CONST2                DATA           0003:00000068  ! 00000000
                _DATA                 DATA           0003:00000c28  ! 00000010
                XIB                   DATA           0003:00000c88  ! 00000000
                XI                    DATA           0003:00000cca  ! 00000006
                XIE                   DATA           0003:00000cee  ! 00000000
/mnt/sda5/.user/root/src/openwatcom-1.9/bld/clib/handleio/c/d2ttime.c
                _TEXT                 CODE           0002:0003b590  ! 000000a0
                CONST                 DATA           0003:00000034  ! 00000000
                CONST2                DATA           0003:00000068  ! 00000000
                _DATA                 DATA           0003:00000c38  ! 00000000
/mnt/sda5/.user/root/src/openwatcom-1.9/bld/clib/handleio/c/stiomode.c
                _TEXT                 CODE           0002:0003b630  ! 00000206
                CONST                 DATA           0003:00000034  ! 00000000
                CONST2                DATA           0003:00000068  ! 00000000
                _DATA                 DATA           0003:00000c38  ! 00000000
                _BSS                  BSS            0003:00001d28  ! 00000004
                YIB                   DATA           0003:00000cee  ! 00000000
                YI                    DATA           0003:00000d00  ! 00000006
                YIE                   DATA           0003:00000d18  ! 00000000
                XIB                   DATA           0003:00000c88  ! 00000000
                XI                    DATA           0003:00000cd0  ! 00000006
                XIE                   DATA           0003:00000cee  ! 00000000
/mnt/sda5/.user/root/src/openwatcom-1.9/bld/clib/handleio/c/_clseos2.c
                _TEXT                 CODE           0002:0003b840  ! 00000078
                CONST                 DATA           0003:00000034  ! 00000000
                CONST2                DATA           0003:00000068  ! 00000000
                _DATA                 DATA           0003:00000c38  ! 00000000
/mnt/sda5/.user/root/src/openwatcom-1.9/bld/clib/handleio/c/umaskval.c
                _TEXT                 CODE           0002:0003b8c0  ! 00000000
                CONST                 DATA           0003:00000034  ! 00000000
                CONST2                DATA           0003:00000068  ! 00000000
                _DATA                 DATA           0003:00000c38  ! 00000004
/mnt/sda5/.user/root/src/openwatcom-1.9/bld/clib/handleio/c/iomodtty.c
                _TEXT                 CODE           0002:0003b8c0  ! 000000a0
                CONST                 DATA           0003:00000034  ! 00000000
                CONST2                DATA           0003:00000068  ! 00000000
                _DATA                 DATA           0003:00000c3c  ! 00000000
/mnt/sda5/.user/root/src/openwatcom-1.9/bld/clib/heap/c/grownear.c
                _TEXT                 CODE           0002:0003b960  ! 0000030d
                CONST                 DATA           0003:00000034  ! 00000000
                CONST2                DATA           0003:00000068  ! 00000000
                _DATA                 DATA           0003:00000c3c  ! 00000000
/mnt/sda5/.user/root/src/openwatcom-1.9/bld/clib/heap/c/mem.c
                _TEXT                 CODE           0002:0003bc70  ! 00000466
                CONST                 DATA           0003:00000034  ! 00000000
                CONST2                DATA           0003:00000068  ! 00000000
                _DATA                 DATA           0003:00000c3c  ! 00000000
/mnt/sda5/.user/root/src/openwatcom-1.9/bld/clib/intel/c/prfalloc.c
                _TEXT                 CODE           0002:0003c0e0  ! 00000028
                CONST                 DATA           0003:00000034  ! 00000000
                CONST2                DATA           0003:00000068  ! 00000000
                _DATA                 DATA           0003:00000c3c  ! 00000000
/mnt/sda5/.user/root/src/openwatcom-1.9/bld/clib/kanji/c/hanzentb.c
                _TEXT                 CODE           0002:0003c110  ! 0000013c
                CONST                 DATA           0003:00000034  ! 00000000
                CONST2                DATA           0003:00000068  ! 00000000
                _DATA                 DATA           0003:00000c3c  ! 00000000
/mnt/sda5/.user/root/src/openwatcom-1.9/bld/clib/kanji/c/zenhantb.c
                _TEXT                 CODE           0002:0003c250  ! 00000444
                CONST                 DATA           0003:00000034  ! 00000000
                CONST2                DATA           0003:00000068  ! 00000000
                _DATA                 DATA           0003:00000c3c  ! 00000000
/mnt/sda5/.user/root/src/openwatcom-1.9/bld/clib/mbyte/c/mbinit.c
                _TEXT                 CODE           0002:0003c694  ! 000001d7
                CONST                 DATA           0003:00000034  ! 00000000
                CONST2                DATA           0003:00000068  ! 00000000
                _DATA                 DATA           0003:00000c3c  ! 00000004
/mnt/sda5/.user/root/src/openwatcom-1.9/bld/clib/misc/c/rterrmsg.c
                _TEXT                 CODE           0002:0003c870  ! 000000d9
                CONST                 DATA           0003:00000034  ! 00000000
                CONST2                DATA           0003:00000068  ! 00000000
                _DATA                 DATA           0003:00000c40  ! 00000000
/mnt/sda5/.user/root/src/openwatcom-1.9/bld/clib/startup/c/argcv.c
                _TEXT                 CODE           0002:0003c950  ! 00000000
                CONST                 DATA           0003:00000034  ! 00000000
                CONST2                DATA           0003:00000068  ! 00000000
                _DATA                 DATA           0003:00000c40  ! 00000000
                _BSS                  BSS            0003:00001d2c  ! 00000010
                XIB                   DATA           0003:00000c88  ! 00000000
                XI                    DATA           0003:00000cd6  ! 00000006
                XIE                   DATA           0003:00000cee  ! 00000000
                YIB                   DATA           0003:00000cee  ! 00000000
                YI                    DATA           0003:00000d06  ! 00000006
                YIE                   DATA           0003:00000d18  ! 00000000
/mnt/sda5/.user/root/src/openwatcom-1.9/bld/clib/misc/c/dbgdata.c
                _TEXT                 CODE           0002:0003c950  ! 000000e6
                CONST                 DATA           0003:00000034  ! 00000000
                CONST2                DATA           0003:00000068  ! 00000000
                _DATA                 DATA           0003:00000c40  ! 0000001c
                XIB                   DATA           0003:00000c88  ! 00000000
                XI                    DATA           0003:00000cdc  ! 00000006
                XIE                   DATA           0003:00000cee  ! 00000000
/mnt/sda5/.user/root/src/openwatcom-1.9/bld/clib/misc/c/rtcshdlr.c
                _TEXT                 CODE           0002:0003ca40  ! 00000000
                CONST                 DATA           0003:00000034  ! 00000000
                CONST2                DATA           0003:00000068  ! 00000000
                _DATA                 DATA           0003:00000c5c  ! 00000004
/mnt/sda5/.user/root/src/openwatcom-1.9/bld/clib/misc/c/locale.c
                _TEXT                 CODE           0002:0003ca40  ! 00000000
                CONST                 DATA           0003:00000034  ! 00000000
                CONST2                DATA           0003:00000068  ! 00000000
                _DATA                 DATA           0003:00000c60  ! 00000007
/mnt/sda5/.user/root/src/openwatcom-1.9/bld/clib/misc/c/urtermsg.c
                _TEXT                 CODE           0002:0003ca40  ! 000000f9
                CONST                 DATA           0003:00000034  ! 00000000
                CONST2                DATA           0003:00000068  ! 00000000
                _DATA                 DATA           0003:00000c68  ! 00000000
/mnt/sda5/.user/root/src/openwatcom-1.9/bld/clib/mthread/c/maxthrds.c
                _TEXT                 CODE           0002:0003cb40  ! 00000000
                CONST                 DATA           0003:00000034  ! 00000000
                CONST2                DATA           0003:00000068  ! 00000000
                _DATA                 DATA           0003:00000c68  ! 00000004
/mnt/sda5/.user/root/src/openwatcom-1.9/bld/clib/mthread/c/trdalloc.c
                _TEXT                 CODE           0002:0003cb40  ! 000000ce
                CONST                 DATA           0003:00000034  ! 00000000
                CONST2                DATA           0003:00000068  ! 00000000
                _DATA                 DATA           0003:00000c6c  ! 00000000
                _BSS                  BSS            0003:00001d3c  ! 00000004
/mnt/sda5/.user/root/src/openwatcom-1.9/bld/clib/mthread/c/trdlist.c
                _TEXT                 CODE           0002:0003cc10  ! 00000605
                CONST                 DATA           0003:00000034  ! 00000000
                CONST2                DATA           0003:00000068  ! 00000000
                _DATA                 DATA           0003:00000c6c  ! 00000000
                _BSS                  BSS            0003:00001d40  ! 00000004
/mnt/sda5/.user/root/src/openwatcom-1.9/bld/clib/mthread/c/thredo32.c
                _TEXT                 CODE           0002:0003d220  ! 000001ae
                CONST                 DATA           0003:00000034  ! 00000000
                CONST2                DATA           0003:00000068  ! 00000000
                _DATA                 DATA           0003:00000c6c  ! 00000000
/mnt/sda5/.user/root/src/openwatcom-1.9/bld/clib/process/c/cenvarg.c
                _TEXT                 CODE           0002:0003d3ce  ! 00000270
                CONST                 DATA           0003:00000034  ! 00000000
                CONST2                DATA           0003:00000068  ! 00000000
                _DATA                 DATA           0003:00000c6c  ! 00000000
/mnt/sda5/.user/root/src/openwatcom-1.9/bld/clib/process/c/dospnos2.c
                _TEXT                 CODE           0002:0003d640  ! 0000042f
                CONST                 DATA           0003:00000034  ! 00000000
                CONST2                DATA           0003:00000068  ! 00000000
                _DATA                 DATA           0003:00000c6c  ! 00000000
/mnt/sda5/.user/root/src/openwatcom-1.9/bld/clib/process/c/_slashc.c
                _TEXT                 CODE           0002:0003da70  ! 00000038
                CONST                 DATA           0003:00000034  ! 00000000
                CONST2                DATA           0003:00000068  ! 00000000
                _DATA                 DATA           0003:00000c6c  ! 00000000
/mnt/sda5/.user/root/src/openwatcom-1.9/bld/clib/process/c/_uslashc.c
                _TEXT                 CODE           0002:0003dab0  ! 0000003e
                CONST                 DATA           0003:00000034  ! 00000000
                CONST2                DATA           0003:00000068  ! 00000000
                _DATA                 DATA           0003:00000c6c  ! 00000000
/mnt/sda5/.user/root/src/openwatcom-1.9/bld/clib/startup/c/8087cw.c
                _TEXT                 CODE           0002:0003daf0  ! 00000000
                CONST                 DATA           0003:00000034  ! 00000000
                CONST2                DATA           0003:00000068  ! 00000000
                _DATA                 DATA           0003:00000c6c  ! 00000002
/mnt/sda5/.user/root/src/openwatcom-1.9/bld/clib/fpu/a/ini87386.asm
                _TEXT                 CODE           0002:0003daf0  ! 00000033
                _DATA                 DATA           0003:00000c70  ! 00000000
/mnt/sda5/.user/root/src/openwatcom-1.9/bld/clib/startup/c/initrtns.c
                _TEXT                 CODE           0002:0003db30  ! 0000015a
                CONST                 DATA           0003:00000034  ! 00000000
                CONST2                DATA           0003:00000068  ! 00000000
                _DATA                 DATA           0003:00000c70  ! 00000000
/mnt/sda5/.user/root/src/openwatcom-1.9/bld/clib/startup/c/histsplt.c
                _TEXT                 CODE           0002:0003dc90  ! 00000000
                CONST                 DATA           0003:00000034  ! 00000000
                CONST2                DATA           0003:00000068  ! 00000000
                _DATA                 DATA           0003:00000c70  ! 00000000
                _BSS                  BSS            0003:00001d44  ! 00000004
/mnt/sda5/.user/root/src/openwatcom-1.9/bld/clib/startup/c/wargcv.c
                _TEXT                 CODE           0002:0003dc90  ! 00000000
                CONST                 DATA           0003:00000034  ! 00000000
                CONST2                DATA           0003:00000068  ! 00000000
                _DATA                 DATA           0003:00000c70  ! 00000000
                _BSS                  BSS            0003:00001d48  ! 00000010
                XIB                   DATA           0003:00000c88  ! 00000000
                XI                    DATA           0003:00000ce2  ! 00000006
                XIE                   DATA           0003:00000cee  ! 00000000
                YIB                   DATA           0003:00000cee  ! 00000000
                YI                    DATA           0003:00000d0c  ! 00000006
                YIE                   DATA           0003:00000d18  ! 00000000
/mnt/sda5/.user/root/src/openwatcom-1.9/bld/clib/streamio/c/freefp.c
                _TEXT                 CODE           0002:0003dc90  ! 000000ca
                CONST                 DATA           0003:00000034  ! 00000000
                CONST2                DATA           0003:00000068  ! 00000000
                _DATA                 DATA           0003:00000c70  ! 00000000
/mnt/sda5/.user/root/src/openwatcom-1.9/bld/clib/startup/c/cinit.c
                _TEXT                 CODE           0002:0003dd60  ! 00000021
                CONST                 DATA           0003:00000034  ! 00000000
                CONST2                DATA           0003:00000068  ! 00000000
                _DATA                 DATA           0003:00000c70  ! 00000000
                _BSS                  BSS            0003:00001d58  ! 00000004
/mnt/sda5/.user/root/src/openwatcom-1.9/bld/clib/startup/c/atexit.c
                _TEXT                 CODE           0002:0003dd81  ! 0000008f
                CONST                 DATA           0003:00000034  ! 00000000
                CONST2                DATA           0003:00000068  ! 00000000
                _DATA                 DATA           0003:00000c70  ! 00000000
                _BSS                  BSS            0003:00001d5c  ! 00000084
                YIB                   DATA           0003:00000cee  ! 00000000
                YI                    DATA           0003:00000d12  ! 00000006
                YIE                   DATA           0003:00000d18  ! 00000000
/mnt/sda5/.user/root/src/openwatcom-1.9/bld/clib/startup/c/pgmptra.c
                _TEXT                 CODE           0002:0003de10  ! 00000000
                CONST                 DATA           0003:00000034  ! 00000000
                CONST2                DATA           0003:00000068  ! 00000000
                _DATA                 DATA           0003:00000c70  ! 00000000
/mnt/sda5/.user/root/src/openwatcom-1.9/bld/clib/startup/c/itsto32.c
                _TEXT                 CODE           0002:0003de10  ! 00000021
                CONST                 DATA           0003:00000034  ! 00000000
                CONST2                DATA           0003:00000068  ! 00000000
                _DATA                 DATA           0003:00000c70  ! 00000000
                XIB                   DATA           0003:00000c88  ! 00000000
                XI                    DATA           0003:00000ce8  ! 00000006
                XIE                   DATA           0003:00000cee  ! 00000000
/mnt/sda5/.user/root/src/openwatcom-1.9/bld/clib/startup/c/wpgmptra.c
                _TEXT                 CODE           0002:0003de40  ! 00000000
                CONST                 DATA           0003:00000034  ! 00000000
                CONST2                DATA           0003:00000068  ! 00000000
                _DATA                 DATA           0003:00000c70  ! 00000000
/mnt/sda5/.user/root/src/openwatcom-1.9/bld/clib/streamio/c/allocfp.c
                _TEXT                 CODE           0002:0003de40  ! 00000129
                CONST                 DATA           0003:00000034  ! 00000000
                CONST2                DATA           0003:00000068  ! 00000000
                _DATA                 DATA           0003:00000c70  ! 00000000
/mnt/sda5/.user/root/src/openwatcom-1.9/bld/clib/streamio/c/chktty.c
                _TEXT                 CODE           0002:0003df70  ! 00000049
                CONST                 DATA           0003:00000034  ! 00000000
                CONST2                DATA           0003:00000068  ! 00000000
                _DATA                 DATA           0003:00000c70  ! 00000000
/mnt/sda5/.user/root/src/openwatcom-1.9/bld/clib/streamio/c/ioalloc.c
                _TEXT                 CODE           0002:0003dfc0  ! 000000c7
                CONST                 DATA           0003:00000034  ! 00000000
                CONST2                DATA           0003:00000068  ! 00000000
                _DATA                 DATA           0003:00000c70  ! 00000000
/mnt/sda5/.user/root/src/openwatcom-1.9/bld/clib/handleio/c/qread.c
                _TEXT                 CODE           0002:0003e090  ! 0000007b
                CONST                 DATA           0003:00000034  ! 00000000
                CONST2                DATA           0003:00000068  ! 00000000
                _DATA                 DATA           0003:00000c70  ! 00000000
/mnt/sda5/.user/root/src/openwatcom-1.9/bld/clib/handleio/c/qwrit.c
                _TEXT                 CODE           0002:0003e110  ! 00000108
                CONST                 DATA           0003:00000034  ! 00000000
                CONST2                DATA           0003:00000068  ! 00000000
                _DATA                 DATA           0003:00000c70  ! 00000000
/mnt/sda5/.user/root/src/openwatcom-1.9/bld/clib/streamio/c/fprtf.c
                _TEXT                 CODE           0002:0003e220  ! 00000148
                CONST                 DATA           0003:00000034  ! 00000000
                CONST2                DATA           0003:00000068  ! 00000000
                _DATA                 DATA           0003:00000c70  ! 00000000
/mnt/sda5/.user/root/src/openwatcom-1.9/bld/clib/streamio/c/fprtf_s.c
                _TEXT                 CODE           0002:0003e370  ! 000001e5
                CONST                 DATA           0003:00000034  ! 00000000
                CONST2                DATA           0003:00000068  ! 00000000
                _DATA                 DATA           0003:00000c70  ! 00000000
/mnt/sda5/.user/root/src/openwatcom-1.9/bld/clib/streamio/c/scnf_s.c
                _TEXT                 CODE           0002:0003e560  ! 00001593
                CONST                 DATA           0003:00000034  ! 00000000
                CONST2                DATA           0003:00000068  ! 00000000
                _DATA                 DATA           0003:00000c70  ! 00000000
/mnt/sda5/.user/root/src/openwatcom-1.9/bld/clib/streamio/c/initfile.c
                _TEXT                 CODE           0002:0003fb00  ! 00000109
                CONST                 DATA           0003:00000034  ! 00000000
                CONST2                DATA           0003:00000068  ! 00000000
                _DATA                 DATA           0003:00000c70  ! 00000000
/mnt/sda5/.user/root/src/openwatcom-1.9/bld/clib/streamio/c/tmputil.c
                _TEXT                 CODE           0002:0003fc10  ! 0000023f
                CONST                 DATA           0003:00000034  ! 00000000
                CONST2                DATA           0003:00000068  ! 00000000
                _DATA                 DATA           0003:00000c70  ! 00000014
/mnt/sda5/.user/root/src/openwatcom-1.9/bld/clib/streamio/c/ufprtf.c
                _TEXT                 CODE           0002:0003fe4f  ! 00000139
                CONST                 DATA           0003:00000034  ! 00000000
                CONST2                DATA           0003:00000068  ! 00000000
                _DATA                 DATA           0003:00000c84  ! 00000000
/mnt/sda5/.user/root/src/openwatcom-1.9/bld/clib/streamio/c/ufprtf_s.c
                _TEXT                 CODE           0002:0003ff90  ! 000001f5
                CONST                 DATA           0003:00000034  ! 00000000
                CONST2                DATA           0003:00000068  ! 00000000
                _DATA                 DATA           0003:00000c84  ! 00000000
/mnt/sda5/.user/root/src/openwatcom-1.9/bld/clib/streamio/c/uscnf.c
                _TEXT                 CODE           0002:00040185  ! 00001270
                CONST                 DATA           0003:00000034  ! 00000000
                CONST2                DATA           0003:00000068  ! 00000000
                _DATA                 DATA           0003:00000c84  ! 00000000
/mnt/sda5/.user/root/src/openwatcom-1.9/bld/clib/streamio/c/uscnf_s.c
                _TEXT                 CODE           0002:000413f5  ! 0000142a
                CONST                 DATA           0003:00000034  ! 00000000
                CONST2                DATA           0003:00000068  ! 00000000
                _DATA                 DATA           0003:00000c84  ! 00000000
/mnt/sda5/.user/root/src/openwatcom-1.9/bld/clib/string/c/fsetbits.c
                _TEXT                 CODE           0002:00042820  ! 00000076
                CONST                 DATA           0003:00000034  ! 00000000
                CONST2                DATA           0003:00000068  ! 00000000
                _DATA                 DATA           0003:00000c84  ! 00000000
/mnt/sda5/.user/root/src/openwatcom-1.9/bld/clib/string/c/bits.c
                _TEXT                 CODE           0002:000428a0  ! 00000008
                CONST                 DATA           0003:00000034  ! 00000000
                CONST2                DATA           0003:00000068  ! 00000000
                _DATA                 DATA           0003:00000c84  ! 00000000
/mnt/sda5/.user/root/src/openwatcom-1.9/bld/clib/streamio/c/prtf_s.c
                _TEXT                 CODE           0002:000428b0  ! 00001162
                CONST                 DATA           0003:00000034  ! 00000000
                CONST2                DATA           0003:00000068  ! 00000000
                _DATA                 DATA           0003:00000c84  ! 00000000
/mnt/sda5/.user/root/src/openwatcom-1.9/bld/clib/string/c/setbits.c
                _TEXT                 CODE           0002:00043a20  ! 0000005c
                CONST                 DATA           0003:00000034  ! 00000000
                CONST2                DATA           0003:00000068  ! 00000000
                _DATA                 DATA           0003:00000c84  ! 00000000
/mnt/sda5/.user/root/src/openwatcom-1.9/bld/clib/streamio/c/uprtf.c
                _TEXT                 CODE           0002:00043a7c  ! 00001237
                CONST                 DATA           0003:00000034  ! 00000000
                CONST2                DATA           0003:00000068  ! 00000000
                _DATA                 DATA           0003:00000c84  ! 00000000
/mnt/sda5/.user/root/src/openwatcom-1.9/bld/clib/streamio/c/uprtf_s.c
                _TEXT                 CODE           0002:00044cb3  ! 0000121e
                CONST                 DATA           0003:00000034  ! 00000000
                CONST2                DATA           0003:00000068  ! 00000000
                _DATA                 DATA           0003:00000c84  ! 00000000
/mnt/sda5/.user/root/src/openwatcom-1.9/bld/clib/time/c/gtctmos2.c
                _TEXT                 CODE           0002:00045ee0  ! 00000087
                CONST                 DATA           0003:00000034  ! 00000000
                CONST2                DATA           0003:00000068  ! 00000000
                _DATA                 DATA           0003:00000c84  ! 00000000
/mnt/sda5/.user/root/src/openwatcom-1.9/bld/clib/time/c/leapyear.c
                _TEXT                 CODE           0002:00045f70  ! 00000068
                CONST                 DATA           0003:00000034  ! 00000034
                CONST2                DATA           0003:00000068  ! 00000000
                _DATA                 DATA           0003:00000c84  ! 00000000
/mnt/sda5/.user/root/src/openwatcom-1.9/bld/clib/time/c/timeutil.c
                _TEXT                 CODE           0002:00045fe0  ! 00000681
                CONST                 DATA           0003:00000068  ! 00000000
                CONST2                DATA           0003:00000068  ! 00000000
                _DATA                 DATA           0003:00000c84  ! 00000000
/mnt/sda5/.user/root/src/openwatcom-1.9/bld/clib/time/c/locmktim.c
                _TEXT                 CODE           0002:00046670  ! 00000195
                CONST                 DATA           0003:00000068  ! 00000000
                CONST2                DATA           0003:00000068  ! 00000000
                _DATA                 DATA           0003:00000c84  ! 00000000
/mnt/sda5/.user/root/src/openwatcom-1.9/bld/clib/startup/c/fpexcept.c
                _TEXT                 CODE           0002:00046810  ! 00000023
                CONST                 DATA           0003:00000068  ! 00000000
                CONST2                DATA           0003:00000068  ! 00000000
                _DATA                 DATA           0003:00000c84  ! 00000000
/mnt/sda5/.user/root/src/openwatcom-1.9/bld/clib/startup/c/lmaino32.c
                _TEXT                 CODE           0002:00046840  ! 00000029
                CONST                 DATA           0003:00000068  ! 00000000
                CONST2                DATA           0003:00000068  ! 00000000
                _DATA                 DATA           0003:00000c84  ! 00000000
/mnt/sda5/.user/root/src/openwatcom-1.9/bld/clib/startup/c/ddgrpo32.c
                _TEXT                 CODE           0002:00046870  ! 0000037a
                CONST                 DATA           0003:00000068  ! 00000000
                CONST2                DATA           0003:00000068  ! 00000000
                _DATA                 DATA           0003:00000c84  ! 00000000
                _BSS                  BSS            0003:00001de0  ! 000002ba
dosseg          _TEXT                 CODE           0002:00046bec  ! 00000000
                _DATA                 DATA           0003:00000c84  ! 00000000
/mnt/sda5/.user/root/src/openwatcom-1.9/bld/clib/startup/c/dllmno32.c
                _TEXT                 CODE           0002:00046bf0  ! 0000002e
                CONST                 DATA           0003:00000068  ! 00000000
                CONST2                DATA           0003:00000068  ! 00000000
                _DATA                 DATA           0003:00000c84  ! 00000004


                        +----------------------+
                        |   Imported Symbols   |
                        +----------------------+

Symbol                              Module
======                              ======

KBD16STRINGIN                       KBDCALLS
KBD16CHARIN                         KBDCALLS
KBD16PEEK                           KBDCALLS
VIO16WRTTTY                         VIOCALLS
DosSetCurrentDir                    DOSCALLS
DosFindClose                        DOSCALLS
DosFindFirst                        DOSCALLS
DosFindNext                         DOSCALLS
DosQueryCurrentDir                  DOSCALLS
DosQueryCurrentDisk                 DOSCALLS
DosCreateDir                        DOSCALLS
DosDeleteDir                        DOSCALLS
DosGetInfoBlocks                    DOSCALLS
DosQueryHType                       DOSCALLS
DosQueryPathInfo                    DOSCALLS
DosSetPathInfo                      DOSCALLS
DosMove                             DOSCALLS
DosOpen                             DOSCALLS
DosQueryFileInfo                    DOSCALLS
DosClose                            DOSCALLS
DosSetFileInfo                      DOSCALLS
DosSetFileSize                      DOSCALLS
DosDupHandle                        DOSCALLS
DosResetBuffer                      DOSCALLS
DosSetRelMaxFH                      DOSCALLS
DosQueryFHState                     DOSCALLS
DosSetFileLocks                     DOSCALLS
DosSetFilePtr                       DOSCALLS
DosCreatePipe                       DOSCALLS
DosRead                             DOSCALLS
DosDelete                           DOSCALLS
DosWrite                            DOSCALLS
DosFreeMem                          DOSCALLS
DosAllocMem                         DOSCALLS
DosQueryCp                          DOSCALLS
WinInitialize                       PMWIN
WinCreateMsgQueue                   PMWIN
WinGetLastError                     PMWIN
WinMessageBox                       PMWIN
WinDestroyMsgQueue                  PMWIN
WinTerminate                        PMWIN
DosCloseMutexSem                    DOSCALLS
DosCreateMutexSem                   DOSCALLS
DosRequestMutexSem                  DOSCALLS
DosReleaseMutexSem                  DOSCALLS
DosWaitChild                        DOSCALLS
DosSleep                            DOSCALLS
DosExit                             DOSCALLS
DosAcknowledgeSignalException       DOSCALLS
DosSetSignalExceptionFocus          DOSCALLS
DosUnsetExceptionHandler            DOSCALLS
DosSetExceptionHandler              DOSCALLS
DosDevConfig                        DOSCALLS
DosQuerySysInfo                     DOSCALLS
DosFlatToSel                        DOSCALLS
DosSelToFlat                        DOSCALLS
DosUnwindException                  DOSCALLS
DosSetFHState                       DOSCALLS
DosQueryFSInfo                      DOSCALLS
DosGetDateTime                      DOSCALLS
DosSetDateTime                      DOSCALLS
DosSetDefaultDisk                   DOSCALLS
DosQueryModuleName                  DOSCALLS
DosQueryModuleHandle                DOSCALLS
DosQueryProcAddr                    DOSCALLS
DosQueryDBCSEnv                     NLS
DosLoadModule                       DOSCALLS
DosFreeModule                       DOSCALLS
DosPostEventSem                     DOSCALLS
DosCreateEventSem                   DOSCALLS
DosCreateThread                     DOSCALLS
DosWaitEventSem                     DOSCALLS
DosCloseEventSem                    DOSCALLS
DosQueryAppType                     DOSCALLS
DosExecPgm                          DOSCALLS
DosCreateQueue                      QUECALLS
DosStartSession                     SESMGR
DosReadQueue                        QUECALLS
DosCloseQueue                       QUECALLS


                        +--------------------+
                        |   Libraries Used   |
                        +--------------------+

/mnt/sda5/.user/root/src/openwatcom-1.9/bld/clib/library/os2.386/mf_rd/clib3r.lib
/mnt/sda5/.user/root/src/openwatcom-1.9/rel2/lib386/os2/os2386.lib


                        +-----------------------+
                        |   Linker Statistics   |
                        +-----------------------+

Stack size:  0000 (0.)
Memory size:  000492eb (299755.)
Link time: 00:00.64
