Open Watcom Linker Version 1.9
Portions Copyright (c) 1985-2002 Sybase, Inc. All Rights Reserved.
Created on:       12/12/16 02:42:46
Executable Image: wdump.exe
creating a Linux x86 executable


                        +------------+
                        |   Groups   |
                        +------------+

Group                           Address              Size
=====                           =======              ====

DGROUP                          0806a000             00002a88



                        +--------------+
                        |   Segments   |
                        +--------------+

Segment                Class          Group          Address         Size
=======                =====          =====          =======         ====

BEGTEXT                CODE           AUTO           08048100        00000007
_TEXT                  CODE           AUTO           08048110        000213d9
_NULL                  BEGDATA        DGROUP         0806a000        00000004
_AFTERNULL             BEGDATA        DGROUP         0806a004        00000000
CONST                  DATA           DGROUP         0806a004        00000028
CONST2                 DATA           DGROUP         0806a02c        00000000
_DATA                  DATA           DGROUP         0806a02c        000014d0
XIB                    DATA           DGROUP         0806b4fc        00000000
XI                     DATA           DGROUP         0806b4fc        0000000c
XIE                    DATA           DGROUP         0806b508        00000000
YIB                    DATA           DGROUP         0806b508        00000000
YI                     DATA           DGROUP         0806b508        00000006
YIE                    DATA           DGROUP         0806b50e        00000000
TIB                    DATA           DGROUP         0806b50e        00000000
TI                     DATA           DGROUP         0806b50e        00000000
TIE                    DATA           DGROUP         0806b50e        00000000
DATA                   DATA           DGROUP         0806b50e        00000000
_BSS                   BSS            DGROUP         0806c000        00000a88


                        +----------------+
                        |   Memory Map   |
                        +----------------+

* = unreferenced symbol
+ = symbol only referenced locally

Address        Symbol
=======        ======

Module: wdmp.obj(/mnt/sda5/.user/root/src/openwatcom-1.9/bld/exedump/c/wdmp.c)
08049110       main_
0806c000       _Fname
Module: wdio.obj(/mnt/sda5/.user/root/src/openwatcom-1.9/bld/exedump/c/wdio.c)
08049270       Weof_
080492f0       Wread_
08049440       Wlseek_
08049530       WFileSize_
08049540       Wdputc_
080495b0       Wdputs_
080495c0       Wdputslc_
080495f0       Dump_header_
08049730       DumpFlags_
080498c0       Wmalloc_
080498f0       Banner_
Module: wdprs.obj(/mnt/sda5/.user/root/src/openwatcom-1.9/bld/exedump/c/wdprs.c)
080499a0       Puthex_
080499e0       Putdec_
08049a20       Putdecs_
08049a50       Putdecl_
08049ab0       Putdecbz_
08049b00       get_u32_
08049b50       get_s32_
08049ba0       get_u16_
08049bd0       get_s16_
Module: wdata.obj(/mnt/sda5/.user/root/src/openwatcom-1.9/bld/exedump/c/wdata.c)
0804a1a0       Dmp_relocs_
0804a230       Dmp_segments_
0804a2e0       Dmp_le_page_seg_
0804a3b0       Dmp_lx_page_seg_
0804a460       Dmp_seg_data_
0804a4c0       dmp_mult_data_line_
0804a510+      dmp_data_line_
Module: dosexe.obj(/mnt/sda5/.user/root/src/openwatcom-1.9/bld/exedump/c/dosexe.c)
0804ab20       Dmp_dos_head_
Module: wdglb.obj(/mnt/sda5/.user/root/src/openwatcom-1.9/bld/exedump/c/wdglb.c)
0806c030       _Qnx_head
0806c060       _Phar_ext_head
0806c0e0       _Os2_head
0806c120       _Pe_head
0806c218       _Write_buff
0806c418       _Read_buff
0806c618       _Form
0806c61c       _Name
0806c620       _Resrc_end
0806c624       _Load_len
0806c628       _Sections
0806c694       _Se_env
0806c6c8       _Dos_head
0806c6e4       _Int_seg_tab
0806c6e8       _Fix_off
0806c6ec       _Os2_386_head
0806c7b0       _Hexoff
0806c7b4       _Elf_head
0806c7e8       _Data_off
0806c7ec       _Res_off
0806c7f0       _Int_mod_ref_tab
0806c7f4       _Nlm_ext_head
0806c870       _New_exe_off
0806c874       _Imp_off
0806c878       _Lang_lst
0806c87c       _Curr_sectoff
0806c880       _Coff_off
0806c884       _Wbuff
0806c888       _Data_count
0806c88c       _Num_read
0806c890       _Handle
0806c894       _Exp_off
0806c898       _Lhandle
0806c89c       _Phar_head
0806c8ba       _Segspec
0806c8bc       _Resrc_shift_cnt
0806c8be       _Options_dmp
0806c8c0       _WSize
0806c8c2       _Sizeleft
0806c8c4       _Num_buff
0806c8c6       _Nlm_head
0806c949       _Debug_options
0806c94a       _Byte_swap
Module: os2exe.obj(/mnt/sda5/.user/root/src/openwatcom-1.9/bld/exedump/c/os2exe.c)
0804c310       Dmp_os2_head_
0804c970       Dmp_386_head_
Module: wdseg.obj(/mnt/sda5/.user/root/src/openwatcom-1.9/bld/exedump/c/wdseg.c)
0804cdb0       Dmp_seg_tab_
Module: wdtab.obj(/mnt/sda5/.user/root/src/openwatcom-1.9/bld/exedump/c/wdtab.c)
0804d890       Dmp_ordinal_
0804d920       Dmp_ne_tbls_
0804d9c0       Dmp_le_lx_tbls_
0804db20       Dmp_os2_exports_
0806a1f8+      _Entry_pnts
Module: wdfix.obj(/mnt/sda5/.user/root/src/openwatcom-1.9/bld/exedump/c/wdfix.c)
0804e1d0       Dmp_fixpage_tab_
0804e270       Dmp_fixrec_tab_
Module: wdres.obj(/mnt/sda5/.user/root/src/openwatcom-1.9/bld/exedump/c/wdres.c)
0804ec10       Dmp_resrc_tab_
0804ecd0       Dmp_resrc2_tab_
Module: peexe.obj(/mnt/sda5/.user/root/src/openwatcom-1.9/bld/exedump/c/peexe.c)
0804f9c0       Dmp_pe_head_
0804fd60       DumpCoffHdrFlags_
0804fe00       dmp_objects_
0804ffd0       Dmp_pe_tab_
Module: wpetbls.obj(/mnt/sda5/.user/root/src/openwatcom-1.9/bld/exedump/c/wpetbls.c)
08050a40       Dmp_exp_tab_
08050aa0       Dmp_exports_
08050b30       Dmp_imports_
Module: wperes.obj(/mnt/sda5/.user/root/src/openwatcom-1.9/bld/exedump/c/wperes.c)
08051120       Dmp_fixups_
08051670       Dmp_resources_
Module: novexe.obj(/mnt/sda5/.user/root/src/openwatcom-1.9/bld/exedump/c/novexe.c)
08052980       Dmp_nlm_head_
Module: pharexe.obj(/mnt/sda5/.user/root/src/openwatcom-1.9/bld/exedump/c/pharexe.c)
08054080       Dmp_phar_head_
Module: qnxexe.obj(/mnt/sda5/.user/root/src/openwatcom-1.9/bld/exedump/c/qnxexe.c)
08054d80       Dmp_qnx_head_
Module: elfexe.obj(/mnt/sda5/.user/root/src/openwatcom-1.9/bld/exedump/c/elfexe.c)
08056dd0       Dmp_lib_head_
08057280       Dmp_elf_head_
08057290       Dmp_elf_header_
Module: d16mexe.obj(/mnt/sda5/.user/root/src/openwatcom-1.9/bld/exedump/c/d16mexe.c)
08058180       Dmp_d16m_head_
Module: machoexe.obj(/mnt/sda5/.user/root/src/openwatcom-1.9/bld/exedump/c/machoexe.c)
0805a200*      Dmp_machlib_head_
0805a340+      dmp_cmd_list_
0805a410       Dmp_macho_head_
0805a420*      Dmp_macho_header_
Module: wdwarf.obj(/mnt/sda5/.user/root/src/openwatcom-1.9/bld/exedump/c/wdwarf.c)
0805ab40       Dmp_mdbg_head_
0805aca0       Dmp_dwarf_
Module: wsect.obj(/mnt/sda5/.user/root/src/openwatcom-1.9/bld/exedump/c/wsect.c)
0805c280       Getname_
0805c4c0       DecodeULEB128_
0805c500       DecodeLEB128_
0805c550+      find_abbrev_
0805d0d0+      dump_abbrevs_
0805d920       Dump_specific_section_
0805d980       Dump_all_sections_
0805d9e0       Lookup_section_name_
Module: wline.obj(/mnt/sda5/.user/root/src/openwatcom-1.9/bld/exedump/c/wline.c)
0805de80       Dump_lines_
Module: dumpwv.obj(/mnt/sda5/.user/root/src/openwatcom-1.9/bld/exedump/c/dumpwv.c)
0805f290       Get_type_index_
0805f2c0       Get_local_name_
0805f3a0+      dump_single_location_entry_
0805f890       Dump_location_expression_
08060660       Dump_section_
Module: typewv.obj(/mnt/sda5/.user/root/src/openwatcom-1.9/bld/exedump/c/typewv.c)
080612b0       Dmp_type_
Module: dumpcv.obj(/mnt/sda5/.user/root/src/openwatcom-1.9/bld/exedump/c/dumpcv.c)
08063150       Dmp_cv_head_
Module: dumphll.obj(/mnt/sda5/.user/root/src/openwatcom-1.9/bld/exedump/c/dumphll.c)
08064a50       Dmp_hll_head_
Module: coff.obj(/mnt/sda5/.user/root/src/openwatcom-1.9/bld/exedump/c/coff.c)
08064e50       Coff_obj_name_
080650d0       Dmp_coff_head_
080651a0       Dmp_ar_head_
Module: /mnt/sda5/.user/root/src/openwatcom-1.9/rel2/lib386/linux/clib3r.lib(lseek.c)
080652f0       lseek_
Module: /mnt/sda5/.user/root/src/openwatcom-1.9/rel2/lib386/linux/clib3r.lib(write.c)
08065300       write_
Module: /mnt/sda5/.user/root/src/openwatcom-1.9/rel2/lib386/linux/clib3r.lib(splitpat.c)
08065360       _splitpath_
Module: /mnt/sda5/.user/root/src/openwatcom-1.9/rel2/lib386/linux/clib3r.lib(access.c)
08065430       access_
Module: /mnt/sda5/.user/root/src/openwatcom-1.9/rel2/lib386/linux/clib3r.lib(openlnx.c)
08065460       open_
08065480*      sopen_
Module: /mnt/sda5/.user/root/src/openwatcom-1.9/rel2/lib386/linux/clib3r.lib(setjmp)
08065498       _setjmp_
080654c7       longjmp_
Module: /mnt/sda5/.user/root/src/openwatcom-1.9/rel2/lib386/linux/clib3r.lib(close.c)
08065530       close_
Module: /mnt/sda5/.user/root/src/openwatcom-1.9/rel2/lib386/linux/clib3r.lib(tolower.c)
08065560       tolower_
Module: /mnt/sda5/.user/root/src/openwatcom-1.9/rel2/lib386/linux/clib3r.lib(getopt.c)
0806b014       _optind
0806b018+      _opterr
0806b01c+      ___altoptchar
080655c0       getopt_
0806c958       _optarg
0806c95c       _optopt
0806c960+      ___optchar
Module: /mnt/sda5/.user/root/src/openwatcom-1.9/rel2/lib386/linux/clib3r.lib(atoi.c)
08065820       atoi_
Module: /mnt/sda5/.user/root/src/openwatcom-1.9/rel2/lib386/linux/clib3r.lib(strtol.c)
08065a90       strtoul_
08065aa0       strtol_
Module: /mnt/sda5/.user/root/src/openwatcom-1.9/rel2/lib386/linux/clib3r.lib(istable.c)
08065ab0       __IsTable
Module: /mnt/sda5/.user/root/src/openwatcom-1.9/rel2/lib386/linux/clib3r.lib(errno.c)
08065bc0       __get_errno_ptr_
0806c964+      _errno
Module: /mnt/sda5/.user/root/src/openwatcom-1.9/rel2/lib386/linux/clib3r.lib(strerror.c)
08066700       strerror_
08066720*      _strerror_
0806b0b0+      __sys_errlist
0806b2a8+      __sys_nerr
Module: /mnt/sda5/.user/root/src/openwatcom-1.9/rel2/lib386/linux/clib3r.lib(cstart)
080667e2       _cstart_
080667e2*      _start
Module: /mnt/sda5/.user/root/src/openwatcom-1.9/rel2/lib386/linux/clib3r.lib(cmainlnx.c)
08066850       __LinuxMain
0806ca68       __argc
0806ca6c+      __argv
Module: /mnt/sda5/.user/root/src/openwatcom-1.9/rel2/lib386/linux/clib3r.lib(eof.c)
080668e0       eof_
Module: /mnt/sda5/.user/root/src/openwatcom-1.9/rel2/lib386/linux/clib3r.lib(iob.c)
0806b2ac       ___iob
0806ca70       ___OpenStreams
0806ca74       ___ClosedStreams
Module: /mnt/sda5/.user/root/src/openwatcom-1.9/rel2/lib386/linux/clib3r.lib(fputs.c)
08066910       fputs_
Module: /mnt/sda5/.user/root/src/openwatcom-1.9/rel2/lib386/linux/clib3r.lib(read.c)
080669a0       read_
Module: /mnt/sda5/.user/root/src/openwatcom-1.9/rel2/lib386/linux/clib3r.lib(filelen.c)
080669d0       filelength_
Module: /mnt/sda5/.user/root/src/openwatcom-1.9/rel2/lib386/linux/clib3r.lib(fputc.c)
08066a20       fputc_
Module: /mnt/sda5/.user/root/src/openwatcom-1.9/rel2/lib386/linux/clib3r.lib(ltoa.c)
08066ab0       ultoa_
08066b00*      ltoa_
Module: /mnt/sda5/.user/root/src/openwatcom-1.9/rel2/lib386/linux/clib3r.lib(nmalloc.c)
08066b30       _nmalloc_
08066b30       malloc_
0806b46c       ___nheapbeg
0806b470       ___MiniHeapRover
0806b474       ___LargestSizeB4MiniHeapRover
Module: /mnt/sda5/.user/root/src/openwatcom-1.9/rel2/lib386/linux/clib3r.lib(memset.c)
08066c20       memset_
Module: /mnt/sda5/.user/root/src/openwatcom-1.9/rel2/lib386/linux/clib3r.lib(nfree.c)
08066c40       _nfree_
08066c40       free_
0806ca78+      ___MiniHeapFreeRover
Module: /mnt/sda5/.user/root/src/openwatcom-1.9/rel2/lib386/linux/clib3r.lib(stack386.c)
08066d40       stackavail_
Module: /mnt/sda5/.user/root/src/openwatcom-1.9/rel2/lib386/linux/clib3r.lib(itoa.c)
08066d50       utoa_
08066da0       itoa_
Module: /mnt/sda5/.user/root/src/openwatcom-1.9/rel2/lib386/linux/clib3r.lib(strupr.c)
08066dd0       strupr_
Module: /mnt/sda5/.user/root/src/openwatcom-1.9/rel2/lib386/linux/clib3r.lib(exit.c)
08066df0       exit_
08066e02*      _exit_
Module: /mnt/sda5/.user/root/src/openwatcom-1.9/rel2/lib386/linux/clib3r.lib(_strcmp)
08066e10       strcmp_
Module: /mnt/sda5/.user/root/src/openwatcom-1.9/rel2/lib386/linux/clib3r.lib(qsort.c)
08066fa0       qsort_
Module: /mnt/sda5/.user/root/src/openwatcom-1.9/rel2/lib386/linux/clib3r.lib(bsearch.c)
08067650       bsearch_
Module: /mnt/sda5/.user/root/src/openwatcom-1.9/rel2/lib386/linux/clib3r.lib(sprintf.c)
080676d0       sprintf_
Module: /mnt/sda5/.user/root/src/openwatcom-1.9/rel2/lib386/linux/clib3r.lib(nrealloc.c)
08067700*      _nrealloc_
08067700       realloc_
Module: /mnt/sda5/.user/root/src/openwatcom-1.9/rel2/lib386/linux/clib3r.lib(stricmp.c)
08067780       stricmp_
Module: /mnt/sda5/.user/root/src/openwatcom-1.9/rel2/lib386/linux/clib3r.lib(__lseek.c)
080677c0       __lseek_
Module: /mnt/sda5/.user/root/src/openwatcom-1.9/rel2/lib386/linux/clib3r.lib(sys_open.c)
080677f0       sys_open_
Module: /mnt/sda5/.user/root/src/openwatcom-1.9/rel2/lib386/linux/clib3r.lib(ljmphdl.c)
0806b478       ___longjmp_handler
Module: /mnt/sda5/.user/root/src/openwatcom-1.9/rel2/lib386/linux/clib3r.lib(fprintf.c)
08067830       fprintf_
Module: /mnt/sda5/.user/root/src/openwatcom-1.9/rel2/lib386/linux/clib3r.lib(seterrno.c)
08067851       __set_errno_
0806785d*      __set_EDOM_
08067869*      __set_ERANGE_
08067875*      __set_EINVAL_
Module: /mnt/sda5/.user/root/src/openwatcom-1.9/rel2/lib386/linux/clib3r.lib(strncpy.c)
08067890       strncpy_
Module: /mnt/sda5/.user/root/src/openwatcom-1.9/rel2/lib386/linux/clib3r.lib(segdefns)
08048103       ___begtext
0806a000*      __nullarea
0806b4fc       __Start_XI
0806b508       __End_XI
0806b508       __Start_YI
0806b50e       __End_YI
Module: /mnt/sda5/.user/root/src/openwatcom-1.9/rel2/lib386/linux/clib3r.lib(crwdata)
0806b484*      __LpCmdLine
0806b488       __LpPgmName
0806b47c*      __dynend
0806b480       __curbrk
0806b48c       __STACKLOW
0806b490       __STACKTOP
0806b494       __ASTACKSIZ
0806b498       __ASTACKPTR
0806b49c*      __cbyte
0806b4a0*      __cbyte2
0806b4a4*      __child
0806b4aa*      __Envptr
0806b4ae*      __Envseg
0806b4a8*      __no87
0806b4b0*      ___FPE_handler
Module: /mnt/sda5/.user/root/src/openwatcom-1.9/rel2/lib386/linux/clib3r.lib(sbrklnx.c)
080678d0       sbrk_
080678e0       __brk_
08067910*      brk_
Module: /mnt/sda5/.user/root/src/openwatcom-1.9/rel2/lib386/linux/clib3r.lib(environ.c)
0806ca7c       ___env_mask
0806ca80       _environ
0806ca84*      __wenviron
Module: /mnt/sda5/.user/root/src/openwatcom-1.9/rel2/lib386/linux/clib3r.lib(initrtns.c)
08067950       __InitRtns
080679a0       __FiniRtns
Module: /mnt/sda5/.user/root/src/openwatcom-1.9/rel2/lib386/linux/clib3r.lib(amblksiz.c)
0806b4b4       __amblksiz
Module: /mnt/sda5/.user/root/src/openwatcom-1.9/rel2/lib386/linux/clib3r.lib(tell.c)
08067a00       tell_
Module: /mnt/sda5/.user/root/src/openwatcom-1.9/rel2/lib386/linux/clib3r.lib(initfile.c)
08067a50       __InitFiles_
Module: /mnt/sda5/.user/root/src/openwatcom-1.9/rel2/lib386/linux/clib3r.lib(ioexit.c)
08067b50*      fcloseall_
08067b60       __full_io_exit_
Module: /mnt/sda5/.user/root/src/openwatcom-1.9/rel2/lib386/linux/clib3r.lib(flush.c)
08067b70       __flush_
Module: /mnt/sda5/.user/root/src/openwatcom-1.9/rel2/lib386/linux/clib3r.lib(ioalloc.c)
08067c40       __ioalloc_
Module: /mnt/sda5/.user/root/src/openwatcom-1.9/rel2/lib386/linux/clib3r.lib(alphabet.c)
0806a004       ___Alphabet
Module: /mnt/sda5/.user/root/src/openwatcom-1.9/rel2/lib386/linux/clib3r.lib(nmemneed.c)
08067ce0       __nmemneed_
Module: /mnt/sda5/.user/root/src/openwatcom-1.9/rel2/lib386/linux/clib3r.lib(mem.c)
08067cf0       __MemAllocator
08067da0       __MemFree
Module: /mnt/sda5/.user/root/src/openwatcom-1.9/rel2/lib386/linux/clib3r.lib(grownear.c)
08067f60+      __LastFree_
08067fe0       __ExpandDGROUP_
Module: /mnt/sda5/.user/root/src/openwatcom-1.9/rel2/lib386/linux/clib3r.lib(__stos)
080680e0       __STOSB
08068117*      __STOSD
Module: /mnt/sda5/.user/root/src/openwatcom-1.9/rel2/lib386/linux/clib3r.lib(mainlnx.c)
0806b4b8+      ___FirstThreadData
0806b4bc+      ___GetThreadPtr
0806b4c0*      __AccessFileH
0806b4c4*      __ReleaseFileH
0806b4c8*      __AccessIOB
0806b4cc*      __ReleaseIOB
0806b4d0*      __AccessNHeap
0806b4d4*      __AccessFHeap
0806b4d8*      __ReleaseNHeap
0806b4dc*      __ReleaseFHeap
08068190*      __threadid_
080681c0*      __LinuxInit_
080681d0       __exit_
0806b4e0*      __AccessTDList
0806b4e4*      __ReleaseTDList
Module: /mnt/sda5/.user/root/src/openwatcom-1.9/rel2/lib386/linux/clib3r.lib(vsprintf.c)
08068210       vsprintf_
Module: /mnt/sda5/.user/root/src/openwatcom-1.9/rel2/lib386/linux/clib3r.lib(nmsize.c)
08068230       _nmsize_
08068230*      _msize_
Module: /mnt/sda5/.user/root/src/openwatcom-1.9/rel2/lib386/linux/clib3r.lib(nexpand.c)
08068240       _nexpand_
08068240*      _expand_
08068290+      __HeapManager_expand_
Module: /mnt/sda5/.user/root/src/openwatcom-1.9/rel2/lib386/linux/clib3r.lib(fprtf.c)
08068480       __fprtf_
Module: /mnt/sda5/.user/root/src/openwatcom-1.9/rel2/lib386/linux/clib3r.lib(dosseg)
00001234       __DOSseg__
Module: /mnt/sda5/.user/root/src/openwatcom-1.9/rel2/lib386/linux/clib3r.lib(sys_brk.c)
08068510       sys_brk_
Module: /mnt/sda5/.user/root/src/openwatcom-1.9/rel2/lib386/linux/clib3r.lib(setenvp.c)
08068530       __setenvp_
Module: /mnt/sda5/.user/root/src/openwatcom-1.9/rel2/lib386/linux/clib3r.lib(xmsglnx.c)
080685a0+      __exit_with_msg_
080685f0       __fatal_runtime_error_
Module: /mnt/sda5/.user/root/src/openwatcom-1.9/rel2/lib386/linux/clib3r.lib(fclose.c)
08068610+      __doclose_
08068680       __shutdown_stream_
080686a0*      fclose_
Module: /mnt/sda5/.user/root/src/openwatcom-1.9/rel2/lib386/linux/clib3r.lib(freefp.c)
080686d0       __freefp_
08068710       __purgefp_
Module: /mnt/sda5/.user/root/src/openwatcom-1.9/rel2/lib386/linux/clib3r.lib(qwritunx.c)
08068740       __qwrite_
Module: /mnt/sda5/.user/root/src/openwatcom-1.9/rel2/lib386/linux/clib3r.lib(fsync.c)
08068790       fsync_
Module: /mnt/sda5/.user/root/src/openwatcom-1.9/rel2/lib386/linux/clib3r.lib(chktty.c)
080687c0       __chktty_
Module: /mnt/sda5/.user/root/src/openwatcom-1.9/rel2/lib386/linux/clib3r.lib(heapen.c)
080687f0*      _heapenable_
0806b4e8       ___heap_enabled
Module: /mnt/sda5/.user/root/src/openwatcom-1.9/rel2/lib386/linux/clib3r.lib(mthrdini.c)
08068800       __InitThreadData_
0806b4ec*      ___ThreadDataSize
Module: /mnt/sda5/.user/root/src/openwatcom-1.9/rel2/lib386/linux/clib3r.lib(sys_exit.c)
08068810       sys_exit_
Module: /mnt/sda5/.user/root/src/openwatcom-1.9/rel2/lib386/linux/clib3r.lib(prtf.c)
08068820       __prtf_
Module: /mnt/sda5/.user/root/src/openwatcom-1.9/rel2/lib386/linux/clib3r.lib(enterdb.c)
08069340       __EnterWVIDEO_
0806b4f0+      ___WD_Present
Module: /mnt/sda5/.user/root/src/openwatcom-1.9/rel2/lib386/linux/clib3r.lib(isattlnx.c)
08069370       isatty_
Module: /mnt/sda5/.user/root/src/openwatcom-1.9/rel2/lib386/linux/clib3r.lib(noefgfmt.c)
0806b4f4       ___EFG_printf
0806b4f8*      ___EFG_scanf
Module: /mnt/sda5/.user/root/src/openwatcom-1.9/rel2/lib386/linux/clib3r.lib(lltoa.c)
08069400       ulltoa_
08069470*      lltoa_
Module: /mnt/sda5/.user/root/src/openwatcom-1.9/rel2/lib386/linux/clib3r.lib(tcgattr.c)
080694a0       tcgetattr_
Module: /mnt/sda5/.user/root/src/openwatcom-1.9/rel2/lib386/linux/clib3r.lib(ioctl.c)
080694b0       ioctl_


                        +--------------------+
                        |   Libraries Used   |
                        +--------------------+

/mnt/sda5/.user/root/src/openwatcom-1.9/rel2/lib386/linux/clib3r.lib


                        +-----------------------+
                        |   Linker Statistics   |
                        +-----------------------+

Stack size:  1000 (4096.)
Memory size:  00023e71 (147057.)
Entry point address: 080667e2
Link time: 00:00.00
