Open Watcom Linker Version 1.9
Portions Copyright (c) 1985-2002 Sybase, Inc. All Rights Reserved.
Created on:       12/12/16 02:39:59
Executable Image: novserv.exe
creating a DOS executable


                        +------------+
                        |   Groups   |
                        +------------+

Group                           Address              Size
=====                           =======              ====

DGROUP                          049f:0000            00002ce0



                        +--------------+
                        |   Segments   |
                        +--------------+

Segment                Class          Group          Address         Size
=======                =====          =====          =======         ====

BEGTEXT                CODE           AUTO           0000:0000       00000007
_TEXT                  CODE           AUTO           0000:0010       000049dd
FAR_DATA               FAR_DATA       AUTO           049e:000d       00000000
_NULL                  BEGDATA        DGROUP         049f:0000       00000020
_AFTERNULL             BEGDATA        DGROUP         04a1:0000       00000002
CONST                  DATA           DGROUP         04a1:0002       000002d9
CONST2                 DATA           DGROUP         04ce:000c       00000102
_DATA                  DATA           DGROUP         04de:000e       000000ba
XIB                    DATA           DGROUP         04ea:0008       00000000
XI                     DATA           DGROUP         04ea:0008       00000018
XIE                    DATA           DGROUP         04ec:0000       00000000
YIB                    DATA           DGROUP         04ec:0000       00000000
YI                     DATA           DGROUP         04ec:0000       0000000c
YIE                    DATA           DGROUP         04ec:000c       00000000
STRINGS                DATA           DGROUP         04ec:000c       00000000
DATA                   DATA           DGROUP         04ec:000c       00000000
_BSS                   BSS            DGROUP         04ed:0000       000017fd
STACK                  STACK          DGROUP         066d:0000       00001000


                        +----------------+
                        |   Memory Map   |
                        +----------------+

* = unreferenced symbol
+ = symbol only referenced locally

Address        Symbol
=======        ======

Module: mxutil.obj(/mnt/sda5/.user/root/src/openwatcom-1.9/bld/trap/common/mxutil.c)
0000:0010      GetInPtr_
0000:003a      GetOutPtr_
0000:0064*     GetTotalSize_
049f:04e0      _In_Mx_Ptr
049f:04e4      _Out_Mx_Ptr
049f:04e8      _Out_Mx_Num
049f:04e9      _In_Mx_Num
Module: serv.obj(/mnt/sda5/.user/root/src/openwatcom-1.9/bld/trap/common/serv.c)
0000:00a0      ServError_
0000:00a0*     ServMessage_
0000:00ac+     Initialize_
0000:0122+     OpeningStatement_
0000:0156      main_
Module: dostrio.obj(/mnt/sda5/.user/root/src/openwatcom-1.9/bld/trap/common/dos/dostrio.c)
0000:01f0      Output_
0000:0218      SayGNiteGracey_
0000:021e      StartupErr_
0000:026e      KeyPress_
0000:027e      KeyGet_
0000:0284      PathOpen_
0000:0394      GetSystemHandle_
0000:0398      FileClose_
0000:03a8      WantUsage_
Module: servacc.obj(/mnt/sda5/.user/root/src/openwatcom-1.9/bld/trap/common/servacc.c)
049f:04ec      _RWBuff
0000:04d6      Session_
0000:05be      TrapClientString_
049f:08f8      _TrapVersion
Module: servcmd.obj(/mnt/sda5/.user/root/src/openwatcom-1.9/bld/trap/common/servcmd.c)
0000:06be      ParseCommandLine_
Module: servname.obj(/mnt/sda5/.user/root/src/openwatcom-1.9/bld/trap/nov/c/servname.c)
049f:03fe      _ServUsage
049f:043a      _ServName
Module: trpsupp.obj(/mnt/sda5/.user/root/src/openwatcom-1.9/bld/dig/c/trpsupp.c)
0000:0840*     TrapSetFailCallBack_
0000:0846*     TrapSetAccessCallBack_
0000:084c*     TrapFailAllRequests_
0000:0858*     TrapSimpAccess_
0000:08ac      TrapAccess_
0000:08fe+     ReqFuncProxy_
049f:0900      _ReqFunc
049f:0904      _TrapVer
Module: trpld.obj(/mnt/sda5/.user/root/src/openwatcom-1.9/bld/dig/c/dos/trpld.c)
0000:0930      KillTrap_
0000:0964      LoadTrap_
Module: dosnoth.obj(/mnt/sda5/.user/root/src/openwatcom-1.9/bld/trap/common/dos/dosnoth.c)
0000:0c20      NothingToDo_
Module: packet.obj(/mnt/sda5/.user/root/src/openwatcom-1.9/bld/trap/common/packet.c)
0000:0c40*     StartPacket_
0000:0c48*     PutPacket_
0000:0c62      PutBuffPacket_
0000:0c78*     AddPacket_
0000:0cc2      GetPacket_
0000:0cd8*     RemovePacket_
0000:0d16      GetPacketBuffPtr_
0000:0d22      MaxPacketSize_
Module: novlink.obj(/mnt/sda5/.user/root/src/openwatcom-1.9/bld/trap/nov/c/novlink.c)
049f:0d14*     _nothing_really_common
Module: novdos.obj(/mnt/sda5/.user/root/src/openwatcom-1.9/bld/trap/nov/c/novdos.c)
049f:0d20+     _SAPECB
049f:0d50+     _RespECB
049f:0d80+     _SAPHead
049f:0de0+     _Buffer
049f:17e0+     _ServECB
049f:1810+     _SendECB
049f:1840+     _RecECB
049f:1930+     _ConnECB
049f:1960+     _ServRespESRAddr
049f:1964+     _SAPWaitESRAddr
049f:1968+     _SAPBroadESRAddr
049f:196c+     _RespHead
049f:198a+     _ServHead
049f:19a8+     _SendHead
0000:0e40      RemoteGet_
0000:0fc0      RemotePut_
0000:102c      RemoteConnect_
0000:10d4      RemoteDisco_
0000:1222      SAPWait_
0000:1240      SAPBroad_
0000:1264      ServResp_
0000:1518      RemoteLink_
0000:16bc      RemoteUnLink_
049f:0454+     _DefLinkName
049f:19d2+     _RecHead
049f:1aa4+     _ConnHead
049f:1ace+     _IPXSocket
049f:1ad0+     _Connection
049f:1ad2+     _SPXSocket
049f:1ad4+     _PartnerSPXSocket
049f:1ad6+     _ServDummy
049f:1ad7+     _Listening
Module: spx.obj(SPX)
0000:1720      SPXInitialize_
0000:176d*     _SPXEstablishConnection_
0000:1797      _SPXListenForConnection_
0000:17b6      _SPXTerminateConnection_
0000:17d7*     _SPXAbortConnection_
0000:17ee      _SPXSendSequencedPacket_
0000:180f      _SPXListenForSequencedPacket_
0000:1830*     _SPXGetConnectionStatus_
Module: ipx.obj(IPX)
0000:1856      IPXLoc
0000:185a      SAPWaitESR_
0000:1864      SAPBroadESR_
0000:186e      ServRespESR_
0000:187b      _IPXInitialize_
0000:18cf      _IPXOpenSocket_
0000:18f4      _IPXCloseSocket_
0000:190d      _IPXGetLocalTarget_
0000:1936      _IPXSendPacket_
0000:1953      _IPXListenForPacket_
0000:1970      _IPXScheduleIPXEvent_
0000:198d      _IPXCancelEvent_
0000:19ae      _IPXGetIntervalMarker_
0000:19c5      _IPXGetInternetworkAddress_
0000:19e4      _IPXRelinquishControl_
0000:19fd      _IPXDisconnectFromTarget_
Module: /mnt/sda5/.user/root/src/openwatcom-1.9/rel2/lib286/dos/clibc.lib(cmodel)
0000:1a1c      _small_code_
0000:1a1c*     CodeModelMismatch
Module: /mnt/sda5/.user/root/src/openwatcom-1.9/rel2/lib286/dos/clibc.lib(gtcmddos.c)
0000:1a1c+     _bgetcmd_
0000:1a9b      getcmd_
Module: /mnt/sda5/.user/root/src/openwatcom-1.9/rel2/lib286/dos/clibc.lib(cstart)
0000:0003*     ___begtext
049f:0000*     __nullarea
0000:1ab0      _cstart_
0000:1b85*     _Not_Enough_Memory_
0000:1cb0      __exit_
0000:1ccf      __do_exit_with_msg__
0000:1d12      __GETDS
Module: /mnt/sda5/.user/root/src/openwatcom-1.9/rel2/lib286/dos/clibc.lib(argcv.c)
049f:1bac      __argv
049f:1bb0      ___argv
049f:1bb4      __argc
049f:1bb6      ___argc
Module: /mnt/sda5/.user/root/src/openwatcom-1.9/rel2/lib286/dos/clibc.lib(searchen.c)
0000:1d1c      _searchenv_
Module: /mnt/sda5/.user/root/src/openwatcom-1.9/rel2/lib286/dos/clibc.lib(isalpha.c)
0000:1e86      isalpha_
Module: /mnt/sda5/.user/root/src/openwatcom-1.9/rel2/lib286/dos/clibc.lib(strnicmp.c)
0000:1e9c      strnicmp_
Module: /mnt/sda5/.user/root/src/openwatcom-1.9/rel2/lib286/dos/clibc.lib(sprintf.c)
0000:1eeb      sprintf_
Module: /mnt/sda5/.user/root/src/openwatcom-1.9/rel2/lib286/dos/clibc.lib(intx086.c)
0000:1f18+     int86x_
0000:1faf      int86_
Module: /mnt/sda5/.user/root/src/openwatcom-1.9/rel2/lib286/dos/clibc.lib(toupper.c)
0000:1fd9      toupper_
Module: /mnt/sda5/.user/root/src/openwatcom-1.9/rel2/lib286/dos/clibc.lib(crwdata)
049f:045c      __curbrk
049f:0464      __STACKLOW
049f:0466      __STACKTOP
049f:0468      __cbyte
049f:046a      __child
049f:046c      __no87
049f:047a      ___FPE_handler
049f:045e      __psp
049f:046e      __get_ovl_stack
049f:0472      __restore_ovl_stack
049f:0476      __close_ovl_file
049f:047e      __LpCmdLine
049f:0482      __LpPgmName
049f:0460      __osmajor
049f:0461      __osminor
049f:0462      __osmode
049f:0463      __HShift
Module: /mnt/sda5/.user/root/src/openwatcom-1.9/rel2/lib286/dos/clibc.lib(xmsg.c)
0000:1fe8*     __exit_with_msg_
0000:1feb      __fatal_runtime_error_
Module: /mnt/sda5/.user/root/src/openwatcom-1.9/rel2/lib286/dos/clibc.lib(cmain086.c)
0000:2005      __CMain
Module: /mnt/sda5/.user/root/src/openwatcom-1.9/rel2/lib286/dos/clibc.lib(initrtns.c)
0000:2061*     __FInitRtns
0000:2065      __InitRtns
0000:20c0*     __FFiniRtns
0000:20c4      __FiniRtns
Module: /mnt/sda5/.user/root/src/openwatcom-1.9/rel2/lib286/dos/clibc.lib(uselfn.c)
049f:0486      ___uselfn
Module: /mnt/sda5/.user/root/src/openwatcom-1.9/rel2/lib286/dos/clibc.lib(dosseg)
0000:2128      __DOSseg__
Module: /mnt/sda5/.user/root/src/openwatcom-1.9/rel2/lib286/dos/clibc.lib(initargv.c)
0000:2129      __Init_Argv_
0000:2185+     _getargv_
0000:237e      __Fini_Argv_
Module: /mnt/sda5/.user/root/src/openwatcom-1.9/rel2/lib286/dos/clibc.lib(errno.c)
0000:23a0      __get_errno_ptr_
0000:23a7      __get_doserrno_ptr_
049f:1bbc+     _errno
049f:1bbe+     __doserrno
Module: /mnt/sda5/.user/root/src/openwatcom-1.9/rel2/lib286/dos/clibc.lib(accss.c)
0000:23ae      access_
Module: /mnt/sda5/.user/root/src/openwatcom-1.9/rel2/lib286/dos/clibc.lib(gtcwd.c)
0000:23e4      getcwd_
Module: /mnt/sda5/.user/root/src/openwatcom-1.9/rel2/lib286/dos/clibc.lib(strlen.c)
0000:2485      strlen_
Module: /mnt/sda5/.user/root/src/openwatcom-1.9/rel2/lib286/dos/clibc.lib(strncat.c)
0000:249a      strncat_
Module: /mnt/sda5/.user/root/src/openwatcom-1.9/rel2/lib286/dos/clibc.lib(getenv.c)
0000:24d9      getenv_
Module: /mnt/sda5/.user/root/src/openwatcom-1.9/rel2/lib286/dos/clibc.lib(strcat.c)
0000:2590      strcat_
Module: /mnt/sda5/.user/root/src/openwatcom-1.9/rel2/lib286/dos/clibc.lib(seterrno.c)
0000:25bb      __set_errno_
0000:25cd*     __set_EDOM_
0000:25dd*     __set_ERANGE_
0000:25ed*     __set_EINVAL_
0000:2600      __set_doserrno_
Module: /mnt/sda5/.user/root/src/openwatcom-1.9/rel2/lib286/dos/clibc.lib(istable.c)
049f:02fc      __IsTable
Module: /mnt/sda5/.user/root/src/openwatcom-1.9/rel2/lib286/dos/clibc.lib(vsprintf.c)
0000:2623      vsprintf_
Module: /mnt/sda5/.user/root/src/openwatcom-1.9/rel2/lib286/dos/clibc.lib(intr.c)
0000:2648      intr_
Module: /mnt/sda5/.user/root/src/openwatcom-1.9/rel2/lib286/dos/clibc.lib(segread.c)
0000:265a      segread_
Module: /mnt/sda5/.user/root/src/openwatcom-1.9/rel2/lib286/dos/clibc.lib(enterdb.c)
0000:267a      __EnterWVIDEO_
049f:0488+     ___WD_Present
Module: /mnt/sda5/.user/root/src/openwatcom-1.9/rel2/lib286/dos/clibc.lib(___argc.c)
049f:1bc0      ____Argv
049f:1bc4      ____Argc
Module: /mnt/sda5/.user/root/src/openwatcom-1.9/rel2/lib286/dos/clibc.lib(amblksiz.c)
049f:048a      __amblksiz
Module: /mnt/sda5/.user/root/src/openwatcom-1.9/rel2/lib286/dos/clibc.lib(exit.c)
0000:269e+     __null_int23_exit_
0000:269f      exit_
0000:26cc*     _exit_
049f:048c+     ___int23_exit
049f:048e+     ___FPE_handler_exit
Module: /mnt/sda5/.user/root/src/openwatcom-1.9/rel2/lib286/dos/clibc.lib(sgdef086)
049f:04b8      __Start_XI
049f:04d0      __End_XI
049f:04d0      __Start_YI
049f:04dc      __End_YI
Module: /mnt/sda5/.user/root/src/openwatcom-1.9/rel2/lib286/dos/clibc.lib(histsplt.c)
049f:1bc6      ___historical_splitparms
Module: /mnt/sda5/.user/root/src/openwatcom-1.9/rel2/lib286/dos/clibc.lib(nmalloc.c)
0000:26e6      _nmalloc_
049f:0490      ___nheapbeg
049f:0492      ___MiniHeapRover
049f:0494      ___LargestSizeB4MiniHeapRover
Module: /mnt/sda5/.user/root/src/openwatcom-1.9/rel2/lib286/dos/clibc.lib(fmalloc.c)
0000:27b7*     _fmalloc_
0000:27b7      malloc_
049f:0496+     ___fheap
049f:0498      ___fheapRover
049f:049a      ___LargestSizeB4Rover
Module: /mnt/sda5/.user/root/src/openwatcom-1.9/rel2/lib286/dos/clibc.lib(ffree.c)
0000:28ba*     _ffree_
0000:28ba      free_
Module: /mnt/sda5/.user/root/src/openwatcom-1.9/rel2/lib286/dos/clibc.lib(gfattdos.c)
0000:28fc      _dos_getfileattr_
Module: /mnt/sda5/.user/root/src/openwatcom-1.9/rel2/lib286/dos/clibc.lib(dosret.c)
0000:2911*     _dosretax_
0000:2916*     _dosret0_
0000:291d      __set_errno_dos_
0000:2977*     __set_errno_dos_reterr_
Module: /mnt/sda5/.user/root/src/openwatcom-1.9/rel2/lib286/dos/clibc.lib(doserror)
0000:2982      __doserror_
Module: /mnt/sda5/.user/root/src/openwatcom-1.9/rel2/lib286/dos/clibc.lib(strncpy.c)
0000:298e      strncpy_
Module: /mnt/sda5/.user/root/src/openwatcom-1.9/rel2/lib286/dos/clibc.lib(environ.c)
049f:1bc8      ___env_mask
049f:1bcc      _environ
049f:1bd0*     __wenviron
Module: /mnt/sda5/.user/root/src/openwatcom-1.9/rel2/lib286/dos/clibc.lib(mbterm.c)
0000:29ca      _mbterm_
Module: /mnt/sda5/.user/root/src/openwatcom-1.9/rel2/lib286/dos/clibc.lib(mbsnextc.c)
0000:2a0c      _mbsnextc_
Module: /mnt/sda5/.user/root/src/openwatcom-1.9/rel2/lib286/dos/clibc.lib(mbcupper.c)
0000:2a3d      _mbctoupper_
Module: /mnt/sda5/.user/root/src/openwatcom-1.9/rel2/lib286/dos/clibc.lib(mbsinc.c)
0000:2a5c      _mbsinc_
Module: /mnt/sda5/.user/root/src/openwatcom-1.9/rel2/lib286/dos/clibc.lib(prtf.c)
0000:2a98      __prtf_
Module: /mnt/sda5/.user/root/src/openwatcom-1.9/rel2/lib286/dos/clibc.lib(dointr)
0000:3852      _DoINTR_
Module: /mnt/sda5/.user/root/src/openwatcom-1.9/rel2/lib286/dos/clibc.lib(nmemneed.c)
0000:3bcb      __nmemneed_
Module: /mnt/sda5/.user/root/src/openwatcom-1.9/rel2/lib286/dos/clibc.lib(mem.c)
0000:3bd0      __MemAllocator
0000:3c9a      __MemFree
Module: /mnt/sda5/.user/root/src/openwatcom-1.9/rel2/lib286/dos/clibc.lib(grownear.c)
0000:3e7c      __LastFree_
0000:3ef5      __ExpandDGROUP_
Module: /mnt/sda5/.user/root/src/openwatcom-1.9/rel2/lib286/dos/clibc.lib(hpgrw086.c)
0000:4002      __CMain_nheapgrow_
Module: /mnt/sda5/.user/root/src/openwatcom-1.9/rel2/lib286/dos/clibc.lib(growseg.c)
0000:4005      __GrowSeg_
Module: /mnt/sda5/.user/root/src/openwatcom-1.9/rel2/lib286/dos/clibc.lib(allocseg.c)
0000:40f7      __AllocSeg_
Module: /mnt/sda5/.user/root/src/openwatcom-1.9/rel2/lib286/dos/clibc.lib(fmemneed.c)
0000:418e      __fmemneed_
Module: /mnt/sda5/.user/root/src/openwatcom-1.9/rel2/lib286/dos/clibc.lib(nfree.c)
0000:4191      _nfree_
049f:1bd4+     ___MiniHeapFreeRover
Module: /mnt/sda5/.user/root/src/openwatcom-1.9/rel2/lib286/dos/clibc.lib(setenvp.c)
0000:42a3      __setenvp_
0000:43a4      __freeenvp_
Module: /mnt/sda5/.user/root/src/openwatcom-1.9/rel2/lib286/dos/clibc.lib(mbisdbcs.c)
049f:1bda      ___IsDBCS
Module: /mnt/sda5/.user/root/src/openwatcom-1.9/rel2/lib286/dos/clibc.lib(mbislead.c)
0000:43fc*     _ismbblead_
049f:1bdc      ___MBCSIsTable
Module: /mnt/sda5/.user/root/src/openwatcom-1.9/rel2/lib286/dos/clibc.lib(mbinit.c)
0000:4454      __mbinit_
049f:04b0      ___MBCodePage
Module: /mnt/sda5/.user/root/src/openwatcom-1.9/rel2/lib286/dos/clibc.lib(mbdtoupp.c)
0000:452f      _mbdtoupper_
Module: /mnt/sda5/.user/root/src/openwatcom-1.9/rel2/lib286/dos/clibc.lib(wctomb.c)
0000:453d      wctomb_
Module: /mnt/sda5/.user/root/src/openwatcom-1.9/rel2/lib286/dos/clibc.lib(itoa.c)
0000:4566+     utoa_
0000:45c3      itoa_
Module: /mnt/sda5/.user/root/src/openwatcom-1.9/rel2/lib286/dos/clibc.lib(i4m)
0000:45e6*     __I4M
0000:45e6      __U4M
Module: /mnt/sda5/.user/root/src/openwatcom-1.9/rel2/lib286/dos/clibc.lib(strupr.c)
0000:45fe      strupr_
Module: /mnt/sda5/.user/root/src/openwatcom-1.9/rel2/lib286/dos/clibc.lib(noefgfmt.c)
049f:04b2      ___EFG_printf
049f:04b4*     ___EFG_scanf
Module: /mnt/sda5/.user/root/src/openwatcom-1.9/rel2/lib286/dos/clibc.lib(lltoa.c)
0000:4631      ulltoa_
0000:4716*     lltoa_
Module: /mnt/sda5/.user/root/src/openwatcom-1.9/rel2/lib286/dos/clibc.lib(ltoa.c)
0000:4777      ultoa_
0000:47e6*     ltoa_
Module: /mnt/sda5/.user/root/src/openwatcom-1.9/rel2/lib286/dos/clibc.lib(heapen.c)
0000:4814*     _heapenable_
049f:04b6      ___heap_enabled
Module: /mnt/sda5/.user/root/src/openwatcom-1.9/rel2/lib286/dos/clibc.lib(sbrk.c)
0000:4825*     sbrk_
0000:4834      __brk_
Module: /mnt/sda5/.user/root/src/openwatcom-1.9/rel2/lib286/dos/clibc.lib(heapgrow.c)
0000:489c*     _heapgrow_
0000:489c*     _fheapgrow_
0000:489d      _nheapgrow_
Module: /mnt/sda5/.user/root/src/openwatcom-1.9/rel2/lib286/dos/clibc.lib(clearenv.c)
0000:4911      clearenv_
Module: /mnt/sda5/.user/root/src/openwatcom-1.9/rel2/lib286/dos/clibc.lib(alphabet.c)
049f:02d6      ___Alphabet


                        +--------------------+
                        |   Libraries Used   |
                        +--------------------+

/mnt/sda5/.user/root/src/openwatcom-1.9/rel2/lib286/dos/clibc.lib


                        +-----------------------+
                        |   Linker Statistics   |
                        +-----------------------+

Stack size:  1000 (4096.)
Memory size:  76d0 (30416.)
Entry point address: 0000:1ab0
Link time: 00:00.00
