Open Watcom Linker Version 1.9
Portions Copyright (c) 1985-2002 Sybase, Inc. All Rights Reserved.
Created on:       12/12/16 02:39:38
Executable Image: whelp.exe
creating a Linux x86 executable


                        +------------+
                        |   Groups   |
                        +------------+

Group                           Address              Size
=====                           =======              ====

DGROUP                          08060000             00001fd8



                        +--------------+
                        |   Segments   |
                        +--------------+

Segment                Class          Group          Address         Size
=======                =====          =====          =======         ====

BEGTEXT                CODE           AUTO           08048100        00000007
_TEXT                  CODE           AUTO           08048110        00017643
_NULL                  BEGDATA        DGROUP         08060000        00000004
_AFTERNULL             BEGDATA        DGROUP         08060004        00000000
CONST                  DATA           DGROUP         08060004        00000028
CONST2                 DATA           DGROUP         0806002c        00000000
_DATA                  DATA           DGROUP         0806002c        00000dc4
XIB                    DATA           DGROUP         08060df0        00000000
XI                     DATA           DGROUP         08060df0        0000000c
XIE                    DATA           DGROUP         08060dfc        00000000
YIB                    DATA           DGROUP         08060dfc        00000000
YI                     DATA           DGROUP         08060dfc        00000006
YIE                    DATA           DGROUP         08060e02        00000000
TIB                    DATA           DGROUP         08060e02        00000000
TI                     DATA           DGROUP         08060e02        00000000
TIE                    DATA           DGROUP         08060e02        00000000
DATA                   DATA           DGROUP         08060e02        00000000
_BSS                   BSS            DGROUP         08061000        00000fd8


                        +----------------+
                        |   Memory Map   |
                        +----------------+

* = unreferenced symbol
+ = symbol only referenced locally

Address        Symbol
=======        ======

Module: main.obj(/mnt/sda5/.user/root/src/openwatcom-1.9/bld/help/c/main.c)
08048530       main_
Module: filelist.obj(/mnt/sda5/.user/root/src/openwatcom-1.9/bld/help/c/filelist.c)
08048bd0       PrintHelpFiles_
Module: help.obj(/mnt/sda5/.user/root/src/openwatcom-1.9/bld/help/c/help.c)
08048cc0+      hlp_ut_screen_area_
08048d10+      hlp_ut_position_
08049360+      help_next_field_
080494f0*      Free_Stack_
08049510+      help_in_tab_
0804a970       showhelp_
0804abf0+      do_showhelp_
Module: vvscroll.obj(/mnt/sda5/.user/root/src/openwatcom-1.9/bld/help/c/vvscroll.c)
0804ae00       vvscroll_
Module: helpmem.obj(/mnt/sda5/.user/root/src/openwatcom-1.9/bld/help/c/helpmem.c)
0804aef0       HelpMemAlloc_
0804af00       HelpMemRealloc_
0804af10       HelpMemFree_
Module: helpopen.obj(/mnt/sda5/.user/root/src/openwatcom-1.9/bld/help/c/helpopen.c)
0804b0d0+      do_init_
0804b1f0       helpinit_
0804b2b0       help_reinit_
0804b320       helpfini_
080601f8       _HelpFiles
Module: helpio.obj(/mnt/sda5/.user/root/src/openwatcom-1.9/bld/help/c/helpio.c)
0804b360       HelpFileLen_
0804b370       HelpRead_
0804b380*      HelpWrite_
0804b390       HelpSeek_
0804b3a0       HelpTell_
0804b3b0       HelpOpen_
0804b400       HelpClose_
0804b410       HelpAccess_
0804b440       HelpGetCWD_
0804b450       HelpSearchEnv_
Module: helpscan.obj(/mnt/sda5/.user/root/src/openwatcom-1.9/bld/help/c/helpscan.c)
0804b620+      freeHyperlinkInfo_
0804b640       ScanLine_
Module: dlg.obj(/mnt/sda5/.user/root/src/openwatcom-1.9/bld/help/c/dlg.c)
0804b850+      GetListBoxItem_
0804b970       HelpDialogCallBack_
0804ba00       SearchDlgFini_
0804ba30       HelpSearch_
Module: msgbox.obj(/mnt/sda5/.user/root/src/openwatcom-1.9/bld/help/c/msgbox.c)
0804bb70       ShowMsgBox_
08060340+      _helpMsgBox
Module: search.obj(/mnt/sda5/.user/root/src/openwatcom-1.9/bld/help/c/search.c)
0804be50       HelpFindFirst_
0804bee0       HelpGetIndexedTopic_
0804bf50       HelpFindTopicOffset_
0804bfc0       InitHelpSearch_
0804c210       GetDefTopic_
0804c220       GetDescrip_
0804c230       FiniHelpSearch_
0806037c+      _curFile
08061194+      _curPage
08061594+      _pageIndex
08061598+      _pageHeader
0806159c+      _stringBlock
Module: dialcb.obj(/mnt/sda5/.user/root/src/openwatcom-1.9/bld/help/c/dialcb.c)
0804c270       uidialogcallback_
Module: /mnt/sda5/.user/root/src/openwatcom-1.9/rel2/lib386/linux/clib3r.lib(splitpat.c)
0804c2b0       _splitpath_
Module: /mnt/sda5/.user/root/src/openwatcom-1.9/rel2/lib386/linux/clib3r.lib(printf.c)
0804c380       printf_
Module: /mnt/sda5/.user/root/src/openwatcom-1.9/rel2/lib386/linux/clib3r.lib(makepath.c)
0804c3b0       _makepath_
Module: /mnt/sda5/.user/root/src/openwatcom-1.9/rel2/lib386/linux/clib3r.lib(_strcmp)
0804c540       strcmp_
Module: /mnt/sda5/.user/root/src/openwatcom-1.9/rel2/lib386/linux/clib3r.lib(strlwr.c)
0804c680       strlwr_
Module: /mnt/sda5/.user/root/src/openwatcom-1.9/bld/ui/unix/linux386/ui.lib(/mnt/sda5/.user/root/src/openwatcom-1.9/bld/ui/c/uiinit.c)
0804c6a0       uistart_
0804c6d3*      uiinit_
0804c6f4*      uistop_
0804c703       uifini_
0804c71f*      uiswap_
Module: /mnt/sda5/.user/root/src/openwatcom-1.9/bld/ui/unix/linux386/ui.lib(/mnt/sda5/.user/root/src/openwatcom-1.9/bld/ui/c/uiback.c)
0804c7b7       uirestorebackground_
0804c7e4       openbackground_
0804c819       closebackground_
0804c826+      uibackgroundbuffer_
0804c864*      uiremovebackground_
0804c89d*      uikeepbackground_
Module: /mnt/sda5/.user/root/src/openwatcom-1.9/rel2/lib386/linux/clib3r.lib(cstart)
0804c8e8       _cstart_
0804c8e8*      _start
Module: /mnt/sda5/.user/root/src/openwatcom-1.9/rel2/lib386/linux/clib3r.lib(cmainlnx.c)
0804c960       __LinuxMain
080615a0       __argc
080615a4+      __argv
Module: /mnt/sda5/.user/root/src/openwatcom-1.9/rel2/lib386/linux/clib3r.lib(qsort.c)
0804ca40       qsort_
Module: /mnt/sda5/.user/root/src/openwatcom-1.9/rel2/lib386/linux/clib3r.lib(opendir.c)
0804d0f0       opendir_
Module: /mnt/sda5/.user/root/src/openwatcom-1.9/rel2/lib386/linux/clib3r.lib(readdir.c)
0804d130       readdir_
Module: /mnt/sda5/.user/root/src/openwatcom-1.9/rel2/lib386/linux/clib3r.lib(closedir.c)
0804d190       closedir_
Module: /mnt/sda5/.user/root/src/openwatcom-1.9/rel2/lib386/linux/clib3r.lib(stricmp.c)
0804d1b0       stricmp_
Module: /mnt/sda5/.user/root/src/openwatcom-1.9/rel2/lib386/linux/clib3r.lib(getenv.c)
0804d1f0       getenv_
Module: /mnt/sda5/.user/root/src/openwatcom-1.9/bld/ui/unix/linux386/ui.lib(/mnt/sda5/.user/root/src/openwatcom-1.9/bld/ui/c/uidata.c)
08060380       _UIData
Module: /mnt/sda5/.user/root/src/openwatcom-1.9/bld/ui/unix/linux386/ui.lib(/mnt/sda5/.user/root/src/openwatcom-1.9/bld/ui/c/uimenu.c)
0804d26f*      uisetbetweentitles_
0804d275       uialtchar_
0804d41e       uidisplayitem_
0804d702       uidrawmenu_
0804d771       uiclosepopup_
0804d782       uiopenpopup_
0804d933+      process_menuevent_
0804de86*      uigeteventfrompos_
0804def2       menuevent_
0804e009       uidescmenu_
0804e219+      uimenutitlebar_
0804e29c*      uienablemenuitem_
0804e2d3*      uimenuindicators_
0804e2ed+      uisetmenudesc_
0804e379       uimenuson_
0804e384       uimenuheight_
0804e39c       uimenudisable_
0804e3ba       uimenuisdisabled_
0804e3cf*      uimenugetaltpressed_
0804e3e4       uimenusetaltpressed_
0804e402*      uinomenus_
0804e404+      uimenubar_
0804e462*      uimenus_
0804e49f*      uiactivatemenus_
0804e4c1*      uiignorealt_
0804e4cf*      uigetcurrentmenu_
Module: /mnt/sda5/.user/root/src/openwatcom-1.9/rel2/lib386/linux/clib3r.lib(strnicmp.c)
0804e510       strnicmp_
Module: /mnt/sda5/.user/root/src/openwatcom-1.9/bld/ui/unix/linux386/ui.lib(/mnt/sda5/.user/root/src/openwatcom-1.9/bld/ui/c/uivattr.c)
0804e554       uivattribute_
0804e59a*      uivattrflip_
Module: /mnt/sda5/.user/root/src/openwatcom-1.9/bld/ui/unix/linux386/ui.lib(/mnt/sda5/.user/root/src/openwatcom-1.9/bld/ui/c/uilist.c)
0804e5de*      uigetlist_
0804e5e7*      uiputlist_
0804e5f4       uipushlist_
0804e630*      uichecklist_
0804e652       uipoplist_
0804e676       uiinlist_
0804e6ce*      uiintoplist_
Module: /mnt/sda5/.user/root/src/openwatcom-1.9/bld/ui/unix/linux386/ui.lib(/mnt/sda5/.user/root/src/openwatcom-1.9/bld/ui/c/uimget.c)
0804e6e9       uivgetevent_
0804e6e9       uivget_
0804e6f3*      uiungetevent_
0804e703*      uiflushevent_
Module: /mnt/sda5/.user/root/src/openwatcom-1.9/bld/ui/unix/linux386/ui.lib(/mnt/sda5/.user/root/src/openwatcom-1.9/bld/ui/c/uigadget.c)
0806045c+      _VertScrollFrame
0806045e+      _HorzScrollFrame
08060460+      _SliderChar
08060462+      _LeftPoint
08060464+      _RightPoint
08060466+      _UpPoint
08060468+      _DownPoint
0804e70f*      uishowgadget_
0804e931       uiinitgadget_
0804e942       uidrawgadget_
0804e964       uisetgadget_
0804e970       uifinigadget_
0804e971*      uisetgadgetnodraw_
0804e976       uigadgetfilter_
Module: /mnt/sda5/.user/root/src/openwatcom-1.9/bld/ui/unix/linux386/ui.lib(/mnt/sda5/.user/root/src/openwatcom-1.9/bld/ui/c/uitab.c)
0804eceb       uitabfilter_
Module: /mnt/sda5/.user/root/src/openwatcom-1.9/bld/ui/unix/linux386/ui.lib(/mnt/sda5/.user/root/src/openwatcom-1.9/bld/ui/c/uihotspt.c)
0804efa8       uidrawhottext_
0804f0ba       uihotspot_
0804f264       uiposnhotspots_
0804f2ff       uiprinthotspots_
0804f323*      uioffhotspots_
0804f35e       uihotspotfilter_
0804f4cd       uiisdefaulthotspot_
Module: /mnt/sda5/.user/root/src/openwatcom-1.9/bld/ui/unix/linux386/ui.lib(/mnt/sda5/.user/root/src/openwatcom-1.9/bld/ui/c/uiforce.c)
0804f524       forceevfini_
0804f524       forceevinit_
0804f525       uiforceevadd_
0804f567*      uiforceevflush_
0804f5a5       forcedevent_
Module: /mnt/sda5/.user/root/src/openwatcom-1.9/rel2/lib386/linux/clib3r.lib(atoi.c)
0804f5e0       atoi_
Module: /mnt/sda5/.user/root/src/openwatcom-1.9/rel2/lib386/linux/clib3r.lib(strtok.c)
0804f630       strtok_
Module: /mnt/sda5/.user/root/src/openwatcom-1.9/bld/ui/unix/linux386/ui.lib(/mnt/sda5/.user/root/src/openwatcom-1.9/bld/ui/c/uivstr.c)
0804f6de       uitextfield_
0804f7b2       uivtextput_
0804f7f8*      uivrawput_
Module: /mnt/sda5/.user/root/src/openwatcom-1.9/bld/ui/unix/linux386/ui.lib(/mnt/sda5/.user/root/src/openwatcom-1.9/bld/ui/c/uigchar.c)
0804f85f       DBCSCharacterMap_
0806049c       _UiGChar
Module: /mnt/sda5/.user/root/src/openwatcom-1.9/bld/ui/unix/linux386/ui.lib(/mnt/sda5/.user/root/src/openwatcom-1.9/bld/ui/c/uivfill.c)
0804f860       uivfill_
Module: /mnt/sda5/.user/root/src/openwatcom-1.9/bld/ui/unix/linux386/ui.lib(/mnt/sda5/.user/root/src/openwatcom-1.9/bld/ui/c/uirefer.c)
0804f8c8       uirefresh_
Module: /mnt/sda5/.user/root/src/openwatcom-1.9/rel2/lib386/linux/clib3r.lib(strncmp.c)
0804f8d0       strncmp_
Module: /mnt/sda5/.user/root/src/openwatcom-1.9/bld/ui/unix/linux386/ui.lib(/mnt/sda5/.user/root/src/openwatcom-1.9/bld/ui/c/uivopen.c)
0804f955       uivopen_
0804fb1b       uivclose_
0804fb50*      uivresize_
0804fc63       uivmove_
Module: /mnt/sda5/.user/root/src/openwatcom-1.9/bld/ui/unix/linux386/ui.lib(/mnt/sda5/.user/root/src/openwatcom-1.9/bld/ui/c/uimousev.c)
08061658       _MouseCol
0806165a       _MouseRow
0806165c       _MouseStatus
0806165e+      _MouseOn
0804fcae*      uivmouseinstalled_
0804fcae       uimouseinstalled_
0804fcb6       uimouseforceoff_
0804fcc7*      uimouseforceon_
0804fcce       uionmouse_
0804fd06       uioffmouse_
0804fd0d       uihidemouse_
0804fd34       mouseevent_
0804ff19       uimousepos_
0804fffc       uivmousepos_
0805005b       uiswapmouse_
08050089*      uigetmrow_
08050090*      uigetmcol_
08050097       uigetmouse_
08061660       _MouseInstalled
Module: /mnt/sda5/.user/root/src/openwatcom-1.9/rel2/lib386/linux/clib3r.lib(sprintf.c)
080500e0       sprintf_
Module: /mnt/sda5/.user/root/src/openwatcom-1.9/rel2/lib386/linux/clib3r.lib(strncpy.c)
08050110       strncpy_
Module: /mnt/sda5/.user/root/src/openwatcom-1.9/bld/ui/unix/linux386/ui.lib(/mnt/sda5/.user/root/src/openwatcom-1.9/bld/ui/c/uivmove.c)
08050146       uivmoveblock_
Module: /mnt/sda5/.user/root/src/openwatcom-1.9/rel2/lib386/linux/clib3r.lib(nmalloc.c)
08050280       _nmalloc_
08050280       malloc_
08060518       ___nheapbeg
0806051c       ___MiniHeapRover
08060520       ___LargestSizeB4MiniHeapRover
Module: /mnt/sda5/.user/root/src/openwatcom-1.9/rel2/lib386/linux/clib3r.lib(nrealloc.c)
08050370*      _nrealloc_
08050370       realloc_
Module: /mnt/sda5/.user/root/src/openwatcom-1.9/rel2/lib386/linux/clib3r.lib(nfree.c)
080503f0       _nfree_
080503f0       free_
08061664+      ___MiniHeapFreeRover
Module: /mnt/sda5/.user/root/src/openwatcom-1.9/rel2/lib386/linux/clib3r.lib(filelen.c)
080504f0       filelength_
Module: /mnt/sda5/.user/root/src/openwatcom-1.9/rel2/lib386/linux/clib3r.lib(read.c)
08050540       read_
Module: /mnt/sda5/.user/root/src/openwatcom-1.9/rel2/lib386/linux/clib3r.lib(write.c)
08050570       write_
Module: /mnt/sda5/.user/root/src/openwatcom-1.9/rel2/lib386/linux/clib3r.lib(lseek.c)
080505a0       lseek_
Module: /mnt/sda5/.user/root/src/openwatcom-1.9/rel2/lib386/linux/clib3r.lib(tell.c)
080505b0       tell_
Module: /mnt/sda5/.user/root/src/openwatcom-1.9/rel2/lib386/linux/clib3r.lib(openlnx.c)
080505d0       open_
080505f0       sopen_
Module: /mnt/sda5/.user/root/src/openwatcom-1.9/rel2/lib386/linux/clib3r.lib(close.c)
08050610       close_
Module: /mnt/sda5/.user/root/src/openwatcom-1.9/rel2/lib386/linux/clib3r.lib(access.c)
08050640       access_
Module: /mnt/sda5/.user/root/src/openwatcom-1.9/rel2/lib386/linux/clib3r.lib(gtcwdlnx.c)
08050670       getcwd_
Module: /mnt/sda5/.user/root/src/openwatcom-1.9/rel2/lib386/linux/clib3r.lib(searchen.c)
080506f0       _searchenv_
Module: /mnt/sda5/.user/root/src/openwatcom-1.9/rel2/lib386/linux/clib3r.lib(strcspn.c)
08050800       strcspn_
Module: /mnt/sda5/.user/root/src/openwatcom-1.9/bld/ui/unix/linux386/ui.lib(/mnt/sda5/.user/root/src/openwatcom-1.9/bld/ui/c/uilstbox.c)
08050849       uigetlistelement_
08050881       uipaintlistbox_
080509c5+      checkitem_
08050a36       uiupdatelistbox_
08050aa9       uiboxpushlist_
08050ab3       uiboxpoplist_
08050ae1+      uilistsize_
08050af9       uimovelistbox_
08050b17       uibeglistbox_
08050be2       uiendlistbox_
08050c8b+      charselect_
08050cf8       uilistbox_
Module: /mnt/sda5/.user/root/src/openwatcom-1.9/bld/ui/unix/linux386/ui.lib(/mnt/sda5/.user/root/src/openwatcom-1.9/bld/ui/c/uialloc.c)
080510e2*      UIMemPrintLine_
080510e2*      UIMemPrtUsage_
080510e2       UIMemClose_
080510e2       UIMemOpen_
080510e2*      UIMemRedirect_
080510e3       uicalloc_
080510e8       uimalloc_
080510ed       uifree_
080510f2       uirealloc_
Module: /mnt/sda5/.user/root/src/openwatcom-1.9/bld/ui/unix/linux386/ui.lib(/mnt/sda5/.user/root/src/openwatcom-1.9/bld/ui/c/uidialog.c)
0805170c       uiprintfield_
08051750+      ui_split_line_
080517f2+      uiinitdialog_
08051908*      uifinidialog_
080519c6+      uireinitdialog_
08051a58*      uigetdialogarea_
08051a6d       uibegdialog_
08051b31+      uiupdatecombobox_
08051b9e       uiupdateedit_
08051c3a+      pulldownfilter_
08051e38+      uidialogexitcurr_
08051e4f+      uidialogsetcurr_
08051ea1+      uimovefield_
08051efd*      uiredrawdialog_
08051f39+      uiresizedialog_
0805234b+      uihotkeyfilter_
08052448+      uiprocessdialogevent_
08052624       uidialog_
08052730+      uifreedialog_
0805277c       uienddialog_
08052794*      uidialogisdirty_
080527a4*      uidialogsetdirty_
Module: /mnt/sda5/.user/root/src/openwatcom-1.9/rel2/lib386/linux/clib3r.lib(istable.c)
080527c0       __IsTable
Module: /mnt/sda5/.user/root/src/openwatcom-1.9/rel2/lib386/linux/clib3r.lib(iob.c)
080605d0       ___iob
08061668       ___OpenStreams
0806166c       ___ClosedStreams
Module: /mnt/sda5/.user/root/src/openwatcom-1.9/rel2/lib386/linux/clib3r.lib(fprtf.c)
080528f0       __fprtf_
Module: /mnt/sda5/.user/root/src/openwatcom-1.9/bld/ui/unix/linux386/ui.lib(/mnt/sda5/.user/root/src/openwatcom-1.9/bld/ui/unix/c/uibios.c)
0805298c*      uiset80col_
0805298e*      uiclockdelay_
0805298f       GetTermType_
080529bb       initbios_
08052a7e       finibios_
08052a90       forbid_refresh_
08052a97       permit_refresh_
08052abb       physupdate_
08061670       _UITermType
Module: /mnt/sda5/.user/root/src/openwatcom-1.9/bld/ui/unix/linux386/ui.lib(/mnt/sda5/.user/root/src/openwatcom-1.9/bld/ui/c/uiattr.c)
08060795+      _VGAcolours
080607d5+      _ui_vga_colour_attrs
080607fa+      _ui_colour_attrs
0806081f+      _ui_bw_attrs
08060844+      _ui_mono_attrs
08052ad9       uiattrs_
08052b6d*      uivgaattrs_
08052ba8+      uisetblinkattr_
08052be1*      uigetblinkattr_
Module: /mnt/sda5/.user/root/src/openwatcom-1.9/bld/ui/unix/linux386/ui.lib(/mnt/sda5/.user/root/src/openwatcom-1.9/bld/ui/unix/c/uiextrn.c)
08060890*      _UIWantShiftChanges
08060894       _UIDisableShiftChanges
08060898       _MouseTime
08061674*      _UIRemProxy
08061678*      _UIProxy
0806167c       _UIConHandle
08061680       _UIConFile
08061684       _UIPGroup
08061688       _UIVirt
Module: /mnt/sda5/.user/root/src/openwatcom-1.9/bld/ui/unix/linux386/ui.lib(/mnt/sda5/.user/root/src/openwatcom-1.9/bld/ui/unix/c/uicurs.c)
08052be7       uioffcursor_
08052c8c*      uigetcursor_
08052c98       uisetcursor_
08052caa       uiswapcursor_
08052caf       newcursor_
08052cbe*      uioncursor_
08052cde       uiinitcursor_
08052d22       uifinicursor_
Module: /mnt/sda5/.user/root/src/openwatcom-1.9/bld/ui/unix/linux386/ui.lib(/mnt/sda5/.user/root/src/openwatcom-1.9/bld/ui/c/uibfill.c)
08052d3d       bfill_
Module: /mnt/sda5/.user/root/src/openwatcom-1.9/bld/ui/unix/linux386/ui.lib(/mnt/sda5/.user/root/src/openwatcom-1.9/bld/ui/c/uibcopy.c)
08052d74       uibcopy_
Module: /mnt/sda5/.user/root/src/openwatcom-1.9/bld/ui/unix/linux386/ui.lib(/mnt/sda5/.user/root/src/openwatcom-1.9/bld/ui/c/uidirty.c)
08052dbb       dirtyarea_
08052e3d       dirtynext_
08052e8d       uidirty_
Module: /mnt/sda5/.user/root/src/openwatcom-1.9/bld/ui/unix/linux386/ui.lib(/mnt/sda5/.user/root/src/openwatcom-1.9/bld/ui/c/uiwin.c)
08052ef8+      findspot_
08052f5d       closewindow_
08052fa7       openwindow_
08052fd2       movewindow_
08052ffc       frontwindow_
Module: /mnt/sda5/.user/root/src/openwatcom-1.9/bld/ui/unix/linux386/ui.lib(/mnt/sda5/.user/root/src/openwatcom-1.9/bld/ui/c/uiballoc.c)
0805302a       bframe_
08053035       balloc_
08053057       bunframe_
08053062       bfree_
Module: /mnt/sda5/.user/root/src/openwatcom-1.9/rel2/lib386/linux/clib3r.lib(segdefns)
08048103       ___begtext
08060000*      __nullarea
08060df0       __Start_XI
08060dfc       __End_XI
08060dfc       __Start_YI
08060e02       __End_YI
Module: /mnt/sda5/.user/root/src/openwatcom-1.9/rel2/lib386/linux/clib3r.lib(crwdata)
080608a4*      __LpCmdLine
080608a8       __LpPgmName
0806089c*      __dynend
080608a0       __curbrk
080608ac       __STACKLOW
080608b0       __STACKTOP
080608b4       __ASTACKSIZ
080608b8       __ASTACKPTR
080608bc*      __cbyte
080608c0*      __cbyte2
080608c4*      __child
080608ca*      __Envptr
080608ce*      __Envseg
080608c8*      __no87
080608d0*      ___FPE_handler
Module: /mnt/sda5/.user/root/src/openwatcom-1.9/rel2/lib386/linux/clib3r.lib(sbrklnx.c)
08053070       sbrk_
08053080       __brk_
080530b0*      brk_
Module: /mnt/sda5/.user/root/src/openwatcom-1.9/rel2/lib386/linux/clib3r.lib(environ.c)
0806169c       ___env_mask
080616a0       _environ
080616a4*      __wenviron
Module: /mnt/sda5/.user/root/src/openwatcom-1.9/rel2/lib386/linux/clib3r.lib(initrtns.c)
080530f0       __InitRtns
08053140       __FiniRtns
Module: /mnt/sda5/.user/root/src/openwatcom-1.9/rel2/lib386/linux/clib3r.lib(amblksiz.c)
080608d4       __amblksiz
Module: /mnt/sda5/.user/root/src/openwatcom-1.9/rel2/lib386/linux/clib3r.lib(exit.c)
080531a0       exit_
080531b2       _exit_
Module: /mnt/sda5/.user/root/src/openwatcom-1.9/rel2/lib386/linux/clib3r.lib(getdents.c)
080531c0       sys_getdents_
Module: /mnt/sda5/.user/root/src/openwatcom-1.9/bld/ui/unix/linux386/ui.lib(/mnt/sda5/.user/root/src/openwatcom-1.9/bld/ui/c/uibstr.c)
080531eb       bstring_
0805321e       braw_
Module: /mnt/sda5/.user/root/src/openwatcom-1.9/bld/ui/unix/linux386/ui.lib(/mnt/sda5/.user/root/src/openwatcom-1.9/bld/ui/c/uibox.c)
0805324d       drawbox_
08053393       blowup_
0805346b       uidrawbox_
Module: /mnt/sda5/.user/root/src/openwatcom-1.9/rel2/lib386/linux/clib3r.lib(tolower.c)
080534e0       tolower_
Module: /mnt/sda5/.user/root/src/openwatcom-1.9/bld/ui/unix/linux386/ui.lib(/mnt/sda5/.user/root/src/openwatcom-1.9/bld/ui/c/uipopup.c)
080537b2+      uicreatepopupdesc_
0805399d+      uiposfloatingpopup_
08053eec+      uicreatepopupinarea_
08053f0f+      uicreatesubpopup_
08053f55       uicreatesubpopupinarea_
08053f75*      uicreatepopup_
Module: /mnt/sda5/.user/root/src/openwatcom-1.9/bld/ui/unix/linux386/ui.lib(/mnt/sda5/.user/root/src/openwatcom-1.9/bld/ui/c/uivutil.c)
08053fdb       isdialogue_
08053feb       isscreen_
0805401d*      uisetsnow_
Module: /mnt/sda5/.user/root/src/openwatcom-1.9/bld/ui/unix/linux386/ui.lib(/mnt/sda5/.user/root/src/openwatcom-1.9/bld/ui/c/uimenucr.c)
0805402d       uimenucurr_
Module: /mnt/sda5/.user/root/src/openwatcom-1.9/bld/ui/unix/linux386/ui.lib(/mnt/sda5/.user/root/src/openwatcom-1.9/bld/ui/c/uipget.c)
0805402e       saveevent_
08054054       getprime_
0805407c*      uivgetprimevent_
0805407c*      uivgetprime_
080616a8       _Event
Module: /mnt/sda5/.user/root/src/openwatcom-1.9/bld/ui/unix/linux386/ui.lib(/mnt/sda5/.user/root/src/openwatcom-1.9/bld/ui/c/uicheck.c)
080540b8       okarea_
080540e6       oksubarea_
080540f9       okline_
0805411f       okopen_
Module: /mnt/sda5/.user/root/src/openwatcom-1.9/bld/ui/unix/linux386/ui.lib(/mnt/sda5/.user/root/src/openwatcom-1.9/bld/ui/c/uibattr.c)
0805412a       battribute_
08054178       battrflip_
Module: /mnt/sda5/.user/root/src/openwatcom-1.9/bld/ui/unix/linux386/ui.lib(/mnt/sda5/.user/root/src/openwatcom-1.9/bld/ui/c/uivscrn.c)
080541c1       findvscreen_
08054217       uivdirty_
08054225       uivsetactive_
0805423d       uivsetcursor_
Module: /mnt/sda5/.user/root/src/openwatcom-1.9/bld/ui/unix/linux386/ui.lib(/mnt/sda5/.user/root/src/openwatcom-1.9/bld/ui/unix/c/uiget.c)
08054274       uiflush_
08054331       uiget_
08054336*      uieventsource_
Module: /mnt/sda5/.user/root/src/openwatcom-1.9/bld/ui/unix/linux386/ui.lib(/mnt/sda5/.user/root/src/openwatcom-1.9/bld/ui/c/uiprot.c)
08054351       uiunprotect_
08054378       uiprotect_
Module: /mnt/sda5/.user/root/src/openwatcom-1.9/rel2/lib386/linux/clib3r.lib(memset.c)
080543a0       memset_
Module: /mnt/sda5/.user/root/src/openwatcom-1.9/rel2/lib386/linux/clib3r.lib(setbits.c)
080543c0       __setbits_
Module: /mnt/sda5/.user/root/src/openwatcom-1.9/rel2/lib386/linux/clib3r.lib(bits.c)
08054400       __Bits
Module: /mnt/sda5/.user/root/src/openwatcom-1.9/bld/ui/unix/linux386/ui.lib(/mnt/sda5/.user/root/src/openwatcom-1.9/bld/ui/c/uirfrsh.c)
080544a8       uidorefresh_
Module: /mnt/sda5/.user/root/src/openwatcom-1.9/bld/ui/unix/linux386/ui.lib(/mnt/sda5/.user/root/src/openwatcom-1.9/bld/ui/c/uibfake.c)
0805452e       bfake_
Module: /mnt/sda5/.user/root/src/openwatcom-1.9/bld/ui/unix/linux386/ui.lib(/mnt/sda5/.user/root/src/openwatcom-1.9/bld/ui/unix/c/uibmous.c)
0805463c       uisetmouse_
08054663       uimouse_
Module: /mnt/sda5/.user/root/src/openwatcom-1.9/bld/ui/unix/linux386/ui.lib(/mnt/sda5/.user/root/src/openwatcom-1.9/bld/ui/unix/c/uimous.c)
08054693*      uisetmouseposn_
0805469f       checkmouse_
080546ab       stopmouse_
080546b4*      initmouse_
080546bf*      finimouse_
080546c8*      uimousespeed_
Module: /mnt/sda5/.user/root/src/openwatcom-1.9/bld/ui/unix/linux386/ui.lib(/mnt/sda5/.user/root/src/openwatcom-1.9/bld/ui/unix/c/uikeyb.c)
080546d4       flushkey_
080546dd*      uicheckshift_
080546dd*      checkshift_
080546e6*      uishiftrelease_
080546f2       restorekeyb_
080546fb       initkeyboard_
08054703       finikeyboard_
0805470c       savekeyb_
08054715       stopkeyboard_
Module: /mnt/sda5/.user/root/src/openwatcom-1.9/rel2/lib386/linux/clib3r.lib(vsprintf.c)
08054740       vsprintf_
Module: /mnt/sda5/.user/root/src/openwatcom-1.9/rel2/lib386/linux/clib3r.lib(nmemneed.c)
08054760       __nmemneed_
Module: /mnt/sda5/.user/root/src/openwatcom-1.9/rel2/lib386/linux/clib3r.lib(mem.c)
08054770       __MemAllocator
08054820       __MemFree
Module: /mnt/sda5/.user/root/src/openwatcom-1.9/rel2/lib386/linux/clib3r.lib(grownear.c)
080549e0+      __LastFree_
08054a60       __ExpandDGROUP_
Module: /mnt/sda5/.user/root/src/openwatcom-1.9/rel2/lib386/linux/clib3r.lib(nmsize.c)
08054b60       _nmsize_
08054b60*      _msize_
Module: /mnt/sda5/.user/root/src/openwatcom-1.9/rel2/lib386/linux/clib3r.lib(nexpand.c)
08054b70       _nexpand_
08054b70*      _expand_
08054bc0+      __HeapManager_expand_
Module: /mnt/sda5/.user/root/src/openwatcom-1.9/rel2/lib386/linux/clib3r.lib(__lseek.c)
08054d90       __lseek_
Module: /mnt/sda5/.user/root/src/openwatcom-1.9/rel2/lib386/linux/clib3r.lib(errno.c)
08054dc0       __get_errno_ptr_
080616b0+      _errno
Module: /mnt/sda5/.user/root/src/openwatcom-1.9/rel2/lib386/linux/clib3r.lib(sys_open.c)
08054dd0       sys_open_
Module: /mnt/sda5/.user/root/src/openwatcom-1.9/rel2/lib386/linux/clib3r.lib(seterrno.c)
08054dfb       __set_errno_
08054e07*      __set_EDOM_
08054e13*      __set_ERANGE_
08054e1f*      __set_EINVAL_
Module: /mnt/sda5/.user/root/src/openwatcom-1.9/rel2/lib386/linux/clib3r.lib(strlen.c)
08054e30       strlen_
Module: /mnt/sda5/.user/root/src/openwatcom-1.9/rel2/lib386/linux/clib3r.lib(strncat.c)
08054e50       strncat_
Module: /mnt/sda5/.user/root/src/openwatcom-1.9/rel2/lib386/linux/clib3r.lib(strcat.c)
08054e90       strcat_
Module: /mnt/sda5/.user/root/src/openwatcom-1.9/bld/ui/unix/linux386/ui.lib(/mnt/sda5/.user/root/src/openwatcom-1.9/bld/ui/c/uimisc.c)
08054ebf       uisetscreenarea_
08054efb       uisetarea_
08054f47       uiposition_
08054fa1       uiopen_
08054fde       uiclose_
08054fef       uicntrtext_
08055033       uinocursor_
0805503b*      uicursor_
Module: /mnt/sda5/.user/root/src/openwatcom-1.9/rel2/lib386/linux/clib3r.lib(calloc.c)
08055050       calloc_
Module: /mnt/sda5/.user/root/src/openwatcom-1.9/bld/ui/unix/linux386/ui.lib(/mnt/sda5/.user/root/src/openwatcom-1.9/bld/ui/c/uiledit.c)
080550c9       uiedittrim_
080550db*      uieditmarking_
0805510f       uibegedit_
08055223       uieditpushlist_
08055237       uieditpoplist_
0805528d       uiledit_
08055381*      uieditinsert_
080553fd       uiendedit_
08055445       uieditisdirty_
0805546c*      uieditautoclear_
08055481*      uieditcursor_
08055492*      uieditdirty_
0805549c*      uieditclean_
08060958+      _UIEdit
Module: /mnt/sda5/.user/root/src/openwatcom-1.9/bld/ui/unix/linux386/ui.lib(/mnt/sda5/.user/root/src/openwatcom-1.9/bld/ui/c/uidchfld.c)
080554a6       uidialogchangefield_
Module: /mnt/sda5/.user/root/src/openwatcom-1.9/bld/ui/unix/linux386/ui.lib(/mnt/sda5/.user/root/src/openwatcom-1.9/bld/ui/c/uidevent.c)
080554a7       uidialogevent_
Module: /mnt/sda5/.user/root/src/openwatcom-1.9/rel2/lib386/linux/clib3r.lib(initfile.c)
080554e0       __InitFiles_
Module: /mnt/sda5/.user/root/src/openwatcom-1.9/rel2/lib386/linux/clib3r.lib(ioexit.c)
080555e0*      fcloseall_
080555f0       __full_io_exit_
Module: /mnt/sda5/.user/root/src/openwatcom-1.9/rel2/lib386/linux/clib3r.lib(fputc.c)
08055600       fputc_
Module: /mnt/sda5/.user/root/src/openwatcom-1.9/rel2/lib386/linux/clib3r.lib(ioalloc.c)
08055690       __ioalloc_
Module: /mnt/sda5/.user/root/src/openwatcom-1.9/rel2/lib386/linux/clib3r.lib(prtf.c)
08055730       __prtf_
Module: /mnt/sda5/.user/root/src/openwatcom-1.9/rel2/lib386/linux/clib3r.lib(flush.c)
08056250       __flush_
Module: /mnt/sda5/.user/root/src/openwatcom-1.9/rel2/lib386/linux/clib3r.lib(fopen.c)
08056320+      __open_flags_
080564c0+      _fsopen_
08056510       fopen_
08056590*      freopen_
Module: /mnt/sda5/.user/root/src/openwatcom-1.9/rel2/lib386/linux/clib3r.lib(fcntl.c)
080565f0       fcntl_
Module: /mnt/sda5/.user/root/src/openwatcom-1.9/bld/ncurses/linux386/ncurses.lib(/mnt/sda5/.user/root/src/openwatcom-1.9/bld/ncurses/c/lib_setu.c)
08056760*      use_env_
080569a0       setupterm_
08060978+      _LINES
0806097c+      _COLS
08060980+      _TABSIZE
08060984+      _ttytype
Module: /mnt/sda5/.user/root/src/openwatcom-1.9/bld/ncurses/linux386/ncurses.lib(/mnt/sda5/.user/root/src/openwatcom-1.9/bld/ncurses/c/lib_cur_.c)
08056d00       set_curterm_
08056d50       del_curterm_
08060a84       _cur_term
Module: /mnt/sda5/.user/root/src/openwatcom-1.9/bld/ui/unix/linux386/ui.lib(/mnt/sda5/.user/root/src/openwatcom-1.9/bld/ui/unix/c/uivirt.c)
08060a88       _DisplayList
Module: /mnt/sda5/.user/root/src/openwatcom-1.9/bld/ui/unix/linux386/ui.lib(/mnt/sda5/.user/root/src/openwatcom-1.9/bld/ui/unix/c/uisnow.c)
08056d7f*      vertretrace_
08056d80       issnow_
Module: /mnt/sda5/.user/root/src/openwatcom-1.9/bld/ui/unix/linux386/ui.lib(/mnt/sda5/.user/root/src/openwatcom-1.9/bld/ui/c/uifar.c)
08056d91       _farfill
08056dad       _farcopy
08056dc4       _farstring
08056e0a       _farattrib
08056e26       _farattrflip
Module: /mnt/sda5/.user/root/src/openwatcom-1.9/bld/ui/unix/linux386/ui.lib(/mnt/sda5/.user/root/src/openwatcom-1.9/bld/ui/c/uiarea.c)
08056e42       dividearea_
Module: /mnt/sda5/.user/root/src/openwatcom-1.9/bld/ui/unix/linux386/ui.lib(/mnt/sda5/.user/root/src/openwatcom-1.9/bld/ui/c/uimem.c)
08056ff6       faralloc_
08056ffb       farfree_
Module: /mnt/sda5/.user/root/src/openwatcom-1.9/rel2/lib386/linux/clib3r.lib(dosseg)
00001234       __DOSseg__
Module: /mnt/sda5/.user/root/src/openwatcom-1.9/rel2/lib386/linux/clib3r.lib(sys_brk.c)
08057000       sys_brk_
Module: /mnt/sda5/.user/root/src/openwatcom-1.9/rel2/lib386/linux/clib3r.lib(setenvp.c)
08057020       __setenvp_
Module: /mnt/sda5/.user/root/src/openwatcom-1.9/rel2/lib386/linux/clib3r.lib(mainlnx.c)
08060aa8+      ___FirstThreadData
08060aac+      ___GetThreadPtr
08060ab0*      __AccessFileH
08060ab4*      __ReleaseFileH
08060ab8*      __AccessIOB
08060abc*      __ReleaseIOB
08060ac0*      __AccessNHeap
08060ac4*      __AccessFHeap
08060ac8*      __ReleaseNHeap
08060acc*      __ReleaseFHeap
08057090*      __threadid_
080570c0*      __LinuxInit_
080570d0       __exit_
08060ad0*      __AccessTDList
08060ad4*      __ReleaseTDList
Module: /mnt/sda5/.user/root/src/openwatcom-1.9/bld/ui/unix/linux386/ui.lib(/mnt/sda5/.user/root/src/openwatcom-1.9/bld/ui/c/uibpix.c)
080570e5       bpixel_
Module: /mnt/sda5/.user/root/src/openwatcom-1.9/rel2/lib386/linux/clib3r.lib(toupper.c)
08057120       toupper_
Module: /mnt/sda5/.user/root/src/openwatcom-1.9/bld/ui/unix/linux386/ui.lib(/mnt/sda5/.user/root/src/openwatcom-1.9/bld/ui/c/uiev.c)
0805712e       uidoneevent_
0805712e       uistartevent_
Module: /mnt/sda5/.user/root/src/openwatcom-1.9/bld/ui/unix/linux386/ui.lib(/mnt/sda5/.user/root/src/openwatcom-1.9/bld/ui/c/uibarf.c)
0805712f       uibarf_
Module: /mnt/sda5/.user/root/src/openwatcom-1.9/bld/ui/unix/linux386/ui.lib(/mnt/sda5/.user/root/src/openwatcom-1.9/bld/ui/unix/c/kbwait.c)
08057130       kb_wait_
Module: /mnt/sda5/.user/root/src/openwatcom-1.9/bld/ui/unix/linux386/ui.lib(/mnt/sda5/.user/root/src/openwatcom-1.9/bld/ui/unix/c/tdisp.c)
08060ad8       _UserForcedTermRefresh
08060ae5+      _OldCol
08060ae9+      _OldRow
08057240       TInfCheck_
080575f0+      TI_CURSOR_MOVE_
08058317+      initmonitor_
080587d8+      update_shadow_
08059043+      td_event_
08060ba7       _TInfDisplay
Module: /mnt/sda5/.user/root/src/openwatcom-1.9/bld/ui/unix/linux386/ui.lib(/mnt/sda5/.user/root/src/openwatcom-1.9/bld/ui/unix/c/uihook.c)
08059068       uieventsourcehook_
Module: /mnt/sda5/.user/root/src/openwatcom-1.9/rel2/lib386/linux/clib3r.lib(__stos)
08059070       __STOSB
080590a7*      __STOSD
Module: /mnt/sda5/.user/root/src/openwatcom-1.9/rel2/lib386/linux/clib3r.lib(heapen.c)
08059120*      _heapenable_
08060bc4       ___heap_enabled
Module: /mnt/sda5/.user/root/src/openwatcom-1.9/bld/ui/unix/linux386/ui.lib(/mnt/sda5/.user/root/src/openwatcom-1.9/bld/ui/c/uivline.c)
0805925d       uiveditevent_
080593e9*      uiveditline_
0805940f       uiveditinit_
0805945b       uiveditfini_
08060bc8       _LineEvents
Module: /mnt/sda5/.user/root/src/openwatcom-1.9/rel2/lib386/linux/clib3r.lib(memmove.c)
08059460       memmove_
Module: /mnt/sda5/.user/root/src/openwatcom-1.9/rel2/lib386/linux/clib3r.lib(xmsglnx.c)
080594c0+      __exit_with_msg_
08059510       __fatal_runtime_error_
Module: /mnt/sda5/.user/root/src/openwatcom-1.9/rel2/lib386/linux/clib3r.lib(fclose.c)
08059530       __doclose_
080595a0       __shutdown_stream_
080595c0       fclose_
Module: /mnt/sda5/.user/root/src/openwatcom-1.9/rel2/lib386/linux/clib3r.lib(freefp.c)
080595f0       __freefp_
08059630       __purgefp_
Module: /mnt/sda5/.user/root/src/openwatcom-1.9/rel2/lib386/linux/clib3r.lib(chktty.c)
08059660       __chktty_
Module: /mnt/sda5/.user/root/src/openwatcom-1.9/rel2/lib386/linux/clib3r.lib(itoa.c)
08059690+      utoa_
080596e0       itoa_
Module: /mnt/sda5/.user/root/src/openwatcom-1.9/rel2/lib386/linux/clib3r.lib(strupr.c)
08059710       strupr_
Module: /mnt/sda5/.user/root/src/openwatcom-1.9/rel2/lib386/linux/clib3r.lib(noefgfmt.c)
08060bf4       ___EFG_printf
08060bf8*      ___EFG_scanf
Module: /mnt/sda5/.user/root/src/openwatcom-1.9/rel2/lib386/linux/clib3r.lib(lltoa.c)
08059780       ulltoa_
080597f0*      lltoa_
Module: /mnt/sda5/.user/root/src/openwatcom-1.9/rel2/lib386/linux/clib3r.lib(ltoa.c)
08059820       ultoa_
08059870*      ltoa_
Module: /mnt/sda5/.user/root/src/openwatcom-1.9/rel2/lib386/linux/clib3r.lib(qwritunx.c)
080598a0       __qwrite_
Module: /mnt/sda5/.user/root/src/openwatcom-1.9/rel2/lib386/linux/clib3r.lib(fsync.c)
080598f0       fsync_
Module: /mnt/sda5/.user/root/src/openwatcom-1.9/rel2/lib386/linux/clib3r.lib(comtflag.c)
08059920*      __set_commode_
08060bfc       __commode
Module: /mnt/sda5/.user/root/src/openwatcom-1.9/rel2/lib386/linux/clib3r.lib(fseek.c)
08059980       fseek_
Module: /mnt/sda5/.user/root/src/openwatcom-1.9/rel2/lib386/linux/clib3r.lib(allocfp.c)
08059a80       __allocfp_
Module: /mnt/sda5/.user/root/src/openwatcom-1.9/bld/ncurses/linux386/ncurses.lib(/mnt/sda5/.user/root/src/openwatcom-1.9/bld/ncurses/c/getenv_n.c)
08059b40       _nc_getenv_num_
Module: /mnt/sda5/.user/root/src/openwatcom-1.9/rel2/lib386/linux/clib3r.lib(isattlnx.c)
08059b90       isatty_
Module: /mnt/sda5/.user/root/src/openwatcom-1.9/rel2/lib386/linux/clib3r.lib(ioctl.c)
08059bd0       ioctl_
Module: /mnt/sda5/.user/root/src/openwatcom-1.9/bld/ncurses/linux386/ncurses.lib(/mnt/sda5/.user/root/src/openwatcom-1.9/bld/ncurses/c/read_ent.c)
08059c50*      _nc_tic_dir_
08059c90*      _nc_keep_tic_dir_
0805a530+      _nc_read_file_entry_
0805a640       _nc_read_entry_
Module: /mnt/sda5/.user/root/src/openwatcom-1.9/rel2/lib386/linux/clib3r.lib(fprintf.c)
0805a700       fprintf_
Module: /mnt/sda5/.user/root/src/openwatcom-1.9/bld/ncurses/linux386/ncurses.lib(/mnt/sda5/.user/root/src/openwatcom-1.9/bld/ncurses/c/fallback.c)
0805a730       _nc_fallback_
Module: /mnt/sda5/.user/root/src/openwatcom-1.9/bld/ncurses/linux386/ncurses.lib(/mnt/sda5/.user/root/src/openwatcom-1.9/bld/ncurses/c/lib_ttyf.c)
0805a740+      _nc_get_tty_mode_
0805a790*      def_shell_mode_
0805a7b0       def_prog_mode_
0805a7d0*      reset_prog_mode_
0805a7f0*      reset_shell_mode_
0805a810*      savetty_
0805a820*      resetty_
0805a830+      _nc_set_tty_mode_
Module: /mnt/sda5/.user/root/src/openwatcom-1.9/bld/ncurses/linux386/ncurses.lib(/mnt/sda5/.user/root/src/openwatcom-1.9/bld/ncurses/c/lib_baud.c)
0805a900       _nc_baudrate_
0805a960       _nc_ospeed_
0805a9a0       baudrate_
Module: /mnt/sda5/.user/root/src/openwatcom-1.9/bld/ncurses/linux386/ncurses.lib(/mnt/sda5/.user/root/src/openwatcom-1.9/bld/ncurses/c/lib_tput.c)
08060c08       _PC
08060c0a       _ospeed
08060c0c+      __nc_nulls_sent
0805a9e0+      delay_output_
0805aa60*      _nc_flush_
0805aa70*      putp_
0805aa90       tputs_
Module: /mnt/sda5/.user/root/src/openwatcom-1.9/bld/ncurses/linux386/ncurses.lib(/mnt/sda5/.user/root/src/openwatcom-1.9/bld/ncurses/c/free_tty.c)
0805ac50       _nc_free_termtype_
0805acd0*      use_extended_names_
08060c14       __nc_user_definable
Module: /mnt/sda5/.user/root/src/openwatcom-1.9/bld/ui/unix/linux386/ui.lib(/mnt/sda5/.user/root/src/openwatcom-1.9/bld/ui/unix/c/ctkeyb2.c)
0805ace2+      ck_stop_
0805ace2+      ck_unevent_
0805ace5+      ck_flush_
0805acf6       ck_shift_state_
0805ad4c+      ck_restore_
0805ada4+      ck_init_
0805adf6+      ck_fini_
0805ae10+      ck_save_
08060c18       _ConsKeyboard
Module: /mnt/sda5/.user/root/src/openwatcom-1.9/bld/ui/unix/linux386/ui.lib(/mnt/sda5/.user/root/src/openwatcom-1.9/bld/ui/unix/c/tmouse.c)
0805b2fa       tm_saveevent_
08060c3c       _UIMouseHandle
08060c48       _TermMouse
Module: /mnt/sda5/.user/root/src/openwatcom-1.9/bld/ui/unix/linux386/ui.lib(/mnt/sda5/.user/root/src/openwatcom-1.9/bld/ui/c/uifmem.c)
0805b37e       uifaralloc_
0805b386       uifarfree_
Module: /mnt/sda5/.user/root/src/openwatcom-1.9/rel2/lib386/linux/clib3r.lib(mthrdini.c)
0805b390       __InitThreadData_
08060c5c*      ___ThreadDataSize
Module: /mnt/sda5/.user/root/src/openwatcom-1.9/rel2/lib386/linux/clib3r.lib(sys_exit.c)
0805b3a0       sys_exit_
Module: /mnt/sda5/.user/root/src/openwatcom-1.9/rel2/lib386/linux/clib3r.lib(select.c)
0805b3b0       select_
Module: /mnt/sda5/.user/root/src/openwatcom-1.9/bld/ncurses/linux386/ncurses.lib(/mnt/sda5/.user/root/src/openwatcom-1.9/bld/ncurses/c/lib_tpar.c)
08060c60+      __nc_tparm_err
0805c240       tparm_
Module: /mnt/sda5/.user/root/src/openwatcom-1.9/bld/ui/unix/linux386/ui.lib(/mnt/sda5/.user/root/src/openwatcom-1.9/bld/ui/unix/c/tixparse.c)
0805c3e4+      tix_error_
0805c480       ti_fopen_
0805c555+      init_tix_scanner_
0805c628*      close_tix_scanner_
0805cbfe       ti_read_tix_
08061928       __ti_alt_map
08061948       _ti_char_map
Module: /mnt/sda5/.user/root/src/openwatcom-1.9/rel2/lib386/linux/clib3r.lib(fgetc.c)
0805ce80+      __fill_buffer_
0805cf30       fgetc_
Module: /mnt/sda5/.user/root/src/openwatcom-1.9/rel2/lib386/linux/clib3r.lib(stack386.c)
0805cfa0       stackavail_
Module: /mnt/sda5/.user/root/src/openwatcom-1.9/rel2/lib386/linux/clib3r.lib(splunx.c)
0805cfb0       spawnl_
Module: /mnt/sda5/.user/root/src/openwatcom-1.9/rel2/lib386/linux/clib3r.lib(splpunx.c)
0805cfd0       spawnlp_
Module: /mnt/sda5/.user/root/src/openwatcom-1.9/rel2/lib386/linux/clib3r.lib(fflush.c)
0805cff0       fflush_
Module: /mnt/sda5/.user/root/src/openwatcom-1.9/rel2/lib386/linux/clib3r.lib(sigact.c)
0805d000       sigaction_
Module: /mnt/sda5/.user/root/src/openwatcom-1.9/rel2/lib386/linux/clib3r.lib(_istrcc_.asm)
0805d034       strcasecmp_
Module: /mnt/sda5/.user/root/src/openwatcom-1.9/rel2/lib386/linux/clib3r.lib(fputs.c)
0805d040       fputs_
Module: /mnt/sda5/.user/root/src/openwatcom-1.9/bld/ui/unix/linux386/ui.lib(/mnt/sda5/.user/root/src/openwatcom-1.9/bld/ui/unix/c/ctkeyb.c)
0805d4cf+      init_interminfo_
0805dae6*      clear_shift_
0805daee       ck_arm_
0805daef       nextc_
0805db73       nextc_unget_
0805db93+      find_entry_
0805db98+      ck_keyboardevent_
0805de2f       tk_keyboardevent_
0805de44       init_trie_
08061d68+      _InTerminfo
08061fb8       _ShftState
Module: /mnt/sda5/.user/root/src/openwatcom-1.9/bld/ui/unix/linux386/ui.lib(/mnt/sda5/.user/root/src/openwatcom-1.9/bld/ui/c/uipad.c)
0805df51       uipadblanks_
Module: /mnt/sda5/.user/root/src/openwatcom-1.9/bld/ui/unix/linux386/ui.lib(/mnt/sda5/.user/root/src/openwatcom-1.9/bld/ui/c/uivedit.c)
0805dfbe+      secondbyte_
0805dfd9       uieditevent_
Module: /mnt/sda5/.user/root/src/openwatcom-1.9/rel2/lib386/linux/clib3r.lib(enterdb.c)
0805e3a0       __EnterWVIDEO_
08060d38+      ___WD_Present
Module: /mnt/sda5/.user/root/src/openwatcom-1.9/rel2/lib386/linux/clib3r.lib(alphabet.c)
08060004       ___Alphabet
Module: /mnt/sda5/.user/root/src/openwatcom-1.9/rel2/lib386/linux/clib3r.lib(strtol.c)
0805e5f0       strtoul_
0805e600       strtol_
Module: /mnt/sda5/.user/root/src/openwatcom-1.9/rel2/lib386/linux/clib3r.lib(tcgattr.c)
0805e610       tcgetattr_
Module: /mnt/sda5/.user/root/src/openwatcom-1.9/bld/ncurses/linux386/ncurses.lib(/mnt/sda5/.user/root/src/openwatcom-1.9/bld/ncurses/c/doalloc.c)
0805e620       _nc_doalloc_
Module: /mnt/sda5/.user/root/src/openwatcom-1.9/bld/ncurses/linux386/ncurses.lib(/mnt/sda5/.user/root/src/openwatcom-1.9/bld/ncurses/c/access.c)
0805e670+      _nc_basename_
0805e670*      _nc_rootname_
0805e690       _nc_access_
Module: /mnt/sda5/.user/root/src/openwatcom-1.9/rel2/lib386/linux/clib3r.lib(_icstrdu.asm)
0805e750       strdup_
Module: /mnt/sda5/.user/root/src/openwatcom-1.9/bld/ncurses/linux386/ncurses.lib(/mnt/sda5/.user/root/src/openwatcom-1.9/bld/ncurses/c/home_ter.c)
0805e780       _nc_home_terminfo_
Module: /mnt/sda5/.user/root/src/openwatcom-1.9/rel2/lib386/linux/clib3r.lib(tcsattr.c)
0805e810       tcsetattr_
Module: /mnt/sda5/.user/root/src/openwatcom-1.9/rel2/lib386/linux/clib3r.lib(cfgtospd.c)
0805e860       cfgetospeed_
Module: /mnt/sda5/.user/root/src/openwatcom-1.9/rel2/lib386/linux/clib3r.lib(putchar.c)
0805e870       putchar_
Module: /mnt/sda5/.user/root/src/openwatcom-1.9/bld/ncurses/linux386/ncurses.lib(/mnt/sda5/.user/root/src/openwatcom-1.9/bld/ncurses/c/lib_napm.c)
0805e8f0       napms_
Module: /mnt/sda5/.user/root/src/openwatcom-1.9/rel2/lib386/linux/clib3r.lib(tcflush.c)
0805e930       tcflush_
Module: /mnt/sda5/.user/root/src/openwatcom-1.9/rel2/lib386/linux/clib3r.lib(tcgtpgrp.c)
0805e940       tcgetpgrp_
Module: /mnt/sda5/.user/root/src/openwatcom-1.9/rel2/lib386/linux/clib3r.lib(tcstpgrp.c)
0805e970       tcsetpgrp_
Module: /mnt/sda5/.user/root/src/openwatcom-1.9/rel2/lib386/linux/clib3r.lib(time.c)
0805e990       time_
Module: /mnt/sda5/.user/root/src/openwatcom-1.9/bld/ui/unix/linux386/ui.lib(/mnt/sda5/.user/root/src/openwatcom-1.9/bld/ui/unix/c/trie.c)
0805e9ba       TrieInit_
0805ea1d       TrieFini_
0805ea7e       TrieAdd_
0805ebb6       TrieRead_
08060dcc+      _KeyTrieDepth
Module: /mnt/sda5/.user/root/src/openwatcom-1.9/rel2/lib386/linux/clib3r.lib(socket.c)
0805ec90       socket_
Module: /mnt/sda5/.user/root/src/openwatcom-1.9/rel2/lib386/linux/clib3r.lib(connect.c)
0805ecb0       connect_
Module: /mnt/sda5/.user/root/src/openwatcom-1.9/rel2/lib386/linux/clib3r.lib(getpid.c)
0805ecd0       getpid_
Module: /mnt/sda5/.user/root/src/openwatcom-1.9/rel2/lib386/linux/clib3r.lib(readlink.c)
0805ed00       readlink_
Module: /mnt/sda5/.user/root/src/openwatcom-1.9/rel2/lib386/linux/clib3r.lib(strstr.c)
0805ed30       strstr_
Module: /mnt/sda5/.user/root/src/openwatcom-1.9/bld/ncurses/linux386/ncurses.lib(/mnt/sda5/.user/root/src/openwatcom-1.9/bld/ncurses/c/comp_err.c)
0805ee10*      _nc_set_source_
0805ee20*      _nc_set_type_
0805ee70*      _nc_get_type_
0805ef50*      _nc_warning_
0805efa0       _nc_err_abort_
0805eff0*      _nc_syserr_abort_
08060dd0+      __nc_suppress_warnings
08060dd4+      __nc_curr_line
08060dd8+      __nc_curr_col
Module: /mnt/sda5/.user/root/src/openwatcom-1.9/bld/ui/unix/linux386/ui.lib(/mnt/sda5/.user/root/src/openwatcom-1.9/bld/ui/unix/c/tixsupp.c)
0805f038*      ui_tix_missing_
08060ddc       _ui_tix_path
Module: /mnt/sda5/.user/root/src/openwatcom-1.9/rel2/lib386/linux/clib3r.lib(ungetc.c)
0805f040       ungetc_
Module: /mnt/sda5/.user/root/src/openwatcom-1.9/rel2/lib386/linux/clib3r.lib(wctomb.c)
0805f100       wctomb_
Module: /mnt/sda5/.user/root/src/openwatcom-1.9/rel2/lib386/linux/clib3r.lib(flushall.c)
0805f130       __flushall_
0805f170       flushall_
Module: /mnt/sda5/.user/root/src/openwatcom-1.9/rel2/lib386/linux/clib3r.lib(qreadunx.c)
0805f180       __qread_
Module: /mnt/sda5/.user/root/src/openwatcom-1.9/rel2/lib386/linux/clib3r.lib(spvelnx.c)
0805f1d0       spawnve_
08060dec+      ___p_overlay
Module: /mnt/sda5/.user/root/src/openwatcom-1.9/rel2/lib386/linux/clib3r.lib(spvpeunx.c)
0805f390       spawnvpe_
Module: /mnt/sda5/.user/root/src/openwatcom-1.9/rel2/lib386/linux/clib3r.lib(bsearch.c)
0805f520       bsearch_
Module: /mnt/sda5/.user/root/src/openwatcom-1.9/bld/ui/unix/linux386/ui.lib(/mnt/sda5/.user/root/src/openwatcom-1.9/bld/ui/c/uichlen.c)
0805f595       uicharlen_
0805f59b*      uionnec_
0805f59b*      uiisdbcs_
Module: /mnt/sda5/.user/root/src/openwatcom-1.9/rel2/lib386/linux/clib3r.lib(strrchr.c)
0805f5a0       strrchr_
Module: /mnt/sda5/.user/root/src/openwatcom-1.9/rel2/lib386/linux/clib3r.lib(strdup.c)
0805f5c0       __clib_strdup_
Module: /mnt/sda5/.user/root/src/openwatcom-1.9/rel2/lib386/linux/clib3r.lib(nanoslp.c)
0805f600       nanosleep_
Module: /mnt/sda5/.user/root/src/openwatcom-1.9/rel2/lib386/linux/clib3r.lib(sockcall.c)
0805f630       __socketcall_
Module: /mnt/sda5/.user/root/src/openwatcom-1.9/rel2/lib386/linux/clib3r.lib(vfprintf.c)
0805f660       vfprintf_
Module: /mnt/sda5/.user/root/src/openwatcom-1.9/rel2/lib386/linux/clib3r.lib(pipe.c)
0805f670       pipe_
Module: /mnt/sda5/.user/root/src/openwatcom-1.9/rel2/lib386/linux/clib3r.lib(execve.c)
0805f6a0       execve_
Module: /mnt/sda5/.user/root/src/openwatcom-1.9/rel2/lib386/linux/clib3r.lib(fork.c)
0805f6d0       fork_
Module: /mnt/sda5/.user/root/src/openwatcom-1.9/rel2/lib386/linux/clib3r.lib(waitpid.c)
0805f700       waitpid_
Module: /mnt/sda5/.user/root/src/openwatcom-1.9/rel2/lib386/linux/clib3r.lib(strcpy.c)
0805f730       strcpy_


                        +--------------------+
                        |   Libraries Used   |
                        +--------------------+

/mnt/sda5/.user/root/src/openwatcom-1.9/bld/ui/unix/linux386/ui.lib
/mnt/sda5/.user/root/src/openwatcom-1.9/bld/ncurses/linux386/ncurses.lib
/mnt/sda5/.user/root/src/openwatcom-1.9/rel2/lib386/linux/clib3r.lib


                        +-----------------------+
                        |   Linker Statistics   |
                        +-----------------------+

Stack size:  1000 (4096.)
Memory size:  0001962b (103979.)
Entry point address: 0804c8e8
Link time: 00:00.00
