Open Watcom Linker Version 1.9
Portions Copyright (c) 1985-2002 Sybase, Inc. All Rights Reserved.
Created on:       12/12/16 02:11:20
Executable Image: dumpmac.exe
creating a DOS executable


                        +------------+
                        |   Groups   |
                        +------------+

Group                           Address              Size
=====                           =======              ====

DGROUP                          092f:0000            00002580



                        +--------------+
                        |   Segments   |
                        +--------------+

Segment                Class          Group          Address         Size
=======                =====          =====          =======         ====

dumpmac_TEXT           CODE           AUTO           0000:0000       00000160
preproc_TEXT           CODE           AUTO           0000:0160       00001b5d
ppexpr_TEXT            CODE           AUTO           0000:1cc0       00000d55
ppmacro_TEXT           CODE           AUTO           0000:2a20       00001581
ppmem_TEXT             CODE           AUTO           0000:3fb0       00000041
_TEXT                  CODE           AUTO           0000:4000       000052e1
FAR_DATA               FAR_DATA       AUTO           092e:0001       00000000
_NULL                  BEGDATA        DGROUP         092f:0000       00000020
_AFTERNULL             BEGDATA        DGROUP         0931:0000       00000002
CONST                  DATA           DGROUP         0931:0002       0000027a
CONST2                 DATA           DGROUP         0958:000c       00000102
_DATA                  DATA           DGROUP         0969:0000       000003ac
XIB                    DATA           DGROUP         09a3:000c       00000000
XI                     DATA           DGROUP         09a3:000c       0000001e
XIE                    DATA           DGROUP         09a5:000a       00000000
YIB                    DATA           DGROUP         09a5:000a       00000000
YI                     DATA           DGROUP         09a5:000a       00000018
YIE                    DATA           DGROUP         09a7:0002       00000000
STRINGS                DATA           DGROUP         09a7:0002       00000000
DATA                   DATA           DGROUP         09a7:0002       00000000
_BSS                   BSS            DGROUP         09a8:0000       000015ea
STACK                  STACK          DGROUP         0b07:0000       00000800


                        +----------------+
                        |   Memory Map   |
                        +----------------+

* = unreferenced symbol
+ = symbol only referenced locally

Address        Symbol
=======        ======

Module: dumpmac.obj(/mnt/sda5/.user/root/src/openwatcom-1.9/bld/cpp/dumpmac.c)
0000:0000*     dumpheap_
0000:0002+     PP_Dump_Macros_
0000:00d8      main_
Module: preproc.obj(/mnt/sda5/.user/root/src/openwatcom-1.9/bld/cpp/preproc.c)
092f:0890+     _PPStack
092f:0894      _PPTokenList
092f:0898      _PPCurToken
092f:089c+     _PPIncludePath
092f:08a0      _PPHashTable
092f:0bec      _PPCharPtr
092f:0bf0+     _PP_CallBack
092f:0bf4+     _PPBufPtr
092f:0bf8      _PPTokenPtr
092f:0bfc      _PP_File
092f:0c00+     _PPLineBuf
092f:1c02+     _NestLevel
092f:1c04      _PPFlags
092f:1c06+     _SkipLevel
092f:03a0      _PP__DATE__
092f:03ae      _PP__TIME__
092f:03b9      _PreProcChar
0000:01b2+     isAbsPath_
0000:01d6+     PP_Open_
0000:02ae+     PP_FindInclude_
0000:0354+     PP_OpenInclude_
0000:067c+     PP_SetLeadBytes_
0000:06a2      PP_Init_
0000:06ba+     PP_Init2_
0000:07ce*     PP_Dependency_List_
0000:0854      PP_Fini_
0000:08ac+     PP_ReadBuf_
0000:0908+     PP_ReadLine_
0000:0a4a+     PP_Hash_
0000:0a88      PP_Class_
0000:0ab0      PP_ScanName_
0000:0ada+     PP_Include_
0000:0b98+     PP_RCInclude_
0000:0c46+     PP_AddMacro_
0000:0cf2+     PP_SkipSpace_
0000:0d38+     PP_SkipComment_
0000:0dc4      PP_SkipWhiteSpace_
0000:0e2c+     PP_Define_
0000:1038      PP_MacroLookup_
0000:10b0      PP_ScanMacroLookup_
0000:115c+     PP_Undef_
0000:1176*     PP_Ifdef_
0000:1190*     PP_Ifndef_
0000:11aa+     PPConstExpr_
0000:11de+     PP_If_
0000:1210+     PP_Elif_
0000:128e+     PP_Else_
0000:12e4+     PP_Endif_
0000:1328+     PP_Sharp_
0000:166c+     PP_Read_
0000:16fc+     PPScanLiteral_
0000:173a+     PPScanDigits_
0000:1756+     PPScanSuffix_
0000:1776+     PPScanHexNumber_
0000:17c2+     PPScanNumber_
0000:1816+     PPScanOther_
0000:187e      PP_ScanToken_
0000:1a68      PP_ScanNextToken_
0000:1ac8      PP_Char_
0000:1c1a*     PreprocVarInit_
092f:1c08      _PPLineNumber
092f:1c0a      _PPSavedChar
Module: ppexpr.obj(/mnt/sda5/.user/root/src/openwatcom-1.9/bld/cpp/ppexpr.c)
0000:1cc0      PPEvalExpr_
0000:1d1a      PP_ConstExpr_
0000:1d9e+     PP_Expr1_
0000:1dec+     PP_Expr2_
0000:1e3a+     PP_Expr3_
0000:1e86+     PP_Expr4_
0000:1ecc+     PP_Expr5_
0000:1f18+     PP_Expr6_
0000:1fc4+     PP_Expr7_
0000:2142+     PP_Expr8_
0000:21dc+     PP_Expr9_
0000:2250+     PP_Expr10_
0000:2346+     PP_Expr11_
0000:2482+     PP_AdvanceToken_
0000:2524+     PP_HexNumber_
0000:2582+     PP_CharConst_
0000:26fc+     PP_Constant_
0000:282a+     PP_Identifier_
Module: ppmacro.obj(/mnt/sda5/.user/root/src/openwatcom-1.9/bld/cpp/ppmacro.c)
0000:2a20+     FreeTokenList_
0000:2a52      DeleteNestedMacro_
0000:2b16      PPNextToken_
0000:2b74      NextMToken_
0000:2c3a+     PPTrimWhiteSpace_
0000:2caa+     PPCollectParms_
0000:2eb6*     DumpMTokens_
0000:2ef8*     DumpNestedMacros_
0000:2f48+     TokLength_
0000:2f60+     BuildAToken_
0000:2f9a+     AppendToken_
0000:3000+     Expandable_
0000:30da+     MacroBeingExpanded_
0000:312c+     ExpandNestedMacros_
0000:34ba+     Glue2Tokens_
0000:35c2+     GlueTokens_
0000:36fa+     BuildMTokenList_
0000:38f0+     DuplicateList_
0000:397e+     MakeString_
0000:3a10+     BuildString_
0000:3a9c+     SubstituteParms_
0000:3cea+     BuildSpecialToken_
0000:3daa+     MacroExpansion_
0000:3f62*     NestedMacroExpansion_
0000:3f72      DoMacroExpansion_
0000:3f92*     PPMacroVarInit_
092f:1c10+     _NestedMacros
092f:1c14+     _MacroDepth
Module: ppmem.obj(/mnt/sda5/.user/root/src/openwatcom-1.9/bld/cpp/ppmem.c)
0000:3fb0      PP_Malloc_
0000:3fd6      PP_Free_
0000:3fdc      PP_OutOfMemory_
Module: /mnt/sda5/.user/root/src/openwatcom-1.9/rel2/lib286/dos/clibl.lib(printf.c)
0000:4000      printf_
Module: /mnt/sda5/.user/root/src/openwatcom-1.9/rel2/lib286/dos/clibl.lib(exit.c)
0000:402f+     __null_int23_exit_
0000:4030      exit_
0000:4061*     _exit_
092f:03ec+     ___int23_exit
092f:03f0+     ___FPE_handler_exit
Module: /mnt/sda5/.user/root/src/openwatcom-1.9/rel2/lib286/dos/clibl.lib(cstart)
092f:0000*     __nullarea
092f:03f4*     __ovlflag
092f:03f5*     __intno
092f:03f6*     __ovlvec
0000:407a      _cstart_
0000:414d*     _Not_Enough_Memory_
0000:4281      __exit_
0000:42a0      __do_exit_with_msg__
0000:42fe      __GETDS
Module: /mnt/sda5/.user/root/src/openwatcom-1.9/rel2/lib286/dos/clibl.lib(cmodel)
0000:4308      _big_code_
0000:4308*     CodeModelMismatch
Module: /mnt/sda5/.user/root/src/openwatcom-1.9/rel2/lib286/dos/clibl.lib(argcv.c)
092f:1c16      __argv
092f:1c1a      ___argv
092f:1c1e      __argc
092f:1c20      ___argc
Module: /mnt/sda5/.user/root/src/openwatcom-1.9/rel2/lib286/dos/clibl.lib(open.c)
0000:4504      open_
0000:453b+     sopen_
Module: /mnt/sda5/.user/root/src/openwatcom-1.9/rel2/lib286/dos/clibl.lib(close.c)
0000:4568      close_
Module: /mnt/sda5/.user/root/src/openwatcom-1.9/rel2/lib286/dos/clibl.lib(accss.c)
0000:456d      access_
Module: /mnt/sda5/.user/root/src/openwatcom-1.9/rel2/lib286/dos/clibl.lib(splitpat.c)
0000:45ff      _splitpath_
Module: /mnt/sda5/.user/root/src/openwatcom-1.9/rel2/lib286/dos/clibl.lib(makepath.c)
0000:4719      _makepath_
Module: /mnt/sda5/.user/root/src/openwatcom-1.9/rel2/lib286/dos/clibl.lib(getenv.c)
0000:4965      getenv_
Module: /mnt/sda5/.user/root/src/openwatcom-1.9/rel2/lib286/dos/clibl.lib(sprintf.c)
0000:4a2a      sprintf_
Module: /mnt/sda5/.user/root/src/openwatcom-1.9/rel2/lib286/dos/clibl.lib(time.c)
0000:4a59      time_
Module: /mnt/sda5/.user/root/src/openwatcom-1.9/rel2/lib286/dos/clibl.lib(localtim.c)
0000:4aa4+     _localtime_
0000:4b33      localtime_
Module: /mnt/sda5/.user/root/src/openwatcom-1.9/rel2/lib286/dos/clibl.lib(read.c)
0000:4b42      read_
Module: /mnt/sda5/.user/root/src/openwatcom-1.9/rel2/lib286/dos/clibl.lib(stricmp.c)
0000:4c26      stricmp_
Module: /mnt/sda5/.user/root/src/openwatcom-1.9/rel2/lib286/dos/clibl.lib(tolower.c)
0000:4c63      tolower_
Module: /mnt/sda5/.user/root/src/openwatcom-1.9/rel2/lib286/dos/clibl.lib(istable.c)
092f:029c      __IsTable
Module: /mnt/sda5/.user/root/src/openwatcom-1.9/rel2/lib286/dos/clibl.lib(i4d)
0000:4c72      __I4D
0000:4cc1      __U4D
Module: /mnt/sda5/.user/root/src/openwatcom-1.9/rel2/lib286/dos/clibl.lib(i4m)
0000:4d46      __I4M
0000:4d46      __U4M
Module: /mnt/sda5/.user/root/src/openwatcom-1.9/rel2/lib286/dos/clibl.lib(iob.c)
092f:03fa      ___iob
092f:0562      __fmode
092f:1c34      ___OpenStreams
092f:1c38      ___ClosedStreams
Module: /mnt/sda5/.user/root/src/openwatcom-1.9/rel2/lib286/dos/clibl.lib(fflush.c)
0000:4d5e      fflush_
Module: /mnt/sda5/.user/root/src/openwatcom-1.9/rel2/lib286/dos/clibl.lib(fmalloc.c)
0000:4d73      _fmalloc_
0000:4d73      malloc_
092f:0564+     ___fheap
092f:0566      ___fheapRover
092f:0568      ___LargestSizeB4Rover
Module: /mnt/sda5/.user/root/src/openwatcom-1.9/rel2/lib286/dos/clibl.lib(ffree.c)
0000:4e80      _ffree_
0000:4e80      free_
Module: /mnt/sda5/.user/root/src/openwatcom-1.9/rel2/lib286/dos/clibl.lib(fprtf.c)
0000:4ee0      __fprtf_
Module: /mnt/sda5/.user/root/src/openwatcom-1.9/rel2/lib286/dos/clibl.lib(initrtns.c)
0000:4fe6      __InitRtns
0000:4fe6*     __FInitRtns
0000:5041      __FiniRtns
0000:5041*     __FFiniRtns
Module: /mnt/sda5/.user/root/src/openwatcom-1.9/rel2/lib286/dos/clibl.lib(xmsg.c)
0000:50a5*     __exit_with_msg_
0000:50aa      __fatal_runtime_error_
Module: /mnt/sda5/.user/root/src/openwatcom-1.9/rel2/lib286/dos/clibl.lib(cmain086.c)
0000:50c8      __CMain
Module: /mnt/sda5/.user/root/src/openwatcom-1.9/rel2/lib286/dos/clibl.lib(crwdata)
092f:056a      __curbrk
092f:0572      __STACKLOW
092f:0574      __STACKTOP
092f:0576      __cbyte
092f:0578      __child
092f:057a      __no87
092f:0588      ___FPE_handler
092f:056c      __psp
092f:057c      __get_ovl_stack
092f:0580      __restore_ovl_stack
092f:0584      __close_ovl_file
092f:058c      __LpCmdLine
092f:0590      __LpPgmName
092f:056e      __osmajor
092f:056f      __osminor
092f:0570      __osmode
092f:0571      __HShift
Module: /mnt/sda5/.user/root/src/openwatcom-1.9/rel2/lib286/dos/clibl.lib(uselfn.c)
092f:0594      ___uselfn
Module: /mnt/sda5/.user/root/src/openwatcom-1.9/rel2/lib286/dos/clibl.lib(dosseg)
0000:50f4      __DOSseg__
Module: /mnt/sda5/.user/root/src/openwatcom-1.9/rel2/lib286/dos/clibl.lib(initargv.c)
0000:50f5      __Init_Argv_
0000:5158+     _getargv_
0000:5357      __Fini_Argv_
Module: /mnt/sda5/.user/root/src/openwatcom-1.9/rel2/lib286/dos/clibl.lib(opendos.c)
0000:5381      _dos_open_
Module: /mnt/sda5/.user/root/src/openwatcom-1.9/rel2/lib286/dos/clibl.lib(iomode.c)
0000:53a7      __GetIOMode_
0000:53cc      __SetIOMode_nogrow_
092f:0596      ___NFiles
092f:0598      ___init_mode
092f:05c0      ___io_mode
Module: /mnt/sda5/.user/root/src/openwatcom-1.9/rel2/lib286/dos/clibl.lib(isatt.c)
0000:53ef      isatty_
Module: /mnt/sda5/.user/root/src/openwatcom-1.9/rel2/lib286/dos/clibl.lib(seterrno.c)
0000:540b      __set_errno_
0000:541f*     __set_EDOM_
0000:5431*     __set_ERANGE_
0000:5443*     __set_EINVAL_
0000:5458      __set_doserrno_
Module: /mnt/sda5/.user/root/src/openwatcom-1.9/rel2/lib286/dos/clibl.lib(dosret.c)
0000:5464*     _dosretax_
0000:5469*     _dosret0_
0000:5470      __set_errno_dos_
0000:54ce*     __set_errno_dos_reterr_
Module: /mnt/sda5/.user/root/src/openwatcom-1.9/rel2/lib286/dos/clibl.lib(errno.c)
0000:54d9      __get_errno_ptr_
0000:54e0      __get_doserrno_ptr_
092f:1c40+     _errno
092f:1c42+     __doserrno
Module: /mnt/sda5/.user/root/src/openwatcom-1.9/rel2/lib286/dos/clibl.lib(umaskval.c)
092f:05d8      ___umaskval
Module: /mnt/sda5/.user/root/src/openwatcom-1.9/rel2/lib286/dos/clibl.lib(creatdos.c)
0000:54e7      _dos_creat_
0000:550b*     _dos_creatnew_
Module: /mnt/sda5/.user/root/src/openwatcom-1.9/rel2/lib286/dos/clibl.lib(stiomode.c)
0000:552d+     __grow_iomode_
0000:55f0+     __shrink_iomode_
0000:562b      __SetIOMode_
Module: /mnt/sda5/.user/root/src/openwatcom-1.9/rel2/lib286/dos/clibl.lib(_clse.c)
0000:568e      __close_
Module: /mnt/sda5/.user/root/src/openwatcom-1.9/rel2/lib286/dos/clibl.lib(gfattdos.c)
0000:56c1      _dos_getfileattr_
Module: /mnt/sda5/.user/root/src/openwatcom-1.9/rel2/lib286/dos/clibl.lib(mbsnccnt.c)
0000:56d8      _mbsnccnt_
Module: /mnt/sda5/.user/root/src/openwatcom-1.9/rel2/lib286/dos/clibl.lib(mbsncpy.c)
0000:570c      _mbsncpy_
Module: /mnt/sda5/.user/root/src/openwatcom-1.9/rel2/lib286/dos/clibl.lib(mbsnbcnt.c)
0000:5742      _mbsnbcnt_
Module: /mnt/sda5/.user/root/src/openwatcom-1.9/rel2/lib286/dos/clibl.lib(mbsnextc.c)
0000:57bb      _mbsnextc_
Module: /mnt/sda5/.user/root/src/openwatcom-1.9/rel2/lib286/dos/clibl.lib(mbsinc.c)
0000:57ec      _mbsinc_
Module: /mnt/sda5/.user/root/src/openwatcom-1.9/rel2/lib286/dos/clibl.lib(mbconv.c)
0000:5828      _mbvtop_
Module: /mnt/sda5/.user/root/src/openwatcom-1.9/rel2/lib286/dos/clibl.lib(mbclen.c)
0000:583d      _mbclen_
Module: /mnt/sda5/.user/root/src/openwatcom-1.9/rel2/lib286/dos/clibl.lib(mbsdec.c)
0000:586b      _mbsdec_
Module: /mnt/sda5/.user/root/src/openwatcom-1.9/rel2/lib286/dos/clibl.lib(environ.c)
092f:1c46      ___env_mask
092f:1c4a      _environ
092f:1c4e*     __wenviron
Module: /mnt/sda5/.user/root/src/openwatcom-1.9/rel2/lib286/dos/clibl.lib(mbterm.c)
0000:58f8      _mbterm_
Module: /mnt/sda5/.user/root/src/openwatcom-1.9/rel2/lib286/dos/clibl.lib(mbcupper.c)
0000:593a      _mbctoupper_
Module: /mnt/sda5/.user/root/src/openwatcom-1.9/rel2/lib286/dos/clibl.lib(vsprintf.c)
0000:5976      vsprintf_
Module: /mnt/sda5/.user/root/src/openwatcom-1.9/rel2/lib286/dos/clibl.lib(gtctm.c)
0000:59a1      __getctime_
Module: /mnt/sda5/.user/root/src/openwatcom-1.9/rel2/lib286/dos/clibl.lib(mktime.c)
0000:5a2a      mktime_
Module: /mnt/sda5/.user/root/src/openwatcom-1.9/rel2/lib286/dos/clibl.lib(tzset.c)
092f:05da      ___start_dst
092f:05ec      ___end_dst
092f:0700*     _tzname
092f:0708      _timezone
092f:070c      _daylight
092f:070e      ___dst_adjust
0000:5ae4*     __DontCacheOSTZ_
0000:5afd*     __CacheOSTZ_
0000:6085+     __parse_tz_
0000:6256      tzset_
Module: /mnt/sda5/.user/root/src/openwatcom-1.9/rel2/lib286/dos/clibl.lib(gmtime.c)
0000:62ca      __brktime_
0000:642d+     _gmtime_
0000:6451*     gmtime_
Module: /mnt/sda5/.user/root/src/openwatcom-1.9/rel2/lib286/dos/clibl.lib(timeutil.c)
0000:658f      __isindst_
Module: /mnt/sda5/.user/root/src/openwatcom-1.9/rel2/lib286/dos/clibl.lib(iomodtty.c)
0000:6882      __ChkTTYIOMode_
0000:68c0*     __IOMode_
Module: /mnt/sda5/.user/root/src/openwatcom-1.9/rel2/lib286/dos/clibl.lib(__lseek.c)
0000:68d0      __lseek_
Module: /mnt/sda5/.user/root/src/openwatcom-1.9/rel2/lib286/dos/clibl.lib(initfile.c)
0000:690a      __InitFiles_
Module: /mnt/sda5/.user/root/src/openwatcom-1.9/rel2/lib286/dos/clibl.lib(ioexit.c)
0000:6a58*     fcloseall_
0000:6a5f      __full_io_exit_
Module: /mnt/sda5/.user/root/src/openwatcom-1.9/rel2/lib286/dos/clibl.lib(flushall.c)
0000:6a69*     __flushall_
0000:6ac6      flushall_
Module: /mnt/sda5/.user/root/src/openwatcom-1.9/rel2/lib286/dos/clibl.lib(flush.c)
0000:6acb      __flush_
Module: /mnt/sda5/.user/root/src/openwatcom-1.9/rel2/lib286/dos/clibl.lib(hpgrw086.c)
0000:6bfe      __CMain_nheapgrow_
Module: /mnt/sda5/.user/root/src/openwatcom-1.9/rel2/lib286/dos/clibl.lib(mem.c)
0000:6c10      __MemAllocator
0000:6cda      __MemFree
Module: /mnt/sda5/.user/root/src/openwatcom-1.9/rel2/lib286/dos/clibl.lib(growseg.c)
0000:6e37      __GrowSeg_
Module: /mnt/sda5/.user/root/src/openwatcom-1.9/rel2/lib286/dos/clibl.lib(allocseg.c)
0000:6f29      __AllocSeg_
Module: /mnt/sda5/.user/root/src/openwatcom-1.9/rel2/lib286/dos/clibl.lib(fmemneed.c)
0000:6fc0      __fmemneed_
Module: /mnt/sda5/.user/root/src/openwatcom-1.9/rel2/lib286/dos/clibl.lib(nmalloc.c)
0000:6fc3      _nmalloc_
092f:0736      ___nheapbeg
092f:0738      ___MiniHeapRover
092f:073a      ___LargestSizeB4MiniHeapRover
Module: /mnt/sda5/.user/root/src/openwatcom-1.9/rel2/lib286/dos/clibl.lib(nfree.c)
0000:709d      _nfree_
092f:1c64+     ___MiniHeapFreeRover
Module: /mnt/sda5/.user/root/src/openwatcom-1.9/rel2/lib286/dos/clibl.lib(fputc.c)
0000:7198      fputc_
Module: /mnt/sda5/.user/root/src/openwatcom-1.9/rel2/lib286/dos/clibl.lib(ioalloc.c)
0000:7268      __ioalloc_
Module: /mnt/sda5/.user/root/src/openwatcom-1.9/rel2/lib286/dos/clibl.lib(prtf.c)
0000:7302      __prtf_
Module: /mnt/sda5/.user/root/src/openwatcom-1.9/rel2/lib286/dos/clibl.lib(sgdef086)
092f:074c      __Start_XI
092f:076a      __End_XI
092f:076a      __Start_YI
092f:0782      __End_YI
Module: /mnt/sda5/.user/root/src/openwatcom-1.9/rel2/lib286/dos/clibl.lib(enterdb.c)
0000:80d0      __EnterWVIDEO_
092f:073c+     ___WD_Present
Module: /mnt/sda5/.user/root/src/openwatcom-1.9/rel2/lib286/dos/clibl.lib(___argc.c)
092f:1c66      ____Argv
092f:1c6a      ____Argc
Module: /mnt/sda5/.user/root/src/openwatcom-1.9/rel2/lib286/dos/clibl.lib(amblksiz.c)
092f:073e      __amblksiz
Module: /mnt/sda5/.user/root/src/openwatcom-1.9/rel2/lib286/dos/clibl.lib(histsplt.c)
092f:1c6c      ___historical_splitparms
Module: /mnt/sda5/.user/root/src/openwatcom-1.9/rel2/lib286/dos/clibl.lib(doserror)
0000:80f4      __doserror_
Module: /mnt/sda5/.user/root/src/openwatcom-1.9/rel2/lib286/dos/clibl.lib(frealloc.c)
0000:8102*     _frealloc_
0000:8102      realloc_
Module: /mnt/sda5/.user/root/src/openwatcom-1.9/rel2/lib286/dos/clibl.lib(mbsnbcpy.c)
0000:81de      _mbsnbcpy_
Module: /mnt/sda5/.user/root/src/openwatcom-1.9/rel2/lib286/dos/clibl.lib(mbisdbcs.c)
092f:1c6e      ___IsDBCS
Module: /mnt/sda5/.user/root/src/openwatcom-1.9/rel2/lib286/dos/clibl.lib(mbislead.c)
0000:8256*     _ismbblead_
092f:1c70      ___MBCSIsTable
Module: /mnt/sda5/.user/root/src/openwatcom-1.9/rel2/lib286/dos/clibl.lib(setenvp.c)
0000:8290      __setenvp_
0000:8393      __freeenvp_
Module: /mnt/sda5/.user/root/src/openwatcom-1.9/rel2/lib286/dos/clibl.lib(mbinit.c)
0000:842f      __mbinit_
092f:0740      ___MBCodePage
Module: /mnt/sda5/.user/root/src/openwatcom-1.9/rel2/lib286/dos/clibl.lib(mbdtoupp.c)
0000:850a      _mbdtoupper_
Module: /mnt/sda5/.user/root/src/openwatcom-1.9/rel2/lib286/dos/clibl.lib(toupper.c)
0000:8518      toupper_
Module: /mnt/sda5/.user/root/src/openwatcom-1.9/rel2/lib286/dos/clibl.lib(locmktim.c)
0000:8526      __local_mktime_
Module: /mnt/sda5/.user/root/src/openwatcom-1.9/rel2/lib286/dos/clibl.lib(leapyear.c)
0000:86ed      __leapyear_
092f:0220      ___diyr
092f:023a      ___dilyr
Module: /mnt/sda5/.user/root/src/openwatcom-1.9/rel2/lib286/dos/clibl.lib(fclose.c)
0000:8717+     __doclose_
0000:87c8      __shutdown_stream_
0000:87e2*     fclose_
092f:1d76+     ___RmTmpFileFn
Module: /mnt/sda5/.user/root/src/openwatcom-1.9/rel2/lib286/dos/clibl.lib(freefp.c)
0000:882d      __freefp_
0000:88a8      __purgefp_
Module: /mnt/sda5/.user/root/src/openwatcom-1.9/rel2/lib286/dos/clibl.lib(qwrit.c)
0000:88e9      __qwrite_
Module: /mnt/sda5/.user/root/src/openwatcom-1.9/rel2/lib286/dos/clibl.lib(fsync.c)
0000:8946      fsync_
Module: /mnt/sda5/.user/root/src/openwatcom-1.9/rel2/lib286/dos/clibl.lib(heapgrow.c)
0000:894b*     _heapgrow_
0000:894b*     _fheapgrow_
0000:894c      _nheapgrow_
Module: /mnt/sda5/.user/root/src/openwatcom-1.9/rel2/lib286/dos/clibl.lib(heapen.c)
0000:89c6*     _heapenable_
092f:0742      ___heap_enabled
Module: /mnt/sda5/.user/root/src/openwatcom-1.9/rel2/lib286/dos/clibl.lib(nmemneed.c)
0000:89d7      __nmemneed_
Module: /mnt/sda5/.user/root/src/openwatcom-1.9/rel2/lib286/dos/clibl.lib(grownear.c)
0000:8a5f      __LastFree_
0000:8ad9      __ExpandDGROUP_
Module: /mnt/sda5/.user/root/src/openwatcom-1.9/rel2/lib286/dos/clibl.lib(chktty.c)
0000:8bea      __chktty_
Module: /mnt/sda5/.user/root/src/openwatcom-1.9/rel2/lib286/dos/clibl.lib(wctomb.c)
0000:8c15      wctomb_
Module: /mnt/sda5/.user/root/src/openwatcom-1.9/rel2/lib286/dos/clibl.lib(itoa.c)
0000:8c3e+     utoa_
0000:8c9b      itoa_
Module: /mnt/sda5/.user/root/src/openwatcom-1.9/rel2/lib286/dos/clibl.lib(strupr.c)
0000:8cbf      strupr_
Module: /mnt/sda5/.user/root/src/openwatcom-1.9/rel2/lib286/dos/clibl.lib(noefgfmt.c)
092f:0744      ___EFG_printf
092f:0748*     ___EFG_scanf
Module: /mnt/sda5/.user/root/src/openwatcom-1.9/rel2/lib286/dos/clibl.lib(lltoa.c)
0000:8cf4      ulltoa_
0000:8dd9*     lltoa_
Module: /mnt/sda5/.user/root/src/openwatcom-1.9/rel2/lib286/dos/clibl.lib(ltoa.c)
0000:8e3b      ultoa_
0000:8eaa*     ltoa_
Module: /mnt/sda5/.user/root/src/openwatcom-1.9/rel2/lib286/dos/clibl.lib(fmsize.c)
0000:8ed9*     _msize_
0000:8ed9      _fmsize_
Module: /mnt/sda5/.user/root/src/openwatcom-1.9/rel2/lib286/dos/clibl.lib(nexpand.c)
0000:8eea      __HeapManager_expand_
0000:9061      _nexpand_
Module: /mnt/sda5/.user/root/src/openwatcom-1.9/rel2/lib286/dos/clibl.lib(fexpand.c)
0000:90b4      _fexpand_
0000:90b4*     _expand_
Module: /mnt/sda5/.user/root/src/openwatcom-1.9/rel2/lib286/dos/clibl.lib(clearenv.c)
0000:90e9      clearenv_
Module: /mnt/sda5/.user/root/src/openwatcom-1.9/rel2/lib286/dos/clibl.lib(filedos.c)
0000:91cb*     _dos_close_
0000:91d9      _dos_commit_
Module: /mnt/sda5/.user/root/src/openwatcom-1.9/rel2/lib286/dos/clibl.lib(sbrk.c)
0000:91e9*     sbrk_
0000:91f9      __brk_
Module: /mnt/sda5/.user/root/src/openwatcom-1.9/rel2/lib286/dos/clibl.lib(alphabet.c)
092f:0276      ___Alphabet
Module: /mnt/sda5/.user/root/src/openwatcom-1.9/rel2/lib286/dos/clibl.lib(bfree.c)
0000:9263      _bfree_
Module: /mnt/sda5/.user/root/src/openwatcom-1.9/rel2/lib286/dos/clibl.lib(bexpand.c)
0000:9288      _bexpand_


                        +--------------------+
                        |   Libraries Used   |
                        +--------------------+

/mnt/sda5/.user/root/src/openwatcom-1.9/rel2/lib286/dos/clibl.lib


                        +-----------------------+
                        |   Linker Statistics   |
                        +-----------------------+

Stack size:  0800 (2048.)
Memory size:  b870 (47216.)
Entry point address: 0000:407a
Link time: 00:00.00
