Open Watcom Linker Version 1.9
Portions Copyright (c) 1985-2002 Sybase, Inc. All Rights Reserved.
Created on:       12/12/16 02:11:20
Executable Image: mkmk.exe
creating a DOS executable


                        +------------+
                        |   Groups   |
                        +------------+

Group                           Address              Size
=====                           =======              ====

DGROUP                          092d:0000            00002570



                        +--------------+
                        |   Segments   |
                        +--------------+

Segment                Class          Group          Address         Size
=======                =====          =====          =======         ====

mkmk_TEXT              CODE           AUTO           0000:0000       000000d0
preproc_TEXT           CODE           AUTO           0000:00d0       00001b5d
ppexpr_TEXT            CODE           AUTO           0000:1c30       00000d55
ppmacro_TEXT           CODE           AUTO           0000:2990       00001581
ppmem_TEXT             CODE           AUTO           0000:3f20       00000041
_TEXT                  CODE           AUTO           0000:3f70       00005353
FAR_DATA               FAR_DATA       AUTO           092c:0003       00000000
_NULL                  BEGDATA        DGROUP         092d:0000       00000020
_AFTERNULL             BEGDATA        DGROUP         092f:0000       00000002
CONST                  DATA           DGROUP         092f:0002       0000026a
CONST2                 DATA           DGROUP         0955:000c       00000102
_DATA                  DATA           DGROUP         0966:0000       000003ac
XIB                    DATA           DGROUP         09a0:000c       00000000
XI                     DATA           DGROUP         09a0:000c       0000001e
XIE                    DATA           DGROUP         09a2:000a       00000000
YIB                    DATA           DGROUP         09a2:000a       00000000
YI                     DATA           DGROUP         09a2:000a       00000018
YIE                    DATA           DGROUP         09a4:0002       00000000
STRINGS                DATA           DGROUP         09a4:0002       00000000
DATA                   DATA           DGROUP         09a4:0002       00000000
_BSS                   BSS            DGROUP         09a5:0000       000015ea
STACK                  STACK          DGROUP         0b04:0000       00000800


                        +----------------+
                        |   Memory Map   |
                        +----------------+

* = unreferenced symbol
+ = symbol only referenced locally

Address        Symbol
=======        ======

Module: mkmk.obj(/mnt/sda5/.user/root/src/openwatcom-1.9/bld/cpp/mkmk.c)
0000:0000+     MkMkDependency_
0000:004a      main_
Module: preproc.obj(/mnt/sda5/.user/root/src/openwatcom-1.9/bld/cpp/preproc.c)
092d:0880+     _PPStack
092d:0884      _PPTokenList
092d:0888      _PPCurToken
092d:088c+     _PPIncludePath
092d:0890+     _PPHashTable
092d:0bdc      _PPCharPtr
092d:0be0+     _PP_CallBack
092d:0be4+     _PPBufPtr
092d:0be8      _PPTokenPtr
092d:0bec      _PP_File
092d:0bf0+     _PPLineBuf
092d:1bf2+     _NestLevel
092d:1bf4      _PPFlags
092d:1bf6+     _SkipLevel
092d:0390      _PP__DATE__
092d:039e      _PP__TIME__
092d:03a9      _PreProcChar
0000:0122+     isAbsPath_
0000:0146+     PP_Open_
0000:021e+     PP_FindInclude_
0000:02c4+     PP_OpenInclude_
0000:05ec+     PP_SetLeadBytes_
0000:0612      PP_Init_
0000:062a+     PP_Init2_
0000:073e      PP_Dependency_List_
0000:07c4      PP_Fini_
0000:081c+     PP_ReadBuf_
0000:0878+     PP_ReadLine_
0000:09ba+     PP_Hash_
0000:09f8      PP_Class_
0000:0a20      PP_ScanName_
0000:0a4a+     PP_Include_
0000:0b08+     PP_RCInclude_
0000:0bb6+     PP_AddMacro_
0000:0c62+     PP_SkipSpace_
0000:0ca8+     PP_SkipComment_
0000:0d34      PP_SkipWhiteSpace_
0000:0d9c+     PP_Define_
0000:0fa8      PP_MacroLookup_
0000:1020      PP_ScanMacroLookup_
0000:10cc+     PP_Undef_
0000:10e6*     PP_Ifdef_
0000:1100*     PP_Ifndef_
0000:111a+     PPConstExpr_
0000:114e+     PP_If_
0000:1180+     PP_Elif_
0000:11fe+     PP_Else_
0000:1254+     PP_Endif_
0000:1298+     PP_Sharp_
0000:15dc+     PP_Read_
0000:166c+     PPScanLiteral_
0000:16aa+     PPScanDigits_
0000:16c6+     PPScanSuffix_
0000:16e6+     PPScanHexNumber_
0000:1732+     PPScanNumber_
0000:1786+     PPScanOther_
0000:17ee      PP_ScanToken_
0000:19d8      PP_ScanNextToken_
0000:1a38+     PP_Char_
0000:1b8a*     PreprocVarInit_
092d:1bf8      _PPLineNumber
092d:1bfa      _PPSavedChar
Module: ppexpr.obj(/mnt/sda5/.user/root/src/openwatcom-1.9/bld/cpp/ppexpr.c)
0000:1c30*     PPEvalExpr_
0000:1c8a      PP_ConstExpr_
0000:1d0e+     PP_Expr1_
0000:1d5c+     PP_Expr2_
0000:1daa+     PP_Expr3_
0000:1df6+     PP_Expr4_
0000:1e3c+     PP_Expr5_
0000:1e88+     PP_Expr6_
0000:1f34+     PP_Expr7_
0000:20b2+     PP_Expr8_
0000:214c+     PP_Expr9_
0000:21c0+     PP_Expr10_
0000:22b6+     PP_Expr11_
0000:23f2+     PP_AdvanceToken_
0000:2494+     PP_HexNumber_
0000:24f2+     PP_CharConst_
0000:266c+     PP_Constant_
0000:279a+     PP_Identifier_
Module: ppmacro.obj(/mnt/sda5/.user/root/src/openwatcom-1.9/bld/cpp/ppmacro.c)
0000:2990+     FreeTokenList_
0000:29c2      DeleteNestedMacro_
0000:2a86      PPNextToken_
0000:2ae4      NextMToken_
0000:2baa+     PPTrimWhiteSpace_
0000:2c1a+     PPCollectParms_
0000:2e26*     DumpMTokens_
0000:2e68*     DumpNestedMacros_
0000:2eb8+     TokLength_
0000:2ed0+     BuildAToken_
0000:2f0a+     AppendToken_
0000:2f70+     Expandable_
0000:304a+     MacroBeingExpanded_
0000:309c+     ExpandNestedMacros_
0000:342a+     Glue2Tokens_
0000:3532+     GlueTokens_
0000:366a+     BuildMTokenList_
0000:3860+     DuplicateList_
0000:38ee+     MakeString_
0000:3980+     BuildString_
0000:3a0c+     SubstituteParms_
0000:3c5a+     BuildSpecialToken_
0000:3d1a+     MacroExpansion_
0000:3ed2*     NestedMacroExpansion_
0000:3ee2      DoMacroExpansion_
0000:3f02*     PPMacroVarInit_
092d:1c00+     _NestedMacros
092d:1c04+     _MacroDepth
Module: ppmem.obj(/mnt/sda5/.user/root/src/openwatcom-1.9/bld/cpp/ppmem.c)
0000:3f20      PP_Malloc_
0000:3f46      PP_Free_
0000:3f4c      PP_OutOfMemory_
Module: /mnt/sda5/.user/root/src/openwatcom-1.9/rel2/lib286/dos/clibl.lib(printf.c)
0000:3f70      printf_
Module: /mnt/sda5/.user/root/src/openwatcom-1.9/rel2/lib286/dos/clibl.lib(cprintf.c)
0000:3fb6*     vcprintf_
0000:3fd0      cprintf_
Module: /mnt/sda5/.user/root/src/openwatcom-1.9/rel2/lib286/dos/clibl.lib(exit.c)
0000:4005+     __null_int23_exit_
0000:4006      exit_
0000:4037*     _exit_
092d:03dc+     ___int23_exit
092d:03e0+     ___FPE_handler_exit
Module: /mnt/sda5/.user/root/src/openwatcom-1.9/rel2/lib286/dos/clibl.lib(cstart)
092d:0000*     __nullarea
092d:03e4*     __ovlflag
092d:03e5*     __intno
092d:03e6*     __ovlvec
0000:4050      _cstart_
0000:4123*     _Not_Enough_Memory_
0000:4257      __exit_
0000:4276      __do_exit_with_msg__
0000:42d4      __GETDS
Module: /mnt/sda5/.user/root/src/openwatcom-1.9/rel2/lib286/dos/clibl.lib(cmodel)
0000:42de      _big_code_
0000:42de*     CodeModelMismatch
Module: /mnt/sda5/.user/root/src/openwatcom-1.9/rel2/lib286/dos/clibl.lib(argcv.c)
092d:1c06      __argv
092d:1c0a      ___argv
092d:1c0e      __argc
092d:1c10      ___argc
Module: /mnt/sda5/.user/root/src/openwatcom-1.9/rel2/lib286/dos/clibl.lib(open.c)
0000:44da      open_
0000:4511+     sopen_
Module: /mnt/sda5/.user/root/src/openwatcom-1.9/rel2/lib286/dos/clibl.lib(close.c)
0000:453e      close_
Module: /mnt/sda5/.user/root/src/openwatcom-1.9/rel2/lib286/dos/clibl.lib(accss.c)
0000:4543      access_
Module: /mnt/sda5/.user/root/src/openwatcom-1.9/rel2/lib286/dos/clibl.lib(splitpat.c)
0000:45d5      _splitpath_
Module: /mnt/sda5/.user/root/src/openwatcom-1.9/rel2/lib286/dos/clibl.lib(makepath.c)
0000:46ef      _makepath_
Module: /mnt/sda5/.user/root/src/openwatcom-1.9/rel2/lib286/dos/clibl.lib(getenv.c)
0000:493b      getenv_
Module: /mnt/sda5/.user/root/src/openwatcom-1.9/rel2/lib286/dos/clibl.lib(sprintf.c)
0000:4a00      sprintf_
Module: /mnt/sda5/.user/root/src/openwatcom-1.9/rel2/lib286/dos/clibl.lib(time.c)
0000:4a2f      time_
Module: /mnt/sda5/.user/root/src/openwatcom-1.9/rel2/lib286/dos/clibl.lib(localtim.c)
0000:4a7a+     _localtime_
0000:4b09      localtime_
Module: /mnt/sda5/.user/root/src/openwatcom-1.9/rel2/lib286/dos/clibl.lib(read.c)
0000:4b18      read_
Module: /mnt/sda5/.user/root/src/openwatcom-1.9/rel2/lib286/dos/clibl.lib(stricmp.c)
0000:4bfc      stricmp_
Module: /mnt/sda5/.user/root/src/openwatcom-1.9/rel2/lib286/dos/clibl.lib(tolower.c)
0000:4c39      tolower_
Module: /mnt/sda5/.user/root/src/openwatcom-1.9/rel2/lib286/dos/clibl.lib(istable.c)
092d:028c      __IsTable
Module: /mnt/sda5/.user/root/src/openwatcom-1.9/rel2/lib286/dos/clibl.lib(i4d)
0000:4c48      __I4D
0000:4c97      __U4D
Module: /mnt/sda5/.user/root/src/openwatcom-1.9/rel2/lib286/dos/clibl.lib(i4m)
0000:4d1c      __I4M
0000:4d1c      __U4M
Module: /mnt/sda5/.user/root/src/openwatcom-1.9/rel2/lib286/dos/clibl.lib(iob.c)
092d:03ea      ___iob
092d:0552      __fmode
092d:1c24      ___OpenStreams
092d:1c28      ___ClosedStreams
Module: /mnt/sda5/.user/root/src/openwatcom-1.9/rel2/lib286/dos/clibl.lib(fflush.c)
0000:4d34      fflush_
Module: /mnt/sda5/.user/root/src/openwatcom-1.9/rel2/lib286/dos/clibl.lib(fmalloc.c)
0000:4d49      _fmalloc_
0000:4d49      malloc_
092d:0554+     ___fheap
092d:0556      ___fheapRover
092d:0558      ___LargestSizeB4Rover
Module: /mnt/sda5/.user/root/src/openwatcom-1.9/rel2/lib286/dos/clibl.lib(ffree.c)
0000:4e56      _ffree_
0000:4e56      free_
Module: /mnt/sda5/.user/root/src/openwatcom-1.9/rel2/lib286/dos/clibl.lib(fprtf.c)
0000:4eb6      __fprtf_
Module: /mnt/sda5/.user/root/src/openwatcom-1.9/rel2/lib286/dos/clibl.lib(putch.c)
0000:4f81      putch_
Module: /mnt/sda5/.user/root/src/openwatcom-1.9/rel2/lib286/dos/clibl.lib(prtf.c)
0000:4f90      __prtf_
Module: /mnt/sda5/.user/root/src/openwatcom-1.9/rel2/lib286/dos/clibl.lib(initrtns.c)
0000:5d99      __InitRtns
0000:5d99*     __FInitRtns
0000:5df4      __FiniRtns
0000:5df4*     __FFiniRtns
Module: /mnt/sda5/.user/root/src/openwatcom-1.9/rel2/lib286/dos/clibl.lib(xmsg.c)
0000:5e58*     __exit_with_msg_
0000:5e5d      __fatal_runtime_error_
Module: /mnt/sda5/.user/root/src/openwatcom-1.9/rel2/lib286/dos/clibl.lib(cmain086.c)
0000:5e7b      __CMain
Module: /mnt/sda5/.user/root/src/openwatcom-1.9/rel2/lib286/dos/clibl.lib(crwdata)
092d:055a      __curbrk
092d:0562      __STACKLOW
092d:0564      __STACKTOP
092d:0566      __cbyte
092d:0568      __child
092d:056a      __no87
092d:0578      ___FPE_handler
092d:055c      __psp
092d:056c      __get_ovl_stack
092d:0570      __restore_ovl_stack
092d:0574      __close_ovl_file
092d:057c      __LpCmdLine
092d:0580      __LpPgmName
092d:055e      __osmajor
092d:055f      __osminor
092d:0560      __osmode
092d:0561      __HShift
Module: /mnt/sda5/.user/root/src/openwatcom-1.9/rel2/lib286/dos/clibl.lib(uselfn.c)
092d:0584      ___uselfn
Module: /mnt/sda5/.user/root/src/openwatcom-1.9/rel2/lib286/dos/clibl.lib(dosseg)
0000:5ea6      __DOSseg__
Module: /mnt/sda5/.user/root/src/openwatcom-1.9/rel2/lib286/dos/clibl.lib(initargv.c)
0000:5ea7      __Init_Argv_
0000:5f0a+     _getargv_
0000:6109      __Fini_Argv_
Module: /mnt/sda5/.user/root/src/openwatcom-1.9/rel2/lib286/dos/clibl.lib(opendos.c)
0000:6133      _dos_open_
Module: /mnt/sda5/.user/root/src/openwatcom-1.9/rel2/lib286/dos/clibl.lib(iomode.c)
0000:6159      __GetIOMode_
0000:617e      __SetIOMode_nogrow_
092d:0586      ___NFiles
092d:0588      ___init_mode
092d:05b0      ___io_mode
Module: /mnt/sda5/.user/root/src/openwatcom-1.9/rel2/lib286/dos/clibl.lib(isatt.c)
0000:61a1      isatty_
Module: /mnt/sda5/.user/root/src/openwatcom-1.9/rel2/lib286/dos/clibl.lib(seterrno.c)
0000:61bd      __set_errno_
0000:61d1*     __set_EDOM_
0000:61e3*     __set_ERANGE_
0000:61f5*     __set_EINVAL_
0000:620a      __set_doserrno_
Module: /mnt/sda5/.user/root/src/openwatcom-1.9/rel2/lib286/dos/clibl.lib(dosret.c)
0000:6216*     _dosretax_
0000:621b*     _dosret0_
0000:6222      __set_errno_dos_
0000:6280*     __set_errno_dos_reterr_
Module: /mnt/sda5/.user/root/src/openwatcom-1.9/rel2/lib286/dos/clibl.lib(errno.c)
0000:628b      __get_errno_ptr_
0000:6292      __get_doserrno_ptr_
092d:1c30+     _errno
092d:1c32+     __doserrno
Module: /mnt/sda5/.user/root/src/openwatcom-1.9/rel2/lib286/dos/clibl.lib(umaskval.c)
092d:05c8      ___umaskval
Module: /mnt/sda5/.user/root/src/openwatcom-1.9/rel2/lib286/dos/clibl.lib(creatdos.c)
0000:6299      _dos_creat_
0000:62bd*     _dos_creatnew_
Module: /mnt/sda5/.user/root/src/openwatcom-1.9/rel2/lib286/dos/clibl.lib(stiomode.c)
0000:62df+     __grow_iomode_
0000:63a2+     __shrink_iomode_
0000:63dd      __SetIOMode_
Module: /mnt/sda5/.user/root/src/openwatcom-1.9/rel2/lib286/dos/clibl.lib(_clse.c)
0000:6440      __close_
Module: /mnt/sda5/.user/root/src/openwatcom-1.9/rel2/lib286/dos/clibl.lib(gfattdos.c)
0000:6473      _dos_getfileattr_
Module: /mnt/sda5/.user/root/src/openwatcom-1.9/rel2/lib286/dos/clibl.lib(mbsnccnt.c)
0000:648a      _mbsnccnt_
Module: /mnt/sda5/.user/root/src/openwatcom-1.9/rel2/lib286/dos/clibl.lib(mbsncpy.c)
0000:64be      _mbsncpy_
Module: /mnt/sda5/.user/root/src/openwatcom-1.9/rel2/lib286/dos/clibl.lib(mbsnbcnt.c)
0000:64f4      _mbsnbcnt_
Module: /mnt/sda5/.user/root/src/openwatcom-1.9/rel2/lib286/dos/clibl.lib(mbsnextc.c)
0000:656d      _mbsnextc_
Module: /mnt/sda5/.user/root/src/openwatcom-1.9/rel2/lib286/dos/clibl.lib(mbsinc.c)
0000:659e      _mbsinc_
Module: /mnt/sda5/.user/root/src/openwatcom-1.9/rel2/lib286/dos/clibl.lib(mbconv.c)
0000:65da      _mbvtop_
Module: /mnt/sda5/.user/root/src/openwatcom-1.9/rel2/lib286/dos/clibl.lib(mbclen.c)
0000:65ef      _mbclen_
Module: /mnt/sda5/.user/root/src/openwatcom-1.9/rel2/lib286/dos/clibl.lib(mbsdec.c)
0000:661d      _mbsdec_
Module: /mnt/sda5/.user/root/src/openwatcom-1.9/rel2/lib286/dos/clibl.lib(environ.c)
092d:1c36      ___env_mask
092d:1c3a      _environ
092d:1c3e*     __wenviron
Module: /mnt/sda5/.user/root/src/openwatcom-1.9/rel2/lib286/dos/clibl.lib(mbterm.c)
0000:66aa      _mbterm_
Module: /mnt/sda5/.user/root/src/openwatcom-1.9/rel2/lib286/dos/clibl.lib(mbcupper.c)
0000:66ec      _mbctoupper_
Module: /mnt/sda5/.user/root/src/openwatcom-1.9/rel2/lib286/dos/clibl.lib(vsprintf.c)
0000:6728      vsprintf_
Module: /mnt/sda5/.user/root/src/openwatcom-1.9/rel2/lib286/dos/clibl.lib(gtctm.c)
0000:6753      __getctime_
Module: /mnt/sda5/.user/root/src/openwatcom-1.9/rel2/lib286/dos/clibl.lib(mktime.c)
0000:67dc      mktime_
Module: /mnt/sda5/.user/root/src/openwatcom-1.9/rel2/lib286/dos/clibl.lib(tzset.c)
092d:05ca      ___start_dst
092d:05dc      ___end_dst
092d:06f0*     _tzname
092d:06f8      _timezone
092d:06fc      _daylight
092d:06fe      ___dst_adjust
0000:6896*     __DontCacheOSTZ_
0000:68af*     __CacheOSTZ_
0000:6e37+     __parse_tz_
0000:7008      tzset_
Module: /mnt/sda5/.user/root/src/openwatcom-1.9/rel2/lib286/dos/clibl.lib(gmtime.c)
0000:707c      __brktime_
0000:71df+     _gmtime_
0000:7203*     gmtime_
Module: /mnt/sda5/.user/root/src/openwatcom-1.9/rel2/lib286/dos/clibl.lib(timeutil.c)
0000:7341      __isindst_
Module: /mnt/sda5/.user/root/src/openwatcom-1.9/rel2/lib286/dos/clibl.lib(iomodtty.c)
0000:7634      __ChkTTYIOMode_
0000:7672*     __IOMode_
Module: /mnt/sda5/.user/root/src/openwatcom-1.9/rel2/lib286/dos/clibl.lib(__lseek.c)
0000:7682      __lseek_
Module: /mnt/sda5/.user/root/src/openwatcom-1.9/rel2/lib286/dos/clibl.lib(initfile.c)
0000:76bc      __InitFiles_
Module: /mnt/sda5/.user/root/src/openwatcom-1.9/rel2/lib286/dos/clibl.lib(ioexit.c)
0000:780a*     fcloseall_
0000:7811      __full_io_exit_
Module: /mnt/sda5/.user/root/src/openwatcom-1.9/rel2/lib286/dos/clibl.lib(flushall.c)
0000:781b*     __flushall_
0000:7878      flushall_
Module: /mnt/sda5/.user/root/src/openwatcom-1.9/rel2/lib286/dos/clibl.lib(flush.c)
0000:787d      __flush_
Module: /mnt/sda5/.user/root/src/openwatcom-1.9/rel2/lib286/dos/clibl.lib(hpgrw086.c)
0000:79b0      __CMain_nheapgrow_
Module: /mnt/sda5/.user/root/src/openwatcom-1.9/rel2/lib286/dos/clibl.lib(mem.c)
0000:79c0      __MemAllocator
0000:7a8a      __MemFree
Module: /mnt/sda5/.user/root/src/openwatcom-1.9/rel2/lib286/dos/clibl.lib(growseg.c)
0000:7be7      __GrowSeg_
Module: /mnt/sda5/.user/root/src/openwatcom-1.9/rel2/lib286/dos/clibl.lib(allocseg.c)
0000:7cd9      __AllocSeg_
Module: /mnt/sda5/.user/root/src/openwatcom-1.9/rel2/lib286/dos/clibl.lib(fmemneed.c)
0000:7d70      __fmemneed_
Module: /mnt/sda5/.user/root/src/openwatcom-1.9/rel2/lib286/dos/clibl.lib(nmalloc.c)
0000:7d73      _nmalloc_
092d:0726      ___nheapbeg
092d:0728      ___MiniHeapRover
092d:072a      ___LargestSizeB4MiniHeapRover
Module: /mnt/sda5/.user/root/src/openwatcom-1.9/rel2/lib286/dos/clibl.lib(nfree.c)
0000:7e4d      _nfree_
092d:1c54+     ___MiniHeapFreeRover
Module: /mnt/sda5/.user/root/src/openwatcom-1.9/rel2/lib286/dos/clibl.lib(fputc.c)
0000:7f48      fputc_
Module: /mnt/sda5/.user/root/src/openwatcom-1.9/rel2/lib286/dos/clibl.lib(ioalloc.c)
0000:8018      __ioalloc_
Module: /mnt/sda5/.user/root/src/openwatcom-1.9/rel2/lib286/dos/clibl.lib(wctomb.c)
0000:80b2      wctomb_
Module: /mnt/sda5/.user/root/src/openwatcom-1.9/rel2/lib286/dos/clibl.lib(itoa.c)
0000:80db+     utoa_
0000:8138      itoa_
Module: /mnt/sda5/.user/root/src/openwatcom-1.9/rel2/lib286/dos/clibl.lib(strupr.c)
0000:815c      strupr_
Module: /mnt/sda5/.user/root/src/openwatcom-1.9/rel2/lib286/dos/clibl.lib(noefgfmt.c)
092d:072c      ___EFG_printf
092d:0730*     ___EFG_scanf
Module: /mnt/sda5/.user/root/src/openwatcom-1.9/rel2/lib286/dos/clibl.lib(mbisdbcs.c)
092d:1c56      ___IsDBCS
Module: /mnt/sda5/.user/root/src/openwatcom-1.9/rel2/lib286/dos/clibl.lib(mbislead.c)
0000:8191*     _ismbblead_
092d:1c58      ___MBCSIsTable
Module: /mnt/sda5/.user/root/src/openwatcom-1.9/rel2/lib286/dos/clibl.lib(lltoa.c)
0000:81ad      ulltoa_
0000:8292*     lltoa_
Module: /mnt/sda5/.user/root/src/openwatcom-1.9/rel2/lib286/dos/clibl.lib(ltoa.c)
0000:82f4      ultoa_
0000:8363*     ltoa_
Module: /mnt/sda5/.user/root/src/openwatcom-1.9/rel2/lib286/dos/clibl.lib(sgdef086)
092d:073c      __Start_XI
092d:075a      __End_XI
092d:075a      __Start_YI
092d:0772      __End_YI
Module: /mnt/sda5/.user/root/src/openwatcom-1.9/rel2/lib286/dos/clibl.lib(enterdb.c)
0000:8392      __EnterWVIDEO_
092d:0734+     ___WD_Present
Module: /mnt/sda5/.user/root/src/openwatcom-1.9/rel2/lib286/dos/clibl.lib(___argc.c)
092d:1d5a      ____Argv
092d:1d5e      ____Argc
Module: /mnt/sda5/.user/root/src/openwatcom-1.9/rel2/lib286/dos/clibl.lib(amblksiz.c)
092d:0736      __amblksiz
Module: /mnt/sda5/.user/root/src/openwatcom-1.9/rel2/lib286/dos/clibl.lib(histsplt.c)
092d:1d60      ___historical_splitparms
Module: /mnt/sda5/.user/root/src/openwatcom-1.9/rel2/lib286/dos/clibl.lib(doserror)
0000:83b6      __doserror_
Module: /mnt/sda5/.user/root/src/openwatcom-1.9/rel2/lib286/dos/clibl.lib(frealloc.c)
0000:83c4*     _frealloc_
0000:83c4      realloc_
Module: /mnt/sda5/.user/root/src/openwatcom-1.9/rel2/lib286/dos/clibl.lib(mbsnbcpy.c)
0000:84a0      _mbsnbcpy_
Module: /mnt/sda5/.user/root/src/openwatcom-1.9/rel2/lib286/dos/clibl.lib(setenvp.c)
0000:8536      __setenvp_
0000:8639      __freeenvp_
Module: /mnt/sda5/.user/root/src/openwatcom-1.9/rel2/lib286/dos/clibl.lib(mbinit.c)
0000:86d5      __mbinit_
092d:0738      ___MBCodePage
Module: /mnt/sda5/.user/root/src/openwatcom-1.9/rel2/lib286/dos/clibl.lib(mbdtoupp.c)
0000:87b0      _mbdtoupper_
Module: /mnt/sda5/.user/root/src/openwatcom-1.9/rel2/lib286/dos/clibl.lib(toupper.c)
0000:87be      toupper_
Module: /mnt/sda5/.user/root/src/openwatcom-1.9/rel2/lib286/dos/clibl.lib(locmktim.c)
0000:87cc      __local_mktime_
Module: /mnt/sda5/.user/root/src/openwatcom-1.9/rel2/lib286/dos/clibl.lib(leapyear.c)
0000:8993      __leapyear_
092d:0232      ___diyr
092d:024c      ___dilyr
Module: /mnt/sda5/.user/root/src/openwatcom-1.9/rel2/lib286/dos/clibl.lib(fclose.c)
0000:89bd+     __doclose_
0000:8a6e      __shutdown_stream_
0000:8a88*     fclose_
092d:1d66+     ___RmTmpFileFn
Module: /mnt/sda5/.user/root/src/openwatcom-1.9/rel2/lib286/dos/clibl.lib(freefp.c)
0000:8ad3      __freefp_
0000:8b4e      __purgefp_
Module: /mnt/sda5/.user/root/src/openwatcom-1.9/rel2/lib286/dos/clibl.lib(qwrit.c)
0000:8b8f      __qwrite_
Module: /mnt/sda5/.user/root/src/openwatcom-1.9/rel2/lib286/dos/clibl.lib(fsync.c)
0000:8bec      fsync_
Module: /mnt/sda5/.user/root/src/openwatcom-1.9/rel2/lib286/dos/clibl.lib(heapgrow.c)
0000:8bf1*     _heapgrow_
0000:8bf1*     _fheapgrow_
0000:8bf2      _nheapgrow_
Module: /mnt/sda5/.user/root/src/openwatcom-1.9/rel2/lib286/dos/clibl.lib(heapen.c)
0000:8c6c*     _heapenable_
092d:073a      ___heap_enabled
Module: /mnt/sda5/.user/root/src/openwatcom-1.9/rel2/lib286/dos/clibl.lib(nmemneed.c)
0000:8c7d      __nmemneed_
Module: /mnt/sda5/.user/root/src/openwatcom-1.9/rel2/lib286/dos/clibl.lib(grownear.c)
0000:8d05      __LastFree_
0000:8d7f      __ExpandDGROUP_
Module: /mnt/sda5/.user/root/src/openwatcom-1.9/rel2/lib286/dos/clibl.lib(chktty.c)
0000:8e90      __chktty_
Module: /mnt/sda5/.user/root/src/openwatcom-1.9/rel2/lib286/dos/clibl.lib(alphabet.c)
092d:0266      ___Alphabet
Module: /mnt/sda5/.user/root/src/openwatcom-1.9/rel2/lib286/dos/clibl.lib(fmsize.c)
0000:8ebb*     _msize_
0000:8ebb      _fmsize_
Module: /mnt/sda5/.user/root/src/openwatcom-1.9/rel2/lib286/dos/clibl.lib(nexpand.c)
0000:8ecc      __HeapManager_expand_
0000:9043      _nexpand_
Module: /mnt/sda5/.user/root/src/openwatcom-1.9/rel2/lib286/dos/clibl.lib(fexpand.c)
0000:9096      _fexpand_
0000:9096*     _expand_
Module: /mnt/sda5/.user/root/src/openwatcom-1.9/rel2/lib286/dos/clibl.lib(clearenv.c)
0000:90cb      clearenv_
Module: /mnt/sda5/.user/root/src/openwatcom-1.9/rel2/lib286/dos/clibl.lib(filedos.c)
0000:91ad*     _dos_close_
0000:91bb      _dos_commit_
Module: /mnt/sda5/.user/root/src/openwatcom-1.9/rel2/lib286/dos/clibl.lib(sbrk.c)
0000:91cb*     sbrk_
0000:91db      __brk_
Module: /mnt/sda5/.user/root/src/openwatcom-1.9/rel2/lib286/dos/clibl.lib(bfree.c)
0000:9245      _bfree_
Module: /mnt/sda5/.user/root/src/openwatcom-1.9/rel2/lib286/dos/clibl.lib(bexpand.c)
0000:926a      _bexpand_


                        +--------------------+
                        |   Libraries Used   |
                        +--------------------+

/mnt/sda5/.user/root/src/openwatcom-1.9/rel2/lib286/dos/clibl.lib


                        +-----------------------+
                        |   Linker Statistics   |
                        +-----------------------+

Stack size:  0800 (2048.)
Memory size:  b840 (47168.)
Entry point address: 0000:4050
Link time: 00:00.00
