Open Watcom Linker Version 1.9
Portions Copyright (c) 1985-2002 Sybase, Inc. All Rights Reserved.
Created on:       12/12/16 02:40:48
Executable Image: watcom.dll
creating a RDOS dynamic link library


                        +------------+
                        |   Groups   |
                        +------------+

Group                           Address              Size
=====                           =======              ====

DGROUP                          0040e000             00000df8



                        +--------------+
                        |   Segments   |
                        +--------------+

Segment                Class          Group          Address         Size
=======                =====          =====          =======         ====

_TEXT                  CODE           AUTO           00401000        0000c210
CONST                  DATA           DGROUP         0040e000        00000025
CONST2                 DATA           DGROUP         0040e028        00000000
_DATA                  DATA           DGROUP         0040e028        0000013c
_BSS                   BSS            DGROUP         0040e164        00000c94


                        +----------------+
                        |   Memory Map   |
                        +----------------+

* = unreferenced symbol
+ = symbol only referenced locally

Address        Symbol
=======        ======

Module: dipimp.obj(/mnt/sda5/.user/root/src/openwatcom-1.9/bld/dip/c/dipimp.c)
00401000       DIPLOAD
00401030       DCAlloc_
00401040*      DCAllocZ_
00401070       DCRealloc_
00401080       DCFree_
00401090       DCMapAddr_
004010a0       DCSymCreate_
004010b0       DCItemLocation_
004010c0       DCAssignLocation_
004010d0       DCSameAddrSpace_
00401100       DCAddrSection_
00401110*      DCOpen_
00401120       DCSeek_
00401130       DCRead_
00401140*      DCReadAt_
004011a0*      DCWrite_
004011b0       DCClose_
004011c0*      DCRemove_
004011d0       DCStatus_
004011e0*      DCCurrMAD_
00401200*      DCMachineData_
00401250+      DIPImpOldTypeBase_
0040e028       _ImpInterface
0040e164       _NilAddr
0040e16c+      _Client
Module: wataddr.obj(/mnt/sda5/.user/root/src/openwatcom-1.9/bld/dip/watcom/c/wataddr.c)
00401260       AdjustAddrInit_
00401280       AdjustAddrs_
00401560       FindModBase_
00401630       FindSegBlock_
00401740       AddrInfoSplit_
00401790       AddrInfoFini_
004017a0       DIPImpAddrMod_
00401850       DIPImpModAddr_
Module: watdmnd.obj(/mnt/sda5/.user/root/src/openwatcom-1.9/bld/dip/watcom/c/watdmnd.c)
0040e1a8*      __nullarea
00401870       InfoSize_
00401910+      WlkDmnd_
004019e0       InitDemand_
00401a90       FiniDemand_
00401ab0+      WlkClear_
00401b30       InfoClear_
00401b50       InfoUnlock_
00401b80       InfoLoad_
00401d50       InfoSpecLock_
00401d60       InfoSpecUnlock_
00401dc0       InfoRelease_
Module: watgbl.obj(/mnt/sda5/.user/root/src/openwatcom-1.9/bld/dip/watcom/c/watgbl.c)
00401df0       GblSymFini_
00402200       SearchGbl_
00402360       LookupGblAddr_
004024e0       AdjustSyms_
00402660       MakeGblLst_
004026a0       GblSymSplit_
004026f0       SymHdl2GblLoc_
00402740       SymHdl2GblInfo_
004027a0       SymHdl2GblName_
00402820       SymHdl2ObjGblName_
00402870       SymHdl2GblType_
004028b0       GblTypeClassify_
004028d0       WalkGblModSymList_
00402a10       Link2GblHdl_
Module: watlcl.obj(/mnt/sda5/.user/root/src/openwatcom-1.9/bld/dip/watcom/c/watlcl.c)
00402a30       GetIndex_
00402a90       GetAddress_
00402b60       KillLclLoadStack_
00403010       SearchLclMod_
00403370       SearchLclScope_
004033d0       LookupLclAddr_
004034c0       SymHdl2LclName_
00403580       SymHdl2LclLoc_
004035f0       SymHdl2LclType_
00403660       SetGblLink_
00403670       Lcl2GblHdl_
00403770       SymHdl2LclInfo_
00403930       SymHdl2LclParmLoc_
00403a00       DIPImpSymObjType_
00403b00       DIPImpSymObjLocation_
00403cf0       WalkScopedSymList_
00403dc0       WalkBlockSymList_
00403e80       WalkLclModSymList_
00403f20       DIPImpAddrScope_
00403fb0       DIPImpScopeOuter_
Module: watldsym.obj(/mnt/sda5/.user/root/src/openwatcom-1.9/bld/dip/watcom/c/watldsym.c)
00404100       DIPImpUnloadInfo_
00404610       DIPImpLoadInfo_
00404650       InfoRead_
004046b0       DIPImpMapInfo_
00404740       AddressMap_
Module: watlnum.obj(/mnt/sda5/.user/root/src/openwatcom-1.9/bld/dip/watcom/c/watlnum.c)
00404c60       DIPImpAddrCue_
00404e30       DIPImpLineCue_
00404f00       DIPImpCueLine_
00404f60       DIPImpCueColumn_
00404f70       DIPImpCueAddr_
00405020       DIPImpWalkFileList_
00405120       DIPImpCueMod_
00405130       DIPImpCueFileId_
00405190       DIPImpCueFile_
004054e0       DIPImpCueAdjust_
00405550       DIPImpCueCmp_
Module: watloc.obj(/mnt/sda5/.user/root/src/openwatcom-1.9/bld/dip/watcom/c/watloc.c)
00405630       LocationCreate_
00405660       LocationAdd_
00405750       LocationTrunc_
00405860       SkipLocation_
00405870       InfoLocation_
00405a90       RegSize_
00405aa0       PushBaseLocation_
00405ae0       EvalLocation_
Module: watmisc.obj(/mnt/sda5/.user/root/src/openwatcom-1.9/bld/dip/watcom/c/watmisc.c)
00406100       _DIPImpName
00406110       DIPImpQueryHandleSize_
00406120       DIPImpSymFreeAll_
00406120       DIPImpSymRelease_
00406120       DIPImpSymAddRef_
00406120       DIPImpStartup_
00406130       DIPImpShutdown_
00406140       DIPImpCancel_
00406150       DIPImpMoreMem_
00406160       DIPImpSymMod_
00406170       DIPImpAddrSym_
004061f0       DIPImpSymName_
00406500+      DoLookupSym_
00406760       DIPImpLookupSym_
00406780       DIPImpLookupSymEx_
004067a0       DIPImpSymLocation_
004067e0       DIPImpSymValue_
00406810       DIPImpSymType_
00406870       DIPImpSymInfo_
004068f0       DIPImpSymParmLocation_
00406910+      WalkMySyms_
00406940+      DoWalkSymList_
00406a40       DIPImpWalkSymList_
00406a60       DIPImpWalkSymListEx_
00406a80       DIPImpModDefault_
00406aa0       DIPImpSymCmp_
Module: watmod.obj(/mnt/sda5/.user/root/src/openwatcom-1.9/bld/dip/watcom/c/watmod.c)
00406b70       FindInfo_
00406bb0       ModPointer_
00406e30       AdjustMods_
00407010       SetModBase_
00407060       ModInfoFini_
004070b0       ModInfoSplit_
004070f0       ModOff2Idx_
00407120       DIPImpWalkModList_
004071b0       MyWalkModList_
00407240       DIPImpModSrcLang_
00407260       DIPImpModInfo_
00407280       DIPImpModName_
00407320       PrimaryCueFile_
Module: wattype.obj(/mnt/sda5/.user/root/src/openwatcom-1.9/bld/dip/watcom/c/wattype.c)
004073f0       KillTypeLoadStack_
00407840       ClearTypeCache_
00407b60       FindTypeHandle_
00407d90       LookupTypeName_
00407f80       SearchEnumName_
00407f90       SearchTypeName_
00407fa0       DIPImpWalkTypeList_
004086e0       DIPImpTypeInfo_
004086f0       DIPImpTypeBase_
00408860       DIPImpTypeArrayInfo_
00408b30       DIPImpTypeProcInfo_
00408c10       DIPImpTypePtrAddrSpace_
00408d30       SymHdl2CstName_
00408d30       SymHdl2TypName_
00408d30       SymHdl2MbrName_
00408e00       SymHdl2CstValue_
00408f10       SymHdl2CstType_
00408f30       SymHdl2TypType_
00408f50       SymHdl2MbrType_
00409010       SymHdl2MbrLoc_
00409400       SymHdl2MbrInfo_
004095c0       DIPImpTypeThunkAdjust_
00409800       SearchMbr_
00409a20       WalkTypeSymList_
00409c70       DIPImpTypeMod_
00409c80       FindSpecCueTable_
00409d80       DIPImpTypeCmp_
00409dc0       DIPImpTypeName_
00409dd0       DIPImpTypeFreeAll_
00409dd0       DIPImpTypeRelease_
00409dd0       DIPImpTypeAddRef_
Module: demangle.obj(/mnt/sda5/.user/root/src/openwatcom-1.9/bld/lib_misc/c/demangle.c)
0040c1c0*      __demangle_t_
0040c220       __demangle_l_
0040c290*      __demangle_r_
0040c320       __scope_name_
0040c3c0       __is_mangled_
0040c4a0       __is_mangled_internal_
0040c4e0       __unmangled_name_
0040c550*      __demangled_basename_
0040c5c0*      __parse_mangled_name_
0040c620       __mangle_operator_
Module: /mnt/sda5/.user/root/src/openwatcom-1.9/rel2/lib386/rdos/clib3r.lib(memset.c)
0040c760       memset_
Module: /mnt/sda5/.user/root/src/openwatcom-1.9/rel2/lib386/rdos/clib3r.lib(toupper.c)
0040c780       toupper_
Module: /mnt/sda5/.user/root/src/openwatcom-1.9/rel2/lib386/rdos/clib3r.lib(memcmp.c)
0040c790       memcmp_
Module: /mnt/sda5/.user/root/src/openwatcom-1.9/rel2/lib386/rdos/clib3r.lib(memicmp.c)
0040c7b0       memicmp_
Module: /mnt/sda5/.user/root/src/openwatcom-1.9/rel2/lib386/rdos/clib3r.lib(qsort.c)
0040c840       qsort_
Module: /mnt/sda5/.user/root/src/openwatcom-1.9/rel2/lib386/rdos/clib3r.lib(stricmp.c)
0040cef0       stricmp_
Module: /mnt/sda5/.user/root/src/openwatcom-1.9/rel2/lib386/rdos/clib3r.lib(memmove.c)
0040cf30       memmove_
Module: /mnt/sda5/.user/root/src/openwatcom-1.9/rel2/lib386/rdos/clib3r.lib(itoa.c)
0040cf90+      utoa_
0040cfe0       itoa_
Module: /mnt/sda5/.user/root/src/openwatcom-1.9/rel2/lib386/rdos/clib3r.lib(istable.c)
0040d010       __IsTable
Module: /mnt/sda5/.user/root/src/openwatcom-1.9/rel2/lib386/rdos/clib3r.lib(tolower.c)
0040d120       tolower_
Module: /mnt/sda5/.user/root/src/openwatcom-1.9/rel2/lib386/rdos/clib3r.lib(strncmp.c)
0040d130       strncmp_
Module: /mnt/sda5/.user/root/src/openwatcom-1.9/rel2/lib386/rdos/clib3r.lib(__stos)
0040d160       __STOSB
0040d197*      __STOSD
Module: /mnt/sda5/.user/root/src/openwatcom-1.9/rel2/lib386/rdos/clib3r.lib(alphabet.c)
0040e000       ___Alphabet


                        +----------------------+
                        |   Imported Symbols   |
                        +----------------------+

Symbol                              Module
======                              ======



                        +--------------------+
                        |   Libraries Used   |
                        +--------------------+

/mnt/sda5/.user/root/src/openwatcom-1.9/rel2/lib386/rdos/clib3r.lib


                        +-----------------------+
                        |   Linker Statistics   |
                        +-----------------------+

Stack size:  0000 (0.)
Memory size:  d008 (53256.)
Entry point address: 00000000
Link time: 00:00.00
