Open Watcom Linker Version 1.9
Portions Copyright (c) 1985-2002 Sybase, Inc. All Rights Reserved.
Created on:       12/12/16 02:41:00
Executable Image: madx86.dll
creating a RDOS dynamic link library


                        +------------+
                        |   Groups   |
                        +------------+

Group                           Address              Size
=====                           =======              ====

DGROUP                          d901b000             00000968



                        +--------------+
                        |   Segments   |
                        +--------------+

Segment                Class          Group          Address         Size
=======                =====          =====          =======         ====

_TEXT                  CODE           AUTO           d9001000        00019c83
CONST                  DATA           DGROUP         d901b000        00000000
CONST2                 DATA           DGROUP         d901b000        00000000
_DATA                  DATA           DGROUP         d901b000        0000084c
_BSS                   BSS            DGROUP         d901b84c        0000011c


                        +----------------+
                        |   Memory Map   |
                        +----------------+

* = unreferenced symbol
+ = symbol only referenced locally

Address        Symbol
=======        ======

Module: madimp.obj(/mnt/sda5/.user/root/src/openwatcom-1.9/bld/mad/c/madimp.c)
d9001000       MADLOAD
d9001020*      MCAlloc_
d9001030*      MCRealloc_
d9001040*      MCFree_
d9001050*      MCOpen_
d9001060*      MCSeek_
d9001070*      MCRead_
d9001080*      MCClose_
d9001090       MCReadMem_
d90010c0       MCWriteMem_
d90010f0       MCString_
d9001100*      MCAddString_
d9001110       MCRadixPrefix_
d9001120       MCNotify_
d9001130       MCMachineData_
d9001170       MCAddrToString_
d90011b0       MCMemExpr_
d90011c0       MCAddrSection_
d90011d0       MCAddrOvlReturn_
d90011e0       MCSystemConfig_
d90011f0       MCTypeInfoForHost_
d9001200*      MCTypeConvert_
d9001220       MCTypeToString_
d9001240*      MCStatus_
d901b000+      _MadImpInterface
d901b84c*      __nullarea
d901b850+      _MadClient
Module: disentry.obj(/mnt/sda5/.user/root/src/openwatcom-1.9/bld/ndisasm/core/c/disentry.c)
d9001260       _X86MaxInsName
d9001261+      _DisStringTable
d9001e74       _DisInstructionTable
d90053c4+      _DisRegisterTable
d9005450       _DisRefTypeTable
d9005480       _X86RangeTable
d90056a8       _X86RangeTablePos
d90056c0+      _DisSelectorTable
d900d390       SEX_
d900d3b0       DisGetString_
d900d400*      DisDummyHandler_
d900d410       DisInit_
d900d430       DisFini_
d900d440       DisDecodeInit_
d900d4b0       DisDecode_
d900d600       DisAddReg_
d900d640+      DisOpFormat_
d900d820       DisFormat_
d900d980       DisInsNameMax_
d900d990*      DisInsSizeInc_
Module: disx86.obj(/mnt/sda5/.user/root/src/openwatcom-1.9/bld/ndisasm/core/c/disx86.c)
d900d9e4       _X86Data
d900daa0       X86PrefixFwait_
d900db20       X86PrefixOpnd_
d900db40       X86PrefixAddr_
d900db60       X86PrefixRepe_
d900db70       X86PrefixRepne_
d900db80       X86PrefixLock_
d900db90       X86PrefixCS_
d900dba0       X86PrefixSS_
d900dbb0       X86PrefixDS_
d900dbc0       X86PrefixES_
d900dbd0       X86PrefixFS_
d900dbe0       X86PrefixGS_
d900dc10+      X86GetRegister_D_
d900dc60+      X86GetRegister_W_
d900dcb0+      X86GetRegister_B_
d900dd00+      X86FGetSTReg_
d900dd50+      X86GetMMReg_
d900dda0+      X86GetXMMReg_
d900dde0+      X86GetCRegister_
d900de20+      X86GetDRegister_
d900de60+      X86GetTRegister_
d900dea0+      X86GetSRegister_
d900ded0+      X86GetRegister_
d900df60+      X86GetRegisterAddr_
d900e940+      X86GetRefType_
d900eac0+      X86FGetRefType_
d900eae0+      X86FGetRefTypeEnv_
d900ed10+      X86GetRegModRM_B_
d900edc0       X86SReg_8_
d900ee90       X86NoOp_8_
d900f000       X86String_8_
d900f200       X86ImmAcc_8_
d900f2a0       X86MemAbsAcc_8_
d900f380       X86Abs_8_
d900f3a0       X86Rel_8_
d900f3c0       X86Imm_8_
d900f540       X86ImmReg_8_
d900f580       X86ImmImm_8_
d900f5d0       X86Reg_8_
d900f700       X86AccAcc_8_
d900f760       X86JmpCC_8_
d900f7f0       X86Shift_16_
d900f8a0       X86SReg_16_
d900f980       X86NoOp_16_
d900f990       X86ModRM_16_
d900fa80       X86ModRMImm_16_
d900fb70*      X86ModRMAcc_16_
d900fbd0       X86RegModRM_16_
d900fc30       X86RegModRM_test_
d900fc90       X86RegModRM_bound_
d900fcf0       X86RegModRM_16B_
d900fde0       X86Reg_16_
d900fe00       X86JmpCC_16_
d900fe20       X86SRegModRM_16_
d900ff00       X86SetCC_
d900ff50       X86MovCC_24_
d900ffc0       X86CRegReg_24_
d9010070       X86DRegReg_24_
d9010120       X86TRegReg_24_
d90101d0       X86ModRMImm_24_
d9010240       X86NoOp_24_
d9010250       X86ModRM_24_
d90102d0       X86RegModRM_24_
d9010330       X86RegModRM_24B_
d9010550       X86RegModRM_24C_
d9010620       X86FTypeCond_
d9010650       X86FType3_
d9010710       X86FType3B_
d9010740       X86FType3C_
d9010770       X86FType2_
d90107e0       X86FTypeFSTSWAX_
d9010820       X86FType4_
d9010880       X86FType1_
d90109a0       X86FTypeEnv_
d9010b60       X86MMRegModRM_
d9010bb0       X86MMRegModRMImm_
d9010c10       X86MMRegModRM_Rev_
d9010c60       X86MMRegImm_
d9010c90       X86XMMRegModRM_
d9010ce0       X86XMMRegModRMImm_
d9010d40       X86XMMRegModRM_Rev_
d9010d90       X86XMMRegImm_
d9010dd0       X86XMMRegModRM64_
d9010e20       X86XMMRegModRM64Imm_
d9010e80       X86XMMRegModRM64_Rev_
d9010ed0       X86XMMRegModRM32_
d9010f20       X86XMMRegModRM32Imm_
d9010f80       X86XMMRegModRM32_Rev_
d9010fd0       X86RegModRM32_Rev_
d9011030       X86MMRegModRMMixed_
d9011120       X86MMRegModRMMixedImm_
d90111b0       X86MMRegModRMMixed_Rev_
d9011210       X86XMMRegModRMMixed_
d90112d0       X86XMMRegModRMMixedImm_
d9011360       X86XMMRegModRMMixed_Rev_
d90113c0       X86RegModRMMixed_
d90114c0       X86RegModRMMixedImm_
d9011550       X86_3DNow_
d9011dc0*      DisAddUnixReg_
Module: x86addr.obj(/mnt/sda5/.user/root/src/openwatcom-1.9/bld/mad/x86/c/x86addr.c)
d9012460       MIAddrAdd_
d90124b0       MIAddrComp_
d9012580       MIAddrDiff_
d90125f0       MIAddrMap_
d9012640       MIAddrFlat_
d9012670       MIAddrInterrupt_
d90126e0       AddrCharacteristics_
Module: x86ctrl.obj(/mnt/sda5/.user/root/src/openwatcom-1.9/bld/mad/x86/c/x86ctrl.c)
d9012710       MIInit_
d9012730       MIFini_
d9012740       MIStateSize_
d9012750       MIStateInit_
d9012780       MIStateSet_
d9012790       MIStateCopy_
d901b854       _MADState
Module: x86types.obj(/mnt/sda5/.user/root/src/openwatcom-1.9/bld/mad/x86/c/x86types.c)
d9012bf0       MITypeWalk_
d9012cd0       MITypeName_
d9012ce0       MITypePreferredRadix_
d9012d00       MITypeInfo_
d9012d80       MITypeDefault_
d9012e50       MITypeToString_
d9012ef0       MITypeForDIPType_
d9012ff0       MITypeConvert_
Module: x86reg.obj(/mnt/sda5/.user/root/src/openwatcom-1.9/bld/mad/x86/c/x86reg.c)
d9013228       _CPU_eax
d901323c       _CPU_ebx
d9013250       _CPU_ecx
d9013264       _CPU_edx
d9013278+      _CPU_esi
d901328c+      _CPU_edi
d90132a0+      _CPU_ebp
d90132b4+      _CPU_esp
d90132c8+      _CPU_eip
d90132dc+      _CPU_efl
d90132f0       _CPU_ax
d9013304       _CPU_bx
d9013318       _CPU_cx
d901332c       _CPU_dx
d9013340+      _CPU_si
d9013354+      _CPU_di
d9013368+      _CPU_bp
d901337c+      _CPU_sp
d9013390+      _CPU_ip
d90133a4+      _CPU_fl
d90133b8+      _CPU_al
d90133cc+      _CPU_bl
d90133e0+      _CPU_cl
d90133f4+      _CPU_dl
d9013408+      _CPU_ah
d901341c+      _CPU_bh
d9013430+      _CPU_ch
d9013444+      _CPU_dh
d9013458+      _CPU_cs
d901346c+      _CPU_ds
d9013480+      _CPU_es
d9013494+      _CPU_ss
d90134a8+      _CPU_fs
d90134bc+      _CPU_gs
d90134d0+      _CPU_vm
d90134e4+      _CPU_rf
d90134f8+      _CPU_nt
d901350c+      _CPU_iopl
d9013520+      _CPU_o
d9013534+      _CPU_d
d9013548+      _CPU_i
d901355c+      _CPU_s
d9013570+      _CPU_z
d9013584+      _CPU_a
d9013598+      _CPU_p
d90135ac+      _CPU_c
d90135c0+      _FPU_st0
d90135d4+      _FPU_st1
d90135e8+      _FPU_st2
d90135fc+      _FPU_st3
d9013610+      _FPU_st4
d9013624+      _FPU_st5
d9013638+      _FPU_st6
d901364c+      _FPU_st7
d9013660+      _FPU_sw
d9013674+      _FPU_cw
d9013688+      _FPU_tag
d901369c+      _FPU_tag0
d90136b0+      _FPU_tag1
d90136c4+      _FPU_tag2
d90136d8+      _FPU_tag3
d90136ec+      _FPU_tag4
d9013700+      _FPU_tag5
d9013714+      _FPU_tag6
d9013728+      _FPU_tag7
d901373c+      _FPU_iptr
d9013750+      _FPU_optr
d9013764+      _FPU_ie
d9013778+      _FPU_de
d901378c+      _FPU_ze
d90137a0+      _FPU_oe
d90137b4+      _FPU_ue
d90137c8+      _FPU_pe
d90137dc+      _FPU_sf
d90137f0+      _FPU_c0
d9013804+      _FPU_es
d9013818+      _FPU_c1
d901382c+      _FPU_c2
d9013840+      _FPU_st
d9013854+      _FPU_c3
d9013868+      _FPU_b
d901387c+      _FPU_im
d9013890+      _FPU_dm
d90138a4+      _FPU_zm
d90138b8+      _FPU_om
d90138cc+      _FPU_um
d90138e0+      _FPU_pm
d90138f4+      _FPU_iem
d9013908+      _FPU_pc
d901391c+      _FPU_rc
d9013930+      _FPU_ic
d9013a9c+      _MMX0_b0
d9013ab0+      _MMX0_b1
d9013ac4+      _MMX0_b2
d9013ad8+      _MMX0_b3
d9013aec+      _MMX0_b4
d9013b00+      _MMX0_b5
d9013b14+      _MMX0_b6
d9013b28+      _MMX0_b7
d9013b3c+      _MMX0_w0
d9013b50+      _MMX0_w1
d9013b64+      _MMX0_w2
d9013b78+      _MMX0_w3
d9013b8c+      _MMX0_d0
d9013ba0+      _MMX0_d1
d9013bb4+      _MMX0_q0
d9013c08+      _MMX1_b0
d9013c1c+      _MMX1_b1
d9013c30+      _MMX1_b2
d9013c44+      _MMX1_b3
d9013c58+      _MMX1_b4
d9013c6c+      _MMX1_b5
d9013c80+      _MMX1_b6
d9013c94+      _MMX1_b7
d9013ca8+      _MMX1_w0
d9013cbc+      _MMX1_w1
d9013cd0+      _MMX1_w2
d9013ce4+      _MMX1_w3
d9013cf8+      _MMX1_d0
d9013d0c+      _MMX1_d1
d9013d20+      _MMX1_q0
d9013d74+      _MMX2_b0
d9013d88+      _MMX2_b1
d9013d9c+      _MMX2_b2
d9013db0+      _MMX2_b3
d9013dc4+      _MMX2_b4
d9013dd8+      _MMX2_b5
d9013dec+      _MMX2_b6
d9013e00+      _MMX2_b7
d9013e14+      _MMX2_w0
d9013e28+      _MMX2_w1
d9013e3c+      _MMX2_w2
d9013e50+      _MMX2_w3
d9013e64+      _MMX2_d0
d9013e78+      _MMX2_d1
d9013e8c+      _MMX2_q0
d9013ee0+      _MMX3_b0
d9013ef4+      _MMX3_b1
d9013f08+      _MMX3_b2
d9013f1c+      _MMX3_b3
d9013f30+      _MMX3_b4
d9013f44+      _MMX3_b5
d9013f58+      _MMX3_b6
d9013f6c+      _MMX3_b7
d9013f80+      _MMX3_w0
d9013f94+      _MMX3_w1
d9013fa8+      _MMX3_w2
d9013fbc+      _MMX3_w3
d9013fd0+      _MMX3_d0
d9013fe4+      _MMX3_d1
d9013ff8+      _MMX3_q0
d901404c+      _MMX4_b0
d9014060+      _MMX4_b1
d9014074+      _MMX4_b2
d9014088+      _MMX4_b3
d901409c+      _MMX4_b4
d90140b0+      _MMX4_b5
d90140c4+      _MMX4_b6
d90140d8+      _MMX4_b7
d90140ec+      _MMX4_w0
d9014100+      _MMX4_w1
d9014114+      _MMX4_w2
d9014128+      _MMX4_w3
d901413c+      _MMX4_d0
d9014150+      _MMX4_d1
d9014164+      _MMX4_q0
d90141b8+      _MMX5_b0
d90141cc+      _MMX5_b1
d90141e0+      _MMX5_b2
d90141f4+      _MMX5_b3
d9014208+      _MMX5_b4
d901421c+      _MMX5_b5
d9014230+      _MMX5_b6
d9014244+      _MMX5_b7
d9014258+      _MMX5_w0
d901426c+      _MMX5_w1
d9014280+      _MMX5_w2
d9014294+      _MMX5_w3
d90142a8+      _MMX5_d0
d90142bc+      _MMX5_d1
d90142d0+      _MMX5_q0
d9014324+      _MMX6_b0
d9014338+      _MMX6_b1
d901434c+      _MMX6_b2
d9014360+      _MMX6_b3
d9014374+      _MMX6_b4
d9014388+      _MMX6_b5
d901439c+      _MMX6_b6
d90143b0+      _MMX6_b7
d90143c4+      _MMX6_w0
d90143d8+      _MMX6_w1
d90143ec+      _MMX6_w2
d9014400+      _MMX6_w3
d9014414+      _MMX6_d0
d9014428+      _MMX6_d1
d901443c+      _MMX6_q0
d9014490+      _MMX7_b0
d90144a4+      _MMX7_b1
d90144b8+      _MMX7_b2
d90144cc+      _MMX7_b3
d90144e0+      _MMX7_b4
d90144f4+      _MMX7_b5
d9014508+      _MMX7_b6
d901451c+      _MMX7_b7
d9014530+      _MMX7_w0
d9014544+      _MMX7_w1
d9014558+      _MMX7_w2
d901456c+      _MMX7_w3
d9014580+      _MMX7_d0
d9014594+      _MMX7_d1
d90145a8+      _MMX7_q0
d90145fc+      _MMX_mm0
d9014610+      _MMX_mm1
d9014624+      _MMX_mm2
d9014638+      _MMX_mm3
d901464c+      _MMX_mm4
d9014660+      _MMX_mm5
d9014674+      _MMX_mm6
d9014688+      _MMX_mm7
d90146c0+      _XMM0_b0
d90146d4+      _XMM0_b1
d90146e8+      _XMM0_b2
d90146fc+      _XMM0_b3
d9014710+      _XMM0_b4
d9014724+      _XMM0_b5
d9014738+      _XMM0_b6
d901474c+      _XMM0_b7
d9014760+      _XMM0_b8
d9014774+      _XMM0_b9
d9014788+      _XMM0_b10
d901479c+      _XMM0_b11
d90147b0+      _XMM0_b12
d90147c4+      _XMM0_b13
d90147d8+      _XMM0_b14
d90147ec+      _XMM0_b15
d9014800+      _XMM0_w0
d9014814+      _XMM0_w1
d9014828+      _XMM0_w2
d901483c+      _XMM0_w3
d9014850+      _XMM0_w4
d9014864+      _XMM0_w5
d9014878+      _XMM0_w6
d901488c+      _XMM0_w7
d90148a0+      _XMM0_d0
d90148b4+      _XMM0_d1
d90148c8+      _XMM0_d2
d90148dc+      _XMM0_d3
d90148f0+      _XMM0_q0
d9014904+      _XMM0_q1
d9014994+      _XMM1_b0
d90149a8+      _XMM1_b1
d90149bc+      _XMM1_b2
d90149d0+      _XMM1_b3
d90149e4+      _XMM1_b4
d90149f8+      _XMM1_b5
d9014a0c+      _XMM1_b6
d9014a20+      _XMM1_b7
d9014a34+      _XMM1_b8
d9014a48+      _XMM1_b9
d9014a5c+      _XMM1_b10
d9014a70+      _XMM1_b11
d9014a84+      _XMM1_b12
d9014a98+      _XMM1_b13
d9014aac+      _XMM1_b14
d9014ac0+      _XMM1_b15
d9014ad4+      _XMM1_w0
d9014ae8+      _XMM1_w1
d9014afc+      _XMM1_w2
d9014b10+      _XMM1_w3
d9014b24+      _XMM1_w4
d9014b38+      _XMM1_w5
d9014b4c+      _XMM1_w6
d9014b60+      _XMM1_w7
d9014b74+      _XMM1_d0
d9014b88+      _XMM1_d1
d9014b9c+      _XMM1_d2
d9014bb0+      _XMM1_d3
d9014bc4+      _XMM1_q0
d9014bd8+      _XMM1_q1
d9014c68+      _XMM2_b0
d9014c7c+      _XMM2_b1
d9014c90+      _XMM2_b2
d9014ca4+      _XMM2_b3
d9014cb8+      _XMM2_b4
d9014ccc+      _XMM2_b5
d9014ce0+      _XMM2_b6
d9014cf4+      _XMM2_b7
d9014d08+      _XMM2_b8
d9014d1c+      _XMM2_b9
d9014d30+      _XMM2_b10
d9014d44+      _XMM2_b11
d9014d58+      _XMM2_b12
d9014d6c+      _XMM2_b13
d9014d80+      _XMM2_b14
d9014d94+      _XMM2_b15
d9014da8+      _XMM2_w0
d9014dbc+      _XMM2_w1
d9014dd0+      _XMM2_w2
d9014de4+      _XMM2_w3
d9014df8+      _XMM2_w4
d9014e0c+      _XMM2_w5
d9014e20+      _XMM2_w6
d9014e34+      _XMM2_w7
d9014e48+      _XMM2_d0
d9014e5c+      _XMM2_d1
d9014e70+      _XMM2_d2
d9014e84+      _XMM2_d3
d9014e98+      _XMM2_q0
d9014eac+      _XMM2_q1
d9014f3c+      _XMM3_b0
d9014f50+      _XMM3_b1
d9014f64+      _XMM3_b2
d9014f78+      _XMM3_b3
d9014f8c+      _XMM3_b4
d9014fa0+      _XMM3_b5
d9014fb4+      _XMM3_b6
d9014fc8+      _XMM3_b7
d9014fdc+      _XMM3_b8
d9014ff0+      _XMM3_b9
d9015004+      _XMM3_b10
d9015018+      _XMM3_b11
d901502c+      _XMM3_b12
d9015040+      _XMM3_b13
d9015054+      _XMM3_b14
d9015068+      _XMM3_b15
d901507c+      _XMM3_w0
d9015090+      _XMM3_w1
d90150a4+      _XMM3_w2
d90150b8+      _XMM3_w3
d90150cc+      _XMM3_w4
d90150e0+      _XMM3_w5
d90150f4+      _XMM3_w6
d9015108+      _XMM3_w7
d901511c+      _XMM3_d0
d9015130+      _XMM3_d1
d9015144+      _XMM3_d2
d9015158+      _XMM3_d3
d901516c+      _XMM3_q0
d9015180+      _XMM3_q1
d9015210+      _XMM4_b0
d9015224+      _XMM4_b1
d9015238+      _XMM4_b2
d901524c+      _XMM4_b3
d9015260+      _XMM4_b4
d9015274+      _XMM4_b5
d9015288+      _XMM4_b6
d901529c+      _XMM4_b7
d90152b0+      _XMM4_b8
d90152c4+      _XMM4_b9
d90152d8+      _XMM4_b10
d90152ec+      _XMM4_b11
d9015300+      _XMM4_b12
d9015314+      _XMM4_b13
d9015328+      _XMM4_b14
d901533c+      _XMM4_b15
d9015350+      _XMM4_w0
d9015364+      _XMM4_w1
d9015378+      _XMM4_w2
d901538c+      _XMM4_w3
d90153a0+      _XMM4_w4
d90153b4+      _XMM4_w5
d90153c8+      _XMM4_w6
d90153dc+      _XMM4_w7
d90153f0+      _XMM4_d0
d9015404+      _XMM4_d1
d9015418+      _XMM4_d2
d901542c+      _XMM4_d3
d9015440+      _XMM4_q0
d9015454+      _XMM4_q1
d90154e4+      _XMM5_b0
d90154f8+      _XMM5_b1
d901550c+      _XMM5_b2
d9015520+      _XMM5_b3
d9015534+      _XMM5_b4
d9015548+      _XMM5_b5
d901555c+      _XMM5_b6
d9015570+      _XMM5_b7
d9015584+      _XMM5_b8
d9015598+      _XMM5_b9
d90155ac+      _XMM5_b10
d90155c0+      _XMM5_b11
d90155d4+      _XMM5_b12
d90155e8+      _XMM5_b13
d90155fc+      _XMM5_b14
d9015610+      _XMM5_b15
d9015624+      _XMM5_w0
d9015638+      _XMM5_w1
d901564c+      _XMM5_w2
d9015660+      _XMM5_w3
d9015674+      _XMM5_w4
d9015688+      _XMM5_w5
d901569c+      _XMM5_w6
d90156b0+      _XMM5_w7
d90156c4+      _XMM5_d0
d90156d8+      _XMM5_d1
d90156ec+      _XMM5_d2
d9015700+      _XMM5_d3
d9015714+      _XMM5_q0
d9015728+      _XMM5_q1
d90157b8+      _XMM6_b0
d90157cc+      _XMM6_b1
d90157e0+      _XMM6_b2
d90157f4+      _XMM6_b3
d9015808+      _XMM6_b4
d901581c+      _XMM6_b5
d9015830+      _XMM6_b6
d9015844+      _XMM6_b7
d9015858+      _XMM6_b8
d901586c+      _XMM6_b9
d9015880+      _XMM6_b10
d9015894+      _XMM6_b11
d90158a8+      _XMM6_b12
d90158bc+      _XMM6_b13
d90158d0+      _XMM6_b14
d90158e4+      _XMM6_b15
d90158f8+      _XMM6_w0
d901590c+      _XMM6_w1
d9015920+      _XMM6_w2
d9015934+      _XMM6_w3
d9015948+      _XMM6_w4
d901595c+      _XMM6_w5
d9015970+      _XMM6_w6
d9015984+      _XMM6_w7
d9015998+      _XMM6_d0
d90159ac+      _XMM6_d1
d90159c0+      _XMM6_d2
d90159d4+      _XMM6_d3
d90159e8+      _XMM6_q0
d90159fc+      _XMM6_q1
d9015a8c+      _XMM7_b0
d9015aa0+      _XMM7_b1
d9015ab4+      _XMM7_b2
d9015ac8+      _XMM7_b3
d9015adc+      _XMM7_b4
d9015af0+      _XMM7_b5
d9015b04+      _XMM7_b6
d9015b18+      _XMM7_b7
d9015b2c+      _XMM7_b8
d9015b40+      _XMM7_b9
d9015b54+      _XMM7_b10
d9015b68+      _XMM7_b11
d9015b7c+      _XMM7_b12
d9015b90+      _XMM7_b13
d9015ba4+      _XMM7_b14
d9015bb8+      _XMM7_b15
d9015bcc+      _XMM7_w0
d9015be0+      _XMM7_w1
d9015bf4+      _XMM7_w2
d9015c08+      _XMM7_w3
d9015c1c+      _XMM7_w4
d9015c30+      _XMM7_w5
d9015c44+      _XMM7_w6
d9015c58+      _XMM7_w7
d9015c6c+      _XMM7_d0
d9015c80+      _XMM7_d1
d9015c94+      _XMM7_d2
d9015ca8+      _XMM7_d3
d9015cbc+      _XMM7_q0
d9015cd0+      _XMM7_q1
d9015d60+      _XMM_xmm0
d9015d74+      _XMM_xmm1
d9015d88+      _XMM_xmm2
d9015d9c+      _XMM_xmm3
d9015db0+      _XMM_xmm4
d9015dc4+      _XMM_xmm5
d9015dd8+      _XMM_xmm6
d9015dec+      _XMM_xmm7
d9015e00+      _XMM_mxcsr
d9015e14+      _XMM_mxcsr_ie
d9015e28+      _XMM_mxcsr_de
d9015e3c+      _XMM_mxcsr_ze
d9015e50+      _XMM_mxcsr_oe
d9015e64+      _XMM_mxcsr_ue
d9015e78+      _XMM_mxcsr_pe
d9015e8c+      _XMM_mxcsr_daz
d9015ea0+      _XMM_mxcsr_im
d9015eb4+      _XMM_mxcsr_dm
d9015ec8+      _XMM_mxcsr_zm
d9015edc+      _XMM_mxcsr_om
d9015ef0+      _XMM_mxcsr_um
d9015f04+      _XMM_mxcsr_pm
d9015f18+      _XMM_mxcsr_rc
d9015f2c+      _XMM_mxcsr_fz
d90162a0       MIRegistersSize_
d90162b0       MIRegistersHost_
d90162f0       MIRegistersTarget_
d9016330       MIRegSetWalk_
d90163c0       MIRegSetName_
d90163d0       MIRegSetLevel_
d9016660       MIRegSetDisplayGrouping_
d9017210       MIRegSetDisplayGetPiece_
d9017240       MIRegSetDisplayModify_
d90174e0       RegDispType_
d9017720       MIRegModified_
d9017990       MIRegInspectAddr_
d9017ad0       MIRegSetDisplayToggleList_
d9017ae0       MIRegSetDisplayToggle_
d9017bc0       MIRegWalk_
d9017cb0       GetRegSP_
d9017ce0+      GetRegFP_
d9017d10       GetRegIP_
d9017d40       MIRegSpecialGet_
d9017d80       MIRegSpecialSet_
d9017dc0       MIRegSpecialName_
d9017f60       MIRegFromContextItem_
d9017f70       MIRegUpdateStart_
d9017f80       MIRegUpdateEnd_
d9018160       RegInit_
d9018170       RegFini_
Module: x86call.obj(/mnt/sda5/.user/root/src/openwatcom-1.9/bld/mad/x86/c/x86call.c)
d9018200       MICallUpStackSize_
d9018200       MICallStackGrowsUp_
d9018210       MICallTypeList_
d9018220       MICallBuildFrame_
d9018330       MICallReturnReg_
d9018360       MICallParmRegList_
d9018450+      GetFarAddr_
d9018cd0       MICallUpStackInit_
d9018ce0       MICallUpStackLevel_
Module: x86disas.obj(/mnt/sda5/.user/root/src/openwatcom-1.9/bld/mad/x86/c/x86disas.c)
d901b954       _DbgAddr
d9018e20       MIDisasmDataSize_
d9018e30       MIDisasmNameMax_
d9018e40       DoCode_
d9018e90       DecodeIns_
d9018ed0       GetDisasmPrev_
d9018fb0       MIDisasm_
d9019010       MIDisasmFormat_
d9019170       MIDisasmInsSize_
d9019180       MIDisasmInsUndoable_
d9019210+      DisasmControl_
d9019210       MIDisasmControl_
d90195b0       MIDisasmInsNext_
d90197b0+      GetSegRegOverride_
d9019810+      MemReference_
d9019a30       DoDisasmMemRefWalk_
d9019bd0       MIDisasmMemRefWalk_
d9019bf0       MIDisasmToggleList_
d9019c00       MIDisasmToggle_
d9019cc0       MIDisasmInspectAddr_
d9019dc0       CnvRadix_
d9019e50       JmpLabel_
d9019ee0       ToSegStr_
d9019fd0       GetDataWord_
d901a000       GetDataLong_
d901a030       InitCache_
d901a080       DisCliGetData_
d901a0f0       DisCliValueString_
d901a280       DisasmInit_
d901a2b0       DisasmFini_
Module: x86trace.obj(/mnt/sda5/.user/root/src/openwatcom-1.9/bld/mad/x86/c/x86trace.c)
d901a2d0       MITraceSize_
d901a2e0       MITraceInit_
d901a2f0       MITraceHaveRecursed_
d901a6c0       MITraceOne_
d901a780       MITraceSimulate_
d901a7b0       MITraceFini_
d901a860       MIUnexpectedBreak_
Module: /mnt/sda5/.user/root/src/openwatcom-1.9/rel2/lib386/rdos/clib3r.lib(toupper.c)
d901a9a0       toupper_
Module: /mnt/sda5/.user/root/src/openwatcom-1.9/rel2/lib386/rdos/clib3r.lib(memset.c)
d901a9b0       memset_
Module: /mnt/sda5/.user/root/src/openwatcom-1.9/rel2/lib386/rdos/clib3r.lib(strupr.c)
d901a9d0       strupr_
Module: /mnt/sda5/.user/root/src/openwatcom-1.9/rel2/lib386/rdos/clib3r.lib(memmove.c)
d901a9f0       memmove_
Module: /mnt/sda5/.user/root/src/openwatcom-1.9/rel2/lib386/rdos/clib3r.lib(strncmp.c)
d901aa50       strncmp_
Module: /mnt/sda5/.user/root/src/openwatcom-1.9/rel2/lib386/rdos/clib3r.lib(strnicmp.c)
d901aa80       strnicmp_
Module: /mnt/sda5/.user/root/src/openwatcom-1.9/rel2/lib386/rdos/clib3r.lib(istable.c)
d901aad0       __IsTable
Module: /mnt/sda5/.user/root/src/openwatcom-1.9/rel2/lib386/rdos/clib3r.lib(__stos)
d901abe0       __STOSB
d901ac17*      __STOSD


                        +----------------------+
                        |   Imported Symbols   |
                        +----------------------+

Symbol                              Module
======                              ======



                        +--------------------+
                        |   Libraries Used   |
                        +--------------------+

/mnt/sda5/.user/root/src/openwatcom-1.9/rel2/lib386/rdos/clib3r.lib


                        +-----------------------+
                        |   Linker Statistics   |
                        +-----------------------+

Stack size:  0000 (0.)
Memory size:  0001a5eb (108011.)
Entry point address: 00000000
Link time: 00:00.00
