Open Watcom Linker Version 1.9
Portions Copyright (c) 1985-2002 Sybase, Inc. All Rights Reserved.
Created on:       12/12/16 02:42:15
Executable Image: wsamplew.exe
creating a Windows 16-bit executable


                        +------------+
                        |   Groups   |
                        +------------+

Group                           Address              Size
=====                           =======              ====

DGROUP                          0002:0000            000043a0



                        +--------------+
                        |   Segments   |
                        +--------------+

Segment                Class          Group          Address         Size
=======                =====          =====          =======         ====

BEGTEXT                CODE           AUTO           0001:0000       00000007
_TEXT                  CODE           AUTO           0001:0010       00008d86
FAR_DATA               FAR_DATA       AUTO           0002:0000       00000000
_NULL                  BEGDATA        DGROUP         0002:0000       00000010
AFX_NULL               BEGDATA        DGROUP         0002:0010       00000000
CONST                  DATA           DGROUP         0002:0010       000003d4
CONST2                 DATA           DGROUP         0002:03e4       00000102
_DATA                  DATA           DGROUP         0002:04e6       00000478
XIB                    DATA           DGROUP         0002:095e       00000000
XI                     DATA           DGROUP         0002:095e       00000018
XIE                    DATA           DGROUP         0002:0976       00000000
YIB                    DATA           DGROUP         0002:0976       00000000
YI                     DATA           DGROUP         0002:0976       00000012
YIE                    DATA           DGROUP         0002:0988       00000000
STRINGS                DATA           DGROUP         0002:0988       00000000
DATA                   DATA           DGROUP         0002:0988       00000000
BCSD                   DATA           DGROUP         0002:0988       00000000
_BSS                   BSS            DGROUP         0002:0990       0000120c
STACK                  STACK          DGROUP         0002:1ba0       00002800


                        +----------------+
                        |   Memory Map   |
                        +----------------+

* = unreferenced symbol
+ = symbol only referenced locally

Address        Symbol
=======        ======

Module: sampwin.obj(/mnt/sda5/.user/root/src/openwatcom-1.9/bld/wsample/c/sampwin.c)
0001:0010      FlushSamples_
0001:0114      VersionCheck_
0001:0118      GetCommArea_
0001:015c      ResetCommArea_
0001:01a4      GetNextAddr_
0001:0204      NextThread_
0001:020c      InitTimerRate_
0001:0214*     SetTimerRate_
0001:022c      TimerRate_
0001:0240      SafeMargin_
0001:0248      StopProg_
0001:024c      CloseShop_
0001:0284      SysDefaultOptions_
0001:02a0      StartProg_
0001:04dc      SysParseOptions_
0001:052c      WinGetCurrTick_
0002:04e6*     _win386sig
0002:04ea*     _win386sig2
Module: sampexe.obj(/mnt/sda5/.user/root/src/openwatcom-1.9/bld/wsample/c/sampexe.c)
0001:0570      GetProg_
0001:07c8      fatal_
Module: winmain.obj(/mnt/sda5/.user/root/src/openwatcom-1.9/bld/wsample/wini86/winmain.c)
0001:07e0+     ABOUT
0001:0824+     WinMessage_
0001:0870+     StartOutput_
0001:08d4+     MAINDRIVER
0001:09d0+     WindowsInit_
0001:0b00      Output_
0001:0b0c      MyOutput_
0001:0ba0      MessageLoop_
0001:0c04*     StartWDebug386_
0001:0c18      WINMAIN
0001:0e24      ResName_
Module: winopts.obj(/mnt/sda5/.user/root/src/openwatcom-1.9/bld/wsample/wini86/winopts.c)
0001:0f14+     ABOUT2
0001:0f50+     STARTUPDRIVER
0001:10cc+     SUBCLASSPROC
0001:111c      GetFileName_
Module: fault.obj(/mnt/sda5/.user/root/src/openwatcom-1.9/bld/wsample/wini86/fault.c)
0001:1430      _FaultHandler
Module: notify.obj(/mnt/sda5/.user/root/src/openwatcom-1.9/bld/wsample/wini86/notify.c)
0001:1628*     HandleNotify_
0001:162c      NOTIFYHANDLER
Module: libload.obj(/mnt/sda5/.user/root/src/openwatcom-1.9/bld/wsample/wini86/libload.c)
0001:19cc      HandleLibLoad_
Module: globals.obj(/mnt/sda5/.user/root/src/openwatcom-1.9/bld/wsample/wini86/globals.c)
0002:0530      _WaitForFirst
0002:0532      _IsSecondOK
0002:0534      _CommonAddr
0002:16c0      _SharedMemory
0002:16c4      _TotalTime
0002:16c8      _SampSave
0002:16cc      _IntData
0002:1702      _WDebug386
0002:1704      _MainWindowHandle
0002:1706      _SleepTime
0002:1708      _OutputWindow
0002:170a      _WaitForInt3
0002:170c      _WaitForInt1
0002:170e      _SampledProg
0002:1710      _InstanceHandle
0002:1712      _PrevInstance
Module: getidata.obj(/mnt/sda5/.user/root/src/openwatcom-1.9/bld/wsample/wini86/getidata.c)
0001:1a00      GetIData_
Module: segmem2.obj(/mnt/sda5/.user/root/src/openwatcom-1.9/bld/sdk/misc/segmem2.c)
0001:1a10+     GetADescriptor_
0001:1a84*     IsSeg32_
0001:1aa4      ReadMem_
0001:1af4      WriteMem_
Module: segmem.obj(/mnt/sda5/.user/root/src/openwatcom-1.9/bld/sdk/misc/segmem.asm)
0002:053a      _CopySize
0001:1b50*     GetASelectorLimit_
0001:1b62*     IsValidSelector_
0001:1b78      _CopyMemory_
Module: mythelp.obj(/mnt/sda5/.user/root/src/openwatcom-1.9/bld/sdk/misc/mythelp.c)
0001:1ba0      MyModuleFindHandle_
0001:1bd0*     MyStackTraceNext_
0001:1bec      MyTaskFindHandle_
0001:1c08*     MyTaskFirst_
0001:1c24*     MyTaskNext_
0001:1c40*     MyStackTraceCSIPFirst_
0001:1c68*     MyStackTraceFirst_
0001:1c84      MyGlobalFirst_
0001:1ca0      MyGlobalNext_
0001:1cbc      MyGlobalEntryModule_
0001:1cd8*     MyGlobalEntryHandle_
Module: inth.obj(/mnt/sda5/.user/root/src/openwatcom-1.9/bld/sdk/misc/inth.asm)
0001:1cf4      INTHANDLER
Module: intdata.obj(/mnt/sda5/.user/root/src/openwatcom-1.9/bld/sdk/misc/intdata.c)
0001:1d50      SaveState_
0001:1eb0      RestoreState_
Module: dbg386.obj(/mnt/sda5/.user/root/src/openwatcom-1.9/bld/sdk/misc/dbg386.c)
0002:1720      _DoneWithInterrupt
0002:1724+     _SetDebugInterrupts32
0002:1728      _GetDebugInterruptData
0002:172c+     _ResetDebugInterrupts32
0002:1730+     _IsDebuggerExecuting
0002:1734      _DebuggerIsExecuting
0001:1fc0      Start386Debug_
0001:2088      Done386Debug_
Module: ismod32.obj(/mnt/sda5/.user/root/src/openwatcom-1.9/bld/sdk/misc/ismod32.c)
0001:20b0      CheckIsModuleWin32App_
0001:21e4      FlagWin32AppAsDebugged_
Module: sample.obj(/mnt/sda5/.user/root/src/openwatcom-1.9/bld/wsample/c/sample.c)
0002:0544+     _Header
0002:054c+     _Last
0002:0554+     _FirstSample
0001:2270      WriteMark_
0001:230c      WriteCodeLoad_
0001:2404      WriteAddrMap_
0001:2458*     StopAndSave_
0001:2464      SaveSamples_
0001:2670*     RecordCGraph_
0001:2818      report_
0001:28c4      Usage_
0001:28e4+     skip_
0001:2900      GetNumber_
0001:2a04+     Parse_
0001:2bf4+     AllocSamples_
0001:2c90      sample_main_
Module: sampdata.obj(/mnt/sda5/.user/root/src/openwatcom-1.9/bld/wsample/c/sampdata.c)
0002:1740      _ExeName
0002:17c0      _Comm
0002:17d0      _SampName
0002:18d0      _CGraphOff
0002:18d4      _CallGraph
0002:18d8      _Samples
0002:18dc      _CGraphSeg
0002:18de*     _SampleIndex
0002:18e0      _Margin
0002:18e2      _InsiderTime
0002:18e4*     _LastSampleIndex
0002:18e6      _SamplerOff
0002:18e8*     _SampleCount
0002:18ea      _Ceiling
0002:18ec      _CallGraphMode
Module: io.obj(/mnt/sda5/.user/root/src/openwatcom-1.9/bld/wsample/wini86/io.c)
0001:2e30      SampWrite_
0001:2f24      SampSeek_
0001:2f38      SampClose_
Module: sysio.obj(/mnt/sda5/.user/root/src/openwatcom-1.9/bld/wsample/wini86/sysio.c)
0001:2f50      SysInit_
0001:2f54      SysOpen_
0001:2f78      SysCreate_
0001:2fa0*     SysDelete_
0001:2fc0      SysWrite_
0001:2fe4      SysSeek_
0001:3008      SysClose_
0001:3024      alloc_
0001:3028      mfree_
Module: wmsg.obj(/mnt/sda5/.user/root/src/openwatcom-1.9/bld/wsample/c/wmsg.c)
0001:3030      MsgInit_
0001:3100      MsgFini_
0001:3120      MsgPrintfUsage_
0002:18f0      _MsgArray
Module: /mnt/sda5/.user/root/src/openwatcom-1.9/rel2/lib286/win/clibc.lib(i4m)
0001:3150      __I4M
0001:3150      __U4M
Module: /mnt/sda5/.user/root/src/openwatcom-1.9/rel2/lib286/win/clibc.lib(i4d)
0001:3168*     __I4D
0001:31b1      __U4D
Module: /mnt/sda5/.user/root/src/openwatcom-1.9/rel2/lib286/win/clibc.lib(cmodel)
0001:3236      _small_code_
0001:3236*     CodeModelMismatch
Module: /mnt/sda5/.user/root/src/openwatcom-1.9/rel2/lib286/win/clibc.lib(split2.c)
0001:32ac      _splitpath2_
Module: /mnt/sda5/.user/root/src/openwatcom-1.9/rel2/lib286/win/clibc.lib(makepath.c)
0001:347f      _makepath_
Module: /mnt/sda5/.user/root/src/openwatcom-1.9/rel2/lib286/win/clibc.lib(searchen.c)
0001:36cf      _searchenv_
Module: /mnt/sda5/.user/root/src/openwatcom-1.9/rel2/lib286/win/clibc.lib(tolower.c)
0001:3848      tolower_
Module: /mnt/sda5/.user/root/src/openwatcom-1.9/rel2/lib286/win/clibc.lib(dosdrive)
0001:3856*     _dos_getdrive_
0001:386a      _dos_setdrive_
Module: /mnt/sda5/.user/root/src/openwatcom-1.9/rel2/lib286/win/clibc.lib(chdir.c)
0001:3880      chdir_
Module: /mnt/sda5/.user/root/src/openwatcom-1.9/rel2/lib286/win/clibc.lib(accss.c)
0001:3894      access_
Module: /mnt/sda5/.user/root/src/openwatcom-1.9/rel2/lib286/win/clibc.lib(exit.c)
0001:38cb+     __null_int23_exit_
0001:38cc      exit_
0001:38f5      _exit_
0002:0558+     ___int23_exit
0002:055a+     ___FPE_handler_exit
Module: /mnt/sda5/.user/root/src/openwatcom-1.9/rel2/lib286/win/clibc.lib(vsprintf.c)
0001:392c      vsprintf_
Module: /mnt/sda5/.user/root/src/openwatcom-1.9/rel2/lib286/win/clibc.lib(wrlang.c)
0001:3952      _WResLanguage_
Module: /mnt/sda5/.user/root/src/openwatcom-1.9/rel2/lib286/win/clibc.lib(wstart)
0000:0006*     pLocalHeap
0000:0008*     pAtomTable
0000:000a*     pStackTop
0000:000c*     pStackMin
0000:000e*     pStackBot
0001:0003*     ___begtext
0002:0000*     __nullarea
0002:055e      __curbrk
0002:0560*     __psp
0002:0562      __osmajor
0002:0563*     __osminor
0002:0564      __osmode
0002:000a      __STACKLOW
0002:000c*     __STACKTOP
0002:0566*     __cbyte
0002:0568*     __child
0002:056a*     __no87
0002:0565*     __HShift
0002:056c*     __get_ovl_stack
0002:0570*     __restore_ovl_stack
0002:0574*     ___FPE_handler
0002:0578*     __LpCmdLine
0002:057c*     __LpPgmName
0001:39fe      _wstart_
0001:39fe*     _cstart_
0001:3ade      __exit_
0001:3aef      __GETDS
Module: /mnt/sda5/.user/root/src/openwatcom-1.9/rel2/lib286/win/clibc.lib(open.c)
0001:3cfd      open_
0001:3d35+     sopen_
Module: /mnt/sda5/.user/root/src/openwatcom-1.9/rel2/lib286/win/clibc.lib(read.c)
0001:3d63      read_
Module: /mnt/sda5/.user/root/src/openwatcom-1.9/rel2/lib286/win/clibc.lib(lseek.c)
0001:3ec2      lseek_
Module: /mnt/sda5/.user/root/src/openwatcom-1.9/rel2/lib286/win/clibc.lib(close.c)
0001:3eed      close_
Module: /mnt/sda5/.user/root/src/openwatcom-1.9/rel2/lib286/win/clibc.lib(intr.c)
0001:3ef0      intr_
Module: /mnt/sda5/.user/root/src/openwatcom-1.9/rel2/lib286/win/clibc.lib(stack086.c)
0001:3f02      stackavail_
Module: /mnt/sda5/.user/root/src/openwatcom-1.9/rel2/lib286/win/clibc.lib(stat.c)
0001:3f83      stat_
Module: /mnt/sda5/.user/root/src/openwatcom-1.9/rel2/lib286/win/clibc.lib(istable.c)
0002:03e4      __IsTable
Module: /mnt/sda5/.user/root/src/openwatcom-1.9/rel2/lib286/win/clibc.lib(fmalloc.c)
0001:4256      _fmalloc_
0001:4256      malloc_
0002:0610+     ___fheap
0002:0612      ___fheapRover
0002:0614      ___LargestSizeB4Rover
Module: /mnt/sda5/.user/root/src/openwatcom-1.9/rel2/lib286/win/clibc.lib(ffree.c)
0001:4342      _ffree_
0001:4342      free_
Module: /mnt/sda5/.user/root/src/openwatcom-1.9/rel2/lib286/win/clibc.lib(mbsnccnt.c)
0001:4378      _mbsnccnt_
Module: /mnt/sda5/.user/root/src/openwatcom-1.9/rel2/lib286/win/clibc.lib(mbsncpy.c)
0001:43a8      _mbsncpy_
Module: /mnt/sda5/.user/root/src/openwatcom-1.9/rel2/lib286/win/clibc.lib(mbsnbcnt.c)
0001:43db      _mbsnbcnt_
Module: /mnt/sda5/.user/root/src/openwatcom-1.9/rel2/lib286/win/clibc.lib(mbsnextc.c)
0001:4445      _mbsnextc_
Module: /mnt/sda5/.user/root/src/openwatcom-1.9/rel2/lib286/win/clibc.lib(mbsinc.c)
0001:4471      _mbsinc_
Module: /mnt/sda5/.user/root/src/openwatcom-1.9/rel2/lib286/win/clibc.lib(mbconv.c)
0001:44a6      _mbvtop_
Module: /mnt/sda5/.user/root/src/openwatcom-1.9/rel2/lib286/win/clibc.lib(mbclen.c)
0001:44be      _mbclen_
Module: /mnt/sda5/.user/root/src/openwatcom-1.9/rel2/lib286/win/clibc.lib(mbsdec.c)
0001:44e5      _mbsdec_
Module: /mnt/sda5/.user/root/src/openwatcom-1.9/rel2/lib286/win/clibc.lib(errno.c)
0001:456b      __get_errno_ptr_
0001:4571      __get_doserrno_ptr_
0002:1a64+     _errno
0002:1a66+     __doserrno
Module: /mnt/sda5/.user/root/src/openwatcom-1.9/rel2/lib286/win/clibc.lib(gtcwd.c)
0001:4577      getcwd_
Module: /mnt/sda5/.user/root/src/openwatcom-1.9/rel2/lib286/win/clibc.lib(strlen.c)
0001:461f      strlen_
Module: /mnt/sda5/.user/root/src/openwatcom-1.9/rel2/lib286/win/clibc.lib(strncat.c)
0001:4634      strncat_
Module: /mnt/sda5/.user/root/src/openwatcom-1.9/rel2/lib286/win/clibc.lib(getenv.c)
0001:4673      getenv_
Module: /mnt/sda5/.user/root/src/openwatcom-1.9/rel2/lib286/win/clibc.lib(strcat.c)
0001:472a      strcat_
Module: /mnt/sda5/.user/root/src/openwatcom-1.9/rel2/lib286/win/clibc.lib(seterrno.c)
0001:475a      __set_errno_
0001:476d*     __set_EDOM_
0001:477e*     __set_ERANGE_
0001:478f*     __set_EINVAL_
0001:47a3      __set_doserrno_
Module: /mnt/sda5/.user/root/src/openwatcom-1.9/rel2/lib286/win/clibc.lib(doserror)
0001:47ae      __doserror_
Module: /mnt/sda5/.user/root/src/openwatcom-1.9/rel2/lib286/win/clibc.lib(gfattdos.c)
0001:47ba      _dos_getfileattr_
Module: /mnt/sda5/.user/root/src/openwatcom-1.9/rel2/lib286/win/clibc.lib(dosret.c)
0001:47cf*     _dosretax_
0001:47d4*     _dosret0_
0001:47db      __set_errno_dos_
0001:482b*     __set_errno_dos_reterr_
Module: /mnt/sda5/.user/root/src/openwatcom-1.9/rel2/lib286/win/clibc.lib(winrtns.c)
0002:062a      __WindowsIsWindowedHandle
0002:062c      __WindowsRemoveWindowedHandle
0002:062e      __WindowsNewWindow
0002:0630      __WindowsCloseWindow
0002:0632*     __WindowsSetAbout
0002:0634*     __WindowsSetAppTitle
0002:0636*     __WindowsSetConTitle
0002:0638*     __WindowsDestroyOnClose
0002:063a*     __WindowsYieldControl
0002:063c*     __WindowsShutDown
0002:063e      __WindowsStdin
0002:0640      __WindowsStdout
0002:0642*     __WindowsKbhit
0002:0644*     __WindowsGetch
0002:0646*     __WindowsGetche
0002:0648*     __WindowsPutch
0002:064a      __WindowsExitRtn
Module: /mnt/sda5/.user/root/src/openwatcom-1.9/rel2/lib286/win/clibc.lib(initrtns.c)
0001:4872      __FInitRtns
0001:487c+     __InitRtns
0001:48d8      __FFiniRtns
0001:48e2      __FiniRtns
Module: /mnt/sda5/.user/root/src/openwatcom-1.9/rel2/lib286/win/clibc.lib(prtf.c)
0001:4945      __prtf_
Module: /mnt/sda5/.user/root/src/openwatcom-1.9/rel2/lib286/win/clibc.lib(stricmp.c)
0001:5801      stricmp_
Module: /mnt/sda5/.user/root/src/openwatcom-1.9/rel2/lib286/win/clibc.lib(dosseg)
0001:5840      __DOSseg__
Module: /mnt/sda5/.user/root/src/openwatcom-1.9/rel2/lib286/win/clibc.lib(opendos.c)
0001:5841      _dos_open_
Module: /mnt/sda5/.user/root/src/openwatcom-1.9/rel2/lib286/win/clibc.lib(iomode.c)
0001:5865      __GetIOMode_
0001:5881      __SetIOMode_nogrow_
0002:064c      ___NFiles
0002:064e      ___init_mode
0002:0676      ___io_mode
Module: /mnt/sda5/.user/root/src/openwatcom-1.9/rel2/lib286/win/clibc.lib(isatt.c)
0001:589b      isatty_
Module: /mnt/sda5/.user/root/src/openwatcom-1.9/rel2/lib286/win/clibc.lib(umaskval.c)
0002:067a      ___umaskval
Module: /mnt/sda5/.user/root/src/openwatcom-1.9/rel2/lib286/win/clibc.lib(creatdos.c)
0001:58cc      _dos_creat_
0001:58ee*     _dos_creatnew_
Module: /mnt/sda5/.user/root/src/openwatcom-1.9/rel2/lib286/win/clibc.lib(stiomode.c)
0001:590e+     __grow_iomode_
0001:59c1+     __shrink_iomode_
0001:59ee      __SetIOMode_
Module: /mnt/sda5/.user/root/src/openwatcom-1.9/rel2/lib286/win/clibc.lib(iob.c)
0002:067c      ___iob
0002:07e4      __fmode
0002:1a6a      ___OpenStreams
0002:1a6e      ___ClosedStreams
Module: /mnt/sda5/.user/root/src/openwatcom-1.9/rel2/lib286/win/clibc.lib(iomodtty.c)
0001:5a40      __ChkTTYIOMode_
0001:5a79*     __IOMode_
Module: /mnt/sda5/.user/root/src/openwatcom-1.9/rel2/lib286/win/clibc.lib(__lseek.c)
0001:5a86      __lseek_
Module: /mnt/sda5/.user/root/src/openwatcom-1.9/rel2/lib286/win/clibc.lib(_clse.c)
0001:5abf      __close_
Module: /mnt/sda5/.user/root/src/openwatcom-1.9/rel2/lib286/win/clibc.lib(dointr)
0001:5b14      _DoINTR_
Module: /mnt/sda5/.user/root/src/openwatcom-1.9/rel2/lib286/win/clibc.lib(mbschr.c)
0001:5e8d      _mbschr_
Module: /mnt/sda5/.user/root/src/openwatcom-1.9/rel2/lib286/win/clibc.lib(mbscmp.c)
0001:5f08      _mbscmp_
Module: /mnt/sda5/.user/root/src/openwatcom-1.9/rel2/lib286/win/clibc.lib(mbspbrk.c)
0001:5f96      _mbspbrk_
Module: /mnt/sda5/.user/root/src/openwatcom-1.9/rel2/lib286/win/clibc.lib(fullpath.c)
0001:5fe7+     _sys_fullpath_
0001:6295      _fullpath_
Module: /mnt/sda5/.user/root/src/openwatcom-1.9/rel2/lib286/win/clibc.lib(finddos.c)
0001:6348      _dos_findfirst_
0001:6379*     _dos_findnext_
0001:638a      _dos_findclose_
Module: /mnt/sda5/.user/root/src/openwatcom-1.9/rel2/lib286/win/clibc.lib(fstat.c)
0001:638d      fstat_
Module: /mnt/sda5/.user/root/src/openwatcom-1.9/rel2/lib286/win/clibc.lib(d2ttime.c)
0001:64fa      _d2ttime_
Module: /mnt/sda5/.user/root/src/openwatcom-1.9/rel2/lib286/win/clibc.lib(mem.c)
0001:6570      __MemAllocator
0001:663c      __MemFree
Module: /mnt/sda5/.user/root/src/openwatcom-1.9/rel2/lib286/win/clibc.lib(growseg.c)
0001:6799      __GrowSeg_
Module: /mnt/sda5/.user/root/src/openwatcom-1.9/rel2/lib286/win/clibc.lib(allocseg.c)
0001:68d1      __AllocSeg_
Module: /mnt/sda5/.user/root/src/openwatcom-1.9/rel2/lib286/win/clibc.lib(fmemneed.c)
0001:69a5      __fmemneed_
Module: /mnt/sda5/.user/root/src/openwatcom-1.9/rel2/lib286/win/clibc.lib(nmalloc.c)
0001:69a8      _nmalloc_
0002:07e6      ___nheapbeg
0002:07e8      ___MiniHeapRover
0002:07ea      ___LargestSizeB4MiniHeapRover
Module: /mnt/sda5/.user/root/src/openwatcom-1.9/rel2/lib286/win/clibc.lib(nfree.c)
0001:6a62      _nfree_
0002:1a72      ___MiniHeapFreeRover
Module: /mnt/sda5/.user/root/src/openwatcom-1.9/rel2/lib286/win/clibc.lib(mbterm.c)
0001:6b23      _mbterm_
Module: /mnt/sda5/.user/root/src/openwatcom-1.9/rel2/lib286/win/clibc.lib(mbsnbcpy.c)
0001:6b5f      _mbsnbcpy_
Module: /mnt/sda5/.user/root/src/openwatcom-1.9/rel2/lib286/win/clibc.lib(mbisdbcs.c)
0002:1a74      ___IsDBCS
Module: /mnt/sda5/.user/root/src/openwatcom-1.9/rel2/lib286/win/clibc.lib(mbislead.c)
0001:6bdb*     _ismbblead_
0002:1a76      ___MBCSIsTable
Module: /mnt/sda5/.user/root/src/openwatcom-1.9/rel2/lib286/win/clibc.lib(strncpy.c)
0001:6bf0      strncpy_
Module: /mnt/sda5/.user/root/src/openwatcom-1.9/rel2/lib286/win/clibc.lib(environ.c)
0002:1b78      ___env_mask
0002:1b7c      _environ
0002:1b80*     __wenviron
Module: /mnt/sda5/.user/root/src/openwatcom-1.9/rel2/lib286/win/clibc.lib(mbcupper.c)
0001:6c2c      _mbctoupper_
Module: /mnt/sda5/.user/root/src/openwatcom-1.9/rel2/lib286/win/clibc.lib(sgdef086)
0002:095e      __Start_XI
0002:0976      __End_XI
0002:0976      __Start_YI
0002:0988      __End_YI
Module: /mnt/sda5/.user/root/src/openwatcom-1.9/rel2/lib286/win/clibc.lib(wctomb.c)
0001:6c40      wctomb_
Module: /mnt/sda5/.user/root/src/openwatcom-1.9/rel2/lib286/win/clibc.lib(itoa.c)
0001:6c6c+     utoa_
0001:6ccd      itoa_
Module: /mnt/sda5/.user/root/src/openwatcom-1.9/rel2/lib286/win/clibc.lib(strupr.c)
0001:6cf1      strupr_
Module: /mnt/sda5/.user/root/src/openwatcom-1.9/rel2/lib286/win/clibc.lib(noefgfmt.c)
0002:07ec      ___EFG_printf
0002:07ee*     ___EFG_scanf
Module: /mnt/sda5/.user/root/src/openwatcom-1.9/rel2/lib286/win/clibc.lib(lltoa.c)
0001:6d25      ulltoa_
0001:6e0c*     lltoa_
Module: /mnt/sda5/.user/root/src/openwatcom-1.9/rel2/lib286/win/clibc.lib(ltoa.c)
0001:6e6e      ultoa_
0001:6edf*     ltoa_
Module: /mnt/sda5/.user/root/src/openwatcom-1.9/rel2/lib286/win/clibc.lib(frealloc.c)
0001:6f0e*     _frealloc_
0001:6f0e      realloc_
Module: /mnt/sda5/.user/root/src/openwatcom-1.9/rel2/lib286/win/clibc.lib(initfile.c)
0001:6fcf      __InitFiles_
Module: /mnt/sda5/.user/root/src/openwatcom-1.9/rel2/lib286/win/clibc.lib(ioexit.c)
0001:710d*     fcloseall_
0001:7112      __full_io_exit_
Module: /mnt/sda5/.user/root/src/openwatcom-1.9/rel2/lib286/win/clibc.lib(mbccmp.c)
0001:711a      _mbccmp_
Module: /mnt/sda5/.user/root/src/openwatcom-1.9/rel2/lib286/win/clibc.lib(stk)
0001:7173      __STK
0001:718a*     __STKOVERFLOW_
Module: /mnt/sda5/.user/root/src/openwatcom-1.9/rel2/lib286/win/clibc.lib(filelen.c)
0001:71a5      filelength_
Module: /mnt/sda5/.user/root/src/openwatcom-1.9/rel2/lib286/win/clibc.lib(mktime.c)
0001:71fe      mktime_
Module: /mnt/sda5/.user/root/src/openwatcom-1.9/rel2/lib286/win/clibc.lib(heapen.c)
0001:72a7*     _heapenable_
0002:07f2      ___heap_enabled
Module: /mnt/sda5/.user/root/src/openwatcom-1.9/rel2/lib286/win/clibc.lib(amblksiz.c)
0002:07f4      __amblksiz
Module: /mnt/sda5/.user/root/src/openwatcom-1.9/rel2/lib286/win/clibc.lib(wallflgs.c)
0002:07f6      ___win_alloc_flags
0002:07fa      ___win_realloc_flags
Module: /mnt/sda5/.user/root/src/openwatcom-1.9/rel2/lib286/win/clibc.lib(nmemneed.c)
0001:72b3      __nmemneed_
Module: /mnt/sda5/.user/root/src/openwatcom-1.9/rel2/lib286/win/clibc.lib(grownear.c)
0001:73d1      __ExpandDGROUP_
Module: /mnt/sda5/.user/root/src/openwatcom-1.9/rel2/lib286/win/clibc.lib(mbinit.c)
0001:7412      __mbinit_
0002:07fe      ___MBCodePage
Module: /mnt/sda5/.user/root/src/openwatcom-1.9/rel2/lib286/win/clibc.lib(setenvp.c)
0001:74ae      __setenvp_
0001:75a6      __freeenvp_
Module: /mnt/sda5/.user/root/src/openwatcom-1.9/rel2/lib286/win/clibc.lib(mbdtoupp.c)
0001:75e4      _mbdtoupper_
Module: /mnt/sda5/.user/root/src/openwatcom-1.9/rel2/lib286/win/clibc.lib(toupper.c)
0001:75f2      toupper_
Module: /mnt/sda5/.user/root/src/openwatcom-1.9/rel2/lib286/win/clibc.lib(alphabet.c)
0002:037a      ___Alphabet
Module: /mnt/sda5/.user/root/src/openwatcom-1.9/rel2/lib286/win/clibc.lib(xmsgwin.c)
0001:7600+     __exit_with_msg_
0001:765d      __fatal_runtime_error_
Module: /mnt/sda5/.user/root/src/openwatcom-1.9/rel2/lib286/win/clibc.lib(fmsize.c)
0001:7677*     _msize_
0001:7677      _fmsize_
Module: /mnt/sda5/.user/root/src/openwatcom-1.9/rel2/lib286/win/clibc.lib(nexpand.c)
0001:7689      __HeapManager_expand_
0001:7822      _nexpand_
Module: /mnt/sda5/.user/root/src/openwatcom-1.9/rel2/lib286/win/clibc.lib(fexpand.c)
0001:784b      _fexpand_
0001:784b*     _expand_
Module: /mnt/sda5/.user/root/src/openwatcom-1.9/rel2/lib286/win/clibc.lib(fclose.c)
0001:787e+     __doclose_
0001:7930      __shutdown_stream_
0001:7947*     fclose_
0002:1b88+     ___RmTmpFileFn
Module: /mnt/sda5/.user/root/src/openwatcom-1.9/rel2/lib286/win/clibc.lib(freefp.c)
0001:7990      __freefp_
0001:7a0c      __purgefp_
Module: /mnt/sda5/.user/root/src/openwatcom-1.9/rel2/lib286/win/clibc.lib(locmktim.c)
0001:7a3d      __local_mktime_
Module: /mnt/sda5/.user/root/src/openwatcom-1.9/rel2/lib286/win/clibc.lib(gmtime.c)
0001:7c46      __brktime_
0001:7d9e+     _gmtime_
0001:7dc2*     gmtime_
Module: /mnt/sda5/.user/root/src/openwatcom-1.9/rel2/lib286/win/clibc.lib(tzset.c)
0002:0800      ___start_dst
0002:0812      ___end_dst
0002:0926*     _tzname
0002:092e      _timezone
0002:0932      _daylight
0002:0934      ___dst_adjust
0001:7dcf*     __DontCacheOSTZ_
0001:7de3*     __CacheOSTZ_
0001:836f+     __parse_tz_
0001:8508      tzset_
Module: /mnt/sda5/.user/root/src/openwatcom-1.9/rel2/lib286/win/clibc.lib(timeutil.c)
0001:8672      __isindst_
Module: /mnt/sda5/.user/root/src/openwatcom-1.9/rel2/lib286/win/clibc.lib(nheapmin.c)
0001:897a      _nheapshrink_
0001:897a*     _nheapmin_
Module: /mnt/sda5/.user/root/src/openwatcom-1.9/rel2/lib286/win/clibc.lib(clearenv.c)
0001:8a24      clearenv_
Module: /mnt/sda5/.user/root/src/openwatcom-1.9/rel2/lib286/win/clibc.lib(enterdb.c)
0001:8aee      __EnterWVIDEO_
0002:095c+     ___WD_Present
Module: /mnt/sda5/.user/root/src/openwatcom-1.9/rel2/lib286/win/clibc.lib(bfree.c)
0001:8b0a      _bfree_
Module: /mnt/sda5/.user/root/src/openwatcom-1.9/rel2/lib286/win/clibc.lib(bexpand.c)
0001:8b2b      _bexpand_
Module: /mnt/sda5/.user/root/src/openwatcom-1.9/rel2/lib286/win/clibc.lib(flush.c)
0001:8b81      __flush_
Module: /mnt/sda5/.user/root/src/openwatcom-1.9/rel2/lib286/win/clibc.lib(leapyear.c)
0001:8cca      __leapyear_
0002:03b0      ___diyr
0002:03ca      ___dilyr
Module: /mnt/sda5/.user/root/src/openwatcom-1.9/rel2/lib286/win/clibc.lib(fsync.c)
0001:8cf4      fsync_
Module: /mnt/sda5/.user/root/src/openwatcom-1.9/rel2/lib286/win/clibc.lib(qwrit.c)
0001:8cf7      __qwrite_
Module: /mnt/sda5/.user/root/src/openwatcom-1.9/rel2/lib286/win/clibc.lib(filedos.c)
0001:8d7c*     _dos_close_
0001:8d88      _dos_commit_


                        +----------------------+
                        |   Imported Symbols   |
                        +----------------------+

Symbol                              Module
======                              ======

GLOBALFREE                          KERNEL
KILLTIMER                           USER
MODULEFIRST                         TOOLHELP
MODULENEXT                          TOOLHELP
MAKEPROCINSTANCE                    KERNEL
INTERRUPTREGISTER                   TOOLHELP
NOTIFYREGISTER                      TOOLHELP
INTERRUPTUNREGISTER                 TOOLHELP
LOADMODULE                          KERNEL
NOTIFYUNREGISTER                    TOOLHELP
ENDDIALOG                           USER
MESSAGEBOX                          USER
CREATEWINDOW                        USER
SHOWWINDOW                          USER
UPDATEWINDOW                        USER
POSTQUITMESSAGE                     USER
DESTROYWINDOW                       USER
DIALOGBOX                           USER
FREEPROCINSTANCE                    KERNEL
DEFWINDOWPROC                       USER
SETTIMER                            USER
GLOBALALLOC                         KERNEL
LOADICON                            USER
LOADCURSOR                          USER
GETSTOCKOBJECT                      GDI
REGISTERCLASS                       USER
GETSYSTEMMETRICS                    USER
SENDMESSAGE                         USER
PEEKMESSAGE                         USER
GETMESSAGE                          USER
TRANSLATEMESSAGE                    USER
DISPATCHMESSAGE                     USER
YIELD                               KERNEL
GETOPENFILENAME                     COMMDLG
GETWINDOWTEXT                       USER
SETWINDOWTEXT                       USER
SETFOCUS                            USER
GETWINDOWTEXTLENGTH                 USER
GETPARENT                           USER
SETWINDOWLONG                       USER
GETWINDOWWORD                       USER
POSTMESSAGE                         USER
CALLWINDOWPROC                      USER
LOADACCELERATORS                    USER
GETDC                               USER
GETTEXTMETRICS                      GDI
RELEASEDC                           USER
GETWINDOWLONG                       USER
TRANSLATEACCELERATOR                USER
GETCURRENTTASK                      KERNEL
GLOBALLOCK                          KERNEL
GLOBALUNLOCK                        KERNEL
GETINSTANCEDATA                     KERNEL
MEMORYREAD                          TOOLHELP
MEMORYWRITE                         TOOLHELP
MODULEFINDHANDLE                    TOOLHELP
STACKTRACENEXT                      TOOLHELP
TASKFINDHANDLE                      TOOLHELP
TASKFIRST                           TOOLHELP
TASKNEXT                            TOOLHELP
STACKTRACECSIPFIRST                 TOOLHELP
STACKTRACEFIRST                     TOOLHELP
GLOBALFIRST                         TOOLHELP
GLOBALNEXT                          TOOLHELP
GLOBALENTRYMODULE                   TOOLHELP
GLOBALENTRYHANDLE                   TOOLHELP
TerminateApp                        TOOLHELP
LOADLIBRARY                         KERNEL
GETPROCADDRESS                      KERNEL
FREELIBRARY                         KERNEL
LOADSTRING                          USER
GETPROFILESTRING                    KERNEL
INITTASK                            KERNEL
GETMODULEFILENAME                   KERNEL
INITAPP                             USER
WAITEVENT                           KERNEL
__AHSHIFT                           KERNEL
_LREAD                              KERNEL
GLOBALHANDLE                        KERNEL
GLOBALREALLOC                       KERNEL
LOCALALLOC                          KERNEL
GETVERSION                          KERNEL
ISDBCSLEADBYTE                      KERNEL
GETKBCODEPAGE                       KEYBOARD
GETDOSENVIRONMENT                   KERNEL
LOCALFREE                           KERNEL


                        +--------------------+
                        |   Libraries Used   |
                        +--------------------+

/mnt/sda5/.user/root/src/openwatcom-1.9/rel2/lib286/win/windows.lib
/mnt/sda5/.user/root/src/openwatcom-1.9/rel2/lib286/win/commdlg.lib
/mnt/sda5/.user/root/src/openwatcom-1.9/rel2/lib286/win/toolhelp.lib
/mnt/sda5/.user/root/src/openwatcom-1.9/rel2/lib286/win/clibc.lib


                        +-----------------------+
                        |   Linker Statistics   |
                        +-----------------------+

Stack size:  2800 (10240.)
Memory size:  d136 (53558.)
Entry point address: 0001:39fe
Link time: 00:00.00
