Open Watcom Linker Version 1.9
Portions Copyright (c) 1985-2002 Sybase, Inc. All Rights Reserved.
Created on:       12/12/16 02:29:52
Executable Image: cvpack.exe
creating a Windows NT character-mode executable


                        +------------+
                        |   Groups   |
                        +------------+

Group                           Address              Size
=====                           =======              ====

.idata                          00426000             00000686
DGROUP                          00427000             0002db30



                        +--------------+
                        |   Segments   |
                        +--------------+

Segment                Class          Group          Address         Size
=======                =====          =====          =======         ====

BEGTEXT                CODE           AUTO           00401000        00000007
_TEXT                  CODE           AUTO           00401010        000247b5
TRANSFER CODE          CODE           AUTO           004257c8        00000162
.idata                 .idata         .idata         00426000        00000686
_NULL                  BEGDATA        DGROUP         00427000        00000004
_AFTERNULL             BEGDATA        DGROUP         00427004        00000000
CONST                  DATA           DGROUP         00427004        00000480
CONST2                 DATA           DGROUP         00427490        0000982c
_DATA                  DATA           DGROUP         00430cc0        00002b00
XIB                    DATA           DGROUP         004337c0        00000000
XI                     DATA           DGROUP         004337c0        00000048
XIE                    DATA           DGROUP         00433808        00000000
YIB                    DATA           DGROUP         00433808        00000000
YI                     DATA           DGROUP         00433808        00000024
YIE                    DATA           DGROUP         0043382c        00000000
TIB                    DATA           DGROUP         0043382c        00000000
TI                     DATA           DGROUP         0043382c        00000000
TIE                    DATA           DGROUP         0043382c        00000000
DATA                   DATA           DGROUP         0043382c        00000000
_BSS                   BSS            DGROUP         00434000        00010b25
STACK                  STACK          DGROUP         00444b30        00010000


                        +----------------+
                        |   Memory Map   |
                        +----------------+

* = unreferenced symbol
+ = symbol only referenced locally

Address        Symbol
=======        ======

Module: cvpack.obj(/mnt/sda5/.user/root/src/openwatcom-1.9/bld/cvpack/cpp/cvpack.cpp)
00402140+      W?$dt:FileError$n()_
00402150       W?$dt:OutOfMemory$n()_
00402160       W?$dt:MiscError$n()_
00402170       W?$ct:WCExcept$n()_
00402180       W?$dt:WCExcept$n()_
00402200+      W?$dt:TypeIndexMap$n()_
004022a0       W?$ct:WCIsvListBase$n()_
00402300+      W?$dt:Retriever$n()_
00402390+      W?$dt:ODirectory$n()_
00402430+      W?$dt:ExeMaker$n()_
00402440+      W?$ct:TypeArray$n()_
00402480       W?$dt:TypeArray$n()_
004024f0       W?$dt:GlobalTypeArray$n()_
004025f0+      W?$ct:LocalTypeArray$n()_
00402740+      W?$dt:LocalTypeArray$n()_
00402880+      W?$ct:SstGlobalTypes$n()_
004029d0+      W?$dt:SstGlobalTypes$n()_
00402ba0+      W?$ct:SstGlobalSym$n()_
00402c40+      W?$dt:SstGlobalSym$n()_
00402cd0+      W?$dt:CVpack$n()_
00402dd0+      W?$dt:SymbolDistributor$n()_
00401070       W?NumLeafLength$n(pnxa)ui
004010b0+      W?ConvertFName$n(pna)v
00401130+      W?outOfMemory$n()v
00401150+      W?DoExeCode$:CVpack$n()v
004011f0+      W?DoSstModule$:CVpack$n()ui
00401280+      W?DumpSig$:CVpack$n()v
004012a0*      W?DoSrcModule$:CVpack$n(ui)ui
00401320+      W?DoSegMap$:CVpack$n()ui
004013c0+      W?DoAlignSym$:CVpack$n(pn$SstAlignSym$$ui)v
00401400+      W?DoGlobalSym$:CVpack$n(rn$SstGlobalSym$$ui)v
00401450+      W?DoStaticSym$:CVpack$n(rn$SstGlobalSym$$ui)v
004014a0+      W?DoDirectory$:CVpack$n()v
00402ee0       W?$ct:MiscError$n(rnx$0$)_
00402f00       W?$ct:OutOfMemory$n(rnx$0$)_
00402f20+      W?$ct:FileError$n(rnx$0$)_
00402f40       W?$ct:RetrieveError$n(rnx$0$)_
00402f50       W?$dt:RetrieveError$n()_
00402f60       W?$ct:CVpackError$n(rnx$0$)_
00402f70       W?$dt:CVpackError$n()_
00402f80       W?base_init_upto$:WCBareVectorBase$::1n$__304un0mappingStruct$:TypeIndexMap$$n(i)v
00402fc0       W?$dt:WCBareVectorBase$::1n$__304un0mappingStruct$:TypeIndexMap$$n()_
00403040       W?base_init_upto$:WCBareVectorBase$::1npnvn(i)v
00403080       W?$dt:WCBareVectorBase$::1npnvn()_
00403100       W?$dt:WCVectorBase$::1npnvn()_
00403120       W?$dt:WCOrderedVectorBase$::1npnvn()_
00403140       W?base_find$:WCOrderedVectorBase$::1npnvn.x(rnxpnv$find_type$:WCVectorBase$::1npnv$pni)i
004031a0       W?base_init_upto$:WCPtrVectorBase$::1n$LFTypeRecord$$1n$WCOrderedVectorBase$::1npnv$n(i)v
004031e0       W?$dt:WCPtrVectorBase$::1n$LFTypeRecord$$1n$WCOrderedVectorBase$::1npnv$n()_
00403200       W?$dt:WCValVector$::1n$__304un0mappingStruct$:TypeIndexMap$$n()_
004032a0+      W?$dt:WCValVector$::1npnvn()_
00403340+      W?$ct:WCPtrVector$::1n$SymbolStruct$$n(ui)_
004033b0+      W?$dt:WCPtrVector$::1n$SymbolStruct$$n()_
00403470       W?base_init_upto$:WCPtrVector$::1n$SymbolStruct$$n(i)v
004034b0       W?base_equivalent$:WCPtrOrderedVector$::1n$LFTypeRecord$$n.x(rnxpnvrnxpnv)i
004034c0       W?$ct:WCPtrOrderedVector$::1n$LFTypeRecord$$n(uiui)_
00403570       W?$dt:WCPtrOrderedVector$::1n$LFTypeRecord$$n()_
00403620       W?$dt:MyValBoundVector$::1n$__304un0mappingStruct$:TypeIndexMap$$n()_
00403710       W?WCListDelete$:WCIsvSListBase$::1n$WCNIsvSLink$::1npn$cv_dir_entry$$$n(pn$WCSLink$$)v
00403770       W?$dt:WCIsvSListBase$::1n$WCNIsvSLink$::1npn$cv_dir_entry$$$n()_
00403790       W?WCListDelete$:WCIsvSListBase$::1n$WCNIsvSLink$::1npn$LFSubField$$$n(pn$WCSLink$$)v
004037f0       W?$dt:WCIsvSListBase$::1n$WCNIsvSLink$::1npn$LFSubField$$$n()_
00403810       W?WCListDelete$:WCIsvSListBase$::1n$WCNIsvSLink$::1npn$my_ct_mlist$$$n(pn$WCSLink$$)v
00403870       W?$dt:WCIsvSListBase$::1n$WCNIsvSLink$::1npn$my_ct_mlist$$$n()_
00403890       W?WCListDelete$:WCIsvSListBase$::1n$WCNIsvSLink$::1nus$n(pn$WCSLink$$)v
004038f0       W?$dt:WCIsvSListBase$::1n$WCNIsvSLink$::1nus$n()_
00403910       W?WCListDelete$:WCIsvSListBase$::1n$WCNIsvSLink$::1npn$LFGlobalTypeRecord$$$n(pn$WCSLink$$)v
00403970       W?$dt:WCIsvSListBase$::1n$WCNIsvSLink$::1npn$LFGlobalTypeRecord$$$n()_
00403990       W?WCListDelete$:WCIsvSListBase$::1n$WCNIsvSLink$::1npn$LFTypeRecord$$$n(pn$WCSLink$$)v
004039f0       W?$dt:WCIsvSListBase$::1n$WCNIsvSLink$::1npn$LFTypeRecord$$$n()_
00403a10       W?WCListDelete$:WCIsvSListBase$::1n$WCNIsvSLink$::1npn$SymbolStruct$$$n(pn$WCSLink$$)v
00403a70       W?$dt:WCIsvSListBase$::1n$WCNIsvSLink$::1npn$SymbolStruct$$$n()_
00403a90       W?WCListDelete$:WCIsvSListBase$::1n$WCNIsvSLink$::1npn$chain_table$:NameHashTable$$$n(pn$WCSLink$$)v
00403af0       W?$dt:WCIsvSListBase$::1n$WCNIsvSLink$::1npn$chain_table$:NameHashTable$$$n()_
00403b10       W?WCListDelete$:WCIsvSListBase$::1n$WCNIsvSLink$::1npn$offset_table$:AddrHashTable$$$n(pn$WCSLink$$)v
00403b70       W?$dt:WCIsvSListBase$::1n$WCNIsvSLink$::1npn$offset_table$:AddrHashTable$$$n()_
00403b90       W?WCListDelete$:WCValListBase$::1npn$cv_dir_entry$$1n$WCIsvSListBase$::1n$WCNIsvSLink$::1npn$2$$$1n$4::1npn$2$$n(pn$WCSLink$$)v
00403bb0       W?$dt:WCValListBase$::1npn$cv_dir_entry$$1n$WCIsvSListBase$::1n$WCNIsvSLink$::1npn$1$$$1n$3::1npn$1$$n()_
00403c40       W?WCListDelete$:WCValListBase$::1npn$LFSubField$$1n$WCIsvSListBase$::1n$WCNIsvSLink$::1npn$2$$$1n$4::1npn$2$$n(pn$WCSLink$$)v
00403c60       W?$dt:WCValListBase$::1npn$LFSubField$$1n$WCIsvSListBase$::1n$WCNIsvSLink$::1npn$1$$$1n$3::1npn$1$$n()_
00403cf0       W?WCListDelete$:WCValListBase$::1npn$my_ct_mlist$$1n$WCIsvSListBase$::1n$WCNIsvSLink$::1npn$2$$$1n$4::1npn$2$$n(pn$WCSLink$$)v
00403d10       W?$dt:WCValListBase$::1npn$my_ct_mlist$$1n$WCIsvSListBase$::1n$WCNIsvSLink$::1npn$1$$$1n$3::1npn$1$$n()_
00403da0       W?WCListDelete$:WCValListBase$::1nus1n$WCIsvSListBase$::1n$WCNIsvSLink$::1nus$$1n$3::1nus$n(pn$WCSLink$$)v
00403dc0       W?$dt:WCValListBase$::1nus1n$WCIsvSListBase$::1n$WCNIsvSLink$::1nus$$1n$2::1nus$n()_
00403e50       W?WCListDelete$:WCValListBase$::1npn$LFGlobalTypeRecord$$1n$WCIsvSListBase$::1n$WCNIsvSLink$::1npn$2$$$1n$4::1npn$2$$n(pn$WCSLink$$)v
00403e70       W?$dt:WCValListBase$::1npn$LFGlobalTypeRecord$$1n$WCIsvSListBase$::1n$WCNIsvSLink$::1npn$1$$$1n$3::1npn$1$$n()_
00403f00       W?WCListDelete$:WCValListBase$::1npn$LFTypeRecord$$1n$WCIsvSListBase$::1n$WCNIsvSLink$::1npn$2$$$1n$4::1npn$2$$n(pn$WCSLink$$)v
00403f20       W?$dt:WCValListBase$::1npn$LFTypeRecord$$1n$WCIsvSListBase$::1n$WCNIsvSLink$::1npn$1$$$1n$3::1npn$1$$n()_
00403fb0       W?WCListDelete$:WCValListBase$::1npn$SymbolStruct$$1n$WCIsvSListBase$::1n$WCNIsvSLink$::1npn$2$$$1n$4::1npn$2$$n(pn$WCSLink$$)v
00403fd0       W?$dt:WCValListBase$::1npn$SymbolStruct$$1n$WCIsvSListBase$::1n$WCNIsvSLink$::1npn$1$$$1n$3::1npn$1$$n()_
00404060       W?WCListDelete$:WCValListBase$::1npn$chain_table$:NameHashTable$$1n$WCIsvSListBase$::1n$WCNIsvSLink$::1npn$2:3$$$1n$5::1npn$2:3$$n(pn$WCSLink$$)v
00404080       W?$dt:WCValListBase$::1npn$chain_table$:NameHashTable$$1n$WCIsvSListBase$::1n$WCNIsvSLink$::1npn$1:2$$$1n$4::1npn$1:2$$n()_
00404110       W?WCListDelete$:WCValListBase$::1npn$offset_table$:AddrHashTable$$1n$WCIsvSListBase$::1n$WCNIsvSLink$::1npn$2:3$$$1n$5::1npn$2:3$$n(pn$WCSLink$$)v
00404130       W?$dt:WCValListBase$::1npn$offset_table$:AddrHashTable$$1n$WCIsvSListBase$::1n$WCNIsvSLink$::1npn$1:2$$$1n$4::1npn$1:2$$n()_
004041c0+      W?$dt:WCPtrListBase$::1n$cv_dir_entry$$1n$WCValSList$::1npn$1$$n()_
00404230       W?clearAndDestroy$:WCPtrListBase$::1n$cv_dir_entry$$1n$WCValSList$::1npn$2$$n()v
00404260       W?clearAndDestroy$:WCPtrListBase$::1n$LFSubField$$1n$WCValSList$::1npn$2$$n()v
004042a0       W?clearAndDestroy$:WCPtrListBase$::1n$my_ct_mlist$$1n$WCValSList$::1npn$2$$n()v
004042d0       W?$dt:WCPtrListBase$::1n$LFTypeRecord$$1n$WCValSList$::1npn$1$$n()_
00404340       W?$dt:WCPtrListBase$::1n$SymbolStruct$$1n$WCValSList$::1npn$1$$n()_
004043b0       W?clearAndDestroy$:WCPtrListBase$::1n$SymbolStruct$$1n$WCValSList$::1npn$2$$n()v
004043f0       W?clearAndDestroy$:WCPtrListBase$::1n$chain_table$:NameHashTable$$1n$WCValSList$::1npn$2:3$$n()v
00404420       W?clearAndDestroy$:WCPtrListBase$::1n$offset_table$:AddrHashTable$$1n$WCValSList$::1npn$2:3$$n()v
00404450+      W?base_equivalent$:WCValSList$::1npn$cv_dir_entry$$n.x(rnxpn$2$rnxpn$2$)i
00404460+      W?$dt:WCValSList$::1npn$cv_dir_entry$$n()_
00404500       W?base_equivalent$:WCValSList$::1npn$LFTypeRecord$$n.x(rnxpn$2$rnxpn$2$)i
00404510       W?$dt:WCValSList$::1npn$LFTypeRecord$$n()_
004045b0       W?base_equivalent$:WCValSList$::1npn$SymbolStruct$$n.x(rnxpn$2$rnxpn$2$)i
004045c0       W?$dt:WCValSList$::1npn$SymbolStruct$$n()_
00404660+      W?base_equivalent$:WCPtrSList$::1n$cv_dir_entry$$n.x(rnxpn$2$rnxpn$2$)i
00404670+      W?$ct:WCPtrSList$::1n$cv_dir_entry$$n()_
00404710+      W?$dt:WCPtrSList$::1n$cv_dir_entry$$n()_
004047d0       W?base_equivalent$:WCPtrSList$::1n$LFTypeRecord$$n.x(rnxpn$2$rnxpn$2$)i
004047e0       W?$ct:WCPtrSList$::1n$LFTypeRecord$$n()_
00404880       W?$dt:WCPtrSList$::1n$LFTypeRecord$$n()_
00404940       W?base_equivalent$:WCPtrSList$::1n$SymbolStruct$$n.x(rnxpn$2$rnxpn$2$)i
00404950       W?$ct:WCPtrSList$::1n$SymbolStruct$$n()_
004049f0       W?$dt:WCPtrSList$::1n$SymbolStruct$$n()_
00404ab0       W?resize$:WCBareVectorBase$::1npnvn(ui)i
00404b60       W?base_index_check$:WCVectorBase$::1npnvn.x(i)i
00404be0       W?resize$:WCVectorBase$::1npnvn(ui)i
00404c10       W?$ct:WCPtrVectorBase$::1n$LFTypeRecord$$1n$WCOrderedVectorBase$::1npnv$n(uiui)_
00404ca0       W?$ct:WCValVector$::1n$__304un0mappingStruct$:TypeIndexMap$$n(ui)_
00404cb0       W?$od:WCValVector$::1n$__304un0mappingStruct$:TypeIndexMap$$n(i)rn$1:2$
00404d20+      W?$ct:WCValVector$::1npnvn(ui)_
00404d30       W?$ct:MyValBoundVector$::1n$__304un0mappingStruct$:TypeIndexMap$$n(usui)_
00404db0       W?insert$:WCValListBase$::1nus1n$WCIsvSListBase$::1n$WCNIsvSLink$::1nus$$1n$3::1nus$n(rnxus)i
00404de0       W?insert$:WCValListBase$::1npn$LFGlobalTypeRecord$$1n$WCIsvSListBase$::1n$WCNIsvSLink$::1npn$2$$$1n$4::1npn$2$$n(rnxpn$2$)i
00404e10       W?get$:WCValListBase$::1npn$LFGlobalTypeRecord$$1n$WCIsvSListBase$::1n$WCNIsvSLink$::1npn$2$$$1n$4::1npn$2$$n(i)pn$2$
00404e40       W?append$:WCValListBase$::1npn$LFTypeRecord$$1n$WCIsvSListBase$::1n$WCNIsvSLink$::1npn$2$$$1n$4::1npn$2$$n(rnxpn$2$)i
00404e70       W?append$:WCValListBase$::1npn$SymbolStruct$$1n$WCIsvSListBase$::1n$WCNIsvSLink$::1npn$2$$$1n$4::1npn$2$$n(rnxpn$2$)i
00404ea0+      W?$ct:WCPtrListBase$::1n$cv_dir_entry$$1n$WCValSList$::1npn$1$$n(pn(ui)pnvpn(pnvui)v)_
00404f50       W?$ct:WCPtrListBase$::1n$LFTypeRecord$$1n$WCValSList$::1npn$1$$n(pn(ui)pnvpn(pnvui)v)_
00405000       W?$ct:WCPtrListBase$::1n$SymbolStruct$$1n$WCValSList$::1npn$1$$n(pn(ui)pnvpn(pnvui)v)_
004050b0+      W?$ct:WCValSList$::1npn$cv_dir_entry$$n(pn(ui)pnvpn(pnvui)v)_
00405160       W?$ct:WCValSList$::1npn$LFTypeRecord$$n(pn(ui)pnvpn(pnvui)v)_
00405210       W?$ct:WCValSList$::1npn$SymbolStruct$$n(pn(ui)pnvpn(pnvui)v)_
004052c0       W?$ct:WCBareVectorBase$::1n$__304un0mappingStruct$:TypeIndexMap$$n(ui)_
00405350       W?resize$:WCBareVectorBase$::1n$__304un0mappingStruct$:TypeIndexMap$$n(ui)i
00405430       W?$ct:WCBareVectorBase$::1npnvn(ui)_
004054c0       W?base_insert_at$:WCVectorBase$::1npnvn(irnxpnv)i
004055b0       W?$ct:WCOrderedVectorBase$::1npnvn(uiui)_
00405630+      W?$ct:WCValListBase$::1npn$cv_dir_entry$$1n$WCIsvSListBase$::1n$WCNIsvSLink$::1npn$1$$$1n$3::1npn$1$$n(pn(ui)pnvpn(pnvui)v)_
004056d0       W?get$:WCValListBase$::1npn$cv_dir_entry$$1n$WCIsvSListBase$::1n$WCNIsvSLink$::1npn$2$$$1n$4::1npn$2$$n(i)pn$2$
00405700       W?get$:WCValListBase$::1npn$LFSubField$$1n$WCIsvSListBase$::1n$WCNIsvSLink$::1npn$2$$$1n$4::1npn$2$$n(i)pn$2$
00405730       W?get$:WCValListBase$::1npn$my_ct_mlist$$1n$WCIsvSListBase$::1n$WCNIsvSLink$::1npn$2$$$1n$4::1npn$2$$n(i)pn$2$
00405760       W?WCListNew$:WCValListBase$::1nus1n$WCIsvSListBase$::1n$WCNIsvSLink$::1nus$$1n$3::1nus$n(rnxus)pn$3::1nus$
004057a0       W?WCListNew$:WCValListBase$::1npn$LFGlobalTypeRecord$$1n$WCIsvSListBase$::1n$WCNIsvSLink$::1npn$2$$$1n$4::1npn$2$$n(rnxpn$2$)pn$4::1npn$2$$
004057e0       W?$ct:WCValListBase$::1npn$LFTypeRecord$$1n$WCIsvSListBase$::1n$WCNIsvSLink$::1npn$1$$$1n$3::1npn$1$$n(pn(ui)pnvpn(pnvui)v)_
00405880       W?WCListNew$:WCValListBase$::1npn$LFTypeRecord$$1n$WCIsvSListBase$::1n$WCNIsvSLink$::1npn$2$$$1n$4::1npn$2$$n(rnxpn$2$)pn$4::1npn$2$$
004058c0       W?$ct:WCValListBase$::1npn$SymbolStruct$$1n$WCIsvSListBase$::1n$WCNIsvSLink$::1npn$1$$$1n$3::1npn$1$$n(pn(ui)pnvpn(pnvui)v)_
00405960       W?WCListNew$:WCValListBase$::1npn$SymbolStruct$$1n$WCIsvSListBase$::1n$WCNIsvSLink$::1npn$2$$$1n$4::1npn$2$$n(rnxpn$2$)pn$4::1npn$2$$
004059a0       W?get$:WCValListBase$::1npn$SymbolStruct$$1n$WCIsvSListBase$::1n$WCNIsvSLink$::1npn$2$$$1n$4::1npn$2$$n(i)pn$2$
004059d0       W?get$:WCValListBase$::1npn$chain_table$:NameHashTable$$1n$WCIsvSListBase$::1n$WCNIsvSLink$::1npn$2:3$$$1n$5::1npn$2:3$$n(i)pn$2:3$
00405a00       W?get$:WCValListBase$::1npn$offset_table$:AddrHashTable$$1n$WCIsvSListBase$::1n$WCNIsvSLink$::1npn$2:3$$$1n$5::1npn$2:3$$n(i)pn$2:3$
00405a30       W?$ct:WCVectorBase$::1npnvn(uiui)_
00405aa0+      W?$ct:WCIsvSListBase$::1n$WCNIsvSLink$::1npn$cv_dir_entry$$$n()_
00428840       W?$Wvf0Co4:WCExcept$$nx[]pn()v
00428850       W?$Wvf0Ho4:WCIsvListBase$$nx[]pn()v
00428860       W?$Wvf0Dos:TypeArray$$nx[]pn()v
00428870       W?$Wvf0Jos:GlobalTypeArray$$nx[]pn()v
00428880+      W?$Wvf0Ios:LocalTypeArray$$nx[]pn()v
00428890+      W?$Wvf0Jo6e:SstGlobalTypes$$nx[]pn()v
004288a0       W?$Wvf0Do0:MiscError$$nx[]pn()v
004288b0       W?$Wvf0Fo0:OutOfMemory$$nx[]pn()v
004288c0       W?$Wvf0Do0:FileError$$nx[]pn()v
004288d0       W?$Wvf0Ho0:RetrieveError$$nx[]pn()v
004288e0       W?$Wvf0Fo0:CVpackError$$nx[]pn()v
004288f0       W?$Wvf10o4:WCBareVectorBase$::1n$__304un0mappingStruct$:TypeIndexMap$$$nx[]pn()v
00428900       W?$Wvf0Ro4:WCBareVectorBase$::1npnv$nx[]pn()v
00428910       W?$Wvf0No4:WCVectorBase$::1npnv$nx[]pn()v
00428930       W?$Wvf0Uo4:WCOrderedVectorBase$::1npnv$nx[]pn()v
00428950       W?$Wvf17o4:WCPtrVectorBase$::1n$LFTypeRecord$$1n$WCOrderedVectorBase$::1npnv$$nx[]pn()v
00428970       W?$Wvf0vo4:WCValVector$::1n$__304un0mappingStruct$:TypeIndexMap$$$nx[]pn()v
00428980+      W?$Wvf0Mo4:WCValVector$::1npnv$nx[]pn()v
00428990+      W?$Wvf0Yo4:WCPtrVector$::1n$SymbolStruct$$$nx[]pn()v
004289a0       W?$Wvf0fo4:WCPtrOrderedVector$::1n$LFTypeRecord$$$nx[]pn()v
004289c0       W?$Wvf10o4:MyValBoundVector$::1n$__304un0mappingStruct$:TypeIndexMap$$$nx[]pn()v
004289d0       W?$Wvf0vo4:WCIsvSListBase$::1n$WCNIsvSLink$::1npn$cv_dir_entry$$$$nx[]pn()v
004289e0       W?$Wvf0to4:WCIsvSListBase$::1n$WCNIsvSLink$::1npn$LFSubField$$$$nx[]pn()v
004289f0       W?$Wvf0uo4:WCIsvSListBase$::1n$WCNIsvSLink$::1npn$my_ct_mlist$$$$nx[]pn()v
00428a00       W?$Wvf0go4:WCIsvSListBase$::1n$WCNIsvSLink$::1nus$$nx[]pn()v
00428a10       W?$Wvf11o4:WCIsvSListBase$::1n$WCNIsvSLink$::1npn$LFGlobalTypeRecord$$$$nx[]pn()v
00428a20       W?$Wvf0vo4:WCIsvSListBase$::1n$WCNIsvSLink$::1npn$LFTypeRecord$$$$nx[]pn()v
00428a30       W?$Wvf0vo4:WCIsvSListBase$::1n$WCNIsvSLink$::1npn$SymbolStruct$$$$nx[]pn()v
00428a40       W?$Wvf19o4:WCIsvSListBase$::1n$WCNIsvSLink$::1npn$chain_table$:NameHashTable$$$$nx[]pn()v
00428a50       W?$Wvf1Ao4:WCIsvSListBase$::1n$WCNIsvSLink$::1npn$offset_table$:AddrHashTable$$$$nx[]pn()v
00428a60       W?$Wvf1ao4:WCValListBase$::1npn$cv_dir_entry$$1n$WCIsvSListBase$::1n$WCNIsvSLink$::1npn$1$$$1n$3::1npn$1$$$nx[]pn()v
00428a70       W?$Wvf1Yo4:WCValListBase$::1npn$LFSubField$$1n$WCIsvSListBase$::1n$WCNIsvSLink$::1npn$1$$$1n$3::1npn$1$$$nx[]pn()v
00428a80       W?$Wvf1Zo4:WCValListBase$::1npn$my_ct_mlist$$1n$WCIsvSListBase$::1n$WCNIsvSLink$::1npn$1$$$1n$3::1npn$1$$$nx[]pn()v
00428a90       W?$Wvf1Fo4:WCValListBase$::1nus1n$WCIsvSListBase$::1n$WCNIsvSLink$::1nus$$1n$2::1nus$$nx[]pn()v
00428aa0       W?$Wvf1go4:WCValListBase$::1npn$LFGlobalTypeRecord$$1n$WCIsvSListBase$::1n$WCNIsvSLink$::1npn$1$$$1n$3::1npn$1$$$nx[]pn()v
00428ab0       W?$Wvf1ao4:WCValListBase$::1npn$LFTypeRecord$$1n$WCIsvSListBase$::1n$WCNIsvSLink$::1npn$1$$$1n$3::1npn$1$$$nx[]pn()v
00428ac0       W?$Wvf1ao4:WCValListBase$::1npn$SymbolStruct$$1n$WCIsvSListBase$::1n$WCNIsvSLink$::1npn$1$$$1n$3::1npn$1$$$nx[]pn()v
00428ad0       W?$Wvf1so4:WCValListBase$::1npn$chain_table$:NameHashTable$$1n$WCIsvSListBase$::1n$WCNIsvSLink$::1npn$1:2$$$1n$4::1npn$1:2$$$nx[]pn()v
00428ae0       W?$Wvf1to4:WCValListBase$::1npn$offset_table$:AddrHashTable$$1n$WCIsvSListBase$::1n$WCNIsvSLink$::1npn$1:2$$$1n$4::1npn$1:2$$$nx[]pn()v
00428af0+      W?$Wvf0yo4:WCPtrListBase$::1n$cv_dir_entry$$1n$WCValSList$::1npn$1$$$nx[]pn()v
00428b00       W?$Wvf0yo4:WCPtrListBase$::1n$LFTypeRecord$$1n$WCValSList$::1npn$1$$$nx[]pn()v
00428b10       W?$Wvf0yo4:WCPtrListBase$::1n$SymbolStruct$$1n$WCValSList$::1npn$1$$$nx[]pn()v
00428b20+      W?$Wvf0Zo4:WCValSList$::1npn$cv_dir_entry$$$nx[]pn()v
00428b30       W?$Wvf0Zo4:WCValSList$::1npn$LFTypeRecord$$$nx[]pn()v
00428b40       W?$Wvf0Zo4:WCValSList$::1npn$SymbolStruct$$$nx[]pn()v
00428b50+      W?$Wvf0Xo4:WCPtrSList$::1n$cv_dir_entry$$$nx[]pn()v
00428b60       W?$Wvf0Xo4:WCPtrSList$::1n$LFTypeRecord$$$nx[]pn()v
00428b70       W?$Wvf0Xo4:WCPtrSList$::1n$SymbolStruct$$$nx[]pn()v
00428b80       W?$Wcm012$nx[]uc
00428b90+      W?$Wcm014$nx[]uc
00428ba0+      W?$Wcm016$nx[]uc
00428bb0       W?$Wcm015$nx[]uc
00428bc0+      W?$Wcm017$nx[]uc
00428bd0       W?$Wcm013$nx[]uc
00428be0+      W?$Wcm0212$nx[]uc
00428bf0+      W?$Wcm0216$nx[]uc
00428c00+      W?$Wcm0222$nx[]uc
00428c10+      W?$Wcm0221$nx[]uc
00428c20+      W?$Wcm0231$nx[]uc
00428c30+      W?$Wcm0230$nx[]uc
00428c40+      W?$Wcm0241$nx[]uc
00428c50+      W?$Wcm0240$nx[]uc
00428c60       W?$Wth0Hnrn$OutOfMemory$$$nx[]uc
00428c80       W?$Wth0Fnrn$MiscError$$$nx[]uc
00428ca0+      W?$Wth0Fnrn$FileError$$$nx[]uc
00428cd0       W?$Wts0Cn$WCExcept$$$nx[]uc
00428cf0       W?$Wts0Fn$CVpackError$$$nx[]uc
00428d10       W?$Wts0Xn$WCPtrSList$::1n$LFTypeRecord$$$$nx[]uc
00428d30       W?$Wts0Jn$GlobalTypeArray$$$nx[]uc
00428d50+      W?$Wts0In$LocalTypeArray$$$nx[]uc
00428d70+      W?$Wts0In$SstGlobalTypes$$$nx[]uc
00428d90+      W?$Wts0Gn$TypeIndexMap$$$nx[]uc
00428db0       W?$Wts0Fn$OutOfMemory$$$nx[]uc
00428dd0       W?$Wts0Dn$MiscError$$$nx[]uc
00428df0+      W?$Wts0Gn$SstGlobalSym$$$nx[]uc
00428e10+      W?$Wts0Ln$SymbolDistributor$$$nx[]uc
00428e30       W?$Wts0Hn$ifstream$:std$$$nx[]uc
00428e50+      W?$Wts0Dn$FileError$$$nx[]uc
00428e70       W?$Wts0Hn$RetrieveError$$$nx[]uc
00428e90+      W?$Wts0An$CVpack$$$nx[]uc
00428eb0       W?$Wts0vn$WCValVector$::1n$__304un0mappingStruct$:TypeIndexMap$$$$nx[]uc
00428ed0+      W?$Wts0Mn$WCValVector$::1npnv$$nx[]uc
00428ef0+      W?$Wts0Yn$WCPtrVector$::1n$SymbolStruct$$$$nx[]uc
00428f10       W?$Wts0fn$WCPtrOrderedVector$::1n$LFTypeRecord$$$$nx[]uc
00428f30       W?$Wts10n$MyValBoundVector$::1n$__304un0mappingStruct$:TypeIndexMap$$$$nx[]uc
00428f50+      W?$Wts0Zn$WCValSList$::1npn$cv_dir_entry$$$$nx[]uc
00428f70       W?$Wts0Zn$WCValSList$::1npn$LFTypeRecord$$$$nx[]uc
00428f90       W?$Wts0Zn$WCValSList$::1npn$SymbolStruct$$$$nx[]uc
00428fb0+      W?$Wts0Xn$WCPtrSList$::1n$cv_dir_entry$$$$nx[]uc
00430cd8       W?$Wti0W$WCPtrSList$::1n$SymbolStruct$$$$n[]uc
00430d00+      W?$Wti0W$WCPtrSList$::1n$cv_dir_entry$$$$n[]uc
00430d28       W?$Wti0Y$WCValSList$::1npn$SymbolStruct$$$$n[]uc
00430d50       W?$Wti0Y$WCValSList$::1npn$LFTypeRecord$$$$n[]uc
00430d78+      W?$Wti0Y$WCValSList$::1npn$cv_dir_entry$$$$n[]uc
00430da0       W?$Wti0z$MyValBoundVector$::1n$__304un0mappingStruct$:TypeIndexMap$$$$n[]uc
00430de4       W?$Wti0e$WCPtrOrderedVector$::1n$LFTypeRecord$$$$n[]uc
00430e14+      W?$Wti0X$WCPtrVector$::1n$SymbolStruct$$$$n[]uc
00430e3c+      W?$Wti0L$WCValVector$::1npnv$$n[]uc
00430e58       W?$Wti0u$WCValVector$::1n$__304un0mappingStruct$:TypeIndexMap$$$$n[]uc
00430e98+      W?$Wti09$CVpack$$$n[]uc
00430ea8       W?$Wti0G$RetrieveError$$$n[]uc
00430ec0+      W?$Wti0C$FileError$$$n[]uc
00430ed4       W?$Wti0G$ifstream$:std$$$n[]uc
00430eec+      W?$Wti0K$SymbolDistributor$$$n[]uc
00430f08+      W?$Wti0F$SstGlobalSym$$$n[]uc
00430f1c       W?$Wti0C$MiscError$$$n[]uc
00430f30       W?$Wti0E$OutOfMemory$$$n[]uc
00430f44+      W?$Wti0F$TypeIndexMap$$$n[]uc
00430f58+      W?$Wti0H$SstGlobalTypes$$$n[]uc
00430f70+      W?$Wti0H$LocalTypeArray$$$n[]uc
00430f88       W?$Wti0I$GlobalTypeArray$$$n[]uc
00430fa0       W?$Wti0W$WCPtrSList$::1n$LFTypeRecord$$$$n[]uc
00430fc8       W?$Wti0E$CVpackError$$$n[]uc
00405b20       W?$ct:WCIsvSListBase$::1n$WCNIsvSLink$::1npn$LFTypeRecord$$$n()_
00405ba0       W?$ct:WCIsvSListBase$::1n$WCNIsvSLink$::1npn$SymbolStruct$$$n()_
00405c20       W?.tdtor$:ofstream$:std$n()pnv
00405c30       W?.tdtor$:ifstream$:std$n()pnv
00401560+      W?DoPublics$:CVpack$n(uiui)v
004017c0+      W?DoLibraries$:CVpack$n()v
00401840+      W?DoGlobalTypes$:CVpack$n(rn$SstGlobalTypes$$)v
00401890+      W?CreatePackExe$:CVpack$n()v
00401dc0       main_
00428fd0       W?$Wts0Xn$WCPtrSList$::1n$SymbolStruct$$$$nx[]uc
00430fdc       W?$Wti0B$WCExcept$$$n[]uc
00434100       W?TypeMap$n$TypeIndexMap$$
Module: retrieve.obj(/mnt/sda5/.user/root/src/openwatcom-1.9/bld/cvpack/cpp/retrieve.cpp)
00406480+      W?$ct:DebugInfoError$n()_
00406490+      W?$dt:DebugInfoError$n()_
004064a0       W?$dt:InternalError$n()_
00405c40       W?$ra:cv_dir_entry$n.x(rnx$0$)q
00405c60+      W?$ct:Directory$n(rn$ifstream$:std$$l)_
00405d30*      W?CompMod$:Directory$n(ulul)i
00405d50+      W?CompSub$:Directory$n(usus)i
00405d80+      W?IsModule$:Directory$n(us)q
00405da0+      W?IsModuleBasis$:Directory$n(usus)q
00405dc0+      W?Compare$:Directory$n(pnxvpnxv)i
00405e20+      W?GetDirInfo$:Directory$n(rn$__2c62hldir_info$$$$TE$$ul)q
00405e70+      W?IsAtSubsection$:Directory$n($$TE$$)q
00405e90       W?$dt:Directory$n()_
00405ec0+      W?GetBasePos$:Retriever$n()l
00405f40+      W?GetPEDebugDirCVEntryPos$:Retriever$n()l
00405fc0+      W?GetDirPos$:Retriever$n()l
00406020       W?SeekRead$:Retriever$n(pnvlui)ul
004060e0       W?$ct:Retriever$n(rn$ifstream$:std$$)_
004061d0+      W?CheckSig$:Retriever$n()v
00406260+      W?LocalPageOff$:Retriever$n.x(ul)ul
00406270*      W?IsCrossPage$:Retriever$n.x(rnx$__2c62hldir_info$$)q
00406290+      W?ReadPage$:Retriever$n(ul)v
004062d0*      W?IsInCurrentPage$:Retriever$n.x(ul)q
004062f0*      W?Read$:Retriever$n(rnx$__2c62hldir_info$$)pna
004064f0       W?$ct:InternalError$n(rnx$0$)_
00406510+      W?$ct:CVSigError$n()_
00406520+      W?$ct:CVSigError$n(rnx$0$)_
00406530+      W?$dt:CVSigError$n()_
00406540+      W?$ct:DebugInfoError$n(rnx$0$)_
00429030+      W?$Wvf0Io0:DebugInfoError$$nx[]pn()v
00429040       W?$Wvf0Ho0:InternalError$$nx[]pn()v
00429050+      W?$Wvf0Eo0:CVSigError$$nx[]pn()v
00429060       W?$Wth0Jnrn$InternalError$$$nx[]uc
00429080+      W?$Wth0Knrn$DebugInfoError$$$nx[]uc
004290b0+      W?$Wth0Gnrn$CVSigError$$$nx[]uc
004290e0       W?$Wts0Hn$InternalError$$$nx[]uc
00429100+      W?$Wts0In$DebugInfoError$$$nx[]uc
00431010+      W?$Wti0D$CVSigError$$$n[]uc
00431030+      W?$Wti0H$DebugInfoError$$$n[]uc
004063a0       W?ReadSubsection$:Retriever$n(rnpnarnul$$TE$$ul)q
00406460       W?IsAtSubsection$:Retriever$n($$TE$$)q
00429120+      W?$Wts0En$CVSigError$$$nx[]uc
00431050       W?$Wti0G$InternalError$$$n[]uc
00430ff0+      W?_orderTable$:Directory$n[]uc
00434120+      W?_inputBuffer$:Retriever$n[]a
Module: cverror.obj(/mnt/sda5/.user/root/src/openwatcom-1.9/bld/cvpack/cpp/cverror.cpp)
00406550       W?ErrorPrint$:CVpackError$n.x()v
00406570       W?ErrorPrint$:RetrieveError$n.x()v
004065a0       W?ErrorPrint$:WriteError$n.x()v
004065d0       W?$ct:FileError$n(pnxa)_
004065e0       W?ErrorPrint$:FileError$n.x()v
00406610       W?ErrorPrint$:DebugInfoError$n.x()v
00406640       W?ErrorPrint$:CVSigError$n.x()v
00406670       W?$ct:OutOfMemory$n(ui)_
00406680       W?ErrorPrint$:OutOfMemory$n.x()v
004066b0       W?$ct:InternalError$n(pnxa)_
004066c0       W?ErrorPrint$:InternalError$n.x()v
004066f0       W?$ct:MiscError$n(pnxa)_
00406700       W?ErrorPrint$:MiscError$n.x()v
Module: packtype.obj(/mnt/sda5/.user/root/src/openwatcom-1.9/bld/cvpack/cpp/packtype.cpp)
0040a600       W?$ct:WCIterExcept$n()_
0040a610       W?$dt:WCIterExcept$n()_
0040a690       W?$ct:WCListIterBase$n(pn$WCIsvListBase$$)_
0040a700       W?$dt:WCListIterBase$n()_
0040a750       W?$dt:VariantString$n()_
0040a770+      W?$dt:LFLeafStruct$n()_
0040a820+      W?FixTypeIndex$:LFLeafStruct$n()v
0040a830+      W?IsEqual$:LFLeafStruct$n.x(rnx$1$)q
0040a840+      W?DerivedPut$:LFLeafStruct$n.x(rn$ExeMaker$$)v
0040a850+      W?$dt:LFSubField$n()_
0040a900+      W?FixTypeIndex$:LFSubField$n()v
0040a910+      W?IsSubFieldEqual$:LFSubField$n.x(rnx$1$)q
0040a920+      W?DerivedPut$:LFSubField$n.x(rn$ExeMaker$$)v
0040a930+      W?$ct:LFNotTrans$n()_
0040a9a0+      W?$dt:LFNotTrans$n()_
0040aa50+      W?$ct:LFNull$n()_
0040aac0+      W?$dt:LFNull$n()_
0040ab70+      W?$dt:LFModifier$n()_
0040ac20+      W?$dt:LFPointer$n()_
0040acd0+      W?$dt:LFArray$n()_
0040ad80+      W?$dt:LFClass$n()_
0040ae30+      W?$dt:LFUnion$n()_
0040aee0+      W?$dt:LFEnum$n()_
0040af90+      W?$dt:LFProcedure$n()_
0040b040+      W?$dt:LFMFunction$n()_
0040b0f0+      W?$dt:LFVtShape$n()_
0040b1a0+      W?$dt:LFCobol0$n()_
0040b250+      W?$dt:LFCobol1$n()_
0040b300+      W?$dt:LFBArray$n()_
0040b3b0+      W?$dt:LFLabel$n()_
0040b460+      W?$dt:LFDimArray$n()_
0040b510+      W?$dt:LFVftPath$n()_
0040b5d0+      W?$dt:LFArgList$n()_
0040b690+      W?$dt:LFDefArg$n()_
0040b740+      W?$dt:LFFieldList$n()_
0040b850+      W?$dt:LFDerived$n()_
0040b910+      W?$dt:LFBitField$n()_
0040b9c0+      W?$dt:LFMethodList$n()_
0040baa0+      W?$dt:LFDimConu$n()_
0040bb50+      W?$dt:LFDimConlu$n()_
0040bc00+      W?$dt:LFBClass$n()_
0040bcb0+      W?$dt:LFVBClass$n()_
0040bd60+      W?$dt:LFEnumerate$n()_
0040be10+      W?$dt:LFFriendFcn$n()_
0040bec0+      W?$dt:LFIndex$n()_
0040bf70+      W?$dt:LFMember$n()_
0040c020+      W?$dt:LFMethod$n()_
0040c0d0+      W?$dt:LFNestedType$n()_
0040c180+      W?$dt:LFVFuncTab$n()_
0040c230+      W?$dt:LFFriendCls$n()_
0040c2e0+      W?$dt:LFOneMethod$n()_
0040c390+      W?$dt:LFVFuncOff$n()_
00406820*      W?$ra:LFLeafStruct$n.x(rnx$0$)q
00406840+      W?$ra:LFSubField$n.x(rnx$0$)q
00406860+      W?$ra:my_ct_mlist$n.x(rnx$0$)q
00406880+      W?$ct:LFLeafStruct$n(uspnxaui)_
004068d0       W?IsEquivalent$:LFLeafStruct$n.x(rnx$1$)q
00406920       W?Error$:LFLeafStruct$n(pnxaui)pn$1$
00406940       W?SetLocalTypeArray$:LFLeafStruct$n(rn$TypeArray$$)v
00406950       W?SetGlobalTypeArray$:LFLeafStruct$n(rn$TypeArray$$)v
00406960       W?Put$:LFLeafStruct$n.x(rn$ExeMaker$$)v
004069a0+      W?TypeEqual$:LFLeafStruct$n(usus)q
00406a50+      W?TypeListEqual$:LFLeafStruct$n(pnxuspnxusui)q
00406a80+      W?AttrEqual$:LFLeafStruct$n($cv_fldattr$$$2$)q
00406b00+      W?AttrEqual$:LFLeafStruct$n($cv_attrib$$$2$)q
00406b50+      W?AttrEqual$:LFLeafStruct$n($cv_ptrattr$$$2$)q
00406bf0+      W?AttrEqual$:LFLeafStruct$n($cv_sprop$$$2$)q
00406ce0+      W?$ct:LFSubField$n(usuipnxaui)_
00406d50+      W?IsEqual$:LFModifier$n.x(rnx$LFLeafStruct$$)q
00406d90+      W?IsEqual$:LFPointer$n.x(rnx$LFLeafStruct$$)q
00406de0+      W?IsEqual$:LFArray$n.x(rnx$LFLeafStruct$$)q
00406e20+      W?IsEqual$:LFClass$n.x(rnx$LFLeafStruct$$)q
00406e70+      W?IsEqual$:LFUnion$n.x(rnx$LFLeafStruct$$)q
00406eb0+      W?IsEqual$:LFEnum$n.x(rnx$LFLeafStruct$$)q
00406f00+      W?IsEqual$:LFProcedure$n.x(rnx$LFLeafStruct$$)q
00406f50+      W?IsEqual$:LFMFunction$n.x(rnx$LFLeafStruct$$)q
00406fc0+      W?IsEqual$:LFLabel$n.x(rnx$LFLeafStruct$$)q
00406fc0+      W?IsEqual$:LFVtShape$n.x(rnx$LFLeafStruct$$)q
00406fd0+      W?IsEqual$:LFDefArg$n.x(rnx$LFLeafStruct$$)q
00406fd0+      W?IsEqual$:LFBArray$n.x(rnx$LFLeafStruct$$)q
00406fd0+      W?IsEqual$:LFCobol0$n.x(rnx$LFLeafStruct$$)q
00406ff0+      W?IsEqual$:LFDimArray$n.x(rnx$LFLeafStruct$$)q
00407030+      W?IsEqual$:LFVftPath$n.x(rnx$LFLeafStruct$$)q
00407060+      W?IsEqual$:LFArgList$n.x(rnx$LFLeafStruct$$)q
00407090+      W?IsEqual$:LFDerived$n.x(rnx$LFLeafStruct$$)q
004070c0+      W?IsEqual$:LFBitField$n.x(rnx$LFLeafStruct$$)q
004070f0+      W?IsEqual$:LFMethodList$n.x(rnx$LFLeafStruct$$)q
004072a0+      W?IsEqual$:LFDimConu$n.x(rnx$LFLeafStruct$$)q
004072d0+      W?IsEqual$:LFDimConlu$n.x(rnx$LFLeafStruct$$)q
00407300+      W?IsSubFieldEqual$:LFBClass$n.x(rnx$LFSubField$$)q
00407340+      W?IsSubFieldEqual$:LFVBClass$n.x(rnx$LFSubField$$)q
00407390+      W?IsSubFieldEqual$:LFEnumerate$n.x(rnx$LFSubField$$)q
004073b0+      W?IsSubFieldEqual$:LFFriendCls$n.x(rnx$LFSubField$$)q
004073b0+      W?IsSubFieldEqual$:LFVFuncTab$n.x(rnx$LFSubField$$)q
004073b0+      W?IsSubFieldEqual$:LFNestedType$n.x(rnx$LFSubField$$)q
004073b0+      W?IsSubFieldEqual$:LFIndex$n.x(rnx$LFSubField$$)q
004073b0+      W?IsSubFieldEqual$:LFFriendFcn$n.x(rnx$LFSubField$$)q
004073d0+      W?IsSubFieldEqual$:LFMember$n.x(rnx$LFSubField$$)q
00407410+      W?IsSubFieldEqual$:LFMethod$n.x(rnx$LFSubField$$)q
00407440+      W?IsSubFieldEqual$:LFOneMethod$n.x(rnx$LFSubField$$)q
00407480+      W?IsSubFieldEqual$:LFVFuncOff$n.x(rnx$LFSubField$$)q
004074b0+      W?IsEqual$:LFSubField$n.x(rnx$LFLeafStruct$$)q
004074d0+      W?IsEqual$:LFFieldList$n.x(rnx$LFLeafStruct$$)q
00407640+      W?FixTypeList$:LFLeafStruct$n(pnusui)v
00407670+      W?FixTypeIndex$:LFModifier$n()v
00407690+      W?FixTypeIndex$:LFPointer$n()v
004076b0+      W?FixTypeIndex$:LFArray$n()v
004076e0+      W?FixTypeIndex$:LFClass$n()v
00407720+      W?FixTypeIndex$:LFUnion$n()v
00407740+      W?FixTypeIndex$:LFEnum$n()v
00407770+      W?FixTypeIndex$:LFProcedure$n()v
004077a0+      W?FixTypeIndex$:LFMFunction$n()v
004077f0+      W?FixTypeIndex$:LFCobol0$n()v
00407810+      W?FixTypeIndex$:LFCobol1$n()v
00407820+      W?FixTypeIndex$:LFBArray$n()v
00407840+      W?FixTypeIndex$:LFLabel$n()v
00407850+      W?FixTypeIndex$:LFDimArray$n()v
00407880+      W?FixTypeIndex$:LFVftPath$n()v
00407890+      W?FixTypeIndex$:LFArgList$n()v
004078a0+      W?FixTypeIndex$:LFDefArg$n()v
004078c0+      W?FixTypeIndex$:LFFieldList$n()v
00407990+      W?FixTypeIndex$:LFDerived$n()v
004079a0+      W?FixTypeIndex$:LFBitField$n()v
004079c0+      W?FixTypeIndex$:LFMethodList$n()v
00407aa0+      W?FixTypeIndex$:LFDimConu$n()v
00407ac0+      W?FixTypeIndex$:LFDimConlu$n()v
00407ae0+      W?FixTypeIndex$:LFBClass$n()v
00407b00+      W?FixTypeIndex$:LFVBClass$n()v
00407b30+      W?FixTypeIndex$:LFEnumerate$n()v
00407b40+      W?FixTypeIndex$:LFFriendFcn$n()v
00407b60+      W?FixTypeIndex$:LFIndex$n()v
00407b80+      W?FixTypeIndex$:LFMember$n()v
00407ba0+      W?FixTypeIndex$:LFMethod$n()v
00407bc0+      W?FixTypeIndex$:LFNestedType$n()v
00407be0+      W?FixTypeIndex$:LFVFuncTab$n()v
00407c00+      W?FixTypeIndex$:LFFriendCls$n()v
00407c20+      W?FixTypeIndex$:LFOneMethod$n()v
00407c40+      W?FixTypeIndex$:LFVFuncOff$n()v
00407c60       W?Construct$:LFNotTrans$n(pnxaui)pn$LFLeafStruct$$
00407d10       W?Construct$:LFNull$n(pnxaui)pn$LFLeafStruct$$
00407dc0       W?Construct$:LFModifier$n(pnxaui)pn$LFLeafStruct$$
00407e90       W?Construct$:LFPointer$n(pnxaui)pn$LFLeafStruct$$
00407fb0       W?Construct$:LFArray$n(pnxaui)pn$LFLeafStruct$$
00408080       W?Construct$:LFClass$n(pnxaui)pn$LFLeafStruct$$
00408170       W?Construct$:LFUnion$n(pnxaui)pn$LFLeafStruct$$
00408250       W?Construct$:LFEnum$n(pnxaui)pn$LFLeafStruct$$
00408340       W?Construct$:LFProcedure$n(pnxaui)pn$LFLeafStruct$$
00408420       W?Construct$:LFMFunction$n(pnxaui)pn$LFLeafStruct$$
00408520       W?Construct$:LFVtShape$n(pnxaui)pn$LFLeafStruct$$
004085e0       W?Construct$:LFCobol0$n(pnxaui)pn$LFLeafStruct$$
004086a0       W?Construct$:LFCobol1$n(pnxaui)pn$LFLeafStruct$$
00408760       W?Construct$:LFBArray$n(pnxaui)pn$LFLeafStruct$$
00408820       W?Construct$:LFLabel$n(pnxaui)pn$LFLeafStruct$$
004088e0       W?Construct$:LFDimArray$n(pnxaui)pn$LFLeafStruct$$
004089b0       W?Construct$:LFVftPath$n(pnxaui)pn$LFLeafStruct$$
00408ab0       W?Construct$:LFArgList$n(pnxaui)pn$LFLeafStruct$$
00408bb0       W?Construct$:LFDefArg$n(pnxaui)pn$LFLeafStruct$$
00408c70       W?Construct$:LFDerived$n(pnxaui)pn$LFLeafStruct$$
00408d70       W?Construct$:LFBitField$n(pnxaui)pn$LFLeafStruct$$
00408e40       W?Construct$:LFMethodList$n(pnxaui)pn$LFLeafStruct$$
00408ff0       W?Construct$:LFDimConu$n(pnxaui)pn$LFLeafStruct$$
004090c0       W?Construct$:LFDimConlu$n(pnxaui)pn$LFLeafStruct$$
00409190+      W?$ct:LFFieldList$n(pnxaui)_
00409290+      W?ConvertIndex$:LFFieldList$n(us)ui
004092d0       W?Construct$:LFFieldList$n(pnxaui)pn$LFLeafStruct$$
00409350+      W?Error$:LFSubField$n(pnxa)pn$1$
00409380+      W?PadLen$:LFSubField$n(pnxa)uc
004093a0+      W?Construct$:LFBClass$n(pnxa)pn$LFSubField$$
00409490+      W?Construct$:LFVBClass$n(pnxa)pn$LFSubField$$
00409590+      W?Construct$:LFEnumerate$n(pnxa)pn$LFSubField$$
00409690+      W?Construct$:LFFriendFcn$n(pnxa)pn$LFSubField$$
00409770+      W?Construct$:LFIndex$n(pnxa)pn$LFSubField$$
00409840+      W?Construct1$:LFMember$n(pnxa)pn$LFSubField$$
00409940+      W?Construct2$:LFMember$n(pnxa)pn$LFSubField$$
00409a30+      W?Construct$:LFMethod$n(pnxa)pn$LFSubField$$
00409b20+      W?Construct$:LFNestedType$n(pnxa)pn$LFSubField$$
00409c00+      W?Construct$:LFVFuncTab$n(pnxa)pn$LFSubField$$
00409cd0+      W?Construct$:LFFriendCls$n(pnxa)pn$LFSubField$$
00409da0+      W?Construct$:LFOneMethod$n(pnxa)pn$LFSubField$$
00409e90+      W?Construct$:LFVFuncOff$n(pnxa)pn$LFSubField$$
00409f60+      W?DerivedPut$:LFNotTrans$n.x(rn$ExeMaker$$)v
00409f80+      W?DerivedPut$:LFNull$n.x(rn$ExeMaker$$)v
00409fa0+      W?DerivedPut$:LFModifier$n.x(rn$ExeMaker$$)v
00409fc0+      W?DerivedPut$:LFPointer$n.x(rn$ExeMaker$$)v
0040a010+      W?DerivedPut$:LFArray$n.x(rn$ExeMaker$$)v
0040a030+      W?DerivedPut$:LFClass$n.x(rn$ExeMaker$$)v
0040a050+      W?DerivedPut$:LFUnion$n.x(rn$ExeMaker$$)v
0040a070+      W?DerivedPut$:LFEnum$n.x(rn$ExeMaker$$)v
0040a090+      W?DerivedPut$:LFProcedure$n.x(rn$ExeMaker$$)v
0040a0b0+      W?DerivedPut$:LFMFunction$n.x(rn$ExeMaker$$)v
0040a0d0+      W?DerivedPut$:LFVtShape$n.x(rn$ExeMaker$$)v
0040a0f0+      W?DerivedPut$:LFCobol0$n.x(rn$ExeMaker$$)v
0040a110+      W?DerivedPut$:LFBArray$n.x(rn$ExeMaker$$)v
0040a130+      W?DerivedPut$:LFLabel$n.x(rn$ExeMaker$$)v
0040a150+      W?DerivedPut$:LFDimArray$n.x(rn$ExeMaker$$)v
0040a170+      W?DerivedPut$:LFVftPath$n.x(rn$ExeMaker$$)v
0040a1a0+      W?DerivedPut$:LFArgList$n.x(rn$ExeMaker$$)v
0040a1d0+      W?DerivedPut$:LFDefArg$n.x(rn$ExeMaker$$)v
0040a1f0+      W?DerivedPut$:LFFieldList$n.x(rn$ExeMaker$$)v
0040a2d0+      W?DerivedPut$:LFDerived$n.x(rn$ExeMaker$$)v
0040a300+      W?DerivedPut$:LFBitField$n.x(rn$ExeMaker$$)v
0040a320+      W?DerivedPut$:LFMethodList$n.x(rn$ExeMaker$$)v
0040a440+      W?DerivedPut$:LFDimConu$n.x(rn$ExeMaker$$)v
0040a460+      W?DerivedPut$:LFDimConlu$n.x(rn$ExeMaker$$)v
0040a480+      W?DerivedPut$:LFBClass$n.x(rn$ExeMaker$$)v
0040a4a0+      W?DerivedPut$:LFVBClass$n.x(rn$ExeMaker$$)v
0040a4c0+      W?DerivedPut$:LFEnumerate$n.x(rn$ExeMaker$$)v
0040a4e0+      W?DerivedPut$:LFFriendFcn$n.x(rn$ExeMaker$$)v
0040a500+      W?DerivedPut$:LFIndex$n.x(rn$ExeMaker$$)v
0040a520+      W?DerivedPut$:LFMember$n.x(rn$ExeMaker$$)v
0040a540+      W?DerivedPut$:LFMethod$n.x(rn$ExeMaker$$)v
0040a560+      W?DerivedPut$:LFNestedType$n.x(rn$ExeMaker$$)v
0040a580+      W?DerivedPut$:LFVFuncTab$n.x(rn$ExeMaker$$)v
0040a5a0+      W?DerivedPut$:LFFriendCls$n.x(rn$ExeMaker$$)v
0040c510+      W?$ct:__2ghtsf$:cv_sprop$n(rnx$0:1$)_
0040c5a0+      W?$ct:__902tsf$:cv_fldattr$n(rnx$0:1$)_
0040c5f0+      W?$ct:__101t1f$:cv_ptrattr$n(rnx$0:1$)_
0040c660+      W?$ct:__ru3sof$:cv_attrib$n(rnx$0:1$)_
0040c6b0+      W?$dt:WCPtrListBase$::1n$LFSubField$$1n$WCValSList$::1npn$1$$n()_
0040c720+      W?$dt:WCPtrListBase$::1n$my_ct_mlist$$1n$WCValSList$::1npn$1$$n()_
0040c790+      W?base_equivalent$:WCValSList$::1npn$LFSubField$$n.x(rnxpn$2$rnxpn$2$)i
0040c7a0+      W?$dt:WCValSList$::1npn$LFSubField$$n()_
0040c840+      W?base_equivalent$:WCValSList$::1npn$my_ct_mlist$$n.x(rnxpn$2$rnxpn$2$)i
0040c850+      W?$dt:WCValSList$::1npn$my_ct_mlist$$n()_
0040c8f0+      W?base_equivalent$:WCPtrSList$::1n$LFSubField$$n.x(rnxpn$2$rnxpn$2$)i
0040c900+      W?$ct:WCPtrSList$::1n$LFSubField$$n()_
0040c9a0+      W?$dt:WCPtrSList$::1n$LFSubField$$n()_
0040ca60+      W?base_equivalent$:WCPtrSList$::1n$my_ct_mlist$$n.x(rnxpn$2$rnxpn$2$)i
0040ca70+      W?$ct:WCPtrSList$::1n$my_ct_mlist$$n()_
0040cb10+      W?$dt:WCPtrSList$::1n$my_ct_mlist$$n()_
0040cbd0+      W?$dt:WCValListIterBase$::1npn$my_ct_mlist$$1n$WCPtrSList$::1n$1$$1n$WCNIsvSLink$::1npn$1$$n()_
0040cc30+      W?current$:WCValListIterBase$::1npn$my_ct_mlist$$1n$WCPtrSList$::1n$2$$1n$WCNIsvSLink$::1npn$2$$n.x()pn$2$
0040cc50+      W?$dt:WCValListIterBase$::1npn$LFSubField$$1n$WCPtrSList$::1n$1$$1n$WCNIsvSLink$::1npn$1$$n()_
0040ccb0+      W?current$:WCValListIterBase$::1npn$LFSubField$$1n$WCPtrSList$::1n$2$$1n$WCNIsvSLink$::1npn$2$$n.x()pn$2$
0040ccd0+      W?$dt:WCPtrSListIter$::1n$my_ct_mlist$$n()_
0040cd70+      W?$dt:WCPtrSListIter$::1n$LFSubField$$n()_
0040ce10+      W?$dt:WCPtrConstSListIter$::1n$my_ct_mlist$$n()_
0040ced0+      W?$dt:WCPtrConstSListIter$::1n$LFSubField$$n()_
0040cf90+      W?append$:WCValListBase$::1npn$LFSubField$$1n$WCIsvSListBase$::1n$WCNIsvSLink$::1npn$2$$$1n$4::1npn$2$$n(rnxpn$2$)i
0040cfc0+      W?append$:WCValListBase$::1npn$my_ct_mlist$$1n$WCIsvSListBase$::1n$WCNIsvSLink$::1npn$2$$$1n$4::1npn$2$$n(rnxpn$2$)i
0040cff0+      W?$ct:WCPtrListBase$::1n$LFSubField$$1n$WCValSList$::1npn$1$$n(pn(ui)pnvpn(pnvui)v)_
0040d0a0+      W?$ct:WCValSList$::1npn$LFSubField$$n(pn(ui)pnvpn(pnvui)v)_
0040d150+      W?$ct:WCValSList$::1npn$my_ct_mlist$$n(pn(ui)pnvpn(pnvui)v)_
0040d200+      W?$ct:WCValListBase$::1npn$LFSubField$$1n$WCIsvSListBase$::1n$WCNIsvSLink$::1npn$1$$$1n$3::1npn$1$$n(pn(ui)pnvpn(pnvui)v)_
0040d2a0+      W?WCListNew$:WCValListBase$::1npn$LFSubField$$1n$WCIsvSListBase$::1n$WCNIsvSLink$::1npn$2$$$1n$4::1npn$2$$n(rnxpn$2$)pn$4::1npn$2$$
0040d2e0+      W?$ct:WCValListBase$::1npn$my_ct_mlist$$1n$WCIsvSListBase$::1n$WCNIsvSLink$::1npn$1$$$1n$3::1npn$1$$n(pn(ui)pnvpn(pnvui)v)_
0040d380+      W?WCListNew$:WCValListBase$::1npn$my_ct_mlist$$1n$WCIsvSListBase$::1n$WCNIsvSLink$::1npn$2$$$1n$4::1npn$2$$n(rnxpn$2$)pn$4::1npn$2$$
0040d3c0+      W?$ct:WCIsvSListBase$::1n$WCNIsvSLink$::1npn$LFSubField$$$n()_
0042aa70       W?$Wvf0Go4:WCIterExcept$$nx[]pn()v
0042aa80       W?$Wvf0Io4:WCListIterBase$$nx[]pn()v
0042aa90+      W?$Wvf0Eoc:LFNotTrans$$nx[]pn()v
0042aab0+      W?$Wvf0Aoc:LFNull$$nx[]pn()v
0042aad0+      W?$Wvf0Eoc:LFModifier$$nx[]pn()v
0042aaf0+      W?$Wvf0Doc:LFPointer$$nx[]pn()v
0042ab10+      W?$Wvf0Boc:LFArray$$nx[]pn()v
0042ab30+      W?$Wvf0Boc:LFClass$$nx[]pn()v
0042ab50+      W?$Wvf0Boc:LFUnion$$nx[]pn()v
0042ab70+      W?$Wvf0Aoc:LFEnum$$nx[]pn()v
0042ab90+      W?$Wvf0Foc:LFProcedure$$nx[]pn()v
0042abb0+      W?$Wvf0Foc:LFMFunction$$nx[]pn()v
0042abd0+      W?$Wvf0Doc:LFVtShape$$nx[]pn()v
0042abf0+      W?$Wvf0Coc:LFCobol0$$nx[]pn()v
0042ac10+      W?$Wvf0Coc:LFCobol1$$nx[]pn()v
0042ac30+      W?$Wvf0Coc:LFBArray$$nx[]pn()v
0042ac50+      W?$Wvf0Boc:LFLabel$$nx[]pn()v
0042ac70+      W?$Wvf0Eoc:LFDimArray$$nx[]pn()v
0042ac90+      W?$Wvf0Doc:LFVftPath$$nx[]pn()v
0042acb0+      W?$Wvf0Doc:LFArgList$$nx[]pn()v
0042acd0+      W?$Wvf0Coc:LFDefArg$$nx[]pn()v
0042acf0+      W?$Wvf0Foc:LFFieldList$$nx[]pn()v
0042ad10+      W?$Wvf0Doc:LFDerived$$nx[]pn()v
0042ad30+      W?$Wvf0Eoc:LFBitField$$nx[]pn()v
0042ad50+      W?$Wvf0Goc:LFMethodList$$nx[]pn()v
0042ad70+      W?$Wvf0Doc:LFDimConu$$nx[]pn()v
0042ad90+      W?$Wvf0Eoc:LFDimConlu$$nx[]pn()v
0042adb0+      W?$Wvf0Coc:LFBClass$$nx[]pn()v
0042add0+      W?$Wvf0Doc:LFVBClass$$nx[]pn()v
0042adf0+      W?$Wvf0Foc:LFEnumerate$$nx[]pn()v
0042ae10+      W?$Wvf0Foc:LFFriendFcn$$nx[]pn()v
0042ae30+      W?$Wvf0Boc:LFIndex$$nx[]pn()v
0042ae50+      W?$Wvf0Coc:LFMember$$nx[]pn()v
0042ae70+      W?$Wvf0Coc:LFMethod$$nx[]pn()v
0042ae90+      W?$Wvf0Goc:LFNestedType$$nx[]pn()v
0042aeb0+      W?$Wvf0Eoc:LFVFuncTab$$nx[]pn()v
0042aed0+      W?$Wvf0Foc:LFFriendCls$$nx[]pn()v
0042aef0+      W?$Wvf0Foc:LFOneMethod$$nx[]pn()v
0042af10+      W?$Wvf0Eoc:LFVFuncOff$$nx[]pn()v
0042af30+      W?$Wvf0Goc:LFLeafStruct$$nx[]pn()v
0042af50+      W?$Wvf0Eoc:LFSubField$$nx[]pn()v
0042af70+      W?$Wvf0wo4:WCPtrListBase$::1n$LFSubField$$1n$WCValSList$::1npn$1$$$nx[]pn()v
0042af80+      W?$Wvf0xo4:WCPtrListBase$::1n$my_ct_mlist$$1n$WCValSList$::1npn$1$$$nx[]pn()v
0042af90+      W?$Wvf0Xo4:WCValSList$::1npn$LFSubField$$$nx[]pn()v
0042afa0+      W?$Wvf0Yo4:WCValSList$::1npn$my_ct_mlist$$$nx[]pn()v
0042afb0+      W?$Wvf0Vo4:WCPtrSList$::1n$LFSubField$$$nx[]pn()v
0042afc0+      W?$Wvf0Wo4:WCPtrSList$::1n$my_ct_mlist$$$nx[]pn()v
0042afd0+      W?$Wvf1Qo4:WCValListIterBase$::1npn$my_ct_mlist$$1n$WCPtrSList$::1n$1$$1n$WCNIsvSLink$::1npn$1$$$nx[]pn()v
0042afe0+      W?$Wvf1Po4:WCValListIterBase$::1npn$LFSubField$$1n$WCPtrSList$::1n$1$$1n$WCNIsvSLink$::1npn$1$$$nx[]pn()v
0042aff0+      W?$Wvf0ao4:WCPtrSListIter$::1n$my_ct_mlist$$$nx[]pn()v
0042b000+      W?$Wvf0Zo4:WCPtrSListIter$::1n$LFSubField$$$nx[]pn()v
0042b010+      W?$Wvf0fo4:WCPtrConstSListIter$::1n$my_ct_mlist$$$nx[]pn()v
0042b020+      W?$Wvf0eo4:WCPtrConstSListIter$::1n$LFSubField$$$nx[]pn()v
0042b030       W?$Wts0Gn$WCIterExcept$$$nx[]uc
0042b050+      W?$Wts0Gn$LFLeafStruct$$$nx[]uc
0042b070+      W?$Wts0En$LFSubField$$$nx[]uc
0042b090+      W?$Wts0En$LFNotTrans$$$nx[]uc
0042b0b0+      W?$Wts0An$LFNull$$$nx[]uc
0042b0d0+      W?$Wts0En$LFModifier$$$nx[]uc
0042b0f0+      W?$Wts0Dn$LFPointer$$$nx[]uc
0042b110+      W?$Wts0Bn$LFArray$$$nx[]uc
0042b130+      W?$Wts0Bn$LFClass$$$nx[]uc
0042b150+      W?$Wts0Bn$LFUnion$$$nx[]uc
0042b170+      W?$Wts0An$LFEnum$$$nx[]uc
0042b190+      W?$Wts0Fn$LFProcedure$$$nx[]uc
0042b1b0+      W?$Wts0Fn$LFMFunction$$$nx[]uc
0042b1d0+      W?$Wts0Dn$LFVtShape$$$nx[]uc
0042b1f0+      W?$Wts0Cn$LFCobol0$$$nx[]uc
0042b210+      W?$Wts0Cn$LFCobol1$$$nx[]uc
0042b230+      W?$Wts0Cn$LFBArray$$$nx[]uc
0042b250+      W?$Wts0Bn$LFLabel$$$nx[]uc
0042b270+      W?$Wts0En$LFDimArray$$$nx[]uc
0042b290+      W?$Wts0Dn$LFVftPath$$$nx[]uc
0042b2b0+      W?$Wts0Dn$LFArgList$$$nx[]uc
0042b2d0+      W?$Wts0Cn$LFDefArg$$$nx[]uc
0042b2f0+      W?$Wts0Fn$LFFieldList$$$nx[]uc
0042b310+      W?$Wts0Dn$LFDerived$$$nx[]uc
0042b330+      W?$Wts0En$LFBitField$$$nx[]uc
0042b350+      W?$Wts0Gn$LFMethodList$$$nx[]uc
0042b370+      W?$Wts0Dn$LFDimConu$$$nx[]uc
0042b390+      W?$Wts0En$LFDimConlu$$$nx[]uc
0042b3b0+      W?$Wts0Cn$LFBClass$$$nx[]uc
0042b3d0+      W?$Wts0Dn$LFVBClass$$$nx[]uc
0042b3f0+      W?$Wts0Fn$LFEnumerate$$$nx[]uc
0042b410+      W?$Wts0Fn$LFFriendFcn$$$nx[]uc
0042b430+      W?$Wts0Bn$LFIndex$$$nx[]uc
0042b450+      W?$Wts0Cn$LFMember$$$nx[]uc
0042b470+      W?$Wts0Cn$LFMethod$$$nx[]uc
0042b490+      W?$Wts0Gn$LFNestedType$$$nx[]uc
0042b4b0+      W?$Wts0En$LFVFuncTab$$$nx[]uc
0042b4d0+      W?$Wts0Fn$LFFriendCls$$$nx[]uc
0042b4f0+      W?$Wts0Fn$LFOneMethod$$$nx[]uc
0042b510+      W?$Wts0En$LFVFuncOff$$$nx[]uc
0042b530+      W?$Wts0fn$WCPtrConstSListIter$::1n$my_ct_mlist$$$$nx[]uc
0042b550+      W?$Wts0en$WCPtrConstSListIter$::1n$LFSubField$$$$nx[]uc
0042b570+      W?$Wts0Zn$WCPtrSListIter$::1n$LFSubField$$$$nx[]uc
0042b590+      W?$Wts0Xn$WCValSList$::1npn$LFSubField$$$$nx[]uc
0042b5b0+      W?$Wts0Yn$WCValSList$::1npn$my_ct_mlist$$$$nx[]uc
0042b5d0+      W?$Wts0Vn$WCPtrSList$::1n$LFSubField$$$$nx[]uc
0042b5f0+      W?$Wts0Wn$WCPtrSList$::1n$my_ct_mlist$$$$nx[]uc
004310a4+      W?$Wti0Z$WCPtrSListIter$::1n$my_ct_mlist$$$$n[]uc
004310cc+      W?$Wti0V$WCPtrSList$::1n$my_ct_mlist$$$$n[]uc
004310f0+      W?$Wti0U$WCPtrSList$::1n$LFSubField$$$$n[]uc
00431114+      W?$Wti0X$WCValSList$::1npn$my_ct_mlist$$$$n[]uc
0043113c+      W?$Wti0W$WCValSList$::1npn$LFSubField$$$$n[]uc
00431164+      W?$Wti0Y$WCPtrSListIter$::1n$LFSubField$$$$n[]uc
0043118c+      W?$Wti0d$WCPtrConstSListIter$::1n$LFSubField$$$$n[]uc
004311b8+      W?$Wti0e$WCPtrConstSListIter$::1n$my_ct_mlist$$$$n[]uc
004311e8+      W?$Wti0D$LFVFuncOff$$$n[]uc
004311fc+      W?$Wti0E$LFOneMethod$$$n[]uc
00431210+      W?$Wti0E$LFFriendCls$$$n[]uc
00431224+      W?$Wti0D$LFVFuncTab$$$n[]uc
00431238+      W?$Wti0F$LFNestedType$$$n[]uc
0043124c+      W?$Wti0B$LFMethod$$$n[]uc
0043125c+      W?$Wti0B$LFMember$$$n[]uc
0043126c+      W?$Wti0A$LFIndex$$$n[]uc
0043127c+      W?$Wti0E$LFFriendFcn$$$n[]uc
00431290+      W?$Wti0E$LFEnumerate$$$n[]uc
004312a4+      W?$Wti0C$LFVBClass$$$n[]uc
004312b8+      W?$Wti0B$LFBClass$$$n[]uc
004312c8+      W?$Wti0D$LFDimConlu$$$n[]uc
004312dc+      W?$Wti0C$LFDimConu$$$n[]uc
004312f0+      W?$Wti0F$LFMethodList$$$n[]uc
00431304+      W?$Wti0D$LFBitField$$$n[]uc
00431318+      W?$Wti0C$LFDerived$$$n[]uc
0043132c+      W?$Wti0E$LFFieldList$$$n[]uc
00431340+      W?$Wti0B$LFDefArg$$$n[]uc
00431350+      W?$Wti0C$LFArgList$$$n[]uc
00431364+      W?$Wti0C$LFVftPath$$$n[]uc
00431378+      W?$Wti0D$LFDimArray$$$n[]uc
0043138c+      W?$Wti0A$LFLabel$$$n[]uc
0043139c+      W?$Wti0B$LFBArray$$$n[]uc
004313ac+      W?$Wti0B$LFCobol1$$$n[]uc
004313bc+      W?$Wti0B$LFCobol0$$$n[]uc
004313cc+      W?$Wti0C$LFVtShape$$$n[]uc
004313e0+      W?$Wti0E$LFMFunction$$$n[]uc
004313f4+      W?$Wti0E$LFProcedure$$$n[]uc
00431408+      W?$Wti09$LFEnum$$$n[]uc
00431418+      W?$Wti0A$LFUnion$$$n[]uc
00431428+      W?$Wti0A$LFClass$$$n[]uc
00431438+      W?$Wti0A$LFArray$$$n[]uc
00431448+      W?$Wti0C$LFPointer$$$n[]uc
0043145c+      W?$Wti0D$LFModifier$$$n[]uc
00431470+      W?$Wti09$LFNull$$$n[]uc
00431480+      W?$Wti0D$LFNotTrans$$$n[]uc
00431494+      W?$Wti0D$LFSubField$$$n[]uc
004314a8+      W?$Wti0F$LFLeafStruct$$$n[]uc
004314bc       W?$Wti0F$WCIterExcept$$$n[]uc
0040d440+      W?$ct:WCIsvSListBase$::1n$WCNIsvSLink$::1npn$my_ct_mlist$$$n()_
0040a5c0+      W?DerivedPut$:LFOneMethod$n.x(rn$ExeMaker$$)v
0040a5e0+      W?DerivedPut$:LFVFuncOff$n.x(rn$ExeMaker$$)v
0042b610+      W?$Wts0an$WCPtrSListIter$::1n$my_ct_mlist$$$$nx[]uc
00431068+      W?_subFieldConstructorTable$:LFFieldList$n[]pn(pnxa)pn$LFSubField$$
00444120+      W?_localTypeArray$:LFLeafStruct$npn$TypeArray$$
00444124+      W?_globalTypeArray$:LFLeafStruct$npn$TypeArray$$
Module: subsect.obj(/mnt/sda5/.user/root/src/openwatcom-1.9/bld/cvpack/cpp/subsect.cpp)
0040ebd0       W?$ct:VariantString$n(pnxaui)_
0040ec20       W?$ct:WCListIterBase$n()_
0040ec90+      W?base_reset$:WCListIterBase$n()v
0040eca0       W?$ct:SymbolStruct$n()_
0040ecf0       W?$dt:SymbolStruct$n()_
0040eda0       W?CodeSegment$:SymbolStruct$n.x()ui
0040edb0       W?DataSegment$:SymbolStruct$n.x()ui
0040edc0       W?MemOffset$:SymbolStruct$n.x()ui
0040edd0       W?SetParent$:SymbolStruct$n(ul)v
0040ede0       W?SetNext$:SymbolStruct$n(ul)v
0040edf0       W?SetEnd$:SymbolStruct$n(ul)v
0040ee00       W?FixType$:SymbolStruct$n()v
0040ee10       W?IsStartSym$:SymbolStruct$n.x()q
0040ee20       W?cSum$:SymbolStruct$n.x()ul
0040ee40       W?Name$:SymbolStruct$n.x()pnxa
0040ee50       W?DerivedPut$:SymbolStruct$n.x(rn$ExeMaker$$)v
0040ee60       W?SetNext$:CSStartSearch$n(ul)v
0040ee70       W?$dt:CSStartSearch$n()_
0040ef20+      W?$dt:CSPageAlign$n()_
0040efd0+      W?$dt:NameHashTable$n()_
0040f010+      W?$dt:AddrHashTable$n()_
0040d540+      W?FixUpTypes$:SstGlobalTypes$n(us)v
0040d590+      W?ProcessTypes$:SstGlobalTypes$n(pn$LFTypeRecord$$)v
0040d6d0       W?LoadTypes$:SstGlobalTypes$n(rn$Retriever$$ul)q
0040da90+      W?Append$:SstGlobalTypes$n(pn$LFTypeRecord$$)v
0040db20       W?Put$:SstGlobalTypes$n.x(rn$ExeMaker$$)v
0040dc10+      W?DumpPageAlign$:SymbolSubsection$n(rn$ExeMaker$$uiuc)ui
0040dc80+      W?PageAlign$:SymbolSubsection$n(rn$ExeMaker$$uiul)ui
0040dcb0+      W?PadCount$:SymbolSubsection$n(uiul)ui
0040dcd0+      W?InsertOneRecord$:SstAlignSym$n(pn$SymbolStruct$$)i
0040ddf0       W?Insert$:SstAlignSym$n(pn$SymbolStruct$$)i
0040e050       W?Put$:SstAlignSym$n.x(rn$ExeMaker$$)v
0040e140       W?Put$:SstGlobalSym$n(rn$ExeMaker$$ui)v
0040e440+      W?Find$:NameHashTable$n.x(rnx$WCPtrSList$::1n$chain_table$:1$$ul)pn$SymbolStruct$$
0040e560+      W?TryToInsert$:NameHashTable$n(pn$SymbolStruct$$)q
0040e6d0+      W?Put$:NameHashTable$n.x(rn$ExeMaker$$)v
0040f0f0+      W?$dt:WCPtrListBase$::1n$chain_table$:NameHashTable$$1n$WCValSList$::1npn$1:2$$n()_
0040f160+      W?$dt:WCPtrListBase$::1n$offset_table$:AddrHashTable$$1n$WCValSList$::1npn$1:2$$n()_
0040f1d0+      W?base_equivalent$:WCValSList$::1npn$chain_table$:NameHashTable$$n.x(rnxpn$2:3$rnxpn$2:3$)i
0040f1e0+      W?$dt:WCValSList$::1npn$chain_table$:NameHashTable$$n()_
0040f280+      W?base_equivalent$:WCValSList$::1npn$offset_table$:AddrHashTable$$n.x(rnxpn$2:3$rnxpn$2:3$)i
0040f290+      W?$dt:WCValSList$::1npn$offset_table$:AddrHashTable$$n()_
0040f330+      W?base_equivalent$:WCPtrSList$::1n$chain_table$:NameHashTable$$n.x(rnxpn$2:3$rnxpn$2:3$)i
0040f350+      W?$ct:WCPtrSList$::1n$chain_table$:NameHashTable$$n()_
0040f3f0+      W?$dt:WCPtrSList$::1n$chain_table$:NameHashTable$$n()_
0040f4b0+      W?base_equivalent$:WCPtrSList$::1n$offset_table$:AddrHashTable$$n.x(rnxpn$2:3$rnxpn$2:3$)i
0040f4d0+      W?$ct:WCPtrSList$::1n$offset_table$:AddrHashTable$$n()_
0040f570+      W?$dt:WCPtrSList$::1n$offset_table$:AddrHashTable$$n()_
0040f630+      W?$ct:WCStack$::1npn$SymbolStruct$$1n$WCPtrSList$::1n$1$$n()_
0040f6e0+      W?$dt:WCStack$::1npn$SymbolStruct$$1n$WCPtrSList$::1n$1$$n()_
0040f7b0       W?$dt:WCValListIterBase$::1npn$LFTypeRecord$$1n$WCPtrSList$::1n$1$$1n$WCNIsvSLink$::1npn$1$$n()_
0040f810       W?current$:WCValListIterBase$::1npn$LFTypeRecord$$1n$WCPtrSList$::1n$2$$1n$WCNIsvSLink$::1npn$2$$n.x()pn$2$
0040f830+      W?$dt:WCValListIterBase$::1npn$SymbolStruct$$1n$WCPtrSList$::1n$1$$1n$WCNIsvSLink$::1npn$1$$n()_
0040f890+      W?current$:WCValListIterBase$::1npn$SymbolStruct$$1n$WCPtrSList$::1n$2$$1n$WCNIsvSLink$::1npn$2$$n.x()pn$2$
0040f8b0+      W?$dt:WCValListIterBase$::1npn$chain_table$:NameHashTable$$1n$WCPtrSList$::1n$1:2$$1n$WCNIsvSLink$::1npn$1:2$$n()_
0040f910+      W?current$:WCValListIterBase$::1npn$chain_table$:NameHashTable$$1n$WCPtrSList$::1n$2:3$$1n$WCNIsvSLink$::1npn$2:3$$n.x()pn$2:3$
0040f930+      W?$dt:WCValListIterBase$::1npn$offset_table$:AddrHashTable$$1n$WCPtrSList$::1n$1:2$$1n$WCNIsvSLink$::1npn$1:2$$n()_
0040f990+      W?current$:WCValListIterBase$::1npn$offset_table$:AddrHashTable$$1n$WCPtrSList$::1n$2:3$$1n$WCNIsvSLink$::1npn$2:3$$n.x()pn$2:3$
0040f9b0       W?$dt:WCPtrSListIter$::1n$LFTypeRecord$$n()_
0040fa50+      W?$dt:WCPtrSListIter$::1n$SymbolStruct$$n()_
0040faf0+      W?$dt:WCPtrSListIter$::1n$chain_table$:NameHashTable$$n()_
0040fb90+      W?$dt:WCPtrSListIter$::1n$offset_table$:AddrHashTable$$n()_
0040fc30+      W?$dt:WCPtrConstSListIter$::1n$SymbolStruct$$n()_
0040fcf0+      W?$ct:WCPtrConstSListIter$::1n$chain_table$:NameHashTable$$n()_
0040fd90+      W?$dt:WCPtrConstSListIter$::1n$chain_table$:NameHashTable$$n()_
0040fe50+      W?$ct:WCPtrConstSListIter$::1n$offset_table$:AddrHashTable$$n()_
0040fef0+      W?$dt:WCPtrConstSListIter$::1n$offset_table$:AddrHashTable$$n()_
0040ffb0+      W?insert$:WCValListBase$::1npn$SymbolStruct$$1n$WCIsvSListBase$::1n$WCNIsvSLink$::1npn$2$$$1n$4::1npn$2$$n(rnxpn$2$)i
0040ffe0+      W?append$:WCValListBase$::1npn$chain_table$:NameHashTable$$1n$WCIsvSListBase$::1n$WCNIsvSLink$::1npn$2:3$$$1n$5::1npn$2:3$$n(rnxpn$2:3$)i
00410010+      W?append$:WCValListBase$::1npn$offset_table$:AddrHashTable$$1n$WCIsvSListBase$::1n$WCNIsvSLink$::1npn$2:3$$$1n$5::1npn$2:3$$n(rnxpn$2:3$)i
00410040+      W?$ct:WCPtrListBase$::1n$chain_table$:NameHashTable$$1n$WCValSList$::1npn$1:2$$n(pn(ui)pnvpn(pnvui)v)_
004100f0+      W?$ct:WCPtrListBase$::1n$offset_table$:AddrHashTable$$1n$WCValSList$::1npn$1:2$$n(pn(ui)pnvpn(pnvui)v)_
004101a0+      W?$ct:WCValSList$::1npn$chain_table$:NameHashTable$$n(pn(ui)pnvpn(pnvui)v)_
00410250+      W?$ct:WCValSList$::1npn$offset_table$:AddrHashTable$$n(pn(ui)pnvpn(pnvui)v)_
00410300+      W?$ct:WCPtrSListIter$::1n$chain_table$:NameHashTable$$n()_
00410380+      W?$ct:WCPtrSListIter$::1n$offset_table$:AddrHashTable$$n()_
00410400+      W?clear$:WCBareVectorBase$::1npnvn()v
00410410+      W?$od:WCValVector$::1npnvn(i)rnpnv
00410480+      W?clearAndDestroy$:WCIsvSListBase$::1n$WCNIsvSLink$::1npn$LFTypeRecord$$$n()v
00410490+      W?isEmpty$:WCIsvSListBase$::1n$WCNIsvSLink$::1npn$SymbolStruct$$$n.x()i
004104a0+      W?find$:WCValListBase$::1npn$SymbolStruct$$1n$WCIsvSListBase$::1n$WCNIsvSLink$::1npn$2$$$1n$4::1npn$2$$n.x(i)pn$2$
004104b0+      W?$ct:WCValListBase$::1npn$chain_table$:NameHashTable$$1n$WCIsvSListBase$::1n$WCNIsvSLink$::1npn$1:2$$$1n$4::1npn$1:2$$n(pn(ui)pnvpn(pnvui)v)_
00410550+      W?WCListNew$:WCValListBase$::1npn$chain_table$:NameHashTable$$1n$WCIsvSListBase$::1n$WCNIsvSLink$::1npn$2:3$$$1n$5::1npn$2:3$$n(rnxpn$2:3$)pn$5::1npn$2:3$$
00410590+      W?$ct:WCValListBase$::1npn$offset_table$:AddrHashTable$$1n$WCIsvSListBase$::1n$WCNIsvSLink$::1npn$1:2$$$1n$4::1npn$1:2$$n(pn(ui)pnvpn(pnvui)v)_
00410630+      W?WCListNew$:WCValListBase$::1npn$offset_table$:AddrHashTable$$1n$WCIsvSListBase$::1n$WCNIsvSLink$::1npn$2:3$$$1n$5::1npn$2:3$$n(rnxpn$2:3$)pn$5::1npn$2:3$$
00410670+      W?$ct:WCValListIterBase$::1npn$chain_table$:NameHashTable$$1n$WCPtrSList$::1n$1:2$$1n$WCNIsvSLink$::1npn$1:2$$n()_
004106e0+      W?$ct:WCValListIterBase$::1npn$offset_table$:AddrHashTable$$1n$WCPtrSList$::1n$1:2$$1n$WCNIsvSLink$::1npn$1:2$$n()_
0042c480       W?$Wvf0Gok:SymbolStruct$$nx[]pn()v
0042c4c0       W?$Wvf0Hok:CSStartSearch$$nx[]pn()v
0042c500+      W?$Wvf0Fok:CSPageAlign$$nx[]pn()v
0042c540+      W?$Wvf1Eo4:WCPtrListBase$::1n$chain_table$:NameHashTable$$1n$WCValSList$::1npn$1:2$$$nx[]pn()v
0042c550+      W?$Wvf1Fo4:WCPtrListBase$::1n$offset_table$:AddrHashTable$$1n$WCValSList$::1npn$1:2$$$nx[]pn()v
0042c560+      W?$Wvf0no4:WCValSList$::1npn$chain_table$:NameHashTable$$$nx[]pn()v
0042c570+      W?$Wvf0oo4:WCValSList$::1npn$offset_table$:AddrHashTable$$$nx[]pn()v
0042c580+      W?$Wvf0lo4:WCPtrSList$::1n$chain_table$:NameHashTable$$$nx[]pn()v
0042c590+      W?$Wvf0mo4:WCPtrSList$::1n$offset_table$:AddrHashTable$$$nx[]pn()v
0042c5a0+      W?$Wvf0so4:WCStack$::1npn$SymbolStruct$$1n$WCPtrSList$::1n$1$$$nx[]pn()v
0042c5b0       W?$Wvf1Ro4:WCValListIterBase$::1npn$LFTypeRecord$$1n$WCPtrSList$::1n$1$$1n$WCNIsvSLink$::1npn$1$$$nx[]pn()v
0042c5c0+      W?$Wvf1Ro4:WCValListIterBase$::1npn$SymbolStruct$$1n$WCPtrSList$::1n$1$$1n$WCNIsvSLink$::1npn$1$$$nx[]pn()v
0042c5d0+      W?$Wvf1jo4:WCValListIterBase$::1npn$chain_table$:NameHashTable$$1n$WCPtrSList$::1n$1:2$$1n$WCNIsvSLink$::1npn$1:2$$$nx[]pn()v
0042c5e0+      W?$Wvf1ko4:WCValListIterBase$::1npn$offset_table$:AddrHashTable$$1n$WCPtrSList$::1n$1:2$$1n$WCNIsvSLink$::1npn$1:2$$$nx[]pn()v
0042c5f0       W?$Wvf0bo4:WCPtrSListIter$::1n$LFTypeRecord$$$nx[]pn()v
0042c600+      W?$Wvf0bo4:WCPtrSListIter$::1n$SymbolStruct$$$nx[]pn()v
0042c610+      W?$Wvf0po4:WCPtrSListIter$::1n$chain_table$:NameHashTable$$$nx[]pn()v
0042c620+      W?$Wvf0qo4:WCPtrSListIter$::1n$offset_table$:AddrHashTable$$$nx[]pn()v
0042c630+      W?$Wvf0go4:WCPtrConstSListIter$::1n$SymbolStruct$$$nx[]pn()v
0042c640+      W?$Wvf0uo4:WCPtrConstSListIter$::1n$chain_table$:NameHashTable$$$nx[]pn()v
0042c650+      W?$Wvf0vo4:WCPtrConstSListIter$::1n$offset_table$:AddrHashTable$$$nx[]pn()v
0042c660       W?$Wts0Gn$SymbolStruct$$$nx[]uc
0042c680       W?$Wts0Hn$CSStartSearch$$$nx[]uc
0042c6a0+      W?$Wts0Fn$CSPageAlign$$$nx[]uc
0042c6c0+      W?$Wts0ln$WCPtrSList$::1n$chain_table$:NameHashTable$$$$nx[]uc
0042c6e0+      W?$Wts0mn$WCPtrSList$::1n$offset_table$:AddrHashTable$$$$nx[]uc
0042c700+      W?$Wts0sn$WCStack$::1npn$SymbolStruct$$1n$WCPtrSList$::1n$1$$$$nx[]uc
0042c720       W?$Wts0bn$WCPtrSListIter$::1n$LFTypeRecord$$$$nx[]uc
0042c740+      W?$Wts0gn$WCPtrConstSListIter$::1n$SymbolStruct$$$$nx[]uc
0042c760+      W?$Wts0Hn$NameHashTable$$$nx[]uc
0042c780+      W?$Wts0Hn$AddrHashTable$$$nx[]uc
0042c7a0+      W?$Wts0un$WCPtrConstSListIter$::1n$chain_table$:NameHashTable$$$$nx[]uc
0042c7c0+      W?$Wts0vn$WCPtrConstSListIter$::1n$offset_table$:AddrHashTable$$$$nx[]uc
0042c7e0+      W?$Wts0nn$WCValSList$::1npn$chain_table$:NameHashTable$$$$nx[]uc
0042c800+      W?$Wts0on$WCValSList$::1npn$offset_table$:AddrHashTable$$$$nx[]uc
0042c820+      W?$Wts0bn$WCPtrSListIter$::1n$SymbolStruct$$$$nx[]uc
0042c840+      W?$Wts0pn$WCPtrSListIter$::1n$chain_table$:NameHashTable$$$$nx[]uc
004314e0+      W?$Wti0p$WCPtrSListIter$::1n$offset_table$:AddrHashTable$$$$n[]uc
00431518+      W?$Wti0o$WCPtrSListIter$::1n$chain_table$:NameHashTable$$$$n[]uc
0043154f+      W?$Wti0a$WCPtrSListIter$::1n$SymbolStruct$$$$n[]uc
00431578+      W?$Wti0n$WCValSList$::1npn$offset_table$:AddrHashTable$$$$n[]uc
004315ae+      W?$Wti0m$WCValSList$::1npn$chain_table$:NameHashTable$$$$n[]uc
004315e3+      W?$Wti0u$WCPtrConstSListIter$::1n$offset_table$:AddrHashTable$$$$n[]uc
00431620+      W?$Wti0t$WCPtrConstSListIter$::1n$chain_table$:NameHashTable$$$$n[]uc
0043165c+      W?$Wti0G$AddrHashTable$$$n[]uc
00431671+      W?$Wti0G$NameHashTable$$$n[]uc
00431686+      W?$Wti0f$WCPtrConstSListIter$::1n$SymbolStruct$$$$n[]uc
004316b4       W?$Wti0a$WCPtrSListIter$::1n$LFTypeRecord$$$$n[]uc
004316dd+      W?$Wti0r$WCStack$::1npn$SymbolStruct$$1n$WCPtrSList$::1n$1$$$$n[]uc
00431717+      W?$Wti0l$WCPtrSList$::1n$offset_table$:AddrHashTable$$$$n[]uc
0043174b+      W?$Wti0k$WCPtrSList$::1n$chain_table$:NameHashTable$$$$n[]uc
0043177e+      W?$Wti0E$CSPageAlign$$$n[]uc
00431791       W?$Wti0G$CSStartSearch$$$n[]uc
004317a6       W?$Wti0F$SymbolStruct$$$n[]uc
00410750+      W?$ct:WCIsvSListBase$::1n$WCNIsvSLink$::1npn$chain_table$:NameHashTable$$$n()_
004107d0+      W?$ct:WCIsvSListBase$::1n$WCNIsvSLink$::1npn$offset_table$:AddrHashTable$$$n()_
0040e890+      W?TryToInsert$:AddrHashTable$n(pn$SymbolStruct$$)q
0040e960+      W?Compare$:AddrHashTable$n(pnxvpnxv)i
0040e990+      W?Put$:AddrHashTable$n.x(rn$ExeMaker$$)v
0042c860+      W?$Wts0qn$WCPtrSListIter$::1n$offset_table$:AddrHashTable$$$$nx[]uc
00444128       W?symStack$:SstAlignSym$n$WCStack$::1npn$SymbolStruct$$1n$WCPtrSList$::1n$3$$$
Module: cssymbol.obj(/mnt/sda5/.user/root/src/openwatcom-1.9/bld/cvpack/cpp/cssymbol.cpp)
00413220+      W?$dt:CSCompile$n()_
004132e0+      W?$dt:CSRegister$n()_
00413390+      W?FixType$:CSRegister$n()v
004133b0+      W?$dt:CSConstant$n()_
00413480+      W?FixType$:CSConstant$n()v
004134a0+      W?$dt:CSUdt$n()_
00413550+      W?FixType$:CSUdt$n()v
00413570+      W?$dt:CSEndBlock$n()_
00413620+      W?$dt:CSObjName$n()_
004136d0+      W?$dt:CSEndOfArg$n()_
00413780+      W?$dt:CSCobolUdt$n()_
00413830+      W?FixType$:CSCobolUdt$n()v
00413850+      W?$dt:CSManyReg$n()_
00413920+      W?FixType$:CSManyReg$n()v
00413940+      W?$dt:CSReturn$n()_
00413a10+      W?$dt:CSEntryThis$n()_
00413ae0+      W?$dt:CSBPRel16$n()_
00413b90+      W?FixType$:CSBPRel16$n()v
00413bb0+      W?$dt:CSLData16$n()_
00413c60+      W?DataSegment$:CSLData16$n.x()ui
00413c70+      W?MemOffset$:CSLData16$n.x()ui
00413c80+      W?FixType$:CSLData16$n()v
00413ca0+      W?$dt:CSPub16$n()_
00413d50+      W?DataSegment$:CSPub16$n.x()ui
00413d60+      W?CodeSegment$:CSPub16$n.x()ui
00413d70+      W?MemOffset$:CSPub16$n.x()ui
00413d80+      W?FixType$:CSPub16$n()v
00413da0+      W?$dt:CSLProc16$n()_
00413e50+      W?CodeSegment$:CSLProc16$n.x()ui
00413e60+      W?MemOffset$:CSLProc16$n.x()ui
00413e70+      W?IsStartSym$:CSLProc16$n.x()q
00413e80+      W?SetParent$:CSLProc16$n(ul)v
00413e90+      W?SetNext$:CSLProc16$n(ul)v
00413ea0+      W?SetEnd$:CSLProc16$n(ul)v
00413eb0+      W?FixType$:CSLProc16$n()v
00413ed0+      W?$dt:CSThunk16$n()_
00413f80+      W?IsStartSym$:CSThunk16$n.x()q
00413f90+      W?CodeSegment$:CSThunk16$n.x()ui
00413fa0+      W?MemOffset$:CSThunk16$n.x()ui
00413fb0+      W?SetParent$:CSThunk16$n(ul)v
00413fc0+      W?SetNext$:CSThunk16$n(ul)v
00413fd0+      W?SetEnd$:CSThunk16$n(ul)v
00413fe0+      W?$dt:CSBlock16$n()_
00414090+      W?IsStartSym$:CSBlock16$n.x()q
004140a0+      W?CodeSegment$:CSBlock16$n.x()ui
004140b0+      W?MemOffset$:CSBlock16$n.x()ui
004140c0+      W?SetParent$:CSBlock16$n(ul)v
004140d0+      W?SetEnd$:CSBlock16$n(ul)v
004140e0+      W?$dt:CSWith16$n()_
004141a0+      W?IsStartSym$:CSWith16$n.x()q
004141b0+      W?CodeSegment$:CSWith16$n.x()ui
004141c0+      W?MemOffset$:CSWith16$n.x()ui
004141d0+      W?SetParent$:CSWith16$n(ul)v
004141e0+      W?SetEnd$:CSWith16$n(ul)v
004141f0+      W?$dt:CSLabel16$n()_
004142a0+      W?CodeSegment$:CSLabel16$n.x()ui
004142b0+      W?MemOffset$:CSLabel16$n.x()ui
004142c0+      W?$dt:CSCExModel16$n()_
00414390+      W?$dt:CSVftPath16$n()_
00414440+      W?DataSegment$:CSVftPath16$n.x()ui
00414450+      W?MemOffset$:CSVftPath16$n.x()ui
00414460+      W?FixType$:CSVftPath16$n()v
00414490+      W?$dt:CSRegRel16$n()_
00414540+      W?FixType$:CSRegRel16$n()v
00414560+      W?$dt:CSBPRel32$n()_
00414610+      W?FixType$:CSBPRel32$n()v
00414630+      W?$dt:CSLData32$n()_
004146e0+      W?DataSegment$:CSLData32$n.x()ui
004146f0+      W?MemOffset$:CSLData32$n.x()ui
00414700+      W?FixType$:CSLData32$n()v
00414720+      W?$dt:CSPub32$n()_
004147d0+      W?DataSegment$:CSPub32$n.x()ui
004147e0+      W?CodeSegment$:CSPub32$n.x()ui
004147f0+      W?MemOffset$:CSPub32$n.x()ui
00414800+      W?FixType$:CSPub32$n()v
00414820+      W?$dt:CSPub32_new$n()_
004148d0+      W?DataSegment$:CSPub32_new$n.x()ui
004148e0+      W?CodeSegment$:CSPub32_new$n.x()ui
004148f0+      W?MemOffset$:CSPub32_new$n.x()ui
00414900+      W?FixType$:CSPub32_new$n()v
00414920+      W?$dt:CSLProc32$n()_
004149d0+      W?CodeSegment$:CSLProc32$n.x()ui
004149e0+      W?MemOffset$:CSLProc32$n.x()ui
004149f0+      W?IsStartSym$:CSLProc32$n.x()q
00414a00+      W?SetParent$:CSLProc32$n(ul)v
00414a10+      W?SetNext$:CSLProc32$n(ul)v
00414a20+      W?SetEnd$:CSLProc32$n(ul)v
00414a30+      W?FixType$:CSLProc32$n()v
00414a50+      W?$dt:CSThunk32$n()_
00414b00+      W?IsStartSym$:CSThunk32$n.x()q
00414b10+      W?CodeSegment$:CSThunk32$n.x()ui
00414b20+      W?MemOffset$:CSThunk32$n.x()ui
00414b30+      W?SetParent$:CSThunk32$n(ul)v
00414b40+      W?SetNext$:CSThunk32$n(ul)v
00414b50+      W?SetEnd$:CSThunk32$n(ul)v
00414b60+      W?$dt:CSBlock32$n()_
00414c10+      W?IsStartSym$:CSBlock32$n.x()q
00414c20+      W?CodeSegment$:CSBlock32$n.x()ui
00414c30+      W?MemOffset$:CSBlock32$n.x()ui
00414c40+      W?SetParent$:CSBlock32$n(ul)v
00414c50+      W?SetEnd$:CSBlock32$n(ul)v
00414c60+      W?$dt:CSWith32$n()_
00414d20+      W?IsStartSym$:CSWith32$n.x()q
00414d30+      W?CodeSegment$:CSWith32$n.x()ui
00414d40+      W?MemOffset$:CSWith32$n.x()ui
00414d50+      W?SetParent$:CSWith32$n(ul)v
00414d60+      W?SetEnd$:CSWith32$n(ul)v
00414d70+      W?$dt:CSLabel32$n()_
00414e20+      W?CodeSegment$:CSLabel32$n.x()ui
00414e30+      W?MemOffset$:CSLabel32$n.x()ui
00414e40+      W?$dt:CSCExModel32$n()_
00414f10+      W?$dt:CSVftPath32$n()_
00414fc0+      W?DataSegment$:CSVftPath32$n.x()ui
00414fd0+      W?MemOffset$:CSVftPath32$n.x()ui
00414fe0+      W?FixType$:CSVftPath32$n()v
00415010+      W?$dt:CSRegRel32$n()_
004150c0+      W?FixType$:CSRegRel32$n()v
004150e0+      W?$dt:CSLThread32$n()_
00415190+      W?DataSegment$:CSLThread32$n.x()ui
004151a0+      W?MemOffset$:CSLThread32$n.x()ui
004151b0+      W?FixType$:CSLThread32$n()v
00410850       W?$ra:SymbolStruct$n.x(rnx$0$)q
00410870       W?$ct:SymbolStruct$n(usus)_
00410900+      W?$ct:SymbolStruct$n($s_common$$)_
004109a0+      W?$ct:SymbolStruct$n($s_common$$pnxaui)_
00410a40+      W?byt_toupper$:SymbolStruct$n(uc)uc
00410a50+      W?dwrd_toupper$:SymbolStruct$n(ul)ul
00410a60       W?checkSum$:SymbolStruct$n(pnxa)ul
00410ad0       W?Error$:SymbolStruct$n(pnxa)pn$1$
00410b00       W?Construct$:CSCompile$n(pnxa)pn$SymbolStruct$$
00410c10       W?Construct$:CSRegister$n(pnxa)pn$SymbolStruct$$
00410cf0       W?Construct$:CSConstant$n(pnxa)pn$SymbolStruct$$
00410e10       W?Construct$:CSUdt$n(pnxa)pn$SymbolStruct$$
00410ee0       W?Construct$:CSStartSearch$n(pnxa)pn$SymbolStruct$$
00410fb0       W?Construct$:CSEndBlock$n(pnxa)pn$SymbolStruct$$
00411060       W?Construct$:CSSkipRecord$n(pnxa)pn$SymbolStruct$$
00411070       W?Construct$:CSObjName$n(pnxa)pn$SymbolStruct$$
00411140       W?Construct$:CSEndOfArg$n(pnxa)pn$SymbolStruct$$
004111f0       W?Construct$:CSCobolUdt$n(pnxa)pn$SymbolStruct$$
004112c0       W?Construct$:CSManyReg$n(pnxa)pn$SymbolStruct$$
004113d0       W?Construct$:CSReturn$n(pnxa)pn$SymbolStruct$$
004114f0       W?Construct$:CSEntryThis$n(pnxa)pn$SymbolStruct$$
00411610       W?Construct$:CSBPRel16$n(pnxa)pn$SymbolStruct$$
004116f0       W?Construct$:CSLData16$n(pnxa)pn$SymbolStruct$$
004117d0       W?Construct$:CSPub16$n(pnxa)pn$SymbolStruct$$
004118b0       W?Construct$:CSLProc16$n(pnxa)pn$SymbolStruct$$
004119c0       W?Construct$:CSThunk16$n(pnxa)pn$SymbolStruct$$
00411ac0       W?Construct$:CSBlock16$n(pnxa)pn$SymbolStruct$$
00411ba0       W?Construct$:CSWith16$n(pnxa)pn$SymbolStruct$$
00411ca0       W?Construct$:CSLabel16$n(pnxa)pn$SymbolStruct$$
00411d80       W?Construct$:CSCExModel16$n(pnxa)pn$SymbolStruct$$
00411e90       W?Construct$:CSVftPath16$n(pnxa)pn$SymbolStruct$$
00411f60       W?Construct$:CSRegRel16$n(pnxa)pn$SymbolStruct$$
00412040       W?Construct$:CSBPRel32$n(pnxa)pn$SymbolStruct$$
00412120       W?Construct$:CSLData32$n(pnxa)pn$SymbolStruct$$
00412200       W?Construct$:CSPub32$n(pnxa)pn$SymbolStruct$$
004122e0       W?Construct$:CSPub32_new$n(pnxa)pn$SymbolStruct$$
004123c0       W?Construct$:CSLProc32$n(pnxa)pn$SymbolStruct$$
004124d0       W?Construct$:CSThunk32$n(pnxa)pn$SymbolStruct$$
004125c0       W?Construct$:CSBlock32$n(pnxa)pn$SymbolStruct$$
004126a0       W?Construct$:CSWith32$n(pnxa)pn$SymbolStruct$$
004127a0       W?Construct$:CSLabel32$n(pnxa)pn$SymbolStruct$$
00412870       W?Construct$:CSCExModel32$n(pnxa)pn$SymbolStruct$$
00412980       W?Construct$:CSVftPath32$n(pnxa)pn$SymbolStruct$$
00412a50       W?Construct$:CSRegRel32$n(pnxa)pn$SymbolStruct$$
00412b30       W?Construct$:CSLThread32$n(pnxa)pn$SymbolStruct$$
00412c20+      W?DerivedPut$:CSCompile$n.x(rn$ExeMaker$$)v
00412c50+      W?DerivedPut$:CSRegister$n.x(rn$ExeMaker$$)v
00412c70+      W?DerivedPut$:CSConstant$n.x(rn$ExeMaker$$)v
00412ca0+      W?DerivedPut$:CSUdt$n.x(rn$ExeMaker$$)v
00412cc0       W?DerivedPut$:CSStartSearch$n.x(rn$ExeMaker$$)v
00412ce0+      W?DerivedPut$:CSObjName$n.x(rn$ExeMaker$$)v
00412d00+      W?DerivedPut$:CSCobolUdt$n.x(rn$ExeMaker$$)v
00412d20+      W?DerivedPut$:CSManyReg$n.x(rn$ExeMaker$$)v
00412d50+      W?DerivedPut$:CSReturn$n.x(rn$ExeMaker$$)v
00412d80+      W?DerivedPut$:CSEntryThis$n.x(rn$ExeMaker$$)v
00412d90       W?Put$:SymbolStruct$n.x(rn$ExeMaker$$)v
00412e00+      W?DerivedPut$:CSBPRel16$n.x(rn$ExeMaker$$)v
00412e20+      W?DerivedPut$:CSLData16$n.x(rn$ExeMaker$$)v
00412e40+      W?DerivedPut$:CSPub16$n.x(rn$ExeMaker$$)v
00412e60+      W?DerivedPut$:CSLProc16$n.x(rn$ExeMaker$$)v
00412e80+      W?DerivedPut$:CSThunk16$n.x(rn$ExeMaker$$)v
00412ea0+      W?DerivedPut$:CSBlock16$n.x(rn$ExeMaker$$)v
00412ec0+      W?DerivedPut$:CSWith16$n.x(rn$ExeMaker$$)v
00412ee0+      W?DerivedPut$:CSLabel16$n.x(rn$ExeMaker$$)v
00412f00+      W?DerivedPut$:CSCExModel16$n.x(rn$ExeMaker$$)v
00412f30+      W?DerivedPut$:CSVftPath16$n.x(rn$ExeMaker$$)v
00412f50+      W?DerivedPut$:CSRegRel16$n.x(rn$ExeMaker$$)v
00412f70+      W?DerivedPut$:CSBPRel32$n.x(rn$ExeMaker$$)v
00412f90+      W?DerivedPut$:CSLData32$n.x(rn$ExeMaker$$)v
00412fb0+      W?DerivedPut$:CSPub32$n.x(rn$ExeMaker$$)v
00412fd0+      W?DerivedPut$:CSPub32_new$n.x(rn$ExeMaker$$)v
00412ff0+      W?DerivedPut$:CSLProc32$n.x(rn$ExeMaker$$)v
00413010+      W?DerivedPut$:CSThunk32$n.x(rn$ExeMaker$$)v
00413030+      W?DerivedPut$:CSBlock32$n.x(rn$ExeMaker$$)v
00413050+      W?DerivedPut$:CSWith32$n.x(rn$ExeMaker$$)v
00413070+      W?DerivedPut$:CSLabel32$n.x(rn$ExeMaker$$)v
00413090+      W?DerivedPut$:CSCExModel32$n.x(rn$ExeMaker$$)v
004130c0+      W?DerivedPut$:CSVftPath32$n.x(rn$ExeMaker$$)v
004130e0+      W?DerivedPut$:CSRegRel32$n.x(rn$ExeMaker$$)v
00413100+      W?DerivedPut$:CSLThread32$n.x(rn$ExeMaker$$)v
00413120       W?DerivedPut$:CSProcRef$n.x(rn$ExeMaker$$)v
00413180       W?DerivedPut$:CSDataRef$n.x(rn$ExeMaker$$)v
00415250+      W?$ct:__sspdf$:cv_proc$n(rnx$0:1$)_
004152b0+      W?$ct:__uiq7nf$:__8tjdl6cv_return_flags$n(rnx$0:1$)_
004152e0+      W?$ct:__101t1f$:__6bn8u8cv_compile$n(rnx$0:1$)_
0042da30+      W?$Wvf0Dok:CSCompile$$nx[]pn()v
0042da70+      W?$Wvf0Eok:CSRegister$$nx[]pn()v
0042dab0+      W?$Wvf0Eok:CSConstant$$nx[]pn()v
0042daf0+      W?$Wvf09ok:CSUdt$$nx[]pn()v
0042db30+      W?$Wvf0Eok:CSEndBlock$$nx[]pn()v
0042db70+      W?$Wvf0Dok:CSObjName$$nx[]pn()v
0042dbb0+      W?$Wvf0Eok:CSEndOfArg$$nx[]pn()v
0042dbf0+      W?$Wvf0Eok:CSCobolUdt$$nx[]pn()v
0042dc30+      W?$Wvf0Dok:CSManyReg$$nx[]pn()v
0042dc70+      W?$Wvf0Cok:CSReturn$$nx[]pn()v
0042dcb0+      W?$Wvf0Fok:CSEntryThis$$nx[]pn()v
0042dcf0+      W?$Wvf0Dok:CSBPRel16$$nx[]pn()v
0042dd30+      W?$Wvf0Dok:CSLData16$$nx[]pn()v
0042dd70+      W?$Wvf0Bok:CSPub16$$nx[]pn()v
0042ddb0+      W?$Wvf0Dok:CSLProc16$$nx[]pn()v
0042ddf0+      W?$Wvf0Dok:CSThunk16$$nx[]pn()v
0042de30+      W?$Wvf0Dok:CSBlock16$$nx[]pn()v
0042de70+      W?$Wvf0Cok:CSWith16$$nx[]pn()v
0042deb0+      W?$Wvf0Dok:CSLabel16$$nx[]pn()v
0042def0+      W?$Wvf0Gok:CSCExModel16$$nx[]pn()v
0042df30+      W?$Wvf0Fok:CSVftPath16$$nx[]pn()v
0042df70+      W?$Wvf0Eok:CSRegRel16$$nx[]pn()v
0042dfb0+      W?$Wvf0Dok:CSBPRel32$$nx[]pn()v
0042dff0+      W?$Wvf0Dok:CSLData32$$nx[]pn()v
0042e030+      W?$Wvf0Bok:CSPub32$$nx[]pn()v
0042e070+      W?$Wvf0Fok:CSPub32_new$$nx[]pn()v
0042e0b0+      W?$Wvf0Dok:CSLProc32$$nx[]pn()v
0042e0f0+      W?$Wvf0Dok:CSThunk32$$nx[]pn()v
0042e130+      W?$Wvf0Dok:CSBlock32$$nx[]pn()v
0042e170+      W?$Wvf0Cok:CSWith32$$nx[]pn()v
0042e1b0+      W?$Wvf0Dok:CSLabel32$$nx[]pn()v
0042e1f0+      W?$Wvf0Gok:CSCExModel32$$nx[]pn()v
0042e230+      W?$Wvf0Fok:CSVftPath32$$nx[]pn()v
0042e270+      W?$Wvf0Eok:CSRegRel32$$nx[]pn()v
0042e2b0+      W?$Wvf0Fok:CSLThread32$$nx[]pn()v
0042e2f0+      W?$Wts0Dn$CSCompile$$$nx[]uc
0042e310+      W?$Wts0En$CSRegister$$$nx[]uc
0042e330+      W?$Wts0En$CSConstant$$$nx[]uc
0042e350+      W?$Wts09n$CSUdt$$$nx[]uc
0042e370+      W?$Wts0En$CSEndBlock$$$nx[]uc
0042e390+      W?$Wts0Dn$CSObjName$$$nx[]uc
0042e3b0+      W?$Wts0En$CSEndOfArg$$$nx[]uc
0042e3d0+      W?$Wts0En$CSCobolUdt$$$nx[]uc
0042e3f0+      W?$Wts0Dn$CSManyReg$$$nx[]uc
0042e410+      W?$Wts0Cn$CSReturn$$$nx[]uc
0042e430+      W?$Wts0Fn$CSEntryThis$$$nx[]uc
0042e450+      W?$Wts0Dn$CSBPRel16$$$nx[]uc
0042e470+      W?$Wts0Dn$CSLData16$$$nx[]uc
0042e490+      W?$Wts0Bn$CSPub16$$$nx[]uc
0042e4b0+      W?$Wts0Dn$CSLProc16$$$nx[]uc
0042e4d0+      W?$Wts0Dn$CSThunk16$$$nx[]uc
0042e4f0+      W?$Wts0Dn$CSBlock16$$$nx[]uc
0042e510+      W?$Wts0Cn$CSWith16$$$nx[]uc
0042e530+      W?$Wts0Dn$CSLabel16$$$nx[]uc
0042e550+      W?$Wts0Gn$CSCExModel16$$$nx[]uc
0042e570+      W?$Wts0Fn$CSVftPath16$$$nx[]uc
0042e590+      W?$Wts0En$CSRegRel16$$$nx[]uc
0042e5b0+      W?$Wts0Dn$CSBPRel32$$$nx[]uc
0042e5d0+      W?$Wts0Dn$CSLData32$$$nx[]uc
0042e5f0+      W?$Wts0Bn$CSPub32$$$nx[]uc
0042e610+      W?$Wts0Fn$CSPub32_new$$$nx[]uc
0042e630+      W?$Wts0Dn$CSLProc32$$$nx[]uc
0042e650+      W?$Wts0Dn$CSThunk32$$$nx[]uc
0042e670+      W?$Wts0Dn$CSBlock32$$$nx[]uc
0042e690+      W?$Wts0Cn$CSWith32$$$nx[]uc
0042e6b0+      W?$Wts0Dn$CSLabel32$$$nx[]uc
0042e6d0+      W?$Wts0Gn$CSCExModel32$$$nx[]uc
0042e6f0+      W?$Wts0Fn$CSVftPath32$$$nx[]uc
0042e710+      W?$Wts0En$CSRegRel32$$$nx[]uc
0042e730+      W?$Wts0Fn$CSLThread32$$$nx[]uc
004317cc+      W?$Wti0E$CSLThread32$$$n[]uc
004317e0+      W?$Wti0D$CSRegRel32$$$n[]uc
004317f4+      W?$Wti0E$CSVftPath32$$$n[]uc
00431808+      W?$Wti0F$CSCExModel32$$$n[]uc
0043181c+      W?$Wti0C$CSLabel32$$$n[]uc
00431830+      W?$Wti0B$CSWith32$$$n[]uc
00431840+      W?$Wti0C$CSBlock32$$$n[]uc
00431854+      W?$Wti0C$CSThunk32$$$n[]uc
00431868+      W?$Wti0C$CSLProc32$$$n[]uc
0043187c+      W?$Wti0E$CSPub32_new$$$n[]uc
00431890+      W?$Wti0A$CSPub32$$$n[]uc
004318a0+      W?$Wti0C$CSLData32$$$n[]uc
004318b4+      W?$Wti0C$CSBPRel32$$$n[]uc
004318c8+      W?$Wti0D$CSRegRel16$$$n[]uc
004318dc+      W?$Wti0E$CSVftPath16$$$n[]uc
004318f0+      W?$Wti0F$CSCExModel16$$$n[]uc
00431904+      W?$Wti0C$CSLabel16$$$n[]uc
00431918+      W?$Wti0B$CSWith16$$$n[]uc
00431928+      W?$Wti0C$CSBlock16$$$n[]uc
0043193c+      W?$Wti0C$CSThunk16$$$n[]uc
00431950+      W?$Wti0C$CSLProc16$$$n[]uc
00431964+      W?$Wti0A$CSPub16$$$n[]uc
00431974+      W?$Wti0C$CSLData16$$$n[]uc
00431988+      W?$Wti0C$CSBPRel16$$$n[]uc
0043199c+      W?$Wti0E$CSEntryThis$$$n[]uc
004319b0+      W?$Wti0B$CSReturn$$$n[]uc
004319c0+      W?$Wti0C$CSManyReg$$$n[]uc
004319d4+      W?$Wti0D$CSCobolUdt$$$n[]uc
004319e8+      W?$Wti0D$CSEndOfArg$$$n[]uc
004319fc+      W?$Wti0C$CSObjName$$$n[]uc
00431a10+      W?$Wti0D$CSEndBlock$$$n[]uc
00431a24+      W?$Wti08$CSUdt$$$n[]uc
00431a34+      W?$Wti0D$CSConstant$$$n[]uc
00431a48+      W?$Wti0D$CSRegister$$$n[]uc
00431a5c+      W?$Wti0C$CSCompile$$$n[]uc
004131e0       W?DerivedPut$:CSPageAlign$n.x(rn$ExeMaker$$)v
004317bc+      W?_padTable$:SymbolStruct$n[]pna
Module: makeexe.obj(/mnt/sda5/.user/root/src/openwatcom-1.9/bld/cvpack/cpp/makeexe.cpp)
004154c0+      W?$dt:WriteError$n()_
004154d0+      W?$ct:WriteError$n(rnx$0$)_
004154f0+      W?$dt:WCValListIterBase$::1npn$cv_dir_entry$$1n$WCPtrSList$::1n$1$$1n$WCNIsvSLink$::1npn$1$$n()_
00415550+      W?current$:WCValListIterBase$::1npn$cv_dir_entry$$1n$WCPtrSList$::1n$2$$1n$WCNIsvSLink$::1npn$2$$n.x()pn$2$
00415570+      W?$dt:WCPtrSListIter$::1n$cv_dir_entry$$n()_
00415610+      W?$dt:WCPtrConstSListIter$::1n$cv_dir_entry$$n()_
004156d0+      W?append$:WCValListBase$::1npn$cv_dir_entry$$1n$WCIsvSListBase$::1n$WCNIsvSLink$::1npn$2$$$1n$4::1npn$2$$n(rnxpn$2$)i
00415700+      W?WCListNew$:WCValListBase$::1npn$cv_dir_entry$$1n$WCIsvSListBase$::1n$WCNIsvSLink$::1npn$2$$$1n$4::1npn$2$$n(rnxpn$2$)pn$4::1npn$2$$
0042eab0+      W?$Wvf0Eo0:WriteError$$nx[]pn()v
0042eac0+      W?$Wvf1Ro4:WCValListIterBase$::1npn$cv_dir_entry$$1n$WCPtrSList$::1n$1$$1n$WCNIsvSLink$::1npn$1$$$nx[]pn()v
0042ead0+      W?$Wvf0bo4:WCPtrSListIter$::1n$cv_dir_entry$$$nx[]pn()v
0042eae0+      W?$Wvf0go4:WCPtrConstSListIter$::1n$cv_dir_entry$$$nx[]pn()v
0042eaf0+      W?$Wth0Gnrn$WriteError$$$nx[]uc
0042eb10+      W?$Wts0gn$WCPtrConstSListIter$::1n$cv_dir_entry$$$$nx[]uc
0042eb30+      W?$Wts0En$WriteError$$$nx[]uc
00431a6d+      W?$Wti0a$WCPtrSListIter$::1n$cv_dir_entry$$$$n[]uc
00431a96+      W?$Wti0D$WriteError$$$n[]uc
00431aa8+      W?$Wti0f$WCPtrConstSListIter$::1n$cv_dir_entry$$$$n[]uc
00415350       W?Insert$:ODirectory$n($$TE$$usulul)v
00415390       W?Put$:ODirectory$n(rn$ExeMaker$$)v
00415480       W?Write$:ExeMaker$n(pnxaui)v
0042eb50+      W?$Wts0bn$WCPtrSListIter$::1n$cv_dir_entry$$$$nx[]uc
Module: symdis.obj(/mnt/sda5/.user/root/src/openwatcom-1.9/bld/cvpack/cpp/symdis.cpp)
00415c70+      W?$dt:CSProcRef$n()_
00415d30+      W?cSum$:CSProcRef$n.x()ul
00415d40+      W?DataSegment$:CSProcRef$n.x()ui
00415d50+      W?MemOffset$:CSProcRef$n.x()ui
00415d60+      W?Name$:CSProcRef$n.x()pnxa
00415d70+      W?$dt:CSDataRef$n()_
00415e30+      W?cSum$:CSDataRef$n.x()ul
00415e40+      W?DataSegment$:CSDataRef$n.x()ui
00415e50+      W?MemOffset$:CSDataRef$n.x()ui
00415e60+      W?Name$:CSDataRef$n.x()pnxa
00415f00+      W?isEmpty$:WCValListBase$::1npn$SymbolStruct$$1n$WCIsvSListBase$::1n$WCNIsvSLink$::1npn$2$$$1n$4::1npn$2$$n.x()i
0042ef30+      W?$Wvf0Dok:CSProcRef$$nx[]pn()v
0042ef70+      W?$Wvf0Dok:CSDataRef$$nx[]pn()v
0042efb0+      W?$Wts0Dn$CSProcRef$$$nx[]uc
00431b98+      W?$Wti0C$CSDataRef$$$n[]uc
00431bac+      W?$Wti0C$CSProcRef$$$n[]uc
00415740+      W?Build$:SymbolDistributor$n.x(pnxauirn$SstAlignSym$$)v
00415be0       W?Distribute$:SymbolDistributor$n.x(uirn$SstAlignSym$$)q
0042efd0+      W?$Wts0Dn$CSDataRef$$$nx[]uc
00431ad8       W?_symConstructorTable$:SymbolDistributor$n[]pn(pnxa)pn$SymbolStruct$$
Module: typemap.obj(/mnt/sda5/.user/root/src/openwatcom-1.9/bld/cvpack/cpp/typemap.cpp)
00416390+      W?$od:WCValVector$::1n$__304un0mappingStruct$:TypeIndexMap$$n.x(i)rnx$1:2$
004163e0+      W?base_index_check$:WCBareVectorBase$::1n$__304un0mappingStruct$:TypeIndexMap$$n.x(i)i
00415f10       W?$ct:TypeIndexMap$n(uius)_
00415fd0       W?Insert$:TypeIndexMap$n(usus)v
00416120       W?Lookup$:TypeIndexMap$n.x(us)us
00416210       W?Reset$:TypeIndexMap$n(ui)v
Module: typearay.obj(/mnt/sda5/.user/root/src/openwatcom-1.9/bld/cvpack/cpp/typearay.cpp)
00416910+      W?$dt:GlobalTypeContainer$n()_
00416920+      W?$ct:GlobalListContainer$n()_
004169c0+      W?$dt:GlobalListContainer$n()_
00416a90+      W?Find$:GlobalListContainer$n(pn$LFTypeRecord$$)rn$WCPtrSList$::1n$2$$
00416aa0+      W?Insert$:GlobalListContainer$n(pn$LFTypeRecord$$)v
00416ac0+      W?$ct:GlobalHashContainer$n()_
00416b40+      W?$dt:GlobalHashContainer$n()_
00416c00+      W?Find$:GlobalHashContainer$n(pn$LFTypeRecord$$)rn$WCPtrSList$::1n$2$$
00416410+      W?Insert$:GlobalHashContainer$n(pn$LFTypeRecord$$)v
00416460+      W?Rehash$:GlobalHashContainer$n()v
004165f0+      W?HFn$:GlobalHashContainer$n(rn$VariantString$$)ul
00416630       W?$ct:GlobalTypeArray$n()_
00416860       W?DerivedInsert$:GlobalTypeArray$n(pn$LFTypeRecord$$)v
00416c60       W?$ct:WCPtrSListIter$::1n$LFTypeRecord$$n()_
00416ce0+      W?$ct:WCValListIterBase$::1npn$LFTypeRecord$$1n$WCPtrSList$::1n$1$$1n$WCNIsvSLink$::1npn$1$$n()_
0042f760+      W?$Wvf0No0:GlobalListContainer$$nx[]pn()v
0042f770+      W?$Wvf0No0:GlobalHashContainer$$nx[]pn()v
0042f780+      W?$Wts0Nn$GlobalListContainer$$$nx[]uc
0042f7a0+      W?$Wts0Nn$GlobalHashContainer$$$nx[]uc
00431bbd+      W?$Wti0M$GlobalHashContainer$$$n[]uc
00431bd8+      W?$Wti0M$GlobalListContainer$$$n[]uc
00416880       W?Find$:GlobalTypeArray$n(pn$LFTypeRecord$$)rn$WCPtrSList$::1n$2$$
004168d0       W?DerivedInsert$:LocalTypeArray$n(pn$LFTypeRecord$$)v
Module: typercrd.obj(/mnt/sda5/.user/root/src/openwatcom-1.9/bld/cvpack/cpp/typercrd.cpp)
00417280+      W?$dt:LFTypeRecord$n()_
00417300+      W?IsEquivalent$:LFTypeRecord$n(rn$1$)q
00417320+      W?$dt:LFGlobalTypeRecord$n()_
004173b0+      W?$ct:Recorder$n()_
00417450+      W?$dt:Recorder$n()_
004174d0+      W?$ct:MyNodeStack$n()_
00417570+      W?$dt:MyNodeStack$n()_
00416e20       W?$ra:LFTypeRecord$n.x(rnx$0$)q
00416e40+      W?ConvertIndex$:LFTypeRecord$n(us)ui
00416e70       W?$ct:LFTypeRecord$n(uspnxa)_
00416ec0+      W?$ct:LFTypeRecord$n(pn$0$)_
00416ef0       W?$ct:LFGlobalTypeRecord$n(uspnxa)_
00416f60       W?$ct:LFGlobalTypeRecord$n(pn$LFTypeRecord$$)_
004175f0+      W?$dt:WCPtrListBase$::1n$LFGlobalTypeRecord$$1n$WCValSList$::1npn$1$$n()_
00417660+      W?base_equivalent$:WCValSList$::1nusn.x(rnxusrnxus)i
00417670+      W?$dt:WCValSList$::1nusn()_
00417710+      W?base_equivalent$:WCValSList$::1npn$LFGlobalTypeRecord$$n.x(rnxpn$2$rnxpn$2$)i
00417720+      W?$dt:WCValSList$::1npn$LFGlobalTypeRecord$$n()_
004177c0+      W?base_equivalent$:WCPtrSList$::1n$LFGlobalTypeRecord$$n.x(rnxpn$2$rnxpn$2$)i
004177d0+      W?$ct:WCPtrSList$::1n$LFGlobalTypeRecord$$n()_
00417870+      W?$dt:WCPtrSList$::1n$LFGlobalTypeRecord$$n()_
00417930+      W?$dt:WCValListIterBase$::1npn$LFGlobalTypeRecord$$1n$WCPtrSList$::1n$1$$1n$WCNIsvSLink$::1npn$1$$n()_
00417990+      W?current$:WCValListIterBase$::1npn$LFGlobalTypeRecord$$1n$WCPtrSList$::1n$2$$1n$WCNIsvSLink$::1npn$2$$n.x()pn$2$
004179b0+      W?$dt:WCPtrSListIter$::1n$LFGlobalTypeRecord$$n()_
00417a50+      W?$ct:WCStack$::1nus1n$WCValSList$::1nus$n()_
00417b00+      W?$dt:WCStack$::1nus1n$WCValSList$::1nus$n()_
00417bc0+      W?get$:WCValListBase$::1nus1n$WCIsvSListBase$::1n$WCNIsvSLink$::1nus$$1n$3::1nus$n(i)us
00417bf0+      W?$ct:WCPtrListBase$::1n$LFGlobalTypeRecord$$1n$WCValSList$::1npn$1$$n(pn(ui)pnvpn(pnvui)v)_
00417ca0+      W?$ct:WCValSList$::1nusn()_
00417d50+      W?$ct:WCValSList$::1npn$LFGlobalTypeRecord$$n(pn(ui)pnvpn(pnvui)v)_
00417e00+      W?clearAndDestroy$:WCIsvSListBase$::1n$WCNIsvSLink$::1nus$n()v
00417e10+      W?entries$:WCIsvSListBase$::1n$WCNIsvSLink$::1npn$LFGlobalTypeRecord$$$n.x()i
00417e20+      W?$ct:WCValListBase$::1nus1n$WCIsvSListBase$::1n$WCNIsvSLink$::1nus$$1n$2::1nus$n(pn(ui)pnvpn(pnvui)v)_
00417ec0+      W?$ct:WCValListBase$::1npn$LFGlobalTypeRecord$$1n$WCIsvSListBase$::1n$WCNIsvSLink$::1npn$1$$$1n$3::1npn$1$$n(pn(ui)pnvpn(pnvui)v)_
0042fe60+      W?$Wvf0Goc:LFTypeRecord$$nx[]pn()v
0042fe70+      W?$Wvf0Moc:LFGlobalTypeRecord$$nx[]pn()v
0042fe80+      W?$Wvf14o4:WCPtrListBase$::1n$LFGlobalTypeRecord$$1n$WCValSList$::1npn$1$$$nx[]pn()v
0042fe90+      W?$Wvf0Ko4:WCValSList$::1nus$nx[]pn()v
0042fea0+      W?$Wvf0fo4:WCValSList$::1npn$LFGlobalTypeRecord$$$nx[]pn()v
0042feb0+      W?$Wvf0do4:WCPtrSList$::1n$LFGlobalTypeRecord$$$nx[]pn()v
0042fec0+      W?$Wvf1Xo4:WCValListIterBase$::1npn$LFGlobalTypeRecord$$1n$WCPtrSList$::1n$1$$1n$WCNIsvSLink$::1npn$1$$$nx[]pn()v
0042fed0+      W?$Wvf0ho4:WCPtrSListIter$::1n$LFGlobalTypeRecord$$$nx[]pn()v
0042fee0+      W?$Wvf0co4:WCStack$::1nus1n$WCValSList$::1nus$$nx[]pn()v
0042fef0+      W?$Wts0Gn$LFTypeRecord$$$nx[]uc
0042ff10+      W?$Wts0Mn$LFGlobalTypeRecord$$$nx[]uc
0042ff30+      W?$Wts0Fn$MyNodeStack$$$nx[]uc
0042ff50+      W?$Wts0Cn$Recorder$$$nx[]uc
0042ff70+      W?$Wts0hn$WCPtrSListIter$::1n$LFGlobalTypeRecord$$$$nx[]uc
0042ff90+      W?$Wts0Kn$WCValSList$::1nus$$nx[]uc
0042ffb0+      W?$Wts0fn$WCValSList$::1npn$LFGlobalTypeRecord$$$$nx[]uc
0042ffd0+      W?$Wts0dn$WCPtrSList$::1n$LFGlobalTypeRecord$$$$nx[]uc
00431ca0+      W?$Wti0b$WCStack$::1nus1n$WCValSList$::1nus$$$n[]uc
00431ccc+      W?$Wti0c$WCPtrSList$::1n$LFGlobalTypeRecord$$$$n[]uc
00431cf8+      W?$Wti0e$WCValSList$::1npn$LFGlobalTypeRecord$$$$n[]uc
00431d28+      W?$Wti0J$WCValSList$::1nus$$n[]uc
00431d40+      W?$Wti0g$WCPtrSListIter$::1n$LFGlobalTypeRecord$$$$n[]uc
00431d70+      W?$Wti0B$Recorder$$$n[]uc
00431d80+      W?$Wti0E$MyNodeStack$$$n[]uc
00431d94+      W?$Wti0L$LFGlobalTypeRecord$$$n[]uc
00431db0+      W?$Wti0F$LFTypeRecord$$$n[]uc
00417f60+      W?$ct:WCIsvSListBase$::1n$WCNIsvSLink$::1nus$n()_
00417fe0+      W?$ct:WCIsvSListBase$::1n$WCNIsvSLink$::1npn$LFGlobalTypeRecord$$$n()_
00416fd0+      W?IsEquivalent$:LFGlobalTypeRecord$n(rn$LFTypeRecord$$)q
004170f0+      W?RewindAndUndo$:Recorder$n()v
00417130+      W?MarkLoop$:MyNodeStack$n(pn$LFGlobalTypeRecord$$)v
0042fff0+      W?$Wts0cn$WCStack$::1nus1n$WCValSList$::1nus$$$nx[]uc
00431c14+      W?_typeConstructorTable$:LFTypeRecord$n[]pn(pnxaui)pn$LFLeafStruct$$
00444140+      W?_nodeStack$:LFGlobalTypeRecord$n$MyNodeStack$$
00444158+      W?_recorder$:LFGlobalTypeRecord$n$Recorder$$
Module: common.obj(/mnt/sda5/.user/root/src/openwatcom-1.9/bld/cvpack/cpp/common.cpp)
00418060       W?ToTypeIndex$n(ui)ui
00418070       W?ToTableIndex$n(us)ui
00418080       W?PrefixStrLen$n(pnxa)ui
00418090       W?Warning$n(pnxa)v
Module: /mnt/sda5/.user/root/src/openwatcom-1.9/rel2/lib386/nt/plbx3r.lib(FSHAND)
004180cb       ___wcpp_4_fs_handler_
Module: /mnt/sda5/.user/root/src/openwatcom-1.9/rel2/lib386/nt/plbx3r.lib(stablcl.cpp)
004180e0       __wcpp_4_lcl_register__
Module: /mnt/sda5/.user/root/src/openwatcom-1.9/rel2/lib386/nt/plbx3r.lib(opdel.cpp)
004180f0       W?$dln(pnv)v
Module: /mnt/sda5/.user/root/src/openwatcom-1.9/rel2/lib386/nt/plbx3r.lib(dtorarst.cpp)
00418100       __wcpp_4_dtor_array_store__
Module: /mnt/sda5/.user/root/src/openwatcom-1.9/rel2/lib386/nt/plbx3r.lib(opdelarr.cpp)
00418130       W?$dan(pnv)v
Module: /mnt/sda5/.user/root/src/openwatcom-1.9/rel2/lib386/nt/plbx3r.lib(ifsdestr.cpp)
00430080       W?$Wvf0Io22:ifstream$:std$$nx[]pn()v
00430090       W?$Wvf0Io2e:ifstream$:std$$nx[]pn()v
004300a0       W?$Wvf0Io40:ifstream$:std$$nx[]pn()v
00431dc4       W?$Wti0F$istream$:std$$$n[]uc
00431dd8       W?$Wti0J$fstreambase$:std$$$n[]uc
00431df0       W?$Wti0B$ios$:std$$$n[]uc
00418240       W?$Wvt0Y.@dt:ifstream$:std$o26$:0:1$dtn()_$:istream$:std$n()pnv
00418250       W?$Wvt0W.@dt:ifstream$:std$c$:0:1$dtn()_$:ios$:std$n()pnv
00418260       W?.tdtor$:istream$:std$n()pnv
00418270       W?.tdtor$:fstreambase$:std$n()pnv
00418280       W?.tdtor$:ios$:std$n()pnv
00418140       W?$dt:ifstream$:std$n()_
004300b0       W?$Wva0Ho0:ifstream$:std$$nx[]uc
Module: /mnt/sda5/.user/root/src/openwatcom-1.9/rel2/lib386/nt/plbx3r.lib(ofsdestr.cpp)
00430170       W?$Wvf0Io22:ofstream$:std$$nx[]pn()v
00430180       W?$Wvf0Io2a:ofstream$:std$$nx[]pn()v
00430190       W?$Wvf0Io3r:ofstream$:std$$nx[]pn()v
004301a0+      W?$Wts0Hn$ofstream$:std$$$nx[]uc
00431e00       W?$Wti0F$ostream$:std$$$n[]uc
00418390       W?$Wvt0Y.@dt:ofstream$:std$o26$:0:1$dtn()_$:ostream$:std$n()pnv
004183a0       W?$Wvt0W.@dt:ofstream$:std$c$:0:1$dtn()_$:ios$:std$n()pnv
004183b0       W?.tdtor$:ostream$:std$n()pnv
00418290       W?$dt:ofstream$:std$n()_
004301c0       W?$Wva0Ho0:ofstream$:std$$nx[]uc
00431e14       W?$Wti0G$ofstream$:std$$$n[]uc
Module: /mnt/sda5/.user/root/src/openwatcom-1.9/rel2/lib386/nt/plbx3r.lib(stabthrw.cpp)
00418ba0+      W?$ct:exception$:std$n()_
00418bf0+      W?$ct:exception$:std$n(rnx$0:1$)_
00418c40+      W?$ct:exception$:std$n(pnxa)_
00418c90+      W?$dt:exception$:std$n()_
00418d20+      W?what$:exception$:std$n.x()pnxa
00418d60+      W?$ct:bad_exception$:std$n()_
00418dc0+      W?$ct:bad_exception$:std$n(rnx$0:1$)_
00418e10+      W?$dt:bad_exception$:std$n()_
00430300+      W?$Wvf0Io4:exception$:std$$nx[]pn()v
00430310+      W?$Wvf0Mo4:bad_exception$:std$$nx[]pn()v
00430320+      W?$Wth0Onrn$bad_exception$:std$$$nx[]uc
00430340+      W?$Wts0In$exception$:std$$$nx[]uc
00430360+      W?$Wts0Mn$bad_exception$:std$$$nx[]uc
00430380+      W?$Wts0Hn$_EXC_PR_FNEXC$$$nx[]uc
004303a0+      W?$Wts0Gn$_EXC_PR_DTOR$$$nx[]uc
004303c0       W?$Wts0Gn$_EXC_PR_FREE$$$nx[]uc
004303e0       W?$Wts0Bn$_EXC_PR$$$nx[]uc
00430400+      W?$Wva0Mo0:bad_exception$:std$$nx[]uc
00431e29       W?$Wti0A$_EXC_PR$$$n[]uc
00431e38       W?$Wti0F$_EXC_PR_FREE$$$n[]uc
00431e4c+      W?$Wti0F$_EXC_PR_DTOR$$$n[]uc
00431e60+      W?$Wti0G$_EXC_PR_FNEXC$$$n[]uc
00431e75+      W?$Wti0L$bad_exception$:std$$$n[]uc
00418ec0+      W?.tcctor$:bad_exception$:std$n(rnx$1:2$)rn$1:2$
00418ed0+      W?.tdtor$:bad_exception$:std$n()pnv
00418ee0+      W?.tdtor$:exception$:std$n()pnv
00418a60*      __wcpp_4_rethrow__
00418aa4       __wcpp_4_catch_done__
00418b0c       __wcpp_4_throw__
00418b54*      __wcpp_4_throw_zero__
00430420+      W?$Wva0Io0:exception$:std$$nx[]uc
00431e8f+      W?$Wti0H$exception$:std$$$n[]uc
Module: /mnt/sda5/.user/root/src/openwatcom-1.9/rel2/lib386/nt/plbx3r.lib(opnewarr.cpp)
00418ef0       W?$nan(ui)pnv
Module: /mnt/sda5/.user/root/src/openwatcom-1.9/rel2/lib386/nt/plbx3r.lib(osttellp.cpp)
00418f00       W?tellp$:ostream$:std$n()l
Module: /mnt/sda5/.user/root/src/openwatcom-1.9/rel2/lib386/nt/plbx3r.lib(ostspsto.cpp)
00418f40       W?seekp$:ostream$:std$n(li)rn$1:2$
Module: /mnt/sda5/.user/root/src/openwatcom-1.9/rel2/lib386/nt/plbx3r.lib(ioicerr.cpp)
004441a8       W?cerr$:std$n$ostream$:1$
00430460       W?$Wts0Cn$stdiobuf$$$nx[]uc
00430480       W?$Wts0Gn$ostream$:std$$$nx[]uc
00431ed5+      W?$Wti0G$cerr_initfini$$$n[]uc
00419050       W?.tdtor$:stdiobuf$n()pnv
00419024+      W?$ct:cerr_initfini$n()_
00419038+      W?$dt:cerr_initfini$n()_
004304a0+      W?$Wts0Hn$cerr_initfini$$$nx[]uc
00431eea       W?$Wti0B$stdiobuf$$$n[]uc
Module: /mnt/sda5/.user/root/src/openwatcom-1.9/rel2/lib386/nt/plbx3r.lib(ostincch.cpp)
00419060       W?$ob:ostream$:std$n(pnxa)rn$0:1$
Module: /mnt/sda5/.user/root/src/openwatcom-1.9/rel2/lib386/nt/plbx3r.lib(ostflush.cpp)
004190e0       W?flush$:ostream$:std$n()rn$1:2$
Module: /mnt/sda5/.user/root/src/openwatcom-1.9/rel2/lib386/nt/plbx3r.lib(opnew.cpp)
00419120       W?$nwn(ui)pnv
Module: /mnt/sda5/.user/root/src/openwatcom-1.9/rel2/lib386/nt/plbx3r.lib(fsbclose.cpp)
00419170       W?close$:fstreambase$:std$n()v
Module: /mnt/sda5/.user/root/src/openwatcom-1.9/rel2/lib386/nt/plbx3r.lib(stabdtor.cpp)
00419460       __wcpp_4_destruct_internal__
00419480       __wcpp_4_destruct_all__
00419484*      __wcpp_4_destruct__
Module: /mnt/sda5/.user/root/src/openwatcom-1.9/rel2/lib386/nt/plbx3r.lib(setnwhdl.cpp)
004194b0       W?set_new_handler$n(pn()v)pn()v
Module: /mnt/sda5/.user/root/src/openwatcom-1.9/rel2/lib386/nt/clib3r.lib(setjmp)
004194c0       _setjmp_
004194f9       longjmp_
Module: /mnt/sda5/.user/root/src/openwatcom-1.9/rel2/lib386/nt/clib3r.lib(stricmp.c)
00419590       stricmp_
Module: /mnt/sda5/.user/root/src/openwatcom-1.9/rel2/lib386/nt/plbx3r.lib(flfoprot.cpp)
004304c0       W?openprot$:filebuf$:std$nxi
Module: /mnt/sda5/.user/root/src/openwatcom-1.9/rel2/lib386/nt/plbx3r.lib(ifsconnm.cpp)
00430510       W?$Wvb0Ho0:ifstream$:std$$nx[]ui
00430518       W?$Wvb0Io26:ifstream$:std$$nx[]ui
004195d0       W?$ct:ifstream$:std$n(pnxaii)_
Module: /mnt/sda5/.user/root/src/openwatcom-1.9/rel2/lib386/nt/plbx3r.lib(ioicout.cpp)
00444228       W?cout$:std$n$ostream$:1$
00431f2c+      W?$Wti0G$cout_initfini$$$n[]uc
004196f4+      W?$ct:cout_initfini$n()_
004196fc+      W?$dt:cout_initfini$n()_
00430550+      W?$Wts0Hn$cout_initfini$$$nx[]uc
Module: /mnt/sda5/.user/root/src/openwatcom-1.9/rel2/lib386/nt/plbx3r.lib(manendl.cpp)
00419710       W?endl$:std$n(rn$ostream$:1$)rn$2:1$
Module: /mnt/sda5/.user/root/src/openwatcom-1.9/rel2/lib386/nt/plbx3r.lib(ostinomn.cpp)
00419730       W?$ob:ostream$:std$n(pn(rn$0:1$)rn$0:1$)rn$0:1$
Module: /mnt/sda5/.user/root/src/openwatcom-1.9/rel2/lib386/nt/clib3r.lib(tmpnm.c)
004197c0       tmpnam_
Module: /mnt/sda5/.user/root/src/openwatcom-1.9/rel2/lib386/nt/plbx3r.lib(ofsconnm.cpp)
004305b4+      W?$Wvb0Ho0:ofstream$:std$$nx[]ui
004305bc+      W?$Wvb0Io26:ofstream$:std$$nx[]ui
00419890       W?$ct:ofstream$:std$n(pnxaii)_
Module: /mnt/sda5/.user/root/src/openwatcom-1.9/rel2/lib386/nt/clib3r.lib(remove.c)
00419960       remove_
Module: /mnt/sda5/.user/root/src/openwatcom-1.9/rel2/lib386/nt/clib3r.lib(renamwnt.c)
00419970       rename_
Module: /mnt/sda5/.user/root/src/openwatcom-1.9/rel2/lib386/nt/clib3r.lib(errno.c)
00419990       __get_errno_ptr_
004199a0*      __get_doserrno_ptr_
Module: /mnt/sda5/.user/root/src/openwatcom-1.9/rel2/lib386/nt/clib3r.lib(strerror.c)
00419cd0       strerror_
00419cf0*      _strerror_
00419dc0*      _doserror_
00431f44+      __sys_errlist
00431fe8+      __sys_nerr
Module: /mnt/sda5/.user/root/src/openwatcom-1.9/rel2/lib386/nt/clib3r.lib(exit.c)
00419ded+      __null_int23_exit_
00419dee       exit_
00419e3e*      _exit_
00431fec+      ___int23_exit
00431ff0+      ___FPE_handler_exit
Module: /mnt/sda5/.user/root/src/openwatcom-1.9/rel2/lib386/nt/plbx3r.lib(opnewp.cpp)
00419e60       W?$nwn(uipnv)pnv
Module: /mnt/sda5/.user/root/src/openwatcom-1.9/rel2/lib386/nt/plbx3r.lib(wcexcept.cpp)
00419e70       W?base_throw_empty_container$:WCExcept$n.x()v
00419e98       W?base_throw_index_range$:WCExcept$n.x()v
00419ec0       W?base_throw_not_empty$:WCExcept$n()v
00419ef8*      W?base_throw_not_unique$:WCExcept$n.x()v
00419f20       W?base_throw_out_of_memory$:WCExcept$n.x()v
00419f48       W?base_throw_resize_required$:WCExcept$n.x()v
00419f70*      W?base_throw_zero_buckets$:WCExcept$n.x()v
00419f98       W?base_throw_iter_range$:WCIterExcept$n.x()v
00419fc0       W?base_throw_undef_item$:WCIterExcept$n.x()v
0041a010+      W?$ct:failure$:WCIterExcept$n(rnx$0:1$)_
0041a020+      W?$dt:failure$:WCIterExcept$n()_
0041a030+      W?$ct:failure$:WCExcept$n(rnx$0:1$)_
0041a040+      W?$dt:failure$:WCExcept$n()_
004305d0+      W?$Wth0Nnrn$failure$:WCExcept$$$nx[]uc
004305f0+      W?$Wth0Rnrn$failure$:WCIterExcept$$$nx[]uc
00430610+      W?$Wts0Ln$failure$:WCExcept$$$nx[]uc
00430630       W?$Wts0Mn$__WATCOM_exception$$$nx[]uc
00431ff4+      W?$Wti0O$failure$:WCIterExcept$$$n[]uc
00432011       W?$Wti0L$__WATCOM_exception$$$n[]uc
0041a050       W?$ct:__WATCOM_exception$n(rnx$0$)_
0041a060       W?$dt:__WATCOM_exception$n()_
00419fe8       W?base_throw_undef_iter$:WCIterExcept$n.x()v
00430650+      W?$Wts0Pn$failure$:WCIterExcept$$$nx[]uc
0043202b+      W?$Wti0K$failure$:WCExcept$$$n[]uc
Module: /mnt/sda5/.user/root/src/openwatcom-1.9/rel2/lib386/nt/clib3r.lib(memset.c)
0041a070       memset_
Module: /mnt/sda5/.user/root/src/openwatcom-1.9/rel2/lib386/nt/plbx3r.lib(wclist.cpp)
004306b0+      W?$Wva0Ho0:WCIsvListBase$$nx[]uc
00432044+      W?$Wti0G$WCIsvListBase$$$n[]uc
0041a090+      W?base_next$:WCIsvListBase$n.x(pnx$WCSLink$$i)pn$2$
0041a0ac       W?base_insert$:WCIsvListBase$n(pn$WCSLink$$)v
0041a0d0+      W?base_index_check$:WCIsvListBase$n.x(i)i
0041a108+      W?base_bfind$:WCIsvListBase$n.x(i)pn$WCSLink$$
0041a120       W?base_sfind$:WCIsvListBase$n.x(i)pn$WCSLink$$
0041a130+      W?base_dfind$:WCIsvListBase$n.x(i)pn$WCDLink$$
0041a17c       W?base_sget$:WCIsvListBase$n(i)pn$WCSLink$$
0041a1b4*      W?base_dget$:WCIsvListBase$n(i)pn$WCDLink$$
0041a1fc*      W?base_index$:WCIsvListBase$n.x(pnx$WCSLink$$)i
0041a244+      W?base_clear$:WCIsvListBase$n()v
0041a254       W?base_destroy$:WCIsvListBase$n()v
0041a298       W?$dt:WCIsvListBase$n()_
0041a2fc       W?base_advance$:WCListIterBase$n(i)pn$WCSLink$$
0041a39c*      W?base_retreat$:WCListIterBase$n(i)pn$WCDLink$$
0041a440*      W?base_tail_hit$:WCListIterBase$n(pn$WCSLink$$)pn$2$
0041a45c*      W?base_tail_unhit$:WCListIterBase$n(pn$WCSLink$$)v
004306d0+      W?$Wva0Co0:WCExcept$$nx[]uc
Module: /mnt/sda5/.user/root/src/openwatcom-1.9/rel2/lib386/nt/plbx3r.lib(pure_err.cpp)
0041a470       __wcpp_4_pure_error__
Module: /mnt/sda5/.user/root/src/openwatcom-1.9/rel2/lib386/nt/plbx3r.lib(undefed.cpp)
0041a4a0       __wcpp_4_undefed_cdtor__
Module: /mnt/sda5/.user/root/src/openwatcom-1.9/rel2/lib386/nt/clib3r.lib(cstrtwnt)
0041a4b2       _cstart_
0041a4b2*      mainCRTStartup
Module: /mnt/sda5/.user/root/src/openwatcom-1.9/rel2/lib386/nt/clib3r.lib(argcv.c)
00444374       __argc
00444378       __argv
0044437c       ___argv
00444380       ___argc
Module: /mnt/sda5/.user/root/src/openwatcom-1.9/rel2/lib386/nt/plbx3r.lib(moddtorr.cpp)
0043380e       ___wcpp_4_data_module_dtor_ref_
Module: /mnt/sda5/.user/root/src/openwatcom-1.9/rel2/lib386/nt/plbx3r.lib(fsroot.cpp)
004337e4       ___wcpp_4_data_init_fs_root_
Module: /mnt/sda5/.user/root/src/openwatcom-1.9/rel2/lib386/nt/plbx3r.lib(cppdata.cpp)
00444384       __wint_thread_data
004443a8       __compiled_under_NT
Module: /mnt/sda5/.user/root/src/openwatcom-1.9/rel2/lib386/nt/plbx3r.lib(istsgstp.cpp)
0041a520       W?seekg$:istream$:std$n(l)rn$1:2$
Module: /mnt/sda5/.user/root/src/openwatcom-1.9/rel2/lib386/nt/plbx3r.lib(istread.cpp)
0041a580       W?read$:istream$:std$n(pnai)rn$1:2$
Module: /mnt/sda5/.user/root/src/openwatcom-1.9/rel2/lib386/nt/clib3r.lib(qsort.c)
0041a670       qsort_
Module: /mnt/sda5/.user/root/src/openwatcom-1.9/rel2/lib386/nt/plbx3r.lib(istsgsto.cpp)
0041ad20       W?seekg$:istream$:std$n(li)rn$1:2$
Module: /mnt/sda5/.user/root/src/openwatcom-1.9/rel2/lib386/nt/plbx3r.lib(isttellg.cpp)
0041ad70       W?tellg$:istream$:std$n()l
Module: /mnt/sda5/.user/root/src/openwatcom-1.9/rel2/lib386/nt/plbx3r.lib(iosclear.cpp)
0041ada0       W?clear$:ios$:std$n(i)i
Module: /mnt/sda5/.user/root/src/openwatcom-1.9/rel2/lib386/nt/plbx3r.lib(ifsconfd.cpp)
0041adc0       W?$ct:ifstream$:std$n(i)_
Module: /mnt/sda5/.user/root/src/openwatcom-1.9/rel2/lib386/nt/clib3r.lib(strncmp.c)
0041ae90       strncmp_
Module: /mnt/sda5/.user/root/src/openwatcom-1.9/rel2/lib386/nt/plbx3r.lib(ostinulo.cpp)
0041aec0       W?$ob:ostream$:std$n(ul)rn$0:1$
Module: /mnt/sda5/.user/root/src/openwatcom-1.9/rel2/lib386/nt/plbx3r.lib(ctorarst.cpp)
0041b320+      W?$ct:_RTDTOR$n()_
0041aff0+      W?$dt:_CTAS$n()_
0041b330+      W?$ct:_CTAS$n()_
0041b194*      __wcpp_4_ctor_array_storage_1m__
0041b1e0*      __wcpp_4_ctor_array_storage_1s__
0041b22c*      __wcpp_4_ctor_array_storage_2s__
0041b278*      __wcpp_4_ctor_array_storage_gm__
0041b2cc       __wcpp_4_ctor_array_storage_gs__
00430760+      W?$Wts09n$_CTAS$$$nx[]uc
0043205c+      W?$Wti08$_CTAS$$$n[]uc
Module: /mnt/sda5/.user/root/src/openwatcom-1.9/rel2/lib386/nt/clib3r.lib(lrotl.c)
0041b340       _lrotl_
Module: /mnt/sda5/.user/root/src/openwatcom-1.9/rel2/lib386/nt/plbx3r.lib(ostwrite.cpp)
0041b350       W?write$:ostream$:std$n(pnxai)rn$1:2$
Module: /mnt/sda5/.user/root/src/openwatcom-1.9/rel2/lib386/nt/plbx3r.lib(fsregist.cpp)
0041b430+      W?findHandler$n(pnuc)pnuc
0041b448+      __wcpp_4_dispatch_dummy__
0041b46c       __wcpp_4_fs_lookup__
0041b53c       ___wcpp_4_fs_handler_rtn_
Module: /mnt/sda5/.user/root/src/openwatcom-1.9/rel2/lib386/nt/plbx3r.lib(stabmod.cpp)
0041b610       __wcpp_4_module_dtor__
0041b63c       __wcpp_4_mod_register__
Module: /mnt/sda5/.user/root/src/openwatcom-1.9/rel2/lib386/nt/clib3r.lib(nfree.c)
0041b650       _nfree_
0041b650       free_
004443ac       ___MiniHeapFreeRover
Module: /mnt/sda5/.user/root/src/openwatcom-1.9/rel2/lib386/nt/plbx3r.lib(stabadt.cpp)
0041b760+      W?dtor_the_array$n(pn$_RTARCTOR$$)pnv
0041b7a4       W?$dt:_RTARCTOR$n()_
0041b7bc       __wcpp_4_dtor_array__
00430790       W?$Wts0Dn$_RTARCTOR$$$nx[]uc
0043206c       W?$Wti0C$_RTARCTOR$$$n[]uc
Module: /mnt/sda5/.user/root/src/openwatcom-1.9/rel2/lib386/nt/plbx3r.lib(istdestr.cpp)
004307f0       W?$Wvf0Go8:istream$:std$$nx[]pn()v
00430800       W?$Wvf0Ho1p:istream$:std$$nx[]pn()v
00430810+      W?$Wts0Gn$istream$:std$$$nx[]uc
0041b900       W?$Wvt0V.@dt:istream$:std$c$:0:1$dtn()_$:ios$:std$n()pnv
0041b830       W?$dt:istream$:std$n()_
00430830       W?$Wva0Go0:istream$:std$$nx[]uc
Module: /mnt/sda5/.user/root/src/openwatcom-1.9/rel2/lib386/nt/plbx3r.lib(fsbdestr.cpp)
004308b0       W?$Wvf0Lo22:fstreambase$:std$$nx[]pn()v
004308c0       W?$Wvf0Lo3j:fstreambase$:std$$nx[]pn()v
004308d0+      W?$Wts0Kn$fstreambase$:std$$$nx[]uc
0041b9f0       W?$Wvt0Z.@dt:fstreambase$:std$c$:0:1$dtn()_$:ios$:std$n()pnv
0041ba00       W?.tdtor$:filebuf$:std$n()pnv
0041b910       W?$dt:fstreambase$:std$n()_
004308f0       W?$Wva0Ko0:fstreambase$:std$$nx[]uc
Module: /mnt/sda5/.user/root/src/openwatcom-1.9/rel2/lib386/nt/plbx3r.lib(iosdestr.cpp)
00430940       W?$Wvf0Do19:ios$:std$$nx[]pn()v
00430950+      W?$Wts0Cn$ios$:std$$$nx[]uc
0041ba10       W?$dt:ios$:std$n()_
00430970       W?$Wva0Co0:ios$:std$$nx[]uc
Module: /mnt/sda5/.user/root/src/openwatcom-1.9/rel2/lib386/nt/plbx3r.lib(ostdestr.cpp)
004309c0       W?$Wvf0Go4:ostream$:std$$nx[]pn()v
004309d0       W?$Wvf0Ho1l:ostream$:std$$nx[]pn()v
0041bb70       W?$Wvt0V.@dt:ostream$:std$c$:0:1$dtn()_$:ios$:std$n()pnv
0041baa0       W?$dt:ostream$:std$n()_
004309e0       W?$Wva0Go0:ostream$:std$$nx[]uc
Module: /mnt/sda5/.user/root/src/openwatcom-1.9/rel2/lib386/nt/plbx3r.lib(exc_pr.cpp)
0041bb80       W?$ct:_EXC_PR$n(pn$_RTCTL$$pn$RW_DTREG$$$EXCSTATE$$)_
0041bbac       W?$dt:_EXC_PR$n()_
0041bbbc       W?$ct:_EXC_PR_FREE$n(pn$_RTCTL$$pn$RW_DTREG$$$EXCSTATE$$pn$ACTIVE_EXC$$)_
0041bbd0       W?$dt:_EXC_PR_FREE$n()_
0041bc08       W?$ct:_EXC_PR_DTOR$n(pn$_RTCTL$$pn$RW_DTREG$$$EXCSTATE$$pn$ACTIVE_EXC$$)_
0041bc18       W?$ct:_EXC_PR_FNEXC$n(pn$_RTCTL$$pn$RW_DTREG$$pn$2$pn$ACTIVE_EXC$$)_
0041bc38       W?$dt:_EXC_PR_FNEXC$n()_
0041bc40       W?$dt:_EXC_PR_DTOR$n()_
Module: /mnt/sda5/.user/root/src/openwatcom-1.9/rel2/lib386/nt/plbx3r.lib(vfun_err.cpp)
0041bc70       __wcpp_4_undef_vfun__
Module: /mnt/sda5/.user/root/src/openwatcom-1.9/rel2/lib386/nt/plbx3r.lib(unexpect.cpp)
0041bca0       W?unexpected$:std$n()v
Module: /mnt/sda5/.user/root/src/openwatcom-1.9/rel2/lib386/nt/plbx3r.lib(callterm.cpp)
0041bd40       __wcpp_4_corrupted_stack__
0041bd54       __wcpp_4_call_terminate__
Module: /mnt/sda5/.user/root/src/openwatcom-1.9/rel2/lib386/nt/plbx3r.lib(tsequiv.cpp)
0041bd80       __wcpp_4_ts_refed__
0041bd98+      __wcpp_4_ts_pnted__
0041bdcc       __wcpp_4_ts_equiv__
Module: /mnt/sda5/.user/root/src/openwatcom-1.9/rel2/lib386/nt/plbx3r.lib(pgmthrd.cpp)
0041beb0       __wcpp_4_pgm_thread__
Module: /mnt/sda5/.user/root/src/openwatcom-1.9/rel2/lib386/nt/plbx3r.lib(stabinit.cpp)
0041bee0       __wcpp_4_exc_setup__
Module: /mnt/sda5/.user/root/src/openwatcom-1.9/rel2/lib386/nt/clib3r.lib(stackwnt.c)
0041bf80       stackavail_
Module: /mnt/sda5/.user/root/src/openwatcom-1.9/rel2/lib386/nt/plbx3r.lib(fatalerr.cpp)
0041bf90       __wcpp_4_fatal_runtime_error__
Module: /mnt/sda5/.user/root/src/openwatcom-1.9/rel2/lib386/nt/clib3r.lib(stk)
0041bfb9*      __CHK
0041bfc9*      __STK
0041bfe8       __STKOVERFLOW_
0041bff8       __GRO
0041c018*      __alloca_probe
Module: /mnt/sda5/.user/root/src/openwatcom-1.9/rel2/lib386/nt/plbx3r.lib(allocexc.cpp)
0041c054       __wcpp_4_alloc_exc__
0041c2a8       __wcpp_4_free_exc__
0041c2e0       __wcpp_4_find_active__
0041c2fc       __wcpp_4_dtor_free_exc__
Module: /mnt/sda5/.user/root/src/openwatcom-1.9/rel2/lib386/nt/plbx3r.lib(stabtrav.cpp)
0041c3c0       __wcpp_4_stab_entry__
0041c3d8*      __wcpp_4_stab_trav_comp__
0041c4bc       __wcpp_4_stab_trav_init__
0041c4e0       __wcpp_4_stab_trav_next__
0041c538       __wcpp_4_stab_trav_move__
Module: /mnt/sda5/.user/root/src/openwatcom-1.9/rel2/lib386/nt/plbx3r.lib(ostopfx.cpp)
0041c550       W?do_opfx$:ostream$:std$n()i
Module: /mnt/sda5/.user/root/src/openwatcom-1.9/rel2/lib386/nt/plbx3r.lib(iossetst.cpp)
0041c5f0+      W?$ct:failure$:ios$:std$n(rnx$0:1:2$)_
0041c600+      W?$dt:failure$:ios$:std$n()_
00430a50+      W?$Wth0Nnrn$failure$:ios$:std$$$nx[]uc
00430a70+      W?$Wts0Ln$failure$:ios$:std$$$nx[]uc
0041c5c0       W?setstate$:ios$:std$n(i)v
00432090+      W?$Wti0K$failure$:ios$:std$$$n[]uc
Module: /mnt/sda5/.user/root/src/openwatcom-1.9/rel2/lib386/nt/clib3r.lib(iobaddr.c)
0041c610       __get_std_stream_
0041c610*      __get_std_file_
Module: /mnt/sda5/.user/root/src/openwatcom-1.9/rel2/lib386/nt/plbx3r.lib(sdfconfp.cpp)
00430a88       W?$Wvf0Do19:stdiobuf$$nx[]pn()v
004320ac       W?$Wti0H$streambuf$:std$$$n[]uc
0041c630       W?$ct:stdiobuf$n(pn$__iobuf$$)_
00430ab8       W?$Wva0Co0:stdiobuf$$nx[]uc
Module: /mnt/sda5/.user/root/src/openwatcom-1.9/rel2/lib386/nt/plbx3r.lib(ostconsf.cpp)
00430af0       W?$Wvb0Go0:ostream$:std$$nx[]ui
0041c640       W?$ct:ostream$:std$n(pn$streambuf$:1$)_
Module: /mnt/sda5/.user/root/src/openwatcom-1.9/rel2/lib386/nt/plbx3r.lib(sdfdestr.cpp)
0041c7b0       W?.tdtor$:streambuf$:std$n()pnv
0041c6e0       W?$dt:stdiobuf$n()_
Module: /mnt/sda5/.user/root/src/openwatcom-1.9/rel2/lib386/nt/plbx3r.lib(iouwrtit.cpp)
0041c7c0       W?writeitem$:__WATCOM_ios$n(rn$ostream$:std$$pnxaii)i
Module: /mnt/sda5/.user/root/src/openwatcom-1.9/rel2/lib386/nt/clib3r.lib(nmalloc.c)
0041cb10       _nmalloc_
0041cb10       malloc_
004320c4       ___nheapbeg
004320c8       ___MiniHeapRover
004320cc       ___LargestSizeB4MiniHeapRover
Module: /mnt/sda5/.user/root/src/openwatcom-1.9/rel2/lib386/nt/plbx3r.lib(flfclose.cpp)
0041cc10       W?close$:filebuf$:std$n()pn$1:2$
Module: /mnt/sda5/.user/root/src/openwatcom-1.9/rel2/lib386/nt/clib3r.lib(ljmphdl.c)
004320d0       ___longjmp_handler
Module: /mnt/sda5/.user/root/src/openwatcom-1.9/rel2/lib386/nt/plbx3r.lib(fsbconnm.cpp)
00430b6c       W?$Wvb0Ko0:fstreambase$:std$$nx[]ui
0041cc60       W?$ct:fstreambase$:std$n(pnxaii)_
Module: /mnt/sda5/.user/root/src/openwatcom-1.9/rel2/lib386/nt/plbx3r.lib(istconde.cpp)
00430b74+      W?$Wvb0Go0:istream$:std$$nx[]ui
0041cd50       W?$ct:istream$:std$n()_
Module: /mnt/sda5/.user/root/src/openwatcom-1.9/rel2/lib386/nt/plbx3r.lib(iosconde.cpp)
0041cda0       W?$ct:ios$:std$n()_
Module: /mnt/sda5/.user/root/src/openwatcom-1.9/rel2/lib386/nt/plbx3r.lib(ostput.cpp)
0041cdb0       W?put$:ostream$:std$n(a)rn$1:2$
Module: /mnt/sda5/.user/root/src/openwatcom-1.9/rel2/lib386/nt/clib3r.lib(gtpidwnt.c)
0041ce50       getpid_
Module: /mnt/sda5/.user/root/src/openwatcom-1.9/rel2/lib386/nt/clib3r.lib(mainwnt.c)
004320d4*      ___TlsIndex
004320d8+      ___FirstThreadData
004320dc       ___GetThreadPtr
004320e0       __AccessFileH
004320e4       __ReleaseFileH
004320e8       __AccessIOB
004320ec       __ReleaseIOB
004320f0       __AccessNHeap
004320f4*      __AccessFHeap
004320f8       __ReleaseNHeap
0041ce70*      __threadid_
0041ce90+      __sig_null_rtn_
0041cea0+      __NTInit_
0041d080+      __NTFini_
0041d0e0       __NTMainInit_
0041d140       __exit_
004320fc*      __ReleaseFHeap
00432100*      __AccessTDList
00432104*      __ReleaseTDList
00432108       __AccessFList
0043210c       __ReleaseFList
00432110+      __ThreadExitRtn
00432114       ___sig_init_rtn
00432118       ___sig_fini_rtn
0043211c       ___process_fini
004443b8       ___Is_DLL
Module: /mnt/sda5/.user/root/src/openwatcom-1.9/rel2/lib386/nt/clib3r.lib(accsswnt.c)
0041d190       access_
Module: /mnt/sda5/.user/root/src/openwatcom-1.9/rel2/lib386/nt/clib3r.lib(seterrno.c)
0041d1b4       __set_errno_
0041d1c2*      __set_EDOM_
0041d1d0*      __set_ERANGE_
0041d1de*      __set_EINVAL_
0041d1f1       __set_doserrno_
Module: /mnt/sda5/.user/root/src/openwatcom-1.9/rel2/lib386/nt/plbx3r.lib(ostconde.cpp)
0041d200       W?$ct:ostream$:std$n()_
Module: /mnt/sda5/.user/root/src/openwatcom-1.9/rel2/lib386/nt/clib3r.lib(unlnkwnt.c)
0041d240       unlink_
Module: /mnt/sda5/.user/root/src/openwatcom-1.9/rel2/lib386/nt/clib3r.lib(dosret.c)
0041d260*      _dosretax_
0041d270*      _dosret0_
0041d280       __set_errno_dos_
0041d2b0*      __set_errno_dos_reterr_
0041d2c0       __set_errno_nt_
0041d2d0*      __set_errno_nt_reterr_
Module: /mnt/sda5/.user/root/src/openwatcom-1.9/rel2/lib386/nt/clib3r.lib(strncpy.c)
0041d2f0       strncpy_
Module: /mnt/sda5/.user/root/src/openwatcom-1.9/rel2/lib386/nt/clib3r.lib(initrtns.c)
0041d340       __InitRtns
0041d390       __FiniRtns
Module: /mnt/sda5/.user/root/src/openwatcom-1.9/rel2/lib386/nt/clib3r.lib(__stos)
0041d3f0       __STOSB
0041d427*      __STOSD
Module: /mnt/sda5/.user/root/src/openwatcom-1.9/rel2/lib386/nt/plbx3r.lib(prwdata.cpp)
004449d4       __wint_pure_error_flag
004449d6       __wint_undef_vfun_flag
004449d8       __wint_module_init
Module: /mnt/sda5/.user/root/src/openwatcom-1.9/rel2/lib386/nt/clib3r.lib(main2wnt.c)
0041d4a0       __NTMain
Module: /mnt/sda5/.user/root/src/openwatcom-1.9/rel2/lib386/nt/clib3r.lib(segdefns)
00401003       ___begtext
00427000*      __nullarea
004337c0       __Start_XI
00433808       __End_XI
00433808       __Start_YI
0043382c       __End_YI
Module: /mnt/sda5/.user/root/src/openwatcom-1.9/rel2/lib386/nt/clib3r.lib(initargv.c)
0041d500       __Init_Argv_
0041d550+      _getargv_
0041d6f0       __Fini_Argv_
Module: /mnt/sda5/.user/root/src/openwatcom-1.9/rel2/lib386/nt/plbx3r.lib(istipfx.cpp)
0041d700       W?ipfx$:istream$:std$n(i)i
Module: /mnt/sda5/.user/root/src/openwatcom-1.9/rel2/lib386/nt/plbx3r.lib(stfdsgtn.cpp)
0041d740       W?do_sgetn$:streambuf$:std$n(pnai)i
Module: /mnt/sda5/.user/root/src/openwatcom-1.9/rel2/lib386/nt/plbx3r.lib(istdipfx.cpp)
0041d7c0       W?do_ipfx$:istream$:std$n(i)i
Module: /mnt/sda5/.user/root/src/openwatcom-1.9/rel2/lib386/nt/plbx3r.lib(istdread.cpp)
0041d850       W?do_read$:istream$:std$n(pnai)rn$1:2$
Module: /mnt/sda5/.user/root/src/openwatcom-1.9/rel2/lib386/nt/plbx3r.lib(fsbconfd.cpp)
0041d900       W?$ct:fstreambase$:std$n(i)_
Module: /mnt/sda5/.user/root/src/openwatcom-1.9/rel2/lib386/nt/plbx3r.lib(ioufgtba.cpp)
0041d9e0       W?__FlagsToBase$n(l)i
Module: /mnt/sda5/.user/root/src/openwatcom-1.9/rel2/lib386/nt/plbx3r.lib(ostadpre.cpp)
0041da10       W?__AddPrefix$n(apnarniil)v
Module: /mnt/sda5/.user/root/src/openwatcom-1.9/rel2/lib386/nt/clib3r.lib(ltoa.c)
0041da70       ultoa_
0041dac0*      ltoa_
Module: /mnt/sda5/.user/root/src/openwatcom-1.9/rel2/lib386/nt/clib3r.lib(strupr.c)
0041daf0       strupr_
Module: /mnt/sda5/.user/root/src/openwatcom-1.9/rel2/lib386/nt/plbx3r.lib(tssize.cpp)
0041db34       __wcpp_4_ts_size__
Module: /mnt/sda5/.user/root/src/openwatcom-1.9/rel2/lib386/nt/plbx3r.lib(stabactv.cpp)
0041db70       __wcpp_4_ctor_varray__
Module: /mnt/sda5/.user/root/src/openwatcom-1.9/rel2/lib386/nt/plbx3r.lib(stabact.cpp)
0041dc10       __wcpp_4_ctor_array__
Module: /mnt/sda5/.user/root/src/openwatcom-1.9/rel2/lib386/nt/plbx3r.lib(stfdspun.cpp)
0041dcb0       W?do_sputn$:streambuf$:std$n(pnxai)i
Module: /mnt/sda5/.user/root/src/openwatcom-1.9/rel2/lib386/nt/plbx3r.lib(stabdisp.cpp)
0041df4c       __wcpp_4_dispatchable__
Module: /mnt/sda5/.user/root/src/openwatcom-1.9/rel2/lib386/nt/clib3r.lib(mem.c)
0041dfa0       __MemAllocator
0041e050       __MemFree
Module: /mnt/sda5/.user/root/src/openwatcom-1.9/rel2/lib386/nt/plbx3r.lib(flfdestr.cpp)
00430c10       W?$Wvf0Ho19:filebuf$:std$$nx[]pn()v
00430c40+      W?$Wts0Gn$filebuf$:std$$$nx[]uc
0041e190       W?$dt:filebuf$:std$n()_
00430c60       W?$Wva0Go0:filebuf$:std$$nx[]uc
00432224       W?$Wti0F$filebuf$:std$$$n[]uc
Module: /mnt/sda5/.user/root/src/openwatcom-1.9/rel2/lib386/nt/plbx3r.lib(ioufrxal.cpp)
0041e260       W?free_xalloc_storage$:__WATCOM_ios$n(pn$ios$:std$$)v
Module: /mnt/sda5/.user/root/src/openwatcom-1.9/rel2/lib386/nt/plbx3r.lib(termnate.cpp)
0041e280       W?terminate$:std$n()v
Module: /mnt/sda5/.user/root/src/openwatcom-1.9/rel2/lib386/nt/clib3r.lib(_strcmp)
0041e2c0       strcmp_
Module: /mnt/sda5/.user/root/src/openwatcom-1.9/rel2/lib386/nt/clib3r.lib(enterdb.c)
0041e400       __EnterWVIDEO_
00432238+      ___WD_Present
Module: /mnt/sda5/.user/root/src/openwatcom-1.9/rel2/lib386/nt/clib3r.lib(xmsgwnt.c)
0041e430       __exit_with_msg_
0041e490       __fatal_runtime_error_
Module: /mnt/sda5/.user/root/src/openwatcom-1.9/rel2/lib386/nt/plbx3r.lib(areaexc.cpp)
0043223c       ___EXC_AREA
Module: /mnt/sda5/.user/root/src/openwatcom-1.9/rel2/lib386/nt/plbx3r.lib(bittest.cpp)
0041e4b0       __wcpp_4_bit_test__
0041e4d0       __wcpp_4_bit_off__
Module: /mnt/sda5/.user/root/src/openwatcom-1.9/rel2/lib386/nt/clib3r.lib(flush.c)
0041e4f0       __flush_
Module: /mnt/sda5/.user/root/src/openwatcom-1.9/rel2/lib386/nt/plbx3r.lib(iosfail.cpp)
0041e5f0       W?$ct:failure$:ios$:std$n(i)_
Module: /mnt/sda5/.user/root/src/openwatcom-1.9/rel2/lib386/nt/clib3r.lib(iob.c)
00433250       ___iob
00433458       __fmode
004449e0       ___OpenStreams
004449e4       ___ClosedStreams
Module: /mnt/sda5/.user/root/src/openwatcom-1.9/rel2/lib386/nt/plbx3r.lib(stfpbfai.cpp)
0041e600       W?pbackfail$:streambuf$:std$n(i)i
Module: /mnt/sda5/.user/root/src/openwatcom-1.9/rel2/lib386/nt/plbx3r.lib(sdfoverf.cpp)
0041e610       W?overflow$:stdiobuf$n(i)i
Module: /mnt/sda5/.user/root/src/openwatcom-1.9/rel2/lib386/nt/plbx3r.lib(sdfundrf.cpp)
0041e770       W?underflow$:stdiobuf$n()i
Module: /mnt/sda5/.user/root/src/openwatcom-1.9/rel2/lib386/nt/plbx3r.lib(stfsbuf.cpp)
0041e890       W?setbuf$:streambuf$:std$n(pnai)pn$1:2$
Module: /mnt/sda5/.user/root/src/openwatcom-1.9/rel2/lib386/nt/plbx3r.lib(stfseekp.cpp)
0041e8e0       W?seekpos$:streambuf$:std$n(li)l
Module: /mnt/sda5/.user/root/src/openwatcom-1.9/rel2/lib386/nt/plbx3r.lib(sdfsync.cpp)
0041e8f0       W?sync$:stdiobuf$n()i
Module: /mnt/sda5/.user/root/src/openwatcom-1.9/rel2/lib386/nt/plbx3r.lib(stfdoall.cpp)
0041e920       W?doallocate$:streambuf$:std$n()i
Module: /mnt/sda5/.user/root/src/openwatcom-1.9/rel2/lib386/nt/plbx3r.lib(stfconde.cpp)
00430c7c       W?$Wvf0Jo19:streambuf$:std$$nx[]pn()v
0041e960       W?$ct:streambuf$:std$n()_
00430cac       W?$Wva0Io0:streambuf$:std$$nx[]uc
Module: /mnt/sda5/.user/root/src/openwatcom-1.9/rel2/lib386/nt/plbx3r.lib(iosinit.cpp)
0041e9b0       W?init$:ios$:std$n(pn$streambuf$:2$)v
Module: /mnt/sda5/.user/root/src/openwatcom-1.9/rel2/lib386/nt/plbx3r.lib(stfdestr.cpp)
0041ea00       W?$dt:streambuf$:std$n()_
Module: /mnt/sda5/.user/root/src/openwatcom-1.9/rel2/lib386/nt/clib3r.lib(nmemneed.c)
0041ea20       __nmemneed_
Module: /mnt/sda5/.user/root/src/openwatcom-1.9/rel2/lib386/nt/clib3r.lib(grownear.c)
0041eb90       __ExpandDGROUP_
Module: /mnt/sda5/.user/root/src/openwatcom-1.9/rel2/lib386/nt/clib3r.lib(close.c)
0041ebb0       close_
Module: /mnt/sda5/.user/root/src/openwatcom-1.9/rel2/lib386/nt/plbx3r.lib(flfconde.cpp)
0041ebd0       W?$ct:filebuf$:std$n()_
Module: /mnt/sda5/.user/root/src/openwatcom-1.9/rel2/lib386/nt/plbx3r.lib(flfopen.cpp)
0041ebf0       W?open$:filebuf$:std$n(pnxaii)pn$1:2$
Module: /mnt/sda5/.user/root/src/openwatcom-1.9/rel2/lib386/nt/clib3r.lib(hdlman.c)
0043345c+      ___NHandles
00433460+      ___OSHandles
00433464+      ___FakeHandles
0041ec90+      __growPOSIXHandles_
0041ed30       __allocPOSIXHandle_
0041edf0       __freePOSIXHandle_
0041ee10       __getOSHandle_
0041ee20       __setOSHandle_
0041ee70+      __NTGetFakeHandle_
0041eee0       __initPOSIXHandles_
0041efc0*      __set_handles_
0041efd0*      _grow_handles_
Module: /mnt/sda5/.user/root/src/openwatcom-1.9/rel2/lib386/nt/clib3r.lib(crwdata)
004334b4       __osmajor
004334b5       __osminor
004334b6       __osbuild
004334b8       __osver
004334bc       __winmajor
004334c0       __winminor
004334c4       __winver
00433480       __LpDllName
00433484       __LpwCmdLine
00433488       __LpwPgmName
0043348c       __LpwDllName
00433478       __LpCmdLine
0043347c       __LpPgmName
00433470*      __dynend
00433474       __curbrk
00433490*      __STACKLOW
00433494       __STACKTOP
00433498       __ASTACKSIZ
0043349c       __ASTACKPTR
004334a0       __cbyte
004334a4*      __cbyte2
004334a8*      __child
004334ae       __Envptr
004334b2*      __Envseg
004334ac*      __no87
004334c8       ___FPE_handler
Module: /mnt/sda5/.user/root/src/openwatcom-1.9/rel2/lib386/nt/clib3r.lib(environ.c)
004449e8       ___env_mask
004449ec       _environ
004449f0       __wenviron
Module: /mnt/sda5/.user/root/src/openwatcom-1.9/rel2/lib386/nt/clib3r.lib(getmodfn.c)
0041f010       __lib_GetModuleFileNameW_
Module: /mnt/sda5/.user/root/src/openwatcom-1.9/rel2/lib386/nt/clib3r.lib(strdup.c)
0041f0b0       __clib_strdup_
Module: /mnt/sda5/.user/root/src/openwatcom-1.9/rel2/lib386/nt/clib3r.lib(istable.c)
0041f0f0       __IsTable
Module: /mnt/sda5/.user/root/src/openwatcom-1.9/rel2/lib386/nt/clib3r.lib(ustrdup.c)
0041f1f1       __clib_wcsdup_
Module: /mnt/sda5/.user/root/src/openwatcom-1.9/rel2/lib386/nt/clib3r.lib(excptwnt.c)
0041f880+      ___ReportException@4
0041fcd0       __DefaultExceptionHandler_
0041fd10+      ___ExceptionFilter
0041ff20       __NewExceptionFilter_
0041ff50       __DoneExceptionFilter_
004334cc       ___oscode_check_func
004334d0       ___raise_func
004449f4*      _sw
004449f8+      ___ExceptionHandled
004449f9+      ___ReportInvoked
Module: /mnt/sda5/.user/root/src/openwatcom-1.9/rel2/lib386/nt/clib3r.lib(stklmwnt.c)
0041ff90       __init_stack_limits_
Module: /mnt/sda5/.user/root/src/openwatcom-1.9/rel2/lib386/nt/clib3r.lib(fgtattr.c)
00420000       __fixed_GetFileAttributesA_
Module: /mnt/sda5/.user/root/src/openwatcom-1.9/rel2/lib386/nt/clib3r.lib(mthrdini.c)
004200a0       __InitThreadData_
004334e8       ___ThreadDataSize
Module: /mnt/sda5/.user/root/src/openwatcom-1.9/rel2/lib386/nt/clib3r.lib(cmain386.c)
004200d0       __CMain
Module: /mnt/sda5/.user/root/src/openwatcom-1.9/rel2/lib386/nt/clib3r.lib(dosseg)
00001234       __DOSseg__
Module: /mnt/sda5/.user/root/src/openwatcom-1.9/rel2/lib386/nt/clib3r.lib(histsplt.c)
004449fc       ___historical_splitparms
Module: /mnt/sda5/.user/root/src/openwatcom-1.9/rel2/lib386/nt/clib3r.lib(___argc.c)
00444a00       ____Argc
00444a04       ____Argv
Module: /mnt/sda5/.user/root/src/openwatcom-1.9/rel2/lib386/nt/plbx3r.lib(manws.cpp)
00420110       W?ws$:std$n(rn$istream$:1$)rn$2:1$
Module: /mnt/sda5/.user/root/src/openwatcom-1.9/rel2/lib386/nt/plbx3r.lib(flfattac.cpp)
00420140       W?attach$:filebuf$:std$n(i)pn$1:2$
Module: /mnt/sda5/.user/root/src/openwatcom-1.9/rel2/lib386/nt/clib3r.lib(alphabet.c)
00427428       ___Alphabet
Module: /mnt/sda5/.user/root/src/openwatcom-1.9/rel2/lib386/nt/plbx3r.lib(flfpbfai.cpp)
00420180       W?pbackfail$:filebuf$:std$n(i)i
Module: /mnt/sda5/.user/root/src/openwatcom-1.9/rel2/lib386/nt/plbx3r.lib(flfoverf.cpp)
00420240       W?overflow$:filebuf$:std$n(i)i
Module: /mnt/sda5/.user/root/src/openwatcom-1.9/rel2/lib386/nt/plbx3r.lib(flfundrf.cpp)
00420460       W?underflow$:filebuf$:std$n()i
Module: /mnt/sda5/.user/root/src/openwatcom-1.9/rel2/lib386/nt/plbx3r.lib(flfsetbf.cpp)
00420570       W?setbuf$:filebuf$:std$n(pnai)pn$streambuf$:2$
Module: /mnt/sda5/.user/root/src/openwatcom-1.9/rel2/lib386/nt/plbx3r.lib(flfseeko.cpp)
004205d0       W?seekoff$:filebuf$:std$n(lii)l
Module: /mnt/sda5/.user/root/src/openwatcom-1.9/rel2/lib386/nt/plbx3r.lib(flfsync.cpp)
00420620       W?sync$:filebuf$:std$n()i
Module: /mnt/sda5/.user/root/src/openwatcom-1.9/rel2/lib386/nt/clib3r.lib(liballoc.c)
004206c0       _plib_malloc_
004206d0       _plib_free_
Module: /mnt/sda5/.user/root/src/openwatcom-1.9/rel2/lib386/nt/clib3r.lib(__lseek.c)
004206e0       __lseek_
Module: /mnt/sda5/.user/root/src/openwatcom-1.9/rel2/lib386/nt/clib3r.lib(fsync.c)
00420720       fsync_
Module: /mnt/sda5/.user/root/src/openwatcom-1.9/rel2/lib386/nt/clib3r.lib(qwrit.c)
00420770       __qwrite_
Module: /mnt/sda5/.user/root/src/openwatcom-1.9/rel2/lib386/nt/clib3r.lib(initfile.c)
00420880       __InitFiles_
Module: /mnt/sda5/.user/root/src/openwatcom-1.9/rel2/lib386/nt/clib3r.lib(ioexit.c)
00420980*      fcloseall_
00420990       __full_io_exit_
Module: /mnt/sda5/.user/root/src/openwatcom-1.9/rel2/lib386/nt/clib3r.lib(fwrite.c)
004209a0       fwrite_
Module: /mnt/sda5/.user/root/src/openwatcom-1.9/rel2/lib386/nt/clib3r.lib(memmove.c)
00420bb0       memmove_
Module: /mnt/sda5/.user/root/src/openwatcom-1.9/rel2/lib386/nt/clib3r.lib(fgetc.c)
00420c10+      __fill_buffer_
00420d10       fgetc_
Module: /mnt/sda5/.user/root/src/openwatcom-1.9/rel2/lib386/nt/plbx3r.lib(stfsetb.cpp)
00420dd0       W?setb$:streambuf$:std$n(pnapnai)v
Module: /mnt/sda5/.user/root/src/openwatcom-1.9/rel2/lib386/nt/clib3r.lib(amblksiz.c)
004334ec       __amblksiz
Module: /mnt/sda5/.user/root/src/openwatcom-1.9/rel2/lib386/nt/clib3r.lib(heapen.c)
00420e30*      _heapenable_
004334f0       ___heap_enabled
Module: /mnt/sda5/.user/root/src/openwatcom-1.9/rel2/lib386/nt/clib3r.lib(nheapmin.c)
00420e60       _nheapshrink_
00420e60*      _nheapmin_
00420e60*      _heapmin_
00420e60*      _heapshrink_
Module: /mnt/sda5/.user/root/src/openwatcom-1.9/rel2/lib386/nt/clib3r.lib(iomode.c)
00420f50       __GetIOMode_
00420f70       __SetIOMode_nogrow_
004334f4       ___NFiles
004334f8       ___init_mode
00433548       ___io_mode
Module: /mnt/sda5/.user/root/src/openwatcom-1.9/rel2/lib386/nt/clib3r.lib(_clsewnt.c)
00420f90       __close_
Module: /mnt/sda5/.user/root/src/openwatcom-1.9/rel2/lib386/nt/clib3r.lib(plusopen.c)
00420ff0       __plusplus_open_
Module: /mnt/sda5/.user/root/src/openwatcom-1.9/rel2/lib386/nt/clib3r.lib(nrealloc.c)
004210c0*      _nrealloc_
004210c0       realloc_
Module: /mnt/sda5/.user/root/src/openwatcom-1.9/rel2/lib386/nt/clib3r.lib(stiomode.c)
00421140       __grow_iomode_
00421210+      __shrink_iomode_
00421250       __SetIOMode_
Module: /mnt/sda5/.user/root/src/openwatcom-1.9/rel2/lib386/nt/clib3r.lib(setenvp.c)
004212c0       __setenvp_
00421380       __freeenvp_
Module: /mnt/sda5/.user/root/src/openwatcom-1.9/rel2/lib386/nt/clib3r.lib(ustrlen.c)
004213cd       wcslen_
Module: /mnt/sda5/.user/root/src/openwatcom-1.9/rel2/lib386/nt/clib3r.lib(memcpy.c)
004213e0       memcpy_
Module: /mnt/sda5/.user/root/src/openwatcom-1.9/rel2/lib386/nt/clib3r.lib(conutwnt.c)
00421410       __NTRealKey_
004214c0       __NTConsoleInput_
004214d0       __NTConsoleOutput_
Module: /mnt/sda5/.user/root/src/openwatcom-1.9/rel2/lib386/nt/clib3r.lib(fclex387.c)
004214e0       _ClearFPE_
Module: /mnt/sda5/.user/root/src/openwatcom-1.9/rel2/lib386/nt/clib3r.lib(signlwnt.c)
00433554+      __SignalTable
004214f0+      __SetSignalFunc_
00421540+      __GetSignalFunc_
00421570+      __GetSignalOSCode_
004215a0+      __CheckSignalExCode_
004216e0+      __sigabort_
004216f0       __sigfpe_handler_
00421740*      signal_
004217d0+      raise_
00421840+      __SigInit_
00421890+      __SigFini_
004218d0+      __sig_init_
Module: /mnt/sda5/.user/root/src/openwatcom-1.9/rel2/lib386/nt/clib3r.lib(cinit.c)
004218f0       __CommonInit_
Module: /mnt/sda5/.user/root/src/openwatcom-1.9/rel2/lib386/nt/plbx3r.lib(istpeek.cpp)
00421900       W?peek$:istream$:std$n()i
Module: /mnt/sda5/.user/root/src/openwatcom-1.9/rel2/lib386/nt/clib3r.lib(isspace.c)
00421960       isspace_
Module: /mnt/sda5/.user/root/src/openwatcom-1.9/rel2/lib386/nt/plbx3r.lib(istget.cpp)
00421970       W?get$:istream$:std$n()i
Module: /mnt/sda5/.user/root/src/openwatcom-1.9/rel2/lib386/nt/clib3r.lib(plusfsta.c)
004219f0       __plusplus_fstat_
Module: /mnt/sda5/.user/root/src/openwatcom-1.9/rel2/lib386/nt/clib3r.lib(lseek.c)
00421a30       lseek_
Module: /mnt/sda5/.user/root/src/openwatcom-1.9/rel2/lib386/nt/clib3r.lib(write.c)
00421cd0       write_
Module: /mnt/sda5/.user/root/src/openwatcom-1.9/rel2/lib386/nt/clib3r.lib(tell.c)
00421f30       tell_
Module: /mnt/sda5/.user/root/src/openwatcom-1.9/rel2/lib386/nt/clib3r.lib(read.c)
00421f50       read_
Module: /mnt/sda5/.user/root/src/openwatcom-1.9/rel2/lib386/nt/clib3r.lib(fclose.c)
004220e0+      __doclose_
00422180       __shutdown_stream_
004221a0*      fclose_
00444a10+      ___RmTmpFileFn
Module: /mnt/sda5/.user/root/src/openwatcom-1.9/rel2/lib386/nt/clib3r.lib(freefp.c)
004221f0       __freefp_
00422240       __purgefp_
Module: /mnt/sda5/.user/root/src/openwatcom-1.9/rel2/lib386/nt/clib3r.lib(ioalloc.c)
00422270       __ioalloc_
Module: /mnt/sda5/.user/root/src/openwatcom-1.9/rel2/lib386/nt/clib3r.lib(fputc.c)
00422310       fputc_
Module: /mnt/sda5/.user/root/src/openwatcom-1.9/rel2/lib386/nt/clib3r.lib(flushall.c)
004223f0       __flushall_
00422430*      flushall_
Module: /mnt/sda5/.user/root/src/openwatcom-1.9/rel2/lib386/nt/clib3r.lib(gtchewnt.c)
00422440       getche_
Module: /mnt/sda5/.user/root/src/openwatcom-1.9/rel2/lib386/nt/clib3r.lib(qread.c)
00422470       __qread_
Module: /mnt/sda5/.user/root/src/openwatcom-1.9/rel2/lib386/nt/clib3r.lib(statwnt.c)
004225e1       stat_
Module: /mnt/sda5/.user/root/src/openwatcom-1.9/rel2/lib386/nt/clib3r.lib(openwnt.c)
00422a20*      open_
00422a40       sopen_
Module: /mnt/sda5/.user/root/src/openwatcom-1.9/rel2/lib386/nt/clib3r.lib(nmsize.c)
00422a70       _nmsize_
00422a70*      _msize_
Module: /mnt/sda5/.user/root/src/openwatcom-1.9/rel2/lib386/nt/clib3r.lib(nexpand.c)
00422a80       _nexpand_
00422a80*      _expand_
00422ac0+      __HeapManager_expand_
Module: /mnt/sda5/.user/root/src/openwatcom-1.9/rel2/lib386/nt/clib3r.lib(iomodtty.c)
00422c80       __ChkTTYIOMode_
00422cc0*      __IOMode_
Module: /mnt/sda5/.user/root/src/openwatcom-1.9/rel2/lib386/nt/clib3r.lib(dofilstr.c)
00422d00       __ParsePosixHandleStr_
Module: /mnt/sda5/.user/root/src/openwatcom-1.9/rel2/lib386/nt/clib3r.lib(clearenv.c)
00422e20       clearenv_
Module: /mnt/sda5/.user/root/src/openwatcom-1.9/rel2/lib386/nt/clib3r.lib(abort.c)
00422ec5*      abort_
00422ed7       __terminate_
004335c0       ___abort
Module: /mnt/sda5/.user/root/src/openwatcom-1.9/rel2/lib386/nt/clib3r.lib(chktty.c)
00422ef0       __chktty_
Module: /mnt/sda5/.user/root/src/openwatcom-1.9/rel2/lib386/nt/clib3r.lib(getchwnt.c)
00423030       getch_
Module: /mnt/sda5/.user/root/src/openwatcom-1.9/rel2/lib386/nt/clib3r.lib(putchwnt.c)
004230a0       putch_
Module: /mnt/sda5/.user/root/src/openwatcom-1.9/rel2/lib386/nt/clib3r.lib(mbspbrk.c)
004230f0       _mbspbrk_
Module: /mnt/sda5/.user/root/src/openwatcom-1.9/rel2/lib386/nt/clib3r.lib(gtcwdwnt.c)
00423140       getcwd_
Module: /mnt/sda5/.user/root/src/openwatcom-1.9/rel2/lib386/nt/clib3r.lib(fullpath.c)
004231e0+      _sys_fullpath_
00423260       _fullpath_
Module: /mnt/sda5/.user/root/src/openwatcom-1.9/rel2/lib386/nt/clib3r.lib(mbsinc.c)
004232d0       _mbsinc_
Module: /mnt/sda5/.user/root/src/openwatcom-1.9/rel2/lib386/nt/clib3r.lib(tolower.c)
00423300       tolower_
Module: /mnt/sda5/.user/root/src/openwatcom-1.9/rel2/lib386/nt/clib3r.lib(ntdirinf.c)
00423310       __MakeDOSDT_
00423340*      __FromDOSDT_
00423370*      __GetNTDirInfo_
004233b0*      __NTFindNextFileWithAttr_
Module: /mnt/sda5/.user/root/src/openwatcom-1.9/rel2/lib386/nt/clib3r.lib(d2ttime.c)
00423410       _d2ttime_
Module: /mnt/sda5/.user/root/src/openwatcom-1.9/rel2/lib386/nt/clib3r.lib(ntfio.c)
00423490*      __GetNTCreateAttr_
004234d0       __GetNTAccessAttr_
00423500       __GetNTShareAttr_
Module: /mnt/sda5/.user/root/src/openwatcom-1.9/rel2/lib386/nt/clib3r.lib(umaskval.c)
004335c8       ___umaskval
Module: /mnt/sda5/.user/root/src/openwatcom-1.9/rel2/lib386/nt/clib3r.lib(isattwnt.c)
00423560       isatty_
Module: /mnt/sda5/.user/root/src/openwatcom-1.9/rel2/lib386/nt/clib3r.lib(getenv.c)
00423580       getenv_
Module: /mnt/sda5/.user/root/src/openwatcom-1.9/rel2/lib386/nt/clib3r.lib(strtol.c)
00423830*      strtoul_
00423840       strtol_
Module: /mnt/sda5/.user/root/src/openwatcom-1.9/rel2/lib386/nt/clib3r.lib(putenv.c)
00423850       putenv_
00423ae0       __putenv_
Module: /mnt/sda5/.user/root/src/openwatcom-1.9/rel2/lib386/nt/clib3r.lib(mbterm.c)
00423c50       _mbterm_
Module: /mnt/sda5/.user/root/src/openwatcom-1.9/rel2/lib386/nt/clib3r.lib(mbsnextc.c)
00423c90       _mbsnextc_
Module: /mnt/sda5/.user/root/src/openwatcom-1.9/rel2/lib386/nt/clib3r.lib(mbschr.c)
00423cd0       _mbschr_
Module: /mnt/sda5/.user/root/src/openwatcom-1.9/rel2/lib386/nt/clib3r.lib(mbisdbcs.c)
00444a20       ___IsDBCS
Module: /mnt/sda5/.user/root/src/openwatcom-1.9/rel2/lib386/nt/clib3r.lib(mbislead.c)
00423d30*      _ismbblead_
00444a24       ___MBCSIsTable
Module: /mnt/sda5/.user/root/src/openwatcom-1.9/rel2/lib386/nt/clib3r.lib(mktime.c)
00423d50       mktime_
Module: /mnt/sda5/.user/root/src/openwatcom-1.9/rel2/lib386/nt/clib3r.lib(mbcupper.c)
00423de0       _mbctoupper_
Module: /mnt/sda5/.user/root/src/openwatcom-1.9/rel2/lib386/nt/clib3r.lib(mbslen.c)
00423e10       _mbslen_
Module: /mnt/sda5/.user/root/src/openwatcom-1.9/rel2/lib386/nt/clib3r.lib(mbstowcs.c)
00423e40       mbstowcs_
Module: /mnt/sda5/.user/root/src/openwatcom-1.9/rel2/lib386/nt/clib3r.lib(uputenv.c)
00423ec0*      _wputenv_
004240e0       __wputenv_
Module: /mnt/sda5/.user/root/src/openwatcom-1.9/rel2/lib386/nt/clib3r.lib(toupper.c)
004241e0       toupper_
Module: /mnt/sda5/.user/root/src/openwatcom-1.9/rel2/lib386/nt/clib3r.lib(mbconv.c)
004241f0       _mbvtop_
Module: /mnt/sda5/.user/root/src/openwatcom-1.9/rel2/lib386/nt/clib3r.lib(mbclen.c)
00424210       _mbclen_
Module: /mnt/sda5/.user/root/src/openwatcom-1.9/rel2/lib386/nt/clib3r.lib(mbccmp.c)
00424240       _mbccmp_
Module: /mnt/sda5/.user/root/src/openwatcom-1.9/rel2/lib386/nt/clib3r.lib(mbinit.c)
004242b5       __mbinit_
00433658       ___MBCodePage
Module: /mnt/sda5/.user/root/src/openwatcom-1.9/rel2/lib386/nt/clib3r.lib(locmktim.c)
004243b0       __local_mktime_
Module: /mnt/sda5/.user/root/src/openwatcom-1.9/rel2/lib386/nt/clib3r.lib(gmtime.c)
00424530       __brktime_
00424630+      _gmtime_
00424650*      gmtime_
Module: /mnt/sda5/.user/root/src/openwatcom-1.9/rel2/lib386/nt/clib3r.lib(tzset.c)
0043365c       ___start_dst
00433680       ___end_dst
004337a8*      _tzname
004337b0       _timezone
004337b4       _daylight
004337b8       ___dst_adjust
004246c0*      __DontCacheOSTZ_
004246d0*      __CacheOSTZ_
00424bb0+      __parse_tz_
00424fa0       tzset_
Module: /mnt/sda5/.user/root/src/openwatcom-1.9/rel2/lib386/nt/clib3r.lib(timeutil.c)
00425110       __isindst_
Module: /mnt/sda5/.user/root/src/openwatcom-1.9/rel2/lib386/nt/clib3r.lib(mbtowc.c)
00425440       mbtowc_
Module: /mnt/sda5/.user/root/src/openwatcom-1.9/rel2/lib386/nt/clib3r.lib(ustrchr.c)
004254d0       wcschr_
Module: /mnt/sda5/.user/root/src/openwatcom-1.9/rel2/lib386/nt/clib3r.lib(setenvar.c)
004254f0       __lib_SetEnvironmentVariableW_
Module: /mnt/sda5/.user/root/src/openwatcom-1.9/rel2/lib386/nt/clib3r.lib(crtwenv.c)
004255e0       __create_wide_environment_
Module: /mnt/sda5/.user/root/src/openwatcom-1.9/rel2/lib386/nt/clib3r.lib(wcstombs.c)
00425650       wcstombs_
Module: /mnt/sda5/.user/root/src/openwatcom-1.9/rel2/lib386/nt/clib3r.lib(utoupper.c)
004256ef       towupper_
Module: /mnt/sda5/.user/root/src/openwatcom-1.9/rel2/lib386/nt/clib3r.lib(leapyear.c)
00425700       __leapyear_
00427450       ___diyr
0042746a       ___dilyr
Module: /mnt/sda5/.user/root/src/openwatcom-1.9/rel2/lib386/nt/clib3r.lib(wctomb.c)
00425740       wctomb_
Module: /mnt/sda5/.user/root/src/openwatcom-1.9/rel2/lib386/nt/plbx3r.lib(stfseeko.cpp)
00425780       W?seekoff$:streambuf$:std$n(lii)l
Module: /mnt/sda5/.user/root/src/openwatcom-1.9/rel2/lib386/nt/plbx3r.lib(stfsync.cpp)
00425790       W?sync$:streambuf$:std$n()i


                        +----------------------+
                        |   Imported Symbols   |
                        +----------------------+

Symbol                              Module
======                              ======

_RtlUnwind@16                       KERNEL32.DLL
_RaiseException@16                  KERNEL32.DLL
_MoveFileA@8                        KERNEL32.DLL
_FormatMessageA@28                  KERNEL32.DLL
_GetCurrentProcessId@0              KERNEL32.DLL
_GetEnvironmentStringsA@0           KERNEL32.DLL
_GetVersion@0                       KERNEL32.DLL
_GetModuleFileNameA@12              KERNEL32.DLL
_GetCommandLineA@0                  KERNEL32.DLL
_GetCommandLineW@0                  KERNEL32.DLL
_FreeEnvironmentStringsA@4          KERNEL32.DLL
_GetModuleHandleA@4                 KERNEL32.DLL
_ExitProcess@4                      KERNEL32.DLL
_DeleteFileA@4                      KERNEL32.DLL
_GetLastError@0                     KERNEL32.DLL
_GetStdHandle@4                     KERNEL32.DLL
_WriteFile@20                       KERNEL32.DLL
_VirtualAlloc@16                    KERNEL32.DLL
_SetStdHandle@8                     KERNEL32.DLL
_CreateEventA@16                    KERNEL32.DLL
_CloseHandle@4                      KERNEL32.DLL
_GetModuleFileNameW@12              KERNEL32.DLL
_MultiByteToWideChar@24             KERNEL32.DLL
_LoadLibraryA@4                     KERNEL32.DLL
_GetProcAddress@8                   KERNEL32.DLL
_SetUnhandledExceptionFilter@4      KERNEL32.DLL
_UnhandledExceptionFilter@4         KERNEL32.DLL
_VirtualQuery@12                    KERNEL32.DLL
_GetFileAttributesA@4               KERNEL32.DLL
_FindFirstFileA@8                   KERNEL32.DLL
_FindClose@4                        KERNEL32.DLL
_GetCurrentThreadId@0               KERNEL32.DLL
_SetFilePointer@16                  KERNEL32.DLL
_FlushFileBuffers@4                 KERNEL32.DLL
_VirtualFree@12                     KERNEL32.DLL
_CreateFileA@28                     KERNEL32.DLL
_SetConsoleCtrlHandler@8            KERNEL32.DLL
_GetFileType@4                      KERNEL32.DLL
_ReadFile@20                        KERNEL32.DLL
_GetDriveTypeA@4                    KERNEL32.DLL
_ReadConsoleInputA@16               KERNEL32.DLL
_GetConsoleMode@8                   KERNEL32.DLL
_SetConsoleMode@8                   KERNEL32.DLL
_WriteConsoleA@20                   KERNEL32.DLL
_GetCurrentDirectoryA@8             KERNEL32.DLL
_GetFullPathNameA@16                KERNEL32.DLL
_FileTimeToLocalFileTime@8          KERNEL32.DLL
_FileTimeToDosDateTime@12           KERNEL32.DLL
_DosDateTimeToFileTime@12           KERNEL32.DLL
_LocalFileTimeToFileTime@8          KERNEL32.DLL
_FindNextFileA@8                    KERNEL32.DLL
_SetEnvironmentVariableA@8          KERNEL32.DLL
_CharUpperA@4                       USER32.DLL
_GetACP@0                           KERNEL32.DLL
_GetOEMCP@0                         KERNEL32.DLL
_GetCPInfo@8                        KERNEL32.DLL
_GetTimeZoneInformation@4           KERNEL32.DLL
_SetEnvironmentVariableW@8          KERNEL32.DLL
_WideCharToMultiByte@32             KERNEL32.DLL


                        +--------------------+
                        |   Libraries Used   |
                        +--------------------+

/mnt/sda5/.user/root/src/openwatcom-1.9/rel2/lib386/nt/kernel32.lib
/mnt/sda5/.user/root/src/openwatcom-1.9/rel2/lib386/nt/user32.lib
/mnt/sda5/.user/root/src/openwatcom-1.9/rel2/lib386/nt/clib3r.lib
/mnt/sda5/.user/root/src/openwatcom-1.9/rel2/lib386/nt/plbx3r.lib


                        +-----------------------+
                        |   Linker Statistics   |
                        +-----------------------+

Stack size:  00010000 (65536.)
Memory size:  00052ae0 (338656.)
Entry point address: 0041a4b2
Link time: 00:00.00
