Open Watcom Linker Version 1.9
Portions Copyright (c) 1985-2002 Sybase, Inc. All Rights Reserved.
Created on:       12/12/16 02:42:58
Executable Image: whc.exe
creating an OS/2 32-bit executable


                        +------------+
                        |   Groups   |
                        +------------+

Group                           Address              Size
=====                           =======              ====

DGROUP                          0003:00000000        00017670



                        +--------------+
                        |   Segments   |
                        +--------------+

Segment                Class          Group          Address         Size
=======                =====          =====          =======         ====

_TEXT16                CODE           AUTO           0001:00000000   00000068
BEGTEXT                CODE           AUTO           0002:00000000   00000007
_TEXT                  CODE           AUTO           0002:00000010   00018aa0
_NULL                  BEGDATA        DGROUP         0003:00000000   00000004
_AFTERNULL             BEGDATA        DGROUP         0003:00000004   00000000
CONST                  DATA           DGROUP         0003:00000004   00001084
CONST2                 DATA           DGROUP         0003:00001090   0000265c
_DATA                  DATA           DGROUP         0003:000036f0   00001c44
XIB                    DATA           DGROUP         0003:00005334   00000000
XI                     DATA           DGROUP         0003:00005334   00000036
XIE                    DATA           DGROUP         0003:0000536a   00000000
YIB                    DATA           DGROUP         0003:0000536a   00000000
YI                     DATA           DGROUP         0003:0000536a   0000001e
YIE                    DATA           DGROUP         0003:00005388   00000000
TIB                    DATA           DGROUP         0003:00005388   00000000
TI                     DATA           DGROUP         0003:00005388   00000000
TIE                    DATA           DGROUP         0003:00005388   00000000
DATA                   DATA           DGROUP         0003:00005388   00000000
_BSS                   BSS            DGROUP         0003:00005388   000002e0
STACK                  STACK          DGROUP         0003:00005670   00012000


                        +----------------+
                        |   Memory Map   |
                        +----------------+

* = unreferenced symbol
+ = symbol only referenced locally

Address        Symbol
=======        ======

Module: whc.obj(/mnt/sda5/.user/root/src/openwatcom-1.9/bld/helpcomp/cpp/whc.cpp)
0002:000007a0  W?$ct:InFile$n()_
0002:000007b0  W?$ct:HFContext$n(rnx$0$)_
0002:000007c0  W?size$:HFContext$n()ul
0002:000007d0  W?$ct:HFSystem$n(rnx$0$)_
0002:000007e0  W?size$:HFSystem$n()ul
0002:000007f0  W?$ct:HFFont$n(rnx$0$)_
0002:00000800  W?$ct:HFCtxomap$n(rnx$0$)_
0002:00000810  W?$ct:HFTtlbtree$n(rnx$0$)_
0002:00000820  W?size$:HFTtlbtree$n()ul
0002:00000830  W?dump$:HFTtlbtree$n(pn$OutFile$$)i
0002:00000840+ W?$ct:HFBitmaps$n(rnx$0$)_
0002:00000850+ W?$ct:HPJReader$n(rnx$0$)_
0002:00000860  W?$ct:HFKwbtree$n(rnx$0$)_
0002:00000870  W?$ct:RTFparser$n(rnx$0$)_
0002:00000880+ W?$dt:HFSDirectory$n()_
0003:00001220  W?$Wvf0Aok:InFile$$nx[]pn()v
0003:00001230  W?$Wvf0Do0:HFContext$$nx[]pn()v
0003:00001240  W?$Wvf0Co0:HFSystem$$nx[]pn()v
0003:00001250  W?$Wvf0Ao0:HFFont$$nx[]pn()v
0003:00001260  W?$Wvf0Do0:HFCtxomap$$nx[]pn()v
0003:00001270  W?$Wvf0Eo0:HFTtlbtree$$nx[]pn()v
0003:00001280  W?$Wvf0Do0:HFKwbtree$$nx[]pn()v
0003:00001290  W?$Wcm013$nx[]uc
0003:000012a0+ W?$Wcm0214$nx[]uc
0003:000012b0  W?$Wcm012$nx[]uc
0003:000012c0  W?$Wts0An$InFile$$$nx[]uc
0003:000012e0+ W?$Wts0Gn$HFSDirectory$$$nx[]uc
0003:00001300  W?$Wts0An$HFFont$$$nx[]uc
0003:00001320  W?$Wts0Dn$HFContext$$$nx[]uc
0003:00001340  W?$Wts0Cn$HFSystem$$$nx[]uc
0003:00001360  W?$Wts0Dn$HFCtxomap$$$nx[]uc
0003:00001380  W?$Wts0En$HFTtlbtree$$$nx[]uc
0003:000013a0  W?$Wts0Dn$HFKwbtree$$$nx[]uc
0003:000013c0+ W?$Wts0Dn$HFBitmaps$$$nx[]uc
0003:000013e0  W?$Wts0Dn$RTFparser$$$nx[]uc
0003:00001400+ W?$Wts0Dn$HPJReader$$$nx[]uc
0003:000036f0  W?$Wti0E$HCException$$$n[]uc
0003:00003703+ W?$Wti0C$HPJReader$$$n[]uc
0003:00003714  W?$Wti0C$RTFparser$$$n[]uc
0003:00003725+ W?$Wti0C$HFBitmaps$$$n[]uc
0003:00003736  W?$Wti0C$HFKwbtree$$$n[]uc
0003:00003747  W?$Wti0D$HFTtlbtree$$$n[]uc
0003:00003759  W?$Wti0C$HFCtxomap$$$n[]uc
0003:0000376a  W?$Wti0B$HFSystem$$$n[]uc
0003:0000377a  W?$Wti0C$HFContext$$$n[]uc
0003:0000378b  W?$Wti09$HFFont$$$n[]uc
0003:00003799+ W?$Wti0F$HFSDirectory$$$n[]uc
0002:00000900  W?$dt:InFile$n()_
0002:000009a0  W?$ct:HCException$n(rnx$0$)_
0002:00000010  main_
0003:00001420  W?$Wts0Fn$HCException$$$nx[]uc
0003:000037ad  W?$Wti09$InFile$$$n[]uc
Module: hpjread.obj(/mnt/sda5/.user/root/src/openwatcom-1.9/bld/helpcomp/cpp/hpjread.cpp)
0002:00002310+ W?$ct:HPJScanner$n(rnx$0$)_
0002:000009b0  W?$ct:HPJScanner$n(pn$InFile$$)_
0002:000009f0+ W?$dt:HPJScanner$n()_
0002:00000a10* W?open$:HPJScanner$n(pnxa)i
0002:00000a50+ W?getLine$:HPJScanner$n()i
0002:00000b50+ W?getArg$:HPJScanner$n(i)pna
0002:00000bc0+ W?tokLine$:HPJScanner$n()pna
0002:00000c40+ W?endTok$:HPJScanner$n()pna
0002:00000c60  W?$ct:HPJReader$n(pn$HFSDirectory$$pn$Pointers$$pn$InFile$$)_
0002:00000d20  W?$dt:HPJReader$n()_
0002:00000e00+ W?firstFile$:HPJReader$n()pn$InFile$$
0002:00000e10+ W?nextFile$:HPJReader$n()pn$InFile$$
0002:00000f20  W?parseFile$:HPJReader$n()v
0002:000012e0+ W?skipSection$:HPJReader$n()i
0002:00001300+ W?handleBaggage$:HPJReader$n()i
0002:00001360+ W?handleOptions$:HPJReader$n()i
0002:00001760+ W?handleConfig$:HPJReader$n()i
0002:00001800+ W?handleFiles$:HPJReader$n()i
0003:0000153c  W?HpjExt$n[]xa
0003:00001710  W?$Wts0Wn$ImageNotSupported$:HFBitmaps$$$nx[]uc
0003:000037cb+ W?$Wti0D$HPJScanner$$$n[]uc
0003:000037dd  W?$Wti0V$ImageNotSupported$:HFBitmaps$$$n[]uc
0002:00002320  W?$ct:ImageNotSupported$:HFBitmaps$n(rnx$0:1$)_
0002:000018a0+ W?handleBitmaps$:HPJReader$n()i
0002:000019b0+ W?handleWindows$:HPJReader$n()i
0002:00001e80+ W?nextWinParam$:HPJReader$n()pna
0002:00001ef0+ W?handleMap$:HPJReader$n()i
0002:00002000+ W?includeMapFile$:HPJReader$n(pna)v
0003:00001730+ W?$Wts0En$HPJScanner$$$nx[]uc
0003:000053c8+ W?_topFile$:HPJReader$npn$StrNode$:1$
0003:000053cc+ W?_curFile$:HPJReader$npn$StrNode$:1$
0003:000053d0+ W?_firstDir$:HPJReader$npn$StrNode$:1$
0003:000053d4+ W?_startDir$:HPJReader$npnxa
Module: hlpdir.obj(/mnt/sda5/.user/root/src/openwatcom-1.9/bld/helpcomp/cpp/hlpdir.cpp)
0002:000026a0  W?$dt:BtreeData$n()_
0002:000026b0+ W?size$:HFSkey$n()ul
0002:000026d0+ W?size$:HFSnode$n()ul
0002:000026f0+ W?myKey$:HFSkey$n()pn$BtreeData$$
0002:00002330+ W?dump$:HFSkey$n(pn$OutFile$$)i
0002:00002360+ W?lessThan$:HFSkey$n(pn$BtreeData$$)i
0002:00002380+ W?dump$:HFSnode$n(pn$OutFile$$)i
0002:000023e0  W?$ct:HFSDirectory$n(pnxa)_
0002:00002470  W?addFile$:HFSDirectory$n(pn$Dumpable$$pnxa)pn$2$
0002:00002790+ W?$dt:HFSnode$n()_
0003:00001860  W?$Wvf0Bok:OutFile$$nx[]pn()v
0003:00001870+ W?$Wvf0Aoc:HFSkey$$nx[]pn()v
0003:00001890+ W?$Wvf0Boc:HFSnode$$nx[]pn()v
0003:000018b0+ W?$Wts0Bn$HFSnode$$$nx[]uc
0003:000018d0+ W?$Wts0An$HFSkey$$$nx[]uc
0003:00003801  W?$Wti0A$OutFile$$$n[]uc
0003:00003810+ W?$Wti09$HFSkey$$$n[]uc
0002:00002820+ W?$dt:HFSkey$n()_
0002:000028b0  W?$dt:OutFile$n()_
0002:00002530  W?dump$:HFSDirectory$n()v
0003:000018f0  W?$Wts0Bn$OutFile$$$nx[]uc
0003:000017cc+ W?_dirMagic$:HFSDirectory$n[]xa
0003:0000381e+ W?$Wti0A$HFSnode$$$n[]uc
Module: btrees.obj(/mnt/sda5/.user/root/src/openwatcom-1.9/bld/helpcomp/cpp/btrees.cpp)
0002:00003400  W?$dt:Dumpable$n()_
0002:00003480+ W?$ct:Btree$n(rnx$0$)_
0003:000019a0+ W?$Wvf0Doc:BtreeData$$nx[]pn()v
0003:000019c0+ W?$Wvf09o0:Btree$$nx[]pn()v
0003:000019d0  W?$Wts0Cn$Dumpable$$$nx[]uc
0003:0000383a+ W?$Wti08$Btree$$$n[]uc
0002:00002950  W?$ct:BtreeData$n()_
0002:00002970+ W?insertSelf$:BtreeData$n(pn$BtreePage$$)v
0002:000029e0+ W?seekNext$:BtreeData$n(pn$BtreePage$$)pn$2$
0002:00002a10+ W?$ct:BtreePage$n(ulpn$0$pn$0$)_
0002:00002a50+ W?$dt:BtreePage$n()_
0002:00002a90+ W?dump$:BtreePage$n(pn$OutFile$$)i
0002:00002be0+ W?split$:BtreePage$n()i
0002:00002e10+ W?needSplit$:BtreePage$n(ul)i
0002:00002e50  W?$ct:Btree$n(pnxaul)_
0002:00002eb0  W?$dt:Btree$n()_
0002:00002f50  W?insert$:Btree$n(pn$BtreeData$$)v
0002:00003060+ W?killPage$:Btree$n(pn$BtreePage$$)v
0002:00003100  W?size$:Btree$n()ul
0002:00003130  W?dump$:Btree$n(pn$OutFile$$)i
0002:000031e0+ W?labelPages$:Btree$n(pn$BtreePage$$)v
0002:00003230+ W?dumpPage$:Btree$n(pn$OutFile$$pn$BtreePage$$)v
0002:00003280  W?findNode$:Btree$n(rn$BtreeData$$)pn$2$
0002:000032e0  W?$ct:BtreeIter$n(rn$Btree$$)_
0002:000032f0  W?init$:BtreeIter$n()v
0002:00003320+ W?goPrev$:BtreeIter$n()v
0002:00003320* W?$oh:BtreeIter$n(i)v
0002:00003350+ W?goNext$:BtreeIter$n()v
0002:00003350  W?$og:BtreeIter$n(i)v
0002:00003380* W?$oh:BtreeIter$n()rn$0$
0002:00003390  W?$og:BtreeIter$n()rn$0$
0002:000033a0  W?pageEntries$:BtreeIter$n()us
0002:000033c0  W?thisPage$:BtreeIter$n()us
0002:000033e0  W?nextPage$:BtreeIter$n()v
0003:000019f0+ W?$Wts09n$Btree$$$nx[]uc
0003:00003848  W?$Wti0B$Dumpable$$$n[]uc
Module: myfile.obj(/mnt/sda5/.user/root/src/openwatcom-1.9/bld/helpcomp/cpp/myfile.cpp)
0002:000038f0+ W?$ct:File$n(rnx$0$)_
0002:00003490  W?$ct:File$n(pnxauc)_
0002:00003550  W?$ct:File$n()_
0002:00003580+ W?open$:File$n(pnxauc)i
0002:00003680  W?$dt:File$n()_
0002:00003740  W?open$:File$n()i
0002:000037b0  W?close$:File$n()v
0002:000037d0  W?$ct:InFile$n(pnxai)_
0002:00003850  W?open$:InFile$n(pnxai)i
0003:00001a80+ W?$Wvf08ok:File$$nx[]pn()v
0003:00001a90+ W?$Wts08n$File$$$nx[]uc
0002:00003880  W?Hash$n(pnxa)ul
0003:00001a44* W?_isOpen$:File$nxuc
0003:00003880+ W?$Wti07$File$$$n[]uc
Module: baggage.obj(/mnt/sda5/.user/root/src/openwatcom-1.9/bld/helpcomp/cpp/baggage.cpp)
0002:00003ae0+ W?size$:Baggage$n()ul
0002:00003af0+ W?$Wvt0P.@dt:Baggage$o4$:0$dtn()_$:File$n()pnv
0003:00001b90+ W?$Wvf0Bo0:Baggage$$nx[]pn()v
0003:00001ba0+ W?$Wvf0Boo:Baggage$$nx[]pn()v
0003:0000388c+ W?$Wti0A$Baggage$$$n[]uc
0002:00003bb0+ W?$dt:Baggage$n()_
0002:00003900  W?$ct:Baggage$n(pn$HFSDirectory$$pnxa)_
0002:00003a50+ W?dump$:Baggage$n(pn$OutFile$$)i
0003:00001bb0+ W?$Wts0Bn$Baggage$$$nx[]uc
Module: system.obj(/mnt/sda5/.user/root/src/openwatcom-1.9/bld/helpcomp/cpp/system.cpp)
0002:000043c0+ W?size$:SystemRec$n()ul
0002:000043d0+ W?$ct:SystemText$n(rnx$0$)_
0002:00003c50  W?$ct:SystemText$n(uspna)_
0002:00003cb0+ W?$dt:SystemText$n()_
0002:00003d60+ W?dump$:SystemText$n(pn$OutFile$$)i
0002:00003db0+ W?$ct:SystemNum$n(usul)_
0002:00003dd0+ W?dump$:SystemNum$n(pn$OutFile$$)i
0002:00003e30  W?$ct:SystemWin$n(uspnxapnxapnxausususususulul)_
0002:00003ec0+ W?dump$:SystemWin$n(pn$OutFile$$)i
0002:00003fb0  W?$ct:HFSystem$n(pn$HFSDirectory$$pn$HFContext$$)_
0002:000040a0  W?$dt:HFSystem$n()_
0002:00004170  W?setCompress$:HFSystem$n(i)v
0002:00004190  W?isCompressed$:HFSystem$n()i
0003:00001d20+ W?$Wvf0Eo0:SystemText$$nx[]pn()v
0003:00001d30+ W?$Wvf0Do0:SystemNum$$nx[]pn()v
0003:00001d40+ W?$Wvf0Do0:SystemWin$$nx[]pn()v
0003:00001d50+ W?$Wts0En$SystemText$$$nx[]uc
0003:00001d70+ W?$Wts0Dn$SystemWin$$$nx[]uc
0003:0000389b+ W?$Wti0C$SystemNum$$$n[]uc
0003:000038ac+ W?$Wti0C$SystemWin$$$n[]uc
0003:000038bd+ W?$Wti0D$SystemText$$$n[]uc
0002:000043f0+ W?$dt:SystemWin$n()_
0002:00004480+ W?$dt:SystemNum$n()_
0002:000041a0  W?setContents$:HFSystem$n(ul)v
0002:000041b0  W?addRecord$:HFSystem$n(pn$SystemRec$$)v
0002:00004240  W?winNumberOf$:HFSystem$n(pna)i
0002:000042a0  W?dump$:HFSystem$n(pn$OutFile$$)i
0003:00001d90+ W?$Wts0Dn$SystemNum$$$nx[]uc
0003:00001c7c  W?NoSuchWin$:HFSystem$nxi
Module: font.obj(/mnt/sda5/.user/root/src/openwatcom-1.9/bld/helpcomp/cpp/font.cpp)
0002:00004510+ W?$ct:FontName$n(pnxasusuc)_
0002:00004550+ W?$dt:FontName$n()_
0002:00004570+ W?dump$:FontName$n(pn$OutFile$$)i
0002:00004590+ W?$ct:FontDesc$n(ucucucusul)_
0002:000045c0+ W?$ct:FontDesc$n(rn$0$)_
0002:00004600+ W?dump$:FontDesc$n(pn$OutFile$$)i
0002:000046a0  W?$ct:HFFont$n(pn$HFSDirectory$$)_
0002:00004840  W?$dt:HFFont$n()_
0002:00004960  W?addFont$:HFFont$n(pnxaucs)v
0002:00004a40  W?clearFonts$:HFFont$n()v
0002:00004a60  W?setFont$:HFFont$n(us)v
0002:00004ac0  W?selectFont$:HFFont$n(sipnxa)us
0002:00004bb0  W?getAttribs$:HFFont$n(us)uc
0002:00004be0+ W?findDesc$:HFFont$n(pn$FontDesc$$)us
0002:00004c50  W?setAttribs$:HFFont$n(uc)us
0002:00004cc0  W?clearAttribs$:HFFont$n(uc)us
0002:00004d30  W?newSize$:HFFont$n(uc)us
0002:00004da0  W?newSupPos$:HFFont$n(uc)us
0002:00004e10  W?newSubPos$:HFFont$n(uc)us
0002:00004e80  W?push$:HFFont$n()v
0002:00004ec0  W?pop$:HFFont$n()us
0002:00004f50  W?size$:HFFont$n()ul
0002:00004f70  W?dump$:HFFont$n(pn$OutFile$$)i
Module: context.obj(/mnt/sda5/.user/root/src/openwatcom-1.9/bld/helpcomp/cpp/context.cpp)
0002:00005600+ W?size$:ContextKey$n()ul
0002:00005610+ W?size$:ContextRec$n()ul
0002:00005030+ W?myKey$:ContextKey$n()pn$BtreeData$$
0002:00005060+ W?lessThan$:ContextKey$n(pn$BtreeData$$)i
0002:00005070+ W?dump$:ContextKey$n(pn$OutFile$$)i
0002:00005090+ W?dump$:ContextRec$n(pn$OutFile$$)i
0002:000050d0  W?$ct:HFContext$n(pn$HFSDirectory$$)_
0003:00002080+ W?$Wvf0Eoc:ContextKey$$nx[]pn()v
0003:000020a0+ W?$Wvf0Eoc:ContextRec$$nx[]pn()v
0003:000020c0+ W?$Wts0En$ContextKey$$$nx[]uc
0003:000038cf+ W?$Wti0D$ContextRec$$$n[]uc
0003:000038e1+ W?$Wti0D$ContextKey$$$n[]uc
0002:00005630+ W?$dt:ContextRec$n()_
0002:000056c0+ W?$dt:ContextKey$n()_
0002:00005130  W?$dt:HFContext$n()_
0002:00005230  W?addOffset$:HFContext$n(ulul)v
0002:00005350  W?getOffset$:HFContext$n(ul)ul
0002:000053e0  W?recordContext$:HFContext$n(pnxa)v
0002:000055d0  W?dump$:HFContext$n(pn$OutFile$$)i
0003:000020e0+ W?$Wts0En$ContextRec$$$nx[]uc
0003:00001f74+ W?_conMagic$:HFContext$n[]xa
0003:00001f8c  W?_badValue$:HFContext$nxul
Module: ctxomap.obj(/mnt/sda5/.user/root/src/openwatcom-1.9/bld/helpcomp/cpp/ctxomap.cpp)
0002:000059d0+ W?size$:CmapRec$:HFCtxomap$n()ul
0002:00005750+ W?$ct:CmapRec$:HFCtxomap$n(ulul)_
0002:00005770+ W?dump$:CmapRec$:HFCtxomap$n(pn$OutFile$$)i
0002:000057b0  W?$ct:HFCtxomap$n(pn$HFSDirectory$$pn$HFContext$$)_
0002:000057f0  W?$dt:HFCtxomap$n()_
0002:000058c0  W?addMapRec$:HFCtxomap$n(ulul)v
0003:00002190+ W?$Wvf0Mo0:CmapRec$:HFCtxomap$$nx[]pn()v
0003:00003910+ W?$Wti0L$CmapRec$:HFCtxomap$$$n[]uc
0002:000059f0+ W?$dt:CmapRec$:HFCtxomap$n()_
0002:00005910  W?size$:HFCtxomap$n()ul
0002:00005990  W?dump$:HFCtxomap$n(pn$OutFile$$)i
0003:000021a0+ W?$Wts0Mn$CmapRec$:HFCtxomap$$$nx[]uc
Module: ttlbtree.obj(/mnt/sda5/.user/root/src/openwatcom-1.9/bld/helpcomp/cpp/ttlbtree.cpp)
0002:00005df0+ W?$ct:TTLRec$n(rnx$0$)_
0002:00005a80+ W?myKey$:TTLKey$n()pn$BtreeData$$
0002:00005ab0+ W?lessThan$:TTLKey$n(pn$BtreeData$$)i
0002:00005ac0+ W?size$:TTLKey$n()ul
0002:00005ad0+ W?dump$:TTLKey$n(pn$OutFile$$)i
0002:00005af0+ W?$ct:TTLRec$n(ulpnxa)_
0002:00005b90+ W?$dt:TTLRec$n()_
0003:000022c0+ W?$Wvf0Aoc:TTLKey$$nx[]pn()v
0003:000022e0+ W?$Wvf0Aoc:TTLRec$$nx[]pn()v
0003:00002300+ W?$Wts0An$TTLRec$$$nx[]uc
0003:0000392a+ W?$Wti09$TTLKey$$$n[]uc
0003:00003938+ W?$Wti09$TTLRec$$$n[]uc
0002:00005e20+ W?$dt:TTLKey$n()_
0002:00005c40+ W?size$:TTLRec$n()ul
0002:00005c60+ W?dump$:TTLRec$n(pn$OutFile$$)i
0002:00005cb0  W?$ct:HFTtlbtree$n(pn$HFSDirectory$$)_
0002:00005d00  W?$dt:HFTtlbtree$n()_
0002:00005db0  W?addTitle$:HFTtlbtree$n(ulpnxa)v
0003:00002320+ W?$Wts0An$TTLKey$$$nx[]uc
0003:0000222c+ W?_titleMagic$:HFTtlbtree$n[]xa
Module: keywords.obj(/mnt/sda5/.user/root/src/openwatcom-1.9/bld/helpcomp/cpp/keywords.cpp)
0002:00006820+ W?$ct:KWKey$n(rnx$0$)_
0002:00006830+ W?$ct:KWRec$n(rnx$0$)_
0002:00005eb0+ W?$ct:KWKey$n(pnxa)_
0002:00005f50+ W?$dt:KWKey$n()_
0002:00005ff0+ W?myKey$:KWKey$n()pn$BtreeData$$
0002:00006010+ W?lessThan$:KWKey$n(pn$BtreeData$$)i
0002:00006090+ W?size$:KWKey$n()ul
0002:000060b0+ W?dump$:KWKey$n(pn$OutFile$$)i
0002:000060e0+ W?$ct:KWRec$n(pnxaul)_
0002:00006150+ W?$dt:KWRec$n()_
0002:00006220+ W?size$:KWRec$n()ul
0002:00006240+ W?dump$:KWRec$n(pn$OutFile$$)i
0002:000062a0+ W?addOffset$:KWRec$n(ul)v
0002:00006320  W?$ct:HFKwbtree$n(pn$HFSDirectory$$)_
0002:00006420  W?$dt:HFKwbtree$n()_
0002:000064f0  W?size$:HFKwbtree$n()ul
0002:00006540  W?dump$:HFKwbtree$n(pn$OutFile$$)i
0002:00006550  W?addKW$:HFKwbtree$n(pnxaul)v
0002:00006610+ W?$ct:HFKwdata$n(pn$HFSDirectory$$pn$HFKwbtree$$)_
0002:00006650+ W?size$:HFKwdata$n()ul
0002:00006690+ W?dump$:HFKwdata$n(pn$OutFile$$)i
0003:00002500+ W?$Wvf09oc:KWKey$$nx[]pn()v
0003:00002520+ W?$Wvf09oc:KWRec$$nx[]pn()v
0003:00002540+ W?$Wvf0Co0:HFKwdata$$nx[]pn()v
0003:00002550+ W?$Wvf0Bo0:HFKwmap$$nx[]pn()v
0003:00002560+ W?$Wts09n$KWKey$$$nx[]uc
0003:00002580+ W?$Wts09n$KWRec$$$nx[]uc
0003:000025a0+ W?$Wts0Bn$HFKwmap$$$nx[]uc
0003:00003946+ W?$Wti0B$HFKwdata$$$n[]uc
0003:00003956+ W?$Wti0A$HFKwmap$$$n[]uc
0003:00003965+ W?$Wti08$KWRec$$$n[]uc
0003:00003972+ W?$Wti08$KWKey$$$n[]uc
0002:00006850+ W?$dt:HFKwmap$n()_
0002:000068e0+ W?$dt:HFKwdata$n()_
0002:000066f0+ W?$ct:HFKwmap$n(pn$HFSDirectory$$pn$HFKwbtree$$)_
0002:00006730+ W?size$:HFKwmap$n()ul
0002:00006770+ W?dump$:HFKwmap$n(pn$OutFile$$)i
0003:000025c0+ W?$Wts0Cn$HFKwdata$$$nx[]uc
0003:00002428+ W?_keyMagic$:HFKwbtree$n[]xa
Module: scanning.obj(/mnt/sda5/.user/root/src/openwatcom-1.9/bld/helpcomp/cpp/scanning.cpp)
0002:00006970+ W?$ct:Token$n()_
0002:00006990  W?$ct:Scanner$n(pn$InFile$$)_
0002:00006ad0  W?$dt:Scanner$n()_
0002:00006bd0+ W?putback$:Scanner$n(i)v
0002:00006bf0+ W?handleSlash$:Scanner$n(pn$Token$$)$TokenTypes$$
0002:00006e10+ W?isSpecial$:Scanner$n(i)i
0002:00006e40  W?isFootnoteChar$:Scanner$n(i)i
0002:00006e70+ W?pullCommand$:Scanner$n(pn$Token$$)v
0002:00007130+ W?pullText$:Scanner$n(pn$Token$$)v
0002:000073c0+ W?pullHex$:Scanner$n(pn$Token$$)v
0002:000074e0+ W?getToken$:Scanner$n(pn$Token$$)v
0002:00007770  W?$dt:Buffer$::1nucn()_
0002:00007730  W?next$:Scanner$n()pn$Token$$
Module: hcerrors.obj(/mnt/sda5/.user/root/src/openwatcom-1.9/bld/helpcomp/cpp/hcerrors.cpp)
0002:00007780+ W?ErrorPrint$n(pn$__iobuf$$pnxapnpna)v
0002:00007810  W?HCError$n(ie)v
0002:00007860  W?HCWarning$n(ie)v
0002:000078b0  W?SetQuiet$n(i)v
0002:000078d0  W?HCStartFile$n(pnxa)v
0002:000078f0  W?HCTick$n()v
0002:00007930  W?HCDoneTick$n()v
0002:00007950  W?HCStartOutput$n()v
0002:00007a30  W?$ct:HCException$n()_
0003:000026c0+ W?$Wth0Hnrn$HCException$$$nx[]uc
0002:00007a40  W?$dt:HCException$n()_
0002:00007970  W?HCStartPhrase$n()v
0002:00007990  W?HCPhraseLoop$n(i)v
0002:000079b0* HCMemerr_
Module: mem.obj(/mnt/sda5/.user/root/src/openwatcom-1.9/bld/helpcomp/cpp/mem.cpp)
0002:00007a50  W?$nwn(ui)pnv
0002:00007a60  W?renew$n(pnvui)pnv
0002:00007a70  W?$dln(pnv)v
0002:00007a80  W?$ct:Pool$n(uiui)_
0002:00007af0  W?$dt:Pool$n()_
0002:00007b20  W?get$:Pool$n()pnv
0002:00007b90  W?release$:Pool$n(pnv)v
0003:000026d4  W?BLOCK_SIZE$:Pool$nxui
Module: trmem.obj(/mnt/sda5/.user/root/src/openwatcom-1.9/bld/trmem/trmem.c)
0002:00008090* _trmem_open_
0002:000080f0* _trmem_validate_all_
0002:00008130* _trmem_close_
0002:000081b0* _trmem_set_min_alloc_
0002:000081c0+ _trmem_alloc_
0002:000082c0* _trmem_validate_
0002:00008300+ _trmem_free_
0002:00008610* _trmem_realloc_
0002:00008630* _trmem_expand_
0002:00008650* _trmem_strdup_
0002:00008690* _trmem_chk_range_
0002:00008720+ _trmem_prt_usage_
0002:00008740* _trmem_prt_list_
0002:000087b0* _trmem_msize_
0002:000087d0* _trmem_get_current_usage_
0002:000087e0* _trmem_get_peak_usage_
Module: topic.obj(/mnt/sda5/.user/root/src/openwatcom-1.9/bld/helpcomp/cpp/topic.cpp)
0002:0000ab90+ W?$ct:HFTopic$n(rnx$0$)_
0002:000087f0+ W?$ct:TopicLink$n(ul)_
0002:00008840+ W?$ct:GenericNode$n(ul)_
0002:00008860+ W?dumpTo$:GenericNode$n(pn$TopicLink$$)v
0002:00008890+ W?$ct:TopicHeader$n(ul)_
0002:000088d0+ W?dumpTo$:TopicHeader$n(pn$TopicLink$$)v
0002:00008900+ W?$ct:PageHeader$n()_
0002:00008910+ W?$ct:TextHeader$n()_
0002:000089d0+ W?$dt:TextHeader$n()_
0002:00008a60+ W?reset$:TextHeader$n()v
0002:00008c50+ W?addAttr$:TextHeader$n($FontFlags$$ulpnxai)i
0002:00008d70+ W?appendAttr$:TextHeader$n(i$FontFlags$$ulpnxai)i
0002:00008eb0+ W?chgAttr$:TextHeader$n(i$FontFlags$$ulpnxai)v
0002:00008fb0+ W?attrData$:TextHeader$n(i)ul
0002:00008fe0+ W?dumpTo$:TextHeader$n(pn$TopicLink$$)v
0002:000092e0+ W?$ct:TextHolder$n()_
0002:00009370+ W?dumpTo$:TextHolder$n(pn$TopicLink$$)v
0002:000093b0  W?$ct:HFTopic$n(pn$HFSDirectory$$pn$HFPhrases$$)_
0002:000095e0+ W?$dt:HFTopic$n()_
0002:00009830+ W?size$:HFTopic$n()ul
0002:00009860+ W?dump$:HFTopic$n(pn$OutFile$$)i
0002:00009a80  W?startNonScroll$:HFTopic$n()v
0002:00009a90  W?startScroll$:HFTopic$n()v
0002:00009ac0  W?addBrowse$:HFTopic$n(pnxa)v
0002:00009b10+ W?recordBrowse$:HFTopic$n(pn$TopicLink$$)v
0002:00009bb0+ W?dumpBrowse$:HFTopic$n()v
0002:00009cb0  W?newNode$:HFTopic$n(i)v
0002:0000a350  W?addText$:HFTopic$n(pnxai)v
0002:0000a430+ W?addZero$:HFTopic$n(i)v
0002:0000a530  W?presentSize$:HFTopic$n()ul
0002:0000a560  W?addAttr$:HFTopic$n($FontFlags$$ul)i
0002:0000a5d0* W?addAttr$:HFTopic$n($FontFlags$$pnxaus)i
0002:0000a640* W?addAttr$:HFTopic$n($FontFlags$$pnxausul)i
0002:0000a6c0  W?appendAttr$:HFTopic$n(i$FontFlags$$ul)i
0002:0000a720  W?appendAttr$:HFTopic$n(i$FontFlags$$pnxaus)i
0002:0000a790  W?appendAttr$:HFTopic$n(i$FontFlags$$pnxausul)i
0002:0000a800  W?chgAttr$:HFTopic$n(i$FontFlags$$ul)v
0002:0000a860  W?chgAttr$:HFTopic$n(i$FontFlags$$pnxaus)v
0002:0000a8c0  W?chgAttr$:HFTopic$n(i$FontFlags$$pnxausul)v
0002:0000a910  W?attrData$:HFTopic$n(i)ul
0002:0000a940  W?setTab$:HFTopic$n(i$TabTypes$$)i
0002:0000a950* W?setTab$:TextHeader$n(iuc)i
0002:0000aa00  W?setPar$:HFTopic$n($ParFlags$$i)i
0002:0000abb0  W?$dt:CompOutFile$n()_
0002:0000ac50+ W?resize$:Buffer$::1nucn(i)pnv
0002:0000ac90  W?$dt:Buffer$::1nsn()_
0002:0000aca0  W?$dt:Buffer$::1nan()_
0002:0000acb0  W?resize$:Buffer$::1nan(i)pnv
0002:0000acf0+ W?$dt:Buffer$::1nusn()_
0002:0000ad00+ W?resize$:Buffer$::1nusn(i)pnv
0003:00002a50  W?$Wvf0Fog:CompOutFile$$nx[]pn()v
0003:00002a60+ W?$Wvf0Bo0:HFTopic$$nx[]pn()v
0003:00002a70  W?$Wcm015$nx[]uc
0003:00002a80+ W?$Wts0Bn$HFTopic$$$nx[]uc
0003:00003a74  W?$Wti0E$CompOutFile$$$n[]uc
0003:00003a87+ W?$Wti0A$HFTopic$$$n[]uc
0002:0000ad40+ W?$dt:Buffer$::1n$TextAttr$$n()_
0002:0000ad50+ W?resize$:Buffer$::1n$TextAttr$$n(i)pnv
0002:0000aa10* W?setPar$:TextHeader$n($ParFlags$$i)i
0002:0000ab00  W?unsetPar$:HFTopic$n($ParFlags$$)v
0002:0000ab10* W?unsetPar$:TextHeader$n($ParFlags$$)v
0002:0000ab60  W?clearPar$:HFTopic$n()v
0002:0000ab70* W?clearPar$:TextHeader$n()v
0003:00002aa0  W?$Wts0Fn$CompOutFile$$$nx[]uc
0003:00002858+ W?_parBits$:TextHeader$n[]xul
0003:00002888+ W?_attrBits$:TextHeader$n[]xuc
0003:0000289c+ W?_attrSizes$:TextHeader$n[]xi
Module: phrase.obj(/mnt/sda5/.user/root/src/openwatcom-1.9/bld/helpcomp/cpp/phrase.cpp)
0002:0000caf0+ W?$ct:HFPhrases$n(rnx$0$)_
0002:0000cb00  W?$ct:CompWriter$n(rnx$0$)_
0002:0000cb10+ W?$dl:Phrase$n(pnvui)v
0002:0000ad90+ W?$ct:Phrase$n()_
0002:0000adb0+ W?$ct:Phrase$n(rnx$0$)_
0002:0000ae00* W?$aa:Phrase$n(rnx$0$)rn$0$
0002:0000ae60+ W?$dt:Phrase$n()_
0002:0000ae70+ W?$re:Phrase$n(rnx$0$)i
0002:0000ae80+ W?$ct:P_String$n(rnx$Phrase$$)_
0002:0000aec0+ W?$dt:P_String$n()_
0002:0000aed0+ W?$ct:PTable$n()_
0002:0000af50+ W?$dt:PTable$n()_
0002:0000b030+ W?match$:PTable$n(rnpna)pn$Phrase$$
0002:0000b1c0+ W?find$:PTable$n(pn$Phrase$$)pn$2$
0002:0000b270+ W?follows$:PTable$n(pn$Phrase$$pn$2$)rni
0002:0000b2c0+ W?insert$:PTable$n(pn$Phrase$$)v
0002:0000b3d0+ W?start$:PTable$n()v
0002:0000b3e0+ W?next$:PTable$n()pn$Phrase$$
0002:0000b410+ W?clear$:PTable$n()v
0002:0000b4f0+ W?heapify$:PTable$n(i)v
0002:0000b590+ W?prune$:PTable$n()v
0002:0000b7f0  W?$ct:HFPhrases$n(pn$HFSDirectory$$pn()pn$InFile$$pn()pn$2$)_
0002:0000b850+ W?$dt:HFPhrases$n()_
0002:0000b9c0+ W?size$:HFPhrases$n()ul
0002:0000baa0+ W?dump$:HFPhrases$n(pn$OutFile$$)i
0002:0000bc10+ W?startInput$:HFPhrases$n()v
0002:0000bcc0+ W?nextInput$:HFPhrases$n()pna
0002:0000bf50  W?readPhrases$:HFPhrases$n()v
0002:0000cb70  W?$dt:CompReader$n()_
0003:00002f20+ W?$Wvf0Do0:HFPhrases$$nx[]pn()v
0003:00002f30  W?$Wvf0Eog:CompWriter$$nx[]pn()v
0003:00002f40+ W?$Wts0Dn$HFPhrases$$$nx[]uc
0003:00002f60  W?$Wts0En$CompWriter$$$nx[]uc
0003:00002f80  W?$Wts0En$CompReader$$$nx[]uc
0003:00002fa0+ W?$Wts0An$Phrase$$$nx[]uc
0003:00003a96+ W?$Wti09$Phrase$$$n[]uc
0003:00003aa4  W?$Wti0D$CompReader$$$n[]uc
0003:00003ab6  W?$Wti0D$CompWriter$$$n[]uc
0003:00003ac8+ W?$Wti0C$HFPhrases$$$n[]uc
0002:0000c530+ W?initHashTable$:HFPhrases$n()v
0002:0000c5e0  W?createQueue$:HFPhrases$n(pnxa)v
0002:0000c780  W?oldTable$:HFPhrases$n(pnxa)i
0002:0000c920  W?replace$:HFPhrases$n(pnapnxarni)v
0003:00002d20  W?PhExt$n[]xa
0003:000053dc+ W?_pool$:Phrase$npn$Pool$$
Module: bmx.obj(/mnt/sda5/.user/root/src/openwatcom-1.9/bld/helpcomp/cpp/bmx.cpp)
0002:0000dc80+ W?size$:Dumpable$n()ul
0002:0000dc90+ W?dump$:Dumpable$n(pn$OutFile$$)i
0002:0000dca0+ W?$ct:Bmx$n(rnx$0$)_
0002:0000dcb0+ W?$dt:Bmx$n()_
0002:0000dd60+ W?size$:SegGraph$n()ul
0002:0000cbf0+ W?$ct:Bitmap$n(pn$InFile$$)_
0002:0000cce0+ W?size$:Bitmap$n()ul
0002:0000d060+ W?dump$:Bitmap$n(pn$OutFile$$)i
0002:0000d440+ W?$ct:SegGraph$n(pn$InFile$$)_
0002:0000d510+ W?dump$:SegGraph$n(pn$OutFile$$)i
0002:0000d570  W?$ct:HFBitmaps$n(pn$HFSDirectory$$)_
0002:0000dd70  W?$ct:ImageNotValid$:HFBitmaps$n()_
0002:0000dd80  W?$ct:ImageNotValid$:HFBitmaps$n(rnx$0:1$)_
0002:0000dd90  W?$dt:ImageNotValid$:HFBitmaps$n()_
0002:0000dda0  W?$ct:ImageNotFound$:HFBitmaps$n()_
0002:0000ddb0  W?$ct:ImageNotFound$:HFBitmaps$n(rnx$0:1$)_
0002:0000ddc0  W?$dt:ImageNotFound$:HFBitmaps$n()_
0002:0000ddd0  W?$ct:ImageNotSupported$:HFBitmaps$n()_
0002:0000dde0  W?$dt:ImageNotSupported$:HFBitmaps$n()_
0002:0000ddf0+ W?$dt:SegGraph$n()_
0002:0000dec0+ W?$dt:Bitmap$n()_
0003:00003200+ W?$Wvf07o0:Bmx$$nx[]pn()v
0003:00003210+ W?$Wvf0Ao0:Bitmap$$nx[]pn()v
0003:00003220+ W?$Wvf0Co0:SegGraph$$nx[]pn()v
0003:00003230+ W?$Wth0Ynrn$ImageNotSupported$:HFBitmaps$$$nx[]uc
0003:00003250+ W?$Wth0Unrn$ImageNotValid$:HFBitmaps$$$nx[]uc
0003:00003270+ W?$Wth0Unrn$ImageNotFound$:HFBitmaps$$$nx[]uc
0003:00003290+ W?$Wts07n$Bmx$$$nx[]uc
0003:000032b0  W?$Wts0Sn$ImageNotValid$:HFBitmaps$$$nx[]uc
0003:000032d0  W?$Wts0Sn$ImageNotFound$:HFBitmaps$$$nx[]uc
0003:000032f0+ W?$Wts0Cn$SegGraph$$$nx[]uc
0003:00003af0+ W?$Wti09$Bitmap$$$n[]uc
0003:00003b00+ W?$Wti0B$SegGraph$$$n[]uc
0003:00003b10  W?$Wti0R$ImageNotFound$:HFBitmaps$$$n[]uc
0003:00003b30  W?$Wti0R$ImageNotValid$:HFBitmaps$$$n[]uc
0003:00003b50+ W?$Wti06$Bmx$$$n[]uc
0002:0000d5b0  W?$dt:HFBitmaps$n()_
0002:0000d640  W?addToPath$:HFBitmaps$n(pnxa)v
0002:0000d720  W?note$:HFBitmaps$n(pnxa)v
0002:0000d950  W?use$:HFBitmaps$n(pnxa)us
0003:00003310+ W?$Wts0An$Bitmap$$$nx[]uc
Module: compress.obj(/mnt/sda5/.user/root/src/openwatcom-1.9/bld/helpcomp/cpp/compress.cpp)
0002:0000df90+ W?LocalHash$n(pnuc)i
0002:0000dfc0  W?$ct:CompWriter$n()_
0002:0000dff0  W?$dt:CompWriter$n()_
0002:0000e080  W?dump$:CompWriter$n()v
0002:0000e0a0+ W?putChr$:CompWriter$n(uc)i
0002:0000e0e0+ W?putCode$:CompWriter$n(ii)i
0002:0000e180  W?dump$:CompOutFile$n()v
0002:0000e1e0  W?$ct:CompReader$n(pn$CompWriter$$)_
0002:0000e2a0  W?flush$:CompReader$n(i)v
0002:0000e2f0  W?reset$:CompReader$n(pn$CompWriter$$i)v
0002:0000e310+ W?shuffle$:CompReader$n()v
0002:0000e3e0  W?compress$:CompReader$n(pnxai)i
0002:0000e5f0  W?add$:CompReader$n(pnxai)i
0002:0000e680  W?skip$:CompReader$n(i)i
Module: parsing.obj(/mnt/sda5/.user/root/src/openwatcom-1.9/bld/helpcomp/cpp/parsing.cpp)
0002:0000e760  W?$ct:RTFparser$n(pn$Pointers$$pn$InFile$$)_
0002:0000e860  W?$dt:RTFparser$n()_
0002:0000e900+ W?skipSection$:RTFparser$n()v
0002:0000e960+ W?closeBraces$:RTFparser$n()us
0002:0000e9e0+ W?isParCommand$:RTFparser$n()i
0002:0000ea80+ W?isFontCommand$:RTFparser$n(pn$Token$$pnus)i
0002:0000ed90+ W?handleCommand$:RTFparser$n()v
0002:0000f390  W?Go$:RTFparser$n()v
0002:0000faf0* W?skipSpaces$:RTFparser$n(pna)pna
0002:0000fb10+ W?handleFootnote$:RTFparser$n(a)v
0002:0000fee0+ W?handleHidden$:RTFparser$n(i)v
0002:00010560+ W?handleFonts$:RTFparser$n()v
0003:00003400  W?RtfExt$n[]xa
Module: /mnt/sda5/.user/root/src/openwatcom-1.9/rel2/lib386/os2/plbx3r.lib(FSHAND)
0002:0001082f  __wcpp_4_fs_handler_
Module: /mnt/sda5/.user/root/src/openwatcom-1.9/rel2/lib386/os2/clib3r.lib(gtcmd.c)
0002:00010880+ _bgetcmd_
0002:000108f0  getcmd_
Module: /mnt/sda5/.user/root/src/openwatcom-1.9/rel2/lib386/os2/clib3r.lib(isspace.c)
0002:00010910  isspace_
Module: /mnt/sda5/.user/root/src/openwatcom-1.9/rel2/lib386/os2/clib3r.lib(fullpath.c)
0002:00010920+ _sys_fullpath_
0002:00010a60  _fullpath_
Module: /mnt/sda5/.user/root/src/openwatcom-1.9/rel2/lib386/os2/clib3r.lib(splitpat.c)
0002:00010b20  _splitpath_
Module: /mnt/sda5/.user/root/src/openwatcom-1.9/rel2/lib386/os2/clib3r.lib(stricmp.c)
0002:00010bf0  stricmp_
Module: /mnt/sda5/.user/root/src/openwatcom-1.9/rel2/lib386/os2/clib3r.lib(makepath.c)
0002:00010c50  _makepath_
Module: /mnt/sda5/.user/root/src/openwatcom-1.9/rel2/lib386/os2/clib3r.lib(setjmp)
0002:00010dfc  _setjmp_
0002:00010e35  longjmp_
Module: /mnt/sda5/.user/root/src/openwatcom-1.9/rel2/lib386/os2/plbx3r.lib(stabdtor.cpp)
0002:00011160  __wcpp_4_destruct_internal__
0002:00011180  __wcpp_4_destruct_all__
0002:00011184  __wcpp_4_destruct__
Module: /mnt/sda5/.user/root/src/openwatcom-1.9/rel2/lib386/os2/plbx3r.lib(dtorarst.cpp)
0002:000111b0  __wcpp_4_dtor_array_store__
Module: /mnt/sda5/.user/root/src/openwatcom-1.9/rel2/lib386/os2/plbx3r.lib(opdelarr.cpp)
0002:000111e0  W?$dan(pnv)v
Module: /mnt/sda5/.user/root/src/openwatcom-1.9/rel2/lib386/os2/plbx3r.lib(undefed.cpp)
0002:000111f0  __wcpp_4_undefed_cdtor__
Module: /mnt/sda5/.user/root/src/openwatcom-1.9/rel2/lib386/os2/clib3r.lib(cstart)
0002:00011202  _cstart_
Module: /mnt/sda5/.user/root/src/openwatcom-1.9/rel2/lib386/os2/clib3r.lib(argcv.c)
0003:000053e0  __argc
0003:000053e4  __argv
0003:000053e8  ___argc
0003:000053ec  ___argv
Module: /mnt/sda5/.user/root/src/openwatcom-1.9/rel2/lib386/os2/plbx3r.lib(fsroot.cpp)
0003:0000533a  ___wcpp_4_data_init_fs_root_
Module: /mnt/sda5/.user/root/src/openwatcom-1.9/rel2/lib386/os2/plbx3r.lib(cppdata.cpp)
0003:000053f0  __wint_thread_data
0003:00005414  __compiled_under_OS2
Module: /mnt/sda5/.user/root/src/openwatcom-1.9/rel2/lib386/os2/plbx3r.lib(opnewarr.cpp)
0002:00011270  W?$nan(ui)pnv
Module: /mnt/sda5/.user/root/src/openwatcom-1.9/rel2/lib386/os2/clib3r.lib(fgetc.c)
0002:00011280  __fill_buffer_
0002:00011380  fgetc_
Module: /mnt/sda5/.user/root/src/openwatcom-1.9/rel2/lib386/os2/clib3r.lib(gtcwdos2.c)
0002:00011440  getcwd_
Module: /mnt/sda5/.user/root/src/openwatcom-1.9/rel2/lib386/os2/clib3r.lib(chdiros2.c)
0002:00011500  chdir_
Module: /mnt/sda5/.user/root/src/openwatcom-1.9/rel2/lib386/os2/plbx3r.lib(stablcl.cpp)
0002:00011520  __wcpp_4_lcl_register__
Module: /mnt/sda5/.user/root/src/openwatcom-1.9/rel2/lib386/os2/clib3r.lib(toupper.c)
0002:00011530  toupper_
Module: /mnt/sda5/.user/root/src/openwatcom-1.9/rel2/lib386/os2/clib3r.lib(_strcmp)
0002:00011540  strcmp_
Module: /mnt/sda5/.user/root/src/openwatcom-1.9/rel2/lib386/os2/clib3r.lib(strncpy.c)
0002:00011680  strncpy_
Module: /mnt/sda5/.user/root/src/openwatcom-1.9/rel2/lib386/os2/plbx3r.lib(stabthrw.cpp)
0002:00011ea0+ W?$ct:exception$:std$n()_
0002:00011ef0+ W?$ct:exception$:std$n(rnx$0:1$)_
0002:00011f40+ W?$ct:exception$:std$n(pnxa)_
0002:00011f90+ W?$dt:exception$:std$n()_
0002:00012020+ W?what$:exception$:std$n.x()pnxa
0002:00012060+ W?$ct:bad_exception$:std$n()_
0002:000120c0+ W?$ct:bad_exception$:std$n(rnx$0:1$)_
0002:00012110+ W?$dt:bad_exception$:std$n()_
0003:00003550+ W?$Wvf0Io4:exception$:std$$nx[]pn()v
0003:00003560+ W?$Wvf0Mo4:bad_exception$:std$$nx[]pn()v
0003:00003570+ W?$Wth0Onrn$bad_exception$:std$$$nx[]uc
0003:00003590+ W?$Wts0In$exception$:std$$$nx[]uc
0003:000035b0+ W?$Wts0Mn$bad_exception$:std$$$nx[]uc
0003:000035d0+ W?$Wts0Hn$_EXC_PR_FNEXC$$$nx[]uc
0003:000035f0+ W?$Wts0Gn$_EXC_PR_DTOR$$$nx[]uc
0003:00003610  W?$Wts0Gn$_EXC_PR_FREE$$$nx[]uc
0003:00003630  W?$Wts0Bn$_EXC_PR$$$nx[]uc
0003:00003650+ W?$Wva0Mo0:bad_exception$:std$$nx[]uc
0003:00003c4c  W?$Wti0A$_EXC_PR$$$n[]uc
0003:00003c5b  W?$Wti0F$_EXC_PR_FREE$$$n[]uc
0003:00003c6f+ W?$Wti0F$_EXC_PR_DTOR$$$n[]uc
0003:00003c83+ W?$Wti0G$_EXC_PR_FNEXC$$$n[]uc
0003:00003c98+ W?$Wti0L$bad_exception$:std$$$n[]uc
0002:000121c0+ W?.tcctor$:bad_exception$:std$n(rnx$1:2$)rn$1:2$
0002:000121d0+ W?.tdtor$:bad_exception$:std$n()pnv
0002:000121e0+ W?.tdtor$:exception$:std$n()pnv
0002:00011d58* __wcpp_4_rethrow__
0002:00011d9c  __wcpp_4_catch_done__
0002:00011e04  __wcpp_4_throw__
0002:00011e4c* __wcpp_4_throw_zero__
0003:00003670+ W?$Wva0Io0:exception$:std$$nx[]uc
0003:00003cb2+ W?$Wti0H$exception$:std$$$n[]uc
Module: /mnt/sda5/.user/root/src/openwatcom-1.9/rel2/lib386/os2/clib3r.lib(strtol.c)
0002:00012410* strtoul_
0002:00012420  strtol_
Module: /mnt/sda5/.user/root/src/openwatcom-1.9/rel2/lib386/os2/clib3r.lib(isalnum.c)
0002:00012430  isalnum_
Module: /mnt/sda5/.user/root/src/openwatcom-1.9/rel2/lib386/os2/clib3r.lib(atol.c)
0002:00012450  atol_
Module: /mnt/sda5/.user/root/src/openwatcom-1.9/rel2/lib386/os2/clib3r.lib(strncmp.c)
0002:000124a0  strncmp_
Module: /mnt/sda5/.user/root/src/openwatcom-1.9/rel2/lib386/os2/clib3r.lib(strstr.c)
0002:000124d0  strstr_
Module: /mnt/sda5/.user/root/src/openwatcom-1.9/rel2/lib386/os2/plbx3r.lib(moddtorr.cpp)
0003:00005370  ___wcpp_4_data_module_dtor_ref_
Module: /mnt/sda5/.user/root/src/openwatcom-1.9/rel2/lib386/os2/clib3r.lib(fwrite.c)
0002:00012580  fwrite_
Module: /mnt/sda5/.user/root/src/openwatcom-1.9/rel2/lib386/os2/clib3r.lib(fputc.c)
0002:00012790  fputc_
Module: /mnt/sda5/.user/root/src/openwatcom-1.9/rel2/lib386/os2/plbx3r.lib(pure_err.cpp)
0002:00012870  __wcpp_4_pure_error__
Module: /mnt/sda5/.user/root/src/openwatcom-1.9/rel2/lib386/os2/clib3r.lib(fopen.c)
0002:000128a0+ __open_flags_
0002:00012ab0+ _fsopen_
0002:00012b00  fopen_
0002:00012b90* freopen_
Module: /mnt/sda5/.user/root/src/openwatcom-1.9/rel2/lib386/os2/clib3r.lib(fclose.c)
0002:00012c00  __doclose_
0002:00012ca0  __shutdown_stream_
0002:00012cc0  fclose_
0003:00005418+ ___RmTmpFileFn
Module: /mnt/sda5/.user/root/src/openwatcom-1.9/rel2/lib386/os2/clib3r.lib(isalpha.c)
0002:00012d10  isalpha_
Module: /mnt/sda5/.user/root/src/openwatcom-1.9/rel2/lib386/os2/clib3r.lib(isdigit.c)
0002:00012d30  isdigit_
Module: /mnt/sda5/.user/root/src/openwatcom-1.9/rel2/lib386/os2/clib3r.lib(tolower.c)
0002:00012d40  tolower_
Module: /mnt/sda5/.user/root/src/openwatcom-1.9/rel2/lib386/os2/clib3r.lib(fseek.c)
0002:00012da0  fseek_
Module: /mnt/sda5/.user/root/src/openwatcom-1.9/rel2/lib386/os2/clib3r.lib(ftell.c)
0002:00012eb0  ftell_
Module: /mnt/sda5/.user/root/src/openwatcom-1.9/rel2/lib386/os2/clib3r.lib(fread.c)
0002:00012f20  fread_
Module: /mnt/sda5/.user/root/src/openwatcom-1.9/rel2/lib386/os2/clib3r.lib(time.c)
0002:00013100  time_
Module: /mnt/sda5/.user/root/src/openwatcom-1.9/rel2/lib386/os2/clib3r.lib(ltoa.c)
0002:00013140  ultoa_
0002:00013190  ltoa_
Module: /mnt/sda5/.user/root/src/openwatcom-1.9/rel2/lib386/os2/clib3r.lib(islower.c)
0002:000131c0  islower_
Module: /mnt/sda5/.user/root/src/openwatcom-1.9/rel2/lib386/os2/clib3r.lib(atoi.c)
0002:000131e0  atoi_
Module: /mnt/sda5/.user/root/src/openwatcom-1.9/rel2/lib386/os2/clib3r.lib(isxdigit.c)
0002:00013230  isxdigit_
Module: /mnt/sda5/.user/root/src/openwatcom-1.9/rel2/lib386/os2/clib3r.lib(fprintf.c)
0002:00013240  fprintf_
Module: /mnt/sda5/.user/root/src/openwatcom-1.9/rel2/lib386/os2/clib3r.lib(iob.c)
0003:00003d54  ___iob
0003:00003f5c  __fmode
0003:0000541c  ___OpenStreams
0003:00005420  ___ClosedStreams
Module: /mnt/sda5/.user/root/src/openwatcom-1.9/rel2/lib386/os2/clib3r.lib(isattos2.c)
0002:00013270  isatty_
Module: /mnt/sda5/.user/root/src/openwatcom-1.9/rel2/lib386/os2/clib3r.lib(nmalloc.c)
0002:000132a0  _nmalloc_
0002:000132a0  malloc_
0003:00003f60  ___nheapbeg
0003:00003f64  ___MiniHeapRover
0003:00003f68  ___LargestSizeB4MiniHeapRover
Module: /mnt/sda5/.user/root/src/openwatcom-1.9/rel2/lib386/os2/clib3r.lib(nrealloc.c)
0002:000133a0* _nrealloc_
0002:000133a0  realloc_
Module: /mnt/sda5/.user/root/src/openwatcom-1.9/rel2/lib386/os2/clib3r.lib(nfree.c)
0002:00013420  _nfree_
0002:00013420  free_
0003:00005424  ___MiniHeapFreeRover
Module: /mnt/sda5/.user/root/src/openwatcom-1.9/rel2/lib386/os2/clib3r.lib(istable.c)
0002:00013530  __IsTable
Module: /mnt/sda5/.user/root/src/openwatcom-1.9/rel2/lib386/os2/clib3r.lib(memset.c)
0002:00013640  memset_
Module: /mnt/sda5/.user/root/src/openwatcom-1.9/rel2/lib386/os2/clib3r.lib(memmove.c)
0002:00013660  memmove_
Module: /mnt/sda5/.user/root/src/openwatcom-1.9/rel2/lib386/os2/clib3r.lib(strlwr.c)
0002:000136c0  strlwr_
Module: /mnt/sda5/.user/root/src/openwatcom-1.9/rel2/lib386/os2/plbx3r.lib(fsregist.cpp)
0002:000136e0+ W?findHandler$n(pnuc)pnuc
0002:000136f8+ __wcpp_4_dispatch_dummy__
0002:0001371c  __wcpp_4_fs_lookup__
0002:000137ec  __wcpp_4_fs_handler_rtn_
Module: /mnt/sda5/.user/root/src/openwatcom-1.9/rel2/lib386/os2/clib3r.lib(stk)
0002:000138d5  __STK
0002:000138c5  __CHK
0002:00013904  __GRO
0002:000138f4* __STKOVERFLOW_
Module: /mnt/sda5/.user/root/src/openwatcom-1.9/rel2/lib386/os2/clib3r.lib(seterrno.c)
0002:00013924  __set_errno_
0002:00013932* __set_EDOM_
0002:00013940* __set_ERANGE_
0002:0001394e* __set_EINVAL_
0002:00013961  __set_doserrno_
Module: /mnt/sda5/.user/root/src/openwatcom-1.9/rel2/lib386/os2/clib3r.lib(dosret.c)
0002:00013970* _dosretax_
0002:00013980* _dosret0_
0002:00013990  __set_errno_dos_
0002:000139c0* __set_errno_dos_reterr_
Module: /mnt/sda5/.user/root/src/openwatcom-1.9/rel2/lib386/os2/clib3r.lib(mbsnccnt.c)
0002:000139d0  _mbsnccnt_
Module: /mnt/sda5/.user/root/src/openwatcom-1.9/rel2/lib386/os2/clib3r.lib(mbsncpy.c)
0002:00013a00  _mbsncpy_
Module: /mnt/sda5/.user/root/src/openwatcom-1.9/rel2/lib386/os2/clib3r.lib(mbsnbcnt.c)
0002:00013a20  _mbsnbcnt_
Module: /mnt/sda5/.user/root/src/openwatcom-1.9/rel2/lib386/os2/clib3r.lib(mbsnextc.c)
0002:00013a90  _mbsnextc_
Module: /mnt/sda5/.user/root/src/openwatcom-1.9/rel2/lib386/os2/clib3r.lib(mbsinc.c)
0002:00013ad0  _mbsinc_
Module: /mnt/sda5/.user/root/src/openwatcom-1.9/rel2/lib386/os2/clib3r.lib(mbconv.c)
0002:00013b00  _mbvtop_
Module: /mnt/sda5/.user/root/src/openwatcom-1.9/rel2/lib386/os2/clib3r.lib(mbclen.c)
0002:00013b20  _mbclen_
Module: /mnt/sda5/.user/root/src/openwatcom-1.9/rel2/lib386/os2/clib3r.lib(mbsdec.c)
0002:00013b50  _mbsdec_
Module: /mnt/sda5/.user/root/src/openwatcom-1.9/rel2/lib386/os2/clib3r.lib(ljmphdl.c)
0003:00004080  ___longjmp_handler
Module: /mnt/sda5/.user/root/src/openwatcom-1.9/rel2/lib386/os2/plbx3r.lib(stabtrav.cpp)
0002:00013be0  __wcpp_4_stab_entry__
0002:00013bf8* __wcpp_4_stab_trav_comp__
0002:00013cdc  __wcpp_4_stab_trav_init__
0002:00013d00  __wcpp_4_stab_trav_next__
0002:00013d58  __wcpp_4_stab_trav_move__
Module: /mnt/sda5/.user/root/src/openwatcom-1.9/rel2/lib386/os2/plbx3r.lib(callterm.cpp)
0002:00013d70  __wcpp_4_corrupted_stack__
0002:00013d84  __wcpp_4_call_terminate__
Module: /mnt/sda5/.user/root/src/openwatcom-1.9/rel2/lib386/os2/plbx3r.lib(allocexc.cpp)
0002:00013dd4  __wcpp_4_alloc_exc__
0002:00014028  __wcpp_4_free_exc__
0002:00014060  __wcpp_4_find_active__
0002:0001407c  __wcpp_4_dtor_free_exc__
Module: /mnt/sda5/.user/root/src/openwatcom-1.9/rel2/lib386/os2/plbx3r.lib(stabadt.cpp)
0002:00014140+ W?dtor_the_array$n(pn$_RTARCTOR$$)pnv
0002:00014184+ W?$dt:_RTARCTOR$n()_
0002:0001419c  __wcpp_4_dtor_array__
0003:000036c0+ W?$Wts0Dn$_RTARCTOR$$$nx[]uc
0003:00004084+ W?$Wti0C$_RTARCTOR$$$n[]uc
Module: /mnt/sda5/.user/root/src/openwatcom-1.9/rel2/lib386/os2/plbx3r.lib(pgmthrd.cpp)
0002:00014210  __wcpp_4_pgm_thread__
Module: /mnt/sda5/.user/root/src/openwatcom-1.9/rel2/lib386/os2/plbx3r.lib(fatalerr.cpp)
0002:00014240  __wcpp_4_fatal_runtime_error__
Module: /mnt/sda5/.user/root/src/openwatcom-1.9/rel2/lib386/os2/clib3r.lib(main2o32.c)
0002:00014270  __OS2Main
Module: /mnt/sda5/.user/root/src/openwatcom-1.9/rel2/lib386/os2/clib3r.lib(segdefns)
0002:00000003  ___begtext
0003:00000000* __nullarea
0003:00005334  __Start_XI
0003:0000536a  __End_XI
0003:0000536a  __Start_YI
0003:00005388  __End_YI
Module: /mnt/sda5/.user/root/src/openwatcom-1.9/rel2/lib386/os2/clib3r.lib(initargv.c)
0002:000142e0  __Init_Argv_
0002:00014330+ _getargv_
0002:000144d0  __Fini_Argv_
Module: /mnt/sda5/.user/root/src/openwatcom-1.9/rel2/lib386/os2/clib3r.lib(flushall.c)
0002:000144e0  __flushall_
0002:00014520  flushall_
Module: /mnt/sda5/.user/root/src/openwatcom-1.9/rel2/lib386/os2/clib3r.lib(gtcheos2.c)
0002:00014530  getche_
Module: /mnt/sda5/.user/root/src/openwatcom-1.9/rel2/lib386/os2/clib3r.lib(ioalloc.c)
0002:00014560  __ioalloc_
Module: /mnt/sda5/.user/root/src/openwatcom-1.9/rel2/lib386/os2/clib3r.lib(qread.c)
0002:00014600  __qread_
Module: /mnt/sda5/.user/root/src/openwatcom-1.9/rel2/lib386/os2/clib3r.lib(maino32.c)
0003:00004098+ ___FirstThreadData
0003:0000409c  ___GetThreadPtr
0003:000040a0  __AccessFileH
0003:000040a4  __ReleaseFileH
0003:000040a8  __AccessIOB
0003:000040ac  __ReleaseIOB
0003:000040b0  __AccessNHeap
0003:000040b4* __AccessFHeap
0003:000040b8  __ReleaseNHeap
0003:000040bc* __ReleaseFHeap
0002:00014634  __threadstack_
0002:0001463b* __threadid_
0002:00014642  __OS2MainInit_
0002:000146b1+ __OS2Init_
0002:000146ef* __OS2Fini_
0002:000146f7* __shutdown_stack_checking_
0002:0001470c  __exit_
0003:000040c0* __AccessTDList
0003:000040c4* __ReleaseTDList
0003:000040c8+ ___sig_init_rtn
0003:000040cc* ___sig_fini_rtn
0003:000040d0  __threadstksize
0003:000040d4  ___process_fini
0003:0000542c  ___Is_DLL
0003:00005430+ ___saved_CS
Module: /mnt/sda5/.user/root/src/openwatcom-1.9/rel2/lib386/os2/plbx3r.lib(stabmod.cpp)
0002:00014750  __wcpp_4_module_dtor__
0002:0001477c  __wcpp_4_mod_register__
Module: /mnt/sda5/.user/root/src/openwatcom-1.9/rel2/lib386/os2/plbx3r.lib(exc_pr.cpp)
0002:00014790  W?$ct:_EXC_PR$n(pn$_RTCTL$$pn$RW_DTREG$$$EXCSTATE$$)_
0002:000147bc  W?$dt:_EXC_PR$n()_
0002:000147cc  W?$ct:_EXC_PR_FREE$n(pn$_RTCTL$$pn$RW_DTREG$$$EXCSTATE$$pn$ACTIVE_EXC$$)_
0002:000147e0  W?$dt:_EXC_PR_FREE$n()_
0002:00014818  W?$ct:_EXC_PR_DTOR$n(pn$_RTCTL$$pn$RW_DTREG$$$EXCSTATE$$pn$ACTIVE_EXC$$)_
0002:00014828  W?$ct:_EXC_PR_FNEXC$n(pn$_RTCTL$$pn$RW_DTREG$$pn$2$pn$ACTIVE_EXC$$)_
0002:00014848  W?$dt:_EXC_PR_FNEXC$n()_
0002:00014850  W?$dt:_EXC_PR_DTOR$n()_
Module: /mnt/sda5/.user/root/src/openwatcom-1.9/rel2/lib386/os2/plbx3r.lib(vfun_err.cpp)
0002:00014880  __wcpp_4_undef_vfun__
Module: /mnt/sda5/.user/root/src/openwatcom-1.9/rel2/lib386/os2/plbx3r.lib(unexpect.cpp)
0002:000148b0  W?unexpected$:std$n()v
Module: /mnt/sda5/.user/root/src/openwatcom-1.9/rel2/lib386/os2/plbx3r.lib(tsequiv.cpp)
0002:00014950  __wcpp_4_ts_refed__
0002:00014968+ __wcpp_4_ts_pnted__
0002:0001499c  __wcpp_4_ts_equiv__
Module: /mnt/sda5/.user/root/src/openwatcom-1.9/rel2/lib386/os2/plbx3r.lib(stabinit.cpp)
0002:00014a80  __wcpp_4_exc_setup__
Module: /mnt/sda5/.user/root/src/openwatcom-1.9/rel2/lib386/os2/clib3r.lib(stack386.c)
0002:00014b20  stackavail_
Module: /mnt/sda5/.user/root/src/openwatcom-1.9/rel2/lib386/os2/clib3r.lib(qwrit.c)
0002:00014b40  __qwrite_
Module: /mnt/sda5/.user/root/src/openwatcom-1.9/rel2/lib386/os2/clib3r.lib(flush.c)
0002:00014be0  __flush_
Module: /mnt/sda5/.user/root/src/openwatcom-1.9/rel2/lib386/os2/plbx3r.lib(prwdata.cpp)
0003:00005534  __wint_pure_error_flag
0003:00005536  __wint_undef_vfun_flag
0003:00005538  __wint_module_init
Module: /mnt/sda5/.user/root/src/openwatcom-1.9/rel2/lib386/os2/clib3r.lib(comtflag.c)
0002:00014ce0* __set_commode_
0003:000040d8  __commode
Module: /mnt/sda5/.user/root/src/openwatcom-1.9/rel2/lib386/os2/clib3r.lib(openos2.c)
0002:00014eb0* open_
0002:00014ed0  sopen_
Module: /mnt/sda5/.user/root/src/openwatcom-1.9/rel2/lib386/os2/clib3r.lib(chktty.c)
0002:00014f00  __chktty_
Module: /mnt/sda5/.user/root/src/openwatcom-1.9/rel2/lib386/os2/clib3r.lib(freefp.c)
0002:00014f40  __freefp_
0002:00014f90  __purgefp_
Module: /mnt/sda5/.user/root/src/openwatcom-1.9/rel2/lib386/os2/clib3r.lib(allocfp.c)
0002:00014fc0  __allocfp_
Module: /mnt/sda5/.user/root/src/openwatcom-1.9/rel2/lib386/os2/clib3r.lib(__lseek.c)
0002:00015090  __lseek_
Module: /mnt/sda5/.user/root/src/openwatcom-1.9/rel2/lib386/os2/clib3r.lib(_clseos2.c)
0002:000150c0  __close_
Module: /mnt/sda5/.user/root/src/openwatcom-1.9/rel2/lib386/os2/clib3r.lib(lseek.c)
0002:00015100  lseek_
Module: /mnt/sda5/.user/root/src/openwatcom-1.9/rel2/lib386/os2/clib3r.lib(tell.c)
0002:00015130  tell_
Module: /mnt/sda5/.user/root/src/openwatcom-1.9/rel2/lib386/os2/clib3r.lib(fflush.c)
0002:00015150  fflush_
Module: /mnt/sda5/.user/root/src/openwatcom-1.9/rel2/lib386/os2/clib3r.lib(gtctmos2.c)
0002:00015160  __getctime_
Module: /mnt/sda5/.user/root/src/openwatcom-1.9/rel2/lib386/os2/clib3r.lib(mktime.c)
0002:000151d0  mktime_
Module: /mnt/sda5/.user/root/src/openwatcom-1.9/rel2/lib386/os2/clib3r.lib(alphabet.c)
0003:00001008  ___Alphabet
Module: /mnt/sda5/.user/root/src/openwatcom-1.9/rel2/lib386/os2/clib3r.lib(fprtf.c)
0002:00015280  __fprtf_
Module: /mnt/sda5/.user/root/src/openwatcom-1.9/rel2/lib386/os2/clib3r.lib(initfile.c)
0002:00015370  __InitFiles_
Module: /mnt/sda5/.user/root/src/openwatcom-1.9/rel2/lib386/os2/clib3r.lib(ioexit.c)
0002:00015470* fcloseall_
0002:00015480  __full_io_exit_
Module: /mnt/sda5/.user/root/src/openwatcom-1.9/rel2/lib386/os2/clib3r.lib(nmemneed.c)
0002:00015490  __nmemneed_
Module: /mnt/sda5/.user/root/src/openwatcom-1.9/rel2/lib386/os2/clib3r.lib(mem.c)
0002:000154a0  __MemAllocator
0002:00015550  __MemFree
Module: /mnt/sda5/.user/root/src/openwatcom-1.9/rel2/lib386/os2/clib3r.lib(grownear.c)
0002:000157f0  __ExpandDGROUP_
Module: /mnt/sda5/.user/root/src/openwatcom-1.9/rel2/lib386/os2/clib3r.lib(nmsize.c)
0002:00015810  _nmsize_
0002:00015810* _msize_
Module: /mnt/sda5/.user/root/src/openwatcom-1.9/rel2/lib386/os2/clib3r.lib(nexpand.c)
0002:00015820  _nexpand_
0002:00015820* _expand_
0002:00015860+ __HeapManager_expand_
Module: /mnt/sda5/.user/root/src/openwatcom-1.9/rel2/lib386/os2/clib3r.lib(__stos)
0002:00015a20  __STOSB
0002:00015a57* __STOSD
Module: /mnt/sda5/.user/root/src/openwatcom-1.9/rel2/lib386/os2/plbx3r.lib(stabdisp.cpp)
0002:00015ccc  __wcpp_4_dispatchable__
Module: /mnt/sda5/.user/root/src/openwatcom-1.9/rel2/lib386/os2/clib3r.lib(xmsgo32.c)
0002:00015d20  __exit_with_msg_
0002:00015d70  __fatal_runtime_error_
Module: /mnt/sda5/.user/root/src/openwatcom-1.9/rel2/lib386/os2/clib3r.lib(mbterm.c)
0002:00015d90  _mbterm_
Module: /mnt/sda5/.user/root/src/openwatcom-1.9/rel2/lib386/os2/clib3r.lib(mbsnbcpy.c)
0002:00015dd0  _mbsnbcpy_
Module: /mnt/sda5/.user/root/src/openwatcom-1.9/rel2/lib386/os2/clib3r.lib(mbisdbcs.c)
0003:0000553c  ___IsDBCS
Module: /mnt/sda5/.user/root/src/openwatcom-1.9/rel2/lib386/os2/clib3r.lib(mbislead.c)
0002:00015e30* _ismbblead_
0003:00005540  ___MBCSIsTable
Module: /mnt/sda5/.user/root/src/openwatcom-1.9/rel2/lib386/os2/plbx3r.lib(bittest.cpp)
0002:00015e50  __wcpp_4_bit_test__
0002:00015e70  __wcpp_4_bit_off__
Module: /mnt/sda5/.user/root/src/openwatcom-1.9/rel2/lib386/os2/plbx3r.lib(termnate.cpp)
0002:00015e90  W?terminate$:std$n()v
Module: /mnt/sda5/.user/root/src/openwatcom-1.9/rel2/lib386/os2/plbx3r.lib(areaexc.cpp)
0003:000040f0  ___EXC_AREA
Module: /mnt/sda5/.user/root/src/openwatcom-1.9/rel2/lib386/os2/plbx3r.lib(tssize.cpp)
0002:00015ef4  __wcpp_4_ts_size__
Module: /mnt/sda5/.user/root/src/openwatcom-1.9/rel2/lib386/os2/clib3r.lib(enterdb.c)
0002:00015f30  __EnterWVIDEO_
0003:000050f0+ ___WD_Present
Module: /mnt/sda5/.user/root/src/openwatcom-1.9/rel2/lib386/os2/clib3r.lib(exit.c)
0002:00015f56+ __null_int23_exit_
0002:00015f57  exit_
0002:00015fa7* _exit_
0003:000050f4+ ___int23_exit
0003:000050f8+ ___FPE_handler_exit
Module: /mnt/sda5/.user/root/src/openwatcom-1.9/rel2/lib386/os2/clib3r.lib(initrtns.c)
0002:00015fd0  __InitRtns
0002:00016020  __FiniRtns
Module: /mnt/sda5/.user/root/src/openwatcom-1.9/rel2/lib386/os2/clib3r.lib(mthrdini.c)
0002:00016080  __InitThreadData_
0003:000050fc  ___ThreadDataSize
Module: /mnt/sda5/.user/root/src/openwatcom-1.9/rel2/lib386/os2/clib3r.lib(cmain386.c)
0002:000160a0  __CMain
Module: /mnt/sda5/.user/root/src/openwatcom-1.9/rel2/lib386/os2/clib3r.lib(dosseg)
0000:00001234  __DOSseg__
Module: /mnt/sda5/.user/root/src/openwatcom-1.9/rel2/lib386/os2/clib3r.lib(crwdata)
0003:00005144  __osmajor
0003:00005145  __osminor
0003:00005110* __LpDllName
0003:00005114* __LpwCmdLine
0003:00005118* __LpwPgmName
0003:0000511c* __LpwDllName
0003:00005108  __LpCmdLine
0003:0000510c  __LpPgmName
0003:00005100* __dynend
0003:00005104  __curbrk
0003:00005120* __STACKLOW
0003:00005124* __STACKTOP
0003:00005128  __ASTACKSIZ
0003:0000512c  __ASTACKPTR
0003:00005130  __cbyte
0003:00005134  __cbyte2
0003:00005138* __child
0003:0000513e  __Envptr
0003:00005142* __Envseg
0003:0000513c* __no87
0003:00005146* ___FPE_handler
Module: /mnt/sda5/.user/root/src/openwatcom-1.9/rel2/lib386/os2/clib3r.lib(histsplt.c)
0003:00005644  ___historical_splitparms
Module: /mnt/sda5/.user/root/src/openwatcom-1.9/rel2/lib386/os2/clib3r.lib(___argc.c)
0003:00005648  ____Argc
0003:0000564c  ____Argv
Module: /mnt/sda5/.user/root/src/openwatcom-1.9/rel2/lib386/os2/clib3r.lib(getchos2.c)
0002:000160f0  getch_
Module: /mnt/sda5/.user/root/src/openwatcom-1.9/rel2/lib386/os2/clib3r.lib(putchos2.c)
0002:000161b0  putch_
Module: /mnt/sda5/.user/root/src/openwatcom-1.9/rel2/lib386/os2/clib3r.lib(cinit.c)
0002:00016200  __CommonInit_
0003:00005650  ___hmodule
Module: /mnt/sda5/.user/root/src/openwatcom-1.9/rel2/lib386/os2/clib3r.lib(iomode.c)
0002:00016210  __GetIOMode_
0002:00016230  __SetIOMode_nogrow_
0003:0000514c  ___NFiles
0003:00005150  ___init_mode
0003:000051a0  ___io_mode
Module: /mnt/sda5/.user/root/src/openwatcom-1.9/rel2/lib386/os2/clib3r.lib(fsync.c)
0002:00016250  fsync_
Module: /mnt/sda5/.user/root/src/openwatcom-1.9/rel2/lib386/os2/clib3r.lib(umaskval.c)
0003:000051a4  ___umaskval
Module: /mnt/sda5/.user/root/src/openwatcom-1.9/rel2/lib386/os2/clib3r.lib(os2fil64.c)
0003:000051a8  ___os2_DosOpenL
0003:000051ac+ ___os2_DosSetFilePtrL
0003:000051b0+ ___os2_DosSetFileSizeL
0003:000051b4+ ___os2_DosSetFileLocksL
Module: /mnt/sda5/.user/root/src/openwatcom-1.9/rel2/lib386/os2/clib3r.lib(stiomode.c)
0002:00016370  __grow_iomode_
0002:00016440+ __shrink_iomode_
0002:000164c0  __SetIOMode_
Module: /mnt/sda5/.user/root/src/openwatcom-1.9/rel2/lib386/os2/clib3r.lib(locmktim.c)
0002:00016530  __local_mktime_
Module: /mnt/sda5/.user/root/src/openwatcom-1.9/rel2/lib386/os2/clib3r.lib(gmtime.c)
0002:000166b0  __brktime_
0002:000167b0+ _gmtime_
0002:000167d0* gmtime_
Module: /mnt/sda5/.user/root/src/openwatcom-1.9/rel2/lib386/os2/clib3r.lib(tzset.c)
0003:000051b8  ___start_dst
0003:000051dc  ___end_dst
0003:00005304* _tzname
0003:0000530c  _timezone
0003:00005310  _daylight
0003:00005314  ___dst_adjust
0002:00016840* __DontCacheOSTZ_
0002:00016850* __CacheOSTZ_
0002:00016d30+ __parse_tz_
0002:00016f60  tzset_
Module: /mnt/sda5/.user/root/src/openwatcom-1.9/rel2/lib386/os2/clib3r.lib(timeutil.c)
0002:000170d0  __isindst_
Module: /mnt/sda5/.user/root/src/openwatcom-1.9/rel2/lib386/os2/clib3r.lib(prtf.c)
0002:00017400  __prtf_
Module: /mnt/sda5/.user/root/src/openwatcom-1.9/rel2/lib386/os2/clib3r.lib(amblksiz.c)
0003:0000531c  __amblksiz
Module: /mnt/sda5/.user/root/src/openwatcom-1.9/rel2/lib386/os2/clib3r.lib(heapen.c)
0002:000180d0* _heapenable_
0003:00005320  ___heap_enabled
Module: /mnt/sda5/.user/root/src/openwatcom-1.9/rel2/lib386/os2/clib3r.lib(nheapmin.c)
0002:00018100  _nheapshrink_
0002:00018100* _nheapmin_
0002:00018100* _heapmin_
0002:00018100* _heapshrink_
Module: /mnt/sda5/.user/root/src/openwatcom-1.9/rel2/lib386/os2/clib3r.lib(mbinit.c)
0002:0001821c  __mbinit_
0003:00005324  ___MBCodePage
Module: /mnt/sda5/.user/root/src/openwatcom-1.9/rel2/lib386/os2/clib3r.lib(thunk)
0002:00018328  __TNK
0002:00018314* __TNC
Module: /mnt/sda5/.user/root/src/openwatcom-1.9/rel2/lib386/os2/clib3r.lib(far16fun)
0002:00018378  __Far16Func2
0002:000183c1* __Far16Func
0002:0001840f* __Far16Pascal2
0002:00018456* __Far16Pascal
0002:000184a2* __Far16Cdecl2
0002:000184f0* __Far16Cdecl
0002:00018543  __FlatToFar16
0002:0001854c* __Far16ToFlat
Module: /mnt/sda5/.user/root/src/openwatcom-1.9/rel2/lib386/os2/clib3r.lib(hdlman.c)
0002:00018560* __set_handles_
0002:00018570* _grow_handles_
0003:00005328  ___NHandles
Module: /mnt/sda5/.user/root/src/openwatcom-1.9/rel2/lib386/os2/clib3r.lib(iomodtty.c)
0002:000185d0  __ChkTTYIOMode_
0002:00018610* __IOMode_
Module: /mnt/sda5/.user/root/src/openwatcom-1.9/rel2/lib386/os2/clib3r.lib(leapyear.c)
0002:00018630  __leapyear_
0003:00001054  ___diyr
0003:0000106e  ___dilyr
Module: /mnt/sda5/.user/root/src/openwatcom-1.9/rel2/lib386/os2/clib3r.lib(getenv.c)
0002:00018670  getenv_
Module: /mnt/sda5/.user/root/src/openwatcom-1.9/rel2/lib386/os2/clib3r.lib(wctomb.c)
0002:00018700  wctomb_
Module: /mnt/sda5/.user/root/src/openwatcom-1.9/rel2/lib386/os2/clib3r.lib(itoa.c)
0002:00018730+ utoa_
0002:00018780  itoa_
Module: /mnt/sda5/.user/root/src/openwatcom-1.9/rel2/lib386/os2/clib3r.lib(strupr.c)
0002:000187b0  strupr_
Module: /mnt/sda5/.user/root/src/openwatcom-1.9/rel2/lib386/os2/clib3r.lib(noefgfmt.c)
0003:0000532c  ___EFG_printf
0003:00005330* ___EFG_scanf
Module: /mnt/sda5/.user/root/src/openwatcom-1.9/rel2/lib386/os2/clib3r.lib(lltoa.c)
0002:00018820  ulltoa_
0002:00018890* lltoa_
Module: /mnt/sda5/.user/root/src/openwatcom-1.9/rel2/lib386/os2/clib3r.lib(itsto32.c)
0002:000188c0  __init_threadstksize_
Module: /mnt/sda5/.user/root/src/openwatcom-1.9/rel2/lib386/os2/clib3r.lib(environ.c)
0003:00005658  ___env_mask
0003:0000565c  _environ
0003:00005660* __wenviron
Module: /mnt/sda5/.user/root/src/openwatcom-1.9/rel2/lib386/os2/clib3r.lib(mbcupper.c)
0002:000188d0  _mbctoupper_
Module: /mnt/sda5/.user/root/src/openwatcom-1.9/rel2/lib386/os2/clib3r.lib(setenvp.c)
0002:000188f0  __setenvp_
0002:000189b0  __freeenvp_
Module: /mnt/sda5/.user/root/src/openwatcom-1.9/rel2/lib386/os2/clib3r.lib(mbdtoupp.c)
0002:00018a00  _mbdtoupper_
Module: /mnt/sda5/.user/root/src/openwatcom-1.9/rel2/lib386/os2/clib3r.lib(clearenv.c)
0002:00018a20  clearenv_


                        +----------------------+
                        |   Imported Symbols   |
                        +----------------------+

Symbol                              Module
======                              ======

DosGetInfoBlocks                    DOSCALLS
DosQueryPathInfo                    DOSCALLS
DosUnwindException                  DOSCALLS
DosQueryCurrentDir                  DOSCALLS
DosQueryCurrentDisk                 DOSCALLS
DosSetCurrentDir                    DOSCALLS
DosRaiseException                   DOSCALLS
DosQueryHType                       DOSCALLS
DosRead                             DOSCALLS
DosQuerySysInfo                     DOSCALLS
DosExit                             DOSCALLS
DosSetFilePtr                       DOSCALLS
DosWrite                            DOSCALLS
DosOpen                             DOSCALLS
DosClose                            DOSCALLS
DosGetDateTime                      DOSCALLS
DosAllocMem                         DOSCALLS
KBD16CHARIN                         KBDCALLS
VIO16WRTTTY                         VIOCALLS
DosResetBuffer                      DOSCALLS
DosQueryModuleHandle                DOSCALLS
DosQueryProcAddr                    DOSCALLS
DosSetRelMaxFH                      DOSCALLS
DosFreeMem                          DOSCALLS
DosQueryDBCSEnv                     NLS
DosQueryCp                          DOSCALLS
DosFlatToSel                        DOSCALLS
DosSelToFlat                        DOSCALLS


                        +--------------------+
                        |   Libraries Used   |
                        +--------------------+

/mnt/sda5/.user/root/src/openwatcom-1.9/rel2/lib386/os2/clib3r.lib
/mnt/sda5/.user/root/src/openwatcom-1.9/rel2/lib386/os2/plbx3r.lib
/mnt/sda5/.user/root/src/openwatcom-1.9/rel2/lib386/os2/os2386.lib


                        +-----------------------+
                        |   Linker Statistics   |
                        +-----------------------+

Stack size:  00012000 (73728.)
Memory size:  00030188 (197000.)
Entry point address: 0002:00011202
Link time: 00:00.00
