Open Watcom Linker Version 1.9
Portions Copyright (c) 1985-2002 Sybase, Inc. All Rights Reserved.
Created on:       12/12/16 02:21:36
Executable Image: mt7r19.dll
creating a Windows NT character-mode dynamic link library


                        +------------+
                        |   Groups   |
                        +------------+

Group                           Address              Size
=====                           =======              ====

.idata                          6ff07000             000002ea
DGROUP                          6ff08000             00001720



                        +--------------+
                        |   Segments   |
                        +--------------+

Segment                Class          Group          Address         Size
=======                =====          =====          =======         ====

BEGTEXT                CODE           AUTO           6ff01000        00000007
_TEXT                  CODE           AUTO           6ff01010        00005474
TRANSFER CODE          CODE           AUTO           6ff06484        000000a2
.idata                 .idata         .idata         6ff07000        000002ea
_NULL                  BEGDATA        DGROUP         6ff08000        00000004
_AFTERNULL             BEGDATA        DGROUP         6ff08004        00000000
CONST                  DATA           DGROUP         6ff08004        000000e4
CONST2                 DATA           DGROUP         6ff080e8        00000000
_DATA                  DATA           DGROUP         6ff080e8        000001f8
TIB                    DATA           DGROUP         6ff082e0        00000000
TI                     DATA           DGROUP         6ff082e0        00000000
TIE                    DATA           DGROUP         6ff082e0        00000000
XIB                    DATA           DGROUP         6ff082e0        00000000
XI                     DATA           DGROUP         6ff082e0        00000000
XIE                    DATA           DGROUP         6ff082e0        00000000
YIB                    DATA           DGROUP         6ff082e0        00000000
YI                     DATA           DGROUP         6ff082e0        00000000
YIE                    DATA           DGROUP         6ff082e0        00000000
DATA                   DATA           DGROUP         6ff082e0        00000000
_BSS                   BSS            DGROUP         6ff09000        00000714
STACK                  STACK          DGROUP         6ff09720        00000000


                        +----------------+
                        |   Memory Map   |
                        +----------------+

* = unreferenced symbol
+ = symbol only referenced locally

Address        Symbol
=======        ======

Module: /mnt/sda5/.user/root/src/openwatcom-1.9/bld/clib/startup/library/winnt.386/mf_r/clibdwnt.obj(/mnt/sda5/.user/root/src/openwatcom-1.9/bld/clib/startup/c/clibdwnt.c)
6ff01010       _LibMain@12
Module: ../../../clib/winnt.386/mf_r/clbrdll.lib(dstrt386)
6ff01018       __DLLstart_
6ff01018*      __DLLstartw_
6ff01018*      _DllMainCRTStartup@12
6ff01018*      _wDllMainCRTStartup@12
Module: /mnt/sda5/.user/root/src/openwatcom-1.9/bld/mathlib/library/winnt.387/mf_r.dll/math387r.lib(__87LDI2)
6ff01074       __87LDI2
6ff01074       __87LDI2_
Module: /mnt/sda5/.user/root/src/openwatcom-1.9/bld/mathlib/library/winnt.387/mf_r.dll/math387r.lib(__87LDI4)
6ff01094       __87LDI4
6ff01094       __87LDI4_
Module: /mnt/sda5/.user/root/src/openwatcom-1.9/bld/mathlib/library/winnt.387/mf_r.dll/math387r.lib(acosl87)
6ff010b4       acosl_
Module: /mnt/sda5/.user/root/src/openwatcom-1.9/bld/mathlib/library/winnt.387/mf_r.dll/math387r.lib(asinl87)
6ff010c0       asinl_
Module: /mnt/sda5/.user/root/src/openwatcom-1.9/bld/mathlib/library/winnt.387/mf_r.dll/math387r.lib(atanl87)
6ff010cc       atanl_
6ff010d8       atan2l_
Module: /mnt/sda5/.user/root/src/openwatcom-1.9/bld/mathlib/library/winnt.387/mf_r.dll/math387r.lib(atof.c)
6ff010e8       atof_
Module: /mnt/sda5/.user/root/src/openwatcom-1.9/bld/mathlib/library/winnt.387/mf_r.dll/math387r.lib(cabs.c)
6ff010f2       cabs_
Module: /mnt/sda5/.user/root/src/openwatcom-1.9/bld/mathlib/library/winnt.387/mf_r.dll/math387r.lib(ceil.c)
6ff0110a       ceil_
Module: /mnt/sda5/.user/root/src/openwatcom-1.9/bld/mathlib/library/winnt.387/mf_r.dll/math387r.lib(fchop87)
6ff01128       __CHP
Module: /mnt/sda5/.user/root/src/openwatcom-1.9/bld/mathlib/library/winnt.387/mf_r.dll/math387r.lib(clear87.c)
6ff0113f       _status87_
6ff01150       _clear87_
Module: /mnt/sda5/.user/root/src/openwatcom-1.9/bld/mathlib/library/winnt.387/mf_r.dll/math387r.lib(cnvd2f.c)
6ff0116c       __cnvd2f_
Module: /mnt/sda5/.user/root/src/openwatcom-1.9/bld/mathlib/library/winnt.387/mf_r.dll/math387r.lib(cnvd2ld.c)
6ff011df       __cnvd2ld_
6ff011e4       __get__cnvd2ld_
Module: /mnt/sda5/.user/root/src/openwatcom-1.9/bld/mathlib/library/winnt.387/mf_r.dll/math387r.lib(cnvs2d.c)
6ff011ea       __cnvs2d_
6ff011f8       __get__cnvs2d_
Module: /mnt/sda5/.user/root/src/openwatcom-1.9/bld/mathlib/library/winnt.387/mf_r.dll/math387r.lib(exp87)
6ff01267       exp_
6ff01200       __@DEXP1
6ff01208       IF@EXP
6ff01208       IF@DEXP
6ff0120a       __@DEXP
Module: /mnt/sda5/.user/root/src/openwatcom-1.9/bld/mathlib/library/winnt.387/mf_r.dll/math387r.lib(difftime.c)
6ff01273       difftime_
Module: /mnt/sda5/.user/root/src/openwatcom-1.9/bld/mathlib/library/winnt.387/mf_r.dll/math387r.lib(inf_nan.c)
6ff01296       ___f_infinity
6ff0129a       ___f_posqnan
6ff0129e       ___d_infinity
6ff012a6       ___d_posqnan
6ff012ae       ___ld_infinity
6ff012b6       ___ld_posqnan
Module: /mnt/sda5/.user/root/src/openwatcom-1.9/bld/mathlib/library/winnt.387/mf_r.dll/math387r.lib(sqrt87)
6ff012c0       sqrt_
6ff012f0       IF@SQRT
6ff012f0       IF@DSQRT
6ff012f2       __@DSQRT
Module: /mnt/sda5/.user/root/src/openwatcom-1.9/bld/mathlib/library/winnt.387/mf_r.dll/math387r.lib(_i__ecvt.asm)
6ff01324       __ecvt_
Module: /mnt/sda5/.user/root/src/openwatcom-1.9/bld/mathlib/library/winnt.387/mf_r.dll/math387r.lib(_i_ecvt_.asm)
6ff0132c       _ecvt_
Module: /mnt/sda5/.user/root/src/openwatcom-1.9/bld/mathlib/library/winnt.387/mf_r.dll/math387r.lib(efcvt.c)
6ff01368       ecvt_
6ff0139f       fcvt_
Module: /mnt/sda5/.user/root/src/openwatcom-1.9/bld/mathlib/library/winnt.387/mf_r.dll/math387r.lib(efgfmt.c)
6ff013d5       _EFG_Format_
6ff0153d       __get_EFG_Format_
Module: /mnt/sda5/.user/root/src/openwatcom-1.9/bld/mathlib/library/winnt.387/mf_r.dll/math387r.lib(evalpoly.c)
6ff01543       _EvalPoly_
6ff01585       _OddPoly_
Module: /mnt/sda5/.user/root/src/openwatcom-1.9/bld/mathlib/library/winnt.387/mf_r.dll/math387r.lib(_i__fcvt.asm)
6ff015ac       __fcvt_
Module: /mnt/sda5/.user/root/src/openwatcom-1.9/bld/mathlib/library/winnt.387/mf_r.dll/math387r.lib(_i_fcvt_.asm)
6ff015b4       _fcvt_
Module: /mnt/sda5/.user/root/src/openwatcom-1.9/bld/mathlib/library/winnt.387/mf_r.dll/math387r.lib(fdclass.c)
6ff015b9       _FDClass_
Module: /mnt/sda5/.user/root/src/openwatcom-1.9/bld/mathlib/library/winnt.387/mf_r.dll/math387r.lib(fdsign.c)
6ff0162a       _FDSign_
Module: /mnt/sda5/.user/root/src/openwatcom-1.9/bld/mathlib/library/winnt.387/mf_r.dll/math387r.lib(finite.c)
6ff01645       _finite_
Module: /mnt/sda5/.user/root/src/openwatcom-1.9/bld/mathlib/library/winnt.387/mf_r.dll/math387r.lib(_i_finit.asm)
6ff0165c       finite_
Module: /mnt/sda5/.user/root/src/openwatcom-1.9/bld/mathlib/library/winnt.387/mf_r.dll/math387r.lib(ldclass.c)
6ff01661       __LDClass_
6ff016b1       _FLClass_
Module: /mnt/sda5/.user/root/src/openwatcom-1.9/bld/mathlib/library/winnt.387/mf_r.dll/math387r.lib(floor.c)
6ff016c0       floor_
Module: /mnt/sda5/.user/root/src/openwatcom-1.9/bld/mathlib/library/winnt.387/mf_r.dll/math387r.lib(flsign.c)
6ff016fa*      __LDSign_
6ff01702       _FLSign_
Module: /mnt/sda5/.user/root/src/openwatcom-1.9/bld/mathlib/library/winnt.387/mf_r.dll/math387r.lib(frexp.c)
6ff0170d       frexp_
Module: /mnt/sda5/.user/root/src/openwatcom-1.9/bld/mathlib/library/winnt.387/mf_r.dll/math387r.lib(fsclass.c)
6ff01775       _FSClass_
Module: /mnt/sda5/.user/root/src/openwatcom-1.9/bld/mathlib/library/winnt.387/mf_r.dll/math387r.lib(fssign.c)
6ff017d0       _FSSign_
Module: /mnt/sda5/.user/root/src/openwatcom-1.9/bld/mathlib/library/winnt.387/mf_r.dll/math387r.lib(_i__gcvt.asm)
6ff017dc       __gcvt_
Module: /mnt/sda5/.user/root/src/openwatcom-1.9/bld/mathlib/library/winnt.387/mf_r.dll/math387r.lib(_i_gcvt_.asm)
6ff017e4       _gcvt_
Module: /mnt/sda5/.user/root/src/openwatcom-1.9/bld/mathlib/library/winnt.387/mf_r.dll/math387r.lib(gcvt.c)
6ff017e9       gcvt_
Module: /mnt/sda5/.user/root/src/openwatcom-1.9/bld/mathlib/library/winnt.387/mf_r.dll/math387r.lib(hypot.c)
6ff018e8       hypot_
Module: /mnt/sda5/.user/root/src/openwatcom-1.9/bld/mathlib/library/winnt.387/mf_r.dll/math387r.lib(fabs87)
6ff01900       fabs_
6ff0190d       IF@DABS
6ff0190d       IF@ABS
Module: /mnt/sda5/.user/root/src/openwatcom-1.9/bld/mathlib/library/winnt.387/mf_r.dll/math387r.lib(acos87)
6ff0194f       acos_
6ff01910       IF@DACOS
6ff01910       IF@ACOS
Module: /mnt/sda5/.user/root/src/openwatcom-1.9/bld/mathlib/library/winnt.387/mf_r.dll/math387r.lib(acosh87)
6ff01996       acosh_
6ff0195c       IF@DACOSH
6ff0195c       IF@ACOSH
Module: /mnt/sda5/.user/root/src/openwatcom-1.9/bld/mathlib/library/winnt.387/mf_r.dll/math387r.lib(asin87)
6ff019bf       asin_
6ff019a4       IF@DASIN
6ff019a4       IF@ASIN
Module: /mnt/sda5/.user/root/src/openwatcom-1.9/bld/mathlib/library/winnt.387/mf_r.dll/math387r.lib(asinh87)
6ff019fd       asinh_
6ff019cc       IF@DASINH
6ff019cc       IF@ASINH
Module: /mnt/sda5/.user/root/src/openwatcom-1.9/bld/mathlib/library/winnt.387/mf_r.dll/math387r.lib(atan87)
6ff01a36       atan_
6ff01a42       atan2_
6ff01a0c       IF@ATAN
6ff01a0c       IF@DATAN
6ff01a21       IF@ATAN2
6ff01a21       IF@DATAN2
Module: /mnt/sda5/.user/root/src/openwatcom-1.9/bld/mathlib/library/winnt.387/mf_r.dll/math387r.lib(atanh87)
6ff01aab       atanh_
6ff01a54       IF@DATANH
6ff01a54       IF@ATANH
Module: /mnt/sda5/.user/root/src/openwatcom-1.9/bld/mathlib/library/winnt.387/mf_r.dll/math387r.lib(divc16.c)
6ff01ab7       IF@C16Div
Module: /mnt/sda5/.user/root/src/openwatcom-1.9/bld/mathlib/library/winnt.387/mf_r.dll/math387r.lib(mulc16.c)
6ff01bd0       IF@C16Mul
Module: /mnt/sda5/.user/root/src/openwatcom-1.9/bld/mathlib/library/winnt.387/mf_r.dll/math387r.lib(powc16.c)
6ff01c20       IF@C16Pow
Module: /mnt/sda5/.user/root/src/openwatcom-1.9/bld/mathlib/library/winnt.387/mf_r.dll/math387r.lib(powic16.c)
6ff01d79       IF@C16PowI
Module: /mnt/sda5/.user/root/src/openwatcom-1.9/bld/mathlib/library/winnt.387/mf_r.dll/math387r.lib(divc20.c)
6ff01f2b       IF@C32Div
Module: /mnt/sda5/.user/root/src/openwatcom-1.9/bld/mathlib/library/winnt.387/mf_r.dll/math387r.lib(mulc20.c)
6ff02044       IF@C32Mul
Module: /mnt/sda5/.user/root/src/openwatcom-1.9/bld/mathlib/library/winnt.387/mf_r.dll/math387r.lib(powc20.c)
6ff02094       IF@C32Pow
Module: /mnt/sda5/.user/root/src/openwatcom-1.9/bld/mathlib/library/winnt.387/mf_r.dll/math387r.lib(powic32.c)
6ff020e8       IF@C32PowI
Module: /mnt/sda5/.user/root/src/openwatcom-1.9/bld/mathlib/library/winnt.387/mf_r.dll/math387r.lib(divc8.c)
6ff02130       IF@C8Div
Module: /mnt/sda5/.user/root/src/openwatcom-1.9/bld/mathlib/library/winnt.387/mf_r.dll/math387r.lib(mulc8.c)
6ff0221b       IF@C8Mul
Module: /mnt/sda5/.user/root/src/openwatcom-1.9/bld/mathlib/library/winnt.387/mf_r.dll/math387r.lib(powc8.c)
6ff02269       IF@C8Pow
Module: /mnt/sda5/.user/root/src/openwatcom-1.9/bld/mathlib/library/winnt.387/mf_r.dll/math387r.lib(powic8.c)
6ff02372       IF@C8PowI
Module: /mnt/sda5/.user/root/src/openwatcom-1.9/bld/mathlib/library/winnt.387/mf_r.dll/math387r.lib(ifcdabs.c)
6ff024dc       IF@CDABS
Module: /mnt/sda5/.user/root/src/openwatcom-1.9/bld/mathlib/library/winnt.387/mf_r.dll/math387r.lib(ifcdcos.c)
6ff02599       IF@CDCOS
Module: /mnt/sda5/.user/root/src/openwatcom-1.9/bld/mathlib/library/winnt.387/mf_r.dll/math387r.lib(ifcdexp.c)
6ff025eb       IF@CDEXP
Module: /mnt/sda5/.user/root/src/openwatcom-1.9/bld/mathlib/library/winnt.387/mf_r.dll/math387r.lib(ifcdlog.c)
6ff02647       IF@CDLOG
Module: /mnt/sda5/.user/root/src/openwatcom-1.9/bld/mathlib/library/winnt.387/mf_r.dll/math387r.lib(ifcdsin.c)
6ff02691       IF@CDSIN
Module: /mnt/sda5/.user/root/src/openwatcom-1.9/bld/mathlib/library/winnt.387/mf_r.dll/math387r.lib(ifcdsqrt.c)
6ff026e1       IF@CDSQRT
Module: /mnt/sda5/.user/root/src/openwatcom-1.9/bld/mathlib/library/winnt.387/mf_r.dll/math387r.lib(trig87)
6ff02951       sin_
6ff02945       cos_
6ff02972       tan_
6ff02904       IF@COS
6ff02904       IF@DCOS
6ff0290e       IF@SIN
6ff0290e       IF@DSIN
6ff0295d       IF@TAN
6ff0295d       IF@DTAN
Module: /mnt/sda5/.user/root/src/openwatcom-1.9/bld/mathlib/library/winnt.387/mf_r.dll/math387r.lib(trigh87)
6ff02a7e       sinh_
6ff02a72       cosh_
6ff02a8a       tanh_
6ff02980       IF@DSINH
6ff02980       IF@SINH
6ff029b4       IF@DCOSH
6ff029b4       IF@COSH
6ff029ee       IF@DTANH
6ff029ee       IF@TANH
Module: /mnt/sda5/.user/root/src/openwatcom-1.9/bld/mathlib/library/winnt.387/mf_r.dll/math387r.lib(cotan87)
6ff02a98       IF@DCOTAN
6ff02a98       IF@COTAN
Module: /mnt/sda5/.user/root/src/openwatcom-1.9/bld/mathlib/library/winnt.387/mf_r.dll/math387r.lib(fmod87)
6ff02adf       fmod_
6ff02ac4       IF@DFMOD
6ff02ac4       IF@FMOD
Module: /mnt/sda5/.user/root/src/openwatcom-1.9/bld/mathlib/library/winnt.387/mf_r.dll/math387r.lib(log87)
6ff02b44       log_
6ff02b5c       log2_
6ff02b50       log10_
6ff02af0       IF@LOG
6ff02af0       IF@DLOG
6ff02b30       IF@LOG2
6ff02b30       IF@DLOG2
6ff02b3a       IF@LOG10
6ff02b3a       IF@DLOG10
Module: /mnt/sda5/.user/root/src/openwatcom-1.9/bld/mathlib/library/winnt.387/mf_r.dll/math387r.lib(pow87)
6ff02cc1       pow_
6ff02b68       IF@DPOW
6ff02b68       IF@POW
Module: /mnt/sda5/.user/root/src/openwatcom-1.9/bld/mathlib/library/winnt.387/mf_r.dll/math387r.lib(powri.c)
6ff02cd1       IF@POWI
6ff02ce6       IF@DPOWI
6ff02dc7       IF@PowRI
Module: /mnt/sda5/.user/root/src/openwatcom-1.9/bld/mathlib/library/winnt.387/mf_r.dll/math387r.lib(powii.c)
6ff02dd8       IF@IPOW
6ff02dd8       IF@PowII
Module: /mnt/sda5/.user/root/src/openwatcom-1.9/bld/mathlib/library/winnt.387/mf_r.dll/math387r.lib(powrr.c)
6ff02e63       IF@PowRR
Module: /mnt/sda5/.user/root/src/openwatcom-1.9/bld/mathlib/library/winnt.387/mf_r.dll/math387r.lib(powxi.c)
6ff02ec0       IF@PowXI
Module: /mnt/sda5/.user/root/src/openwatcom-1.9/bld/mathlib/library/winnt.387/mf_r.dll/math387r.lib(j0.c)
6ff0300a       __P0P
6ff03032       __P0Q
6ff03062       __Q0P
6ff0308a       __Q0Q
6ff030ba       j0_
Module: /mnt/sda5/.user/root/src/openwatcom-1.9/bld/mathlib/library/winnt.387/mf_r.dll/math387r.lib(j1.c)
6ff032aa       __P1P
6ff032d2       __P1Q
6ff03302       __Q1P
6ff0332a       __Q1Q
6ff03352       j1_
Module: /mnt/sda5/.user/root/src/openwatcom-1.9/bld/mathlib/library/winnt.387/mf_r.dll/math387r.lib(jn.c)
6ff034d6       jn_
Module: /mnt/sda5/.user/root/src/openwatcom-1.9/bld/mathlib/library/winnt.387/mf_r.dll/math387r.lib(ldcvt.c)
6ff037ce       _LDScale10x_
6ff03d77       __LDcvt_
Module: /mnt/sda5/.user/root/src/openwatcom-1.9/bld/mathlib/library/winnt.387/mf_r.dll/math387r.lib(ldexp.c)
6ff041c4       ldexp_
Module: /mnt/sda5/.user/root/src/openwatcom-1.9/bld/mathlib/library/winnt.387/mf_r.dll/math387r.lib(math2err.c)
6ff042ef       __math1err_
6ff042f9       __math2err_
Module: /mnt/sda5/.user/root/src/openwatcom-1.9/bld/mathlib/library/winnt.387/mf_r.dll/math387r.lib(__mtherr)
6ff043f4       __matherr
Module: /mnt/sda5/.user/root/src/openwatcom-1.9/bld/mathlib/library/winnt.387/mf_r.dll/math387r.lib(_matherr.c)
6ff0449f       _set_matherr_
6ff044a5       __rterrmsg_
6ff044f2       _matherr_
6ff08220+      ___matherr_handler
Module: /mnt/sda5/.user/root/src/openwatcom-1.9/bld/mathlib/library/winnt.387/mf_r.dll/math387r.lib(matherr.c)
6ff04525       matherr_
Module: /mnt/sda5/.user/root/src/openwatcom-1.9/bld/mathlib/library/winnt.387/mf_r.dll/math387r.lib(qmatherr.c)
6ff04594       __qmath1err_
6ff045bc       __qmath2err_
Module: /mnt/sda5/.user/root/src/openwatcom-1.9/bld/mathlib/library/winnt.387/mf_r.dll/math387r.lib(strtod.c)
6ff04b68       __Strtold_
6ff04ccf       strtod_
Module: /mnt/sda5/.user/root/src/openwatcom-1.9/bld/mathlib/library/winnt.387/mf_r.dll/math387r.lib(_iwtof__.asm)
6ff04e1c       _watof_
Module: /mnt/sda5/.user/root/src/openwatcom-1.9/bld/mathlib/library/winnt.387/mf_r.dll/math387r.lib(_ustrtod.c)
6ff053fc       __wStrtold_
6ff05589       wcstod_
Module: /mnt/sda5/.user/root/src/openwatcom-1.9/bld/mathlib/library/winnt.387/mf_r.dll/math387r.lib(_uefcvt.c)
6ff0570a       _wecvt_
6ff0574e       _wfcvt_
Module: /mnt/sda5/.user/root/src/openwatcom-1.9/bld/mathlib/library/winnt.387/mf_r.dll/math387r.lib(_ugcvt.c)
6ff05795       _wgcvt_
Module: /mnt/sda5/.user/root/src/openwatcom-1.9/bld/mathlib/library/winnt.387/mf_r.dll/math387r.lib(_uatof.c)
6ff057c1       _wtof_
Module: /mnt/sda5/.user/root/src/openwatcom-1.9/bld/mathlib/library/winnt.387/mf_r.dll/math387r.lib(y0.c)
6ff05853       y0_
Module: /mnt/sda5/.user/root/src/openwatcom-1.9/bld/mathlib/library/winnt.387/mf_r.dll/math387r.lib(y1.c)
6ff05a87       y1_
Module: /mnt/sda5/.user/root/src/openwatcom-1.9/bld/mathlib/library/winnt.387/mf_r.dll/math387r.lib(yn.c)
6ff05c5d       yn_
Module: /mnt/sda5/.user/root/src/openwatcom-1.9/bld/mathlib/library/winnt.387/mf_r.dll/math387r.lib(bufld386)
6ff05d30       __ZBuf2LD
Module: /mnt/sda5/.user/root/src/openwatcom-1.9/bld/mathlib/library/winnt.387/mf_r.dll/math387r.lib(zmatherr.c)
6ff05e3f       __zmath1err_
6ff05e65       __zmath2err_
Module: /mnt/sda5/.user/root/src/openwatcom-1.9/bld/mathlib/library/winnt.387/mf_r.dll/math387r.lib(modf87)
6ff05eb0       modf_
Module: /mnt/sda5/.user/root/src/openwatcom-1.9/bld/mathlib/library/winnt.387/mf_r.dll/math387r.lib(trigl87)
6ff05ecc       _cosl_
6ff05ed8       _sinl_
6ff05ee4       _tanl_
Module: ../../../clib/winnt.386/mf_r/clbrdll.lib(dmndwnt.c)
6ff05f00       __LibMain@12
Module: ../../../clib/winnt.386/mf_r/clbrdll.lib(segdefns)
6ff01003       ___begtext
6ff08000*      __nullarea
6ff082e0       __Start_XI
6ff082e0       __End_XI
6ff082e0       __Start_YI
6ff082e0       __End_YI
Module: /mnt/sda5/.user/root/src/openwatcom-1.9/bld/mathlib/library/winnt.387/mf_r.dll/math387r.lib(math87e.c)
6ff06052       __math87_err_
Module: /mnt/sda5/.user/root/src/openwatcom-1.9/bld/mathlib/library/winnt.387/mf_r.dll/math387r.lib(cvt.c)
6ff060bd       __cvt_
Module: /mnt/sda5/.user/root/src/openwatcom-1.9/bld/mathlib/library/winnt.387/mf_r.dll/math387r.lib(log87e.c)
6ff0613d       __log87_err_
Module: /mnt/sda5/.user/root/src/openwatcom-1.9/bld/mathlib/library/winnt.387/mf_r.dll/math387r.lib(pow87e.c)
6ff06172       __pow87_err_
Module: ../../../clib/winnt.386/mf_r/clbrdll.lib(initrtns.c)
6ff06210       __InitRtns
6ff06260       __FiniRtns
Module: ../../../clib/winnt.386/mf_r/clbrdll.lib(rdllmwnt.c)
6ff082dc       __pRawDllMain
Module: ../../../clib/winnt.386/mf_r/clbrdll.lib(ddgrpwnt.c)
6ff063b0       __disallow_single_dgroup_
Module: ../../../clib/winnt.386/mf_r/clbrdll.lib(dllnmwnt.c)
6ff09708       ___Is_DLL
6ff0970c       __LpwDllName
6ff09710       __LpDllName
Module: ../../../clib/winnt.386/mf_r/clbrdll.lib(dcinit.c)
6ff06480       __CommonInit_
Module: ../../../clib/winnt.386/mf_r/clbrdll.lib(dosseg)
00001234       __DOSseg__


                        +----------------------+
                        |   Imported Symbols   |
                        +----------------------+

Symbol                              Module
======                              ======

__8087                              clbr19.dll
__CVTBuffer_                        clbr19.dll
_LDisDouble_                        clbr19.dll
__chipbug                           clbr19.dll
__fpatan_wrap                       clbr19.dll
__fdiv_fpr                          clbr19.dll
__fdiv_m64r                         clbr19.dll
__fdiv_m32r                         clbr19.dll
__fptan_chk                         clbr19.dll
__fprem_chk                         clbr19.dll
__real87                            clbr19.dll
__fdiv_m64                          clbr19.dll
__IsTable_br                        clbr19.dll
memset_                             clbr19.dll
__set_ERANGE_                       clbr19.dll
__HugeValue_br                      clbr19.dll
__get_std_stream_                   clbr19.dll
fputs_                              clbr19.dll
fputc_                              clbr19.dll
__set_EDOM_                         clbr19.dll
tolower_                            clbr19.dll
wcstombs_                           clbr19.dll
_atouni_                            clbr19.dll
_GetModuleFileNameA@12              KERNEL32.DLL
__lib_GetModuleFileNameW_           clbr19.dll
___sig_init_rtn                     clbr19.dll
_MessageBoxA@16                     USER32.DLL


                        +--------------------+
                        |   Libraries Used   |
                        +--------------------+

/mnt/sda5/.user/root/src/openwatcom-1.9/rel2/lib386/nt/kernel32.lib
/mnt/sda5/.user/root/src/openwatcom-1.9/rel2/lib386/nt/user32.lib
/mnt/sda5/.user/root/src/openwatcom-1.9/bld/mathlib/library/winnt.387/mf_r.dll/math387r.lib
../../../clib/winnt.386/mf_r/clbrdll.lib


                        +-----------------------+
                        |   Linker Statistics   |
                        +-----------------------+

Stack size:  0000 (0.)
Memory size:  6f30 (28464.)
Entry point address: 6ff01018
Link time: 00:00.00
