Open Watcom Linker Version 1.9
Portions Copyright (c) 1985-2002 Sybase, Inc. All Rights Reserved.
Created on:       12/12/16 02:40:44
Executable Image: mapsym.dip
creating a Phar Lap relocatable executable


                        +------------+
                        |   Groups   |
                        +------------+

Group                           Address              Size
=====                           =======              ====

DGROUP                          00001404             00001128



                        +--------------+
                        |   Segments   |
                        +--------------+

Segment                Class          Group          Address         Size
=======                =====          =====          =======         ====

_TEXT                  CODE           AUTO           00000000        00001403
CONST                  DATA           DGROUP         00001404        0000000c
CONST2                 DATA           DGROUP         00001410        00000008
_DATA                  DATA           DGROUP         00001418        000000f8
_BSS                   BSS            DGROUP         00001510        0000101c


                        +----------------+
                        |   Memory Map   |
                        +----------------+

* = unreferenced symbol
+ = symbol only referenced locally

Address        Symbol
=======        ======

Module: dipimp.obj(/mnt/sda5/.user/root/src/openwatcom-1.9/bld/dip/c/dipimp.c)
00000000*      _Signature
00000010*      DIPLOAD
00000040       DCAlloc_
00000050*      DCAllocZ_
00000080*      DCRealloc_
00000090       DCFree_
000000a0       DCMapAddr_
000000b0       DCSymCreate_
000000c0*      DCItemLocation_
000000d0*      DCAssignLocation_
000000e0*      DCSameAddrSpace_
00000110       DCAddrSection_
00000120*      DCOpen_
00000130       DCSeek_
00000140       DCRead_
00000150*      DCReadAt_
000001b0*      DCWrite_
000001c0       DCClose_
000001d0*      DCRemove_
000001e0       DCStatus_
000001f0*      DCCurrMAD_
00000210*      DCMachineData_
00000260+      DIPImpOldTypeBase_
00001418+      _ImpInterface
00001510       _NilAddr
00001518+      _Client
Module: msymmisc.obj(/mnt/sda5/.user/root/src/openwatcom-1.9/bld/dip/mapsym/c/msymmisc.c)
00000270       DIPImpQueryHandleSize_
00000280       DIPImpMoreMem_
00000290       DIPImpStartup_
000002a0       DIPImpCancel_
000002a0       DIPImpShutdown_
00001410       _DIPImpName
Module: msymld.obj(/mnt/sda5/.user/root/src/openwatcom-1.9/bld/dip/mapsym/c/msymld.c)
000002b0+      BSeek_
00000330+      BRead_
000004e0       DIPImpUnloadInfo_
00000510       FindAddrBlock_
00000b50       DIPImpLoadInfo_
00000bd0       DIPImpMapInfo_
00002528*      __nullarea
Module: msymmod.obj(/mnt/sda5/.user/root/src/openwatcom-1.9/bld/dip/mapsym/c/msymmod.c)
00000c10       DIPImpWalkModList_
00000c20       DIPImpModName_
00000c60       DIPImpModSrcLang_
00000c70       DIPImpModDefault_
00000c70       DIPImpModInfo_
00000c80       DIPImpAddrMod_
00000cb0       DIPImpModAddr_
Module: msymtype.obj(/mnt/sda5/.user/root/src/openwatcom-1.9/bld/dip/mapsym/c/msymtype.c)
00000d20       DIPImpWalkTypeList_
00000d30       DIPImpTypePtrAddrSpace_
00000d30       DIPImpTypeMod_
00000d40       DIPImpTypeInfo_
00000d60       DIPImpTypeBase_
00000d70       DIPImpTypeArrayInfo_
00000da0       DIPImpTypeThunkAdjust_
00000dc0       DIPImpTypeProcInfo_
00000dd0       DIPImpTypeCmp_
00000de0       DIPImpTypeName_
00000df0       DIPImpTypeFreeAll_
00000df0       DIPImpTypeRelease_
00000df0       DIPImpTypeAddRef_
Module: msymsym.obj(/mnt/sda5/.user/root/src/openwatcom-1.9/bld/dip/mapsym/c/msymsym.c)
00000e00+      DoWalkSymList_
00000e50       DIPImpWalkSymList_
00000e70       DIPImpWalkSymListEx_
00000e90       DIPImpSymObjLocation_
00000e90       DIPImpSymObjType_
00000e90       DIPImpSymValue_
00000e90       DIPImpSymMod_
00000ea0       DIPImpSymName_
00000f00       DIPImpSymType_
00000f30       DIPImpSymLocation_
00000f60       DIPImpSymInfo_
00000fb0       DIPImpSymParmLocation_
00000fc0       DIPImpAddrSym_
00001030+      DoLookupSym_
000010a0       DIPImpLookupSym_
000010c0       DIPImpLookupSymEx_
000010e0       DIPImpAddrScope_
000010f0       DIPImpScopeOuter_
00001100       DIPImpSymCmp_
00001110       DIPImpSymFreeAll_
00001110       DIPImpSymRelease_
00001110       DIPImpSymAddRef_
Module: msymcue.obj(/mnt/sda5/.user/root/src/openwatcom-1.9/bld/dip/mapsym/c/msymcue.c)
00001120       DIPImpWalkFileList_
00001130       DIPImpCueCmp_
00001130       DIPImpCueColumn_
00001130       DIPImpCueLine_
00001130       DIPImpCueFileId_
00001130       DIPImpCueFile_
00001130       DIPImpCueMod_
00001140       DIPImpCueAdjust_
00001150       DIPImpCueAddr_
00001180       DIPImpLineCue_
00001190       DIPImpAddrCue_
Module: /mnt/sda5/.user/root/src/openwatcom-1.9/rel2/lib386/dos/clib3r.lib(memset.c)
000011a0       memset_
Module: /mnt/sda5/.user/root/src/openwatcom-1.9/rel2/lib386/dos/clib3r.lib(_strcmp)
000011c0       strcmp_
Module: /mnt/sda5/.user/root/src/openwatcom-1.9/rel2/lib386/dos/clib3r.lib(memcmp.c)
00001300       memcmp_
Module: /mnt/sda5/.user/root/src/openwatcom-1.9/rel2/lib386/dos/clib3r.lib(memicmp.c)
00001320       memicmp_
Module: /mnt/sda5/.user/root/src/openwatcom-1.9/rel2/lib386/dos/clib3r.lib(__stos)
00001360       __STOSB
00001397*      __STOSD


                        +--------------------+
                        |   Libraries Used   |
                        +--------------------+

/mnt/sda5/.user/root/src/openwatcom-1.9/rel2/lib386/dos/clib3r.lib


                        +-----------------------+
                        |   Linker Statistics   |
                        +-----------------------+

Stack size:  1000 (4096.)
Memory size:  252c (9516.)
Entry point address: 00000000
Link time: 00:00.00
