Open Watcom Linker Version 1.9
Portions Copyright (c) 1985-2002 Sybase, Inc. All Rights Reserved.
Created on:       12/12/16 02:39:59
Executable Image: nov.trp
creating a DOS executable


                        +------------+
                        |   Groups   |
                        +------------+

Group                           Address              Size
=====                           =======              ====

dgroup                          0000:0000            000032ec



                        +--------------+
                        |   Segments   |
                        +--------------+

Segment                Class          Group          Address         Size
=======                =====          =====          =======         ====

_TEXT                  CODE           dgroup         0000:0000       00000fd2
_DATA                  DATA           dgroup         00fd:0002       0000000a
CONST                  DATA           dgroup         00fd:000c       00000068
CONST2                 DATA           dgroup         0104:0004       00000000
_BSS                   BSS            dgroup         0105:0000       0000129c
STACK                  STACK          dgroup         022e:000c       00001000


                        +----------------+
                        |   Memory Map   |
                        +----------------+

* = unreferenced symbol
+ = symbol only referenced locally

Address        Symbol
=======        ======

Module: dosstrt.obj(TRAPSTRT)
0000:0000      _small_code_
Module: mxutil.obj(/mnt/sda5/.user/root/src/openwatcom-1.9/bld/trap/common/mxutil.c)
0000:0040*     GetInPtr_
0000:006c      GetOutPtr_
0000:0098*     GetTotalSize_
0000:1050      _In_Mx_Ptr
0000:1054      _Out_Mx_Ptr
0000:1058      _Out_Mx_Num
0000:1059      _In_Mx_Num
Module: remote.obj(/mnt/sda5/.user/root/src/openwatcom-1.9/bld/trap/common/remote.c)
0000:021e      TrapInit_
0000:02b4      TrapRequest_
0000:032c      TrapFini_
Module: packet.obj(/mnt/sda5/.user/root/src/openwatcom-1.9/bld/trap/common/packet.c)
0000:0340      StartPacket_
0000:034c      PutPacket_
0000:036e*     PutBuffPacket_
0000:038a      AddPacket_
0000:03d4      GetPacket_
0000:03ee      RemovePacket_
0000:043a*     GetPacketBuffPtr_
0000:044a      MaxPacketSize_
Module: novlink.obj(/mnt/sda5/.user/root/src/openwatcom-1.9/bld/trap/nov/c/novlink.c)
0000:145a*     _nothing_really_common
Module: novdos.obj(/mnt/sda5/.user/root/src/openwatcom-1.9/bld/trap/nov/c/novdos.c)
0000:1460+     _SAPECB
0000:1490+     _RespECB
0000:14c0+     _SAPHead
0000:1520+     _Buffer
0000:1f20+     _ServECB
0000:1f50+     _SendECB
0000:1f80+     _RecECB
0000:2070+     _ConnECB
0000:20a0*     _ServRespESRAddr
0000:20a4+     _SAPWaitESRAddr
0000:20a8+     _SAPBroadESRAddr
0000:20ac+     _RespHead
0000:20ca+     _ServHead
0000:20e8+     _SendHead
0000:0552      RemoteGet_
0000:06dc      RemotePut_
0000:074c      RemoteConnect_
0000:07e6      RemoteDisco_
0000:093e      SAPWait_
0000:095c      SAPBroad_
0000:0982      ServResp_
0000:0b10      RemoteLink_
0000:0cb2      RemoteUnLink_
0000:0fd4+     _DefLinkName
0000:2112+     _RecHead
0000:21e4+     _ConnHead
0000:220e+     _IPXSocket
0000:2210+     _Connection
0000:2212+     _SPXSocket
0000:2214+     _PartnerSPXSocket
0000:2216*     _ServDummy
0000:2217+     _Listening
Module: spx.obj(SPX)
0000:0cc8      SPXInitialize_
0000:0d15      _SPXEstablishConnection_
0000:0d3f*     _SPXListenForConnection_
0000:0d5e      _SPXTerminateConnection_
0000:0d7f      _SPXAbortConnection_
0000:0d96      _SPXSendSequencedPacket_
0000:0db7      _SPXListenForSequencedPacket_
0000:0dd8*     _SPXGetConnectionStatus_
Module: ipx.obj(IPX)
0000:0dfe      IPXLoc
0000:0e02*     SAPWaitESR_
0000:0e0c*     SAPBroadESR_
0000:0e16*     ServRespESR_
0000:0e23      _IPXInitialize_
0000:0e77      _IPXOpenSocket_
0000:0e9c      _IPXCloseSocket_
0000:0eb5      _IPXGetLocalTarget_
0000:0ede      _IPXSendPacket_
0000:0efb      _IPXListenForPacket_
0000:0f18      _IPXScheduleIPXEvent_
0000:0f35      _IPXCancelEvent_
0000:0f56      _IPXGetIntervalMarker_
0000:0f6d*     _IPXGetInternetworkAddress_
0000:0f8c      _IPXRelinquishControl_
0000:0fa5      _IPXDisconnectFromTarget_
Module: /mnt/sda5/.user/root/src/openwatcom-1.9/rel2/lib286/dos/clibc.lib(toupper.c)
0000:0fc4      toupper_


                        +--------------------+
                        |   Libraries Used   |
                        +--------------------+

/mnt/sda5/.user/root/src/openwatcom-1.9/rel2/lib286/dos/clibc.lib


                        +-----------------------+
                        |   Linker Statistics   |
                        +-----------------------+

Stack size:  1000 (4096.)
Memory size:  32ec (13036.)
Entry point address: 0000:002d
Link time: 00:00.00
