Open Watcom Linker Version 1.9
Portions Copyright (c) 1985-2002 Sybase, Inc. All Rights Reserved.
Created on:       12/12/16 02:42:28
Executable Image: wprof.exe
creating an OS/2 32-bit Presentation Manager executable


                        +------------+
                        |   Groups   |
                        +------------+

Group                           Address              Size
=====                           =======              ====

DGROUP                          0002:00000000        0000c090



                        +--------------+
                        |   Segments   |
                        +--------------+

Segment                Class          Group          Address         Size
=======                =====          =====          =======         ====

BEGTEXT                CODE           AUTO           0001:00000000   00000007
_TEXT                  CODE           AUTO           0001:00000010   00034142
_NULL                  BEGDATA        DGROUP         0002:00000000   00000004
_AFTERNULL             BEGDATA        DGROUP         0002:00000004   00000000
CONST                  DATA           DGROUP         0002:00000004   00000080
CONST2                 DATA           DGROUP         0002:00000084   00000000
_DATA                  DATA           DGROUP         0002:00000084   00001a34
XIB                    DATA           DGROUP         0002:00001ab8   00000000
XI                     DATA           DGROUP         0002:00001ab8   0000003c
XIE                    DATA           DGROUP         0002:00001af4   00000000
YIB                    DATA           DGROUP         0002:00001af4   00000000
YI                     DATA           DGROUP         0002:00001af4   0000001e
YIE                    DATA           DGROUP         0002:00001b12   00000000
TIB                    DATA           DGROUP         0002:00001b12   00000000
TI                     DATA           DGROUP         0002:00001b12   00000000
TIE                    DATA           DGROUP         0002:00001b12   00000000
DATA                   DATA           DGROUP         0002:00001b12   00000000
_BSS                   BSS            DGROUP         0002:00001b14   0000257c
STACK                  STACK          DGROUP         0002:00004090   00008000


                        +----------------+
                        |   Memory Map   |
                        +----------------+

* = unreferenced symbol
+ = symbol only referenced locally

Address        Symbol
=======        ======

Module: srcmgt.obj(/mnt/sda5/.user/root/src/openwatcom-1.9/bld/watcom/c/srcmgt.c)
0001:000000a0* FClearOpenSourceCache_
0001:000000c0  FOpenSource_
0001:00000150* FSize_
0001:00000180* FLastOffset_
0001:000001a0* FileIsRemote_
0001:000001b0* FGetName_
0001:000001c0  FDoneSource_
0001:000003d0* FCurrLine_
0001:000003e0  FReadLine_
0002:00000084+ _FileList
Module: aboutmsg.obj(/mnt/sda5/.user/root/src/openwatcom-1.9/bld/wprof/c/aboutmsg.c)
0001:00000530  AboutOpen_
0001:00000580  AboutClose_
0001:00000620* AboutSetOff_
0001:00000640  DlgAbout_
0002:00000090+ _AboutInfo
Module: clrsamps.obj(/mnt/sda5/.user/root/src/openwatcom-1.9/bld/wprof/c/clrsamps.c)
0001:00000700  ClearMassaged_
0001:00000760  ClearRoutineInfo_
0001:000007c0  ClearFileInfo_
0001:00000820  ClearModuleInfo_
0001:00000880  ClearSample_
0001:00000a80* ClearAllSamples_
Module: dipinter.obj(/mnt/sda5/.user/root/src/openwatcom-1.9/bld/wprof/c/dipinter.c)
0001:00000cb0  DIPCliImageUnload_
0001:00000cc0  DIPCliMapAddr_
0001:00000cd0  DIPCliSymCreate_
0001:00000ce0  DIPCliItemLocation_
0001:00000cf0  DIPCliAssignLocation_
0001:00000d00  DIPCliSameAddrSpace_
0001:00000d90  DIPCliAddrSection_
0001:00000da0  DIPCliStatus_
0001:00000db0  DIPCliCurrMAD_
0001:00000dc0  WPDipInit_
0001:00000e40  WPDipProc_
0001:00000e50  WPDipDestroyProc_
0001:00000e60  WPDipSetProc_
0001:00000e70  WPDipLoadInfo_
0001:00000f10  WPDipFini_
Module: diginter.obj(/mnt/sda5/.user/root/src/openwatcom-1.9/bld/wprof/c/diginter.c)
0001:00000fa0  DIGCliAlloc_
0001:00000fb0  DIGCliRealloc_
0001:00000fc0  DIGCliFree_
0001:00000fd0  DIGCliOpen_
0001:00001010  DIGCliSeek_
0001:00001020  DIGCliRead_
0001:00001030  DIGCliWrite_
0001:00001040  DIGCliClose_
0001:00001050  DIGCliRemove_
0001:00001060  DIGCliMachineData_
Module: dlgcnvt.obj(/mnt/sda5/.user/root/src/openwatcom-1.9/bld/wprof/c/dlgcnvt.c)
0002:00001b18  _ConvertFile
0001:000011a0  DlgGetConvert_
0002:00000298  _OptDIFFormat
0002:00000299+ _OptCommaFormat
Module: dlgoptn.obj(/mnt/sda5/.user/root/src/openwatcom-1.9/bld/wprof/c/dlgoptn.c)
0001:00001520  DlgGetOptions_
0002:000004cc+ _OptStretchGlobal
0002:000004cd+ _OptAbsBarGlobal
0002:000004ce+ _OptRelBarGlobal
0002:000004cf+ _OptSortCountGlobal
0002:000004d0+ _OptSortNameGlobal
0002:000004d1+ _OptGatherGlobal
0002:000004d4  _OptGatherCut
Module: dlgsamp.obj(/mnt/sda5/.user/root/src/openwatcom-1.9/bld/wprof/c/dlgsamp.c)
0001:00001890  WPSampFound_
0001:00001930  DlgOpenSample_
Module: getsamps.obj(/mnt/sda5/.user/root/src/openwatcom-1.9/bld/wprof/c/getsamps.c)
0001:00002290  GetSampleInfo_
0002:00001c20  _SIOData
0002:00001c24  _CurrSIOData
Module: madinter.obj(/mnt/sda5/.user/root/src/openwatcom-1.9/bld/wprof/c/madinter.c)
0001:000025e0  MADCliAddrSection_
0001:000025f0  MADCliAddString_
0001:000025f0  MADCliMemExpr_
0001:000025f0  MADCliAddrOvlReturn_
0001:00002600  MADCliAddrToString_
0001:000026a0  MADCliReadMem_
0001:000026e0  MADCliWriteMem_
0001:000026f0  MADCliString_
0001:00002740  MADCliRadixPrefix_
0001:00002760  MADCliNotify_
0001:00002780  MADCliSystemConfig_
0001:00002790  InitMADInfo_
0001:000027b0  FiniMADInfo_
0001:000027e0+ ReportMADFailure_
0001:00002920  SetCurrentMAD_
0002:000004dc  _DefSysConfig
0002:00001c28+ _MADStatus
Module: memutil.obj(/mnt/sda5/.user/root/src/openwatcom-1.9/bld/wprof/c/memutil.c)
0001:000029c0  ProfAlloc_
0001:000029c0  WndAlloc_
0001:000029d0  WndNoMemory_
0001:000029e0  WndFree_
0001:000029e0  ProfFree_
0001:000029f0  ProfRealloc_
0001:000029f0  WndRealloc_
0001:00002a10  ProfCAlloc_
0001:00002a30* WndMemFini_
0001:00002a30* WndMemInit_
Module: msg.obj(/mnt/sda5/.user/root/src/openwatcom-1.9/bld/wprof/c/msg.c)
0001:00002c30  ErrorMsg_
0001:00002c50  fatal_
Module: msgstr.obj(/mnt/sda5/.user/root/src/openwatcom-1.9/bld/wprof/c/msgstr.c)
0001:00002c90  __Literal_Assertion_Failed
0001:00002ca3  __Literal_Cannot_Open_Smp_File
0001:00002cbf  __Literal_Cannot_Process_Ovly
0001:00002ceb  __Literal_Dip_Find_Failed
0001:00002d11  __Literal_Dip_Info_Failed
0001:00002d43  __Literal_Dip_Init_Failed
0001:00002d76  __Literal_Dip_Load_Failed
0001:00002d9f  __Literal_Exe_Has_Changed
0001:00002dcb  __Literal_Exe_Not_Found
0001:00002de6  __Literal_Incompat_Smp_File
0001:00002e0a  __Literal_Incompat_Ver_Ovly
0001:00002e49  __Literal_Invalid_Smp_File
0001:00002e69  __Literal_Memfull
0001:00002e77  __Literal_Memfull_Realloc
0001:00002e93  __Literal_Smp_File_IO_Err
0001:00002eb9  __Literal_Usage
0001:00002ede  __Literal_Usage1
0001:00002f03  __Literal_Usage2
0001:00002f24  __Literal_Usage3
0001:00002f36  __Literal_Usage4
0001:00002f3d  __Literal_Usage5
0001:00002f47* __Literal_Usage6
0001:00002f5e* __Literal_Usage7
0001:00002f73* __Literal_Usage8
0001:00002f84  __Literal_Empty_Str
0001:00002f85  __Literal_File_Does_Not_Exist
0001:00002f9e* __Literal_Bad_System_Load
0001:00002fc4  __Literal_About_WPROF
0001:00002fd0  __Literal_WPROF_TITLE
0001:00002fe5  __Literal_Enter_Sample
0001:00002ffc* __Literal_OK_Str
0001:00002fff* __Literal_Cancel_Str
0001:00003006  __Literal_Unknown_Image
0001:00003017  __Literal_Unknown_Module
0001:00003029  __Literal_Unknown_File
0001:00003039  __Literal_Unknown_Routine
0001:0000304c  __Literal_Gathered_Images
0001:0000305f  __Literal_Gathered_Modules
0001:00003073  __Literal_Gathered_Files
0001:00003085  __Literal_Gathered_Routines
0001:0000309a  __Literal_No_Symbol_Info
0001:000030c0  __Literal_No_Routine_Names
0001:000030e0  __Literal_Src_File_Not_Found
0001:000030fb  __Literal_Src_File_Not_Known
0001:00003114  __Literal_Rel_Header
0001:00003119  __Literal_Abs_Header
0001:0000311e  __Literal_Sample_Data
0001:00003129* __Literal_Smp_File_Raw_Err
0001:0000315d  __Literal_Sample_Header
0001:00003167  __Literal_Image_Header
0001:00003170  __Literal_Module_Header
0001:0000317a  __Literal_File_Header
0001:00003182  __Literal_Routine_Header
0001:0000318d  __Literal_Source_Header
0001:0000319a  __Literal_Image_Names
0001:000031a6  __Literal_Module_Names
0001:000031b3  __Literal_File_Names
0001:000031be  __Literal_Routine_Names
0001:000031cc  __Literal_Source_Line
0001:000031d8  __Literal_Assembler_Instructions
0001:000031ef  __Literal_Options
0001:000031f7  __Literal_Cmd_Option_Not_Valid
0001:0000321d  __Literal_Unable_To_Open_Src
0001:00003238* __Literal_Unable_To_Open_Help
0001:00003256  __Literal_Convert_Data
0001:0000326d  __Literal_Convert_File_Name
0001:00003285  __Literal_Mad_Init_Failed
0001:000032b6  __Literal_LDS_FSEEK_FAILED
0001:000032c7  __Literal_LDS_FREAD_FAILED
0001:000032d8  __Literal_LDS_FOPEN_FAILED
0001:000032e9  __Literal_LMS_INVALID_MAD_VERSION
0001:0000330e  __Literal_LMS_INVALID_MAD
0001:00003330  __Literal_LMS_UNREGISTERED_MAD
0001:0000334d  __Literal_LMS_RECURSIVE_MAD_FAILURE
Module: rptsamps.obj(/mnt/sda5/.user/root/src/openwatcom-1.9/bld/wprof/c/rptsamps.c)
0001:000042d0  ReportSampleInfo_
Module: setsamps.obj(/mnt/sda5/.user/root/src/openwatcom-1.9/bld/wprof/c/setsamps.c)
0001:00004900  AddrCmp_
0001:00004920  GatherSetAll_
0001:00004a20  AbsSetAll_
0001:00004b90  RelSetAll_
0001:00004d00  StretchSetAll_
0001:00004e60  SortSetAll_
0001:00005850  SetSampleInfo_
Module: support.obj(/mnt/sda5/.user/root/src/openwatcom-1.9/bld/wprof/c/support.c)
0001:00005910  AsmSize_
0001:00005940  AsmFini_
0001:00005950  ExeOpen_
0001:00005960  ExeClose_
0001:00005a40  SetExeOffset_
0001:00006010  SetExeImage_
0001:00006060  SetExeFile_
0001:00006960  AddrImage_
0001:00006a30  MapAddressToActual_
0001:00006ab0+ MapAddressToMap_
0001:00006b40  MapAddressIntoSection_
0001:00007180  LoadImageOverlays_
0001:00007260  SetNumBytes_
0001:00007270  CodeAdvance_
0001:00007380  FormatAddr_
0001:00007400  GetFullInstruct_
0001:00007540  CnvAddr_
0001:000075f0  IsX86BigAddr_
0001:00007600  IsX86RealAddr_
0001:00007620  GetDataByte_
0001:00007640  EndOfSegment_
Module: utils.obj(/mnt/sda5/.user/root/src/openwatcom-1.9/bld/wprof/c/utils.c)
0001:00007670  ReplaceExt_
0001:000076d0* FindFile_
0001:000077b0  InitPaths_
0001:00007810+ AddPath_
0001:00007900  BigRead_
0001:00007910  Ring_
0002:00000624+ _HelpPathList
0002:00000628+ _FilePathList
0002:0000062c* _DipExePathList
Module: wndimain.obj(/mnt/sda5/.user/root/src/openwatcom-1.9/bld/wprof/c/wndimain.c)
0001:00007930  WndInitWndMain_
Module: wpasmfil.obj(/mnt/sda5/.user/root/src/openwatcom-1.9/bld/wprof/c/wpasmfil.c)
0001:00007950  WPGetAsmLoc_
0001:000079d0  WPAsmOpen_
0001:00007d80  WPAsmClose_
0001:00007e20  WPAsmGetLine_
0001:00007f30  WPAsmFindSrcLine_
Module: wpavals.obj(/mnt/sda5/.user/root/src/openwatcom-1.9/bld/wprof/c/wpavals.c)
0002:00000630  _WndColours
0002:00000664  _WndNumColours
0002:00000668  _WndPlainAttr
0002:00000669  _WndTabStopAttr
0002:0000066a  _WndSelectedAttr
0002:0000066b  _WndCursorAttr
0002:0000066c* _WndStatusColour
0002:00000670  _WndFlags
0002:00000674  _WndStyle
Module: wpbar.obj(/mnt/sda5/.user/root/src/openwatcom-1.9/bld/wprof/c/wpbar.c)
0001:00007f70  GetCurrentAbsBar_
0001:00007fe0  GetCurrentRelBar_
0001:00008050  GetCurrentMaxBar_
0001:000080d0  FlipCurrentAbsBar_
0001:00008190  FlipCurrentRelBar_
0001:00008250  FlipCurrentMaxBar_
Module: wpcnvt.obj(/mnt/sda5/.user/root/src/openwatcom-1.9/bld/wprof/c/wpcnvt.c)
0001:000088d0  WPConvert_
Module: wpdriver.obj(/mnt/sda5/.user/root/src/openwatcom-1.9/bld/wprof/c/wpdriver.c)
0001:00008b90  WndMainMenuProc_
0001:00008c60  OpenSample_
0002:000007e0  _WndMainMenu
0002:00000858  _WndNumMenus
Module: wpgather.obj(/mnt/sda5/.user/root/src/openwatcom-1.9/bld/wprof/c/wpgather.c)
0001:00008c90  GetCurrentGather_
0001:00008ce0  FlipCurrentGather_
0001:00008d70  GatherCurrent_
0001:00008dd0+ GatherImage_
0001:00008eb0+ GatherMod_
0001:00008f80+ GatherFile_
0001:00009050+ GatherRtn_
Module: wpgetrow.obj(/mnt/sda5/.user/root/src/openwatcom-1.9/bld/wprof/c/wpgetrow.c)
0001:00009120  SImageGetImage_
0001:00009170  SModGetModule_
0001:000091c0  SFileGetFile_
0001:00009210  SRtnGetRoutine_
0001:00009260  WPGetRow_
Module: wphelp.obj(/mnt/sda5/.user/root/src/openwatcom-1.9/bld/wprof/c/wphelp.c)
0001:00009450  WPInitHelp_
0001:00009470  WPFiniHelp_
0001:00009490  WPProcHelp_
Module: wpmain.obj(/mnt/sda5/.user/root/src/openwatcom-1.9/bld/wprof/c/wpmain.c)
0001:00009500  GUImain_
0001:00009560  WndProcMacro_
Module: wpnumrow.obj(/mnt/sda5/.user/root/src/openwatcom-1.9/bld/wprof/c/wpnumrow.c)
0001:000095b0  SampleNumRows_
Module: wppushin.obj(/mnt/sda5/.user/root/src/openwatcom-1.9/bld/wprof/c/wppushin.c)
0001:00009670* WPPopPtr_
0001:00009690  WndDoInput_
0001:000096b0+ WPPushEvent_
0001:000096e0* WPPushPtrEvent_
0001:00009720+ WPPopEvent_
Module: wpsamp.obj(/mnt/sda5/.user/root/src/openwatcom-1.9/bld/wprof/c/wpsamp.c)
0001:00009910  WPSampleOpen_
0001:0000afe0+ WPZoomIn_
0001:0000b150+ WPBackOut_
0001:0000b170  WPDoPopUp_
0001:0000b1a0  WPFindDoPopUp_
0002:000009e8+ _WPSampleInfo
Module: wpsort.obj(/mnt/sda5/.user/root/src/openwatcom-1.9/bld/wprof/c/wpsort.c)
0001:0000b500  GetCurrentSort_
0001:0000b540  SetCurrentSort_
0001:0000b5a0  SortCurrent_
0001:0000b5e0+ SortImage_
0001:0000b610+ SortMod_
0001:0000b640+ SortFile_
0001:0000b670+ SortRtn_
Module: wpstart.obj(/mnt/sda5/.user/root/src/openwatcom-1.9/bld/wprof/c/wpstart.c)
0002:00000a78  _WPWndInitDone
0002:00000a7c  _WProfDips
0001:0000b7d0  WPInit_
0001:0000b850  WPFini_
0002:00002024  _SamplePath
Module: wpsrcfil.obj(/mnt/sda5/.user/root/src/openwatcom-1.9/bld/wprof/c/wpsrcfil.c)
0001:0000bb50  WPSourceGetLine_
0001:0000bbd0  WPSourceOpen_
0001:0000bd30  WPSourceClose_
0001:0000bd60  WPGetMassgdSampData_
Module: wpwind.obj(/mnt/sda5/.user/root/src/openwatcom-1.9/bld/wprof/c/wpwind.c)
0001:0000bf80  WPGetClientHeight_
0001:0000bfa0  WPGetClientWidth_
0001:0000bfd0  WPAdjustRowHeight_
0001:0000c080  WPSetRowHeight_
0001:0000c090  WPPixelTruncWidth_
0001:0000c0b0  WPPixelWidth_
Module: dipman.obj(/mnt/sda5/.user/root/src/openwatcom-1.9/bld/dig/c/dipman.c)
0001:0000c0f0* DCSymCreate_
0001:0000c0f0+ XDIPCliSymCreate_
0001:0000c110  DIPInit_
0001:0000c160  DIPLoad_
0001:0000c1f0* DIPRegister_
0001:0000c250* DIPFiniLatest_
0001:0000c2b0  DIPFini_
0001:0000c300  DIPHandleSize_
0001:0000c320  DIPMoreMem_
0001:0000c360* DIPCancel_
0001:0000c3e0+ FindImageMapSlot_
0001:0000c510  DIPCreateProcess_
0001:0000c660  DIPSetProcess_
0001:0000c670  DIPDestroyProcess_
0001:0000c6a0  DIPPriority_
0001:0000c6f0  DIPLoadInfo_
0001:0000c800  DIPMapInfo_
0001:0000c860* DIPUnloadInfo_
0001:0000c8b0* DIPImagePriority_
0001:0000c900+ WalkImageList_
0001:0000c9c0  WalkModList_
0001:0000ca20* WalkTypeList_
0001:0000ccb0+ WalkSymListEx_
0001:0000cce0  WalkSymList_
0001:0000cd00* WalkFileList_
0001:0000cdb0  ImageExtra_
0001:0000ce00  ImageDIP_
0001:0000ce50  ModName_
0001:0000ceb0  ModSrcLang_
0001:0000cf10* ModHasInfo_
0001:0000cf80* ModDefault_
0001:0000cff0  ModAddr_
0001:0000d060* TypeMod_
0001:0000d0b0* TypeInfo_
0001:0000d150* TypeCreate_
0001:0000d170* TypePointer_
0001:0000d1f0* TypeBase_
0001:0000d2a0* TypeAddRef_
0001:0000d2f0* TypeRelease_
0001:0000d340* TypeFreeAll_
0001:0000d380* TypeArrayInfo_
0001:0000d400* TypeProcInfo_
0001:0000d460* TypePtrAddrSpace_
0001:0000d4c0* TypeThunkAdjust_
0001:0000d520* TypeCmp_
0001:0000d580* TypeName_
0001:0000d5d0* SymMod_
0001:0000d610  SymName_
0001:0000d660* SymType_
0001:0000d6b0  SymLocation_
0001:0000d6f0* SymValue_
0001:0000d730  SymInfo_
0001:0000d780* SymParmLocation_
0001:0000d7d0* SymObjType_
0001:0000d820* SymObjLocation_
0001:0000d870  SymCmp_
0001:0000d8d0* SymAddRef_
0001:0000d920* SymRelease_
0001:0000d970* SymFreeAll_
0001:0000d9b0* CueMod_
0001:0000da00  CueFile_
0001:0000da40  CueFileId_
0001:0000da80* CueAdjust_
0001:0000dae0  CueLine_
0001:0000db20* CueColumn_
0001:0000db60  CueAddr_
0001:0000dbd0  LineCue_
0001:0000dc60  AddrCue_
0001:0000dd10  CueCmp_
0001:0000dd70  AddrMod_
0001:0000de30  AddrSym_
0001:0000def0+ LookupSymEx_
0001:0000e140* LookupSym_
0001:0000e150* AddrScope_
0001:0000e1f0* ScopeOuter_
0002:00000a88  _DIPDefaults
0002:00000aae+ _DIPClientInterface
Module: dipld.obj(/mnt/sda5/.user/root/src/openwatcom-1.9/bld/dig/c/os2v2/dipld.c)
0001:0000e4a0  DIPSysLoad_
0001:0000e610  DIPSysUnload_
Module: madman.obj(/mnt/sda5/.user/root/src/openwatcom-1.9/bld/dig/c/madman.c)
0002:00000afc+ _MADClientInterface
0001:0000e7d0  MADTypeInfoForHost_
0001:0000e860  MADInit_
0001:0000e8b0  MADRegister_
0001:0000ea30  MADLoad_
0001:0000ebc0+ MADUnload_
0001:0000ec10  MADLoaded_
0001:0000ec50  MADActiveSet_
0001:0000ec80* MADStateCreate_
0001:0000ece0* MADStateSet_
0001:0000ed50* MADStateCopy_
0001:0000ed70+ MADStateDestroy_
0001:0000edc0  MADFini_
0001:0000edf0* MADWalk_
0001:0000ee20  MADNameFile_
0001:0000ee90* MADNameDescription_
0001:0000ef10  MADAddrAdd_
0001:0000ef50  MADAddrComp_
0001:0000ef80* MADAddrDiff_
0001:0000efb0* MADAddrMap_
0001:0000efc0* MADAddrFlat_
0001:0000efd0* MADAddrInterrupt_
0001:0000f000* MADTypeWalk_
0001:0000f030* MADTypeName_
0001:0000f050* MADTypePreferredRadix_
0001:0000f080* MADTypeForDIPType_
0001:0000f0a0  MADTypeInfo_
0001:0000f1b0  MADTypeDefault_
0001:0000fae0  MADTypeConvert_
0001:0000ffe0  MADTypeToString_
0001:00010070* MADTypeHandleToString_
0001:000100a0* MADRegistersSize_
0001:000100b0* MADRegistersHost_
0001:000100c0* MADRegistersTarget_
0001:000100e0* MADRegSetWalk_
0001:00010110* MADRegSetName_
0001:00010140* MADRegSetLevel_
0001:00010150* MADRegSetDisplayGrouping_
0001:00010170* MADRegSetDisplayGetPiece_
0001:000101c0* MADRegSetDisplayModify_
0001:000101e0* MADRegSetDisplayToggleList_
0001:000101f0* MADRegSetDisplayToggle_
0001:00010200* MADRegModified_
0001:00010220* MADRegInspectAddr_
0001:00010270+ MADRegWalk_
0001:00010400* MADRegFullName_
0001:00010460* MADRegSpecialGet_
0001:00010490* MADRegSpecialSet_
0001:000104c0* MADRegSpecialName_
0001:000104f0* MADRegFromContextItem_
0001:00010520* MADRegUpdateStart_
0001:00010550* MADRegUpdateEnd_
0001:00010570* MADCallStackGrowsUp_
0001:00010590* MADCallTypeList_
0001:000105b0* MADCallBuildFrame_
0001:00010600* MADCallReturnReg_
0001:00010640* MADCallParmRegList_
0001:00010670* MADCallUpStackSize_
0001:00010680* MADCallUpStackInit_
0001:000106b0* MADCallUpStackLevel_
0001:000106f0  MADDisasmDataSize_
0001:00010710* MADDisasmNameMax_
0001:00010730  MADDisasm_
0001:000107a0  MADDisasmFormat_
0001:000107c0  MADDisasmInsSize_
0001:000107e0* MADDisasmInsUndoable_
0001:00010810* MADDisasmControl_
0001:00010830* MADDisasmInsNext_
0001:00010860* MADDisasmInspectAddr_
0001:000108b0* MADDisasmMemRefWalk_
0001:000108e0* MADDisasmToggleList_
0001:000108f0* MADDisasmToggle_
0001:00010910* MADTraceSize_
0001:00010930* MADTraceInit_
0001:00010960* MADTraceOne_
0001:00010990* MADTraceHaveRecursed_
0001:000109c0* MADTraceSimulate_
0001:000109f0* MADTraceFini_
0001:00010a30* MADUnexpectedBreak_
Module: madld.obj(/mnt/sda5/.user/root/src/openwatcom-1.9/bld/dig/c/os2v2/madld.c)
0001:00010c70  MADSysLoad_
0001:00010de0  MADSysUnload_
Module: i64.obj(/mnt/sda5/.user/root/src/openwatcom-1.9/bld/watcom/c/i64.c)
0001:00010df0* I32ToI64_
0001:00010e00  U32ToU64_
0001:00010e10  U64Neg_
0001:00010e40+ U64Add_
0001:00010e60* U64IncDec_
0001:00010e90+ U64Sub_
0001:00010eb0* U64Mul_
0001:00010f20  U64Div_
0001:00011020* I64Div_
0001:000110d0+ U64Cmp_
0001:00011110* U64Test_
0001:00011130* I64Cmp_
0001:00011160* I64Test_
0001:00011190* I64ShiftR_
0001:000111e0+ U64ShiftR_
0001:00011240* U64Shift_
0001:00011250+ U64ShiftL_
Module: finger.obj(/mnt/sda5/.user/root/src/openwatcom-1.9/bld/wprof/c/finger.c)
0002:00000c8c  _AboutMessage
0002:00000ca4  _AboutSize
Module: /mnt/sda5/.user/root/src/openwatcom-1.9/bld/aui/os2386.pm/aui.lib(/mnt/sda5/.user/root/src/openwatcom-1.9/bld/aui/c/wndmeth.c)
0001:00011360  NoScroll_
0001:00011360* WndNoOpen_
0001:00011370+ NoGetLine_
0001:00011380  NoEndPaint_
0001:00011380  NoBegPaint_
0001:00011380  NoNotify_
0001:00011380  NoModify_
0001:00011390  NoRefresh_
0001:000113a0  NoMenuItem_
0001:000113b0  NoNumRows_
0001:000113c0  NoNextRow_
0001:000113d0+ NoEventProc_
0001:000113f0  WndMenuItem_
0001:00011410  WndFiniCacheLines_
0001:00011440  WndKillCacheEntries_
0001:000114a0  WndKillCacheLines_
0001:00011650  WndSetCache_
0001:000116a0* WndGetLineAbs_
0001:000116b0  WndGetLine_
0001:000117c0  WndFirstMenuItem_
0001:000117e0* WndNoRow_
0001:000117f0  WndModify_
0001:00011810  WndNotify_
0001:00011830  WndBegPaint_
0001:00011850  WndEndPaint_
0001:00011870  WndRefresh_
0001:00011890  WndEvent_
0001:000118a0  WndNumRows_
0001:000118b0  WndNextRow_
0002:00000ca8  _NoInfo
0002:00002250+ _CacheLine
0002:00003380+ _CacheCurr
Module: /mnt/sda5/.user/root/src/openwatcom-1.9/bld/aui/os2386.pm/aui.lib(/mnt/sda5/.user/root/src/openwatcom-1.9/bld/aui/c/wndcreat.c)
0001:000118c0* WndSetTitleSize_
0001:000118d0* WndSetTitle_
0001:000118e0* WndGetTitle_
0001:00011b30  WndCreateWithStruct_
0001:00011b60  WndCreateWithStructAndMenuRes_
0001:00011b90  WndInitCreateStruct_
0001:00011bd0  WndCreate_
0001:00011c00  WndDestroy_
0001:00011c80  WndClose_
0001:00011ca0* WndSetMainMenuText_
0001:00011cd0  WndSetIcon_
0002:00000ce0  _WndMainMenuPtr
0002:00003388  _WndPopupMenuPtr
Module: /mnt/sda5/.user/root/src/openwatcom-1.9/bld/aui/os2386.pm/aui.lib(/mnt/sda5/.user/root/src/openwatcom-1.9/bld/aui/c/wndshrnk.c)
0001:00011ce0* WndShrinkToMouse_
0001:00011e70* WndMinimizeWindow_
0001:00011e80* WndMaximizeWindow_
0001:00011e90  WndIsMinimized_
0001:00011ed0* WndIsMaximized_
0001:00011ee0* WndRestoreWindow_
0001:00011ef0* WndGetRect_
0001:00011f00  WndShowWindow_
0001:00011f10  WndResizeWindow_
0001:00011f20  WndShowAll_
Module: /mnt/sda5/.user/root/src/openwatcom-1.9/bld/aui/os2386.pm/aui.lib(/mnt/sda5/.user/root/src/openwatcom-1.9/bld/aui/c/wndutil.c)
0001:00011fa0  WndCharCol_
0001:00011fd0  WndLastCharCol_
0001:00011ff0  WndPrevCharCol_
0001:00012000* WndPrevChar_
0001:00012010  WndCurrToGUIPoint_
0001:00012030  WndCoordToGUIPoint_
0001:000120a0  WndPieceIsTab_
0001:000120d0* WndPieceIsHot_
0001:00012100  WndFindActive_
0001:00012130  WndValid_
0001:00012160  WndDirty_
0001:00012170  WndZapped_
0001:00012190  WndExtentX_
0001:000121b0* WndFindClass_
0001:000121d0  WndSetWndMax_
0001:00012220  WndNext_
0001:00012250* WndForAllClass_
Module: /mnt/sda5/.user/root/src/openwatcom-1.9/bld/aui/os2386.pm/aui.lib(/mnt/sda5/.user/root/src/openwatcom-1.9/bld/aui/c/wndmsg.c)
0001:00012290  WndDisplayMessage_
Module: /mnt/sda5/.user/root/src/openwatcom-1.9/bld/aui/os2386.pm/aui.lib(/mnt/sda5/.user/root/src/openwatcom-1.9/bld/aui/c/guimain.c)
0002:0000338c+ _WndScale
0002:00003394  _WndMax
0002:0000339c+ _WndScreen
0002:000033a4+ _WndClickHook
0002:000033ac  _WndMain
0002:000033b0* _WndSwitches
0002:00000ce4  _WndMaxDirtyRects
0002:00000ce8+ _WndDClick
0002:00000cec+ _WndIgnoreAllEvents
0001:000122c0* WndGetDClick_
0001:000122d0* WndSetDClick_
0001:00012350* WndInitWithMenuRes_
0001:00012410  WndInit_
0001:00012420  WndShowWndMain_
0001:00012430  WndFini_
0001:00012460* WndInitNumRows_
0001:000125d0* WndInstallClickHook_
0001:00012e10* WndArrowCursor_
0001:00012e40* WndSetCursor_
0001:00012e70  WndHourGlass_
0001:00012e80* WndHourCursor_
0001:00012ec0  WndMainEventProc_
Module: /mnt/sda5/.user/root/src/openwatcom-1.9/bld/aui/os2386.pm/aui.lib(/mnt/sda5/.user/root/src/openwatcom-1.9/bld/aui/c/wnddlg.c)
0001:00012f70  DlgGetParent_
0001:00012fa0  DlgOpen_
0001:00012fe0* ResDlgOpen_
Module: /mnt/sda5/.user/root/src/openwatcom-1.9/bld/gui/win/os2386/gui.lib(/mnt/sda5/.user/root/src/openwatcom-1.9/bld/gui/win/c/guicheck.c)
0001:00013020  GUIIsChecked_
0001:00013040  GUISetChecked_
Module: /mnt/sda5/.user/root/src/openwatcom-1.9/bld/gui/win/os2386/gui.lib(/mnt/sda5/.user/root/src/openwatcom-1.9/bld/gui/c/guindlg.c)
0001:00013080  GUIDlgBuffGetText_
0001:00013410* GUISetModalDlgs_
0001:00013420  GUIDlgOpen_
0001:00013450  GUIModalDlgOpen_
0001:00013480* GUISysModalDlgOpen_
Module: /mnt/sda5/.user/root/src/openwatcom-1.9/bld/gui/win/os2386/gui.lib(/mnt/sda5/.user/root/src/openwatcom-1.9/bld/gui/win/c/guixtext.c)
0001:000134b0+ GUIControlSetRedraw_
0001:000134d0  GUIAddText_
0001:00013520* GUIAddTextList_
0001:00013580* GUIInsertText_
0001:00013590* GUISetHorizontalExtent_
0001:000135b0* GUISetTopIndex_
0001:000135d0* GUIGetTopIndex_
0001:000135f0+ GUIGetListSize_
0001:00013610* GUIDeleteItem_
0001:00013650  GUIClearList_
0001:00013670  GUISetText_
0001:000136d0  GUIGetText_
0001:00013780  GUIGetCurrSelect_
0001:000137b0  GUISetCurrSelect_
0001:000137d0+ GUIGetListItem_
0001:00013840* GUISetListItemData_
0001:00013860* GUIGetListItemData_
Module: /mnt/sda5/.user/root/src/openwatcom-1.9/bld/aui/os2386.pm/aui.lib(/mnt/sda5/.user/root/src/openwatcom-1.9/bld/aui/c/wndfdlg.c)
0001:00013880+ DlgGetFileName_
0001:000138b0  DlgFileBrowse_
Module: /mnt/sda5/.user/root/src/openwatcom-1.9/bld/gui/win/os2386/gui.lib(/mnt/sda5/.user/root/src/openwatcom-1.9/bld/gui/win/c/guifocus.c)
0001:000139e0  GUISetFocus_
0001:00013a60* GUIGetFocus_
Module: /mnt/sda5/.user/root/src/openwatcom-1.9/bld/gui/win/os2386/gui.lib(/mnt/sda5/.user/root/src/openwatcom-1.9/bld/gui/win/c/guixdlg.c)
0001:00013af0* GUISetJapanese_
0001:00013b00  GUIInitControl_
0001:00013c00  GUIProcessControlNotification_
0001:00013dc0  GUIProcessControlMsg_
0001:00013df0  GUIDialogFunc
0001:00014320+ GUIDlgCalcLocation_
0001:00014350  GUIXCreateDialog_
0001:000145d0  GUICloseDialog_
0001:000145f0+ GUIInitDialogFunc
0001:00014690  GUIFiniDialog_
0001:000146b0  GUIInitDialog_
0001:00014790  GUIGetDlgTextMetrics_
Module: /mnt/sda5/.user/root/src/openwatcom-1.9/rel2/lib386/math387r.lib(strtod.c)
0001:00014cb7+ __Strtold_
0001:00014e1e  strtod_
Module: /mnt/sda5/.user/root/src/openwatcom-1.9/rel2/lib386/math387r.lib(fchop87)
0001:00014f64  __CHP
Module: /mnt/sda5/.user/root/src/openwatcom-1.9/rel2/lib386/os2/emu387.lib(386)
0001:00014f7c  __init_387_emulator
0001:00014f7d* __fini_387_emulator
Module: /mnt/sda5/.user/root/src/openwatcom-1.9/bld/gui/win/os2386/gui.lib(/mnt/sda5/.user/root/src/openwatcom-1.9/bld/gui/win/c/guixwind.c)
0002:000034c8  _GUIMainHInst
0002:000034d0  _GUIClass
0002:00003510+ _GUIPMmq
0002:00000db8  _EditControlHasFocus
0002:00000dc4  _GUICurrWnd
0002:00000dc8+ _GUIDialogClass
0002:00000e08  _GUIDefaultClassName
0001:00014f80  GUIXSetupWnd_
0001:00014fd0* GUIWantPartialRows_
0001:00014ff0* GUISetCheckResizeAreaForChildren_
0001:00015000  GUIDestroyWnd_
0001:00015120  GUICleanup_
0001:00015150  GUIXMain_
0001:00015290  GUIShowWindow_
0001:000152c0  GUIShowWindowNA_
0001:00015300  GUIWndInit_
0001:00015460  GUIXCreateWindow_
0001:00015750  SendPointEvent_
0001:000157d0  GUIResizeBackground_
0001:00015920* SetFocusToParent_
0001:000159a0  GUIDoResize_
0001:00015ad0+ GUIWindowProc
0001:00016330+ GUIFrameProc
0001:000163b0* GUISetF10Menus_
0001:000164b0* GUIIsFirstInstance_
Module: /mnt/sda5/.user/root/src/openwatcom-1.9/bld/gui/win/os2386/gui.lib(/mnt/sda5/.user/root/src/openwatcom-1.9/bld/gui/c/guimem.c)
0001:000164c0* GUIMemPrintLine_
0001:000164c0* GUIMemPrtUsage_
0001:000164c0  GUIMemClose_
0001:000164c0  GUIMemOpen_
0001:000164c0* GUIMemRedirect_
0001:000164d0  GUIMemAlloc_
0001:000164e0  GUIMemFree_
0001:000164f0  GUIMemRealloc_
Module: /mnt/sda5/.user/root/src/openwatcom-1.9/bld/gui/win/os2386/gui.lib(/mnt/sda5/.user/root/src/openwatcom-1.9/bld/gui/c/guiisgui.c)
0001:00016500  GUIIsGUI_
Module: /mnt/sda5/.user/root/src/openwatcom-1.9/bld/gui/win/os2386/gui.lib(/mnt/sda5/.user/root/src/openwatcom-1.9/bld/gui/win/c/guihelp.c)
0001:000165c0+ DisplayContents_
0001:000165e0+ DisplayHelpOnHelp_
0001:00016600+ DisplayHelpSearch_
0001:00016620+ DisplayHelpKey_
0001:00016650+ DisplayHelpContext_
0001:00016670  GUIHelpInit_
0001:00016690  GUIHelpFini_
0001:000166d0  GUIShowHelp_
0001:00016740* GUIShowHtmlHelp_
0001:00016750* GUIDisplayHelpId_
0001:00016750* GUIDisplayHelpWin4_
0001:00016750* GUIDisplayHelp_
Module: /mnt/sda5/.user/root/src/openwatcom-1.9/bld/aui/os2386.pm/aui.lib(/mnt/sda5/.user/root/src/openwatcom-1.9/bld/aui/c/wndstat.c)
0001:00016760  WndCreateStatusWindow_
0001:00016790* WndHaveStatusWindow_
0001:000167b0* WndCloseStatusWindow_
0001:000167f0  WndStatusText_
0001:00016840  GUIClearStatusText_
0001:00016860  WndResetStatusText_
0001:00016870  WndInternalStatusText_
0002:0000351c+ _WndStatusString
Module: /mnt/sda5/.user/root/src/openwatcom-1.9/bld/aui/os2386.pm/aui.lib(/mnt/sda5/.user/root/src/openwatcom-1.9/bld/aui/c/wndscrol.c)
0001:000168c0* WndFixedThumb_
0001:000168f0* WndSetThumbPercent_
0001:00016900* WndSetThumbPos_
0001:00016910* WndSetVScrollRange_
0001:00016920  WndResetScroll_
0001:00016930* WndVScrollWidth_
0001:00016950* WndHasNumRows_
0001:00016960  WndSetThumb_
0001:00016ad0  WndScrollAbs_
0001:00016ae0  WndScroll_
0001:00016b00  WndSetHScroll_
0001:00016b50+ WndCurrHScrollPos_
0001:00016bd0  WndHScrollToCurr_
0001:00016bf0  WndHScrollNotify_
Module: /mnt/sda5/.user/root/src/openwatcom-1.9/bld/aui/os2386.pm/aui.lib(/mnt/sda5/.user/root/src/openwatcom-1.9/bld/aui/c/wndfront.c)
0001:00016c30  WndToFront_
0001:00016c40* WndRestoreToFront_
0001:00016c70  WndNextNonIconToFront_
0001:00016c90* WndChooseNew_
Module: /mnt/sda5/.user/root/src/openwatcom-1.9/bld/aui/os2386.pm/aui.lib(/mnt/sda5/.user/root/src/openwatcom-1.9/bld/aui/c/wndcurr.c)
0001:00016cd0  WndSetPoint_
0001:00016f70  WndGetCurrent_
0001:00016fa0  WndNewCurrent_
0001:00016fd0* WndMoveCurrent_
0001:00017030  WndHasCurrent_
0001:00017040  WndNoCurrent_
0001:00017060* WndCurrRow_
0001:00017090  WndNextCurrent_
0001:00017170  WndPrevCurrent_
0001:00017290  WndFirstCurrent_
0001:000172b0  WndLastCurrent_
0001:000172f0  WndCheckCurrentValid_
0001:00017390  WndCurrVisible_
0001:00017440  WndDirtyCurr_
0001:00017490  WndDirtyCurrChar_
0001:000174c0  WndSetCurrCol_
Module: /mnt/sda5/.user/root/src/openwatcom-1.9/bld/gui/win/os2386/gui.lib(/mnt/sda5/.user/root/src/openwatcom-1.9/bld/gui/win/c/guidrawr.c)
0001:00017660* GUIFillRect_
0001:00017690* GUIDrawRect_
0001:000176c0* GUIFillRectRGB_
0001:00017700* GUIDrawRectRGB_
0001:00017920  GUIDrawLine_
0001:00017950* GUIDrawLineRGB_
Module: /mnt/sda5/.user/root/src/openwatcom-1.9/bld/aui/os2386.pm/aui.lib(/mnt/sda5/.user/root/src/openwatcom-1.9/bld/aui/c/wnddirt.c)
0001:00017b00  WndDirtyScreenRange_
0001:00017b20  WndDirtyScreenChar_
0001:00017b40  WndDirtyScreenPiece_
0001:00017b60  WndAdjustDirt_
0001:00017b90  WndDirtyScreenRow_
0001:00017bb0* WndDirtyRect_
0001:00017bf0  WndRowDirty_
0001:00017c30* WndRowDirtyImmed_
0001:00017c70* WndPieceDirty_
0001:00017cb0* WndStopRefresh_
0001:00017cc0+ WndPaintDirt_
0001:00018030  WndFreshAll_
0002:00000e1c  _WndDoingRefresh
Module: /mnt/sda5/.user/root/src/openwatcom-1.9/bld/aui/os2386.pm/aui.lib(/mnt/sda5/.user/root/src/openwatcom-1.9/bld/aui/c/wndpop.c)
0001:000180a0+ CalcMaxId_
0001:000180f0* NullPopupMenu_
0001:00018180  WndAddPopupMenu_
0001:00018280  WndNullPopItem_
0001:00018390+ WndSelPopPiece_
0001:000185d0  WndSelPopItem_
0001:00018610+ WndKeyPopItem_
0001:00018670  WndPopUp_
0001:000186f0+ WndChangeMenuAll_
0001:00018770  WndMenuEnableAll_
0001:00018790  WndMenuGrayAll_
0001:000187c0* WndMenuIgnoreAll_
0001:000187f0* WndMenuRespectAll_
0001:00018810+ DoMenuBitOn_
0001:000188a0  WndMenuCheck_
0001:000188b0  WndMenuEnable_
0001:000188d0* WndMenuIgnore_
0001:000188e0+ WndCreateFloatingPopup_
0001:00018930  WndInvokePopUp_
0001:00018a60* WndKeyPopUp_
0001:00018a90  WndRowPopUp_
0001:00018ad0* WndSetMainMenu_
0001:00018b00  WndClick_
0001:00018bd0  WndSetPopup_
0001:00018c60* WndEnableMainMenu_
0001:00018cc0* WndCheckMainMenu_
Module: /mnt/sda5/.user/root/src/openwatcom-1.9/bld/aui/os2386.pm/aui.lib(/mnt/sda5/.user/root/src/openwatcom-1.9/bld/aui/c/wndsel.c)
0001:00018d10  WndSelectEvent_
0001:00018d90  WndSelEnds_
0001:00018dd0  WndSelected_
0001:00018f10  WndSelSetStart_
0001:00018f40  WndSelGetEndPiece_
0001:00018f80* WndSelSetEnd_
0001:00018fa0  WndSelPieceChange_
0001:00019080  WndSelChange_
0001:000190a0  WndNoSelect_
0001:00019130* WndSelRow_
0001:00019160  SetWndMenuRow_
0001:000191b0  WndToSelectMode_
0001:000191f0  WndEndSelectEvent_
0002:00003570  _WndMenuRow
0002:00003574  _WndMenuPiece
Module: /mnt/sda5/.user/root/src/openwatcom-1.9/bld/gui/win/os2386/gui.lib(/mnt/sda5/.user/root/src/openwatcom-1.9/bld/gui/win/c/guicrect.c)
0001:00019200  GUIGetClientRect_
0001:000192b0* GUIGetPaintRect_
Module: /mnt/sda5/.user/root/src/openwatcom-1.9/bld/gui/win/os2386/gui.lib(/mnt/sda5/.user/root/src/openwatcom-1.9/bld/gui/win/c/guigscrl.c)
0001:00019380* GUIGetHScrollCol_
0001:000193a0  GUIGetVScrollRow_
0001:000193f0  GUIGetHScroll_
0001:00019400* GUIGetVScroll_
Module: /mnt/sda5/.user/root/src/openwatcom-1.9/bld/gui/win/os2386/gui.lib(/mnt/sda5/.user/root/src/openwatcom-1.9/bld/gui/win/c/guirect.c)
0001:00019410  DoGetRelRect_
0001:00019550+ GUIGetRelRect_
0001:00019580  GUIGetRect_
Module: /mnt/sda5/.user/root/src/openwatcom-1.9/bld/gui/win/os2386/gui.lib(/mnt/sda5/.user/root/src/openwatcom-1.9/bld/gui/c/guipixel.c)
0001:000195a0  GUITruncToPixel_
Module: /mnt/sda5/.user/root/src/openwatcom-1.9/rel2/lib386/math387r.lib(ldcvt.c)
0001:00019696  _LDScale10x_
0001:00019c3d  __LDcvt_
Module: /mnt/sda5/.user/root/src/openwatcom-1.9/bld/gui/win/os2386/gui.lib(/mnt/sda5/.user/root/src/openwatcom-1.9/bld/gui/win/c/guistext.c)
0001:0001a090  GUISetWindowText_
0001:0001a0b0  GUIGetWindowText_
0001:0001a0d0* GUIGetWindowTextLength_
Module: /mnt/sda5/.user/root/src/openwatcom-1.9/bld/gui/win/os2386/gui.lib(/mnt/sda5/.user/root/src/openwatcom-1.9/bld/gui/c/guicreat.c)
0001:0001a0f0  GUICreateWindow_
0002:00000ec8  _GUIMDI
Module: /mnt/sda5/.user/root/src/openwatcom-1.9/bld/gui/win/os2386/gui.lib(/mnt/sda5/.user/root/src/openwatcom-1.9/bld/gui/c/guiextra.c)
0001:0001a150  GUISetExtra_
0001:0001a160  GUIGetExtra_
Module: /mnt/sda5/.user/root/src/openwatcom-1.9/bld/aui/os2386.pm/aui.lib(/mnt/sda5/.user/root/src/openwatcom-1.9/bld/aui/c/wndclean.c)
0001:0001a170  WndCleanUp_
Module: /mnt/sda5/.user/root/src/openwatcom-1.9/bld/gui/win/os2386/gui.lib(/mnt/sda5/.user/root/src/openwatcom-1.9/bld/gui/win/c/guimenus.c)
0001:0001a180  GUIInitGUIMenuHint_
0001:0001a2f0+ GetStateForMenu_
0001:0001a360* GUIIsMenuItemChecked_
0001:0001a380* GUIIsMenuItemEnabled_
0001:0001a3a0  GUISetMenu_
0001:0001a520  GUIDeleteFloatingPopups_
0001:0001a570  GUIFreePopupList_
0001:0001a5a0  GUISetGUIHint_
0001:0001a5c0+ GUIGetHMENU_
0001:0001a660  GUIGetMenuPopupCount_
0001:0001a710  GUIDeleteMenuItem_
0001:0001a7b0* CheckItem_
0001:0001a7c0* CheckPopup_
0001:0001a7d0  GUICheckMenuItem_
0001:0001a860* EnableItem_
0001:0001a870* EnablePopup_
0001:0001a880  GUIEnableSysMenuItem_
0001:0001a8b0  GUIEnableMenuItem_
0001:0001a940  GUISetMenuText_
0001:0001a9d0+ GUICreateMenuFlags_
0001:0001aa00  GUICreateSubMenu_
0001:0001ab50  GUICreateMenus_
0001:0001aba0  GUIAddToSystemMenu_
0001:0001adf0  GUIProcessMenuSelect_
0001:0001ae50  GUIProcessInitMenuPopup_
0001:0001b000* GUIInsertMenu_
0001:0001b070* GUIInsertMenuByID_
0001:0001b130* GUIAppendMenu_
0001:0001b190* GUIAppendMenuByOffset_
0001:0001b370  GUIInsertMenuToPopup_
0001:0001b390  GUIAppendMenuToPopup_
0002:00000ecc  _GUIHint
0002:00000efc  _GUIHFloatingPopup
Module: /mnt/sda5/.user/root/src/openwatcom-1.9/bld/gui/win/os2386/gui.lib(/mnt/sda5/.user/root/src/openwatcom-1.9/bld/gui/win/c/guisicon.c)
0001:0001b3a0  GUISetIcon_
Module: /mnt/sda5/.user/root/src/openwatcom-1.9/bld/gui/win/os2386/gui.lib(/mnt/sda5/.user/root/src/openwatcom-1.9/bld/gui/win/c/guimouse.c)
0001:0001b430  GUIGetMousePosn_
Module: /mnt/sda5/.user/root/src/openwatcom-1.9/bld/gui/win/os2386/gui.lib(/mnt/sda5/.user/root/src/openwatcom-1.9/bld/gui/win/c/guisize.c)
0001:0001b4b0+ GUIResizeWindow_
0001:0001b5c0  GUISetRestoredSize_
0001:0001b690* GUIGetRestoredSize_
0001:0001b700  GUIMinimizeWindow_
0001:0001b730  GUIMaximizeWindow_
0001:0001b780* GUIHideWindow_
0001:0001b7a0* GUIIsWindowVisible_
0001:0001b7d0  GUIRestoreWindow_
0001:0001b820  GUIIsMaximized_
0001:0001b840  GUIIsMinimized_
Module: /mnt/sda5/.user/root/src/openwatcom-1.9/bld/gui/win/os2386/gui.lib(/mnt/sda5/.user/root/src/openwatcom-1.9/bld/gui/c/guizlist.c)
0001:0001b880  GUIDeleteFromList_
0001:0001b8d0  GUIFrontOfList_
0001:0001b8f0  GUIGetFront_
0001:0001b900  GUIGetNextWindow_
0001:0001b920  GUIIsValidWindow_
Module: /mnt/sda5/.user/root/src/openwatcom-1.9/bld/gui/win/os2386/gui.lib(/mnt/sda5/.user/root/src/openwatcom-1.9/bld/gui/win/c/guiclen.c)
0002:00003578+ ___CharLenTable
0001:0001b9d0  GUICharLen_
0001:0001ba00* GUIIsDBCS_
Module: /mnt/sda5/.user/root/src/openwatcom-1.9/bld/gui/win/os2386/gui.lib(/mnt/sda5/.user/root/src/openwatcom-1.9/bld/gui/win/c/guixtent.c)
0001:0001ba30+ GetExtent_
0001:0001baa0  GUIGetExtentX_
0001:0001bac0* GUIGetExtentY_
0001:0001baf0+ GetControlInfo_
0001:0001bb20+ GetControlExtent_
0001:0001bbd0* GUIGetControlExtentX_
0001:0001bbf0* GUIGetControlExtentY_
Module: /mnt/sda5/.user/root/src/openwatcom-1.9/bld/gui/win/os2386/gui.lib(/mnt/sda5/.user/root/src/openwatcom-1.9/bld/gui/win/c/guidirty.c)
0001:0001bc20  GUIWndDirty_
0001:0001bc80  GUIControlDirty_
Module: /mnt/sda5/.user/root/src/openwatcom-1.9/bld/aui/os2386.pm/aui.lib(/mnt/sda5/.user/root/src/openwatcom-1.9/bld/aui/c/wndresiz.c)
0001:0001bcb0  WndMainResized_
Module: /mnt/sda5/.user/root/src/openwatcom-1.9/bld/gui/win/os2386/gui.lib(/mnt/sda5/.user/root/src/openwatcom-1.9/bld/gui/win/c/guixdisp.c)
0001:0001bce0  GUIDisplayMessage_
Module: /mnt/sda5/.user/root/src/openwatcom-1.9/bld/gui/win/os2386/gui.lib(/mnt/sda5/.user/root/src/openwatcom-1.9/bld/gui/win/c/guidbclk.c)
0001:0001bdb0  GUISetDClickRate_
Module: /mnt/sda5/.user/root/src/openwatcom-1.9/bld/gui/win/os2386/gui.lib(/mnt/sda5/.user/root/src/openwatcom-1.9/bld/gui/c/guirscal.c)
0001:0001bdd0  GUIGetRoundScale_
Module: /mnt/sda5/.user/root/src/openwatcom-1.9/bld/gui/win/os2386/gui.lib(/mnt/sda5/.user/root/src/openwatcom-1.9/bld/gui/c/guiscale.c)
0001:0001be30  GUISetScale_
0001:0001be60  GUIGetScale_
0001:0001be90  GUISetScreen_
0001:0001beb0  GUIGetScreen_
0001:0001bee0+ GUIConvert_
0001:0001bf70  GUIConvertRect_
0001:0001bfb0+ GUIConvertPoint_
0001:0001bff0  GUIScaleToScreen_
0001:0001c010  GUIScaleToScreenR_
0001:0001c030  GUIScreenToScale_
0001:0001c050  GUIScreenToScaleR_
0001:0001c070  GUIScaleToScreenRPt_
0001:0001c090  GUIScreenToScaleRPt_
Module: /mnt/sda5/.user/root/src/openwatcom-1.9/bld/gui/win/os2386/gui.lib(/mnt/sda5/.user/root/src/openwatcom-1.9/bld/gui/c/guiimmdi.c)
0001:0001c0b0  GUIMDIInitMenuOnly_
Module: /mnt/sda5/.user/root/src/openwatcom-1.9/bld/gui/win/os2386/gui.lib(/mnt/sda5/.user/root/src/openwatcom-1.9/bld/gui/win/c/gui3ddlg.c)
0001:0001c100  GUI3DDialogInit_
Module: /mnt/sda5/.user/root/src/openwatcom-1.9/bld/gui/win/os2386/gui.lib(/mnt/sda5/.user/root/src/openwatcom-1.9/bld/gui/win/c/guistub.c)
0001:0001c110  GUISetBetweenTitles_
0001:0001c120  GUISetBackgroundChar_
0001:0001c120* GUISetCursorType_
0001:0001c120* GUIGetCursorType_
0001:0001c120* GUISetCursorPos_
0001:0001c120* GUIGetCursorPos_
0001:0001c130* GUISetCharacter_
0001:0001c130* GUIGetDialogColours_
0001:0001c130* GUISetDialogColours_
0001:0001c130  GUISetBackgroundColour_
0001:0001c130* GUIGMouseOff_
0001:0001c130* GUIGMouseOn_
0001:0001c140  GUIGetCharacter_
Module: /mnt/sda5/.user/root/src/openwatcom-1.9/bld/aui/os2386.pm/aui.lib(/mnt/sda5/.user/root/src/openwatcom-1.9/bld/aui/c/wndsysin.c)
0001:0001c150  WndSysInit_
Module: /mnt/sda5/.user/root/src/openwatcom-1.9/bld/aui/os2386.pm/aui.lib(/mnt/sda5/.user/root/src/openwatcom-1.9/bld/aui/c/wndmnsz.c)
0001:0001c160  WndSetWndMainSize_
Module: /mnt/sda5/.user/root/src/openwatcom-1.9/bld/aui/os2386.pm/aui.lib(/mnt/sda5/.user/root/src/openwatcom-1.9/bld/aui/c/wndbgch.c)
0002:00000f5c  _WndBackgroundChar
Module: /mnt/sda5/.user/root/src/openwatcom-1.9/bld/aui/os2386.pm/aui.lib(/mnt/sda5/.user/root/src/openwatcom-1.9/bld/aui/c/wndshthk.c)
0001:0001c190  WndShutDownHook_
Module: /mnt/sda5/.user/root/src/openwatcom-1.9/bld/gui/win/os2386/gui.lib(/mnt/sda5/.user/root/src/openwatcom-1.9/bld/gui/win/c/guigetnr.c)
0001:0001c1a0  GUIGetNumRows_
Module: /mnt/sda5/.user/root/src/openwatcom-1.9/bld/gui/win/os2386/gui.lib(/mnt/sda5/.user/root/src/openwatcom-1.9/bld/gui/win/c/guitextm.c)
0001:0001c1b0  GUISetMetrics_
0001:0001c1f0  GUIGetTextMetrics_
Module: /mnt/sda5/.user/root/src/openwatcom-1.9/bld/gui/win/os2386/gui.lib(/mnt/sda5/.user/root/src/openwatcom-1.9/bld/gui/win/c/guirange.c)
0001:0001c280* GUISetHScrollRangeCols_
0001:0001c2a0  GUISetVScrollRangeRows_
0001:0001c2c0  GUISetHScrollRange_
0001:0001c2f0* GUISetVScrollRange_
0001:0001c330* GUIGetHScrollRange_
0001:0001c350* GUIGetVScrollRange_
0001:0001c380* GUIGetVScrollRangeRows_
0001:0001c3a0* GUIGetHScrollRangeCols_
Module: /mnt/sda5/.user/root/src/openwatcom-1.9/bld/aui/os2386.pm/aui.lib(/mnt/sda5/.user/root/src/openwatcom-1.9/bld/aui/c/wndrszhk.c)
0001:0001c3c0  WndResizeHook_
Module: /mnt/sda5/.user/root/src/openwatcom-1.9/bld/gui/win/os2386/gui.lib(/mnt/sda5/.user/root/src/openwatcom-1.9/bld/gui/win/c/guicursr.c)
0001:0001c3d0  GUISetMouseCursor_
0001:0001c410  GUIResetMouseCursor_
Module: /mnt/sda5/.user/root/src/openwatcom-1.9/bld/aui/os2386.pm/aui.lib(/mnt/sda5/.user/root/src/openwatcom-1.9/bld/aui/c/wndchoos.c)
0001:0001c420  WndChooseEvent_
0001:0001c480* WndDoneChoose_
0001:0001c490  WndKeyEscape_
0001:0001c4b0* WndStartChoose_
0001:0001c4c0  WndSayMatchMode_
0001:0001c5f0  WndKeyChoose_
0001:0001c7e0  WndKeyRubOut_
Module: /mnt/sda5/.user/root/src/openwatcom-1.9/bld/aui/os2386.pm/aui.lib(/mnt/sda5/.user/root/src/openwatcom-1.9/bld/aui/c/wndmouse.c)
0001:0001c880* WndGetMouseRow_
0001:0001c940  WndLButtonDown_
0001:0001ca20  WndLButtonUp_
0001:0001caf0  WndLDblClk_
0001:0001cb70  WndRButtonDown_
0001:0001cc70  WndRButtonUp_
0001:0001ccf0  WndMouseButtonIsDown_
0001:0001cd10  WndIgnoreMouseMove_
0001:0001cd30  WndMouseMove_
Module: /mnt/sda5/.user/root/src/openwatcom-1.9/bld/aui/os2386.pm/aui.lib(/mnt/sda5/.user/root/src/openwatcom-1.9/bld/aui/c/wndcrsr.c)
0001:0001cdb0+ WndAtTop_
0001:0001cf50  WndScrollUp_
0001:0001cfa0  WndScrollDown_
0001:0001cff0  WndCursorUp_
0001:0001d010  WndCursorDown_
0001:0001d050  WndPageUp_
0001:0001d070  WndPageDown_
0001:0001d090  WndTabLeft_
0001:0001d0f0  WndCursorLeft_
0001:0001d190  WndTabRight_
0001:0001d1f0  WndCursorRight_
0001:0001d280  WndScrollTop_
0001:0001d2a0  WndScrollBottom_
0001:0001d2c0  WndCursorStart_
0001:0001d2d0  WndCursorEnd_
Module: /mnt/sda5/.user/root/src/openwatcom-1.9/bld/aui/os2386.pm/aui.lib(/mnt/sda5/.user/root/src/openwatcom-1.9/bld/aui/c/wndfonhk.c)
0001:0001d2e0  WndFontHook_
Module: /mnt/sda5/.user/root/src/openwatcom-1.9/bld/gui/win/os2386/gui.lib(/mnt/sda5/.user/root/src/openwatcom-1.9/bld/gui/win/c/guistat.c)
0001:0001d4b0  GUICreateStatusWindow_
0001:0001d540  GUIDrawStatusText_
0001:0001d5c0  GUIHasStatus_
0001:0001d5d0  GUICloseStatusWindow_
0001:0001d610  GUIResizeStatusWindow_
Module: /mnt/sda5/.user/root/src/openwatcom-1.9/bld/aui/os2386.pm/aui.lib(/mnt/sda5/.user/root/src/openwatcom-1.9/bld/aui/c/wndpaint.c)
0001:0001daa0+ WndPaintRows_
0001:0001dc00  WndProcPaint_
0001:0001dc20* WndForcePaint_
Module: /mnt/sda5/.user/root/src/openwatcom-1.9/bld/gui/win/os2386/gui.lib(/mnt/sda5/.user/root/src/openwatcom-1.9/bld/gui/win/c/guiflush.c)
0001:0001dc50  GUIFlushKeys_
Module: /mnt/sda5/.user/root/src/openwatcom-1.9/bld/aui/os2386.pm/aui.lib(/mnt/sda5/.user/root/src/openwatcom-1.9/bld/aui/c/wndchar.c)
0001:0001dca0* WndSetIDChars_
0001:0001dcb0  WndIDChar_
0001:0001dd00  WndKeyChar_
Module: /mnt/sda5/.user/root/src/openwatcom-1.9/bld/aui/os2386.pm/aui.lib(/mnt/sda5/.user/root/src/openwatcom-1.9/bld/aui/c/wndqryhk.c)
0001:0001dd10  WndQueryEndSessionHook_
Module: /mnt/sda5/.user/root/src/openwatcom-1.9/bld/aui/os2386.pm/aui.lib(/mnt/sda5/.user/root/src/openwatcom-1.9/bld/aui/c/wndendhk.c)
0001:0001dd20  WndEndSessionHook_
Module: /mnt/sda5/.user/root/src/openwatcom-1.9/bld/aui/os2386.pm/aui.lib(/mnt/sda5/.user/root/src/openwatcom-1.9/bld/aui/c/wndtool.c)
0001:0001dd30* WndCreateToolBar_
0001:0001dda0* WndCreateToolBarWithTips_
0001:0001de10* WndHaveToolBar_
0001:0001de20* WndCloseToolBar_
0001:0001de40* WndToolHeight_
0001:0001de50* WndToolFixed_
0001:0001de60  WndSetToolBar_
0002:000036d8+ _ToolHeight
Module: /mnt/sda5/.user/root/src/openwatcom-1.9/bld/aui/os2386.pm/aui.lib(/mnt/sda5/.user/root/src/openwatcom-1.9/bld/aui/c/wndldstr.c)
0001:0001de80  WndLoadString_
Module: /mnt/sda5/.user/root/src/openwatcom-1.9/bld/aui/os2386.pm/aui.lib(/mnt/sda5/.user/root/src/openwatcom-1.9/bld/aui/c/wndspawn.c)
0001:0001dee0* Spawn_
0001:0001df20  SpawnP_
0001:0001df60* Suicide_
Module: /mnt/sda5/.user/root/src/openwatcom-1.9/bld/gui/win/os2386/gui.lib(/mnt/sda5/.user/root/src/openwatcom-1.9/bld/gui/c/guidlg.c)
0001:0001dfc0  GUICreateDialog_
0001:0001dfd0  GUICreateResDialog_
0001:0001dff0  GUICreateSysModalDialog_
Module: /mnt/sda5/.user/root/src/openwatcom-1.9/bld/gui/win/os2386/gui.lib(/mnt/sda5/.user/root/src/openwatcom-1.9/bld/gui/win/c/guixutil.c)
0001:0001e050  GUIMaximizeZoomedChildren_
0001:0001e070  GUIIsOpen_
0001:0001e0a0+ GUIIsParentADialog_
0001:0001e0c0  GUIIsRectInUpdateRect_
0001:0001e130  GUICalcLocation_
0001:0001e1d0  GUISetupStruct_
0001:0001e260  GUIError_
0001:0001e290* GUIFindWindowFromHWND_
0001:0001e2c0* GUIIsGUIChild_
0001:0001e2f0  GUISetRedraw_
0001:0001e310  GUIBringNewToFront_
0001:0001e360  GUIXGetRootWindow_
0001:0001e380+ GUIFindFirstChild_
0001:0001e3b0+ GUIFindFirstPopupWithNoParent_
0001:0001e410  GUIDestroyAllChildren_
0001:0001e440  GUIDestroyAllPopupsWithNoParent_
0001:0001e460  GUIFreeWindowMemory_
0001:0001e5d0  GUIScrollOn_
0001:0001e5f0  GUISetRowCol_
0001:0001e650  GUIInvalidateResize_
0001:0001e720  GUISendMessage_
0001:0001e740  GUISendDlgItemMessage_
0001:0001e770  GUIMakeRelative_
0001:0001e850  GUIGetScrollHWND_
0001:0001e870  GUISetScrollPos_
0001:0001e8b0  GUIGetScrollPos_
0001:0001e8d0  GUISetScrollRange_
0001:0001e950  GUIGetScrollRange_
0001:0001e970* GUISetRangePos_
0001:0001e9c0  GUIRedrawScroll_
0001:0001ead0  GUIGetParentHWND_
0001:0001eaf0  GUIGetParentFrameHWND_
0001:0001eb10  GUIGetTopParentHWND_
0001:0001eb30  GUIGetTopGUIWindow_
0001:0001eb40  GUIGetWindow_
0001:0001eb60  GUIGetParentWindow_
0001:0001eb70  GUIParentHasFlags_
0001:0001eba0  GUIGetFirstSibling_
0001:0001ebc0  GUIGetSystemFont_
Module: /mnt/sda5/.user/root/src/openwatcom-1.9/bld/gui/win/os2386/gui.lib(/mnt/sda5/.user/root/src/openwatcom-1.9/bld/gui/win/c/guismetr.c)
0001:0001ec00  GUIGetSystemMetrics_
Module: /mnt/sda5/.user/root/src/openwatcom-1.9/bld/gui/win/os2386/gui.lib(/mnt/sda5/.user/root/src/openwatcom-1.9/bld/gui/win/c/guicontr.c)
0002:00000f68  _GUIControls
0001:0001ed80  GUIInsertCtrlWnd_
0001:0001edb0  GUIGetCtrlWnd_
0001:0001ee30  GUIGetControlByID_
0001:0001ee50  GUIGetControlByHwnd_
0001:0001ee70  GUIControlInsert_
0001:0001eed0  GUIControlInsertByHWND_
0001:0001ef70+ GUIControlDelete_
0001:0001efd0  GUIControlDeleteAll_
0001:0001f000+ GUIEditFunc
0001:0001f120+ GUIGroupBoxFunc
0001:0001f1b0  GUIDoSubClass_
0001:0001f200  GUISetControlStyle_
0001:0001f370* GUIAddControl_
0001:0001f420* GUIEnumControls_
0001:0001f450  GUICheckRadioButton_
0001:0001f520* GUIDeleteControl_
0001:0001f560* GUILimitEditText_
0001:0001f5f0* GUIHideControl_
0001:0001f600* GUIShowControl_
0001:0001f610* GUIIsControlVisible_
Module: /mnt/sda5/.user/root/src/openwatcom-1.9/bld/gui/win/os2386/gui.lib(/mnt/sda5/.user/root/src/openwatcom-1.9/bld/gui/win/c/guicutil.c)
0001:0001f640  GUIToControl_
0001:0001f6a0  GUIToComboList_
0001:0001f730  GUIGetControlClass_
Module: /mnt/sda5/.user/root/src/openwatcom-1.9/bld/gui/win/os2386/gui.lib(/mnt/sda5/.user/root/src/openwatcom-1.9/bld/wpi/c/wpi_os2.c)
0001:0001f87c  _wpi_menutext2win_
0001:0001f894* _wpi_getmenuitemid_
0001:0001f9bc* GetWindowRect_
0001:0001f9bc  _wpi_getwindowrect_
0001:0001f9e0  GetClientRect_
0001:0001fa5c  _wpi_showwindow_
0001:0001faac  _wpi_bitblt_
0001:0001faf8  _wpi_createcompatiblebitmap_
0001:0001fb7c  _wpi_createcompatiblepres_
0001:0001fbe4  _wpi_createos2normpres_
0001:0001fc24  _wpi_deletecompatiblepres_
0001:0001fc40  _wpi_deleteos2normpres_
0001:0001fc60* _wpi_deletepres_
0001:0001fc7c  _wpi_dialogbox_
0001:0001fcc4* _wpi_drawfocusrect_
0001:0001fd54* _wpi_ellipse_
0001:0001fddc  _wpi_fillrect_
0001:0001fe10  _wpi_getbitmapdim_
0001:0001fe44* _wpi_getclassinfo_
0001:0001fe90* _wpi_getcurrenttask_
0001:0001feb8* _wpi_getdlgitemint_
0001:0001ff18  _wpi_getpaintrect_
0001:0001ff34* _wpi_getpixel_
0001:0001ff50  _wpi_getpres_
0001:0001ff78* _wpi_hitrect_
0001:0001ff98  _wpi_iszoomed_
0001:0001ffbc  _wpi_isiconic_
0001:0001ffe0* _wpi_patblt_
0001:0002005c* _wpi_polygon_
0001:00020098* _wpi_preparemono_
0001:000200d4  _wpi_rectangle_
0001:00020130  _wpi_releasepres_
0001:0002014c  _wpi_selectbitmap_
0001:00020184  _wpi_getoldbitmap_
0001:000201ac  _wpi_deletebitmap_
0001:000201d4* _wpi_setmodhandle_
0001:000201f8* _wpi_setpixel_
0001:00020280  _wpi_setpoint_
0001:00020288  _wpi_stretchblt_
0001:000202ec  _wpi_ptinrect_
0001:0002031c  _wpi_insertmenu_
0001:000203e0  _wpi_appendmenu_
0001:000203fc  _wpi_getmenustate_
0001:00020444  _wpi_getmenuflagsfromstate_
0001:00020454  _wpi_modifymenu_
0001:000204cc  _wpi_getsubmenu_
0001:00020518  _wpi_getsystemmenu_
0001:0002055c  _wpi_setmenu_
0001:000205ec  _wpi_deletemenu_
0001:00020634  _wpi_checkmenuitem_
0001:00020678  _wpi_enablemenuitem_
0001:000206bc  _wpi_setmenutext_
0001:00020704  _wpi_getmenutext_
0001:00020760  _wpi_selectfont_
0001:00020c40+ _wpi_getfontattrs_
0001:00020ccc  _wpi_setscrollpos_
0001:00020cf4* _wpi_getscrollpos_
0001:00020d18  _wpi_setscrollrange_
0001:00020d6c* _wpi_getscrollrange_
0001:00020dac  _wpi_drawtext_
0001:00020dd0  _wpi_getsystemfont_
0001:00020f20  _wpi_drawmenubar_
0001:00020f34  _wpi_getparent_
0001:00020f7c  _wpi_setcursor_
0001:00020fa0  _wpi_enddialog_
0001:00020fb0* _wpi_createnullbrush_
0001:00020fe0  _wpi_createpatternbrush_
0001:00021008  _wpi_createsolidbrush_
0001:00021040  _wpi_getoldbrush_
0001:00021070* _wpi_setlogbrushsolid_
0001:00021080* _wpi_setlogbrushnull_
0001:00021090* _wpi_setlogbrushhollow_
0001:000210a0* _wpi_createbrush_
0001:0002110c  _wpi_selectbrush_
0001:000211dc  __wpi_selectobject_
0001:000212f8  _wpi_deleteobject_
0001:00021324* _wpi_createnullpen_
0001:0002135c  _wpi_createpen_
0001:000213a4  _wpi_selectpen_
0001:00021404  _wpi_getoldpen_
0001:00021424* _wpi_enumfonts_
0001:000214c8  _wpi_enumchildwindows_
0001:00021518* _wpi_checkradiobutton_
0001:00021584  _wpi_menutext2pm_
0001:000215ec* _wpi_getbitmapbits_
0001:0002172c* _wpi_setbitmapbits_
0001:00021874  _wpi_movewindow_
0001:0002189c* _wpi_recttowpirect_
0001:000218b8* _wpi_wpirecttorect_
0001:000218d4  _wpi_setrop2_
0001:000218f8  _wpi_loadbitmap_
0001:0002194c* _wpi_createbitmap_
0001:00021a30* _wpi_createdibitmap_
0001:00021a6c* _wpi_setclipboarddata_
0001:00021b14  _wpi_trackpopupmenu_
0001:00021d88* _wpi_getclipboarddata_
0001:00021dd4  _wpi_iswindow_
0001:00021e20* _wpi_extfloodfill_
0001:00021e5c* _wpi_getbitmapparms_
0001:00021ed0  _wpi_getbitmapstruct_
0001:00021eec* _wpi_setqmsgvalues_
0001:00021f18  _wpi_getqmsgvalues_
0001:00021f90* _wpi_setintrectvalues_
0001:00021f90  _wpi_setrectvalues_
0001:00021fa4  _wpi_getrectvalues_
0001:00021ff0* _wpi_setintwrectvalues_
0001:00021ff0  _wpi_setwrectvalues_
0001:00022004  _wpi_getwrectvalues_
0001:00022050* _wpi_getintrectvalues_
0001:0002209c* _wpi_getintwrectvalues_
0001:000220e8* _wpi_equalrect_
0001:00022114* _wpi_suspendthread_
0001:00022120  _wpi_getdevicecaps_
0001:00022148+ _wpi_devicecapableinch_
0001:0002218c  _wpi_setmaxtracksize_
0001:00022194  _wpi_setmintracksize_
0001:0002219c  _wpi_setwpiinst_
0001:000221a4* _wpi_getdlgitemshort_
0001:000221c0  _wpi_settextcolor_
0001:000221f8  _wpi_setbackcolour_
0001:0002221c* _wpi_palettergb_
0001:00022248* _wpi_getdibits_
0001:00022360* _wpi_createwindow_
0001:000223d4* _wpi_createobjwindow_
0001:00022430* _wpi_selectcliprgn_
0001:00022448  _wpi_textout_
0001:0002246c* _wpi_exttextout_
0001:0002249c* _wpi_intersectcliprect_
0001:000224c4* _wpi_setviewportorg_
0001:000224fc* _wpi_getbmphdrvalues_
0001:000225c8* _wpi_setbmphdrvalues_
0001:00022610* _wpi_bmptorgb_
0001:00022644* _wpi_setimagemode_
0001:00022664* _wpi_setimagebackmode_
0001:00022684* _wpi_imagemode_
0001:000226a0* _wpi_imagebackmode_
0001:000226bc* _wpi_deletesysmenupos_
0001:00022718  _wpi_gettextextent_
0001:0002282c  _wpi_getrestoredrect_
0001:000228f0* _wpi_setrgbquadvalues_
0001:00022904* _wpi_gettextface_
0001:00022964* _wpi_cvth_rect_
0001:00022978* _wpi_cvth_wanchor_
0001:00022980  _wpi_cvtc_y_
0001:000229a4  _wpi_cvtc_rect_
0001:000229d4* _wpi_cvts_wanchor_
0001:000229ec* _wpi_getclipbox_
0001:00022a04* _wpi_dlg_command_
0001:00022a54* _wpi_getmetricpointsize_
0001:00022a80* _wpi_getmessagepos_
Module: /mnt/sda5/.user/root/src/openwatcom-1.9/bld/gui/win/os2386/gui.lib(/mnt/sda5/.user/root/src/openwatcom-1.9/bld/gui/win/c/wpimem.c)
0001:00022ab0  _wpi_free_
0001:00022ac0  _wpi_malloc_
0001:00022ad0* _wpi_realloc_
Module: /mnt/sda5/.user/root/src/openwatcom-1.9/bld/gui/win/os2386/gui.lib(/mnt/sda5/.user/root/src/openwatcom-1.9/bld/gui/win/c/guifdlg.c)
0001:00022ae0* GUIHookFileDlg_
0001:00022af0  GUIGetFileName_
Module: /mnt/sda5/.user/root/src/openwatcom-1.9/bld/gui/win/os2386/gui.lib(/mnt/sda5/.user/root/src/openwatcom-1.9/bld/gui/win/c/guissel.c)
0001:00022f90  GUISelectAll_
0001:00022fc0* GUISetEditSelect_
0001:00022fe0* GUIGetEditSelect_
0001:00023040* GUIScrollCaret_
Module: /mnt/sda5/.user/root/src/openwatcom-1.9/bld/gui/win/os2386/gui.lib(/mnt/sda5/.user/root/src/openwatcom-1.9/bld/gui/win/c/guixhook.c)
0001:00023080  GUISetMDIProcessMessage_
0001:00023090  GUIMDIProcessMessage_
0001:000230c0  GUIMDIMaximized_
0001:000230e0* GUISetMDIMaximized_
0001:000230f0  GUIMDIUpdatedMenu_
0001:00023110* GUISetMDIUpdatedMenu_
0001:00023120* GUISetIsMDIChildWindow_
0001:00023130  GUIIsMDIChildWindow_
0001:00023150  GUIResizeStatus_
0001:00023170  GUISetResizeStatus_
0001:00023180  GUIFreeStatus_
0001:000231a0  GUISetFreeStatus_
0001:000231b0* GUISetMDINewWindow_
0001:000231c0  GUIMDINewWindow_
0001:000231d0* GUICtl3dCtlColorEx_
0001:000231d0  GUICtl3dColorChange_
0001:000231d0  GUICtl3dSubclassCtl_
0001:000231e0* GUISetMDIMaximize_
0001:000231f0  GUIMDIMaximize_
0001:00023210* GUISetSetMDIRestoredSize_
0001:00023220  GUISetMDIRestoredSize_
Module: /mnt/sda5/.user/root/src/openwatcom-1.9/bld/gui/win/os2386/gui.lib(/mnt/sda5/.user/root/src/openwatcom-1.9/bld/gui/win/c/guirdlg.c)
0001:00023260  GUIGetControlClassFromHWND_
0001:00023310  GUIGetControlStylesFromHWND_
0001:000233c0+ InsertResDlgCntlFunc
0001:000233e0  GUIInsertResDialogControls_
0001:00023400  GUIDoCreateResDialog_
0001:00023440* GUICreateDialogFromRes_
0002:00003718  _GUIResHInst
Module: /mnt/sda5/.user/root/src/openwatcom-1.9/bld/gui/win/os2386/gui.lib(/mnt/sda5/.user/root/src/openwatcom-1.9/bld/gui/c/guimkey.c)
0001:00023450  GUIMapKey_
0001:000238b0  GUIGetKeyState_
0002:00001114  _KeyState
Module: /mnt/sda5/.user/root/src/openwatcom-1.9/bld/gui/win/os2386/gui.lib(/mnt/sda5/.user/root/src/openwatcom-1.9/bld/gui/win/c/guimapky.c)
0001:00023e20  GUISetKeyState_
0001:00023f00  GUIWindowsMapKey_
0001:00023ff0  GUIProcesskey_
Module: /mnt/sda5/.user/root/src/openwatcom-1.9/bld/gui/win/os2386/gui.lib(/mnt/sda5/.user/root/src/openwatcom-1.9/bld/gui/win/c/guipaint.c)
0001:000240a0  GUIPaint_
0001:00024240  GUIInvalidatePaintHandles_
0001:00024250  GUIFreeWndPaintHandles_
0001:00024280+ GUIFreePaintHandles_
Module: /mnt/sda5/.user/root/src/openwatcom-1.9/bld/gui/win/os2386/gui.lib(/mnt/sda5/.user/root/src/openwatcom-1.9/bld/gui/c/guisdef.c)
0002:00003720  ___LITApplIcon
0002:00003724  ___LITEmpty
0002:00003728  ___LITBrightGreen
0002:0000372c  ___LITOS2_Dialog_Font
0002:00003730  ___LITBrightCyan
0002:00003734  ___LITBrightBlue
0002:00003738  ___LITBrightRed
0002:0000373c  ___LITBlank
0002:00003740  ___LITBrightYellow
0002:00003744  ___LITTable_of_Contents
0002:00003748  ___LITInternal_Last_Message
0002:0000374c  ___LITBrightWhite
0002:00003750  ___LITBrightMagenta
0002:00003754  ___LITWhite
0002:00003758  ___LITWindows_Dialog_Font
0002:0000375c  ___LITGrey
0002:00003760  ___LITXNo
0002:00003764  ___LITXIgnore
0002:00003768  ___LITBlack
0002:0000376c  ___LITFix_Toolbar_Hint
0002:00003770  ___LITCyan
0002:00003774  ___LITBrown
0002:00003778  ___LITBlue
0002:0000377c  ___LITGreen
0002:00003780  ___LITExclamation
0002:00003784  ___LITXAbort
0002:00003788  ___LITWindow_Name_Hint
0002:0000378c  ___LITColour
0002:00003790  ___LITXFix_Toolbar
0002:00003794  ___LITStop_Bang
0002:00003798  ___LITMagenta
0002:0000379c  ___LITRed
0002:000037a0  ___LITXRetry
0002:000037a4  ___LITSelect_Window
0002:000037a8  ___LITXYes
0002:000037ac  ___LITNexXt
0002:000037b0  ___LITArrange_Icons_Hint
0002:000037b4  ___LITClose
0002:000037b8  ___LITFDlg_Open_Text
0002:000037bc  ___LITTile_Horz_Hint
0002:000037c0  ___LITCascade_Hint
0002:000037c4  ___LITTile_XVert
0002:000037c8  ___LITTile_Vert_Hint
0002:000037cc  ___LITTile_XHorz
0002:000037d0  ___LITRestore
0002:000037d4  ___LITMove
0002:000037d8  ___LITMore_Windows_Hint
0002:000037dc  ___LITXMore_Windows
0002:000037e0  ___LITXClose
0002:000037e4  ___LITSize
0002:000037e8  ___LITXCascade
0002:000037ec  ___LITMinimize
0002:000037f0  ___LITXArrange_Icons
0002:000037f4  ___LITMaximize
0002:000037f8  ___LITXFix_Tool_Bar
0002:000037fc  ___LITFile_Exists_Replace
0002:00003800  ___LITChange_XFont_
0002:00003804  ___LITCancel
0002:00003808  ___LITOpen_Failed
0002:0000380c  ___LITDrives_Colon
0002:00003810  ___LITFDlg_Save_Text
0002:00003814  ___LITList_Files_of_Type_Colon
0002:00003818  ___LITPen_Failed
0002:0000381c  ___LITFile_Name_Colon
0002:00003820  ___LITChange_Font_for_this_window
0002:00003824  ___LITMake_Tool_Bar_Fixed
0002:00003828  ___LITFloating_Toolbar
0002:0000382c  ___LITInternal_First_Message
0002:00003830  ___LITDirectories_Colon
0002:00003834  ___LITOK
Module: /mnt/sda5/.user/root/src/openwatcom-1.9/bld/gui/win/os2386/gui.lib(/mnt/sda5/.user/root/src/openwatcom-1.9/bld/gui/win/c/os2dlg.c)
0001:00024600  DoneAddingControls_
0001:00024720  DialogTemplate_
0001:00024870  AddControl_
0001:000248f0  DynamicDialogBox_
Module: /mnt/sda5/.user/root/src/openwatcom-1.9/bld/gui/win/os2386/gui.lib(/mnt/sda5/.user/root/src/openwatcom-1.9/bld/gui/c/guiutil.c)
0001:00024910* GUIStripTrailingBlanks_
0001:00024990  GUIStrDup_
0001:00024a10  GUIStoreArgs_
0001:00024a30* GUIGetArgs_
0001:00024a60* GUIIsRootWindow_
0001:00024a80  GUIGetRootWindow_
Module: /mnt/sda5/.user/root/src/openwatcom-1.9/rel2/lib386/math387r.lib(bufld386)
0001:00024a88  __ZBuf2LD
Module: /mnt/sda5/.user/root/src/openwatcom-1.9/rel2/lib386/math387r.lib(inf_nan.c)
0001:00024b2b* ___f_infinity
0001:00024b2f* ___f_posqnan
0001:00024b33  ___d_infinity
0001:00024b3b  ___d_posqnan
0001:00024b43* ___ld_infinity
0001:00024b4b* ___ld_posqnan
Module: /mnt/sda5/.user/root/src/openwatcom-1.9/bld/gui/win/os2386/gui.lib(/mnt/sda5/.user/root/src/openwatcom-1.9/bld/gui/win/c/guiclass.c)
0001:00024b60  GUIGetWindowClassName_
Module: /mnt/sda5/.user/root/src/openwatcom-1.9/bld/gui/win/os2386/gui.lib(/mnt/sda5/.user/root/src/openwatcom-1.9/bld/gui/c/guideath.c)
0001:00024b70  GUIDeath_
Module: /mnt/sda5/.user/root/src/openwatcom-1.9/bld/gui/win/os2386/gui.lib(/mnt/sda5/.user/root/src/openwatcom-1.9/bld/gui/c/guihook.c)
0001:00024b80  GUISetHotSpotCleanup_
0001:00024b90  GUICleanupHotSpots_
0001:00024bb0* GUISetXChangeTitle_
0001:00024bc0  GUIXChangeTitle_
0001:00024be0  GUISetXInitMDI_
0001:00024bf0  GUIXInitMDI_
0001:00024c10  GUISetInitMDI_
0001:00024c20  GUIInitMDI_
0001:00024c40  GUIChangeMDITitle_
0001:00024c60  GUISetMDIChangeTitle_
0001:00024c70  GUISetMDIBroughtToFront_
0001:00024c80  GUIMDIBroughtToFront_
0001:00024ca0  GUISetMDIDelete_
0001:00024cb0  GUIMDIDelete_
0001:00024cd0  GUISetMDIResetMenus_
0001:00024ce0  GUIMDIResetMenus_
0001:00024d00  GUISetMDIDeleteMenuItem_
0001:00024d10  GUIMDIDeleteMenuItem_
0001:00024d30* GUISetEnableMDIActions_
0001:00024d40  GUIEnableMDIActions_
0001:00024d60* GUISetAddMDIActions_
0001:00024d70  GUIAddMDIActions_
Module: /mnt/sda5/.user/root/src/openwatcom-1.9/bld/gui/win/os2386/gui.lib(/mnt/sda5/.user/root/src/openwatcom-1.9/bld/gui/c/guistr.c)
0001:00024de0  GUIInitInternalStringTable_
0001:00025200  GUIFiniInternalStringTable_
Module: /mnt/sda5/.user/root/src/openwatcom-1.9/bld/gui/win/os2386/gui.lib(/mnt/sda5/.user/root/src/openwatcom-1.9/bld/gui/win/c/guildstr.c)
0001:000254c0  GUIIsLoadStrInitialized_
0001:000254d0  GUILoadStrInit_
0001:00025500  GUILoadStrFini_
0001:00025520  GUILoadString_
Module: /mnt/sda5/.user/root/src/openwatcom-1.9/bld/gui/win/os2386/gui.lib(/mnt/sda5/.user/root/src/openwatcom-1.9/bld/gui/win/c/guisysfi.c)
0001:00025560  GUISysFini_
Module: /mnt/sda5/.user/root/src/openwatcom-1.9/bld/gui/win/os2386/gui.lib(/mnt/sda5/.user/root/src/openwatcom-1.9/bld/gui/win/c/guixmain.c)
0001:00025570  main_
0002:00001290  _GUIMainTouched
Module: /mnt/sda5/.user/root/src/openwatcom-1.9/bld/gui/win/os2386/gui.lib(/mnt/sda5/.user/root/src/openwatcom-1.9/bld/gui/c/guifcrck.c)
0001:00025580  GUIFirstCrack_
Module: /mnt/sda5/.user/root/src/openwatcom-1.9/bld/gui/win/os2386/gui.lib(/mnt/sda5/.user/root/src/openwatcom-1.9/bld/gui/win/c/guiwinlp.c)
0001:00025590  GUIWinMessageLoop_
Module: /mnt/sda5/.user/root/src/openwatcom-1.9/bld/gui/win/os2386/gui.lib(/mnt/sda5/.user/root/src/openwatcom-1.9/bld/gui/c/guidead.c)
0001:00025600  GUIDead_
Module: /mnt/sda5/.user/root/src/openwatcom-1.9/bld/gui/win/os2386/gui.lib(/mnt/sda5/.user/root/src/openwatcom-1.9/bld/gui/win/c/guisysin.c)
0001:00025610  GUISysInit_
Module: /mnt/sda5/.user/root/src/openwatcom-1.9/bld/gui/win/os2386/gui.lib(/mnt/sda5/.user/root/src/openwatcom-1.9/bld/gui/c/guihint.c)
0001:00025770+ GUIHasHintType_
0001:000257a0  GUIDisplayHintText_
0001:00025810* GUISetHintText_
0001:00025820* GUIHasHintText_
0001:00025840  GUIDeleteHintText_
0001:00025910+ CountMenus_
0001:00025950+ InsertHint_
0001:000259b0  GUIAppendHintText_
0001:00025a30  GUIInitHint_
0001:00025b00  GUIInitToolbarHint_
0001:00025ba0  GUIFreeHint_
Module: /mnt/sda5/.user/root/src/openwatcom-1.9/bld/gui/win/os2386/gui.lib(/mnt/sda5/.user/root/src/openwatcom-1.9/bld/gui/win/c/guitool.c)
0001:00025be0  GUIXCloseToolBar_
0001:00025cb0+ GUIToolBarHelp_
0001:00025cf0+ GUIToolBarProc_
0001:00025e90  GUIXCreateToolBarWithTips_
0001:000263d0  GUIXCreateToolBar_
0001:00026400  GUIResizeToolBar_
0001:00026500  GUIHasToolBar_
0001:00026510+ GUIChangeToolBar_
0001:00026640* GUIToolBarFixed_
Module: /mnt/sda5/.user/root/src/openwatcom-1.9/bld/gui/win/os2386/gui.lib(/mnt/sda5/.user/root/src/openwatcom-1.9/bld/gui/win/c/guiscrol.c)
0001:00026660  GUIGetScrollScreenSize_
0001:000266f0* GUIGetScrollInc_
0001:00026720+ GUIScroll_
0001:00026830* GUISetVScrollRow_
0001:00026850* GUISetHScrollCol_
0001:00026870* GUISetVScroll_
0001:000268b0  GUISetHScroll_
0001:00026a10  GUIProcessScrollMsg_
0001:00026c80  GUISetScroll_
Module: /mnt/sda5/.user/root/src/openwatcom-1.9/bld/gui/win/os2386/gui.lib(/mnt/sda5/.user/root/src/openwatcom-1.9/bld/gui/win/c/guifont.c)
0001:00026d00* GUISetSystemFont_
0001:00026d00* GUIFontsSupported_
0001:00026d00* GUISetFontInfo_
0001:00026d00  GUIChangeFont_
0001:00026d00* GUIChooseFont_
0001:00026d10* GUIGetFontFromUser_
0001:00026d10* GUIGetFontInfo_
Module: /mnt/sda5/.user/root/src/openwatcom-1.9/bld/gui/win/os2386/gui.lib(/mnt/sda5/.user/root/src/openwatcom-1.9/bld/gui/win/c/guifront.c)
0001:00026d20  ActivateNC_
0001:00026d60  GUIBringToFront_
0001:00026e80* GUIActivateNC_
Module: /mnt/sda5/.user/root/src/openwatcom-1.9/bld/gui/win/os2386/gui.lib(/mnt/sda5/.user/root/src/openwatcom-1.9/bld/gui/c/guihtool.c)
0001:00026e90* GUICreateFloatToolBar_
0001:00026ef0  GUICreateToolBar_
0001:00026f50  GUICreateToolBarWithTips_
0001:00026fb0  GUICloseToolBar_
Module: /mnt/sda5/.user/root/src/openwatcom-1.9/bld/gui/win/os2386/gui.lib(/mnt/sda5/.user/root/src/openwatcom-1.9/bld/gui/win/c/guisystr.c)
0001:00026fe0  WndSizeChange_
0001:00026fe0  TrayCallBack_
Module: /mnt/sda5/.user/root/src/openwatcom-1.9/rel2/lib386/os2/clib3r.lib(_strcmp)
0001:00026ff0  strcmp_
Module: /mnt/sda5/.user/root/src/openwatcom-1.9/bld/aui/os2386.pm/aui.lib(/mnt/sda5/.user/root/src/openwatcom-1.9/bld/aui/c/wndfref.c)
0001:00027130  WndForceRefresh_
Module: /mnt/sda5/.user/root/src/openwatcom-1.9/bld/gui/win/os2386/gui.lib(/mnt/sda5/.user/root/src/openwatcom-1.9/bld/gui/win/c/guithumb.c)
0001:000271e0  GUISetVScrollThumb_
0001:000271f0* GUISetHScrollThumb_
Module: /mnt/sda5/.user/root/src/openwatcom-1.9/bld/gui/win/os2386/gui.lib(/mnt/sda5/.user/root/src/openwatcom-1.9/bld/gui/win/c/guiiscrl.c)
0001:00027250  GUIInitVScrollRow_
0001:00027270* GUIInitHScrollCol_
0001:00027290* GUIInitVScroll_
0001:000272d0  GUIInitHScroll_
Module: /mnt/sda5/.user/root/src/openwatcom-1.9/bld/gui/win/os2386/gui.lib(/mnt/sda5/.user/root/src/openwatcom-1.9/bld/gui/win/c/guidoscr.c)
0001:000274b0* GUIDoVScroll_
0001:000274d0* GUIDoHScroll_
0001:000274f0  GUIDoVScrollClip_
0001:00027500* GUIDoHScrollClip_
0001:00027510  GUIDoScroll_
Module: /mnt/sda5/.user/root/src/openwatcom-1.9/bld/gui/win/os2386/gui.lib(/mnt/sda5/.user/root/src/openwatcom-1.9/bld/gui/win/c/guigetrc.c)
0001:00027550  GUIGetRow_
0001:00027590* GUIGetCol_
Module: /mnt/sda5/.user/root/src/openwatcom-1.9/bld/gui/win/os2386/gui.lib(/mnt/sda5/.user/root/src/openwatcom-1.9/bld/gui/win/c/guistrin.c)
0001:00027650  GUIGetStringPos_
Module: /mnt/sda5/.user/root/src/openwatcom-1.9/bld/gui/win/os2386/gui.lib(/mnt/sda5/.user/root/src/openwatcom-1.9/bld/gui/win/c/guicolor.c)
0001:00027770* InitSystemRGB_
0001:00027780* GUISetRGB_
0001:00027800+ GUIGetRGB_
0001:00027810* GUIGetRGBFromUser_
0001:00027830+ GUIGetWndColour_
0001:00027860+ SetBKBrush_
0001:000278d0* GUICheckBKBrush_
0001:00027920* GUISetWndColour_
0001:00027960  GUIXSetColours_
0001:000279b0  GUIXGetWindowColours_
0001:000279e0  GUIFreeBKBrush_
0001:00027a10* GUISetWindowColours_
0001:00027a30  GUIGetFore_
0001:00027a50  GUIGetBack_
0002:00001298+ _GUIColours
Module: /mnt/sda5/.user/root/src/openwatcom-1.9/bld/gui/win/os2386/gui.lib(/mnt/sda5/.user/root/src/openwatcom-1.9/bld/gui/win/c/guidrect.c)
0001:00027a70  GUIWndDirtyRect_
Module: /mnt/sda5/.user/root/src/openwatcom-1.9/bld/gui/win/os2386/gui.lib(/mnt/sda5/.user/root/src/openwatcom-1.9/bld/gui/win/c/guidrow.c)
0001:00027b20  GUIWndDirtyRow_
Module: /mnt/sda5/.user/root/src/openwatcom-1.9/bld/gui/win/os2386/gui.lib(/mnt/sda5/.user/root/src/openwatcom-1.9/bld/gui/c/guidraw.c)
0001:00027c10  GUIDrawText_
0001:00027c60* GUIDrawTextPos_
0001:00027c80  GUIDrawTextExtent_
0001:00027cd0* GUIDrawTextExtentPos_
0001:00027cf0* GUIDrawTextRGB_
0001:00027d40* GUIDrawTextPosRGB_
0001:00027d60* GUIDrawTextExtentRGB_
0001:00027db0* GUIDrawTextExtentPosRGB_
Module: /mnt/sda5/.user/root/src/openwatcom-1.9/bld/gui/win/os2386/gui.lib(/mnt/sda5/.user/root/src/openwatcom-1.9/bld/gui/c/guihot.c)
0001:00027df0* GUIInitHotSpots_
0001:00027e50* GUIGetNumHotSpots_
0001:00027e60  GUIGetHotSpotSize_
0002:000038c0  _GUINumHotSpots
Module: /mnt/sda5/.user/root/src/openwatcom-1.9/bld/aui/os2386.pm/aui.lib(/mnt/sda5/.user/root/src/openwatcom-1.9/bld/aui/c/wndsfra.c)
0001:00027ea0  WndStartFreshAll_
Module: /mnt/sda5/.user/root/src/openwatcom-1.9/bld/aui/os2386.pm/aui.lib(/mnt/sda5/.user/root/src/openwatcom-1.9/bld/aui/c/wndefra.c)
0001:00027eb0  WndEndFreshAll_
Module: /mnt/sda5/.user/root/src/openwatcom-1.9/bld/aui/os2386.pm/aui.lib(/mnt/sda5/.user/root/src/openwatcom-1.9/bld/aui/c/wndmem.c)
0001:00027ec0  WndMustAlloc_
0001:00027ee0* WndMustRealloc_
Module: /mnt/sda5/.user/root/src/openwatcom-1.9/bld/gui/win/os2386/gui.lib(/mnt/sda5/.user/root/src/openwatcom-1.9/bld/gui/c/guihflt.c)
0001:00027f00  GUICreateFloatingPopup_
Module: /mnt/sda5/.user/root/src/openwatcom-1.9/bld/gui/win/os2386/gui.lib(/mnt/sda5/.user/root/src/openwatcom-1.9/bld/gui/win/c/guireset.c)
0001:00027fe0  GUIResetMenus_
Module: /mnt/sda5/.user/root/src/openwatcom-1.9/bld/gui/win/os2386/gui.lib(/mnt/sda5/.user/root/src/openwatcom-1.9/bld/gui/win/c/guixscal.c)
0001:000280b0  GUIScaleToScreenRect_
0001:000280d0* GUIScreenToScaleRect_
0001:000280f0  GUIClientToScaleRect_
0001:00028110  GUIToText_
0001:00028140  GUIToTextX_
0001:00028160  GUIToTextY_
0001:00028180* GUIFromText_
0001:000281b0  GUIFromTextX_
0001:000281d0  GUIFromTextY_
0001:000281f0  GUIGetTheDC_
0001:00028200  GUIReleaseTheDC_
0001:00028230  GUIGetMetrics_
0001:00028260  GUIGetUpdateRows_
0002:000038c4  _GUItm
Module: /mnt/sda5/.user/root/src/openwatcom-1.9/rel2/lib386/math387r.lib(ldclass.c)
0001:0002834c  __LDClass_
0001:0002839c* _FLClass_
Module: /mnt/sda5/.user/root/src/openwatcom-1.9/bld/gui/win/os2386/gui.lib(/mnt/sda5/.user/root/src/openwatcom-1.9/bld/gui/c/guisetup.c)
0001:000283b0  GUISetupWnd_
Module: /mnt/sda5/.user/root/src/openwatcom-1.9/bld/gui/win/os2386/gui.lib(/mnt/sda5/.user/root/src/openwatcom-1.9/bld/gui/win/c/guifloat.c)
0002:000012e8+ _CurrItem
0001:00028400+ GUITrackFloatingPopup_
0001:00028560  GUIXCreateFloatingPopup_
0001:000285d0  GUIPopupMenuSelect_
Module: /mnt/sda5/.user/root/src/openwatcom-1.9/bld/gui/win/os2386/gui.lib(/mnt/sda5/.user/root/src/openwatcom-1.9/bld/gui/win/c/guigetx.c)
0001:00028650  GUIGetTextExtentX_
0001:00028670* GUIGetTextExtentY_
0001:00028690  GUIGetTextExtent_
Module: /mnt/sda5/.user/root/src/openwatcom-1.9/bld/gui/win/os2386/gui.lib(/mnt/sda5/.user/root/src/openwatcom-1.9/bld/gui/win/c/guiximdi.c)
0001:00028730  XFakeInitMDI_
Module: /mnt/sda5/.user/root/src/openwatcom-1.9/bld/gui/win/os2386/gui.lib(/mnt/sda5/.user/root/src/openwatcom-1.9/bld/gui/c/guimdi.c)
0002:00001320+ _GUIMDIMenuID
0002:00001324+ _Root
0001:00028760* GUIGetRoot_
0001:000289f0  MDIDeleteMenu_
0001:00028a10  MDIResetMenus_
0001:00028a90* GUIEnableMDIMenus_
0001:00028b20  InitMDI_
0001:00028c70  ChangeTitle_
0001:00028cb0  BroughtToFront_
0001:00028d20+ FindNextMDIMenuWindowNotInArray_
0001:00028d90  MDIDelete_
0001:00029040+ GUIGetNumChildWindows_
0001:00029070* GUIGetNumIconicWindows_
0001:000290f0  GUIMDIMoreWindows_
0001:00029150  GUIMDIGetWindow_
Module: /mnt/sda5/.user/root/src/openwatcom-1.9/rel2/lib386/os2/clib3r.lib(strnicmp.c)
0001:00029170  strnicmp_
Module: /mnt/sda5/.user/root/src/openwatcom-1.9/bld/gui/win/os2386/gui.lib(/mnt/sda5/.user/root/src/openwatcom-1.9/bld/sdk/misc/wstatus.c)
0001:00029590+ StatusWndCallback
0001:00029720  StatusWndInit_
0001:00029800  StatusWndCreate_
0001:00029890+ StatusWndDraw3DBox_
0001:000298f0+ outputText_
0001:00029b40  StatusWndDrawLine_
0001:00029c40* StatusWndSetSeparators_
0001:00029c80  StatusWndFini_
Module: /mnt/sda5/.user/root/src/openwatcom-1.9/bld/gui/win/os2386/gui.lib(/mnt/sda5/.user/root/src/openwatcom-1.9/bld/gui/win/c/guixbar.c)
0001:00029d10+ DrawSimpleBar_
0001:00029e70+ DrawShadowBar_
0001:0002a020  GUIDrawBar_
0001:0002a140  GUIDrawBarGroup_
Module: /mnt/sda5/.user/root/src/openwatcom-1.9/bld/gui/win/os2386/gui.lib(/mnt/sda5/.user/root/src/openwatcom-1.9/bld/gui/win/c/guixhot.c)
0001:0002a1f0  GUIXInitHotSpots_
0001:0002a250  GUIXCleanupHotSpots_
0001:0002a280  GUIDrawHotSpot_
0001:0002a2f0  GUIDrawBitmap_
0002:00003e04  _GUIHotSpots
Module: /mnt/sda5/.user/root/src/openwatcom-1.9/bld/aui/os2386.pm/aui.lib(/mnt/sda5/.user/root/src/openwatcom-1.9/bld/aui/c/wndtbatr.c)
0001:0002a380  WndMapTabAttr_
Module: /mnt/sda5/.user/root/src/openwatcom-1.9/rel2/lib386/os2/clib3r.lib(setjmp)
0001:0002a388  _setjmp_
0001:0002a3c1  longjmp_
Module: /mnt/sda5/.user/root/src/openwatcom-1.9/bld/gui/win/os2386/gui.lib(/mnt/sda5/.user/root/src/openwatcom-1.9/bld/gui/win/c/guienum.c)
0001:0002a440+ EnumFunc
0001:0002a500  GUIEnumChildWindows_
Module: /mnt/sda5/.user/root/src/openwatcom-1.9/bld/gui/win/os2386/gui.lib(/mnt/sda5/.user/root/src/openwatcom-1.9/bld/gui/c/guiwnclr.c)
0001:0002a520  GUISetColours_
0001:0002a540  GUIFreeColours_
0001:0002a560* GUIGetNumWindowColours_
0001:0002a570* GUIGetWindowColours_
Module: /mnt/sda5/.user/root/src/openwatcom-1.9/bld/gui/win/os2386/gui.lib(/mnt/sda5/.user/root/src/openwatcom-1.9/bld/gui/win/c/guicombo.c)
0001:0002a5a0+ GUIEnumFunc
0001:0002a5e0  GUISubClassEditCombobox_
Module: /mnt/sda5/.user/root/src/openwatcom-1.9/rel2/lib386/os2/clib3r.lib(sscanf.c)
0001:0002a650+ vsscanf_
0001:0002a680  sscanf_
Module: /mnt/sda5/.user/root/src/openwatcom-1.9/rel2/lib386/os2/clib3r.lib(gtcwdos2.c)
0001:0002a6b0  getcwd_
Module: /mnt/sda5/.user/root/src/openwatcom-1.9/rel2/lib386/os2/clib3r.lib(splitpat.c)
0001:0002a7b0  _splitpath_
Module: /mnt/sda5/.user/root/src/openwatcom-1.9/rel2/lib386/os2/clib3r.lib(gdrveos2.c)
0001:0002a880  _dos_getdrive_
Module: /mnt/sda5/.user/root/src/openwatcom-1.9/rel2/lib386/os2/clib3r.lib(sdrveos2.c)
0001:0002a8b0  _dos_setdrive_
Module: /mnt/sda5/.user/root/src/openwatcom-1.9/rel2/lib386/os2/clib3r.lib(chdiros2.c)
0001:0002a900  chdir_
Module: /mnt/sda5/.user/root/src/openwatcom-1.9/rel2/lib386/os2/clib3r.lib(toupper.c)
0001:0002a920  toupper_
Module: /mnt/sda5/.user/root/src/openwatcom-1.9/bld/gui/win/os2386/gui.lib(/mnt/sda5/.user/root/src/openwatcom-1.9/bld/gui/win/c/os2mem.c)
0001:0002a930  PMfree_
0001:0002a940  PMmalloc_
0001:0002a950  PMrealloc_
Module: /mnt/sda5/.user/root/src/openwatcom-1.9/bld/gui/win/os2386/gui.lib(/mnt/sda5/.user/root/src/openwatcom-1.9/bld/gui/c/guiextnm.c)
0001:0002a960  GUIGetExtName_
0001:0002a980* GUISetExtName_
Module: /mnt/sda5/.user/root/src/openwatcom-1.9/rel2/lib386/os2/clib3r.lib(cstart)
0001:0002a9c4  _cstart_
Module: /mnt/sda5/.user/root/src/openwatcom-1.9/rel2/lib386/os2/clib3r.lib(argcv.c)
0002:00003e08  __argc
0002:00003e0c  __argv
0002:00003e10  ___argc
0002:00003e14  ___argv
Module: /mnt/sda5/.user/root/src/openwatcom-1.9/bld/gui/win/os2386/gui.lib(/mnt/sda5/.user/root/src/openwatcom-1.9/bld/sdk/misc/wptoolbr.c)
0001:0002abc0  ToolBarRedrawButtons_
0001:0002abe0  ToolBarInit_
0001:0002ad20+ ToolBarDestroy_
0001:0002ad80  ToolBarFini_
0001:0002ade0  ToolBarAddItem_
0001:0002ae50* ToolBarSetState_
0001:0002ae80* ToolBarGetState_
0001:0002ae90* ToolBarDeleteItem_
0001:0002aed0+ FrameProc
0001:0002af80  ToolBarDisplay_
0001:0002b120  ToolBarWindow_
0001:0002b140* UpdateToolBar_
0001:0002bb10* isPointInToolbar_
0001:0002bbc0  HasToolAtPoint_
0001:0002bbd0+ ToolBarWndProc
0001:0002c050* ChangeToolButtonBitmap_
Module: /mnt/sda5/.user/root/src/openwatcom-1.9/bld/gui/win/os2386/gui.lib(/mnt/sda5/.user/root/src/openwatcom-1.9/bld/gui/win/c/guixdraw.c)
0001:0002c0d0+ GUIDrawTextBitmapRGB_
0001:0002c4a0  GUIDrawTextBitmapAttr_
0001:0002c500  GUIXDrawText_
0001:0002c530  GUIXDrawTextRGB_
Module: /mnt/sda5/.user/root/src/openwatcom-1.9/bld/gui/win/os2386/gui.lib(/mnt/sda5/.user/root/src/openwatcom-1.9/bld/gui/c/guipick.c)
0001:0002c5d0+ GUIPickEvent_
0001:0002c670+ GUIDlgPickWithRtn_
0001:0002c6f0  GUIDlgPick_
Module: /mnt/sda5/.user/root/src/openwatcom-1.9/bld/gui/win/os2386/gui.lib(/mnt/sda5/.user/root/src/openwatcom-1.9/bld/gui/win/c/mem.c)
0001:0002c700  MemFree_
0001:0002c710  MemAlloc_
0001:0002c730* MemReAlloc_
Module: /mnt/sda5/.user/root/src/openwatcom-1.9/rel2/lib386/os2/clib3r.lib(ljmphdl.c)
0002:000014f0  ___longjmp_handler
Module: /mnt/sda5/.user/root/src/openwatcom-1.9/rel2/lib386/os2/clib3r.lib(strncmp.c)
0001:0002c750  strncmp_
Module: /mnt/sda5/.user/root/src/openwatcom-1.9/rel2/lib386/os2/clib3r.lib(scnf.c)
0001:0002d2e0  __scnf_
Module: /mnt/sda5/.user/root/src/openwatcom-1.9/rel2/lib386/os2/clib3r.lib(dosret.c)
0001:0002d550* _dosretax_
0001:0002d560* _dosret0_
0001:0002d570  __set_errno_dos_
0001:0002d5a0* __set_errno_dos_reterr_
Module: /mnt/sda5/.user/root/src/openwatcom-1.9/rel2/lib386/os2/clib3r.lib(seterrno.c)
0001:0002d5ac  __set_errno_
0001:0002d5ba* __set_EDOM_
0001:0002d5c8  __set_ERANGE_
0001:0002d5d6* __set_EINVAL_
0001:0002d5e9  __set_doserrno_
Module: /mnt/sda5/.user/root/src/openwatcom-1.9/rel2/lib386/os2/clib3r.lib(mbsnccnt.c)
0001:0002d600  _mbsnccnt_
Module: /mnt/sda5/.user/root/src/openwatcom-1.9/rel2/lib386/os2/clib3r.lib(mbsncpy.c)
0001:0002d630  _mbsncpy_
Module: /mnt/sda5/.user/root/src/openwatcom-1.9/rel2/lib386/os2/clib3r.lib(mbsnbcnt.c)
0001:0002d650  _mbsnbcnt_
Module: /mnt/sda5/.user/root/src/openwatcom-1.9/rel2/lib386/os2/clib3r.lib(mbsnextc.c)
0001:0002d6c0  _mbsnextc_
Module: /mnt/sda5/.user/root/src/openwatcom-1.9/rel2/lib386/os2/clib3r.lib(mbsinc.c)
0001:0002d700  _mbsinc_
Module: /mnt/sda5/.user/root/src/openwatcom-1.9/rel2/lib386/os2/clib3r.lib(main2o32.c)
0001:0002d730  __OS2Main
Module: /mnt/sda5/.user/root/src/openwatcom-1.9/rel2/lib386/os2/clib3r.lib(segdefns)
0001:00000003  ___begtext
0002:00000000* __nullarea
0002:00001ab8  __Start_XI
0002:00001af4  __End_XI
0002:00001af4  __Start_YI
0002:00001b12  __End_YI
Module: /mnt/sda5/.user/root/src/openwatcom-1.9/rel2/lib386/os2/clib3r.lib(initargv.c)
0001:0002d7a0  __Init_Argv_
0001:0002d7f0+ _getargv_
0001:0002d990  __Fini_Argv_
Module: /mnt/sda5/.user/root/src/openwatcom-1.9/rel2/lib386/os2/clib3r.lib(mbisdbcs.c)
0002:00003e4c  ___IsDBCS
Module: /mnt/sda5/.user/root/src/openwatcom-1.9/rel2/lib386/os2/clib3r.lib(mbislead.c)
0001:0002d9a0* _ismbblead_
0002:00003e50  ___MBCSIsTable
Module: /mnt/sda5/.user/root/src/openwatcom-1.9/rel2/lib386/os2/clib3r.lib(mbtowc.c)
0001:0002d9c0  mbtowc_
Module: /mnt/sda5/.user/root/src/openwatcom-1.9/rel2/lib386/os2/clib3r.lib(bits.c)
0001:0002da80  __Bits
Module: /mnt/sda5/.user/root/src/openwatcom-1.9/rel2/lib386/os2/clib3r.lib(noefgfmt.c)
0002:000015f8  ___EFG_printf
0002:000015fc  ___EFG_scanf
Module: /mnt/sda5/.user/root/src/openwatcom-1.9/rel2/lib386/os2/clib3r.lib(fdfs386)
0001:0002dad4  __FDFS
Module: /mnt/sda5/.user/root/src/openwatcom-1.9/rel2/lib386/os2/clib3r.lib(i8m)
0001:0002db20* __I8M
0001:0002db20  __U8M
Module: /mnt/sda5/.user/root/src/openwatcom-1.9/rel2/lib386/os2/clib3r.lib(maino32.c)
0002:00001600+ ___FirstThreadData
0002:00001604  ___GetThreadPtr
0002:00001608  __AccessFileH
0002:0000160c  __ReleaseFileH
0002:00001610  __AccessIOB
0002:00001614  __ReleaseIOB
0002:00001618  __AccessNHeap
0002:0000161c* __AccessFHeap
0002:00001620  __ReleaseNHeap
0002:00001624* __ReleaseFHeap
0001:0002db42  __threadstack_
0001:0002db49* __threadid_
0001:0002db50  __OS2MainInit_
0001:0002dbbf+ __OS2Init_
0001:0002dbfd* __OS2Fini_
0001:0002dc05* __shutdown_stack_checking_
0001:0002dc1a  __exit_
0002:00001628* __AccessTDList
0002:0000162c* __ReleaseTDList
0002:00001630+ ___sig_init_rtn
0002:00001634* ___sig_fini_rtn
0002:00001638* __threadstksize
0002:0000163c  ___process_fini
0002:00003f54  ___Is_DLL
0002:00003f58+ ___saved_CS
Module: /mnt/sda5/.user/root/src/openwatcom-1.9/rel2/lib386/os2/clib3r.lib(mbterm.c)
0001:0002dc60  _mbterm_
Module: /mnt/sda5/.user/root/src/openwatcom-1.9/rel2/lib386/os2/clib3r.lib(mbclen.c)
0001:0002dca0  _mbclen_
Module: /mnt/sda5/.user/root/src/openwatcom-1.9/rel2/lib386/os2/clib3r.lib(mbsnbcpy.c)
0001:0002dcd0  _mbsnbcpy_
Module: /mnt/sda5/.user/root/src/openwatcom-1.9/rel2/lib386/os2/clib3r.lib(initrtns.c)
0001:0002dd40  __InitRtns
0001:0002dd90  __FiniRtns
Module: /mnt/sda5/.user/root/src/openwatcom-1.9/rel2/lib386/os2/clib3r.lib(mthrdini.c)
0001:0002ddf0  __InitThreadData_
0002:00001640  ___ThreadDataSize
Module: /mnt/sda5/.user/root/src/openwatcom-1.9/rel2/lib386/os2/clib3r.lib(cmain386.c)
0001:0002de10  __CMain
Module: /mnt/sda5/.user/root/src/openwatcom-1.9/rel2/lib386/os2/clib3r.lib(dosseg)
0000:00001234  __DOSseg__
Module: /mnt/sda5/.user/root/src/openwatcom-1.9/rel2/lib386/os2/clib3r.lib(crwdata)
0002:00001688  __osmajor
0002:00001689  __osminor
0002:00001654* __LpDllName
0002:00001658* __LpwCmdLine
0002:0000165c* __LpwPgmName
0002:00001660* __LpwDllName
0002:0000164c  __LpCmdLine
0002:00001650  __LpPgmName
0002:00001644* __dynend
0002:00001648  __curbrk
0002:00001664* __STACKLOW
0002:00001668* __STACKTOP
0002:0000166c  __ASTACKSIZ
0002:00001670  __ASTACKPTR
0002:00001674* __cbyte
0002:00001678* __cbyte2
0002:0000167c* __child
0002:00001682  __Envptr
0002:00001686* __Envseg
0002:00001680  __no87
0002:0000168a* ___FPE_handler
Module: /mnt/sda5/.user/root/src/openwatcom-1.9/rel2/lib386/os2/clib3r.lib(histsplt.c)
0002:0000405c  ___historical_splitparms
Module: /mnt/sda5/.user/root/src/openwatcom-1.9/rel2/lib386/os2/clib3r.lib(___argc.c)
0002:00004060  ____Argc
0002:00004064  ____Argv
Module: /mnt/sda5/.user/root/src/openwatcom-1.9/rel2/lib386/os2/clib3r.lib(mbinit.c)
0001:0002de9a  __mbinit_
0002:00001690  ___MBCodePage
Module: /mnt/sda5/.user/root/src/openwatcom-1.9/rel2/lib386/os2/clib3r.lib(xmsgo32.c)
0001:0002dfa0+ __exit_with_msg_
0001:0002dff0  __fatal_runtime_error_
Module: /mnt/sda5/.user/root/src/openwatcom-1.9/rel2/lib386/os2/clib3r.lib(cinit.c)
0001:0002e010  __CommonInit_
0002:00004068  ___hmodule
Module: /mnt/sda5/.user/root/src/openwatcom-1.9/rel2/lib386/os2/clib3r.lib(enterdb.c)
0001:0002e020  __EnterWVIDEO_
0002:00001694+ ___WD_Present
Module: /mnt/sda5/.user/root/src/openwatcom-1.9/rel2/lib386/os2/clib3r.lib(amblksiz.c)
0002:00001698  __amblksiz
Module: /mnt/sda5/.user/root/src/openwatcom-1.9/rel2/lib386/os2/clib3r.lib(lseek.c)
0001:0002e050  lseek_
Module: /mnt/sda5/.user/root/src/openwatcom-1.9/rel2/lib386/os2/clib3r.lib(openos2.c)
0001:0002e240  open_
0001:0002e260  sopen_
Module: /mnt/sda5/.user/root/src/openwatcom-1.9/rel2/lib386/os2/clib3r.lib(close.c)
0001:0002e290  close_
Module: /mnt/sda5/.user/root/src/openwatcom-1.9/rel2/lib386/os2/clib3r.lib(read.c)
0001:0002e2a0  read_
Module: /mnt/sda5/.user/root/src/openwatcom-1.9/rel2/lib386/os2/clib3r.lib(nmalloc.c)
0001:0002e410  _nmalloc_
0001:0002e410  malloc_
0002:0000169c  ___nheapbeg
0002:000016a0  ___MiniHeapRover
0002:000016a4  ___LargestSizeB4MiniHeapRover
Module: /mnt/sda5/.user/root/src/openwatcom-1.9/rel2/lib386/os2/clib3r.lib(nrealloc.c)
0001:0002e510* _nrealloc_
0001:0002e510  realloc_
Module: /mnt/sda5/.user/root/src/openwatcom-1.9/rel2/lib386/os2/clib3r.lib(nfree.c)
0001:0002e590  _nfree_
0001:0002e590  free_
0002:0000406c  ___MiniHeapFreeRover
Module: /mnt/sda5/.user/root/src/openwatcom-1.9/rel2/lib386/os2/clib3r.lib(write.c)
0001:0002e7a0  write_
Module: /mnt/sda5/.user/root/src/openwatcom-1.9/rel2/lib386/os2/clib3r.lib(remove.c)
0001:0002e9d0  remove_
Module: /mnt/sda5/.user/root/src/openwatcom-1.9/rel2/lib386/os2/clib3r.lib(fopen.c)
0001:0002e9e0+ __open_flags_
0001:0002ebf0+ _fsopen_
0001:0002ec40  fopen_
0001:0002ecd0* freopen_
Module: /mnt/sda5/.user/root/src/openwatcom-1.9/rel2/lib386/os2/clib3r.lib(fclose.c)
0001:0002ed40  __doclose_
0001:0002ede0  __shutdown_stream_
0001:0002ee00  fclose_
0002:00004070+ ___RmTmpFileFn
Module: /mnt/sda5/.user/root/src/openwatcom-1.9/rel2/lib386/os2/clib3r.lib(sprintf.c)
0001:0002ee50  sprintf_
Module: /mnt/sda5/.user/root/src/openwatcom-1.9/rel2/lib386/os2/clib3r.lib(fltused.c)
0002:000016a8  _fltused_
Module: /mnt/sda5/.user/root/src/openwatcom-1.9/rel2/lib386/os2/clib3r.lib(_8087)
0002:000016ac  __8087
0002:000016ad  __real87
Module: /mnt/sda5/.user/root/src/openwatcom-1.9/rel2/lib386/os2/clib3r.lib(statos2.c)
0001:0002eee0  stat_
Module: /mnt/sda5/.user/root/src/openwatcom-1.9/rel2/lib386/os2/clib3r.lib(split2.c)
0001:0002f1b0  _splitpath2_
Module: /mnt/sda5/.user/root/src/openwatcom-1.9/rel2/lib386/os2/clib3r.lib(memset.c)
0001:0002f300  memset_
Module: /mnt/sda5/.user/root/src/openwatcom-1.9/rel2/lib386/os2/clib3r.lib(itoa.c)
0001:0002f320+ utoa_
0001:0002f370  itoa_
Module: /mnt/sda5/.user/root/src/openwatcom-1.9/rel2/lib386/os2/clib3r.lib(exit.c)
0001:0002f394+ __null_int23_exit_
0001:0002f395  exit_
0001:0002f3e5* _exit_
0002:000016b0+ ___int23_exit
0002:000016b4+ ___FPE_handler_exit
Module: /mnt/sda5/.user/root/src/openwatcom-1.9/rel2/lib386/os2/clib3r.lib(fprintf.c)
0001:0002f400  fprintf_
Module: /mnt/sda5/.user/root/src/openwatcom-1.9/rel2/lib386/os2/clib3r.lib(stack386.c)
0001:0002f430  stackavail_
Module: /mnt/sda5/.user/root/src/openwatcom-1.9/rel2/lib386/os2/clib3r.lib(stk)
0001:0002f455* __STK
0001:0002f445  __CHK
0001:0002f484  __GRO
0001:0002f474  __STKOVERFLOW_
Module: /mnt/sda5/.user/root/src/openwatcom-1.9/rel2/lib386/os2/clib3r.lib(fstatos2.c)
0001:0002f4e0  fstat_
Module: /mnt/sda5/.user/root/src/openwatcom-1.9/rel2/lib386/os2/clib3r.lib(qsort.c)
0001:0002f6b0  qsort_
Module: /mnt/sda5/.user/root/src/openwatcom-1.9/rel2/lib386/os2/clib3r.lib(tell.c)
0001:0002fd60  tell_
Module: /mnt/sda5/.user/root/src/openwatcom-1.9/rel2/lib386/os2/clib3r.lib(accssos2.c)
0001:0002fd80  access_
Module: /mnt/sda5/.user/root/src/openwatcom-1.9/rel2/lib386/os2/clib3r.lib(searchen.c)
0001:0002fde0  _searchenv_
Module: /mnt/sda5/.user/root/src/openwatcom-1.9/rel2/lib386/os2/clib3r.lib(makepath.c)
0001:0002ff30  _makepath_
Module: /mnt/sda5/.user/root/src/openwatcom-1.9/rel2/lib386/os2/clib3r.lib(getenv.c)
0001:000300e0  getenv_
Module: /mnt/sda5/.user/root/src/openwatcom-1.9/rel2/lib386/os2/clib3r.lib(snprintf.c)
0001:000301b0+ vsnprintf_
0001:00030210  snprintf_
Module: /mnt/sda5/.user/root/src/openwatcom-1.9/rel2/lib386/os2/clib3r.lib(stricmp.c)
0001:00030240  stricmp_
Module: /mnt/sda5/.user/root/src/openwatcom-1.9/rel2/lib386/os2/clib3r.lib(gtcmd.c)
0001:000302c0+ _bgetcmd_
0001:00030330  getcmd_
Module: /mnt/sda5/.user/root/src/openwatcom-1.9/rel2/lib386/os2/clib3r.lib(istable.c)
0001:00030350  __IsTable
Module: /mnt/sda5/.user/root/src/openwatcom-1.9/rel2/lib386/os2/clib3r.lib(tolower.c)
0001:00030460  tolower_
Module: /mnt/sda5/.user/root/src/openwatcom-1.9/rel2/lib386/os2/clib3r.lib(memmove.c)
0001:00030470  memmove_
Module: /mnt/sda5/.user/root/src/openwatcom-1.9/rel2/lib386/os2/clib3r.lib(strncpy.c)
0001:000304d0  strncpy_
Module: /mnt/sda5/.user/root/src/openwatcom-1.9/rel2/lib386/os2/clib3r.lib(strrchr.c)
0001:00030510  strrchr_
Module: /mnt/sda5/.user/root/src/openwatcom-1.9/rel2/lib386/os2/clib3r.lib(atoi.c)
0001:00030530  atoi_
Module: /mnt/sda5/.user/root/src/openwatcom-1.9/rel2/lib386/os2/clib3r.lib(hugeval.c)
0001:00030580  __HugeValue
Module: /mnt/sda5/.user/root/src/openwatcom-1.9/rel2/lib386/os2/clib3r.lib(iomode.c)
0001:00030590  __GetIOMode_
0001:000305b0  __SetIOMode_nogrow_
0002:000016c8  ___NFiles
0002:000016cc  ___init_mode
0002:0000171c  ___io_mode
Module: /mnt/sda5/.user/root/src/openwatcom-1.9/rel2/lib386/os2/clib3r.lib(stiomode.c)
0001:000305d0  __grow_iomode_
0001:000306a0+ __shrink_iomode_
0001:00030720  __SetIOMode_
Module: /mnt/sda5/.user/root/src/openwatcom-1.9/rel2/lib386/os2/clib3r.lib(__lseek.c)
0001:00030790  __lseek_
Module: /mnt/sda5/.user/root/src/openwatcom-1.9/rel2/lib386/os2/clib3r.lib(umaskval.c)
0002:00001720  ___umaskval
Module: /mnt/sda5/.user/root/src/openwatcom-1.9/rel2/lib386/os2/clib3r.lib(os2fil64.c)
0002:00001724  ___os2_DosOpenL
0002:00001728+ ___os2_DosSetFilePtrL
0002:0000172c+ ___os2_DosSetFileSizeL
0002:00001730+ ___os2_DosSetFileLocksL
Module: /mnt/sda5/.user/root/src/openwatcom-1.9/rel2/lib386/os2/clib3r.lib(isattos2.c)
0001:000308b0  isatty_
Module: /mnt/sda5/.user/root/src/openwatcom-1.9/rel2/lib386/os2/clib3r.lib(iob.c)
0002:00001734  ___iob
0002:0000193c  __fmode
0002:00004078  ___OpenStreams
0002:0000407c  ___ClosedStreams
Module: /mnt/sda5/.user/root/src/openwatcom-1.9/rel2/lib386/os2/clib3r.lib(_clseos2.c)
0001:000308e0  __close_
Module: /mnt/sda5/.user/root/src/openwatcom-1.9/rel2/lib386/os2/clib3r.lib(iomodtty.c)
0001:00030920  __ChkTTYIOMode_
0001:00030960* __IOMode_
Module: /mnt/sda5/.user/root/src/openwatcom-1.9/rel2/lib386/os2/clib3r.lib(nmemneed.c)
0001:00030980  __nmemneed_
Module: /mnt/sda5/.user/root/src/openwatcom-1.9/rel2/lib386/os2/clib3r.lib(mem.c)
0001:00030990  __MemAllocator
0001:00030a40  __MemFree
Module: /mnt/sda5/.user/root/src/openwatcom-1.9/rel2/lib386/os2/clib3r.lib(grownear.c)
0001:00030ce0  __ExpandDGROUP_
Module: /mnt/sda5/.user/root/src/openwatcom-1.9/rel2/lib386/os2/clib3r.lib(nmsize.c)
0001:00030d00  _nmsize_
0001:00030d00* _msize_
Module: /mnt/sda5/.user/root/src/openwatcom-1.9/rel2/lib386/os2/clib3r.lib(nexpand.c)
0001:00030d10  _nexpand_
0001:00030d10* _expand_
0001:00030d50+ __HeapManager_expand_
Module: /mnt/sda5/.user/root/src/openwatcom-1.9/rel2/lib386/os2/clib3r.lib(unlnkos2.c)
0001:00030f10  unlink_
Module: /mnt/sda5/.user/root/src/openwatcom-1.9/rel2/lib386/os2/clib3r.lib(comtflag.c)
0001:00030f30* __set_commode_
0002:00001940  __commode
Module: /mnt/sda5/.user/root/src/openwatcom-1.9/rel2/lib386/os2/clib3r.lib(fseek.c)
0001:00030f90  fseek_
Module: /mnt/sda5/.user/root/src/openwatcom-1.9/rel2/lib386/os2/clib3r.lib(chktty.c)
0001:000310a0  __chktty_
Module: /mnt/sda5/.user/root/src/openwatcom-1.9/rel2/lib386/os2/clib3r.lib(freefp.c)
0001:000310e0  __freefp_
0001:00031130  __purgefp_
Module: /mnt/sda5/.user/root/src/openwatcom-1.9/rel2/lib386/os2/clib3r.lib(allocfp.c)
0001:00031160  __allocfp_
Module: /mnt/sda5/.user/root/src/openwatcom-1.9/rel2/lib386/os2/clib3r.lib(flush.c)
0001:00031230  __flush_
Module: /mnt/sda5/.user/root/src/openwatcom-1.9/rel2/lib386/os2/clib3r.lib(vsprintf.c)
0001:00031350  vsprintf_
Module: /mnt/sda5/.user/root/src/openwatcom-1.9/rel2/lib386/os2/clib3r.lib(setefg.c)
0001:00031370  __setEFGfmt_
Module: /mnt/sda5/.user/root/src/openwatcom-1.9/rel2/lib386/os2/clib3r.lib(chk8087.c)
0001:00031390* _fpreset_
0001:000313b0* __init_8087_
0001:000313c0  __chk8087_
Module: /mnt/sda5/.user/root/src/openwatcom-1.9/rel2/lib386/os2/clib3r.lib(mbschr.c)
0001:00031410  _mbschr_
Module: /mnt/sda5/.user/root/src/openwatcom-1.9/rel2/lib386/os2/clib3r.lib(mbscmp.c)
0001:00031470  _mbscmp_
Module: /mnt/sda5/.user/root/src/openwatcom-1.9/rel2/lib386/os2/clib3r.lib(mbspbrk.c)
0001:000314e0  _mbspbrk_
Module: /mnt/sda5/.user/root/src/openwatcom-1.9/rel2/lib386/os2/clib3r.lib(fullpath.c)
0001:00031530+ _sys_fullpath_
0001:00031670  _fullpath_
Module: /mnt/sda5/.user/root/src/openwatcom-1.9/rel2/lib386/os2/clib3r.lib(errno.c)
0001:000316f0  __get_errno_ptr_
0001:00031700* __get_doserrno_ptr_
Module: /mnt/sda5/.user/root/src/openwatcom-1.9/rel2/lib386/os2/clib3r.lib(d2ttime.c)
0001:00031710  _d2ttime_
Module: /mnt/sda5/.user/root/src/openwatcom-1.9/rel2/lib386/os2/clib3r.lib(__stos)
0001:00031790  __STOSB
0001:000317c7* __STOSD
Module: /mnt/sda5/.user/root/src/openwatcom-1.9/rel2/lib386/os2/clib3r.lib(alphabet.c)
0002:00000028  ___Alphabet
Module: /mnt/sda5/.user/root/src/openwatcom-1.9/rel2/lib386/os2/clib3r.lib(fprtf.c)
0001:00031860  __fprtf_
Module: /mnt/sda5/.user/root/src/openwatcom-1.9/rel2/lib386/os2/clib3r.lib(strlen.c)
0001:00031920  strlen_
Module: /mnt/sda5/.user/root/src/openwatcom-1.9/rel2/lib386/os2/clib3r.lib(strncat.c)
0001:00031940  strncat_
Module: /mnt/sda5/.user/root/src/openwatcom-1.9/rel2/lib386/os2/clib3r.lib(strcat.c)
0001:00031980  strcat_
Module: /mnt/sda5/.user/root/src/openwatcom-1.9/rel2/lib386/os2/clib3r.lib(mbconv.c)
0001:000319b0  _mbvtop_
Module: /mnt/sda5/.user/root/src/openwatcom-1.9/rel2/lib386/os2/clib3r.lib(mbsdec.c)
0001:000319d0  _mbsdec_
Module: /mnt/sda5/.user/root/src/openwatcom-1.9/rel2/lib386/os2/clib3r.lib(environ.c)
0002:00004080  ___env_mask
0002:00004084  _environ
0002:00004088* __wenviron
Module: /mnt/sda5/.user/root/src/openwatcom-1.9/rel2/lib386/os2/clib3r.lib(mbcupper.c)
0001:00031a50  _mbctoupper_
Module: /mnt/sda5/.user/root/src/openwatcom-1.9/rel2/lib386/os2/clib3r.lib(prtf.c)
0001:00031a70  __prtf_
Module: /mnt/sda5/.user/root/src/openwatcom-1.9/rel2/lib386/os2/clib3r.lib(hdlman.c)
0001:00032740* __set_handles_
0001:00032750* _grow_handles_
0002:00001944  ___NHandles
Module: /mnt/sda5/.user/root/src/openwatcom-1.9/rel2/lib386/os2/clib3r.lib(initfile.c)
0001:000327e0  __InitFiles_
Module: /mnt/sda5/.user/root/src/openwatcom-1.9/rel2/lib386/os2/clib3r.lib(ioexit.c)
0001:000328e0* fcloseall_
0001:000328f0  __full_io_exit_
Module: /mnt/sda5/.user/root/src/openwatcom-1.9/rel2/lib386/os2/clib3r.lib(heapen.c)
0001:00032900* _heapenable_
0002:00001948  ___heap_enabled
Module: /mnt/sda5/.user/root/src/openwatcom-1.9/rel2/lib386/os2/clib3r.lib(nheapmin.c)
0001:00032930  _nheapshrink_
0001:00032930* _nheapmin_
0001:00032930* _heapmin_
0001:00032930* _heapshrink_
Module: /mnt/sda5/.user/root/src/openwatcom-1.9/rel2/lib386/os2/clib3r.lib(fsync.c)
0001:00032a20  fsync_
Module: /mnt/sda5/.user/root/src/openwatcom-1.9/rel2/lib386/os2/clib3r.lib(qwrit.c)
0001:00032a50  __qwrite_
Module: /mnt/sda5/.user/root/src/openwatcom-1.9/rel2/lib386/math387r.lib(efgfmt.c)
0001:00032ae7  _EFG_Format_
Module: /mnt/sda5/.user/root/src/openwatcom-1.9/rel2/lib386/math387r.lib(cnvs2d.c)
0001:00032c51  __cnvs2d_
Module: /mnt/sda5/.user/root/src/openwatcom-1.9/rel2/lib386/os2/clib3r.lib(8087cw.c)
0002:0000194c  __8087cw
Module: /mnt/sda5/.user/root/src/openwatcom-1.9/rel2/lib386/os2/clib3r.lib(init8087)
0001:00032c60  __x87id
Module: /mnt/sda5/.user/root/src/openwatcom-1.9/rel2/lib386/os2/clib3r.lib(mbccmp.c)
0001:00032ca0  _mbccmp_
Module: /mnt/sda5/.user/root/src/openwatcom-1.9/rel2/lib386/os2/clib3r.lib(mktime.c)
0001:00032ce0  mktime_
Module: /mnt/sda5/.user/root/src/openwatcom-1.9/rel2/lib386/os2/clib3r.lib(fputc.c)
0001:00032d70  fputc_
Module: /mnt/sda5/.user/root/src/openwatcom-1.9/rel2/lib386/os2/clib3r.lib(ioalloc.c)
0001:00032e50  __ioalloc_
Module: /mnt/sda5/.user/root/src/openwatcom-1.9/rel2/lib386/os2/clib3r.lib(setenvp.c)
0001:00032ef0  __setenvp_
0001:00032fb0  __freeenvp_
Module: /mnt/sda5/.user/root/src/openwatcom-1.9/rel2/lib386/os2/clib3r.lib(mbdtoupp.c)
0001:00033000  _mbdtoupper_
Module: /mnt/sda5/.user/root/src/openwatcom-1.9/rel2/lib386/os2/clib3r.lib(wctomb.c)
0001:00033020  wctomb_
Module: /mnt/sda5/.user/root/src/openwatcom-1.9/rel2/lib386/os2/clib3r.lib(strupr.c)
0001:00033050  strupr_
Module: /mnt/sda5/.user/root/src/openwatcom-1.9/rel2/lib386/os2/clib3r.lib(lltoa.c)
0001:00033070  ulltoa_
0001:000330e0* lltoa_
Module: /mnt/sda5/.user/root/src/openwatcom-1.9/rel2/lib386/os2/clib3r.lib(ltoa.c)
0001:00033110  ultoa_
0001:00033160* ltoa_
Module: /mnt/sda5/.user/root/src/openwatcom-1.9/rel2/lib386/os2/clib3r.lib(rtcntrl.c)
0001:00033190* _SetLD64bit_
0001:000331a0* _SetLD80bit_
0001:000331b0  _LDisDouble_
Module: /mnt/sda5/.user/root/src/openwatcom-1.9/rel2/lib386/os2/clib3r.lib(locmktim.c)
0001:000331c0  __local_mktime_
Module: /mnt/sda5/.user/root/src/openwatcom-1.9/rel2/lib386/os2/clib3r.lib(gmtime.c)
0001:00033340  __brktime_
0001:00033440+ _gmtime_
0001:00033460* gmtime_
Module: /mnt/sda5/.user/root/src/openwatcom-1.9/rel2/lib386/os2/clib3r.lib(tzset.c)
0002:00001954  ___start_dst
0002:00001978  ___end_dst
0002:00001aa0* _tzname
0002:00001aa8  _timezone
0002:00001aac  _daylight
0002:00001ab0  ___dst_adjust
0001:000334d0* __DontCacheOSTZ_
0001:000334e0* __CacheOSTZ_
0001:000339c0+ __parse_tz_
0001:00033bf0  tzset_
Module: /mnt/sda5/.user/root/src/openwatcom-1.9/rel2/lib386/os2/clib3r.lib(timeutil.c)
0001:00033d60  __isindst_
Module: /mnt/sda5/.user/root/src/openwatcom-1.9/rel2/lib386/os2/clib3r.lib(clearenv.c)
0001:00034090  clearenv_
Module: /mnt/sda5/.user/root/src/openwatcom-1.9/rel2/lib386/os2/clib3r.lib(leapyear.c)
0001:00034120  __leapyear_
0002:00000050  ___diyr
0002:0000006a  ___dilyr


                        +----------------------+
                        |   Imported Symbols   |
                        +----------------------+

Symbol                              Module
======                              ======

DosBeep                             DOSCALLS
DosLoadModule                       DOSCALLS
DosQueryProcAddr                    DOSCALLS
DosFreeModule                       DOSCALLS
WinWindowFromID                     PMWIN
WinEnableWindowUpdate               PMWIN
WinSetDlgItemText                   PMWIN
WinQueryWindowTextLength            PMWIN
WinQueryWindowText                  PMWIN
WinSetFocus                         PMWIN
WinQueryFocus                       PMWIN
WinQueryWindowUShort                PMWIN
WinWindowFromPoint                  PMWIN
WinDefDlgProc                       PMWIN
GpiQueryFontMetrics                 PMGPI
WinSendMsg                          PMWIN
WinDestroyWindow                    PMWIN
WinRegisterClass                    PMWIN
WinInitialize                       PMWIN
WinCreateMsgQueue                   PMWIN
WinDestroyMsgQueue                  PMWIN
WinTerminate                        PMWIN
WinUpdateWindow                     PMWIN
WinSetSysValue                      PMWIN
WinQuerySysValue                    PMWIN
WinCreateWindow                     PMWIN
WinSetWindowULong                   PMWIN
WinCreateStdWindow                  PMWIN
WinSubclassWindow                   PMWIN
WinSetWindowPos                     PMWIN
WinMapWindowPoints                  PMWIN
WinSetActiveWindow                  PMWIN
WinGetNextWindow                    PMWIN
WinDefWindowProc                    PMWIN
WinQueryWindow                      PMWIN
WinSetCapture                       PMWIN
WinCreateHelpInstance               HELPMGR
WinAssociateHelpInstance            HELPMGR
WinDestroyHelpInstance              HELPMGR
WinDrawBorder                       PMWIN
GpiSetCurrentPosition               PMGPI
GpiLine                             PMGPI
WinSetWindowText                    PMWIN
WinCreateMenu                       PMWIN
WinLoadPointer                      PMWIN
WinQuerySysPointer                  PMWIN
WinDestroyPointer                   PMWIN
WinQueryPointerPos                  PMWIN
WinIsWindowVisible                  PMWIN
DosQueryDBCSEnv                     NLS
WinInvalidateRect                   PMWIN
WinMessageBox                       PMWIN
WinPeekMsg                          PMWIN
WinIntersectRect                    PMWIN
WinIsRectEmpty                      PMWIN
WinLoadMenu                         PMWIN
WinIsChild                          PMWIN
WinQueryCapture                     PMWIN
WinQueryWindowULong                 PMWIN
WinQueryUpdateRect                  PMWIN
GpiQueryAttrs                       PMGPI
WinQueryWindowRect                  PMWIN
WinCalcFrameRect                    PMWIN
WinShowWindow                       PMWIN
GpiBitBlt                           PMGPI
GpiQueryDeviceBitmapFormats         PMGPI
GpiCreateBitmap                     PMGPI
DevOpenDC                           PMGPI
GpiCreatePS                         PMGPI
WinOpenWindowDC                     PMWIN
GpiDestroyPS                        PMGPI
DevCloseDC                          PMGPI
GpiAssociate                        PMGPI
WinLoadDlg                          PMWIN
WinProcessDlg                       PMWIN
GpiQueryMix                         PMGPI
GpiQueryBackMix                     PMGPI
GpiSetMix                           PMGPI
GpiSetBackMix                       PMGPI
GpiBox                              PMGPI
WinFillRect                         PMWIN
GpiQueryBitmapParameters            PMGPI
WinQueryClassInfo                   PMWIN
DosGetInfoBlocks                    DOSCALLS
WinQueryDlgItemText                 PMWIN
GpiQueryPel                         PMGPI
WinGetPS                            PMWIN
GpiQueryDevice                      PMGPI
WinQueryWindowPos                   PMWIN
WinGetScreenPS                      PMWIN
GpiCreateLogColorTable              PMGPI
WinReleasePS                        PMWIN
GpiPolygons                         PMGPI
GpiSetAttrs                         PMGPI
GpiSetBitmap                        PMGPI
GpiDeleteBitmap                     PMGPI
DosQueryModuleHandle                DOSCALLS
GpiQueryNearestColor                PMGPI
GpiQueryColor                       PMGPI
GpiSetColor                         PMGPI
GpiSetPel                           PMGPI
WinSetWindowUShort                  PMWIN
WinSetParent                        PMWIN
WinSetOwner                         PMWIN
GpiSetCharSet                       PMGPI
GpiDeleteSetId                      PMGPI
GpiCreateLogFont                    PMGPI
GpiSetCharBox                       PMGPI
GpiQueryFonts                       PMGPI
WinDrawText                         PMWIN
WinQueryAnchorBlock                 PMWIN
WinQueryDesktopWindow               PMWIN
WinQueryPointer                     PMWIN
WinSetPointer                       PMWIN
WinDismissDlg                       PMWIN
GpiQueryBackColor                   PMGPI
GpiSetPatternSet                    PMGPI
GpiSetBitmapId                      PMGPI
WinBeginEnumWindows                 PMWIN
WinEndEnumWindows                   PMWIN
GpiQueryBitmapBits                  PMGPI
GpiSetBitmapBits                    PMGPI
GpiLoadBitmap                       PMGPI
WinSetClipbrdData                   PMWIN
DosAllocSharedMem                   DOSCALLS
WinPopupMenu                        PMWIN
WinGetMsg                           PMWIN
WinDispatchMsg                      PMWIN
WinWaitMsg                          PMWIN
WinQueryClassName                   PMWIN
WinPtInRect                         PMWIN
WinQueryClipbrdData                 PMWIN
WinFindAtom                         PMWIN
WinIsWindowEnabled                  PMWIN
WinGetLastError                     PMWIN
GpiFloodFill                        PMGPI
GpiQueryBitmapInfoHeader            PMGPI
DosSuspendThread                    DOSCALLS
DevQueryCaps                        PMGPI
WinQueryDlgItemShort                PMWIN
GpiSetBackColor                     PMGPI
GpiSetClipRegion                    PMGPI
GpiCharStringAt                     PMGPI
GpiCharStringPosAt                  PMGPI
GpiIntersectClipRectangle           PMGPI
GpiQueryPageViewport                PMGPI
GpiSetPageViewport                  PMGPI
GpiQueryTextBox                     PMGPI
GpiQueryClipBox                     PMGPI
WinQueryMsgPos                      PMWIN
WinFileDlg                          PMCTLS
WinFreeFileDlgList                  PMCTLS
WinGetKeyState                      PMWIN
WinBeginPaint                       PMWIN
WinEndPaint                         PMWIN
WinInflateRect                      PMWIN
WinQueryActiveWindow                PMWIN
WinCreateDlg                        PMWIN
WinLoadString                       PMWIN
WinScrollWindow                     PMWIN
DosUnwindException                  DOSCALLS
DosQueryCurrentDir                  DOSCALLS
DosQueryCurrentDisk                 DOSCALLS
DosSetDefaultDisk                   DOSCALLS
DosSetCurrentDir                    DOSCALLS
WinSetPresParam                     PMWIN
WinPostMsg                          PMWIN
DosQuerySysInfo                     DOSCALLS
DosExit                             DOSCALLS
DosQueryCp                          DOSCALLS
DosWrite                            DOSCALLS
DosOpen                             DOSCALLS
DosClose                            DOSCALLS
DosRead                             DOSCALLS
DosSetFilePtr                       DOSCALLS
DosFindFirst                        DOSCALLS
DosFindClose                        DOSCALLS
DosQueryHType                       DOSCALLS
DosQueryFileInfo                    DOSCALLS
DosQueryPathInfo                    DOSCALLS
DosSetRelMaxFH                      DOSCALLS
DosAllocMem                         DOSCALLS
DosDelete                           DOSCALLS
DosDevConfig                        DOSCALLS
DosFreeMem                          DOSCALLS
DosResetBuffer                      DOSCALLS


                        +--------------------+
                        |   Libraries Used   |
                        +--------------------+

/mnt/sda5/.user/root/src/openwatcom-1.9/bld/aui/os2386.pm/aui.lib
/mnt/sda5/.user/root/src/openwatcom-1.9/bld/gui/win/os2386/gui.lib
/mnt/sda5/.user/root/src/openwatcom-1.9/rel2/lib386/os2/os2386.lib
/mnt/sda5/.user/root/src/openwatcom-1.9/rel2/lib386/math387r.lib
/mnt/sda5/.user/root/src/openwatcom-1.9/rel2/lib386/os2/emu387.lib
/mnt/sda5/.user/root/src/openwatcom-1.9/rel2/lib386/os2/clib3r.lib


                        +-----------------------+
                        |   Linker Statistics   |
                        +-----------------------+

Stack size:  8000 (32768.)
Memory size:  000401e2 (262626.)
Entry point address: 0001:0002a9c4
Link time: 00:00.00
