Open Watcom Linker Version 1.9
Portions Copyright (c) 1985-2002 Sybase, Inc. All Rights Reserved.
Created on:       12/12/16 02:11:20
Executable Image: testpp.exe
creating a Windows NT character-mode executable


                        +------------+
                        |   Groups   |
                        +------------+

Group                           Address              Size
=====                           =======              ====

.idata                          0040c000             000004b6
DGROUP                          0040d000             00012c10



                        +--------------+
                        |   Segments   |
                        +--------------+

Segment                Class          Group          Address         Size
=======                =====          =====          =======         ====

BEGTEXT                CODE           AUTO           00401000        00000007
_TEXT                  CODE           AUTO           00401010        0000ac68
TRANSFER CODE          CODE           AUTO           0040bc78        000000fc
.idata                 .idata         .idata         0040c000        000004b6
_NULL                  BEGDATA        DGROUP         0040d000        00000004
_AFTERNULL             BEGDATA        DGROUP         0040d004        00000000
CONST                  DATA           DGROUP         0040d004        0000005c
CONST2                 DATA           DGROUP         0040d060        00000000
_DATA                  DATA           DGROUP         0040d060        00000728
XIB                    DATA           DGROUP         0040d788        00000000
XI                     DATA           DGROUP         0040d788        0000001e
XIE                    DATA           DGROUP         0040d7a6        00000000
YIB                    DATA           DGROUP         0040d7a6        00000000
YI                     DATA           DGROUP         0040d7a6        0000001e
YIE                    DATA           DGROUP         0040d7c4        00000000
TIB                    DATA           DGROUP         0040d7c4        00000000
TI                     DATA           DGROUP         0040d7c4        00000000
TIE                    DATA           DGROUP         0040d7c4        00000000
DATA                   DATA           DGROUP         0040d7c4        00000000
_BSS                   BSS            DGROUP         0040e000        00001c04
STACK                  STACK          DGROUP         0040fc10        00010000


                        +----------------+
                        |   Memory Map   |
                        +----------------+

* = unreferenced symbol
+ = symbol only referenced locally

Address        Symbol
=======        ======

Module: testpp.obj(/mnt/sda5/.user/root/src/openwatcom-1.9/bld/cpp/testpp.c)
00401040*      dumpheap_
00401050       main_
Module: preproc.obj(/mnt/sda5/.user/root/src/openwatcom-1.9/bld/cpp/preproc.c)
0040e100+      _PPIncludePath
0040e104+      _PP_CallBack
0040e108+      _PPBufPtr
0040e10c+      _PPStack
0040e110+      _NestLevel
0040e114       _PPFlags
0040e118       _PPTokenList
0040e11c       _PPTokenPtr
0040e120       _PPLineNumber
0040e124+      _SkipLevel
0040e128       _PPCurToken
0040e12c+      _PPHashTable
0040d060       _PP__DATE__
0040d06e       _PP__TIME__
0040d079       _PreProcChar
004012b0+      isAbsPath_
004012e0+      PP_Open_
00401380+      PP_FindInclude_
00401410+      PP_OpenInclude_
004016f0+      PP_SetLeadBytes_
00401720       PP_Init_
00401730+      PP_Init2_
00401840*      PP_Dependency_List_
004018a0       PP_Fini_
004018e0+      PP_ReadBuf_
00401920+      PP_ReadLine_
00401a40+      PP_Hash_
00401a90       PP_Class_
00401ac0       PP_ScanName_
00401af0+      PP_Include_
00401ba0+      PP_RCInclude_
00401c50+      PP_AddMacro_
00401cc0+      PP_SkipSpace_
00401cf0+      PP_SkipComment_
00401d70       PP_SkipWhiteSpace_
00401db0+      PP_Define_
00401f20       PP_MacroLookup_
00401f50       PP_ScanMacroLookup_
00401fa0*      PP_Undef_
00401fb0*      PP_Ifdef_
00401fc0*      PP_Ifndef_
00402020+      PPConstExpr_
00402050+      PP_If_
00402090+      PP_Elif_
00402120+      PP_Else_
00402190+      PP_Endif_
004021e0+      PP_Sharp_
00402440+      PP_Read_
004024d0+      PPScanLiteral_
00402510+      PPScanDigits_
00402530+      PPScanSuffix_
00402550+      PPScanHexNumber_
00402590+      PPScanNumber_
004025e0+      PPScanOther_
00402660       PP_ScanToken_
00402870       PP_ScanNextToken_
004028d0       PP_Char_
004029e0*      PreprocVarInit_
0040e478       _PPCharPtr
0040e47c       _PP_File
0040e480+      _PPLineBuf
0040f482       _PPSavedChar
Module: ppexpr.obj(/mnt/sda5/.user/root/src/openwatcom-1.9/bld/cpp/ppexpr.c)
00402a90*      PPEvalExpr_
00402ad0       PP_ConstExpr_
00402b40+      PP_Expr1_
00402b90+      PP_Expr2_
00402be0+      PP_Expr3_
00402c20+      PP_Expr4_
00402c70+      PP_Expr5_
00402cb0+      PP_Expr6_
00402d40+      PP_Expr7_
00402e30+      PP_Expr8_
00402eb0+      PP_Expr9_
00402f10+      PP_Expr10_
00402fd0+      PP_Expr11_
00403100+      PP_AdvanceToken_
00403170+      PP_HexNumber_
004031d0+      PP_CharConst_
004032f0+      PP_Constant_
004033d0+      PP_Identifier_
Module: ppmacro.obj(/mnt/sda5/.user/root/src/openwatcom-1.9/bld/cpp/ppmacro.c)
00403540+      FreeTokenList_
00403560       DeleteNestedMacro_
004035d0       PPNextToken_
00403610       NextMToken_
004036b0+      PPTrimWhiteSpace_
004036f0+      PPCollectParms_
00403860*      DumpMTokens_
00403890*      DumpNestedMacros_
004038d0+      TokLength_
004038f0+      BuildAToken_
00403920+      AppendToken_
00403950+      Expandable_
00403a20+      MacroBeingExpanded_
00403a50+      ExpandNestedMacros_
00403c60+      Glue2Tokens_
00403d20+      GlueTokens_
00403db0+      BuildMTokenList_
00403f00+      DuplicateList_
00403f40+      MakeString_
00403fa0+      BuildString_
00404010+      SubstituteParms_
00404110+      BuildSpecialToken_
004041f0+      MacroExpansion_
004042d0*      NestedMacroExpansion_
004042f0       DoMacroExpansion_
00404310*      PPMacroVarInit_
0040f484+      _MacroDepth
0040f488+      _NestedMacros
Module: ppmem.obj(/mnt/sda5/.user/root/src/openwatcom-1.9/bld/cpp/ppmem.c)
00404330       PP_Malloc_
00404350       PP_Free_
00404360       PP_OutOfMemory_
Module: /mnt/sda5/.user/root/src/openwatcom-1.9/rel2/lib386/nt/clib3r.lib(iob.c)
0040d0ac       ___iob
0040d2b4       __fmode
0040f48c       ___OpenStreams
0040f490       ___ClosedStreams
Module: /mnt/sda5/.user/root/src/openwatcom-1.9/rel2/lib386/nt/clib3r.lib(fputc.c)
00404380       fputc_
Module: /mnt/sda5/.user/root/src/openwatcom-1.9/rel2/lib386/nt/clib3r.lib(printf.c)
00404460       printf_
Module: /mnt/sda5/.user/root/src/openwatcom-1.9/rel2/lib386/nt/clib3r.lib(exit.c)
00404482+      __null_int23_exit_
00404483       exit_
004044d3*      _exit_
0040d2b8+      ___int23_exit
0040d2bc+      ___FPE_handler_exit
Module: /mnt/sda5/.user/root/src/openwatcom-1.9/rel2/lib386/nt/clib3r.lib(cstrtwnt)
004044ea       _cstart_
004044ea*      mainCRTStartup
Module: /mnt/sda5/.user/root/src/openwatcom-1.9/rel2/lib386/nt/clib3r.lib(argcv.c)
0040f494       __argc
0040f498       __argv
0040f49c       ___argv
0040f4a0       ___argc
Module: /mnt/sda5/.user/root/src/openwatcom-1.9/rel2/lib386/nt/clib3r.lib(openwnt.c)
00404750       open_
00404770+      sopen_
Module: /mnt/sda5/.user/root/src/openwatcom-1.9/rel2/lib386/nt/clib3r.lib(close.c)
004047a0       close_
Module: /mnt/sda5/.user/root/src/openwatcom-1.9/rel2/lib386/nt/clib3r.lib(accsswnt.c)
004047c0       access_
Module: /mnt/sda5/.user/root/src/openwatcom-1.9/rel2/lib386/nt/clib3r.lib(_strcmp)
004047f0       strcmp_
Module: /mnt/sda5/.user/root/src/openwatcom-1.9/rel2/lib386/nt/clib3r.lib(splitpat.c)
00404970       _splitpath_
Module: /mnt/sda5/.user/root/src/openwatcom-1.9/rel2/lib386/nt/clib3r.lib(makepath.c)
00404a60       _makepath_
Module: /mnt/sda5/.user/root/src/openwatcom-1.9/rel2/lib386/nt/clib3r.lib(getenv.c)
00404c10       getenv_
Module: /mnt/sda5/.user/root/src/openwatcom-1.9/rel2/lib386/nt/clib3r.lib(sprintf.c)
00404ca0       sprintf_
Module: /mnt/sda5/.user/root/src/openwatcom-1.9/rel2/lib386/nt/clib3r.lib(time.c)
00404cd0       time_
Module: /mnt/sda5/.user/root/src/openwatcom-1.9/rel2/lib386/nt/clib3r.lib(localtim.c)
00404d10+      _localtime_
00404d70       localtime_
Module: /mnt/sda5/.user/root/src/openwatcom-1.9/rel2/lib386/nt/clib3r.lib(memset.c)
00404d90       memset_
Module: /mnt/sda5/.user/root/src/openwatcom-1.9/rel2/lib386/nt/clib3r.lib(read.c)
00404db0       read_
Module: /mnt/sda5/.user/root/src/openwatcom-1.9/rel2/lib386/nt/clib3r.lib(stricmp.c)
00404f40       stricmp_
Module: /mnt/sda5/.user/root/src/openwatcom-1.9/rel2/lib386/nt/clib3r.lib(tolower.c)
00404f80       tolower_
Module: /mnt/sda5/.user/root/src/openwatcom-1.9/rel2/lib386/nt/clib3r.lib(istable.c)
00404f90       __IsTable
Module: /mnt/sda5/.user/root/src/openwatcom-1.9/rel2/lib386/nt/clib3r.lib(fflush.c)
004050a0       fflush_
Module: /mnt/sda5/.user/root/src/openwatcom-1.9/rel2/lib386/nt/clib3r.lib(nmalloc.c)
004050b0       _nmalloc_
004050b0       malloc_
0040d2c0       ___nheapbeg
0040d2c4       ___MiniHeapRover
0040d2c8       ___LargestSizeB4MiniHeapRover
Module: /mnt/sda5/.user/root/src/openwatcom-1.9/rel2/lib386/nt/clib3r.lib(nfree.c)
004051b0       _nfree_
004051b0       free_
0040f4a4       ___MiniHeapFreeRover
Module: /mnt/sda5/.user/root/src/openwatcom-1.9/rel2/lib386/nt/clib3r.lib(initfile.c)
004052f0       __InitFiles_
Module: /mnt/sda5/.user/root/src/openwatcom-1.9/rel2/lib386/nt/clib3r.lib(ioexit.c)
004053f0*      fcloseall_
00405400       __full_io_exit_
Module: /mnt/sda5/.user/root/src/openwatcom-1.9/rel2/lib386/nt/clib3r.lib(mainwnt.c)
0040d2cc*      ___TlsIndex
0040d2d0+      ___FirstThreadData
0040d2d4       ___GetThreadPtr
0040d2d8       __AccessFileH
0040d2dc       __ReleaseFileH
0040d2e0       __AccessIOB
0040d2e4       __ReleaseIOB
0040d2e8       __AccessNHeap
0040d2ec*      __AccessFHeap
0040d2f0       __ReleaseNHeap
00405420*      __threadid_
00405440+      __sig_null_rtn_
00405450+      __NTInit_
00405630+      __NTFini_
00405690       __NTMainInit_
004056f0       __exit_
0040d2f4*      __ReleaseFHeap
0040d2f8*      __AccessTDList
0040d2fc*      __ReleaseTDList
0040d300       __AccessFList
0040d304       __ReleaseFList
0040d308+      __ThreadExitRtn
0040d30c       ___sig_init_rtn
0040d310       ___sig_fini_rtn
0040d314       ___process_fini
0040f4b0       ___Is_DLL
Module: /mnt/sda5/.user/root/src/openwatcom-1.9/rel2/lib386/nt/clib3r.lib(ioalloc.c)
00405740       __ioalloc_
Module: /mnt/sda5/.user/root/src/openwatcom-1.9/rel2/lib386/nt/clib3r.lib(flush.c)
004057e0       __flush_
Module: /mnt/sda5/.user/root/src/openwatcom-1.9/rel2/lib386/nt/clib3r.lib(seterrno.c)
004058dc       __set_errno_
004058ea*      __set_EDOM_
004058f8*      __set_ERANGE_
00405906*      __set_EINVAL_
00405919       __set_doserrno_
Module: /mnt/sda5/.user/root/src/openwatcom-1.9/rel2/lib386/nt/clib3r.lib(fprtf.c)
00405950       __fprtf_
Module: /mnt/sda5/.user/root/src/openwatcom-1.9/rel2/lib386/nt/clib3r.lib(initrtns.c)
00405a20       __InitRtns
00405a70       __FiniRtns
Module: /mnt/sda5/.user/root/src/openwatcom-1.9/rel2/lib386/nt/clib3r.lib(main2wnt.c)
00405ad0       __NTMain
Module: /mnt/sda5/.user/root/src/openwatcom-1.9/rel2/lib386/nt/clib3r.lib(segdefns)
00401003       ___begtext
0040d000*      __nullarea
0040d788       __Start_XI
0040d7a6       __End_XI
0040d7a6       __Start_YI
0040d7c4       __End_YI
Module: /mnt/sda5/.user/root/src/openwatcom-1.9/rel2/lib386/nt/clib3r.lib(initargv.c)
00405b30       __Init_Argv_
00405b80+      _getargv_
00405d20       __Fini_Argv_
Module: /mnt/sda5/.user/root/src/openwatcom-1.9/rel2/lib386/nt/clib3r.lib(hdlman.c)
0040d318+      ___NHandles
0040d31c+      ___OSHandles
0040d320+      ___FakeHandles
00405d30+      __growPOSIXHandles_
00405dd0       __allocPOSIXHandle_
00405e90       __freePOSIXHandle_
00405eb0       __getOSHandle_
00405ec0       __setOSHandle_
00405f10+      __NTGetFakeHandle_
00405f80       __initPOSIXHandles_
00406060*      __set_handles_
00406070*      _grow_handles_
Module: /mnt/sda5/.user/root/src/openwatcom-1.9/rel2/lib386/nt/clib3r.lib(ntfio.c)
004060b0*      __GetNTCreateAttr_
004060f0       __GetNTAccessAttr_
00406120       __GetNTShareAttr_
Module: /mnt/sda5/.user/root/src/openwatcom-1.9/rel2/lib386/nt/clib3r.lib(umaskval.c)
0040d32c       ___umaskval
Module: /mnt/sda5/.user/root/src/openwatcom-1.9/rel2/lib386/nt/clib3r.lib(isattwnt.c)
00406180       isatty_
Module: /mnt/sda5/.user/root/src/openwatcom-1.9/rel2/lib386/nt/clib3r.lib(stiomode.c)
004061a0       __grow_iomode_
00406270+      __shrink_iomode_
004062b0       __SetIOMode_
Module: /mnt/sda5/.user/root/src/openwatcom-1.9/rel2/lib386/nt/clib3r.lib(dosret.c)
00406320*      _dosretax_
00406330*      _dosret0_
00406340       __set_errno_dos_
00406370*      __set_errno_dos_reterr_
00406380       __set_errno_nt_
00406390*      __set_errno_nt_reterr_
Module: /mnt/sda5/.user/root/src/openwatcom-1.9/rel2/lib386/nt/clib3r.lib(iomode.c)
004063b0       __GetIOMode_
004063d0       __SetIOMode_nogrow_
0040d434       ___NFiles
0040d438       ___init_mode
0040d488       ___io_mode
Module: /mnt/sda5/.user/root/src/openwatcom-1.9/rel2/lib386/nt/clib3r.lib(_clsewnt.c)
004063f0       __close_
Module: /mnt/sda5/.user/root/src/openwatcom-1.9/rel2/lib386/nt/clib3r.lib(fgtattr.c)
00406450       __fixed_GetFileAttributesA_
Module: /mnt/sda5/.user/root/src/openwatcom-1.9/rel2/lib386/nt/clib3r.lib(mbsnccnt.c)
004064f0       _mbsnccnt_
Module: /mnt/sda5/.user/root/src/openwatcom-1.9/rel2/lib386/nt/clib3r.lib(mbsncpy.c)
00406520       _mbsncpy_
Module: /mnt/sda5/.user/root/src/openwatcom-1.9/rel2/lib386/nt/clib3r.lib(mbsnbcnt.c)
00406540       _mbsnbcnt_
Module: /mnt/sda5/.user/root/src/openwatcom-1.9/rel2/lib386/nt/clib3r.lib(mbsnextc.c)
004065b0       _mbsnextc_
Module: /mnt/sda5/.user/root/src/openwatcom-1.9/rel2/lib386/nt/clib3r.lib(mbsinc.c)
004065f0       _mbsinc_
Module: /mnt/sda5/.user/root/src/openwatcom-1.9/rel2/lib386/nt/clib3r.lib(mbconv.c)
00406620       _mbvtop_
Module: /mnt/sda5/.user/root/src/openwatcom-1.9/rel2/lib386/nt/clib3r.lib(mbclen.c)
00406640       _mbclen_
Module: /mnt/sda5/.user/root/src/openwatcom-1.9/rel2/lib386/nt/clib3r.lib(mbsdec.c)
00406670       _mbsdec_
Module: /mnt/sda5/.user/root/src/openwatcom-1.9/rel2/lib386/nt/clib3r.lib(environ.c)
0040fad4       ___env_mask
0040fad8       _environ
0040fadc       __wenviron
Module: /mnt/sda5/.user/root/src/openwatcom-1.9/rel2/lib386/nt/clib3r.lib(mbterm.c)
004066f0       _mbterm_
Module: /mnt/sda5/.user/root/src/openwatcom-1.9/rel2/lib386/nt/clib3r.lib(mbcupper.c)
00406730       _mbctoupper_
Module: /mnt/sda5/.user/root/src/openwatcom-1.9/rel2/lib386/nt/clib3r.lib(vsprintf.c)
00406780       vsprintf_
Module: /mnt/sda5/.user/root/src/openwatcom-1.9/rel2/lib386/nt/clib3r.lib(gtctmwnt.c)
004067a0       __getctime_
Module: /mnt/sda5/.user/root/src/openwatcom-1.9/rel2/lib386/nt/clib3r.lib(mktime.c)
00406810       mktime_
Module: /mnt/sda5/.user/root/src/openwatcom-1.9/rel2/lib386/nt/clib3r.lib(tzset.c)
0040d48c       ___start_dst
0040d4b0       ___end_dst
0040d5d8*      _tzname
0040d5e0       _timezone
0040d5e4       _daylight
0040d5e8       ___dst_adjust
004068f0*      __DontCacheOSTZ_
00406900*      __CacheOSTZ_
00406de0+      __parse_tz_
004071d0       tzset_
Module: /mnt/sda5/.user/root/src/openwatcom-1.9/rel2/lib386/nt/clib3r.lib(gmtime.c)
00407240       __brktime_
00407340+      _gmtime_
00407360*      gmtime_
Module: /mnt/sda5/.user/root/src/openwatcom-1.9/rel2/lib386/nt/clib3r.lib(timeutil.c)
004074c0       __isindst_
Module: /mnt/sda5/.user/root/src/openwatcom-1.9/rel2/lib386/nt/clib3r.lib(__stos)
004077f0       __STOSB
00407827*      __STOSD
Module: /mnt/sda5/.user/root/src/openwatcom-1.9/rel2/lib386/nt/clib3r.lib(iomodtty.c)
004078a0       __ChkTTYIOMode_
004078e0*      __IOMode_
Module: /mnt/sda5/.user/root/src/openwatcom-1.9/rel2/lib386/nt/clib3r.lib(__lseek.c)
00407900       __lseek_
Module: /mnt/sda5/.user/root/src/openwatcom-1.9/rel2/lib386/nt/clib3r.lib(flushall.c)
00407940*      __flushall_
00407980       flushall_
Module: /mnt/sda5/.user/root/src/openwatcom-1.9/rel2/lib386/nt/clib3r.lib(nmemneed.c)
00407990       __nmemneed_
Module: /mnt/sda5/.user/root/src/openwatcom-1.9/rel2/lib386/nt/clib3r.lib(mem.c)
004079a0       __MemAllocator
00407a50       __MemFree
Module: /mnt/sda5/.user/root/src/openwatcom-1.9/rel2/lib386/nt/clib3r.lib(grownear.c)
00407cf0       __ExpandDGROUP_
Module: /mnt/sda5/.user/root/src/openwatcom-1.9/rel2/lib386/nt/clib3r.lib(xmsgwnt.c)
00407d10+      __exit_with_msg_
00407d70       __fatal_runtime_error_
Module: /mnt/sda5/.user/root/src/openwatcom-1.9/rel2/lib386/nt/clib3r.lib(fclose.c)
00407d90+      __doclose_
00407e30       __shutdown_stream_
00407e50*      fclose_
0040fae0+      ___RmTmpFileFn
Module: /mnt/sda5/.user/root/src/openwatcom-1.9/rel2/lib386/nt/clib3r.lib(freefp.c)
00407ea0       __freefp_
00407ef0       __purgefp_
Module: /mnt/sda5/.user/root/src/openwatcom-1.9/rel2/lib386/nt/clib3r.lib(crwdata)
0040d634       __osmajor
0040d635       __osminor
0040d636       __osbuild
0040d638       __osver
0040d63c       __winmajor
0040d640       __winminor
0040d644       __winver
0040d600       __LpDllName
0040d604       __LpwCmdLine
0040d608       __LpwPgmName
0040d60c       __LpwDllName
0040d5f8       __LpCmdLine
0040d5fc       __LpPgmName
0040d5f0*      __dynend
0040d5f4       __curbrk
0040d610*      __STACKLOW
0040d614       __STACKTOP
0040d618       __ASTACKSIZ
0040d61c       __ASTACKPTR
0040d620*      __cbyte
0040d624*      __cbyte2
0040d628*      __child
0040d62e       __Envptr
0040d632*      __Envseg
0040d62c*      __no87
0040d648       ___FPE_handler
Module: /mnt/sda5/.user/root/src/openwatcom-1.9/rel2/lib386/nt/clib3r.lib(getmodfn.c)
00407f20       __lib_GetModuleFileNameW_
Module: /mnt/sda5/.user/root/src/openwatcom-1.9/rel2/lib386/nt/clib3r.lib(strdup.c)
00407fc0       __clib_strdup_
Module: /mnt/sda5/.user/root/src/openwatcom-1.9/rel2/lib386/nt/clib3r.lib(ustrdup.c)
00408000       __clib_wcsdup_
Module: /mnt/sda5/.user/root/src/openwatcom-1.9/rel2/lib386/nt/clib3r.lib(excptwnt.c)
00408690+      ___ReportException@4
00408ae0       __DefaultExceptionHandler_
00408b20+      ___ExceptionFilter
00408d30       __NewExceptionFilter_
00408d60       __DoneExceptionFilter_
0040d64c       ___oscode_check_func
0040d650       ___raise_func
0040fae4*      _sw
0040fae8+      ___ExceptionHandled
0040fae9+      ___ReportInvoked
Module: /mnt/sda5/.user/root/src/openwatcom-1.9/rel2/lib386/nt/clib3r.lib(stklmwnt.c)
00408da0       __init_stack_limits_
Module: /mnt/sda5/.user/root/src/openwatcom-1.9/rel2/lib386/nt/clib3r.lib(chktty.c)
00408e10       __chktty_
Module: /mnt/sda5/.user/root/src/openwatcom-1.9/rel2/lib386/nt/clib3r.lib(fsync.c)
00408e50       fsync_
Module: /mnt/sda5/.user/root/src/openwatcom-1.9/rel2/lib386/nt/clib3r.lib(qwrit.c)
00408ea0       __qwrite_
Module: /mnt/sda5/.user/root/src/openwatcom-1.9/rel2/lib386/nt/clib3r.lib(prtf.c)
00408f80       __prtf_
Module: /mnt/sda5/.user/root/src/openwatcom-1.9/rel2/lib386/nt/clib3r.lib(mthrdini.c)
00409c50       __InitThreadData_
0040d668       ___ThreadDataSize
Module: /mnt/sda5/.user/root/src/openwatcom-1.9/rel2/lib386/nt/clib3r.lib(cmain386.c)
00409c80       __CMain
Module: /mnt/sda5/.user/root/src/openwatcom-1.9/rel2/lib386/nt/clib3r.lib(dosseg)
00001234       __DOSseg__
Module: /mnt/sda5/.user/root/src/openwatcom-1.9/rel2/lib386/nt/clib3r.lib(histsplt.c)
0040faec       ___historical_splitparms
Module: /mnt/sda5/.user/root/src/openwatcom-1.9/rel2/lib386/nt/clib3r.lib(___argc.c)
0040faf0       ____Argc
0040faf4       ____Argv
Module: /mnt/sda5/.user/root/src/openwatcom-1.9/rel2/lib386/nt/clib3r.lib(nrealloc.c)
00409cc0*      _nrealloc_
00409cc0       realloc_
Module: /mnt/sda5/.user/root/src/openwatcom-1.9/rel2/lib386/nt/clib3r.lib(mbsnbcpy.c)
00409d40       _mbsnbcpy_
Module: /mnt/sda5/.user/root/src/openwatcom-1.9/rel2/lib386/nt/clib3r.lib(mbisdbcs.c)
0040faf8       ___IsDBCS
Module: /mnt/sda5/.user/root/src/openwatcom-1.9/rel2/lib386/nt/clib3r.lib(mbislead.c)
00409da0*      _ismbblead_
0040fafc       ___MBCSIsTable
Module: /mnt/sda5/.user/root/src/openwatcom-1.9/rel2/lib386/nt/clib3r.lib(setenvp.c)
00409dc0       __setenvp_
00409e80       __freeenvp_
Module: /mnt/sda5/.user/root/src/openwatcom-1.9/rel2/lib386/nt/clib3r.lib(locmktim.c)
00409ed0       __local_mktime_
Module: /mnt/sda5/.user/root/src/openwatcom-1.9/rel2/lib386/nt/clib3r.lib(leapyear.c)
0040a010       __leapyear_
0040d004       ___diyr
0040d01e       ___dilyr
Module: /mnt/sda5/.user/root/src/openwatcom-1.9/rel2/lib386/nt/clib3r.lib(wcstombs.c)
0040a050       wcstombs_
Module: /mnt/sda5/.user/root/src/openwatcom-1.9/rel2/lib386/nt/clib3r.lib(amblksiz.c)
0040d66c       __amblksiz
Module: /mnt/sda5/.user/root/src/openwatcom-1.9/rel2/lib386/nt/clib3r.lib(heapen.c)
0040a0f0*      _heapenable_
0040d670       ___heap_enabled
Module: /mnt/sda5/.user/root/src/openwatcom-1.9/rel2/lib386/nt/clib3r.lib(nheapmin.c)
0040a120       _nheapshrink_
0040a120*      _nheapmin_
0040a120*      _heapmin_
0040a120*      _heapshrink_
Module: /mnt/sda5/.user/root/src/openwatcom-1.9/rel2/lib386/nt/clib3r.lib(enterdb.c)
0040a210       __EnterWVIDEO_
0040d674+      ___WD_Present
Module: /mnt/sda5/.user/root/src/openwatcom-1.9/rel2/lib386/nt/clib3r.lib(ustrlen.c)
0040a236       wcslen_
Module: /mnt/sda5/.user/root/src/openwatcom-1.9/rel2/lib386/nt/clib3r.lib(memcpy.c)
0040a250       memcpy_
Module: /mnt/sda5/.user/root/src/openwatcom-1.9/rel2/lib386/nt/clib3r.lib(conutwnt.c)
0040a280*      __NTRealKey_
0040a330*      __NTConsoleInput_
0040a340       __NTConsoleOutput_
Module: /mnt/sda5/.user/root/src/openwatcom-1.9/rel2/lib386/nt/clib3r.lib(fclex387.c)
0040a350       _ClearFPE_
Module: /mnt/sda5/.user/root/src/openwatcom-1.9/rel2/lib386/nt/clib3r.lib(signlwnt.c)
0040d680+      __SignalTable
0040a360+      __SetSignalFunc_
0040a3b0+      __GetSignalFunc_
0040a3e0+      __GetSignalOSCode_
0040a410+      __CheckSignalExCode_
0040a550+      __sigabort_
0040a560       __sigfpe_handler_
0040a5b0*      signal_
0040a640+      raise_
0040a6b0+      __SigInit_
0040a700+      __SigFini_
0040a740+      __sig_init_
Module: /mnt/sda5/.user/root/src/openwatcom-1.9/rel2/lib386/nt/clib3r.lib(wctomb.c)
0040a760       wctomb_
Module: /mnt/sda5/.user/root/src/openwatcom-1.9/rel2/lib386/nt/clib3r.lib(itoa.c)
0040a7a0+      utoa_
0040a7f0       itoa_
Module: /mnt/sda5/.user/root/src/openwatcom-1.9/rel2/lib386/nt/clib3r.lib(strupr.c)
0040a820       strupr_
Module: /mnt/sda5/.user/root/src/openwatcom-1.9/rel2/lib386/nt/clib3r.lib(noefgfmt.c)
0040d6ec       ___EFG_printf
0040d6f0*      ___EFG_scanf
Module: /mnt/sda5/.user/root/src/openwatcom-1.9/rel2/lib386/nt/clib3r.lib(lltoa.c)
0040a890       ulltoa_
0040a900*      lltoa_
Module: /mnt/sda5/.user/root/src/openwatcom-1.9/rel2/lib386/nt/clib3r.lib(ltoa.c)
0040a930       ultoa_
0040a980*      ltoa_
Module: /mnt/sda5/.user/root/src/openwatcom-1.9/rel2/lib386/nt/clib3r.lib(cinit.c)
0040a9b0       __CommonInit_
Module: /mnt/sda5/.user/root/src/openwatcom-1.9/rel2/lib386/nt/clib3r.lib(nmsize.c)
0040a9c0       _nmsize_
0040a9c0*      _msize_
Module: /mnt/sda5/.user/root/src/openwatcom-1.9/rel2/lib386/nt/clib3r.lib(nexpand.c)
0040a9d0       _nexpand_
0040a9d0*      _expand_
0040aa10+      __HeapManager_expand_
Module: /mnt/sda5/.user/root/src/openwatcom-1.9/rel2/lib386/nt/clib3r.lib(mbinit.c)
0040ac01       __mbinit_
0040d6f4       ___MBCodePage
Module: /mnt/sda5/.user/root/src/openwatcom-1.9/rel2/lib386/nt/clib3r.lib(dofilstr.c)
0040ad10       __ParsePosixHandleStr_
Module: /mnt/sda5/.user/root/src/openwatcom-1.9/rel2/lib386/nt/clib3r.lib(clearenv.c)
0040ae30       clearenv_
Module: /mnt/sda5/.user/root/src/openwatcom-1.9/rel2/lib386/nt/clib3r.lib(abort.c)
0040aed5*      abort_
0040aee7       __terminate_
0040d6f8       ___abort
Module: /mnt/sda5/.user/root/src/openwatcom-1.9/rel2/lib386/nt/clib3r.lib(alphabet.c)
0040d038       ___Alphabet
Module: /mnt/sda5/.user/root/src/openwatcom-1.9/rel2/lib386/nt/clib3r.lib(strncpy.c)
0040af00       strncpy_
Module: /mnt/sda5/.user/root/src/openwatcom-1.9/rel2/lib386/nt/clib3r.lib(strtol.c)
0040b160*      strtoul_
0040b170       strtol_
Module: /mnt/sda5/.user/root/src/openwatcom-1.9/rel2/lib386/nt/clib3r.lib(putenv.c)
0040b180       putenv_
0040b410       __putenv_
Module: /mnt/sda5/.user/root/src/openwatcom-1.9/rel2/lib386/nt/clib3r.lib(mbschr.c)
0040b580       _mbschr_
Module: /mnt/sda5/.user/root/src/openwatcom-1.9/rel2/lib386/nt/clib3r.lib(mbslen.c)
0040b5e0       _mbslen_
Module: /mnt/sda5/.user/root/src/openwatcom-1.9/rel2/lib386/nt/clib3r.lib(mbstowcs.c)
0040b610       mbstowcs_
Module: /mnt/sda5/.user/root/src/openwatcom-1.9/rel2/lib386/nt/clib3r.lib(uputenv.c)
0040b690*      _wputenv_
0040b8b0       __wputenv_
Module: /mnt/sda5/.user/root/src/openwatcom-1.9/rel2/lib386/nt/clib3r.lib(toupper.c)
0040b9b0       toupper_
Module: /mnt/sda5/.user/root/src/openwatcom-1.9/rel2/lib386/nt/clib3r.lib(memmove.c)
0040b9c0       memmove_
Module: /mnt/sda5/.user/root/src/openwatcom-1.9/rel2/lib386/nt/clib3r.lib(mbccmp.c)
0040ba20       _mbccmp_
Module: /mnt/sda5/.user/root/src/openwatcom-1.9/rel2/lib386/nt/clib3r.lib(mbtowc.c)
0040ba60       mbtowc_
Module: /mnt/sda5/.user/root/src/openwatcom-1.9/rel2/lib386/nt/clib3r.lib(ustrchr.c)
0040baf0       wcschr_
Module: /mnt/sda5/.user/root/src/openwatcom-1.9/rel2/lib386/nt/clib3r.lib(setenvar.c)
0040bb10       __lib_SetEnvironmentVariableW_
Module: /mnt/sda5/.user/root/src/openwatcom-1.9/rel2/lib386/nt/clib3r.lib(crtwenv.c)
0040bc00       __create_wide_environment_
Module: /mnt/sda5/.user/root/src/openwatcom-1.9/rel2/lib386/nt/clib3r.lib(utoupper.c)
0040bc68       towupper_


                        +----------------------+
                        |   Imported Symbols   |
                        +----------------------+

Symbol                              Module
======                              ======

_CreateFileA@28                     KERNEL32.DLL
_ReadFile@20                        KERNEL32.DLL
_GetLastError@0                     KERNEL32.DLL
_GetEnvironmentStringsA@0           KERNEL32.DLL
_GetVersion@0                       KERNEL32.DLL
_GetModuleFileNameA@12              KERNEL32.DLL
_GetCommandLineA@0                  KERNEL32.DLL
_GetCommandLineW@0                  KERNEL32.DLL
_FreeEnvironmentStringsA@4          KERNEL32.DLL
_GetModuleHandleA@4                 KERNEL32.DLL
_ExitProcess@4                      KERNEL32.DLL
_SetStdHandle@8                     KERNEL32.DLL
_CreateEventA@16                    KERNEL32.DLL
_GetStdHandle@4                     KERNEL32.DLL
_CloseHandle@4                      KERNEL32.DLL
_GetFileType@4                      KERNEL32.DLL
_GetFileAttributesA@4               KERNEL32.DLL
_FindFirstFileA@8                   KERNEL32.DLL
_FindClose@4                        KERNEL32.DLL
_CharUpperA@4                       USER32.DLL
_GetLocalTime@4                     KERNEL32.DLL
_GetTimeZoneInformation@4           KERNEL32.DLL
_SetFilePointer@16                  KERNEL32.DLL
_VirtualAlloc@16                    KERNEL32.DLL
_WriteFile@20                       KERNEL32.DLL
_GetModuleFileNameW@12              KERNEL32.DLL
_MultiByteToWideChar@24             KERNEL32.DLL
_LoadLibraryA@4                     KERNEL32.DLL
_GetProcAddress@8                   KERNEL32.DLL
_SetUnhandledExceptionFilter@4      KERNEL32.DLL
_UnhandledExceptionFilter@4         KERNEL32.DLL
_VirtualQuery@12                    KERNEL32.DLL
_FlushFileBuffers@4                 KERNEL32.DLL
_GetCurrentThreadId@0               KERNEL32.DLL
_VirtualFree@12                     KERNEL32.DLL
_SetConsoleCtrlHandler@8            KERNEL32.DLL
_WideCharToMultiByte@32             KERNEL32.DLL
_GetACP@0                           KERNEL32.DLL
_GetOEMCP@0                         KERNEL32.DLL
_GetCPInfo@8                        KERNEL32.DLL
_SetEnvironmentVariableA@8          KERNEL32.DLL
_SetEnvironmentVariableW@8          KERNEL32.DLL


                        +--------------------+
                        |   Libraries Used   |
                        +--------------------+

/mnt/sda5/.user/root/src/openwatcom-1.9/rel2/lib386/nt/kernel32.lib
/mnt/sda5/.user/root/src/openwatcom-1.9/rel2/lib386/nt/user32.lib
/mnt/sda5/.user/root/src/openwatcom-1.9/rel2/lib386/nt/clib3r.lib


                        +-----------------------+
                        |   Linker Statistics   |
                        +-----------------------+

Stack size:  00010000 (65536.)
Memory size:  0001de3a (122426.)
Entry point address: 004044ea
Link time: 00:00.00
