Open Watcom Linker Version 1.9
Portions Copyright (c) 1985-2002 Sybase, Inc. All Rights Reserved.
Created on:       12/12/16 02:39:18
Executable Image: vi.rex
creating a Windows 32-bit executable


                        +------------+
                        |   Groups   |
                        +------------+

Group                           Address              Size
=====                           =======              ====

DGROUP                          00050698             00013c88



                        +--------------+
                        |   Segments   |
                        +--------------+

Segment                Class          Group          Address         Size
=======                =====          =====          =======         ====

BEGTEXT                CODE           AUTO           00000000        00000006
_TEXT                  CODE           AUTO           00000010        00050688
CONST                  DATA           DGROUP         00050698        0000005c
CONST2                 DATA           DGROUP         000506f4        00000000
_DATA                  DATA           DGROUP         00050700        00004504
XIB                    DATA           DGROUP         00054c04        00000000
XI                     DATA           DGROUP         00054c04        00000030
XIE                    DATA           DGROUP         00054c34        00000000
YIB                    DATA           DGROUP         00054c34        00000000
YI                     DATA           DGROUP         00054c34        00000018
YIE                    DATA           DGROUP         00054c4c        00000000
DATA                   DATA           DGROUP         00054c4c        00000000
_BSS                   BSS            DGROUP         00054c50        000056c4
STACK                  STACK          DGROUP         0005a320        0000a000


                        +----------------+
                        |   Memory Map   |
                        +----------------+

* = unreferenced symbol
+ = symbol only referenced locally

Address        Symbol
=======        ======

Module: version.obj(/mnt/sda5/.user/root/src/openwatcom-1.9/bld/vi/c/version.c)
00050700       _DATESTAMP_T
00050709       _DATESTAMP_D
00050715       _AUTHOR
00050758       _VERSIONT
Module: name.obj(/mnt/sda5/.user/root/src/openwatcom-1.9/bld/vi/c/name.c)
0005075c       _TITLE
Module: key.obj(/mnt/sda5/.user/root/src/openwatcom-1.9/bld/vi/c/key.c)
00000100       GetVIKey_
00000370       GetKey_
00000430       NonKeyboardEventsPending_
00000460       GetNextEvent_
00000620       ClearBreak_
00000640       KeyAddString_
00000680       AddCurrentMouseEvent_
000006c0       KeyAdd_
Module: globals.obj(/mnt/sda5/.user/root/src/openwatcom-1.9/bld/vi/c/globals.c)
00055058       _SpawnPrompt
00055158       _DirFiles
00055b58       _SelRgn
00055b70       _MatchData
00055bb8       _CurrentRegularExpression
00055bbc       _TileColors
00055bc0       _CurrentDirectory
00055bc4       _SwapBlockArraySize
00055bc8       _ReadBuffer
00055bcc       _WriteBuffer
00055bd0       _SwapBlocks
00055bd4       _TmpDir
00055bd8       _HomeDirectory
00055bdc       _DotCmd
00055be0       _DotBuffer
00055be4       _SwapBlocksInUse
00055be8       _SourceErrCount
00055bec       _AltDotBuffer
00055bf0       _AltDotCount
00055bf4       _AltDotDigits
00055bf8       _DotCmdCount
00055bfc       _ClockTicks
00055c00       _RepeatDigits
00055c04       _DotDigits
00055c08       _DotCount
00055c0c       _NumStatusSections
00055c10       _SystemRC
00055c14       _MaxMemFree
00055c18       _WrapMargin
00055c1c       _StatusSections
00055c20       _MaxMemFreeAfterInit
00055c24       _RegExpError
00055c28       _DirFileCount
00055c2c       _Savebufs
00055c98       _UndoStack
00055c9c       _UndoUndoStack
00055ca0       _KeyMaps
00055ca4       _CurrentKeyMap
00055ca8       _CurrentKeyMapCount
00055cac       _SpecialSavebufs
00055df0       _InputKeyMaps
00055df4       _CurrentLine
00055df8       _CurrentFile
00055dfc       _WorkLine
00055e00       _Comspec
00055e04       _CurrentInfo
00055e08       _CurrentFcb
00055e0c       _FcbThreadHead
00055e10       _InfoHead
00055e14       _EXEName
00055e18       _Majick
00055e1c       _TagFileName
00055e20       _MarkList
00055e24       _CurrFIgnore
00055e28       _InfoTail
00055e2c       _StaticBuffer
00055e30       _BndMemory
00055e34       _FIgnore
00055e38       _FcbThreadTail
00055e3c       _HistoryFile
00055e40       _FcbBlocksInUse
00055e44       _HalfPageLines
00055e48       _WordAltDefn
00055e4c       _MouseRepeatDelay
00055e50       _NextAutoSave
00055e54       _GrepDefault
00055e58       _WordDefn
00055e5c*      _SpinCount
00055e60       _MouseCol
00055e64       _MouseRow
00055e68       _MouseStatus
00055e6c       _RepeatString
00055e76       _LastError
00055e78       _LastRetCode
00055e7a       _LastRC
00055e7c       _LastEvent
00055e7e       _NoRepeatInfo
00055e7f       _LastSavebuf
00050798       _MSG_CHARACTERS
000507a3       _MSG_LINES
000507a9       _MSG_PRESSANYKEY
000507b7       _MSG_DELETEDINTOBUFFER
000507cd       _MEMORIZE_MODE
000507dc       _CONFIG_FILE
000507e8       _SingleBlank
000507ea       _SingleSlash
000507ec       _BoolStr
000507f4*      _EditOpts
00050800*      _NumEditOpts
00050804       _EventList
00052604       _MouseSpeed
00052608       _MouseDoubleClickSpeed
0005260c*      _MouseRepeatStartDelay
00052610       _LastMouseEvent
00052614       _FileEndString
00052618       _StatusString
0005261c       _MaxPush
00052620       _Radix
00052624       _AutoSaveInterval
00052628       _PageLinesExposed
0005262c       _StackK
00052630*      _SpinData
00052634       _ExitAttr
00052638       _CurrentPos
00052640       _LeftTopPos
00052648       _VirtualColumnDesired
0005264c       _CurrentWindow
0005264e       _MessageWindow
00052650       _StatusWindow
00052652       _MenuWindow
00052654       _CurrNumWindow
00052658       _CursorBlinkRate
0005265c       _FilterHist
00052668       _CLHist
00052674       _FindHist
00052680       _LastFilesHist
0005268c       _SavebufBound
000526a0       _CurrentSavebuf
000526a4       _WorkSavebuf
000526a8       _SavebufNumber
000526ac       _cmdlinew_info
000526be       _statusw_info
000526d0       _repcntw_info
000526e2       _editw_info
000526f4       _extraw_info
00052706       _filecw_info
00052718       _linenumw_info
0005272a       _dirw_info
0005273c       _filelistw_info
0005274e       _setw_info
00052760       _setvalw_info
00052772       _messagew_info
00052784       _menuw_info
00052796       _menubarw_info
000527a8       _defaultw_info
000527ba       _activemenu_info
000527cc       _greyedmenu_info
000527de       _activegreyedmenu_info
000527f0       _CommandBuffer
000527f4       _SwapFileHandle
000527f8       _MaxSwapBlocks
000527fc       _MaxLine
00052800       _MaxLinem1
00052804       _crlf
00052806       _OverstrikeCursorType
00052808       _InsertCursorType
0005280a       _NormalCursorType
0005280c       _MatchCount
00052810       _LineNumWinWidth
00052814       _TabAmount
00052818       _ShiftWidth
0005281c       _HardTab
00052820       _maxdotbuffer
00052824       _CurrentStatusColumn
00052828       _ClockX
0005282c       _ClockY
00052830       _SpinX
00052834       _SpinY
00052838       _MaxTileColors
0005283c       _MaxWindowTileX
00052840       _MaxWindowTileY
00052844       _MoveColor
00052845       _ResizeColor
00052846       _InactiveWindowColor
00052848       _WindMaxWidth
0005284a       _WindMaxHeight
0005284c       _ToolBarButtonHeight
00052850       _ToolBarButtonWidth
00052854       _ToolBarColor
00052855       _EndOfLineChar
00052856       _EditFlags
00055e80*      _VideoPage
Module: pdata.obj(/mnt/sda5/.user/root/src/openwatcom-1.9/bld/vi/c/pdata.c)
000528d8       _ParseClTokens
00052cd0       _SetTokens1
00052f73       _SetTokens2
0005322f       _SetTokens2a
Module: exdata.obj(/mnt/sda5/.user/root/src/openwatcom-1.9/bld/vi/c/exdata.c)
000532e8       _ExTokens
Module: srcdata.obj(/mnt/sda5/.user/root/src/openwatcom-1.9/bld/vi/c/srcdata.c)
00053330       _SourceTokens
000533d5       _StrTokens
00055e84       _VarHead
00055e88       _ErrorValues
00055e8c       _CurrentSrcLine
00055e90       _CurrentSrcLabel
00055e94       _VarTail
00055e98       _ErrorTokens
00055e9c       _CurrentSrcData
Module: rxwrap.obj(/mnt/sda5/.user/root/src/openwatcom-1.9/bld/vi/c/rxwrap.c)
00000770       RegComp_
000013d0       RegExec_
000019b0*      RegAnchor_
000533ec       _META
Module: rxsupp.obj(/mnt/sda5/.user/root/src/openwatcom-1.9/bld/vi/c/rxsupp.c)
000019c0       IsMagicCharRegular_
00001a00       CurrentRegComp_
00001a20       GetCurrRegExpColumn_
00001a30       GetCurrRegExpLength_
00001a40       MakeExpressionNonRegular_
00001b20       RegExpAttrSave_
00001b80       RegExpAttrRestore_
Module: tab_hell.obj(/mnt/sda5/.user/root/src/openwatcom-1.9/bld/vi/c/tab_hell.c)
00001c10       InsertTabSpace_
00001cc0       ExpandTabsInABufferUpToColumn_
00001d40       ExpandTabsInABuffer_
00001e40       WinVirtualCursorPosition_
00001e90       WinRealCursorPosition_
00001ef0       GetVirtualCursorPosition_
00001f70       VirtualColumnOnCurrentLine_
00002000       RealColumnOnCurrentLine_
00002030       CursorPositionOffRight_
000020b0*      RealCursorPositionInString_
000020e0       RealCursorPositionOnLine_
00002130       VirtualLineLen_
00002180       AddLeadingTabSpace_
000022d0       ConvertSpacesToTabsUpToColumn_
00055ec4       _TabCnt
Module: regsub.obj(/mnt/sda5/.user/root/src/openwatcom-1.9/bld/vi/c/regsub.c)
00002500       RegSub_
Module: findrx.obj(/mnt/sda5/.user/root/src/openwatcom-1.9/bld/vi/c/findrx.c)
000028f0       FindRegularExpression_
00002aa0       FindRegularExpressionBackwards_
Module: mem.obj(/mnt/sda5/.user/root/src/openwatcom-1.9/bld/vi/c/mem.c)
00002e20+      doMemAllocUnsafe_
00002e80       MemAlloc_
00002ea0       MemAllocUnsafe_
00002eb0       MemFree_
00002ec0+      doMemReAllocUnsafe_
00002f60       MemReAllocUnsafe_
00002f70       MemReAlloc_
00002f90       StaticAlloc_
00002ff0       StaticFree_
00003020       StaticStart_
00003080       StaticFini_
00003090       MemStrDup_
00053420       _maxStatic
Module: addstr.obj(/mnt/sda5/.user/root/src/openwatcom-1.9/bld/vi/c/addstr.c)
000030e0       AddString2_
00003100       AddString_
00003150       DeleteString_
Module: llrtns.obj(/mnt/sda5/.user/root/src/openwatcom-1.9/bld/vi/c/llrtns.c)
00003170       AddLLItemAtEnd_
000031a0       InsertLLItemAfter_
000031c0       InsertLLItemBefore_
000031e0       DeleteLLItem_
00003220       ReplaceLLItem_
00003250*      ValidateLL_
Module: parse.obj(/mnt/sda5/.user/root/src/openwatcom-1.9/bld/vi/c/parse.c)
00003290       RemoveLeadingSpaces_
000032c0       TranslateTabs_
00003320       GetStringWithPossibleQuote2_
00003380       GetStringWithPossibleQuote_
00003390       NextWord1_
00003410       NextWordSlash_
00003420       NextWord_
00003560       EliminateFirstN_
00003580       Tokenize_
00003670       GetNumberOfTokens_
000036b0*      GetLongestTokenLength_
00003700       GetTokenString_
00003740       ReplaceSubString_
Module: init.obj(/mnt/sda5/.user/root/src/openwatcom-1.9/bld/vi/c/init.c)
00003900       SetConfigFileName_
00003910       GetConfigFileName_
00003920       FiniCFName_
00004350       InitializeEditor_
0005343c       _WordDefnDefault
Module: getopt.obj(/mnt/sda5/.user/root/src/openwatcom-1.9/bld/posix/misc/getopt.c)
00053440+      _OptInd
00053444+      _AltOptChar
00004410       GetOpt_
00055f04       _OptArg
00055f08+      _OptChar
Module: autoenv.obj(/mnt/sda5/.user/root/src/openwatcom-1.9/bld/watcom/c/autoenv.c)
000047e0       watcom_setup_env_
Module: xmem.obj(/mnt/sda5/.user/root/src/openwatcom-1.9/bld/vi/c/xmem.c)
00004950       ExtendedMemoryFini_
00004950       ExtendedMemoryInit_
Module: fcbswap.obj(/mnt/sda5/.user/root/src/openwatcom-1.9/bld/vi/c/fcbswap.c)
00004960       FetchFcb_
000049a0       SwapFcb_
000049e0       RestoreToNormalMemory_
Module: clset.obj(/mnt/sda5/.user/root/src/openwatcom-1.9/bld/vi/c/clset.c)
000064a0*      SettingSelected_
00006510       Set_
000066c0       GetASetVal_
Module: hist.obj(/mnt/sda5/.user/root/src/openwatcom-1.9/bld/vi/c/hist.c)
000067a0       LoadHistory_
00006a00       SaveHistory_
00006a70       FilterHistInit_
00006aa0       CLHistInit_
00006ad0       FindHistInit_
00006b00       LastFilesHistInit_
00006b30       HistFini_
Module: samefile.obj(/mnt/sda5/.user/root/src/openwatcom-1.9/bld/vi/c/samefile.c)
00006b70       SameFile_
Module: dirdisp.obj(/mnt/sda5/.user/root/src/openwatcom-1.9/bld/vi/c/dirdisp.c)
00006c10+      FileCompleteMouseHandler_
00007020       FileCompleteMouseClick_
000071a0+      displayFiles_
00007410       StartFileComplete_
000074f0       ContinueFileComplete_
00007530       FinishFileComplete_
00007570       PauseFileComplete_
Module: expandfn.obj(/mnt/sda5/.user/root/src/openwatcom-1.9/bld/vi/c/expandfn.c)
000075a0       ExpandFileNames_
Module: getdir.obj(/mnt/sda5/.user/root/src/openwatcom-1.9/bld/vi/c/getdir.c)
00007990       GetSortDir_
000079d0       DirFini_
Module: mapkey.obj(/mnt/sda5/.user/root/src/openwatcom-1.9/bld/vi/c/mapkey.c)
00056030+      _currUndoStack
00007ab0       MapKey_
00007c90       DoKeyMap_
00007ea0       RunKeyMap_
00007ef0       StartInputKeyMap_
00007f60       DoneInputKeyMap_
00007f80+      extractViKeyToken_
00008010       AddKeyMap_
00008100       InitKeyMaps_
00008120       FiniKeyMaps_
00008190       ExecuteBuffer_
000081f0       LookUpCharToken_
Module: editmv.obj(/mnt/sda5/.user/root/src/openwatcom-1.9/bld/vi/c/editmv.c)
000082b0       MoveScreenML_
00008300       MoveScreenDown_
00008370       MoveScreenUp_
000083e0       MoveScreenDownPageML_
00008400       MoveScreenUpPageML_
00008430       MoveScreenLeftPageML_
00008460       MoveScreenRightPageML_
00008490       MovePage_
00008590       MovePageDown_
000085b0       MovePageUp_
000085d0       MovePosition_
000086e0       MoveHalfPageDown_
000086f0       MoveHalfPageUp_
00008740       MoveScreenLeftRightML_
Module: linenum.obj(/mnt/sda5/.user/root/src/openwatcom-1.9/bld/vi/c/linenum.c)
00008770       LineNumbersSetup_
Module: linework.obj(/mnt/sda5/.user/root/src/openwatcom-1.9/bld/vi/c/linework.c)
00008930       GetCurrentLine_
00008980       ReplaceCurrentLine_
00008a20       DisplayWorkLine_
Module: undoclne.obj(/mnt/sda5/.user/root/src/openwatcom-1.9/bld/vi/c/undoclne.c)
00008a40       CurrentLineReplaceUndoStart_
00008ae0       CurrentLineReplaceUndoCancel_
00008b00       CurrentLineReplaceUndoEnd_
00008ca0       ConditionalCurrentLineReplaceUndoEnd_
Module: fcbdmp.obj(/mnt/sda5/.user/root/src/openwatcom-1.9/bld/vi/c/fcbdmp.c)
00008d70       WalkUndo_
00008d70       LineInfo_
00008d70       SanityCheck_
00008d70       FcbThreadDump_
00008d70       FcbDump_
00008d70       HeapCheck_
00008d80       DumpMemory_
Module: file.obj(/mnt/sda5/.user/root/src/openwatcom-1.9/bld/vi/c/file.c)
00008fd0       SaveInfo_
000090c0       SaveCurrentInfo_
00009130       RestoreInfo_
00009860       DisplayFileStatus_
00009a60       CTurnOffFileDisplayBits_
00009aa0       CFileReadOnly_
00009b60       FileIOMessage_
00009b80       IsTextFile_
00009bf0*      GimmeFileCount_
Module: filemove.obj(/mnt/sda5/.user/root/src/openwatcom-1.9/bld/vi/c/filemove.c)
00009c10       NextFileDammit_
00009dd0       NextFile_
00009e00       RotateFileForward_
00009e20       RotateFileBackwards_
00009e60       GotoFile_
00009e90       BringUpFile_
Module: filelast.obj(/mnt/sda5/.user/root/src/openwatcom-1.9/bld/vi/c/filelast.c)
00009fe0       UpdateLastFileList_
Module: fini.obj(/mnt/sda5/.user/root/src/openwatcom-1.9/bld/vi/c/fini.c)
0000a450       Quit_
0000a580       QuitEditor_
0000a590       ExitEditor_
00053490+      _UsageMsg
000534d8       _OptEnvVar
Module: autosave.obj(/mnt/sda5/.user/root/src/openwatcom-1.9/bld/vi/c/autosave.c)
0000a700+      GetCurrentFilePath_
0000a8c0       DoAutoSave_
0000aaa0       LostFileCheck_
0000abe0       AutoSaveInit_
0000af20       AutoSaveFini_
0000afd0       SetNextAutoSaveTime_
0000aff0       RemoveFromAutoSaveList_
Module: srchook.obj(/mnt/sda5/.user/root/src/openwatcom-1.9/bld/vi/c/srchook.c)
0000b2b0       GetHookVar_
0000b3e0       SourceHook_
0000b410       SourceHookData_
0000b450       HookScriptCheck_
0000b470       InvokeColSelHook_
0000b5a0       InvokeLineSelHook_
0000b620       InvokeMenuHook_
Module: srcgoto.obj(/mnt/sda5/.user/root/src/openwatcom-1.9/bld/vi/c/srcgoto.c)
0000b650       SrcGoTo_
0000b6c0       AddLabel_
Module: srcif.obj(/mnt/sda5/.user/root/src/openwatcom-1.9/bld/vi/c/srcif.c)
0000b7b0       SrcIf_
0000b840       GetErrorTokenValue_
0000b8c0       ReadErrorTokens_
Module: srcfile.obj(/mnt/sda5/.user/root/src/openwatcom-1.9/bld/vi/c/srcfile.c)
0000b920       SrcOpen_
0000bad0       SrcRead_
0000bc60       SrcWrite_
0000bd20       SrcClose_
Module: srccs.obj(/mnt/sda5/.user/root/src/openwatcom-1.9/bld/vi/c/srccs.c)
0000bec0       CSInit_
0000bee0       CSFini_
0000bf60       CSIf_
0000bf80       CSElseIf_
0000bff0       CSElse_
0000c040       CSEndif_
0000c090       CSWhile_
0000c0c0       CSLoop_
0000c0e0       CSEndLoop_
0000c120       CSUntil_
0000c1a0       CSContinue_
0000c1b0       CSBreak_
0000c1c0       CSQuif_
Module: srcexpr.obj(/mnt/sda5/.user/root/src/openwatcom-1.9/bld/vi/c/srcexpr.c)
0000c1f0       SrcExpr_
Module: srcvar.obj(/mnt/sda5/.user/root/src/openwatcom-1.9/bld/vi/c/srcvar.c)
0000c360       VarAddGlobalStr_
0000c370       VarAddRandC_
0000c3c0       SetModifiedVar_
0000c3d0       VarAddGlobalLong_
0000c400       VarAddStr_
0000c510       VarListDelete_
0000c540       VarName_
0000c5d0       VarFind_
0000c630       VarFini_
0000c660*      VarDump_
0000c6b0*      VarSC_
Module: srcinp.obj(/mnt/sda5/.user/root/src/openwatcom-1.9/bld/vi/c/srcinp.c)
0000c7f0       SrcInput_
0000c800       SrcGet_
Module: srcassgn.obj(/mnt/sda5/.user/root/src/openwatcom-1.9/bld/vi/c/srcassgn.c)
0000c820       SrcAssign_
Module: srcexpnd.obj(/mnt/sda5/.user/root/src/openwatcom-1.9/bld/vi/c/srcexpnd.c)
0000cda0       Expand_
Module: srcnextw.obj(/mnt/sda5/.user/root/src/openwatcom-1.9/bld/vi/c/srcnextw.c)
0000cfd0       SrcNextWord_
Module: filestk.obj(/mnt/sda5/.user/root/src/openwatcom-1.9/bld/vi/c/filestk.c)
0000d0f0       InitFileStack_
0000d120       FiniFileStack_
0000d130       PushFileStack_
0000d1f0       PushFileStackAndMsg_
0000d220       PopFileStack_
Module: dotmode.obj(/mnt/sda5/.user/root/src/openwatcom-1.9/bld/vi/c/dotmode.c)
0000d2c0       SaveDotCmd_
0000d300       DoDotMode_
0000d400       DoAltDotMode_
Module: source.obj(/mnt/sda5/.user/root/src/openwatcom-1.9/bld/vi/c/source.c)
0000d590       Source_
0000dd20       FileSPVAR_
0000df50       SourceError_
0000e3c0       DeleteResidentScripts_
Module: mark.obj(/mnt/sda5/.user/root/src/openwatcom-1.9/bld/vi/c/mark.c)
0000e4e0       SetMark_
0000e590+      MarkOnLine_
0000e5f0+      RemoveMarkFromLine_
0000e6e0       SetGenericMark_
0000e7e0       GoMark_
0000e810       GoMarkLine_
0000e820*      GetMarkLine_
0000e840*      GetMark_
0000e910       VerifyMark_
0000ea90       AllocateMarkList_
0000eac0       SetMarkContext_
0000eae0       FreeMarkList_
0000eb60       MemorizeCurrentContext_
Module: move.obj(/mnt/sda5/.user/root/src/openwatcom-1.9/bld/vi/c/move.c)
0000ed80       GoToLineRelCurs_
0000ed90       GoToLineNoRelCurs_
0000eda0       SetCurrentLineNumber_
0000ee10       GoToColumnOK_
0000ee20       GoToColumnOnCurrentLine_
0000ee70       GoToColumn_
0000ef10       SetCurrentLine_
0000efc0       CheckLeftColumn_
0000f040       ValidateCurrentColumn_
0000f0c0       CheckCurrentColumn_
0000f170       ShiftTab_
0000f1a0       SetCurrentColumn_
0000f240       LocateCmd_
Module: change.obj(/mnt/sda5/.user/root/src/openwatcom-1.9/bld/vi/c/change.c)
0000f330       DoLineSubstitute_
0000f340       DoSubstitute_
0000f350       DoChangeLineEnd_
Module: delete.obj(/mnt/sda5/.user/root/src/openwatcom-1.9/bld/vi/c/delete.c)
0000f360       DoDeleteRegion_
0000f390       DoDeleteLineEnd_
0000f3b0       DoDeleteCharAtCursor_
0000f400       DoDeleteCharBeforeCursor_
0000f440       DeleteSelectedRegion_
0000f480       YankSelectedRegion_
Module: linefind.obj(/mnt/sda5/.user/root/src/openwatcom-1.9/bld/vi/c/linefind.c)
0000f540*      FindFirstCharNotInListForward_
0000f590*      FindFirstCharNotInListBackwards_
0000f5e0*      FindFirstCharInRangeForward_
0000f620*      FindFirstCharNotInRangeForward_
0000f660*      FindFirstCharInRangeBackwards_
0000f6a0*      FindFirstCharNotInRangeBackward_
0000f6e0       TestIfCharInRange_
0000f740       FindCharOnCurrentLine_
0000f810       FancyGotoLine_
Module: dat.obj(/mnt/sda5/.user/root/src/openwatcom-1.9/bld/vi/c/dat.c)
0000f850       ReadDataFile_
Module: parsecl.obj(/mnt/sda5/.user/root/src/openwatcom-1.9/bld/vi/c/parsecl.c)
0000f9e0       ParseCommandLine_
0000fd60       GetAddress_
Module: findcmd.obj(/mnt/sda5/.user/root/src/openwatcom-1.9/bld/vi/c/findcmd.c)
000100b0       FindCmdFini_
000100d0       HilightSearchString_
00010120       ResetLastFind_
00010150+      GetFindForward_
00010180+      GetFindBackwards_
000103f0       DoFindForward_
00010410       DoFindBackwards_
00010440+      JumpTo_
00010490       FancyDoFindMisc_
000104e0+      FancyDoFind_
00010510       DoNextFindForward_
00010550       DoNextFindBackwards_
00010590       DoNextFindForwardMisc_
000105e0       DoNextFindBackwardsMisc_
000106e0       GetFind_
000109d0*      SaveFindRowColumn_
000109f0       ColorFind_
00010a80       SetLastFind_
00010a90       FancyDoReplace_
Module: savebuf.obj(/mnt/sda5/.user/root/src/openwatcom-1.9/bld/vi/c/savebuf.c)
00010fd0       InsertSavebufBefore_
00010ff0       InsertSavebufBefore2_
00011010       InsertSavebufAfter_
00011040*      InsertSavebufAfter2_
00011070       GetSavebufString_
00011270       InitSavebufs_
000112a0       FiniSavebufs_
000112d0       AddLineToSavebuf_
000113c0       AddSelRgnToSavebuf_
00011400       AddSelRgnToSavebufAndDelete_
00011410       AddFcbsToSavebuf_
000114c0       SwitchSavebuf_
000115b0       DoSavebufNumber_
00011600       SetSavebufNumber_
000116b0       IsEmptySavebuf_
Module: error.obj(/mnt/sda5/.user/root/src/openwatcom-1.9/bld/vi/c/error.c)
00011750       FatalError_
00011790*      Die_
000117e0       GetErrorMsg_
00011880       Error_
00011950       ErrorBox_
00011a70       ErrorFini_
Module: cmdline.obj(/mnt/sda5/.user/root/src/openwatcom-1.9/bld/vi/c/cmdline.c)
00011b50       InitCommandLine_
00011b60       FiniCommandLine_
00011bc0       ProcessCommandLine_
00011bd0       FancyProcessCommandLine_
00011c50       TryCompileableToken_
00012020       RunCommandLine_
00013330       ProcessWindow_
00013c70+      BATCHER
Module: editdc.obj(/mnt/sda5/.user/root/src/openwatcom-1.9/bld/vi/c/editdc.c)
00013cd0       DeleteRangeOnCurrentLine_
00013d70       DeleteBlockFromCurrentLine_
Module: word.obj(/mnt/sda5/.user/root/src/openwatcom-1.9/bld/vi/c/word.c)
00013e10       InitWordSearch_
00014010       MarkStartOfNextWordForward_
000140d0       MarkEndOfNextWordForward_
000141c0       MarkStartOfNextWordBackward_
00014270       GimmeCurrentWord_
00014300       GimmeCurrentEntireWordDim_
Module: hide.obj(/mnt/sda5/.user/root/src/openwatcom-1.9/bld/vi/c/hide.c)
00014420       HideLineRange_
Module: editins.obj(/mnt/sda5/.user/root/src/openwatcom-1.9/bld/vi/c/editins.c)
00014590       DoneCurrentInsert_
00014610       UpdateEditStatus_
00014880       IMChar_
00014920       IMEsc_
00014930       IMEnter_
00014ad0       IMBackSpace_
00014c60       IMDelete_
00014d10       IMDeleteML_
00014d20       IMBackSpaceML_
00014d30       IMMouseEvent_
00014d60       IMCursorKey_
00014ee0       IMMenuKey_
00014f20       IMSpace_
00014f50       IMTabs_
000152b0       IMEscapeNextChar_
000152e0       IMInsert_
00015350       IMCloseBracket_
000154d0       IMCloseBrace_
000156e0       DeleteAndInsertText_
000157c0       InsertTextOnNextLine_
000157d0       InsertTextOnPreviousLine_
000158d0       InsertTextAtCursor_
000158e0       InsertTextAfterCursor_
000158f0       InsertTextAtLineStart_
00015910       InsertTextAtLineEnd_
00015940       DoReplaceText_
00015960       InsertLikeLast_
00015980       PushMode_
000159e0       PopMode_
Module: getautoi.obj(/mnt/sda5/.user/root/src/openwatcom-1.9/bld/vi/c/getautoi.c)
00015ad0       GetAutoIndentAmount_
Module: replace.obj(/mnt/sda5/.user/root/src/openwatcom-1.9/bld/vi/c/replace.c)
00015c50       ReplaceChar_
Module: dir.obj(/mnt/sda5/.user/root/src/openwatcom-1.9/bld/vi/c/dir.c)
00015ee0       GetCWD1_
00015f20       GetCWD2_
00015f40       ChangeDirectory_
00015f90       ConditionalChangeDirectory_
00015fc0       SetCWD_
000160b0       FormatDirToFile_
Module: select.obj(/mnt/sda5/.user/root/src/openwatcom-1.9/bld/vi/c/select.c)
00016440*      SelectItem_
00016590*      SelectItemAndValue_
Module: io.obj(/mnt/sda5/.user/root/src/openwatcom-1.9/bld/vi/c/io.c)
00016650       FileExists_
00016720       FileOpen_
000167b0       FileSeek_
00016850       GetFromEnvAndOpen_
00016890       GetFromEnv_
000168c0       VerifyTmpDir_
000169d0       MakeTmpPath_
00016a20       TmpFileOpen_
00016a60       TmpFileClose_
00016a90       FileLower_
00016aa0       FileTemplateMatch_
00016b20       StripPath_
Module: clread.obj(/mnt/sda5/.user/root/src/openwatcom-1.9/bld/vi/c/clread.c)
00016b80       ReadAFile_
Module: cledit.obj(/mnt/sda5/.user/root/src/openwatcom-1.9/bld/vi/c/cledit.c)
00016d90+      isMultipleFiles_
00016db0       EditFile_
000173b0       OpenWindowOnFile_
Module: misc.obj(/mnt/sda5/.user/root/src/openwatcom-1.9/bld/vi/c/misc.c)
000175f0       ExecCmd_
00017610       GetResponse_
00017630       PromptFilesForSave_
00017700       PromptThisFileForSave_
000177d0       QueryFile_
00017810       ExitWithPrompt_
00017870       ExitWithVerify_
00017910       PrintHexValue_
00017950       EnterHexKey_
00017ab0       DoVersion_
00017af0       StrMerge_
00017b50       ModificationTest_
00017bc0       CurFileExitOptionSaveChanges_
00017be0       UpdateCurrentDirectory_
00017c00       NextBiggestPrime_
00017c50       FancySetFS_
00017c60       FancySetScr_
00017c70       FancySetGen_
00017c80       ToggleToolbar_
00017cc0       ToggleStatusbar_
00017d00       ToggleColorbar_
00017d40       ToggleSSbar_
00017d80       ToggleFontbar_
00017dc0       GenericQueryBool_
Module: tags.obj(/mnt/sda5/.user/root/src/openwatcom-1.9/bld/vi/c/tags.c)
00017e00       GetCurrentTag_
00017e40       TagHunt_
00017f30       FindTag_
00018130+      SearchForTags_
00018240       LocateTag_
Module: alias.obj(/mnt/sda5/.user/root/src/openwatcom-1.9/bld/vi/c/alias.c)
00018490       SetAlias_
000184b0       UnAlias_
000184d0       CheckAlias_
00018510       Abbrev_
00018530       UnAbbrev_
00018550       CheckAbbrev_
Module: bnddata.obj(/mnt/sda5/.user/root/src/openwatcom-1.9/bld/vi/c/bnddata.c)
00018610       CheckForBoundData_
00018780       SpecialOpen_
000188e0       SpecialFclose_
00018910       SpecialFgets_
Module: abandon.obj(/mnt/sda5/.user/root/src/openwatcom-1.9/bld/vi/c/abandon.c)
00018a90       AbandonHopeAllYeWhoEnterHere_
Module: filter.obj(/mnt/sda5/.user/root/src/openwatcom-1.9/bld/vi/c/filter.c)
00018b10       DoGenericFilter_
Module: ex.obj(/mnt/sda5/.user/root/src/openwatcom-1.9/bld/vi/c/ex.c)
00018ce0*      EnterExMode_
00018e50       ProcessEx_
Module: exappend.obj(/mnt/sda5/.user/root/src/openwatcom-1.9/bld/vi/c/exappend.c)
000192f0       Append_
00019350       AppendAnother_
Module: wingen.obj(/mnt/sda5/.user/root/src/openwatcom-1.9/bld/vi/c/wingen.c)
00019430       NewMessageWindow_
00019470       WPrintfLine_
000194c0       SetWindowCursor_
000194d0       SetWindowCursorForReal_
00019560*      DisplayExtraInfo_
000195d0       ColumnInWindow_
00019610       SetWindowSizes_
00019770       CurrentWindowResize_
00019850       SetFileWindowTitle_
000198c0       ResetAllWindows_
Module: printf.obj(/mnt/sda5/.user/root/src/openwatcom-1.9/bld/vi/c/printf.c)
00019910       Lead_
00019c50       MyPrintf_
00019cb0       MySprintf_
00019cf0       MyVSprintf_
00019d10       MyVPrintf_
00019dc0       MyFprintf_
Module: getspcmd.obj(/mnt/sda5/.user/root/src/openwatcom-1.9/bld/vi/c/getspcmd.c)
00019e00       GetSpawnCommandLine_
Module: selrgn.obj(/mnt/sda5/.user/root/src/openwatcom-1.9/bld/vi/c/selrgn.c)
0001a080*      GetFixedSelectedRegion_
0001a130       InitSelectedRegion_
0001a180       SelRgnFini_
0001a180       SelRgnInit_
0001a220       UnselectRegion_
0001a2a0       UpdateDrag_
0001a470       UpdateCursorDrag_
0001a510       SetSelRegionCols_
0001a590       ReselectRegion_
0001a5c0+      startSelectedRegion_
0001a630       SelectLeft_
0001a660       SelectRight_
0001a690       SelectUp_
0001a6c0       SelectDown_
0001a6f0       SelectHome_
0001a720       SelectEnd_
0001a750       SelectPageUp_
0001a790       SelectPageDown_
0001a7d0       SelectBackwardsWord_
0001a800       SelectForwardWord_
0001a830       SelectStartOfFile_
0001a860       SelectEndOfFile_
0001a890       SelectTopOfPage_
0001a8c0       SelectBottomOfPage_
0001a9e0       DoSelectSelectionPopMenu_
0001a9f0       DoSelectSelection_
0001aab0       GetSelectedRegion_
0001ab60       SetSelectedRegion_
0001ac20       SetSelectedRegionFromLine_
0001ac70       NormalizeRange_
0001ad00       SelectAll_
Module: cstatus.obj(/mnt/sda5/.user/root/src/openwatcom-1.9/bld/vi/c/cstatus.c)
0001adc0       GetModeString_
0001adf0       UpdateCurrentStatus_
Module: help.obj(/mnt/sda5/.user/root/src/openwatcom-1.9/bld/vi/c/help.c)
0001aea0       DoHelpOnContext_
0001aeb0       DoHelp_
000535e4       _helpFiles
000535fc       _nHelpFiles
Module: readstr.obj(/mnt/sda5/.user/root/src/openwatcom-1.9/bld/vi/c/readstr.c)
00053600       _ReadingAString
0001b7f0       GetTextForSpecialKey_
0001b920       InsertTextForSpecialKey_
0001c060       ReadStringInWindow_
0001c0b0       PromptForString_
Module: tab_e_c.obj(/mnt/sda5/.user/root/src/openwatcom-1.9/bld/vi/c/tab_e_c.c)
0001c3c0       ExpandWhiteSpace_
0001c3d0       CompressWhiteSpace_
Module: gencfg.obj(/mnt/sda5/.user/root/src/openwatcom-1.9/bld/vi/c/gencfg.c)
0001cda0       GenerateConfiguration_
Module: fts.obj(/mnt/sda5/.user/root/src/openwatcom-1.9/bld/vi/c/fts.c)
0001d4d0       FTSStart_
0001d5b0       FTSAddCmd_
0001d6a0       FTSAddBoolean_
0001d730       FTSAddInt_
0001d760*      FTSAddChar_
0001d7a0       FTSAddStr_
0001d7d0       FTSEnd_
0001d830       FTSSearchFTIndex_
0001d920       FTSRunCmds_
0001d940       FTSGetFirst_
0001d950       FTSGetNext_
0001d960       FTSGetFirstTemplate_
0001d970       FTSGetNextTemplate_
0001d980       FTSBarfData_
0001da10+      FTSMatchTemplate_
0001da70+      deleteTemplateList_
0001da90*      FTSMatchTemplateData_
0001db30+      FTSKill_
0001db70       FTSInit_
0001db80       FTSFini_
Module: fcbdisk.obj(/mnt/sda5/.user/root/src/openwatcom-1.9/bld/vi/c/fcbdisk.c)
0001dba0       SwapToDisk_
0001dbe0       SwapToMemoryFromDisk_
0001dc70       SwapFileClose_
0001dc90       GiveBackSwapBlock_
0001dd40       SwapBlockInit_
0001ddb0       SwapBlockFini_
Module: fcbblock.obj(/mnt/sda5/.user/root/src/openwatcom-1.9/bld/vi/c/fcbblock.c)
0001ddc0       GiveBackBlock_
0001de10       GetNewBlock_
0001de60       MakeWriteBlock_
Module: fcb.obj(/mnt/sda5/.user/root/src/openwatcom-1.9/bld/vi/c/fcb.c)
0001df30       ReadFcbData_
0001e210       FindFcbWithLine_
0001e2b0       CreateFcbData_
0001e330       FcbSize_
Module: fcbmem.obj(/mnt/sda5/.user/root/src/openwatcom-1.9/bld/vi/c/fcbmem.c)
0001e350       FcbAlloc_
0001e3b0       FcbFree_
0001e420       FreeEntireFcb_
0001e450       FreeFcbList_
Module: fcbsplit.obj(/mnt/sda5/.user/root/src/openwatcom-1.9/bld/vi/c/fcbsplit.c)
0001e470       SplitFcbAtLine_
0001e5b0       CheckCurrentFcbCapacity_
Module: fcbdup.obj(/mnt/sda5/.user/root/src/openwatcom-1.9/bld/vi/c/fcbdup.c)
0001e700       CreateDuplicateFcbList_
Module: fcbmerge.obj(/mnt/sda5/.user/root/src/openwatcom-1.9/bld/vi/c/fcbmerge.c)
0001e7b0       MergeFcbs_
0001e7f0       MergeAllFcbs_
Module: linenew.obj(/mnt/sda5/.user/root/src/openwatcom-1.9/bld/vi/c/linenew.c)
0001e840       AddNewLineAroundCurrent_
0001e920       InsertNewLine_
0001e980       LineAlloc_
0001e9d0       CreateNullLine_
Module: dc.obj(/mnt/sda5/.user/root/src/openwatcom-1.9/bld/vi/c/dc.c)
0001ea90       DCCreate_
0001eaf0       DCResize_
0001eb90       DCScroll_
0001eca0       DCDestroy_
0001ecf0       DCUpdate_
0001eee0       DCUpdateAll_
0001ef40+      shaveRange_
0001efa0       DCDisplaySomeLines_
0001f050       DCDisplayAllLines_
0001f070       DCInvalidateSomeLines_
0001f0e0       DCInvalidateAllLines_
0001f110       DCFindLine_
0001f130       DCValidateLine_
Module: lineptr.obj(/mnt/sda5/.user/root/src/openwatcom-1.9/bld/vi/c/lineptr.c)
0001f1d0       CGimmeLinePtr_
0001f1f0       GimmeLinePtr_
0001f230       CGimmeNextLinePtr_
0001f250       CAdvanceToLine_
0001f280       GimmeNextLinePtr_
0001f300       GimmePrevLinePtr_
0001f340       GimmeLinePtrFromFcb_
0001f370       CFindLastLine_
0001f3d0       IsPastLastLine_
0001f410       ValidateCurrentLine_
Module: linecfb.obj(/mnt/sda5/.user/root/src/openwatcom-1.9/bld/vi/c/linecfb.c)
0001f550       CreateLinesFromBuffer_
Module: linedisp.obj(/mnt/sda5/.user/root/src/openwatcom-1.9/bld/vi/c/linedisp.c)
0001f670       ReDisplayScreen_
0001f750       ReDisplayBuffers_
Module: linemisc.obj(/mnt/sda5/.user/root/src/openwatcom-1.9/bld/vi/c/linemisc.c)
0001f7b0       FindStartOfALine_
0001f7e0       FindStartOfCurrentLine_
0001f7f0       GenericJoinCurrentLineToNext_
0001f9d0       JoinCurrentLineToNext_
0001fa30       SaveCurrentFilePos_
0001fa80       RestoreCurrentFilePos_
0001fb20       SaveAndResetFilePos_
Module: linedel.obj(/mnt/sda5/.user/root/src/openwatcom-1.9/bld/vi/c/linedel.c)
0001fba0       UpdateLineNumbers_
0001fbc0       DeleteLineRange_
0001fe90       LineDeleteMessage_
Module: lineins.obj(/mnt/sda5/.user/root/src/openwatcom-1.9/bld/vi/c/lineins.c)
0001fee0       InsertLinesAtCursor_
000200d0       InsertLines_
Module: lineyank.obj(/mnt/sda5/.user/root/src/openwatcom-1.9/bld/vi/c/lineyank.c)
00020340       YankLineRange_
00020380       GetCopyOfLineRange_
00020560       LineYankMessage_
Module: grep.obj(/mnt/sda5/.user/root/src/openwatcom-1.9/bld/vi/c/grep.c)
000205f0       DoFGREP_
00020690       DoEGREP_
00020a60+      GREPLISTPROC
Module: editmain.obj(/mnt/sda5/.user/root/src/openwatcom-1.9/bld/vi/c/editmain.c)
000214a0       DoMove_
000215e0       DoLastEvent_
000217f0       DoneLastEvent_
00021850       EditMain_
000219d0       AbsoluteNullResponse_
000219e0       NullResponse_
00021a20*      DoneRepeat_
00021a40*      KillRepeatWindow_
00021a50       SetRepeatCount_
00021ab0       GetRepeatCount_
00021af0       DoDigit_
00021bc0       InvalidKey_
00021bf0       Modified_
00021c60       ResetDisplayLine_
Module: filesave.obj(/mnt/sda5/.user/root/src/openwatcom-1.9/bld/vi/c/filesave.c)
00021ea0       SaveFileAs_
00021f30       SaveFile_
00022220       StartSaveExit_
00022250       SaveAndExit_
000222a0       FilePromptForSaveChanges_
000223b0       FileExitOptionSaveChanges_
00022480+      FancyFileSave_
000224d0       DoKeyboardSave_
Module: filenew.obj(/mnt/sda5/.user/root/src/openwatcom-1.9/bld/vi/c/filenew.c)
000228d0       NewFile_
00022a50       FileAlloc_
00022ac0       FileFree_
00022ae0       FreeEntireFile_
Module: undo.obj(/mnt/sda5/.user/root/src/openwatcom-1.9/bld/vi/c/undo.c)
00022b00       StartUndoGroupWithPosition_
00022bc0       UndoReplaceLines_
00022c70       UndoDeleteFcbs_
00022cc0       UndoInsert_
00022d20       PatchDeleteUndo_
00022de0       StartUndoGroup_
00022e00       EndUndoGroup_
00022eb0       TryEndUndoGroup_
Module: undostks.obj(/mnt/sda5/.user/root/src/openwatcom-1.9/bld/vi/c/undostks.c)
00022f80       UndoAlloc_
00023020       UndoFree_
00023050       PushUndoStack_
00023090       PopUndoStack_
000230b0       AddUndoToCurrent_
000230d0       AllocateUndoStacks_
00023120       FreeUndoStacks_
000231b0       TossUndos_
00023240       FreeAllUndos_
00023250       PurgeUndoStack_
Module: undo_do.obj(/mnt/sda5/.user/root/src/openwatcom-1.9/bld/vi/c/undo_do.c)
00023570       DoUndo_
00023590       DoUndoUndo_
Module: clglob.obj(/mnt/sda5/.user/root/src/openwatcom-1.9/bld/vi/c/clglob.c)
00023600       Global_
00023a60       ProcessingMessage_
Module: clsubs.obj(/mnt/sda5/.user/root/src/openwatcom-1.9/bld/vi/c/clsubs.c)
00023b00+      MYMESSAGEBOXWNDFUNC
00023c80       TwoPartSubstitute_
00023dc0       Substitute_
000242c0       SplitUpLine_
000562c0+      _LastSubstituteCancelled
000562c4+      _LastLineCount
000562c8+      _LastChangeCount
Module: shove.obj(/mnt/sda5/.user/root/src/openwatcom-1.9/bld/vi/c/shove.c)
000243d0       Shift_
Module: match.obj(/mnt/sda5/.user/root/src/openwatcom-1.9/bld/vi/c/match.c)
00024530       DoMatching_
00024560       FindMatch_
000247b0       AddMatchString_
00024870       MatchInit_
000248b0       MatchFini_
Module: cut.obj(/mnt/sda5/.user/root/src/openwatcom-1.9/bld/vi/c/cut.c)
000248e0       Cut_
Module: opmove.obj(/mnt/sda5/.user/root/src/openwatcom-1.9/bld/vi/c/opmove.c)
00024c40       MovePageMiddle_
00024cb0       MovePageTop_
00024cf0       MovePageBottom_
00024d90       MoveUp_
00024db0       MoveDown_
00024e10       MoveLineEnd_
00024e50*      LineEndRange_
00024e90       MoveStartOfLine_
00024ec0       MoveLineBegin_
00024ee0       MoveLeft_
00024f00       MoveRight_
00024f70       MoveToColumn_
00024f90       MoveTab_
00025040       MoveShiftTab_
00025140       MoveStartNextLine_
00025150       MoveStartPrevLine_
000251f0       MoveForwardWord_
00025200       MoveForwardBigWord_
00025220       MoveForwardWordEnd_
00025240       MoveForwardBigWordEnd_
000252d0       MoveBackwardsWord_
000252e0       MoveBackwardsBigWord_
00025370       MoveUpToChar_
00025390       MoveUpToBeforeChar_
000253b0       MoveBackToChar_
000253c0       MoveBackToAfterChar_
000253e0       DoGo_
00025500       MoveToLastCharFind_
00025510       MoveToLastCharFindRev_
00025520       MoveStartOfFile_
00025550       MoveEndOfFile_
000255b0       MoveTopOfPage_
000255d0       MoveBottomOfPage_
Module: srcgen.obj(/mnt/sda5/.user/root/src/openwatcom-1.9/bld/vi/c/srcgen.c)
00025610       AbortGen_
00025680       GenJmpIf_
000256b0       GenJmp_
000256d0       GenLabel_
00025740       GenTestCond_
00025960       NewLabel_
000259e0       PreProcess_
Module: fmatch.obj(/mnt/sda5/.user/root/src/openwatcom-1.9/bld/vi/c/fmatch.c)
00025fb0       FileMatch_
00025fd0       FileMatchInit_
00026100       FileMatchFini_
Module: status.obj(/mnt/sda5/.user/root/src/openwatcom-1.9/bld/vi/c/status.c)
00026110       NewStatusWindow_
00026170       UpdateStatusWindow_
Module: expr.obj(/mnt/sda5/.user/root/src/openwatcom-1.9/bld/vi/c/expr.c)
000264d0       StartExprParse_
00026c80       GetConstExpr_
Module: op.obj(/mnt/sda5/.user/root/src/openwatcom-1.9/bld/vi/c/op.c)
00027210       LineLength_
00027250       GetLineRange_
00027280       Delete_
00027340       DeleteLines_
00027370       Yank_
00027420       YankLines_
00027450       Change_
00027680       StartShove_
000276a0       StartSuck_
00027750       ChangeCase_
000277f0       Filter_
Module: lang.obj(/mnt/sda5/.user/root/src/openwatcom-1.9/bld/vi/c/lang.c)
00027980       IsKeyword_
00027a10       IsPragma_
00027a60       IsDeclspec_
00027bb0       LangInit_
00027df0       LangFini_
00027e90       LangFiniAll_
Module: sstyle.obj(/mnt/sda5/.user/root/src/openwatcom-1.9/bld/vi/c/sstyle.c)
00028010+      addSelection_
00028300+      fixSelection_
00028340       SSDifBlock_
00028500       SSNewBlock_
00028510       SSKillBlock_
00028520       SSKillsFlags_
000285a0       SSInitLanguageFlags_
00028610       SSInitLanguageFlagsGivenValues_
00028680       SSGetLanguageFlags_
000286f0       SSGetStyle_
00028730       SSInitBeforeConfig_
00028770       SSInitAfterConfig_
000287c0       SSFini_
0005655c       _SEType
Module: sstyle_f.obj(/mnt/sda5/.user/root/src/openwatcom-1.9/bld/vi/c/sstyle_f.c)
000289f0       InitFORTRANLine_
00028e60       InitFORTRANFlagsGivenValues_
00028e70       GetFORTRANFlags_
00028e80       InitFORTRANFlags_
00028f20       GetFORTRANBlock_
Module: sstyle_c.obj(/mnt/sda5/.user/root/src/openwatcom-1.9/bld/vi/c/sstyle_c.c)
00029180       InitCLine_
00029a60       InitCFlagsGivenValues_
00029a80       GetCFlags_
00029a90       InitCFlags_
00029d90       GetCBlock_
Module: sstyle_h.obj(/mnt/sda5/.user/root/src/openwatcom-1.9/bld/vi/c/sstyle_h.c)
00029f90       InitHTMLLine_
0002a060+      getHTMLComment_
0002a0f0       InitHTMLFlagsGivenValues_
0002a100       GetHTMLFlags_
0002a110       InitHTMLFlags_
0002a120       GetHTMLBlock_
Module: sstyle_g.obj(/mnt/sda5/.user/root/src/openwatcom-1.9/bld/vi/c/sstyle_g.c)
0002a250       InitGMLLine_
0002a3c0       InitGMLFlagsGivenValues_
0002a3d0       GetGMLFlags_
0002a3e0       InitGMLFlags_
0002a3f0       GetGMLBlock_
Module: sstyle_m.obj(/mnt/sda5/.user/root/src/openwatcom-1.9/bld/vi/c/sstyle_m.c)
0002a4b0       InitMkLine_
0002a7b0       InitMkFlagsGivenValues_
0002a7c0       GetMkFlags_
0002a7d0       InitMkFlags_
0002a7e0       GetMkBlock_
Module: sstyle_p.obj(/mnt/sda5/.user/root/src/openwatcom-1.9/bld/vi/c/sstyle_p.c)
0002a9d0       InitPerlLine_
0002b0b0       InitPerlFlagsGivenValues_
0002b0c0       GetPerlFlags_
0002b0d0       InitPerlFlags_
0002b1e0       GetPerlBlock_
Module: rcs.obj(/mnt/sda5/.user/root/src/openwatcom-1.9/bld/vi/c/rcs.c)
000538e0+      _RCSGetVersion
000538e6       _RCSInit
000538ec       _RCSCheckout
000538f2       _RCSCheckin
000538f8+      _RCSHasShell
000538fe+      _RCSRunShell
00053904+      _RCSSetSystem
0005390a       _RCSQuerySystem
00053910       _RCSRegisterBatchCallback
00053916+      _RCSRegisterMessageBoxCallback
0002b460       ViRCSInit_
0002b4b0       ViRCSFini_
0005391c       _RCSSetPause
00053922       _RCSFini
Module: main.obj(/mnt/sda5/.user/root/src/openwatcom-1.9/bld/vi/win/main.c)
0002b6c0       StartWindows_
0002b730       FiniInstance_
0002b740       WINMAIN
0002b840       MessageLoop_
00053928       _EditorName
00056f3c       _Root
00056f3e       _InstanceHandle
00056f40       _EditContainer
Module: mainwnd.obj(/mnt/sda5/.user/root/src/openwatcom-1.9/bld/vi/win/mainwnd.c)
00056f44       _RootRect
0002b990       RegisterMainWindow_
0002ba00       CreateMainWindow_
0002baf0       SetInitialWindowSize_
0002bbb0       SetInitialWindowRect_
0002bbf0       ResizeRoot_
0002bd20+      MAINWINDOWPROC
00056f5c       _RootState
Module: editwnd.obj(/mnt/sda5/.user/root/src/openwatcom-1.9/bld/vi/win/editwnd.c)
00056f64       _MouseY
00056f68       _MouseX
0002c290*      GetEditStyle_
0002c2a0*      SetWindowTitle_
0002c320       NewEditWindow_
0002ca10       PositionVerticalScrollThumb_
0002caf0       PositionHorizontalScrollThumb_
0002cb30*      EditDrawScrollBars_
0002cd20+      EDITWINDOWPROC
0002d3b0+      RESIZEEXTRA
0002d450       ResetExtraRects_
00053944+      _EditWindowClassName
00053948       _EditWindow
0005395c       _VScrollBarScale
00053960       _HScrollBarScale
Module: dosdir.obj(/mnt/sda5/.user/root/src/openwatcom-1.9/bld/vi/c/dosdir.c)
0002d4f0       MyGetFileSize_
0002d510       IsDirectory_
0002d580       GetFileInfo_
0002d5a0       FormatFileEntry_
Module: time.obj(/mnt/sda5/.user/root/src/openwatcom-1.9/bld/vi/c/time.c)
0002d6f0       GetTimeString_
0002d7c0       GetDateTimeString_
0002d840       GetDateString_
Module: stubs.obj(/mnt/sda5/.user/root/src/openwatcom-1.9/bld/vi/win/stubs.c)
0002d880       RedrawMouse_
0002d890       DoGetDriveType_
0002d890       DisplayMouse_
0002d8a0       TurnOffCapsLock_
0002d8b0       GetNewValueDialog_
0002d8b0       ResetWindow_
0002d8b0       MoveCurrentWindowWithKeys_
0002d8b0       ResizeCurrentWindowWithKeys_
0002d8b0       HandleMouseEvent_
0002d8c0       ClearScreen_
0002d8c0       ScreenFini_
0002d8c0       FiniMouse_
0002d8c0       WindowSwapFileClose_
0002d8c0       RestoreInterrupts_
0002d8c0*      WindowBorderData_
0002d8c0       PopMouseEventHandler_
0002d8c0       PushMouseEventHandler_
0002d8c0*      DrawBorder_
0002d8c0       WindowAuxUpdate_
0002d8c0       GetSpinStart_
0002d8c0       GetClockStart_
0002d8c0       SetMouseSpeed_
0002d8c0       SwapAllWindows_
0002d8d0       ResizeWindowRelative_
0002d8e0       ResizeWindow_
0002d8f0       WindowIsVisible_
0002d900       HideCursor_
0002d900       SetPosToMessageLine_
0002d900*      DisplayCrossLineInWindow_
0002d900*      NewWindow_
0002d900       SetBorderGadgets_
0002d900       InitMouse_
0002d900       ChkExtendedKbd_
0002d900       SetInterrupts_
0002d900       ScreenInit_
0002d910*      SetCharInWindowWithColor_
0002d920*      DisplayLineWithHilite_
Module: color.obj(/mnt/sda5/.user/root/src/openwatcom-1.9/bld/vi/win/color.c)
0002d930       ColorRGB_
0002d940       ColorBrush_
0002d950*      ColorPen_
0002da00       InitColors_
0002da90       GetNumColors_
0002daa0       GetColorSetting_
0002dae0       GetRGB_
0002dc00       SetAColor_
0002dd10       FiniColors_
Module: wstatus.obj(/mnt/sda5/.user/root/src/openwatcom-1.9/bld/vi/win/wstatus.c)
0002dd50       StatusWndSetSeparatorsWithArray_
0002de40+      setCursor_
0002dea0+      processMouseMove_
0002e030+      processLButtonDown_
0002e0e0+      processLButtonUp_
0002e150+      StatusWindowProc_
0002e1e0       NewStatWindow_
0002e240       StatusLine_
00053968       _StatusBar
Module: font.obj(/mnt/sda5/.user/root/src/openwatcom-1.9/bld/vi/win/font.c)
0002e300*      FontFixed_
0002e320       FontHandle_
0002e330       FontHeight_
0002e340       FontlfHeight_
0002e350       FontlfFaceName_
0002e360       FontIsFunnyItalic_
0002e380       FontMaxWidth_
0002e390       FontAverageWidth_
0002e3a0       FontTabWidth_
0002e3c0*      GetTextExtentX_
0002e4d0       EnsureUniformFonts_
0002e550       InitFonts_
0002e7a0       SetUpFont_
0002e840*      PickFont_
0002e880       SetFont_
0002e920       BarfFontData_
0002e9c0       FiniFonts_
0005397c+      _Helvetica6
000539ae+      _Arial10
000539e0+      _ArialBold10
00053a12+      _Fixed10
00053a44+      _SansSerif
00053a76+      _Courier
00053aa8+      _CourierBold
00057180+      _Fonts
Module: window.obj(/mnt/sda5/.user/root/src/openwatcom-1.9/bld/vi/win/window.c)
0002ea10       DefaultWindows_
0002ebb0       InitWindows_
0002ebe0+      FiniWindows_
0002ec40       WindowAuxInfo_
0002edc0       NewWindow2_
0002ee40       CloseAWindow_
0002ee60       CloseAChildWindow_
0002ee90       InsideWindow_
0002eec0       InactiveWindow_
0002eed0       ActiveWindow_
0002ef10       MoveWindowToFrontDammit_
0002ef20*      MoveWindowToFront_
0002ef30       MaximizeCurrentWindow_
0002ef70       MinimizeCurrentWindow_
0002efa0       FinishWindows_
00053adc+      _Windows
Module: display.obj(/mnt/sda5/.user/root/src/openwatcom-1.9/bld/vi/win/display.c)
0002f050       ScreenPage_
0002f070       WindowTitleAOI_
0002f090       WindowTitle_
0002f0a0       ClearWindow_
0002f120       DisplayLineInWindow_
0002f130       ShiftWindowUpDown_
0002f200+      SetDrawingObjects_
0002f3a0+      MyTabbedTextOut_
0002f590       DisplayLineInWindowWithSyntaxStyle_
00053af4       _AllowDisplay
Module: getkey.obj(/mnt/sda5/.user/root/src/openwatcom-1.9/bld/vi/win/getkey.c)
0002fc80+      find_key_in_table_
0002fca0       ShiftDown_
0002fcc0*      CapsDown_
0002fce0       CtrlDown_
0002fd00*      AltDown_
0002fd80       MapVirtualKeyToVIKey_
0002ff30       WindowsKeyPush_
0002ffb0       KeyboardHit_
0002ffe0       GetKeyboard_
00030040       GetMouseEvent_
00030050       TestMouseEvent_
Module: cursor.obj(/mnt/sda5/.user/root/src/openwatcom-1.9/bld/vi/win/cursor.c)
00030060       SetCursorBlinkRate_
00030080       GoodbyeCursor_
000300c0       NewCursor_
000304f0       PixelFromColumnOnCurrentLine_
000305f0       SetCursorOnLine_
000306c0       SetGenericWindowCursor_
00030710       ResetEditWindowCursor_
00030770       MyShowCaret_
000307a0       MyHideCaret_
000307d0       MyKillCaret_
00030800       MyRaiseCaret_
Module: command.obj(/mnt/sda5/.user/root/src/openwatcom-1.9/bld/vi/win/command.c)
00053b08       _CommandWindow
00053b1c       _CommandId
000308d0+      COMMANDWINDOWPROC
00030a30       NewCommandWindow_
Module: utils.obj(/mnt/sda5/.user/root/src/openwatcom-1.9/bld/vi/win/utils.c)
000578ec       _GadgetString
00030bc0+      WriteText_
00030c40       WriteString_
00030c80       TextGetDC_
00030ce0       TextReleaseDC_
00030d00       BlankRectIndirect_
00030d50*      BlankRect_
00030d80       MyTextExtent_
00030e20*      MyStringExtent_
00030e40       ClientToRowCol_
000311a0       ToggleHourglass_
00031200       MemSize_
00031210       SetGadgetString_
00031220       MyDelay_
00031230       MyBeep_
00031250       PushDirectory_
000312a0       PopDirectory_
000312e0       DoAboutBox_
00031350       CursorOp_
00031520       GetOwnedWindow_
000315f0*      GetNumWindowTypes_
00031600       MoveWindowTopRight_
00031720*      SetEditInt_
00031760*      UpdateBoolSetting_
000317e0+      DoStrSet_
00031890*      UpdateStrSetting_
000318f0*      UpdateIntSetting_
00031950       CenterWindowInRoot_
00031a40       DrawRectangleUpDown_
00031a80       ChangeDrive_
00053b28+      _windowName
Module: menu.obj(/mnt/sda5/.user/root/src/openwatcom-1.9/bld/vi/win/menu.c)
00031cd0       NextMenuId_
00032360       StartMenu_
00032410       MenuItem_
00032480       AddMenuItem_
00032500+      DoMenuChar_
000325d0       ViEndMenu_
00032640       DoItemDelete_
000326b0       DoMenuDelete_
000326f0       InitMenu_
00032790       FiniMenu_
000327f0       IsMenuHotKey_
000328d0       ActivateFloatMenu_
00032980       MenuCommand_
00032af0       BarfMenuData_
00032e80       HandleInitMenu_
00032fb0       ResetMenuBits_
00032ff0       MenuItemFileList_
00033010       MenuItemLastFiles_
00033030       HandleMenuSelect_
00033110       GetMenuHelpString_
00033150       SetMenuHelpString_
00033160       DoWindowGadgetMenu_
00033190*      GetCurrentMenuId_
00033190*      GetMenuIdFromCoord_
Module: filesel.obj(/mnt/sda5/.user/root/src/openwatcom-1.9/bld/vi/win/filesel.c)
000334a0+      OPENHOOK
00033530       SelectFileOpen_
00033610       SelectFileSave_
000336f0       GetInitialFileName_
00033770       SelectLineInFile_
Module: flist.obj(/mnt/sda5/.user/root/src/openwatcom-1.9/bld/vi/win/flist.c)
00033920+      FILELISTPROC
00033a00       EditFileFromList_
Module: message.obj(/mnt/sda5/.user/root/src/openwatcom-1.9/bld/vi/win/message.c)
00053c6c       _MessageBar
00033b00+      MESSAGEWINDOWPROC
00033bc0       NewMsgWindow_
00033d40       Message1_
00033dc0       Message1Box_
00033e40       Message2_
Module: windir.obj(/mnt/sda5/.user/root/src/openwatcom-1.9/bld/vi/win/windir.c)
00053c84       _FileCompleteWindow
00033f60+      FILECOMPLETEWINDOWPROC
00034070       NewFileCompleteWindow_
Module: contain.obj(/mnt/sda5/.user/root/src/openwatcom-1.9/bld/vi/win/contain.c)
00034140       CreateContainerWindow_
00034210+      CONTAINERWINDOWPROC
00057b2c+      _oldContainerProc
Module: bitmap.obj(/mnt/sda5/.user/root/src/openwatcom-1.9/bld/sdk/misc/bitmap.c)
000346c0       ReadBitmapFile_
Module: palette.obj(/mnt/sda5/.user/root/src/openwatcom-1.9/bld/sdk/misc/palette.c)
00034780       CreateDIBPalette_
Module: dde.obj(/mnt/sda5/.user/root/src/openwatcom-1.9/bld/vi/win/dde.c)
00057b30       _DDEInstId
00057b38       _DDERet
00034840+      DDECALLBACK
00034900       CreateStringHandle_
000349e0       DeleteStringHandle_
00034a20       DDEInit_
00034a80       DDEFini_
00053ca0       _ClipboardFormat
00057b40       _ServerCount
00057b42       _UseDDE
Module: srcwin.obj(/mnt/sda5/.user/root/src/openwatcom-1.9/bld/vi/win/srcwin.c)
00034ae0       GetDWORD_
00034b60       RunWindowsCommand_
Module: srcdde.obj(/mnt/sda5/.user/root/src/openwatcom-1.9/bld/vi/win/srcdde.c)
00035190       RunDDECommand_
Module: tool.obj(/mnt/sda5/.user/root/src/openwatcom-1.9/bld/vi/win/tool.c)
00057b44       _ToolBarFloatRect
00035930       HandleToolCommand_
000359c0+      ToolBarHelp_
00035a00+      MyToolBarProc_
00035cb0       NewToolBar_
00035d40       AddBitmapToToolBar_
00035f60       DeleteFromToolBar_
00035ff0+      CloseToolBar_
00036030       DestroyToolBar_
00036090       GetToolbarWindow_
000360a0       BarfToolBarData_
Module: wintica.obj(/mnt/sda5/.user/root/src/openwatcom-1.9/bld/vi/win/wintica.c)
00036100       WindowTile_
000361e0       WindowCascade_
Module: repcnt.obj(/mnt/sda5/.user/root/src/openwatcom-1.9/bld/vi/win/repcnt.c)
00053df0       _RepeatCountWindow
00036380+      REPEATWINDOWPROC
00036420       NewRepeatCountWindow_
000364e0       UpdateRepeatString_
Module: clipbrd.obj(/mnt/sda5/.user/root/src/openwatcom-1.9/bld/vi/win/clipbrd.c)
00036520+      getHugePointer_
000365d0       AddLineToClipboard_
00036690       AddFcbsToClipboard_
00036890       GetClipboardSavebuf_
00036a20       IsClipboardEmpty_
Module: asavedlg.obj(/mnt/sda5/.user/root/src/openwatcom-1.9/bld/vi/win/asavedlg.c)
00036a50+      ASAVEDLGPROC
00036ae0       GetAutosaveResponse_
Module: profile.obj(/mnt/sda5/.user/root/src/openwatcom-1.9/bld/vi/win/profile.c)
00036dd0+      writeInitialPosition_
00036fa0       SetSaveConfig_
00036fb0       ReadProfile_
00037050       WriteProfile_
00037070       FiniProfile_
Module: finddlg.obj(/mnt/sda5/.user/root/src/openwatcom-1.9/bld/vi/win/finddlg.c)
000370a0+      FINDDLGPROC
00037490       GetFindStringDialog_
Module: ectlsub.obj(/mnt/sda5/.user/root/src/openwatcom-1.9/bld/vi/win/ectlsub.c)
000377d0+      EDITSUBCLASSPROC
00037850       EditSubClass_
000378c0       RemoveEditSubClass_
Module: grepdlg.obj(/mnt/sda5/.user/root/src/openwatcom-1.9/bld/vi/win/grepdlg.c)
00037910+      GREPDLGPROC
00037970       InitGrepDialog_
000379c0       FiniGrepDialog_
00037a20       SetGrepDialogFile_
Module: cmddlg.obj(/mnt/sda5/.user/root/src/openwatcom-1.9/bld/vi/win/cmddlg.c)
00037a70+      CMDDLGPROC
00037cd0       GetCmdDialog_
Module: statwnd.obj(/mnt/sda5/.user/root/src/openwatcom-1.9/bld/sdk/misc/statwnd.c)
00037f90+      STATUSWNDCALLBACK
00038130       StatusWndInit_
00038240       StatusWndChangeSysColors_
000382e0       StatusWndCreate_
00038360+      StatusWndDraw3DBox_
000383e0+      outputText_
00038560       StatusWndDrawLine_
00038660       StatusWndSetSeparators_
000386a0       StatusWndFini_
Module: toolbr.obj(/mnt/sda5/.user/root/src/openwatcom-1.9/bld/sdk/misc/toolbr.c)
000388e0*      ToolBarRedrawButtons_
00038900       ToolBarInit_
00038a50       ToolBarChangeSysColors_
00038b20+      ToolBarDestroy_
00038b70       ToolBarFini_
00038be0       ToolBarAddItem_
00038c50*      ToolBarSetState_
00038c80*      ToolBarGetState_
00038c90       ToolBarDeleteItem_
00038cd0       ToolBarDisplay_
00038e10       ToolBarWindow_
00038e20       UpdateToolBar_
00039610*      isPointInToolbar_
000396a0*      HasToolAtPoint_
000396b0*      FindToolIDAtPoint_
000396d0+      TOOLBARWNDPROC
00039b70*      ChangeToolButtonBitmap_
00039bb0+      TB_TransparentBlt_
Module: ftbar.obj(/mnt/sda5/.user/root/src/openwatcom-1.9/bld/vi/win/ftbar.c)
00039dd0+      ENUMFAMTYPEFACES
00039e40+      ENUMFAMINFO
00039ee0+      SETUPFONTDATA
0003a660+      FTDLGPROC
0003a8a0       RefreshFontbar_
00053e70*      _YPIXELS_PER_INCH
00057db4+      _NStyles
00057db8*      _lpfnOldSize
00057dbc+      _NSizes
00057dc0+      _Style
00057dc4       _CurLogfont
00057df6+      _hwndTypeface
00057df8+      _hwndSizeEdit
00057dfa       _hFontbar
00057dfc+      _hwndPick
00057dfe+      _hwndSize
00057e00+      _hwndStyle
Module: about.obj(/mnt/sda5/.user/root/src/openwatcom-1.9/bld/sdk/misc/about.c)
0003a9e0+      ABOUTPROC
0003ac30       DoAbout_
Module: startdlg.obj(/mnt/sda5/.user/root/src/openwatcom-1.9/bld/vi/win/startdlg.c)
0003acb0+      STARTUPPROC
0003ad70       ShowStartupDialog_
0003adb0       CloseStartupDialog_
Module: usage.obj(/mnt/sda5/.user/root/src/openwatcom-1.9/bld/vi/win/usage.c)
0003ae00+      USAGEPROC
0003aeb0       UsageDialog_
Module: tagdlg.obj(/mnt/sda5/.user/root/src/openwatcom-1.9/bld/vi/win/tagdlg.c)
0003af30+      TAGLISTPROC
0003b070       PickATag_
Module: ldstr.obj(/mnt/sda5/.user/root/src/openwatcom-1.9/bld/sdk/misc/ldstr.c)
0003b0d0*      GetRCString_
0003b100+      AllocRCString_
0003b160       CopyRCString_
0003b180*      FreeRCString_
0003b190       SetInstance_
0003b1a0       RCsprintf_
0003b1e0*      RCfprintf_
0003b220*      RCvfprintf_
0003b240*      RCMessageBox_
Module: hasshare.obj(/mnt/sda5/.user/root/src/openwatcom-1.9/bld/vi/win/hasshare.c)
0003b300       HasShare_
Module: getidata.obj(/mnt/sda5/.user/root/src/openwatcom-1.9/bld/vi/win/getidata.c)
0003b370       MyGetInstanceData_
Module: ctl3d32.obj(/mnt/sda5/.user/root/src/openwatcom-1.9/bld/sdk/misc/ctl3d32.c)
00058210+      _DLL32Ctl3dSubclassCtl
00058214+      _DLL32Ctl3dUnregister
00058218+      _DLL32Ctl3dCtlColorEx
0005821c+      _DLL32Ctl3dRegister
00058220+      _DLL32Ctl3dColorChange
00058224+      _DLL32Ctl3dAutoSubclass
00058228+      _DLL32Ctl3dSubclassDlg
0003b410*      Init32Ctl3d_
0003b580*      Fini32Ctl3d_
Module: linedlg.obj(/mnt/sda5/.user/root/src/openwatcom-1.9/bld/vi/win/linedlg.c)
0003b5b0+      GOTOLINEDLGPROC
0003b670       GetLineDialog_
Module: clrbar.obj(/mnt/sda5/.user/root/src/openwatcom-1.9/bld/vi/win/clrbar.c)
0003b740+      CLRDLGPROC
0003b7c0       RefreshColorbar_
00058248       _hColorbar
Module: clrpick.obj(/mnt/sda5/.user/root/src/openwatcom-1.9/bld/vi/win/clrpick.c)
00058350+      _Width
00058354+      _Height
0003bad0+      drawFocus_
0003bfd0+      CLRPICKPROC
0003c0b0       InitClrPick_
0003c140       FiniClrPick_
Module: ftpick.obj(/mnt/sda5/.user/root/src/openwatcom-1.9/bld/vi/win/ftpick.c)
0003c400+      drawCurLogfont_
0003c570+      FTPICKPROC
0003c620       InitFtPick_
0003c6b0       FiniFtPick_
Module: repdlg.obj(/mnt/sda5/.user/root/src/openwatcom-1.9/bld/vi/win/repdlg.c)
0003c6e0+      REPDLGPROC
0003caf0       GetReplaceStringDialog_
Module: setfs.obj(/mnt/sda5/.user/root/src/openwatcom-1.9/bld/vi/ctl/setfs.c)
0003d790+      SETFSPROC
0003d9c0       GetSetFSDialog_
00053f0c+      _Dyn_setfs
00053f30+      _Ctl_setfs
Module: setscr.obj(/mnt/sda5/.user/root/src/openwatcom-1.9/bld/vi/ctl/setscr.c)
0003dbd0+      SETSCRPROC
0003dcd0       GetSetScrDialog_
000540fc+      _Ctl_setscr
Module: setgen.obj(/mnt/sda5/.user/root/src/openwatcom-1.9/bld/vi/ctl/setgen.c)
0003e190+      SETGENPROC
0003e2c0       GetSetGenDialog_
00054190+      _Dyn_setgen
000541bc+      _Ctl_setgen
Module: util.obj(/mnt/sda5/.user/root/src/openwatcom-1.9/bld/vi/ctl/util.c)
0003e550       UtilUpdateBoolean_
0003e5f0       UtilUpdateInt_
0003e630*      UtilUpdateChar_
0003e670       UtilUpdateStr_
Module: hotkey.obj(/mnt/sda5/.user/root/src/openwatcom-1.9/bld/vi/win/hotkey.c)
0003e6c0       HOTKEYPROC
Module: ssbar.obj(/mnt/sda5/.user/root/src/openwatcom-1.9/bld/vi/win/ssbar.c)
000595a4       _hSSbar
0003e7d0+      findBlockString_
0003e800+      totalRedraw_
0003e840+      destroyBlock_
0003e940+      splitBlock_
0003eb00+      buildNewItem_
0003ece0+      buildDefaults_
0003ed50+      buildNewStatusString_
0003ef80+      STATICSUBCLASSPROC
0003f000+      addSubclasses_
0003f090+      removeSubclasses_
0003f110+      SSDLGPROC
0003f180       RefreshSSbar_
Module: subclass.obj(/mnt/sda5/.user/root/src/openwatcom-1.9/bld/vi/win/subclass.c)
0003f210       SubclassGenericAdd_
0003f280       SubclassGenericRemove_
0003f2d0       SubclassGenericInit_
0003f2e0       SubclassGenericFini_
0003f2f0       SubclassGenericFindOldProc_
000595ac+      _procHead
000595b0+      _procTail
Module: snoop.obj(/mnt/sda5/.user/root/src/openwatcom-1.9/bld/vi/win/snoop.c)
0003f320+      SNOOPDLGPROC
0003f560       GetSnoopStringDialog_
Module: wwinhelp.obj(/mnt/sda5/.user/root/src/openwatcom-1.9/bld/sdk/misc/wwinhelp.c)
0003f610       WWinHelp_
0003f7a0       WHtmlHelp_
Module: hackdctl.obj(/mnt/sda5/.user/root/src/openwatcom-1.9/bld/vi/win/hackdctl.c)
0003f8b0       ctl_dlg_init_
0003f910       ctl_dlg_done_
0003f980       ctl_dlg_process_
0003f9d0       ctl_dlg_reset_
0003f9f0       dyn_tpl_init_
0003fbb0       dyn_tpl_process_
00054360+      _Ctl_int_actions
Module: filetype.obj(/mnt/sda5/.user/root/src/openwatcom-1.9/bld/vi/win/filetype.c)
00040640       UpdateFileTypeIcon_
Module: exec.obj(/mnt/sda5/.user/root/src/openwatcom-1.9/bld/vi/win/exec.c)
00040660+      NOTIFYHANDLER
000406d0       MySpawn_
Module: doscmds.obj(/mnt/sda5/.user/root/src/openwatcom-1.9/bld/vi/dos/doscmds.c)
000543d8       _InternalCommands
00054454       _InternalCommandCount
00054458       _ExeExtensions
00054464       _ExeExtensionCount
Module: /mnt/sda5/.user/root/src/openwatcom-1.9/rel2/lib386/win/clib3r.lib(tolower.c)
00040910       tolower_
Module: /mnt/sda5/.user/root/src/openwatcom-1.9/rel2/lib386/win/clib3r.lib(strcspn.c)
00040920       strcspn_
Module: /mnt/sda5/.user/root/src/openwatcom-1.9/rel2/lib386/win/clib3r.lib(strnicmp.c)
00040970       strnicmp_
Module: /mnt/sda5/.user/root/src/openwatcom-1.9/rel2/lib386/win/clib3r.lib(strncmp.c)
000409c0       strncmp_
Module: /mnt/sda5/.user/root/src/openwatcom-1.9/rel2/lib386/win/clib3r.lib(istable.c)
000409f0       __IsTable
Module: /mnt/sda5/.user/root/src/openwatcom-1.9/rel2/lib386/win/clib3r.lib(strupr.c)
00040b00       strupr_
Module: /mnt/sda5/.user/root/src/openwatcom-1.9/rel2/lib386/win/clib3r.lib(strncpy.c)
00040b20       strncpy_
Module: /mnt/sda5/.user/root/src/openwatcom-1.9/rel2/lib386/win/clib3r.lib(ltoa.c)
00040b60       ultoa_
00040bb0       ltoa_
Module: /mnt/sda5/.user/root/src/openwatcom-1.9/rel2/lib386/win/clib3r.lib(atoi.c)
00040be0       atoi_
Module: /mnt/sda5/.user/root/src/openwatcom-1.9/rel2/lib386/win/clib3r.lib(toupper.c)
00040c30       toupper_
Module: /mnt/sda5/.user/root/src/openwatcom-1.9/rel2/lib386/win/clib3r.lib(strlwr.c)
00040c40       strlwr_
Module: /mnt/sda5/.user/root/src/openwatcom-1.9/rel2/lib386/win/clib3r.lib(nmalloc.c)
00040c60       _nmalloc_
00040c60       malloc_
00054468       ___nheapbeg
0005446c       ___MiniHeapRover
00054470       ___LargestSizeB4MiniHeapRover
Module: /mnt/sda5/.user/root/src/openwatcom-1.9/rel2/lib386/win/clib3r.lib(nmsize.c)
00040d60       _nmsize_
00040d60       _msize_
Module: /mnt/sda5/.user/root/src/openwatcom-1.9/rel2/lib386/win/clib3r.lib(memset.c)
00040d70       memset_
Module: /mnt/sda5/.user/root/src/openwatcom-1.9/rel2/lib386/win/clib3r.lib(nfree.c)
00040d90       _nfree_
00040d90       free_
000595bc       ___MiniHeapFreeRover
Module: /mnt/sda5/.user/root/src/openwatcom-1.9/rel2/lib386/win/clib3r.lib(nrealloc.c)
00040e90*      _nrealloc_
00040e90       realloc_
Module: /mnt/sda5/.user/root/src/openwatcom-1.9/rel2/lib386/win/clib3r.lib(getenv.c)
00040f20       getenv_
Module: /mnt/sda5/.user/root/src/openwatcom-1.9/rel2/lib386/win/win386.lib(win399)
00040faa       MESSAGEBOX
Module: /mnt/sda5/.user/root/src/openwatcom-1.9/rel2/lib386/win/clib3r.lib(setenv.c)
00040fd0       setenv_
00041260       _setenv_
Module: /mnt/sda5/.user/root/src/openwatcom-1.9/rel2/lib386/win/clib3r.lib(argcv.c)
000595c0       __argc
000595c4       __argv
000595c8       ___argc
000595cc       ___argv
Module: /mnt/sda5/.user/root/src/openwatcom-1.9/rel2/lib386/win/clib3r.lib(strstr.c)
00041470       strstr_
Module: /mnt/sda5/.user/root/src/openwatcom-1.9/rel2/lib386/win/clib3r.lib(cmdname.c)
00041530       _cmdname_
Module: /mnt/sda5/.user/root/src/openwatcom-1.9/rel2/lib386/win/clib3r.lib(itoa.c)
00041560       utoa_
000415b0       itoa_
Module: /mnt/sda5/.user/root/src/openwatcom-1.9/rel2/lib386/win/clib3r.lib(setjmp)
000415d4       _setjmp_
00041603       longjmp_
Module: /mnt/sda5/.user/root/src/openwatcom-1.9/rel2/lib386/win/win386.lib(win1326)
00041668       INVALIDATERECT
Module: /mnt/sda5/.user/root/src/openwatcom-1.9/rel2/lib386/win/win386.lib(win1373)
00041686       UPDATEWINDOW
Module: /mnt/sda5/.user/root/src/openwatcom-1.9/rel2/lib386/win/clib3r.lib(fopen.c)
000416b0       __open_flags_
000418b0+      _fsopen_
00041900       fopen_
00041980*      freopen_
Module: /mnt/sda5/.user/root/src/openwatcom-1.9/rel2/lib386/win/clib3r.lib(fgets.c)
000419f0       fgets_
Module: /mnt/sda5/.user/root/src/openwatcom-1.9/rel2/lib386/win/clib3r.lib(fclose.c)
00041a60       __doclose_
00041ae0       __shutdown_stream_
00041b00       fclose_
000595d0+      ___RmTmpFileFn
Module: /mnt/sda5/.user/root/src/openwatcom-1.9/rel2/lib386/win/clib3r.lib(stricmp.c)
00041b30       stricmp_
Module: /mnt/sda5/.user/root/src/openwatcom-1.9/rel2/lib386/win/clib3r.lib(fullpath.c)
00041b70+      _sys_fullpath_
00041e50       _fullpath_
Module: /mnt/sda5/.user/root/src/openwatcom-1.9/rel2/lib386/win/clib3r.lib(setwl.c)
00041ed0       _COVER_GETWINDOWLONG
00041f50       _COVER_SETWINDOWLONG
00054474+      _WndProcList
Module: /mnt/sda5/.user/root/src/openwatcom-1.9/rel2/lib386/win/win386.lib(win1315)
00041fd6       GETCLIENTRECT
Module: /mnt/sda5/.user/root/src/openwatcom-1.9/rel2/lib386/win/clib3r.lib(splitpat.c)
00042040       _splitpath_
Module: /mnt/sda5/.user/root/src/openwatcom-1.9/rel2/lib386/win/clib3r.lib(makepath.c)
00042130       _makepath_
Module: /mnt/sda5/.user/root/src/openwatcom-1.9/rel2/lib386/win/clib3r.lib(_strcmp)
00042320       strcmp_
Module: /mnt/sda5/.user/root/src/openwatcom-1.9/rel2/lib386/win/clib3r.lib(dir.c)
000424c0+      _opendir_
00042660       opendir_
00042680       readdir_
000426b0       closedir_
000426f0*      rewinddir_
Module: /mnt/sda5/.user/root/src/openwatcom-1.9/rel2/lib386/win/clib3r.lib(qsort.c)
00042770       qsort_
Module: /mnt/sda5/.user/root/src/openwatcom-1.9/rel2/lib386/win/clib3r.lib(strncat.c)
00042c70       strncat_
Module: /mnt/sda5/.user/root/src/openwatcom-1.9/rel2/lib386/win/clib3r.lib(accss.c)
00042cc0       access_
Module: /mnt/sda5/.user/root/src/openwatcom-1.9/rel2/lib386/win/clib3r.lib(errno.c)
00042d00       __get_errno_ptr_
00042d10       __get_doserrno_ptr_
000595d4+      _errno
000595d8+      __doserrno
Module: /mnt/sda5/.user/root/src/openwatcom-1.9/rel2/lib386/win/clib3r.lib(exit.c)
00042d16       exit_
00042d43       _exit_
Module: /mnt/sda5/.user/root/src/openwatcom-1.9/rel2/lib386/win/clib3r.lib(clockwin.c)
00042d50       clock_
Module: /mnt/sda5/.user/root/src/openwatcom-1.9/rel2/lib386/win/clib3r.lib(open.c)
00042ff0       open_
00043010       sopen_
Module: /mnt/sda5/.user/root/src/openwatcom-1.9/rel2/lib386/win/clib3r.lib(close.c)
00043040       close_
Module: /mnt/sda5/.user/root/src/openwatcom-1.9/rel2/lib386/win/clib3r.lib(remove.c)
00043050       remove_
Module: /mnt/sda5/.user/root/src/openwatcom-1.9/rel2/lib386/win/clib3r.lib(gtpidw32.c)
00043060       getpid_
Module: /mnt/sda5/.user/root/src/openwatcom-1.9/rel2/lib386/win/clib3r.lib(fdopen.c)
000430c0       fdopen_
Module: /mnt/sda5/.user/root/src/openwatcom-1.9/rel2/lib386/win/clib3r.lib(strerror.c)
000434b0       strerror_
000434d0*      _strerror_
00054478+      __sys_errlist
0005451c+      __sys_nerr
Module: /mnt/sda5/.user/root/src/openwatcom-1.9/rel2/lib386/win/clib3r.lib(renam.c)
000435a0       rename_
Module: /mnt/sda5/.user/root/src/openwatcom-1.9/rel2/lib386/win/clib3r.lib(strtol.c)
000437d0       strtoul_
000437e0       strtol_
Module: /mnt/sda5/.user/root/src/openwatcom-1.9/rel2/lib386/win/clib3r.lib(fprintf.c)
000437f0       fprintf_
Module: /mnt/sda5/.user/root/src/openwatcom-1.9/rel2/lib386/win/clib3r.lib(printf.c)
00043820       printf_
Module: /mnt/sda5/.user/root/src/openwatcom-1.9/rel2/lib386/win/clib3r.lib(time.c)
00043850       time_
Module: /mnt/sda5/.user/root/src/openwatcom-1.9/rel2/lib386/win/clib3r.lib(localtim.c)
00043890       _localtime_
000438f0       localtime_
Module: /mnt/sda5/.user/root/src/openwatcom-1.9/rel2/lib386/win/clib3r.lib(strftime.c)
00043b63       strftime_
Module: /mnt/sda5/.user/root/src/openwatcom-1.9/rel2/lib386/win/clib3r.lib(atol.c)
000441b0       atol_
Module: /mnt/sda5/.user/root/src/openwatcom-1.9/rel2/lib386/win/clib3r.lib(stack386.c)
00044200       stackavail_
Module: /mnt/sda5/.user/root/src/openwatcom-1.9/rel2/lib386/win/clib3r.lib(stk)
00044227*      __STK
00044214       __CHK
00044224       __GRO
00044245       __STKOVERFLOW_
Module: /mnt/sda5/.user/root/src/openwatcom-1.9/rel2/lib386/win/win386.lib(win291)
00044254       GETVERSION
Module: /mnt/sda5/.user/root/src/openwatcom-1.9/rel2/lib386/win/clib3r.lib(cb.c)
00059704       _CBJumpTable
00059f04+      __CBRefsTable
00044530+      vGetCallbackRoutine_
000445a0       GetCallbackRoutine_
000445d0*      ReleaseCallbackRoutine_
00044640       SetProc_
000446d0       _COVER_MAKEPROCINSTANCE
000446e0       _COVER_FREEPROCINSTANCE
000446f0+      FREEPROCINSTANCE
Module: /mnt/sda5/.user/root/src/openwatcom-1.9/rel2/lib386/win/clib3r.lib(gtcwd.c)
00044770       getcwd_
Module: /mnt/sda5/.user/root/src/openwatcom-1.9/rel2/lib386/win/clib3r.lib(chdir.c)
00044820       chdir_
Module: /mnt/sda5/.user/root/src/openwatcom-1.9/rel2/lib386/win/clib3r.lib(isatt.c)
00044840       isatty_
Module: /mnt/sda5/.user/root/src/openwatcom-1.9/rel2/lib386/win/clib3r.lib(tell.c)
00044880       tell_
Module: /mnt/sda5/.user/root/src/openwatcom-1.9/rel2/lib386/win/clib3r.lib(lseek.c)
000448a0       lseek_
Module: /mnt/sda5/.user/root/src/openwatcom-1.9/rel2/lib386/win/clib3r.lib(searchen.c)
000448d0       _searchenv_
Module: /mnt/sda5/.user/root/src/openwatcom-1.9/rel2/lib386/win/clib3r.lib(tmpnm.c)
00044a90       tmpnam_
Module: /mnt/sda5/.user/root/src/openwatcom-1.9/rel2/lib386/win/win386.lib(win20)
00044b5a       BRINGWINDOWTOTOP
Module: /mnt/sda5/.user/root/src/openwatcom-1.9/rel2/lib386/win/win386.lib(win486)
00044b7c       SETFOCUS
Module: /mnt/sda5/.user/root/src/openwatcom-1.9/rel2/lib386/win/win386.lib(win531)
00044b9e       SETWINDOWPOS
Module: /mnt/sda5/.user/root/src/openwatcom-1.9/rel2/lib386/win/clib3r.lib(sprintf.c)
00044bc0       sprintf_
Module: /mnt/sda5/.user/root/src/openwatcom-1.9/rel2/lib386/win/clib3r.lib(strrchr.c)
00044bf0       strrchr_
Module: /mnt/sda5/.user/root/src/openwatcom-1.9/rel2/lib386/win/clib3r.lib(read.c)
00044db0       read_
Module: /mnt/sda5/.user/root/src/openwatcom-1.9/rel2/lib386/win/win386.lib(win1365)
00044e14       SETWINDOWTEXT
Module: /mnt/sda5/.user/root/src/openwatcom-1.9/rel2/lib386/win/clib3r.lib(fputc.c)
00044e40       fputc_
Module: /mnt/sda5/.user/root/src/openwatcom-1.9/rel2/lib386/win/clib3r.lib(iob.c)
000545c0       ___iob
000547c8       __fmode
0005a120       ___OpenStreams
0005a124       ___ClosedStreams
Module: /mnt/sda5/.user/root/src/openwatcom-1.9/rel2/lib386/win/clib3r.lib(memmove.c)
00044f00       memmove_
Module: /mnt/sda5/.user/root/src/openwatcom-1.9/rel2/lib386/win/clib3r.lib(setvbuf.c)
00044f60       setvbuf_
Module: /mnt/sda5/.user/root/src/openwatcom-1.9/rel2/lib386/win/clib3r.lib(write.c)
00045360       write_
Module: /mnt/sda5/.user/root/src/openwatcom-1.9/rel2/lib386/win/clib3r.lib(fread.c)
000453d0       fread_
Module: /mnt/sda5/.user/root/src/openwatcom-1.9/rel2/lib386/win/win386.lib(win190)
000455b6       GETDC
Module: /mnt/sda5/.user/root/src/openwatcom-1.9/rel2/lib386/win/win386.lib(win444)
000455d8       RELEASEDC
Module: /mnt/sda5/.user/root/src/openwatcom-1.9/rel2/lib386/win/win386.lib(win198)
000455fe       GETDLGITEM
Module: /mnt/sda5/.user/root/src/openwatcom-1.9/rel2/lib386/win/clib3r.lib(sendmsg.c)
00045630       _COVER_SENDMESSAGE
Module: /mnt/sda5/.user/root/src/openwatcom-1.9/rel2/lib386/win/win386.lib(win1309)
000456ca       ENDDIALOG
Module: /mnt/sda5/.user/root/src/openwatcom-1.9/rel2/lib386/win/clib3r.lib(dboxp.c)
000456f0       _COVER_DIALOGBOXPARAM
Module: /mnt/sda5/.user/root/src/openwatcom-1.9/rel2/lib386/win/clib3r.lib(fwrite.c)
00045720       fwrite_
Module: /mnt/sda5/.user/root/src/openwatcom-1.9/rel2/lib386/win/clib3r.lib(chmod.c)
00045920       chmod_
Module: /mnt/sda5/.user/root/src/openwatcom-1.9/rel2/lib386/win/clib3r.lib(setmd.c)
00045970       setmode_
Module: /mnt/sda5/.user/root/src/openwatcom-1.9/rel2/lib386/win/win386.lib(win536)
00045a2a       SHOWWINDOW
Module: /mnt/sda5/.user/root/src/openwatcom-1.9/rel2/lib386/win/win386.lib(win23)
00045a50       CALLNEXTHOOKEX
Module: /mnt/sda5/.user/root/src/openwatcom-1.9/rel2/lib386/win/win386.lib(win173)
00045a7c       GETCLASSNAME
Module: /mnt/sda5/.user/root/src/openwatcom-1.9/rel2/lib386/win/win386.lib(win187)
00045a9c       GETCURRENTTASK
Module: /mnt/sda5/.user/root/src/openwatcom-1.9/rel2/lib386/win/clib3r.lib(setwhx.c)
00045ac0       _COVER_SETWINDOWSHOOKEX
Module: /mnt/sda5/.user/root/src/openwatcom-1.9/rel2/lib386/win/win386.lib(win559)
00045af2       UNHOOKWINDOWSHOOKEX
Module: /mnt/sda5/.user/root/src/openwatcom-1.9/rel2/lib386/win/win386.lib(win485)
00045b14       SETERRORMODE
Module: /mnt/sda5/.user/root/src/openwatcom-1.9/rel2/lib386/win/win386.lib(win370)
00045b36       LOADLIBRARY
Module: /mnt/sda5/.user/root/src/openwatcom-1.9/rel2/lib386/win/win386.lib(win1313)
00045b62       FREELIBRARY
Module: /mnt/sda5/.user/root/src/openwatcom-1.9/rel2/lib386/win/win386.lib(win252)
00045b82       GETPROCADDRESS
Module: /mnt/sda5/.user/root/src/openwatcom-1.9/rel2/lib386/win/win386.lib(win420)
00045ba0       PEEKMESSAGE
Module: /mnt/sda5/.user/root/src/openwatcom-1.9/rel2/lib386/win/win386.lib(win226)
00045bcc       GETMESSAGE
Module: /mnt/sda5/.user/root/src/openwatcom-1.9/rel2/lib386/win/win386.lib(win555)
00045bf8       TRANSLATEMESSAGE
Module: /mnt/sda5/.user/root/src/openwatcom-1.9/rel2/lib386/win/win386.lib(win100)
00045c18       DISPATCHMESSAGE
Module: /mnt/sda5/.user/root/src/openwatcom-1.9/rel2/lib386/win/win386.lib(win554)
00045c36       TRANSLATEMDISYSACCEL
Module: /mnt/sda5/.user/root/src/openwatcom-1.9/rel2/lib386/win/win386.lib(win353)
00045c56       ISDIALOGMESSAGE
Module: /mnt/sda5/.user/root/src/openwatcom-1.9/rel2/lib386/win/clib3r.lib(cstrtw32.asm)
00000002*      ___begtext
000547cc       _LocalPtr
000547da*      ___A000
000547dc*      ___B000
000547de*      ___B800
000547e0*      ___C000
000547e2*      ___D000
000547e4*      ___E000
000547e6*      ___F000
000547e8       __CodeSelectorBaseAddr
000547ee       __DataSelectorBaseAddr
000547f4       __32BitCallBackAddr
000547fa*      __DLLEntryAddr
00054800*      __WEPAddr
00054806       __16BitCallBackAddr
0005480a       Invoke16BitFunctionAddr
00054810*      __INT21ADDR
00054816       __WIN16THUNK1ADDR
0005481c       __WIN16THUNK2ADDR
00054822*      __WIN16THUNK3ADDR
00054828*      __WIN16THUNK4ADDR
0005482e       __WIN16THUNK5ADDR
00054834*      __WIN16THUNK6ADDR
0005483a*      __Call16Addr
00054864       __pid
00054866*      __wincmdptr
000548fc       ___Is_DLL
00054840       __LpCmdLine
00054844       __LpPgmName
00054848       __STACKLOW
0005484c*      __STACKTOP
00054850*      __ASTACKSIZ
00054854*      __ASTACKPTR
00054858       __curbrk
0005485c       __cbyte
00054860       __osmajor
00054861*      __osminor
00054862       __Extender
000547d8       __no87
000548fd*      ___FPE_handler
00054863*      __init_387_emulator
00045c78*      _cstart_
00045c78       _wstart_
00045c78*      _wstart2_
00045c78*      __DLLstart_
00045df7       __exit_
00045e42*      __GETDS
00045e4b       __Int21
00045e4b       __Int21_
Module: /mnt/sda5/.user/root/src/openwatcom-1.9/rel2/lib386/win/win386.lib(win369)
00045e5c       LOADICON
Module: /mnt/sda5/.user/root/src/openwatcom-1.9/rel2/lib386/win/win386.lib(win368)
00045e7c       LOADCURSOR
Module: /mnt/sda5/.user/root/src/openwatcom-1.9/rel2/lib386/win/clib3r.lib(regclass.c)
00045ea0       _COVER_REGISTERCLASS
Module: /mnt/sda5/.user/root/src/openwatcom-1.9/rel2/lib386/win/win386.lib(win78)
00045ec6       CREATEWINDOW
Module: /mnt/sda5/.user/root/src/openwatcom-1.9/rel2/lib386/win/win386.lib(win271)
00045ee6       GETSYSTEMMETRICS
Module: /mnt/sda5/.user/root/src/openwatcom-1.9/rel2/lib386/win/win386.lib(win403)
00045f08       MOVEWINDOW
Module: /mnt/sda5/.user/root/src/openwatcom-1.9/rel2/lib386/win/win386.lib(win360)
00045f28       ISWINDOW
Module: /mnt/sda5/.user/root/src/openwatcom-1.9/rel2/lib386/win/win386.lib(win363)
00045f4a       ISZOOMED
Module: /mnt/sda5/.user/root/src/openwatcom-1.9/rel2/lib386/win/win386.lib(win1428)
00045f6c       DRAGACCEPTFILES
Module: /mnt/sda5/.user/root/src/openwatcom-1.9/rel2/lib386/win/win386.lib(win364)
00045fa0       KILLTIMER
Module: /mnt/sda5/.user/root/src/openwatcom-1.9/rel2/lib386/win/win386.lib(win83)
00045fc6       DEFFRAMEPROC
Module: /mnt/sda5/.user/root/src/openwatcom-1.9/rel2/lib386/win/win386.lib(win356)
00045ff6       ISICONIC
Module: /mnt/sda5/.user/root/src/openwatcom-1.9/rel2/lib386/win/clib3r.lib(settimer.c)
00046020       _COVER_SETTIMER
Module: /mnt/sda5/.user/root/src/openwatcom-1.9/rel2/lib386/win/win386.lib(win890)
00046074       DRAGQUERYFILE
Module: /mnt/sda5/.user/root/src/openwatcom-1.9/rel2/lib386/win/win386.lib(win1427)
000460a4       DRAGFINISH
Module: /mnt/sda5/.user/root/src/openwatcom-1.9/rel2/lib386/win/win386.lib(win1321)
000460d0       GETWINDOWRECT
Module: /mnt/sda5/.user/root/src/openwatcom-1.9/rel2/lib386/win/win386.lib(win220)
000460ee       GETMENU
Module: /mnt/sda5/.user/root/src/openwatcom-1.9/rel2/lib386/win/win386.lib(win1349)
00046110       RELEASECAPTURE
Module: /mnt/sda5/.user/root/src/openwatcom-1.9/rel2/lib386/win/win386.lib(win217)
0004612a       GETKEYSTATE
Module: /mnt/sda5/.user/root/src/openwatcom-1.9/rel2/lib386/win/win386.lib(win473)
0004614c       SETCAPTURE
Module: /mnt/sda5/.user/root/src/openwatcom-1.9/rel2/lib386/win/win386.lib(win1320)
0004616e       GETSCROLLRANGE
Module: /mnt/sda5/.user/root/src/openwatcom-1.9/rel2/lib386/win/win386.lib(win260)
0004618c       GETSCROLLPOS
Module: /mnt/sda5/.user/root/src/openwatcom-1.9/rel2/lib386/win/win386.lib(win502)
000461b2       SETSCROLLPOS
Module: /mnt/sda5/.user/root/src/openwatcom-1.9/rel2/lib386/win/win386.lib(win1363)
000461e0       SETSCROLLRANGE
Module: /mnt/sda5/.user/root/src/openwatcom-1.9/rel2/lib386/win/win386.lib(win85)
00046210       DEFMDICHILDPROC
Module: /mnt/sda5/.user/root/src/openwatcom-1.9/rel2/lib386/win/win386.lib(win289)
0004623c       GETUPDATERECT
Module: /mnt/sda5/.user/root/src/openwatcom-1.9/rel2/lib386/win/win386.lib(win18)
0004625c       BEGINPAINT
Module: /mnt/sda5/.user/root/src/openwatcom-1.9/rel2/lib386/win/win386.lib(win1310)
0004627c       ENDPAINT
Module: /mnt/sda5/.user/root/src/openwatcom-1.9/rel2/lib386/win/win386.lib(win338)
0004629a       INTERSECTRECT
Module: /mnt/sda5/.user/root/src/openwatcom-1.9/rel2/lib386/win/win386.lib(win350)
000462ba       ISCHILD
Module: /mnt/sda5/.user/root/src/openwatcom-1.9/rel2/lib386/win/clib3r.lib(enumcw.c)
000462e0       _COVER_ENUMCHILDWINDOWS
Module: /mnt/sda5/.user/root/src/openwatcom-1.9/rel2/lib386/win/clib3r.lib(strpbrk.c)
00046310       strpbrk_
Module: /mnt/sda5/.user/root/src/openwatcom-1.9/rel2/lib386/win/clib3r.lib(finddos.c)
00046370       _dos_findfirst_
000463d0       _dos_findnext_
00046440       _dos_findclose_
Module: /mnt/sda5/.user/root/src/openwatcom-1.9/rel2/lib386/win/clib3r.lib(asctime.c)
000464b2+      _asctime_
0004659e*      asctime_
000465ab*      _ctime_
000465c9       ctime_
Module: /mnt/sda5/.user/root/src/openwatcom-1.9/rel2/lib386/win/win386.lib(win235)
000465d6       GETNEARESTCOLOR
Module: /mnt/sda5/.user/root/src/openwatcom-1.9/rel2/lib386/win/win386.lib(win68)
000465fa       CREATEPEN
Module: /mnt/sda5/.user/root/src/openwatcom-1.9/rel2/lib386/win/win386.lib(win45)
00046624       CREATEBRUSHINDIRECT
Module: /mnt/sda5/.user/root/src/openwatcom-1.9/rel2/lib386/win/win386.lib(win91)
00046644       DELETEOBJECT
Module: /mnt/sda5/.user/root/src/openwatcom-1.9/rel2/lib386/win/win386.lib(win272)
00046666       GETSYSTEMPALETTEENTRIES
Module: /mnt/sda5/.user/root/src/openwatcom-1.9/rel2/lib386/win/clib3r.lib(cdchclr.c)
00046690       _COVERCHOOSECOLOR
Module: /mnt/sda5/.user/root/src/openwatcom-1.9/rel2/lib386/win/win386.lib(win266)
000466c8       GETSYSCOLOR
Module: /mnt/sda5/.user/root/src/openwatcom-1.9/rel2/lib386/win/win386.lib(win280)
000466e8       GETTEXTEXTENT
Module: /mnt/sda5/.user/root/src/openwatcom-1.9/rel2/lib386/win/win386.lib(win60)
00046706       CREATEFONTINDIRECT
Module: /mnt/sda5/.user/root/src/openwatcom-1.9/rel2/lib386/win/win386.lib(win459)
00046726       SELECTOBJECT
Module: /mnt/sda5/.user/root/src/openwatcom-1.9/rel2/lib386/win/win386.lib(win283)
0004674c       GETTEXTMETRICS
Module: /mnt/sda5/.user/root/src/openwatcom-1.9/rel2/lib386/win/clib3r.lib(cdchfnt.c)
00046770       _COVERCHOOSEFONT
Module: /mnt/sda5/.user/root/src/openwatcom-1.9/rel2/lib386/win/win386.lib(win95)
000467a8       DESTROYWINDOW
Module: /mnt/sda5/.user/root/src/openwatcom-1.9/rel2/lib386/win/win386.lib(win429)
000467ca       PTINRECT
Module: /mnt/sda5/.user/root/src/openwatcom-1.9/rel2/lib386/win/win386.lib(win465)
000467ea       SETACTIVEWINDOW
Module: /mnt/sda5/.user/root/src/openwatcom-1.9/rel2/lib386/win/win386.lib(win140)
0004680c       FILLRECT
Module: /mnt/sda5/.user/root/src/openwatcom-1.9/rel2/lib386/win/win386.lib(win1352)
0004682c       SCROLLWINDOW
Module: /mnt/sda5/.user/root/src/openwatcom-1.9/rel2/lib386/win/win386.lib(win469)
0004684a       SETBKCOLOR
Module: /mnt/sda5/.user/root/src/openwatcom-1.9/rel2/lib386/win/win386.lib(win512)
0004686e       SETTEXTCOLOR
Module: /mnt/sda5/.user/root/src/openwatcom-1.9/rel2/lib386/win/win386.lib(win550)
00046892       TEXTOUT
Module: /mnt/sda5/.user/root/src/openwatcom-1.9/rel2/lib386/win/win386.lib(win186)
000468b2       GETCURRENTPOSITIONEX
Module: /mnt/sda5/.user/root/src/openwatcom-1.9/rel2/lib386/win/win386.lib(win402)
000468d2       MOVETOEX
Module: /mnt/sda5/.user/root/src/openwatcom-1.9/rel2/lib386/win/win386.lib(win510)
000468f2       SETTEXTALIGN
Module: /mnt/sda5/.user/root/src/openwatcom-1.9/rel2/lib386/win/win386.lib(win1319)
00046918       GETKEYBOARDSTATE
Module: /mnt/sda5/.user/root/src/openwatcom-1.9/rel2/lib386/win/win386.lib(win551)
00046936       TOASCII
Module: /mnt/sda5/.user/root/src/openwatcom-1.9/rel2/lib386/win/clib3r.lib(bsearch.c)
00046960       bsearch_
Module: /mnt/sda5/.user/root/src/openwatcom-1.9/rel2/lib386/win/win386.lib(win1353)
000469da       SETCARETBLINKTIME
Module: /mnt/sda5/.user/root/src/openwatcom-1.9/rel2/lib386/win/win386.lib(win1305)
000469fa       DESTROYCARET
Module: /mnt/sda5/.user/root/src/openwatcom-1.9/rel2/lib386/win/win386.lib(win168)
00046a14       GETCARETBLINKTIME
Module: /mnt/sda5/.user/root/src/openwatcom-1.9/rel2/lib386/win/win386.lib(win1303)
00046a30       CREATECARET
Module: /mnt/sda5/.user/root/src/openwatcom-1.9/rel2/lib386/win/win386.lib(win1354)
00046a5c       SETCARETPOS
Module: /mnt/sda5/.user/root/src/openwatcom-1.9/rel2/lib386/win/win386.lib(win1366)
00046a80       SHOWCARET
Module: /mnt/sda5/.user/root/src/openwatcom-1.9/rel2/lib386/win/win386.lib(win1324)
00046aa0       HIDECARET
Module: /mnt/sda5/.user/root/src/openwatcom-1.9/rel2/lib386/win/win386.lib(win86)
00046ac0       DEFWINDOWPROC
Module: /mnt/sda5/.user/root/src/openwatcom-1.9/rel2/lib386/win/win386.lib(win296)
00046aec       GETWINDOW
Module: /mnt/sda5/.user/root/src/openwatcom-1.9/rel2/lib386/win/win386.lib(win1298)
00046b12       CLIENTTOSCREEN
Module: /mnt/sda5/.user/root/src/openwatcom-1.9/rel2/lib386/win/win386.lib(win549)
00046b30       TABBEDTEXTOUT
Module: /mnt/sda5/.user/root/src/openwatcom-1.9/rel2/lib386/win/win386.lib(win449)
00046b4e       RESTOREDC
Module: /mnt/sda5/.user/root/src/openwatcom-1.9/rel2/lib386/win/win386.lib(win451)
00046b74       SAVEDC
Module: /mnt/sda5/.user/root/src/openwatcom-1.9/rel2/lib386/win/win386.lib(win274)
00046b96       GETTABBEDTEXTEXTENT
Module: /mnt/sda5/.user/root/src/openwatcom-1.9/rel2/lib386/win/win386.lib(win481)
00046bb4       SETCURSOR
Module: /mnt/sda5/.user/root/src/openwatcom-1.9/rel2/lib386/win/win386.lib(win312)
00046bd6       GLOBALCOMPACT
Module: /mnt/sda5/.user/root/src/openwatcom-1.9/rel2/lib386/win/clib3r.lib(delayw32.c)
00046c00       delay_
Module: /mnt/sda5/.user/root/src/openwatcom-1.9/rel2/lib386/win/win386.lib(win1335)
00046c0e       MESSAGEBEEP
Module: /mnt/sda5/.user/root/src/openwatcom-1.9/rel2/lib386/win/clib3r.lib(dosdrive)
00046c30       _dos_getdrive_
00046c47       _dos_setdrive_
Module: /mnt/sda5/.user/root/src/openwatcom-1.9/rel2/lib386/win/win386.lib(win92)
00046c5e       DESTROYCURSOR
Module: /mnt/sda5/.user/root/src/openwatcom-1.9/rel2/lib386/win/win386.lib(win567)
00046c80       WINDOWFROMPOINT
Module: /mnt/sda5/.user/root/src/openwatcom-1.9/rel2/lib386/win/win386.lib(win1351)
00046ca2       SCREENTOCLIENT
Module: /mnt/sda5/.user/root/src/openwatcom-1.9/rel2/lib386/win/win386.lib(win29)
00046cc0       CHILDWINDOWFROMPOINT
Module: /mnt/sda5/.user/root/src/openwatcom-1.9/rel2/lib386/win/win386.lib(win308)
00046ce6       GETWINDOWWORD
Module: /mnt/sda5/.user/root/src/openwatcom-1.9/rel2/lib386/win/win386.lib(win246)
00046d0c       GETPARENT
Module: /mnt/sda5/.user/root/src/openwatcom-1.9/rel2/lib386/win/win386.lib(win1357)
00046d2e       SETDLGITEMTEXT
Module: /mnt/sda5/.user/root/src/openwatcom-1.9/rel2/lib386/win/win386.lib(win354)
00046d4c       ISDLGBUTTONCHECKED
Module: /mnt/sda5/.user/root/src/openwatcom-1.9/rel2/lib386/win/win386.lib(win200)
00046d72       GETDLGITEMTEXT
Module: /mnt/sda5/.user/root/src/openwatcom-1.9/rel2/lib386/win/win386.lib(win14)
00046d92       APPENDMENU
Module: /mnt/sda5/.user/root/src/openwatcom-1.9/rel2/lib386/win/win386.lib(win89)
00046dc0       DELETEMENU
Module: /mnt/sda5/.user/root/src/openwatcom-1.9/rel2/lib386/win/win386.lib(win265)
00046dea       GETSUBMENU
Module: /mnt/sda5/.user/root/src/openwatcom-1.9/rel2/lib386/win/win386.lib(win94)
00046e10       DESTROYMENU
Module: /mnt/sda5/.user/root/src/openwatcom-1.9/rel2/lib386/win/win386.lib(win72)
00046e32       CREATEPOPUPMENU
Module: /mnt/sda5/.user/root/src/openwatcom-1.9/rel2/lib386/win/win386.lib(win64)
00046e4e       CREATEMENU
Module: /mnt/sda5/.user/root/src/openwatcom-1.9/rel2/lib386/win/win386.lib(win490)
00046e6a       SETMENU
Module: /mnt/sda5/.user/root/src/openwatcom-1.9/rel2/lib386/win/win386.lib(win552)
00046e90       TRACKPOPUPMENU
Module: /mnt/sda5/.user/root/src/openwatcom-1.9/rel2/lib386/win/win386.lib(win28)
00046eb0       CHECKMENUITEM
Module: /mnt/sda5/.user/root/src/openwatcom-1.9/rel2/lib386/win/win386.lib(win114)
00046eda       ENABLEMENUITEM
Module: /mnt/sda5/.user/root/src/openwatcom-1.9/rel2/lib386/win/clib3r.lib(snddimsg.c)
00046f10       _COVER_SENDDLGITEMMESSAGE
Module: /mnt/sda5/.user/root/src/openwatcom-1.9/rel2/lib386/win/clib3r.lib(cdgofn.c)
00046f80       _COVERGETOPENFILENAME
Module: /mnt/sda5/.user/root/src/openwatcom-1.9/rel2/lib386/win/win386.lib(win874)
00046fb8       COMMDLGEXTENDEDERROR
Module: /mnt/sda5/.user/root/src/openwatcom-1.9/rel2/lib386/win/clib3r.lib(cdgsfn.c)
00046ff0       _COVERGETSAVEFILENAME
Module: /mnt/sda5/.user/root/src/openwatcom-1.9/rel2/lib386/win/clib3r.lib(dbox.c)
00047030       _COVER_DIALOGBOX
Module: /mnt/sda5/.user/root/src/openwatcom-1.9/rel2/lib386/win/win386.lib(win24)
0004705c       CALLWINDOWPROC
Module: /mnt/sda5/.user/root/src/openwatcom-1.9/rel2/lib386/win/clib3r.lib(fseek.c)
000470e0       fseek_
Module: /mnt/sda5/.user/root/src/openwatcom-1.9/rel2/lib386/win/win386.lib(win43)
000471d4       CREATEBITMAP
Module: /mnt/sda5/.user/root/src/openwatcom-1.9/rel2/lib386/win/win386.lib(win460)
00047206       SELECTPALETTE
Module: /mnt/sda5/.user/root/src/openwatcom-1.9/rel2/lib386/win/win386.lib(win436)
00047230       REALIZEPALETTE
Module: /mnt/sda5/.user/root/src/openwatcom-1.9/rel2/lib386/win/win386.lib(win54)
00047252       CREATEDIBITMAP
Module: /mnt/sda5/.user/root/src/openwatcom-1.9/rel2/lib386/win/win386.lib(win66)
00047272       CREATEPALETTE
Module: /mnt/sda5/.user/root/src/openwatcom-1.9/rel2/lib386/win/win386.lib(win835)
00047292       DDECREATEDATAHANDLE
Module: /mnt/sda5/.user/root/src/openwatcom-1.9/rel2/lib386/win/win386.lib(win836)
000472c4       DDECREATESTRINGHANDLE
Module: /mnt/sda5/.user/root/src/openwatcom-1.9/rel2/lib386/win/win386.lib(win845)
000472f8       DDEKEEPSTRINGHANDLE
Module: /mnt/sda5/.user/root/src/openwatcom-1.9/rel2/lib386/win/win386.lib(win841)
00047334       DDEFREESTRINGHANDLE
Module: /mnt/sda5/.user/root/src/openwatcom-1.9/rel2/lib386/win/clib3r.lib(ddeml.c)
00047370       _COVER_DDEINITIALIZE
000473a0       _COVER_DDECLIENTTRANSACTION
Module: /mnt/sda5/.user/root/src/openwatcom-1.9/rel2/lib386/win/win386.lib(win846)
00047420       DDENAMESERVICE
Module: /mnt/sda5/.user/root/src/openwatcom-1.9/rel2/lib386/win/win386.lib(win854)
00047468       DDEUNINITIALIZE
Module: /mnt/sda5/.user/root/src/openwatcom-1.9/rel2/lib386/win/win386.lib(win850)
000474a8       DDEQUERYSTRING
Module: /mnt/sda5/.user/root/src/openwatcom-1.9/rel2/lib386/win/win386.lib(win842)
000474e2       DDEGETDATA
Module: /mnt/sda5/.user/root/src/openwatcom-1.9/rel2/lib386/win/win386.lib(win833)
0004750c       DDECONNECT
Module: /mnt/sda5/.user/root/src/openwatcom-1.9/rel2/lib386/win/win386.lib(win837)
00047542       DDEDISCONNECT
Module: /mnt/sda5/.user/root/src/openwatcom-1.9/rel2/lib386/win/win386.lib(win840)
00047580       DDEFREEDATAHANDLE
Module: /mnt/sda5/.user/root/src/openwatcom-1.9/rel2/lib386/win/win386.lib(win367)
000475b6       LOADBITMAP
Module: /mnt/sda5/.user/root/src/openwatcom-1.9/rel2/lib386/win/win386.lib(win375)
000475d6       LOADSTRING
Module: /mnt/sda5/.user/root/src/openwatcom-1.9/rel2/lib386/win/win386.lib(win412)
000475f6       OPENCLIPBOARD
Module: /mnt/sda5/.user/root/src/openwatcom-1.9/rel2/lib386/win/win386.lib(win351)
00047618       ISCLIPBOARDFORMATAVAILABLE
Module: /mnt/sda5/.user/root/src/openwatcom-1.9/rel2/lib386/win/win386.lib(win32)
0004763a       CLOSECLIPBOARD
Module: /mnt/sda5/.user/root/src/openwatcom-1.9/rel2/lib386/win/win386.lib(win111)
00047656       EMPTYCLIPBOARD
Module: /mnt/sda5/.user/root/src/openwatcom-1.9/rel2/lib386/win/win386.lib(win311)
00047672       GLOBALALLOC
Module: /mnt/sda5/.user/root/src/openwatcom-1.9/rel2/lib386/win/win386.lib(win321)
00047698       GLOBALLOCK
Module: /mnt/sda5/.user/root/src/openwatcom-1.9/rel2/lib386/win/win386.lib(win329)
000476b8       GLOBALUNLOCK
Module: /mnt/sda5/.user/root/src/openwatcom-1.9/rel2/lib386/win/win386.lib(win476)
000476da       SETCLIPBOARDDATA
Module: /mnt/sda5/.user/root/src/openwatcom-1.9/rel2/lib386/win/win386.lib(win175)
00047700       GETCLIPBOARDDATA
Module: /mnt/sda5/.user/root/src/openwatcom-1.9/rel2/lib386/win/win386.lib(win427)
00047722       POSTMESSAGE
Module: /mnt/sda5/.user/root/src/openwatcom-1.9/rel2/lib386/win/win386.lib(win251)
00047750       GETPRIVATEPROFILESTRING
Module: /mnt/sda5/.user/root/src/openwatcom-1.9/rel2/lib386/win/win386.lib(win574)
00047770       WRITEPRIVATEPROFILESTRING
Module: /mnt/sda5/.user/root/src/openwatcom-1.9/rel2/lib386/win/win386.lib(win304)
00047790       GETWINDOWSDIRECTORY
Module: /mnt/sda5/.user/root/src/openwatcom-1.9/rel2/lib386/win/clib3r.lib(stat.c)
0004782e       stat_
Module: /mnt/sda5/.user/root/src/openwatcom-1.9/rel2/lib386/win/win386.lib(win1296)
00047a9a       CHECKDLGBUTTON
Module: /mnt/sda5/.user/root/src/openwatcom-1.9/rel2/lib386/win/win386.lib(win306)
00047ac2       GETWINDOWTEXT
Module: /mnt/sda5/.user/root/src/openwatcom-1.9/rel2/lib386/win/clib3r.lib(cdlg.c)
00047af0       _COVER_CREATEDIALOG
Module: /mnt/sda5/.user/root/src/openwatcom-1.9/rel2/lib386/win/win386.lib(win162)
00047b1c       GETBKCOLOR
Module: /mnt/sda5/.user/root/src/openwatcom-1.9/rel2/lib386/win/win386.lib(win279)
00047b3c       GETTEXTCOLOR
Module: /mnt/sda5/.user/root/src/openwatcom-1.9/rel2/lib386/win/win386.lib(win365)
00047b5c       LINETO
Module: /mnt/sda5/.user/root/src/openwatcom-1.9/rel2/lib386/win/win386.lib(win109)
00047b86       DRAWTEXT
Module: /mnt/sda5/.user/root/src/openwatcom-1.9/rel2/lib386/win/win386.lib(win1325)
00047ba6       INFLATERECT
Module: /mnt/sda5/.user/root/src/openwatcom-1.9/rel2/lib386/win/win386.lib(win562)
00047bc4       UNREALIZEOBJECT
Module: /mnt/sda5/.user/root/src/openwatcom-1.9/rel2/lib386/win/win386.lib(win77)
00047be6       CREATESOLIDBRUSH
Module: /mnt/sda5/.user/root/src/openwatcom-1.9/rel2/lib386/win/win386.lib(win171)
00047c08       GETCLASSINFO
Module: /mnt/sda5/.user/root/src/openwatcom-1.9/rel2/lib386/win/win386.lib(win263)
00047c28       GETSTOCKOBJECT
Module: /mnt/sda5/.user/root/src/openwatcom-1.9/rel2/lib386/win/win386.lib(win67)
00047c4a       CREATEPATTERNBRUSH
Module: /mnt/sda5/.user/root/src/openwatcom-1.9/rel2/lib386/win/win386.lib(win107)
00047c6c       DPTOLP
Module: /mnt/sda5/.user/root/src/openwatcom-1.9/rel2/lib386/win/win386.lib(win47)
00047c8c       CREATECOMPATIBLEDC
Module: /mnt/sda5/.user/root/src/openwatcom-1.9/rel2/lib386/win/win386.lib(win242)
00047cae       GETOBJECT
Module: /mnt/sda5/.user/root/src/openwatcom-1.9/rel2/lib386/win/win386.lib(win506)
00047cce       SETSTRETCHBLTMODE
Module: /mnt/sda5/.user/root/src/openwatcom-1.9/rel2/lib386/win/win386.lib(win543)
00047cf4       STRETCHBLT
Module: /mnt/sda5/.user/root/src/openwatcom-1.9/rel2/lib386/win/win386.lib(win88)
00047d14       DELETEDC
Module: /mnt/sda5/.user/root/src/openwatcom-1.9/rel2/lib386/win/win386.lib(win46)
00047d36       CREATECOMPATIBLEBITMAP
Module: /mnt/sda5/.user/root/src/openwatcom-1.9/rel2/lib386/win/win386.lib(win247)
00047d60       GETPIXEL
Module: /mnt/sda5/.user/root/src/openwatcom-1.9/rel2/lib386/win/win386.lib(win19)
00047d88       BITBLT
Module: /mnt/sda5/.user/root/src/openwatcom-1.9/rel2/lib386/win/clib3r.lib(mapa2f.c)
00047db0       MapAliasToFlat_
Module: /mnt/sda5/.user/root/src/openwatcom-1.9/rel2/lib386/win/clib3r.lib(enumff.c)
00047e40       _COVER_ENUMFONTFAMILIES
Module: /mnt/sda5/.user/root/src/openwatcom-1.9/rel2/lib386/win/clib3r.lib(_istrcmp.asm)
00047e6c       strcmpi_
Module: /mnt/sda5/.user/root/src/openwatcom-1.9/rel2/lib386/win/win386.lib(win207)
00047e72       GETFOCUS
Module: /mnt/sda5/.user/root/src/openwatcom-1.9/rel2/lib386/win/win386.lib(win309)
00047e8e       GETWINFLAGS
Module: /mnt/sda5/.user/root/src/openwatcom-1.9/rel2/lib386/win/win386.lib(win209)
00047ea8       GETFREESPACE
Module: /mnt/sda5/.user/root/src/openwatcom-1.9/rel2/lib386/win/win386.lib(win1203)
00047ec8       SYSTEMHEAPINFO
Module: /mnt/sda5/.user/root/src/openwatcom-1.9/rel2/lib386/win/clib3r.lib(vsprintf.c)
00047f20       vsprintf_
Module: /mnt/sda5/.user/root/src/openwatcom-1.9/rel2/lib386/win/clib3r.lib(vfprintf.c)
00047f40       vfprintf_
Module: /mnt/sda5/.user/root/src/openwatcom-1.9/rel2/lib386/win/clib3r.lib(intd386.c)
00047f50       intdos_
Module: /mnt/sda5/.user/root/src/openwatcom-1.9/rel2/lib386/win/win386.lib(win232)
00047f5c       GETMODULEFILENAME
Module: /mnt/sda5/.user/root/src/openwatcom-1.9/rel2/lib386/win/clib3r.lib(opendos.c)
00047f80       _dos_open_
Module: /mnt/sda5/.user/root/src/openwatcom-1.9/rel2/lib386/win/clib3r.lib(filedos.c)
00047fa0       _dos_close_
00047fc0       _dos_commit_
Module: /mnt/sda5/.user/root/src/openwatcom-1.9/rel2/lib386/win/win386.lib(win213)
00047fd4       GETINSTANCEDATA
Module: /mnt/sda5/.user/root/src/openwatcom-1.9/rel2/lib386/win/clib3r.lib(indir.c)
00048000       GetIndirectFunctionHandle_
000480c0*      InvokeIndirectFunction_
00048290*      FreeIndirectFunctionHandle_
Module: /mnt/sda5/.user/root/src/openwatcom-1.9/rel2/lib386/win/win386.lib(win1333)
00048296       MAPDIALOGRECT
Module: /mnt/sda5/.user/root/src/openwatcom-1.9/rel2/lib386/win/win386.lib(win563)
000482b4       UNREGISTERCLASS
Module: /mnt/sda5/.user/root/src/openwatcom-1.9/rel2/lib386/win/win386.lib(win281)
000482d4       GETTEXTEXTENTPOINT
Module: /mnt/sda5/.user/root/src/openwatcom-1.9/rel2/lib386/win/win386.lib(win307)
000482f4       GETWINDOWTEXTLENGTH
Module: /mnt/sda5/.user/root/src/openwatcom-1.9/rel2/lib386/win/win386.lib(win197)
00048316       GETDLGCTRLID
Module: /mnt/sda5/.user/root/src/openwatcom-1.9/rel2/lib386/win/clib3r.lib(mbisdbcs.c)
0005a144       ___IsDBCS
Module: /mnt/sda5/.user/root/src/openwatcom-1.9/rel2/lib386/win/win386.lib(win569)
00048340       WINHELP
Module: /mnt/sda5/.user/root/src/openwatcom-1.9/rel2/lib386/win/win386.lib(win116)
00048360       ENABLEWINDOW
Module: /mnt/sda5/.user/root/src/openwatcom-1.9/rel2/lib386/win/clib3r.lib(sscanf.c)
000483d0+      vsscanf_
00048400       sscanf_
Module: /mnt/sda5/.user/root/src/openwatcom-1.9/rel2/lib386/win/win386.lib(win1356)
00048424       SETDLGITEMINT
Module: /mnt/sda5/.user/root/src/openwatcom-1.9/rel2/lib386/win/win386.lib(win199)
00048450       GETDLGITEMINT
Module: /mnt/sda5/.user/root/src/openwatcom-1.9/rel2/lib386/win/win386.lib(win1297)
00048470       CHECKRADIOBUTTON
Module: /mnt/sda5/.user/root/src/openwatcom-1.9/rel2/lib386/win/clib3r.lib(fltused.c)
00054904       _fltused_
Module: /mnt/sda5/.user/root/src/openwatcom-1.9/rel2/lib386/win/clib3r.lib(_8087)
00054908       __8087
00054909       __real87
Module: /mnt/sda5/.user/root/src/openwatcom-1.9/rel2/lib386/win/clib3r.lib(thnfyreg.c)
000484a0       _COVER_NOTIFYREGISTER
Module: /mnt/sda5/.user/root/src/openwatcom-1.9/rel2/lib386/win/win386.lib(win568)
000484ca       WINEXEC
Module: /mnt/sda5/.user/root/src/openwatcom-1.9/rel2/lib386/win/win386.lib(win233)
000484f6       GETMODULEHANDLE
Module: /mnt/sda5/.user/root/src/openwatcom-1.9/rel2/lib386/win/win386.lib(win1379)
00048516       YIELD
Module: /mnt/sda5/.user/root/src/openwatcom-1.9/rel2/lib386/win/win386.lib(win1199)
0004853c       NOTIFYUNREGISTER
Module: /mnt/sda5/.user/root/src/openwatcom-1.9/rel2/lib386/win/clib3r.lib(setbits.c)
00048570       __setbits_
Module: /mnt/sda5/.user/root/src/openwatcom-1.9/rel2/lib386/win/clib3r.lib(bits.c)
000485b0       __Bits
Module: /mnt/sda5/.user/root/src/openwatcom-1.9/rel2/lib386/win/clib3r.lib(alphabet.c)
00050698       ___Alphabet
Module: /mnt/sda5/.user/root/src/openwatcom-1.9/rel2/lib386/win/clib3r.lib(nmemneed.c)
000485c0       __nmemneed_
Module: /mnt/sda5/.user/root/src/openwatcom-1.9/rel2/lib386/win/clib3r.lib(mem.c)
000485d0       __MemAllocator
000486a0       __MemFree
Module: /mnt/sda5/.user/root/src/openwatcom-1.9/rel2/lib386/win/clib3r.lib(grownear.c)
00048940       __ExpandDGROUP_
Module: /mnt/sda5/.user/root/src/openwatcom-1.9/rel2/lib386/win/clib3r.lib(__stos)
00048960       __STOSB
00048997*      __STOSD
Module: /mnt/sda5/.user/root/src/openwatcom-1.9/rel2/lib386/win/clib3r.lib(nexpand.c)
00048a10       _nexpand_
00048a10*      _expand_
00048a50+      __HeapManager_expand_
Module: /mnt/sda5/.user/root/src/openwatcom-1.9/rel2/lib386/win/clib3r.lib(environ.c)
0005a148       ___env_mask
0005a14c       _environ
0005a150       __wenviron
Module: /mnt/sda5/.user/root/src/openwatcom-1.9/rel2/lib386/win/clib3r.lib(mbterm.c)
00048c00       _mbterm_
Module: /mnt/sda5/.user/root/src/openwatcom-1.9/rel2/lib386/win/clib3r.lib(mbsnextc.c)
00048c40       _mbsnextc_
Module: /mnt/sda5/.user/root/src/openwatcom-1.9/rel2/lib386/win/clib3r.lib(mbcupper.c)
00048c80       _mbctoupper_
Module: /mnt/sda5/.user/root/src/openwatcom-1.9/rel2/lib386/win/clib3r.lib(mbsinc.c)
00048ca0       _mbsinc_
Module: /mnt/sda5/.user/root/src/openwatcom-1.9/rel2/lib386/win/clib3r.lib(mbslen.c)
00048cd0       _mbslen_
Module: /mnt/sda5/.user/root/src/openwatcom-1.9/rel2/lib386/win/clib3r.lib(mbstowcs.c)
00048d00       mbstowcs_
Module: /mnt/sda5/.user/root/src/openwatcom-1.9/rel2/lib386/win/clib3r.lib(usetenv.c)
00048d80*      _wsetenv_
00048fb0       __wsetenv_
Module: /mnt/sda5/.user/root/src/openwatcom-1.9/rel2/lib386/win/clib3r.lib(seterrno.c)
0004912b       __set_errno_
00049137*      __set_EDOM_
00049143       __set_ERANGE_
0004914f*      __set_EINVAL_
00049160       __set_doserrno_
Module: /mnt/sda5/.user/root/src/openwatcom-1.9/rel2/lib386/win/clib3r.lib(initargv.c)
00049170       __Init_Argv_
000491c0+      _getargv_
00049360       __Fini_Argv_
Module: /mnt/sda5/.user/root/src/openwatcom-1.9/rel2/lib386/win/clib3r.lib(ljmphdl.c)
0005490c       ___longjmp_handler
Module: /mnt/sda5/.user/root/src/openwatcom-1.9/rel2/lib386/win/clib3r.lib(comtflag.c)
00049380*      __set_commode_
00054910       __commode
Module: /mnt/sda5/.user/root/src/openwatcom-1.9/rel2/lib386/win/clib3r.lib(chktty.c)
00049390       __chktty_
Module: /mnt/sda5/.user/root/src/openwatcom-1.9/rel2/lib386/win/clib3r.lib(freefp.c)
000493d0       __freefp_
00049410       __purgefp_
Module: /mnt/sda5/.user/root/src/openwatcom-1.9/rel2/lib386/win/clib3r.lib(allocfp.c)
00049440       __allocfp_
Module: /mnt/sda5/.user/root/src/openwatcom-1.9/rel2/lib386/win/clib3r.lib(winrtns.c)
00054914       __WindowsIsWindowedHandle
00054918       __WindowsRemoveWindowedHandle
0005491c       __WindowsNewWindow
00054920       __WindowsCloseWindow
00054924*      __WindowsSetAbout
00054928*      __WindowsSetAppTitle
0005492c*      __WindowsSetConTitle
00054930*      __WindowsDestroyOnClose
00054934*      __WindowsYieldControl
00054938*      __WindowsShutDown
0005493c       __WindowsStdin
00054940       __WindowsStdout
00054944*      __WindowsKbhit
00054948*      __WindowsGetch
0005494c       __WindowsGetche
00054950*      __WindowsPutch
00054954       __WindowsExitRtn
Module: /mnt/sda5/.user/root/src/openwatcom-1.9/rel2/lib386/win/clib3r.lib(fgetc.c)
00049500       __fill_buffer_
00049600       fgetc_
Module: /mnt/sda5/.user/root/src/openwatcom-1.9/rel2/lib386/win/clib3r.lib(__lseek.c)
000496a0       __lseek_
Module: /mnt/sda5/.user/root/src/openwatcom-1.9/rel2/lib386/win/clib3r.lib(_clse.c)
000496f0       __close_
Module: /mnt/sda5/.user/root/src/openwatcom-1.9/rel2/lib386/win/clib3r.lib(flush.c)
00049770       __flush_
Module: /mnt/sda5/.user/root/src/openwatcom-1.9/rel2/lib386/win/win386.lib(win300)
0004987e       GETWINDOWLONG
Module: /mnt/sda5/.user/root/src/openwatcom-1.9/rel2/lib386/win/win386.lib(win527)
000498a2       SETWINDOWLONG
Module: /mnt/sda5/.user/root/src/openwatcom-1.9/rel2/lib386/win/clib3r.lib(mbsnccnt.c)
000498d0       _mbsnccnt_
Module: /mnt/sda5/.user/root/src/openwatcom-1.9/rel2/lib386/win/clib3r.lib(mbsncpy.c)
00049900       _mbsncpy_
Module: /mnt/sda5/.user/root/src/openwatcom-1.9/rel2/lib386/win/clib3r.lib(mbsnbcnt.c)
00049920       _mbsnbcnt_
Module: /mnt/sda5/.user/root/src/openwatcom-1.9/rel2/lib386/win/clib3r.lib(mbconv.c)
00049990       _mbvtop_
Module: /mnt/sda5/.user/root/src/openwatcom-1.9/rel2/lib386/win/clib3r.lib(mbclen.c)
000499b0       _mbclen_
Module: /mnt/sda5/.user/root/src/openwatcom-1.9/rel2/lib386/win/clib3r.lib(mbsdec.c)
000499e0       _mbsdec_
Module: /mnt/sda5/.user/root/src/openwatcom-1.9/rel2/lib386/win/clib3r.lib(dosret.c)
00049a60*      _dosretax_
00049a70*      _dosret0_
00049a80       __set_errno_dos_
00049b00*      __set_errno_dos_reterr_
Module: /mnt/sda5/.user/root/src/openwatcom-1.9/rel2/lib386/win/clib3r.lib(strdup.c)
00049b10       __clib_strdup_
Module: /mnt/sda5/.user/root/src/openwatcom-1.9/rel2/lib386/win/clib3r.lib(gfattdos.c)
00049b50       _dos_getfileattr_
Module: /mnt/sda5/.user/root/src/openwatcom-1.9/rel2/lib386/win/clib3r.lib(initrtns.c)
00049b80       __InitRtns
00049bd0       __FiniRtns
Module: /mnt/sda5/.user/root/src/openwatcom-1.9/rel2/lib386/win/win386.lib(win286)
00049c24       GETTICKCOUNT
Module: /mnt/sda5/.user/root/src/openwatcom-1.9/rel2/lib386/win/clib3r.lib(iomode.c)
00049c40       __GetIOMode_
00049c60       __SetIOMode_nogrow_
0005496c       ___NFiles
00054970       ___init_mode
000549c0       ___io_mode
Module: /mnt/sda5/.user/root/src/openwatcom-1.9/rel2/lib386/win/clib3r.lib(umaskval.c)
000549c4       ___umaskval
Module: /mnt/sda5/.user/root/src/openwatcom-1.9/rel2/lib386/win/clib3r.lib(creatdos.c)
00049c80       _dos_creat_
00049ca0*      _dos_creatnew_
Module: /mnt/sda5/.user/root/src/openwatcom-1.9/rel2/lib386/win/clib3r.lib(stiomode.c)
00049cc0+      __grow_iomode_
00049d80+      __shrink_iomode_
00049db0       __SetIOMode_
Module: /mnt/sda5/.user/root/src/openwatcom-1.9/rel2/lib386/win/clib3r.lib(unlnk.c)
00049e20       unlink_
Module: /mnt/sda5/.user/root/src/openwatcom-1.9/rel2/lib386/win/clib3r.lib(doserror)
00049e3c       __doserror_
Module: /mnt/sda5/.user/root/src/openwatcom-1.9/rel2/lib386/win/clib3r.lib(fprtf.c)
00049e70       __fprtf_
Module: /mnt/sda5/.user/root/src/openwatcom-1.9/rel2/lib386/win/clib3r.lib(gtctm.c)
00049f20       __getctime_
Module: /mnt/sda5/.user/root/src/openwatcom-1.9/rel2/lib386/win/clib3r.lib(mktime.c)
00049ff0       mktime_
Module: /mnt/sda5/.user/root/src/openwatcom-1.9/rel2/lib386/win/clib3r.lib(tzset.c)
000549c8       ___start_dst
000549ec       ___end_dst
00054b14       _tzname
00054b1c       _timezone
00054b20       _daylight
00054b24       ___dst_adjust
0004a0d0*      __DontCacheOSTZ_
0004a0e0*      __CacheOSTZ_
0004a5c0+      __parse_tz_
0004a7f0       tzset_
Module: /mnt/sda5/.user/root/src/openwatcom-1.9/rel2/lib386/win/clib3r.lib(gmtime.c)
0004a860       __brktime_
0004a970+      _gmtime_
0004a990*      gmtime_
Module: /mnt/sda5/.user/root/src/openwatcom-1.9/rel2/lib386/win/clib3r.lib(timeutil.c)
0004aae0       __isindst_
Module: /mnt/sda5/.user/root/src/openwatcom-1.9/rel2/lib386/win/clib3r.lib(leapyear.c)
0004ae10       __leapyear_
000506c0       ___diyr
000506da       ___dilyr
Module: /mnt/sda5/.user/root/src/openwatcom-1.9/rel2/lib386/win/clib3r.lib(xmsgwin.c)
0004ae60+      __exit_with_msg_
0004aec0       __fatal_runtime_error_
Module: /mnt/sda5/.user/root/src/openwatcom-1.9/rel2/lib386/win/clib3r.lib(wincb32.asm)
0004aee0       __32BitCallBack
Module: /mnt/sda5/.user/root/src/openwatcom-1.9/rel2/lib386/win/clib3r.lib(getp16.c)
0004af60       GetProc16_
Module: /mnt/sda5/.user/root/src/openwatcom-1.9/rel2/lib386/win/clib3r.lib(strlen.c)
0004b130       strlen_
Module: /mnt/sda5/.user/root/src/openwatcom-1.9/rel2/lib386/win/clib3r.lib(strcat.c)
0004b150       strcat_
Module: /mnt/sda5/.user/root/src/openwatcom-1.9/rel2/lib386/win/clib3r.lib(iomodtty.c)
0004b180       __ChkTTYIOMode_
0004b1c0*      __IOMode_
Module: /mnt/sda5/.user/root/src/openwatcom-1.9/rel2/lib386/win/win386.lib(win581)
0004b1d2       _LREAD
Module: /mnt/sda5/.user/root/src/openwatcom-1.9/rel2/lib386/win/clib3r.lib(ioalloc.c)
0004b200       __ioalloc_
Module: /mnt/sda5/.user/root/src/openwatcom-1.9/rel2/lib386/win/clib3r.lib(initfile.c)
0004b2d0       __InitFiles_
Module: /mnt/sda5/.user/root/src/openwatcom-1.9/rel2/lib386/win/clib3r.lib(ioexit.c)
0004b3d0*      fcloseall_
0004b3e0       __full_io_exit_
Module: /mnt/sda5/.user/root/src/openwatcom-1.9/rel2/lib386/win/win386.lib(win582)
0004b3ec       _LWRITE
Module: /mnt/sda5/.user/root/src/openwatcom-1.9/rel2/lib386/win/clib3r.lib(qread.c)
0004b480       __qread_
Module: /mnt/sda5/.user/root/src/openwatcom-1.9/rel2/lib386/win/clib3r.lib(tryalias.c)
0004b4e0       TryAlias_
Module: /mnt/sda5/.user/root/src/openwatcom-1.9/rel2/lib386/win/win386.lib(win463)
0004b6d6       SENDMESSAGE
Module: /mnt/sda5/.user/root/src/openwatcom-1.9/rel2/lib386/win/clib3r.lib(alloc16.c)
0004b710       AllocAlias16_
0004b740       FreeAlias16_
Module: /mnt/sda5/.user/root/src/openwatcom-1.9/rel2/lib386/win/win386.lib(win99)
0004b756       DIALOGBOXPARAM
Module: /mnt/sda5/.user/root/src/openwatcom-1.9/rel2/lib386/win/clib3r.lib(qwrit.c)
0004b7f0       __qwrite_
Module: /mnt/sda5/.user/root/src/openwatcom-1.9/rel2/lib386/win/clib3r.lib(sfattdos.c)
0004b8a0       _dos_setfileattr_
Module: /mnt/sda5/.user/root/src/openwatcom-1.9/rel2/lib386/win/win386.lib(win533)
0004b8b6       SETWINDOWSHOOKEX
Module: /mnt/sda5/.user/root/src/openwatcom-1.9/rel2/lib386/win/win386.lib(fldenv.asm)
00054b2c       __FLDENV
00054b30       __FSTENV
0004b8e4       _FLOATINGPOINT
Module: /mnt/sda5/.user/root/src/openwatcom-1.9/rel2/lib386/win/clib3r.lib(dosseg)
00001234       __DOSseg__
Module: /mnt/sda5/.user/root/src/openwatcom-1.9/rel2/lib386/win/clib3r.lib(wep.c)
0004b940       WEP
Module: /mnt/sda5/.user/root/src/openwatcom-1.9/rel2/lib386/win/win386.lib(win441)
0004b94c       REGISTERCLASS
Module: /mnt/sda5/.user/root/src/openwatcom-1.9/rel2/lib386/win/win386.lib(win514)
0004b97c       SETTIMER
Module: /mnt/sda5/.user/root/src/openwatcom-1.9/rel2/lib386/win/win386.lib(win121)
0004b9aa       ENUMCHILDWINDOWS
Module: /mnt/sda5/.user/root/src/openwatcom-1.9/rel2/lib386/win/win386.lib(win866)
0004b9d4       CHOOSECOLOR
Module: /mnt/sda5/.user/root/src/openwatcom-1.9/rel2/lib386/win/win386.lib(win867)
0004ba0c       CHOOSEFONT
Module: /mnt/sda5/.user/root/src/openwatcom-1.9/rel2/lib386/win/win386.lib(win1425)
0004ba4c       _CLIB_DELAY
Module: /mnt/sda5/.user/root/src/openwatcom-1.9/rel2/lib386/win/win386.lib(win461)
0004ba6c       SENDDLGITEMMESSAGE
Module: /mnt/sda5/.user/root/src/openwatcom-1.9/rel2/lib386/win/win386.lib(win870)
0004ba9c       GETOPENFILENAME
Module: /mnt/sda5/.user/root/src/openwatcom-1.9/rel2/lib386/win/win386.lib(win871)
0004bafa       GETSAVEFILENAME
Module: /mnt/sda5/.user/root/src/openwatcom-1.9/rel2/lib386/win/win386.lib(win96)
0004bb58       DIALOGBOX
Module: /mnt/sda5/.user/root/src/openwatcom-1.9/rel2/lib386/win/win386.lib(win844)
0004bb78       DDEINITIALIZE
Module: /mnt/sda5/.user/root/src/openwatcom-1.9/rel2/lib386/win/win386.lib(win857)
0004bbb4       _16DDECLIENTTRANSACTION
Module: /mnt/sda5/.user/root/src/openwatcom-1.9/rel2/lib386/win/clib3r.lib(mbschr.c)
0004bc00       _mbschr_
Module: /mnt/sda5/.user/root/src/openwatcom-1.9/rel2/lib386/win/clib3r.lib(mbscmp.c)
0004bc70       _mbscmp_
Module: /mnt/sda5/.user/root/src/openwatcom-1.9/rel2/lib386/win/clib3r.lib(mbspbrk.c)
0004bce0       _mbspbrk_
Module: /mnt/sda5/.user/root/src/openwatcom-1.9/rel2/lib386/win/clib3r.lib(fstat.c)
0004bd30       fstat_
Module: /mnt/sda5/.user/root/src/openwatcom-1.9/rel2/lib386/win/clib3r.lib(d2ttime.c)
0004be50       _d2ttime_
Module: /mnt/sda5/.user/root/src/openwatcom-1.9/rel2/lib386/win/win386.lib(win50)
0004bec6       CREATEDIALOG
Module: /mnt/sda5/.user/root/src/openwatcom-1.9/rel2/lib386/win/clib3r.lib(intxw32.c)
0004bef0       int86_
0004bf00*      int86x_
0004bf10       intr_
Module: /mnt/sda5/.user/root/src/openwatcom-1.9/rel2/lib386/win/win386.lib(win123)
0004bf1c       ENUMFONTFAMILIES
Module: /mnt/sda5/.user/root/src/openwatcom-1.9/rel2/lib386/win/clib3r.lib(prtf.c)
0004bf40       __prtf_
Module: /mnt/sda5/.user/root/src/openwatcom-1.9/rel2/lib386/win/win386.lib(win826)
0004cd82       _CLIB_INTDOS
Module: /mnt/sda5/.user/root/src/openwatcom-1.9/rel2/lib386/win/clib3r.lib(inv16bf.asm)
0004cda2       Invoke16BitFunction_
Module: /mnt/sda5/.user/root/src/openwatcom-1.9/rel2/lib386/win/clib3r.lib(scnf.c)
0004dae0       __scnf_
Module: /mnt/sda5/.user/root/src/openwatcom-1.9/rel2/lib386/win/clib3r.lib(setefg.c)
0004dd50       __setEFGfmt_
Module: /mnt/sda5/.user/root/src/openwatcom-1.9/rel2/lib386/win/clib3r.lib(chk8087.c)
0004dd90*      _fpreset_
0004ddb0+      __init_8087_
0004ddf0       __chk8087_
Module: /mnt/sda5/.user/root/src/openwatcom-1.9/rel2/lib386/win/win386.lib(win1198)
0004de6c       NOTIFYREGISTER
Module: /mnt/sda5/.user/root/src/openwatcom-1.9/rel2/lib386/win/clib3r.lib(amblksiz.c)
00054b34       __amblksiz
Module: /mnt/sda5/.user/root/src/openwatcom-1.9/rel2/lib386/win/clib3r.lib(heapen.c)
0004deb0*      _heapenable_
00054b38       ___heap_enabled
Module: /mnt/sda5/.user/root/src/openwatcom-1.9/rel2/lib386/win/win386.lib(win811)
0004dec0       DPMIALLOC
Module: /mnt/sda5/.user/root/src/openwatcom-1.9/rel2/lib386/win/clib3r.lib(nheapmin.c)
0004dee0       _nheapshrink_
0004dee0*      _nheapmin_
0004dee0*      _heapmin_
0004dee0*      _heapshrink_
Module: /mnt/sda5/.user/root/src/openwatcom-1.9/rel2/lib386/win/clib3r.lib(setenvp.c)
0004dfd0       __setenvp_
0004e0c0       __freeenvp_
Module: /mnt/sda5/.user/root/src/openwatcom-1.9/rel2/lib386/win/clib3r.lib(mbislead.c)
0004e110*      _ismbblead_
0005a184       ___MBCSIsTable
Module: /mnt/sda5/.user/root/src/openwatcom-1.9/rel2/lib386/win/clib3r.lib(mbinit.c)
0004e161       __mbinit_
00054b3c       ___MBCodePage
Module: /mnt/sda5/.user/root/src/openwatcom-1.9/rel2/lib386/win/clib3r.lib(mbdtoupp.c)
0004e230       _mbdtoupper_
Module: /mnt/sda5/.user/root/src/openwatcom-1.9/rel2/lib386/win/clib3r.lib(mbtowc.c)
0004e250       mbtowc_
Module: /mnt/sda5/.user/root/src/openwatcom-1.9/rel2/lib386/win/clib3r.lib(crtwenv.c)
0004e310       __create_wide_environment_
Module: /mnt/sda5/.user/root/src/openwatcom-1.9/rel2/lib386/win/clib3r.lib(ugetenv.c)
0004e380       _wgetenv_
Module: /mnt/sda5/.user/root/src/openwatcom-1.9/rel2/lib386/win/clib3r.lib(ustrlen.c)
0004e3fa       wcslen_
Module: /mnt/sda5/.user/root/src/openwatcom-1.9/rel2/lib386/win/clib3r.lib(wcstombs.c)
0004e410       wcstombs_
Module: /mnt/sda5/.user/root/src/openwatcom-1.9/rel2/lib386/win/clib3r.lib(utoupper.c)
0004e4af       towupper_
Module: /mnt/sda5/.user/root/src/openwatcom-1.9/rel2/lib386/win/clib3r.lib(memcpy.c)
0004e4c0       memcpy_
Module: /mnt/sda5/.user/root/src/openwatcom-1.9/rel2/lib386/win/clib3r.lib(ustrcpy.c)
0004e4df       wcscpy_
Module: /mnt/sda5/.user/root/src/openwatcom-1.9/rel2/lib386/win/clib3r.lib(histsplt.c)
0005a288       ___historical_splitparms
Module: /mnt/sda5/.user/root/src/openwatcom-1.9/rel2/lib386/win/clib3r.lib(___argc.c)
0005a28c       ____Argc
0005a290       ____Argv
Module: /mnt/sda5/.user/root/src/openwatcom-1.9/rel2/lib386/win/clib3r.lib(flushall.c)
0004e500       __flushall_
0004e540*      flushall_
Module: /mnt/sda5/.user/root/src/openwatcom-1.9/rel2/lib386/win/clib3r.lib(gtche.c)
0004e550       getche_
Module: /mnt/sda5/.user/root/src/openwatcom-1.9/rel2/lib386/win/clib3r.lib(fsync.c)
0004e580       fsync_
Module: /mnt/sda5/.user/root/src/openwatcom-1.9/rel2/lib386/win/clib3r.lib(mbsnbcpy.c)
0004e590       _mbsnbcpy_
Module: /mnt/sda5/.user/root/src/openwatcom-1.9/rel2/lib386/win/clib3r.lib(sgdef086)
00054c04       __Start_XI
00054c34       __End_XI
00054c34       __Start_YI
00054c4c       __End_YI
Module: /mnt/sda5/.user/root/src/openwatcom-1.9/rel2/lib386/win/clib3r.lib(locmktim.c)
0004e5f0       __local_mktime_
Module: /mnt/sda5/.user/root/src/openwatcom-1.9/rel2/lib386/win/clib3r.lib(enterdb.c)
0004e720       __EnterWVIDEO_
00054b40+      ___WD_Present
Module: /mnt/sda5/.user/root/src/openwatcom-1.9/rel2/lib386/win/clib3r.lib(udpdat.c)
0005a294       _UserProcs
Module: /mnt/sda5/.user/root/src/openwatcom-1.9/rel2/lib386/win/win386.lib(win809)
0004e750       DPMIGETALIAS
Module: /mnt/sda5/.user/root/src/openwatcom-1.9/rel2/lib386/win/win386.lib(win1424)
0004e770       DPMIFREEALIAS
Module: /mnt/sda5/.user/root/src/openwatcom-1.9/rel2/lib386/win/clib3r.lib(mbccmp.c)
0004e790       _mbccmp_
Module: /mnt/sda5/.user/root/src/openwatcom-1.9/rel2/lib386/win/clib3r.lib(filelen.c)
0004e7d0       filelength_
Module: /mnt/sda5/.user/root/src/openwatcom-1.9/rel2/lib386/win/win386.lib(win824)
0004e814       _CLIB_INT86
Module: /mnt/sda5/.user/root/src/openwatcom-1.9/rel2/lib386/win/win386.lib(win825)
0004e834       _CLIB_INT86X
Module: /mnt/sda5/.user/root/src/openwatcom-1.9/rel2/lib386/win/win386.lib(win1426)
0004e854       _CLIB_INTR
Module: /mnt/sda5/.user/root/src/openwatcom-1.9/rel2/lib386/win/clib3r.lib(wctomb.c)
0004e880       wctomb_
Module: /mnt/sda5/.user/root/src/openwatcom-1.9/rel2/lib386/win/clib3r.lib(noefgfmt.c)
00054b44       ___EFG_printf
00054b48       ___EFG_scanf
Module: /mnt/sda5/.user/root/src/openwatcom-1.9/rel2/lib386/win/clib3r.lib(lltoa.c)
0004e900       ulltoa_
0004e970*      lltoa_
Module: /mnt/sda5/.user/root/src/openwatcom-1.9/rel2/lib386/win/clib3r.lib(fdfs386)
0004e99c       __FDFS
Module: /mnt/sda5/.user/root/src/openwatcom-1.9/rel2/lib386/win/clib3r.lib(i8m)
0004e9e8*      __I8M
0004e9e8       __U8M
Module: /mnt/sda5/.user/root/src/openwatcom-1.9/rel2/lib386/math387r.lib(efgfmt.c)
0004ea04       _EFG_Format_
Module: /mnt/sda5/.user/root/src/openwatcom-1.9/rel2/lib386/math387r.lib(cnvs2d.c)
0004eb6e       __cnvs2d_
Module: /mnt/sda5/.user/root/src/openwatcom-1.9/rel2/lib386/win/clib3r.lib(8087cw.c)
00054b4c       __8087cw
Module: /mnt/sda5/.user/root/src/openwatcom-1.9/rel2/lib386/win/clib3r.lib(save8087.c)
00054b50       ___Save8087
00054b54       ___Rest8087
Module: /mnt/sda5/.user/root/src/openwatcom-1.9/rel2/lib386/win/clib3r.lib(init8087)
0004eb84       __x87id
Module: /mnt/sda5/.user/root/src/openwatcom-1.9/rel2/lib386/win/win386.lib(win812)
0004ebb8       DPMIFREE
Module: /mnt/sda5/.user/root/src/openwatcom-1.9/rel2/lib386/win/win386.lib(win201)
0004ebda       GETDOSENVIRONMENT
Module: /mnt/sda5/.user/root/src/openwatcom-1.9/rel2/lib386/win/clib3r.lib(clearenv.c)
0004ec00       clearenv_
Module: /mnt/sda5/.user/root/src/openwatcom-1.9/rel2/lib386/win/win386.lib(win352)
0004ec90       ISDBCSLEADBYTE
Module: /mnt/sda5/.user/root/src/openwatcom-1.9/rel2/lib386/win/win386.lib(win214)
0004ecb2       GETKBCODEPAGE
Module: /mnt/sda5/.user/root/src/openwatcom-1.9/rel2/lib386/win/clib3r.lib(uputenv.c)
0004ecd0*      _wputenv_
0004ee30       __wputenv_
Module: /mnt/sda5/.user/root/src/openwatcom-1.9/rel2/lib386/win/clib3r.lib(ustrnicm.c)
0004ef30       _wcsnicmp_
Module: /mnt/sda5/.user/root/src/openwatcom-1.9/rel2/lib386/win/clib3r.lib(rtcntrl.c)
0004ef90*      _SetLD64bit_
0004efa0*      _SetLD80bit_
0004efb0       _LDisDouble_
Module: /mnt/sda5/.user/root/src/openwatcom-1.9/rel2/lib386/math387r.lib(ldcvt.c)
0004f09f       _LDScale10x_
0004f646       __LDcvt_
Module: /mnt/sda5/.user/root/src/openwatcom-1.9/rel2/lib386/math387r.lib(strtod.c)
0004ffa7+      __Strtold_
0005010e       strtod_
Module: /mnt/sda5/.user/root/src/openwatcom-1.9/rel2/lib386/win/clib3r.lib(putenv.c)
00050260*      putenv_
000503f0       __putenv_
Module: /mnt/sda5/.user/root/src/openwatcom-1.9/rel2/lib386/math387r.lib(ldclass.c)
0005055e       __LDClass_
000505ae*      _FLClass_
Module: /mnt/sda5/.user/root/src/openwatcom-1.9/rel2/lib386/math387r.lib(bufld386)
000505c0       __ZBuf2LD
Module: /mnt/sda5/.user/root/src/openwatcom-1.9/rel2/lib386/math387r.lib(inf_nan.c)
00050663*      ___f_infinity
00050667*      ___f_posqnan
0005066b       ___d_infinity
00050673       ___d_posqnan
0005067b*      ___ld_infinity
00050683*      ___ld_posqnan
Module: /mnt/sda5/.user/root/src/openwatcom-1.9/rel2/lib386/win/clib3r.lib(hugeval.c)
00050690       __HugeValue


                        +--------------------+
                        |   Libraries Used   |
                        +--------------------+

/mnt/sda5/.user/root/src/openwatcom-1.9/rel2/lib386/win/win386.lib
/mnt/sda5/.user/root/src/openwatcom-1.9/rel2/lib386/win/clib3r.lib
/mnt/sda5/.user/root/src/openwatcom-1.9/rel2/lib386/math387r.lib


                        +-----------------------+
                        |   Linker Statistics   |
                        +-----------------------+

Stack size:  a000 (40960.)
Memory size:  00064320 (410400.)
Entry point address: 00045c78
Link time: 00:00.00
