Open Watcom Linker Version 1.9
Portions Copyright (c) 1985-2002 Sybase, Inc. All Rights Reserved.
Created on:       12/12/16 02:21:37
Executable Image: plbr19d.dll
creating a Windows NT character-mode dynamic link library


                        +------------+
                        |   Groups   |
                        +------------+

Group                           Address              Size
=====                           =======              ====

.idata                          6fd2c000             000005c9
DGROUP                          6fd2d000             00006bf0



                        +--------------+
                        |   Segments   |
                        +--------------+

Segment                Class          Group          Address         Size
=======                =====          =====          =======         ====

BEGTEXT                CODE           AUTO           6fd01000        00000007
_TEXT                  CODE           AUTO           6fd01010        0002ac80
TRANSFER CODE          CODE           AUTO           6fd2bc90        00000180
.idata                 .idata         .idata         6fd2c000        000005c9
_NULL                  BEGDATA        DGROUP         6fd2d000        00000004
_AFTERNULL             BEGDATA        DGROUP         6fd2d004        00000000
CONST                  DATA           DGROUP         6fd2d004        00000b90
CONST2                 DATA           DGROUP         6fd2dba0        00003b18
_DATA                  DATA           DGROUP         6fd316c0        000015e0
XIB                    DATA           DGROUP         6fd32ca0        00000000
XI                     DATA           DGROUP         6fd32ca0        00000054
XIE                    DATA           DGROUP         6fd32cf4        00000000
YIB                    DATA           DGROUP         6fd32cf4        00000000
YI                     DATA           DGROUP         6fd32cf4        0000000c
YIE                    DATA           DGROUP         6fd32d00        00000000
TIB                    DATA           DGROUP         6fd32d00        00000000
TI                     DATA           DGROUP         6fd32d00        00000000
TIE                    DATA           DGROUP         6fd32d00        00000000
DATA                   DATA           DGROUP         6fd32d00        00000000
_BSS                   BSS            DGROUP         6fd33000        00000bec
STACK                  STACK          DGROUP         6fd33bf0        00000000


                        +----------------+
                        |   Memory Map   |
                        +----------------+

* = unreferenced symbol
+ = symbol only referenced locally

Address        Symbol
=======        ======

Module: /mnt/sda5/.user/root/src/openwatcom-1.9/bld/clib/startup/library/winnt.386/mf_rd/clibdwnt.obj(/mnt/sda5/.user/root/src/openwatcom-1.9/bld/clib/startup/c/clibdwnt.c)
6fd01010       _LibMain@12
Module: ../../../clib/winnt.386/mf_rd/clbrdlld.lib(dstrt386)
6fd01030       __DLLstart_
6fd01030*      __DLLstartw_
6fd01030*      _DllMainCRTStartup@12
6fd01030*      _wDllMainCRTStartup@12
Module: /mnt/sda5/.user/root/src/openwatcom-1.9/bld/plusplus/cpplib/winnt.386/mf_rmtd.dll/plbxmt3r.lib(FSHAND)
6fd0108c       ___wcpp_4_fs_handler_
Module: /mnt/sda5/.user/root/src/openwatcom-1.9/bld/plusplus/cpplib/winnt.386/mf_rmtd.dll/plbxmt3r.lib(/mnt/sda5/.user/root/src/openwatcom-1.9/bld/plusplus/cpplib/runtime/cpp/opdel.cpp)
6fd010c8       W?_set_op_delete$n(pn(pnv)v)pn(pnv)v
6fd01117       W?$dln(pnv)v
Module: /mnt/sda5/.user/root/src/openwatcom-1.9/bld/plusplus/cpplib/winnt.386/mf_rmtd.dll/plbxmt3r.lib(/mnt/sda5/.user/root/src/openwatcom-1.9/bld/plusplus/cpplib/runtime/cpp/opdelarr.cpp)
6fd0116c       W?_set_op_delete_array$n(pn(pnv)v)pn(pnv)v
6fd011bb       W?$dan(pnv)v
Module: /mnt/sda5/.user/root/src/openwatcom-1.9/bld/plusplus/cpplib/winnt.386/mf_rmtd.dll/plbxmt3r.lib(/mnt/sda5/.user/root/src/openwatcom-1.9/bld/plusplus/cpplib/runtime/cpp/opnew.cpp)
6fd01273       W?_set_op_new$n(pn(ui)pnv)pn(ui)pnv
6fd012c2       W?$nwn(ui)pnv
Module: /mnt/sda5/.user/root/src/openwatcom-1.9/bld/plusplus/cpplib/winnt.386/mf_rmtd.dll/plbxmt3r.lib(/mnt/sda5/.user/root/src/openwatcom-1.9/bld/plusplus/cpplib/runtime/cpp/opnewarr.cpp)
6fd01323       W?_set_op_new_array$n(pn(ui)pnv)pn(ui)pnv
6fd01372       W?$nan(ui)pnv
Module: /mnt/sda5/.user/root/src/openwatcom-1.9/bld/plusplus/cpplib/winnt.386/mf_rmtd.dll/plbxmt3r.lib(/mnt/sda5/.user/root/src/openwatcom-1.9/bld/plusplus/cpplib/runtime/cpp/opnewp.cpp)
6fd013a3       W?$nwn(uipnv)pnv
Module: /mnt/sda5/.user/root/src/openwatcom-1.9/bld/plusplus/cpplib/winnt.386/mf_rmtd.dll/plbxmt3r.lib(/mnt/sda5/.user/root/src/openwatcom-1.9/bld/plusplus/cpplib/runtime/cpp/opnewpar.cpp)
6fd013cf       W?$nan(uipnv)pnv
Module: /mnt/sda5/.user/root/src/openwatcom-1.9/bld/plusplus/cpplib/winnt.386/mf_rmtd.dll/plbxmt3r.lib(/mnt/sda5/.user/root/src/openwatcom-1.9/bld/plusplus/cpplib/runtime/cpp/arrassgn.cpp)
6fd013fb       __wcpp_4_assign_array__
Module: /mnt/sda5/.user/root/src/openwatcom-1.9/bld/plusplus/cpplib/winnt.386/mf_rmtd.dll/plbxmt3r.lib(/mnt/sda5/.user/root/src/openwatcom-1.9/bld/plusplus/cpplib/runtime/cpp/cppdata.cpp)
6fd33000       __wint_thread_data_offset
6fd33004       __compiled_under_NT
Module: /mnt/sda5/.user/root/src/openwatcom-1.9/bld/plusplus/cpplib/winnt.386/mf_rmtd.dll/plbxmt3r.lib(/mnt/sda5/.user/root/src/openwatcom-1.9/bld/plusplus/cpplib/runtime/cpp/ctorarst.cpp)
6fd0198e+      W?$ct:_RTDTOR$n()_
6fd01452+      W?$dt:_CTAS$n()_
6fd019c2+      W?$ct:_CTAS$n()_
6fd2dbd0+      W?$Wts09n$_CTAS$$$nx[]uc
6fd01748       __wcpp_4_ctor_array_storage_1m__
6fd017ba       __wcpp_4_ctor_array_storage_1s__
6fd0182c       __wcpp_4_ctor_array_storage_2s__
6fd0189e       __wcpp_4_ctor_array_storage_gm__
6fd01916       __wcpp_4_ctor_array_storage_gs__
6fd316d0+      W?$Wti08$_CTAS$$$n[]uc
Module: /mnt/sda5/.user/root/src/openwatcom-1.9/bld/plusplus/cpplib/winnt.386/mf_rmtd.dll/plbxmt3r.lib(/mnt/sda5/.user/root/src/openwatcom-1.9/bld/plusplus/cpplib/runtime/cpp/dtorarst.cpp)
6fd01a08       __wcpp_4_dtor_array_store__
Module: /mnt/sda5/.user/root/src/openwatcom-1.9/bld/plusplus/cpplib/winnt.386/mf_rmtd.dll/plbxmt3r.lib(/mnt/sda5/.user/root/src/openwatcom-1.9/bld/plusplus/cpplib/runtime/cpp/fsregist.cpp)
6fd01a5c+      W?findHandler$n(pnuc)pnuc
6fd01aa7+      __wcpp_4_dispatch_dummy__
6fd01b10       __wcpp_4_fs_lookup__
6fd01c8a       ___wcpp_4_fs_handler_rtn_
Module: /mnt/sda5/.user/root/src/openwatcom-1.9/bld/plusplus/cpplib/winnt.386/mf_rmtd.dll/plbxmt3r.lib(/mnt/sda5/.user/root/src/openwatcom-1.9/bld/plusplus/cpplib/runtime/cpp/stabfunc.cpp)
6fd01e3c       __wcpp_4_fun_register__
Module: /mnt/sda5/.user/root/src/openwatcom-1.9/bld/plusplus/cpplib/winnt.386/mf_rmtd.dll/plbxmt3r.lib(/mnt/sda5/.user/root/src/openwatcom-1.9/bld/plusplus/cpplib/runtime/cpp/stabreg.cpp)
6fd01e6c       __wcpp_4_base_register__
6fd01ecf       __wcpp_4_base_deregister__
Module: /mnt/sda5/.user/root/src/openwatcom-1.9/bld/plusplus/cpplib/winnt.386/mf_rmtd.dll/plbxmt3r.lib(/mnt/sda5/.user/root/src/openwatcom-1.9/bld/plusplus/cpplib/runtime/cpp/lock.cpp)
6fd01efc       W?$ct:__lock$n()_
6fd01f37       W?$dt:__lock$n()_
6fd01f9a       W?p$:__lock$n()v
6fd01fc7       W?v$:__lock$n()v
6fd01ff4       W?$ct:__fn_lock$n(pn$__lock$$)_
6fd02030       W?$dt:__fn_lock$n()_
6fd32cf4+      W?__wcpp_4_data_fini_sisema_$jl02YI$rt_init$$
Module: /mnt/sda5/.user/root/src/openwatcom-1.9/bld/plusplus/cpplib/winnt.386/mf_rmtd.dll/plbxmt3r.lib(/mnt/sda5/.user/root/src/openwatcom-1.9/bld/plusplus/cpplib/runtime/cpp/pure_err.cpp)
6fd02091       __wcpp_4_pure_error__
Module: /mnt/sda5/.user/root/src/openwatcom-1.9/bld/plusplus/cpplib/winnt.386/mf_rmtd.dll/plbxmt3r.lib(/mnt/sda5/.user/root/src/openwatcom-1.9/bld/plusplus/cpplib/runtime/cpp/rttiptr.cpp)
6fd020d2       __wcpp_4_dcptr__
Module: /mnt/sda5/.user/root/src/openwatcom-1.9/bld/plusplus/cpplib/winnt.386/mf_rmtd.dll/plbxmt3r.lib(/mnt/sda5/.user/root/src/openwatcom-1.9/bld/plusplus/cpplib/runtime/cpp/rttivoid.cpp)
6fd0212f       __wcpp_4_dcvoid__
Module: /mnt/sda5/.user/root/src/openwatcom-1.9/bld/plusplus/cpplib/winnt.386/mf_rmtd.dll/plbxmt3r.lib(/mnt/sda5/.user/root/src/openwatcom-1.9/bld/plusplus/cpplib/runtime/cpp/rttiref.cpp)
6fd0227b       W?$ct:exception$:std$n()_
6fd022e0       W?$ct:exception$:std$n(rnx$0:1$)_
6fd02350       W?$ct:exception$:std$n(pnxa)_
6fd023be       W?$dt:exception$:std$n()_
6fd0247e       W?what$:exception$:std$n.x()pnxa
6fd024db       W?$ct:bad_cast$:std$n()_
6fd0255a       W?$ct:bad_cast$:std$n(rnx$0:1$)_
6fd0259e       W?$dt:bad_cast$:std$n()_
6fd2dc80       W?$Wvf0Io4:exception$:std$$nx[]pn()v
6fd2dc90+      W?$Wvf0Ho4:bad_cast$:std$$nx[]pn()v
6fd2dca0       W?$Wcm012$nx[]uc
6fd2dcb0+      W?$Wth0Jnrn$bad_cast$:std$$$nx[]uc
6fd2dcd0       W?$Wts0In$exception$:std$$$nx[]uc
6fd2dcf0+      W?$Wts0Hn$bad_cast$:std$$$nx[]uc
6fd2dd10+      W?$Wva0Ho0:bad_cast$:std$$nx[]uc
6fd316dd+      W?$Wti0G$bad_cast$:std$$$n[]uc
6fd0267e+      W?.tcctor$:bad_cast$:std$n(rnx$1:2$)rn$1:2$
6fd026b2+      W?.tdtor$:bad_cast$:std$n()pnv
6fd026e6       W?.tdtor$:exception$:std$n()pnv
6fd2dd30       W?$Wva0Io0:exception$:std$$nx[]uc
6fd02219       __wcpp_4_dcref__
6fd316f2       W?$Wti0H$exception$:std$$$n[]uc
Module: /mnt/sda5/.user/root/src/openwatcom-1.9/bld/plusplus/cpplib/winnt.386/mf_rmtd.dll/plbxmt3r.lib(/mnt/sda5/.user/root/src/openwatcom-1.9/bld/plusplus/cpplib/runtime/cpp/rttitid.cpp)
6fd02833       W?$ct:bad_typeid$:std$n()_
6fd028b2       W?$ct:bad_typeid$:std$n(rnx$0:1$)_
6fd028f6       W?$dt:bad_typeid$:std$n()_
6fd2ddd0+      W?$Wvf0Jo4:bad_typeid$:std$$nx[]pn()v
6fd2dde0+      W?$Wth0Lnrn$bad_typeid$:std$$$nx[]uc
6fd2de00+      W?$Wts0Jn$bad_typeid$:std$$$nx[]uc
6fd2de20+      W?$Wva0Jo0:bad_typeid$:std$$nx[]uc
6fd31708+      W?$Wti0I$bad_typeid$:std$$$n[]uc
6fd029d6+      W?.tcctor$:bad_typeid$:std$n(rnx$1:2$)rn$1:2$
6fd02a0a+      W?.tdtor$:bad_typeid$:std$n()pnv
6fd027a7       __wcpp_4_gettid__
Module: /mnt/sda5/.user/root/src/openwatcom-1.9/bld/plusplus/cpplib/winnt.386/mf_rmtd.dll/plbxmt3r.lib(/mnt/sda5/.user/root/src/openwatcom-1.9/bld/plusplus/cpplib/runtime/cpp/setnwhdl.cpp)
6fd02a3e       W?set_new_handler$n(pn()v)pn()v
Module: /mnt/sda5/.user/root/src/openwatcom-1.9/bld/plusplus/cpplib/winnt.386/mf_rmtd.dll/plbxmt3r.lib(/mnt/sda5/.user/root/src/openwatcom-1.9/bld/plusplus/cpplib/runtime/cpp/_stnwhdl.cpp)
6fd02a8d       W?_set_new_handler$n(pn(ui)i)pn(ui)i
Module: /mnt/sda5/.user/root/src/openwatcom-1.9/bld/plusplus/cpplib/winnt.386/mf_rmtd.dll/plbxmt3r.lib(/mnt/sda5/.user/root/src/openwatcom-1.9/bld/plusplus/cpplib/runtime/cpp/settrmnt.cpp)
6fd02ad2       W?set_terminate$:std$n(pn()v)pn()v
Module: /mnt/sda5/.user/root/src/openwatcom-1.9/bld/plusplus/cpplib/winnt.386/mf_rmtd.dll/plbxmt3r.lib(/mnt/sda5/.user/root/src/openwatcom-1.9/bld/plusplus/cpplib/runtime/cpp/setunexp.cpp)
6fd02b21       W?set_unexpected$:std$n(pn()v)pn()v
Module: /mnt/sda5/.user/root/src/openwatcom-1.9/bld/plusplus/cpplib/winnt.386/mf_rmtd.dll/plbxmt3r.lib(/mnt/sda5/.user/root/src/openwatcom-1.9/bld/plusplus/cpplib/runtime/cpp/sisema.cpp)
6fd02b70       __wcpp_4_static_init__
Module: /mnt/sda5/.user/root/src/openwatcom-1.9/bld/plusplus/cpplib/winnt.386/mf_rmtd.dll/plbxmt3r.lib(/mnt/sda5/.user/root/src/openwatcom-1.9/bld/plusplus/cpplib/runtime/cpp/stabacp.cpp)
6fd2de50       W?$Wts0Dn$_RTARCTOR$$$nx[]uc
6fd02bdc       __wcpp_4_copy_array__
6fd3171f       W?$Wti0C$_RTARCTOR$$$n[]uc
Module: /mnt/sda5/.user/root/src/openwatcom-1.9/bld/plusplus/cpplib/winnt.386/mf_rmtd.dll/plbxmt3r.lib(/mnt/sda5/.user/root/src/openwatcom-1.9/bld/plusplus/cpplib/runtime/cpp/stabacpv.cpp)
6fd02d11       __wcpp_4_copy_varray__
Module: /mnt/sda5/.user/root/src/openwatcom-1.9/bld/plusplus/cpplib/winnt.386/mf_rmtd.dll/plbxmt3r.lib(/mnt/sda5/.user/root/src/openwatcom-1.9/bld/plusplus/cpplib/runtime/cpp/stabact.cpp)
6fd02e48       __wcpp_4_ctor_array__
Module: /mnt/sda5/.user/root/src/openwatcom-1.9/bld/plusplus/cpplib/winnt.386/mf_rmtd.dll/plbxmt3r.lib(/mnt/sda5/.user/root/src/openwatcom-1.9/bld/plusplus/cpplib/runtime/cpp/stabactv.cpp)
6fd02f71       __wcpp_4_ctor_varray__
Module: /mnt/sda5/.user/root/src/openwatcom-1.9/bld/plusplus/cpplib/winnt.386/mf_rmtd.dll/plbxmt3r.lib(/mnt/sda5/.user/root/src/openwatcom-1.9/bld/plusplus/cpplib/runtime/cpp/stabadt.cpp)
6fd0309c+      W?dtor_the_array$n(pn$_RTARCTOR$$)pnv
6fd0312e       W?$dt:_RTARCTOR$n()_
6fd03177       W?$ct:_RTARCTOR$n(rnx$0$)_
6fd031eb       __wcpp_4_dtor_array__
Module: /mnt/sda5/.user/root/src/openwatcom-1.9/bld/plusplus/cpplib/winnt.386/mf_rmtd.dll/plbxmt3r.lib(/mnt/sda5/.user/root/src/openwatcom-1.9/bld/plusplus/cpplib/runtime/cpp/stabdtor.cpp)
6fd037c2       __wcpp_4_destruct_internal__
6fd03807       __wcpp_4_destruct_all__
6fd0382d       __wcpp_4_destruct__
6fd03878       __wcpp_4_cmd_active__
Module: /mnt/sda5/.user/root/src/openwatcom-1.9/bld/plusplus/cpplib/winnt.386/mf_rmtd.dll/plbxmt3r.lib(/mnt/sda5/.user/root/src/openwatcom-1.9/bld/plusplus/cpplib/runtime/cpp/stabthrw.cpp)
6fd044fe       W?$ct:bad_exception$:std$n()_
6fd04599       W?$ct:bad_exception$:std$n(rnx$0:1$)_
6fd04609       W?$dt:bad_exception$:std$n()_
6fd2dfa0+      W?$Wvf0Mo4:bad_exception$:std$$nx[]pn()v
6fd2dfb0       W?$Wcm013$nx[]uc
6fd2dfc0+      W?$Wth0Onrn$bad_exception$:std$$$nx[]uc
6fd2dfe0+      W?$Wts0Mn$bad_exception$:std$$$nx[]uc
6fd2e000+      W?$Wts0Hn$_EXC_PR_FNEXC$$$nx[]uc
6fd2e020+      W?$Wts0Gn$_EXC_PR_DTOR$$$nx[]uc
6fd2e040       W?$Wts0Gn$_EXC_PR_FREE$$$nx[]uc
6fd2e060       W?$Wts0Bn$_EXC_PR$$$nx[]uc
6fd2e080+      W?$Wva0Mo0:bad_exception$:std$$nx[]uc
6fd31730       W?$Wti0A$_EXC_PR$$$n[]uc
6fd3173f       W?$Wti0F$_EXC_PR_FREE$$$n[]uc
6fd31753+      W?$Wti0F$_EXC_PR_DTOR$$$n[]uc
6fd31767+      W?$Wti0G$_EXC_PR_FNEXC$$$n[]uc
6fd3177c+      W?$Wti0L$bad_exception$:std$$$n[]uc
6fd04707+      W?.tcctor$:bad_exception$:std$n(rnx$1:2$)rn$1:2$
6fd0473b+      W?.tdtor$:bad_exception$:std$n()pnv
6fd0432e       __wcpp_4_rethrow__
6fd04388       __wcpp_4_catch_done__
6fd0443b       __wcpp_4_throw__
6fd0449b       __wcpp_4_throw_zero__
Module: /mnt/sda5/.user/root/src/openwatcom-1.9/bld/plusplus/cpplib/winnt.386/mf_rmtd.dll/plbxmt3r.lib(/mnt/sda5/.user/root/src/openwatcom-1.9/bld/plusplus/cpplib/runtime/cpp/termnate.cpp)
6fd0476f       W?terminate$:std$n()v
Module: /mnt/sda5/.user/root/src/openwatcom-1.9/bld/plusplus/cpplib/winnt.386/mf_rmtd.dll/plbxmt3r.lib(/mnt/sda5/.user/root/src/openwatcom-1.9/bld/plusplus/cpplib/runtime/cpp/ti_bfor.cpp)
6fd047ea       W?before$:type_info$:std$n.x(rnx$1:2$)q
Module: /mnt/sda5/.user/root/src/openwatcom-1.9/bld/plusplus/cpplib/winnt.386/mf_rmtd.dll/plbxmt3r.lib(/mnt/sda5/.user/root/src/openwatcom-1.9/bld/plusplus/cpplib/runtime/cpp/ti_dtor.cpp)
6fd04844       W?$dt:type_info$:std$n()_
Module: /mnt/sda5/.user/root/src/openwatcom-1.9/bld/plusplus/cpplib/winnt.386/mf_rmtd.dll/plbxmt3r.lib(/mnt/sda5/.user/root/src/openwatcom-1.9/bld/plusplus/cpplib/runtime/cpp/ti_name.cpp)
6fd2e0c0       W?$Wts0An$__lock$$$nx[]uc
6fd2e0e0+      W?$Wts0Dn$__fn_lock$$$nx[]uc
6fd317b6+      W?$Wti0Z$__INITFINI$:$Wun0E4c_mf4cor99t2o$$$n[]uc
6fd317de+      W?$Wti0C$__fn_lock$$$n[]uc
6fd04a13+      W?.tdtor$:__fn_lock$n()pnv
6fd04a47       W?.tdtor$:__lock$n()pnv
6fd2e100+      W?$Wts0an$__INITFINI$:$Wun0E4c_mf4cor99t2o$$$nx[]uc
6fd317ef       W?$Wti09$__lock$$$n[]uc
6fd04935       W?name$:type_info$:std$n.x()pnxa
6fd33024+      W?__type_info_name_free$n$__INITFINI$:$Wun0E4c_mf4cor99t2o$$
Module: /mnt/sda5/.user/root/src/openwatcom-1.9/bld/plusplus/cpplib/winnt.386/mf_rmtd.dll/plbxmt3r.lib(/mnt/sda5/.user/root/src/openwatcom-1.9/bld/plusplus/cpplib/runtime/cpp/ti_raw.cpp)
6fd04a7b       W?raw_name$:type_info$:std$n.x()pnxa
Module: /mnt/sda5/.user/root/src/openwatcom-1.9/bld/plusplus/cpplib/winnt.386/mf_rmtd.dll/plbxmt3r.lib(/mnt/sda5/.user/root/src/openwatcom-1.9/bld/plusplus/cpplib/runtime/cpp/ti_opeq.cpp)
6fd04aa9       W?$ra:type_info$:std$n.x(rnx$0:1$)q
Module: /mnt/sda5/.user/root/src/openwatcom-1.9/bld/plusplus/cpplib/winnt.386/mf_rmtd.dll/plbxmt3r.lib(/mnt/sda5/.user/root/src/openwatcom-1.9/bld/plusplus/cpplib/runtime/cpp/ti_opne.cpp)
6fd04b03       W?$rb:type_info$:std$n.x(rnx$0:1$)q
Module: /mnt/sda5/.user/root/src/openwatcom-1.9/bld/plusplus/cpplib/winnt.386/mf_rmtd.dll/plbxmt3r.lib(/mnt/sda5/.user/root/src/openwatcom-1.9/bld/plusplus/cpplib/runtime/cpp/undefed.cpp)
6fd04b5d       __wcpp_4_undefed_cdtor__
Module: /mnt/sda5/.user/root/src/openwatcom-1.9/bld/plusplus/cpplib/winnt.386/mf_rmtd.dll/plbxmt3r.lib(/mnt/sda5/.user/root/src/openwatcom-1.9/bld/plusplus/cpplib/runtime/cpp/undefmbr.cpp)
6fd04b8b       __wcpp_4_undefined_member_function__
Module: /mnt/sda5/.user/root/src/openwatcom-1.9/bld/plusplus/cpplib/winnt.386/mf_rmtd.dll/plbxmt3r.lib(/mnt/sda5/.user/root/src/openwatcom-1.9/bld/plusplus/cpplib/runtime/cpp/unexpect.cpp)
6fd04bb9       W?unexpected$:std$n()v
Module: /mnt/sda5/.user/root/src/openwatcom-1.9/bld/plusplus/cpplib/winnt.386/mf_rmtd.dll/plbxmt3r.lib(/mnt/sda5/.user/root/src/openwatcom-1.9/bld/plusplus/cpplib/runtime/cpp/vfun_err.cpp)
6fd04c81       __wcpp_4_undef_vfun__
Module: /mnt/sda5/.user/root/src/openwatcom-1.9/bld/plusplus/cpplib/winnt.386/mf_rmtd.dll/plbxmt3r.lib(/mnt/sda5/.user/root/src/openwatcom-1.9/bld/plusplus/cpplib/iostream/cpp/flfattac.cpp)
6fd04e0b       W?.tdtor$:__get_lock$n()pnv
6fd2e140       W?$Wts0En$__get_lock$$$nx[]uc
6fd04cc2       W?attach$:filebuf$:std$n(i)pn$1:2$
6fd317fd       W?$Wti0D$__get_lock$$$n[]uc
Module: /mnt/sda5/.user/root/src/openwatcom-1.9/bld/plusplus/cpplib/winnt.386/mf_rmtd.dll/plbxmt3r.lib(/mnt/sda5/.user/root/src/openwatcom-1.9/bld/plusplus/cpplib/iostream/cpp/flfclose.cpp)
6fd04e3f       W?close$:filebuf$:std$n()pn$1:2$
Module: /mnt/sda5/.user/root/src/openwatcom-1.9/bld/plusplus/cpplib/winnt.386/mf_rmtd.dll/plbxmt3r.lib(/mnt/sda5/.user/root/src/openwatcom-1.9/bld/plusplus/cpplib/iostream/cpp/flfconde.cpp)
6fd2e170       W?$Wvf0Ho19:filebuf$:std$$nx[]pn()v
6fd3180f       W?$Wti0H$streambuf$:std$$$n[]uc
6fd04fc3       W?$ct:filebuf$:std$n()_
6fd2e1a0       W?$Wva0Go0:filebuf$:std$$nx[]uc
6fd31825       W?$Wti0F$filebuf$:std$$$n[]uc
Module: /mnt/sda5/.user/root/src/openwatcom-1.9/bld/plusplus/cpplib/winnt.386/mf_rmtd.dll/plbxmt3r.lib(/mnt/sda5/.user/root/src/openwatcom-1.9/bld/plusplus/cpplib/iostream/cpp/flfconfd.cpp)
6fd050bb       W?.tdtor$:streambuf$:std$n()pnv
6fd05013       W?$ct:filebuf$:std$n(i)_
Module: /mnt/sda5/.user/root/src/openwatcom-1.9/bld/plusplus/cpplib/winnt.386/mf_rmtd.dll/plbxmt3r.lib(/mnt/sda5/.user/root/src/openwatcom-1.9/bld/plusplus/cpplib/iostream/cpp/flfconsf.cpp)
6fd050ef       W?$ct:filebuf$:std$n(ipnai)_
Module: /mnt/sda5/.user/root/src/openwatcom-1.9/bld/plusplus/cpplib/winnt.386/mf_rmtd.dll/plbxmt3r.lib(/mnt/sda5/.user/root/src/openwatcom-1.9/bld/plusplus/cpplib/iostream/cpp/flfdestr.cpp)
6fd2e240+      W?$Wts0Gn$filebuf$:std$$$nx[]uc
6fd0531a       W?.tdtor$:filebuf$:std$n()pnv
6fd051a7       W?$dt:filebuf$:std$n()_
Module: /mnt/sda5/.user/root/src/openwatcom-1.9/bld/plusplus/cpplib/winnt.386/mf_rmtd.dll/plbxmt3r.lib(/mnt/sda5/.user/root/src/openwatcom-1.9/bld/plusplus/cpplib/iostream/cpp/flfopen.cpp)
6fd0534e       W?open$:filebuf$:std$n(pnxaii)pn$1:2$
Module: /mnt/sda5/.user/root/src/openwatcom-1.9/bld/plusplus/cpplib/winnt.386/mf_rmtd.dll/plbxmt3r.lib(/mnt/sda5/.user/root/src/openwatcom-1.9/bld/plusplus/cpplib/iostream/cpp/flfoprot.cpp)
6fd2e270       W?openprot$:filebuf$:std$nxi
Module: /mnt/sda5/.user/root/src/openwatcom-1.9/bld/plusplus/cpplib/winnt.386/mf_rmtd.dll/plbxmt3r.lib(/mnt/sda5/.user/root/src/openwatcom-1.9/bld/plusplus/cpplib/iostream/cpp/flfoverf.cpp)
6fd0556d       W?overflow$:filebuf$:std$n(i)i
Module: /mnt/sda5/.user/root/src/openwatcom-1.9/bld/plusplus/cpplib/winnt.386/mf_rmtd.dll/plbxmt3r.lib(/mnt/sda5/.user/root/src/openwatcom-1.9/bld/plusplus/cpplib/iostream/cpp/flfpbfai.cpp)
6fd0622b       W?pbackfail$:filebuf$:std$n(i)i
Module: /mnt/sda5/.user/root/src/openwatcom-1.9/bld/plusplus/cpplib/winnt.386/mf_rmtd.dll/plbxmt3r.lib(/mnt/sda5/.user/root/src/openwatcom-1.9/bld/plusplus/cpplib/iostream/cpp/flfseeko.cpp)
6fd06809       W?seekoff$:filebuf$:std$n(lii)l
Module: /mnt/sda5/.user/root/src/openwatcom-1.9/bld/plusplus/cpplib/winnt.386/mf_rmtd.dll/plbxmt3r.lib(/mnt/sda5/.user/root/src/openwatcom-1.9/bld/plusplus/cpplib/iostream/cpp/flfsetbf.cpp)
6fd06ae6       W?setbuf$:filebuf$:std$n(pnai)pn$streambuf$:2$
Module: /mnt/sda5/.user/root/src/openwatcom-1.9/bld/plusplus/cpplib/winnt.386/mf_rmtd.dll/plbxmt3r.lib(/mnt/sda5/.user/root/src/openwatcom-1.9/bld/plusplus/cpplib/iostream/cpp/flfsync.cpp)
6fd06c76       W?sync$:filebuf$:std$n()i
Module: /mnt/sda5/.user/root/src/openwatcom-1.9/bld/plusplus/cpplib/winnt.386/mf_rmtd.dll/plbxmt3r.lib(/mnt/sda5/.user/root/src/openwatcom-1.9/bld/plusplus/cpplib/iostream/cpp/flfundrf.cpp)
6fd06ffb       W?underflow$:filebuf$:std$n()i
Module: /mnt/sda5/.user/root/src/openwatcom-1.9/bld/plusplus/cpplib/winnt.386/mf_rmtd.dll/plbxmt3r.lib(/mnt/sda5/.user/root/src/openwatcom-1.9/bld/plusplus/cpplib/iostream/cpp/fsbattac.cpp)
6fd079fa       W?attach$:fstreambase$:std$n(i)v
Module: /mnt/sda5/.user/root/src/openwatcom-1.9/bld/plusplus/cpplib/winnt.386/mf_rmtd.dll/plbxmt3r.lib(/mnt/sda5/.user/root/src/openwatcom-1.9/bld/plusplus/cpplib/iostream/cpp/fsbclose.cpp)
6fd07b98       W?close$:fstreambase$:std$n()v
Module: /mnt/sda5/.user/root/src/openwatcom-1.9/bld/plusplus/cpplib/winnt.386/mf_rmtd.dll/plbxmt3r.lib(/mnt/sda5/.user/root/src/openwatcom-1.9/bld/plusplus/cpplib/iostream/cpp/fsbconde.cpp)
6fd2e3a0       W?$Wvb0Ko0:fstreambase$:std$$nx[]ui
6fd2e3b0       W?$Wvf0Lo22:fstreambase$:std$$nx[]pn()v
6fd2e3c0       W?$Wvf0Lo3j:fstreambase$:std$$nx[]pn()v
6fd31839       W?$Wti0B$ios$:std$$$n[]uc
6fd07e35       W?$Wvt0Z.@dt:fstreambase$:std$c$:0:1$dtn()_$:ios$:std$n()pnv
6fd07e68       W?.tdtor$:ios$:std$n()pnv
6fd2e3d0       W?$Wva0Ko0:fstreambase$:std$$nx[]uc
6fd07d13       W?$ct:fstreambase$:std$n()_
6fd31849       W?$Wti0J$fstreambase$:std$$$n[]uc
Module: /mnt/sda5/.user/root/src/openwatcom-1.9/bld/plusplus/cpplib/winnt.386/mf_rmtd.dll/plbxmt3r.lib(/mnt/sda5/.user/root/src/openwatcom-1.9/bld/plusplus/cpplib/iostream/cpp/fsbconfd.cpp)
6fd07e9c       W?$ct:fstreambase$:std$n(i)_
Module: /mnt/sda5/.user/root/src/openwatcom-1.9/bld/plusplus/cpplib/winnt.386/mf_rmtd.dll/plbxmt3r.lib(/mnt/sda5/.user/root/src/openwatcom-1.9/bld/plusplus/cpplib/iostream/cpp/fsbconnm.cpp)
6fd07fee       W?$ct:fstreambase$:std$n(pnxaii)_
Module: /mnt/sda5/.user/root/src/openwatcom-1.9/bld/plusplus/cpplib/winnt.386/mf_rmtd.dll/plbxmt3r.lib(/mnt/sda5/.user/root/src/openwatcom-1.9/bld/plusplus/cpplib/iostream/cpp/fsbconsf.cpp)
6fd08149       W?$ct:fstreambase$:std$n(ipnai)_
Module: /mnt/sda5/.user/root/src/openwatcom-1.9/bld/plusplus/cpplib/winnt.386/mf_rmtd.dll/plbxmt3r.lib(/mnt/sda5/.user/root/src/openwatcom-1.9/bld/plusplus/cpplib/iostream/cpp/fsbdestr.cpp)
6fd2e510+      W?$Wts0Kn$fstreambase$:std$$$nx[]uc
6fd08424       W?.tdtor$:fstreambase$:std$n()pnv
6fd082ac       W?$dt:fstreambase$:std$n()_
Module: /mnt/sda5/.user/root/src/openwatcom-1.9/bld/plusplus/cpplib/winnt.386/mf_rmtd.dll/plbxmt3r.lib(/mnt/sda5/.user/root/src/openwatcom-1.9/bld/plusplus/cpplib/iostream/cpp/fsbopen.cpp)
6fd08458       W?open$:fstreambase$:std$n(pnxaii)v
Module: /mnt/sda5/.user/root/src/openwatcom-1.9/bld/plusplus/cpplib/winnt.386/mf_rmtd.dll/plbxmt3r.lib(/mnt/sda5/.user/root/src/openwatcom-1.9/bld/plusplus/cpplib/iostream/cpp/fsbsetbf.cpp)
6fd085fe       W?setbuf$:fstreambase$:std$n(pnai)v
Module: /mnt/sda5/.user/root/src/openwatcom-1.9/bld/plusplus/cpplib/winnt.386/mf_rmtd.dll/plbxmt3r.lib(/mnt/sda5/.user/root/src/openwatcom-1.9/bld/plusplus/cpplib/iostream/cpp/fstconde.cpp)
6fd088e1       W?$Wvt0X.@dt:fstream$:std$o26$:0:1$dtn()_$:iostream$:std$n()pnv
6fd0890f       W?$Wvt0X.@dt:fstream$:std$o2i$:0:1$dtn()_$:ostream$:std$n()pnv
6fd2e5c0       W?$Wvb0Go0:fstream$:std$$nx[]ui
6fd2e5d0       W?$Wvb0Ho26:fstream$:std$$nx[]ui
6fd2e5e0       W?$Wvb0Ho2i:fstream$:std$$nx[]ui
6fd2e5f0       W?$Wvf0Ho22:fstream$:std$$nx[]pn()v
6fd2e600       W?$Wvf0Ho2e:fstream$:std$$nx[]pn()v
6fd2e610       W?$Wvf0Ho2m:fstream$:std$$nx[]pn()v
6fd2e620       W?$Wvf0Ho48:fstream$:std$$nx[]pn()v
6fd31861       W?$Wti0F$ostream$:std$$$n[]uc
6fd31875       W?$Wti0F$istream$:std$$$n[]uc
6fd31889       W?$Wti0G$iostream$:std$$$n[]uc
6fd0893d       W?$Wvt0V.@dt:fstream$:std$c$:0:1$dtn()_$:ios$:std$n()pnv
6fd08970       W?.tdtor$:iostream$:std$n()pnv
6fd2e630       W?$Wva0Go0:fstream$:std$$nx[]uc
6fd08788       W?$ct:fstream$:std$n()_
6fd3189e       W?$Wti0F$fstream$:std$$$n[]uc
Module: /mnt/sda5/.user/root/src/openwatcom-1.9/bld/plusplus/cpplib/winnt.386/mf_rmtd.dll/plbxmt3r.lib(/mnt/sda5/.user/root/src/openwatcom-1.9/bld/plusplus/cpplib/iostream/cpp/fstconfd.cpp)
6fd089a4       W?$ct:fstream$:std$n(i)_
Module: /mnt/sda5/.user/root/src/openwatcom-1.9/bld/plusplus/cpplib/winnt.386/mf_rmtd.dll/plbxmt3r.lib(/mnt/sda5/.user/root/src/openwatcom-1.9/bld/plusplus/cpplib/iostream/cpp/fstconnm.cpp)
6fd08b01       W?$ct:fstream$:std$n(pnxaii)_
Module: /mnt/sda5/.user/root/src/openwatcom-1.9/bld/plusplus/cpplib/winnt.386/mf_rmtd.dll/plbxmt3r.lib(/mnt/sda5/.user/root/src/openwatcom-1.9/bld/plusplus/cpplib/iostream/cpp/fstconsf.cpp)
6fd08c88       W?$ct:fstream$:std$n(ipnai)_
Module: /mnt/sda5/.user/root/src/openwatcom-1.9/bld/plusplus/cpplib/winnt.386/mf_rmtd.dll/plbxmt3r.lib(/mnt/sda5/.user/root/src/openwatcom-1.9/bld/plusplus/cpplib/iostream/cpp/fstdestr.cpp)
6fd2e800+      W?$Wts0Gn$fstream$:std$$$nx[]uc
6fd08fa3+      W?.tdtor$:fstream$:std$n()pnv
6fd08def       W?$dt:fstream$:std$n()_
Module: /mnt/sda5/.user/root/src/openwatcom-1.9/bld/plusplus/cpplib/winnt.386/mf_rmtd.dll/plbxmt3r.lib(/mnt/sda5/.user/root/src/openwatcom-1.9/bld/plusplus/cpplib/iostream/cpp/ifsconde.cpp)
6fd0911c       W?$Wvt0Y.@dt:ifstream$:std$o26$:0:1$dtn()_$:istream$:std$n()pnv
6fd2e870       W?$Wvb0Ho0:ifstream$:std$$nx[]ui
6fd2e880       W?$Wvb0Io26:ifstream$:std$$nx[]ui
6fd2e890       W?$Wvf0Io22:ifstream$:std$$nx[]pn()v
6fd2e8a0       W?$Wvf0Io2e:ifstream$:std$$nx[]pn()v
6fd2e8b0       W?$Wvf0Io40:ifstream$:std$$nx[]pn()v
6fd0914a       W?$Wvt0W.@dt:ifstream$:std$c$:0:1$dtn()_$:ios$:std$n()pnv
6fd0917d       W?.tdtor$:istream$:std$n()pnv
6fd2e8c0       W?$Wva0Ho0:ifstream$:std$$nx[]uc
6fd08fd7       W?$ct:ifstream$:std$n()_
6fd318b2       W?$Wti0G$ifstream$:std$$$n[]uc
Module: /mnt/sda5/.user/root/src/openwatcom-1.9/bld/plusplus/cpplib/winnt.386/mf_rmtd.dll/plbxmt3r.lib(/mnt/sda5/.user/root/src/openwatcom-1.9/bld/plusplus/cpplib/iostream/cpp/ifsconfd.cpp)
6fd091b1       W?$ct:ifstream$:std$n(i)_
Module: /mnt/sda5/.user/root/src/openwatcom-1.9/bld/plusplus/cpplib/winnt.386/mf_rmtd.dll/plbxmt3r.lib(/mnt/sda5/.user/root/src/openwatcom-1.9/bld/plusplus/cpplib/iostream/cpp/ifsconnm.cpp)
6fd092fa       W?$ct:ifstream$:std$n(pnxaii)_
Module: /mnt/sda5/.user/root/src/openwatcom-1.9/bld/plusplus/cpplib/winnt.386/mf_rmtd.dll/plbxmt3r.lib(/mnt/sda5/.user/root/src/openwatcom-1.9/bld/plusplus/cpplib/iostream/cpp/ifsconsf.cpp)
6fd09450       W?$ct:ifstream$:std$n(ipnai)_
Module: /mnt/sda5/.user/root/src/openwatcom-1.9/bld/plusplus/cpplib/winnt.386/mf_rmtd.dll/plbxmt3r.lib(/mnt/sda5/.user/root/src/openwatcom-1.9/bld/plusplus/cpplib/iostream/cpp/ifsdestr.cpp)
6fd2ea70+      W?$Wts0Hn$ifstream$:std$$$nx[]uc
6fd0974d+      W?.tdtor$:ifstream$:std$n()pnv
6fd095a3       W?$dt:ifstream$:std$n()_
Module: /mnt/sda5/.user/root/src/openwatcom-1.9/bld/plusplus/cpplib/winnt.386/mf_rmtd.dll/plbxmt3r.lib(/mnt/sda5/.user/root/src/openwatcom-1.9/bld/plusplus/cpplib/iostream/cpp/iofexdou.cpp)
6fd09781       W?$oa:istream$:std$n(rnd)rn$0:1$
Module: /mnt/sda5/.user/root/src/openwatcom-1.9/bld/plusplus/cpplib/winnt.386/mf_rmtd.dll/plbxmt3r.lib(/mnt/sda5/.user/root/src/openwatcom-1.9/bld/plusplus/cpplib/iostream/cpp/iofexflo.cpp)
6fd0994c       W?$oa:istream$:std$n(rnb)rn$0:1$
Module: /mnt/sda5/.user/root/src/openwatcom-1.9/bld/plusplus/cpplib/winnt.386/mf_rmtd.dll/plbxmt3r.lib(/mnt/sda5/.user/root/src/openwatcom-1.9/bld/plusplus/cpplib/iostream/cpp/iofexldo.cpp)
6fd09aa6       W?$oa:istream$:std$n(rnt)rn$0:1$
Module: /mnt/sda5/.user/root/src/openwatcom-1.9/bld/plusplus/cpplib/winnt.386/mf_rmtd.dll/plbxmt3r.lib(/mnt/sda5/.user/root/src/openwatcom-1.9/bld/plusplus/cpplib/iostream/cpp/iofnoefg.cpp)
6fd318c8       W?__EFG_cnvs2d$npn(pnapnd)v
6fd318cc       W?__EFG_cnvd2f$npn(pndpnb)i
6fd318d0       W?__EFG_LDcvt$npn(pn$__6ks9tmlong_double$$pn$cvt_info$$pna)v
6fd318d4       W?__EFG_fcvt$npn(dipnipni)pna
6fd318d8       W?__EFG__FDLD$npn(pndpn$__6ks9tmlong_double$$)v
Module: /mnt/sda5/.user/root/src/openwatcom-1.9/bld/plusplus/cpplib/winnt.386/mf_rmtd.dll/plbxmt3r.lib(/mnt/sda5/.user/root/src/openwatcom-1.9/bld/plusplus/cpplib/iostream/cpp/iofoutfl.cpp)
6fd09ca0       W?__outfloat$:ostream$:std$n(rnxt)rn$1:2$
Module: /mnt/sda5/.user/root/src/openwatcom-1.9/bld/plusplus/cpplib/winnt.386/mf_rmtd.dll/plbxmt3r.lib(/mnt/sda5/.user/root/src/openwatcom-1.9/bld/plusplus/cpplib/iostream/cpp/ioicerr.cpp)
6fd33068       W?cerr$:std$n$ostream$:1$
6fd2eb20       W?$Wts0Cn$stdiobuf$$$nx[]uc
6fd2eb40       W?$Wts0Gn$ostream$:std$$$nx[]uc
6fd3190c+      W?$Wti0G$cerr_initfini$$$n[]uc
6fd31921       W?$Wti0B$stdiobuf$$$n[]uc
6fd0a525       W?.tdtor$:ostream$:std$n()pnv
6fd0a559       W?.tdtor$:stdiobuf$n()pnv
6fd2eb60+      W?$Wts0Hn$cerr_initfini$$$nx[]uc
6fd0a436+      W?$ct:cerr_initfini$n()_
6fd0a4ef+      W?$dt:cerr_initfini$n()_
Module: /mnt/sda5/.user/root/src/openwatcom-1.9/bld/plusplus/cpplib/winnt.386/mf_rmtd.dll/plbxmt3r.lib(/mnt/sda5/.user/root/src/openwatcom-1.9/bld/plusplus/cpplib/iostream/cpp/ioicin.cpp)
6fd330e8       W?cin$:std$n$istream$:1$
6fd2eba0       W?$Wts0Gn$istream$:std$$$nx[]uc
6fd0a5f7+      W?$ct:cin_initfini$n()_
Module: /mnt/sda5/.user/root/src/openwatcom-1.9/bld/plusplus/cpplib/winnt.386/mf_rmtd.dll/plbxmt3r.lib(/mnt/sda5/.user/root/src/openwatcom-1.9/bld/plusplus/cpplib/iostream/cpp/ioiclog.cpp)
6fd33168       W?clog$:std$n$ostream$:1$
6fd31981+      W?$Wti0G$clog_initfini$$$n[]uc
6fd2ebf0+      W?$Wts0Hn$clog_initfini$$$nx[]uc
6fd0a72a+      W?$ct:clog_initfini$n()_
6fd0a79c+      W?$dt:clog_initfini$n()_
Module: /mnt/sda5/.user/root/src/openwatcom-1.9/bld/plusplus/cpplib/winnt.386/mf_rmtd.dll/plbxmt3r.lib(/mnt/sda5/.user/root/src/openwatcom-1.9/bld/plusplus/cpplib/iostream/cpp/ioicout.cpp)
6fd331e8       W?cout$:std$n$ostream$:1$
6fd319c6+      W?$Wti0G$cout_initfini$$$n[]uc
6fd2ec40+      W?$Wts0Hn$cout_initfini$$$nx[]uc
6fd0a84c+      W?$ct:cout_initfini$n()_
6fd0a8be+      W?$dt:cout_initfini$n()_
Module: /mnt/sda5/.user/root/src/openwatcom-1.9/bld/plusplus/cpplib/winnt.386/mf_rmtd.dll/plbxmt3r.lib(/mnt/sda5/.user/root/src/openwatcom-1.9/bld/plusplus/cpplib/iostream/cpp/ioilfofg.cpp)
6fd319dc       W?__last_format_flag$:ios$:std$nl
Module: /mnt/sda5/.user/root/src/openwatcom-1.9/bld/plusplus/cpplib/winnt.386/mf_rmtd.dll/plbxmt3r.lib(/mnt/sda5/.user/root/src/openwatcom-1.9/bld/plusplus/cpplib/iostream/cpp/ioilock.cpp)
6fd319f0       W?__x_lock$:ios$:std$npn$__lock$$
6fd33230+      W?xalloc_lock$n$__lock$$
Module: /mnt/sda5/.user/root/src/openwatcom-1.9/bld/plusplus/cpplib/winnt.386/mf_rmtd.dll/plbxmt3r.lib(/mnt/sda5/.user/root/src/openwatcom-1.9/bld/plusplus/cpplib/iostream/cpp/ioixainx.cpp)
6fd33240       W?__xalloc_index$:ios$:std$ni
Module: /mnt/sda5/.user/root/src/openwatcom-1.9/bld/plusplus/cpplib/winnt.386/mf_rmtd.dll/plbxmt3r.lib(/mnt/sda5/.user/root/src/openwatcom-1.9/bld/plusplus/cpplib/iostream/cpp/iolglcon.cpp)
6fd0a92a       W?$ct:__get_lock$n(pn$__lock$$)_
Module: /mnt/sda5/.user/root/src/openwatcom-1.9/bld/plusplus/cpplib/winnt.386/mf_rmtd.dll/plbxmt3r.lib(/mnt/sda5/.user/root/src/openwatcom-1.9/bld/plusplus/cpplib/iostream/cpp/iolgldes.cpp)
6fd0a970       W?$dt:__get_lock$n()_
Module: /mnt/sda5/.user/root/src/openwatcom-1.9/bld/plusplus/cpplib/winnt.386/mf_rmtd.dll/plbxmt3r.lib(/mnt/sda5/.user/root/src/openwatcom-1.9/bld/plusplus/cpplib/iostream/cpp/iosbital.cpp)
6fd0a9ae       W?bitalloc$:ios$:std$n()l
Module: /mnt/sda5/.user/root/src/openwatcom-1.9/bld/plusplus/cpplib/winnt.386/mf_rmtd.dll/plbxmt3r.lib(/mnt/sda5/.user/root/src/openwatcom-1.9/bld/plusplus/cpplib/iostream/cpp/iosclear.cpp)
6fd0aa24       W?clear$:ios$:std$n(i)i
Module: /mnt/sda5/.user/root/src/openwatcom-1.9/bld/plusplus/cpplib/winnt.386/mf_rmtd.dll/plbxmt3r.lib(/mnt/sda5/.user/root/src/openwatcom-1.9/bld/plusplus/cpplib/iostream/cpp/ioscoeio.cpp)
6fd0ab14       W?$aa:ios$:std$n(rnx$0:1$)rn$0:1$
Module: /mnt/sda5/.user/root/src/openwatcom-1.9/bld/plusplus/cpplib/winnt.386/mf_rmtd.dll/plbxmt3r.lib(/mnt/sda5/.user/root/src/openwatcom-1.9/bld/plusplus/cpplib/iostream/cpp/ioscoios.cpp)
6fd2ecb0       W?$Wvf0Do19:ios$:std$$nx[]pn()v
6fd2ecc0       W?$Wva0Co0:ios$:std$$nx[]uc
6fd0ad76       W?$ct:ios$:std$n(rnx$0:1$)_
Module: /mnt/sda5/.user/root/src/openwatcom-1.9/bld/plusplus/cpplib/winnt.386/mf_rmtd.dll/plbxmt3r.lib(/mnt/sda5/.user/root/src/openwatcom-1.9/bld/plusplus/cpplib/iostream/cpp/iosconde.cpp)
6fd0ae9b       W?$ct:ios$:std$n()_
Module: /mnt/sda5/.user/root/src/openwatcom-1.9/bld/plusplus/cpplib/winnt.386/mf_rmtd.dll/plbxmt3r.lib(/mnt/sda5/.user/root/src/openwatcom-1.9/bld/plusplus/cpplib/iostream/cpp/ioscostf.cpp)
6fd0aed0       W?$ct:ios$:std$n(pn$streambuf$:1$)_
Module: /mnt/sda5/.user/root/src/openwatcom-1.9/bld/plusplus/cpplib/winnt.386/mf_rmtd.dll/plbxmt3r.lib(/mnt/sda5/.user/root/src/openwatcom-1.9/bld/plusplus/cpplib/iostream/cpp/iosdestr.cpp)
6fd2ecf0+      W?$Wts0Cn$ios$:std$$$nx[]uc
6fd0af11       W?$dt:ios$:std$n()_
Module: /mnt/sda5/.user/root/src/openwatcom-1.9/bld/plusplus/cpplib/winnt.386/mf_rmtd.dll/plbxmt3r.lib(/mnt/sda5/.user/root/src/openwatcom-1.9/bld/plusplus/cpplib/iostream/cpp/iosexcep.cpp)
6fd0afd9       W?exceptions$:ios$:std$n(i)i
Module: /mnt/sda5/.user/root/src/openwatcom-1.9/bld/plusplus/cpplib/winnt.386/mf_rmtd.dll/plbxmt3r.lib(/mnt/sda5/.user/root/src/openwatcom-1.9/bld/plusplus/cpplib/iostream/cpp/iosinit.cpp)
6fd0b0c7       W?init$:ios$:std$n(pn$streambuf$:2$)v
Module: /mnt/sda5/.user/root/src/openwatcom-1.9/bld/plusplus/cpplib/winnt.386/mf_rmtd.dll/plbxmt3r.lib(/mnt/sda5/.user/root/src/openwatcom-1.9/bld/plusplus/cpplib/iostream/cpp/iosiword.cpp)
6fd0b15c       W?iword$:ios$:std$n(i)rnl
Module: /mnt/sda5/.user/root/src/openwatcom-1.9/bld/plusplus/cpplib/winnt.386/mf_rmtd.dll/plbxmt3r.lib(/mnt/sda5/.user/root/src/openwatcom-1.9/bld/plusplus/cpplib/iostream/cpp/iospword.cpp)
6fd0b250       W?pword$:ios$:std$n(i)rnpnv
Module: /mnt/sda5/.user/root/src/openwatcom-1.9/bld/plusplus/cpplib/winnt.386/mf_rmtd.dll/plbxmt3r.lib(/mnt/sda5/.user/root/src/openwatcom-1.9/bld/plusplus/cpplib/iostream/cpp/iossetst.cpp)
6fd0b41a+      W?$ct:failure$:ios$:std$n(rnx$0:1:2$)_
6fd0b468+      W?$dt:failure$:ios$:std$n()_
6fd0b494       W?$ct:__WATCOM_exception$n(rnx$0$)_
6fd2ed50+      W?$Wth0Nnrn$failure$:ios$:std$$$nx[]uc
6fd2ed70+      W?$Wts0Ln$failure$:ios$:std$$$nx[]uc
6fd319f4       W?$Wti0L$__WATCOM_exception$$$n[]uc
6fd31a0e+      W?$Wti0K$failure$:ios$:std$$$n[]uc
6fd0b4c0       W?$dt:__WATCOM_exception$n()_
6fd2ed90       W?$Wts0Mn$__WATCOM_exception$$$nx[]uc
6fd0b344       W?setstate$:ios$:std$n(i)v
Module: /mnt/sda5/.user/root/src/openwatcom-1.9/bld/plusplus/cpplib/winnt.386/mf_rmtd.dll/plbxmt3r.lib(/mnt/sda5/.user/root/src/openwatcom-1.9/bld/plusplus/cpplib/iostream/cpp/iosxallo.cpp)
6fd0b4ec       W?xalloc$:ios$:std$n()i
Module: /mnt/sda5/.user/root/src/openwatcom-1.9/bld/plusplus/cpplib/winnt.386/mf_rmtd.dll/plbxmt3r.lib(/mnt/sda5/.user/root/src/openwatcom-1.9/bld/plusplus/cpplib/iostream/cpp/iotconbf.cpp)
6fd0b6fd       W?$Wvt0X.@dt:iostream$:std$oc$:0:1$dtn()_$:ostream$:std$n()pnv
6fd2ee00       W?$Wvb0Ho0:iostream$:std$$nx[]ui
6fd2ee10       W?$Wvb0Hoc:iostream$:std$$nx[]ui
6fd2ee20       W?$Wvf0Ho8:iostream$:std$$nx[]pn()v
6fd2ee30       W?$Wvf0Hog:iostream$:std$$nx[]pn()v
6fd2ee40       W?$Wvf0Io22:iostream$:std$$nx[]pn()v
6fd0b72b       W?$Wvt0W.@dt:iostream$:std$c$:0:1$dtn()_$:ios$:std$n()pnv
6fd2ee50       W?$Wva0Ho0:iostream$:std$$nx[]uc
6fd0b543       W?$ct:iostream$:std$n(pn$streambuf$:1$)_
Module: /mnt/sda5/.user/root/src/openwatcom-1.9/bld/plusplus/cpplib/winnt.386/mf_rmtd.dll/plbxmt3r.lib(/mnt/sda5/.user/root/src/openwatcom-1.9/bld/plusplus/cpplib/iostream/cpp/iotconde.cpp)
6fd0b75e       W?$ct:iostream$:std$n()_
Module: /mnt/sda5/.user/root/src/openwatcom-1.9/bld/plusplus/cpplib/winnt.386/mf_rmtd.dll/plbxmt3r.lib(/mnt/sda5/.user/root/src/openwatcom-1.9/bld/plusplus/cpplib/iostream/cpp/iotconsm.cpp)
6fd0b8fc       W?$ct:iostream$:std$n(rnx$ios$:1$)_
Module: /mnt/sda5/.user/root/src/openwatcom-1.9/bld/plusplus/cpplib/winnt.386/mf_rmtd.dll/plbxmt3r.lib(/mnt/sda5/.user/root/src/openwatcom-1.9/bld/plusplus/cpplib/iostream/cpp/iotdestr.cpp)
6fd2efc0+      W?$Wts0Hn$iostream$:std$$$nx[]uc
6fd0babd       W?$dt:iostream$:std$n()_
Module: /mnt/sda5/.user/root/src/openwatcom-1.9/bld/plusplus/cpplib/winnt.386/mf_rmtd.dll/plbxmt3r.lib(/mnt/sda5/.user/root/src/openwatcom-1.9/bld/plusplus/cpplib/iostream/cpp/iotopbuf.cpp)
6fd0bc67       W?$aa:iostream$:std$n(pn$streambuf$:1$)rn$0:1$
Module: /mnt/sda5/.user/root/src/openwatcom-1.9/bld/plusplus/cpplib/winnt.386/mf_rmtd.dll/plbxmt3r.lib(/mnt/sda5/.user/root/src/openwatcom-1.9/bld/plusplus/cpplib/iostream/cpp/iotopstm.cpp)
6fd0bd64       W?$aa:iostream$:std$n(rnx$ios$:1$)rn$0:1$
Module: /mnt/sda5/.user/root/src/openwatcom-1.9/bld/plusplus/cpplib/winnt.386/mf_rmtd.dll/plbxmt3r.lib(/mnt/sda5/.user/root/src/openwatcom-1.9/bld/plusplus/cpplib/iostream/cpp/ioufrxal.cpp)
6fd0beb8       W?free_xalloc_storage$:__WATCOM_ios$n(pn$ios$:std$$)v
Module: /mnt/sda5/.user/root/src/openwatcom-1.9/bld/plusplus/cpplib/winnt.386/mf_rmtd.dll/plbxmt3r.lib(/mnt/sda5/.user/root/src/openwatcom-1.9/bld/plusplus/cpplib/iostream/cpp/ioufuswr.cpp)
6fd0bf02       W?find_user_word$:__WATCOM_ios$n(pn$ios$:std$$i)pnv
Module: /mnt/sda5/.user/root/src/openwatcom-1.9/bld/plusplus/cpplib/winnt.386/mf_rmtd.dll/plbxmt3r.lib(/mnt/sda5/.user/root/src/openwatcom-1.9/bld/plusplus/cpplib/iostream/cpp/iouwrtit.cpp)
6fd2f090       W?$Wcm014$nx[]uc
6fd0c02d       W?writeitem$:__WATCOM_ios$n(rn$ostream$:std$$pnxaii)i
Module: /mnt/sda5/.user/root/src/openwatcom-1.9/bld/plusplus/cpplib/winnt.386/mf_rmtd.dll/plbxmt3r.lib(/mnt/sda5/.user/root/src/openwatcom-1.9/bld/plusplus/cpplib/iostream/cpp/isscochz.cpp)
6fd0d105       W?$Wvt0a.@dt:istrstream$:std$o2a$:0:1$dtn()_$:istream$:std$n()pnv
6fd2f0f0       W?$Wvb0Jo0:istrstream$:std$$nx[]ui
6fd2f100       W?$Wvb0Ko2a:istrstream$:std$$nx[]ui
6fd2f110       W?$Wvf0Ko26:istrstream$:std$$nx[]pn()v
6fd2f120       W?$Wvf0Ko2i:istrstream$:std$$nx[]pn()v
6fd2f130       W?$Wvf0Ko44:istrstream$:std$$nx[]pn()v
6fd31a27       W?$Wti0L$strstreambase$:std$$$n[]uc
6fd0d133       W?$Wvt0Y.@dt:istrstream$:std$c$:0:1$dtn()_$:ios$:std$n()pnv
6fd0d166       W?.tdtor$:strstreambase$:std$n()pnv
6fd2f140       W?$Wva0Jo0:istrstream$:std$$nx[]uc
6fd0cfb6       W?$ct:istrstream$:std$n(pnai)_
6fd31a41       W?$Wti0I$istrstream$:std$$$n[]uc
Module: /mnt/sda5/.user/root/src/openwatcom-1.9/bld/plusplus/cpplib/winnt.386/mf_rmtd.dll/plbxmt3r.lib(/mnt/sda5/.user/root/src/openwatcom-1.9/bld/plusplus/cpplib/iostream/cpp/issconch.cpp)
6fd0d19a       W?$ct:istrstream$:std$n(pna)_
Module: /mnt/sda5/.user/root/src/openwatcom-1.9/bld/plusplus/cpplib/winnt.386/mf_rmtd.dll/plbxmt3r.lib(/mnt/sda5/.user/root/src/openwatcom-1.9/bld/plusplus/cpplib/iostream/cpp/issconsc.cpp)
6fd0d2e7       W?$ct:istrstream$:std$n(pnc)_
Module: /mnt/sda5/.user/root/src/openwatcom-1.9/bld/plusplus/cpplib/winnt.386/mf_rmtd.dll/plbxmt3r.lib(/mnt/sda5/.user/root/src/openwatcom-1.9/bld/plusplus/cpplib/iostream/cpp/issconuc.cpp)
6fd0d434       W?$ct:istrstream$:std$n(pnuc)_
Module: /mnt/sda5/.user/root/src/openwatcom-1.9/bld/plusplus/cpplib/winnt.386/mf_rmtd.dll/plbxmt3r.lib(/mnt/sda5/.user/root/src/openwatcom-1.9/bld/plusplus/cpplib/iostream/cpp/isscoscz.cpp)
6fd0d581       W?$ct:istrstream$:std$n(pnci)_
Module: /mnt/sda5/.user/root/src/openwatcom-1.9/bld/plusplus/cpplib/winnt.386/mf_rmtd.dll/plbxmt3r.lib(/mnt/sda5/.user/root/src/openwatcom-1.9/bld/plusplus/cpplib/iostream/cpp/isscoucz.cpp)
6fd0d6d0       W?$ct:istrstream$:std$n(pnuci)_
Module: /mnt/sda5/.user/root/src/openwatcom-1.9/bld/plusplus/cpplib/winnt.386/mf_rmtd.dll/plbxmt3r.lib(/mnt/sda5/.user/root/src/openwatcom-1.9/bld/plusplus/cpplib/iostream/cpp/issdestr.cpp)
6fd2f390+      W?$Wts0Jn$istrstream$:std$$$nx[]uc
6fd0d9c9+      W?.tdtor$:istrstream$:std$n()pnv
6fd0d81f       W?$dt:istrstream$:std$n()_
Module: /mnt/sda5/.user/root/src/openwatcom-1.9/bld/plusplus/cpplib/winnt.386/mf_rmtd.dll/plbxmt3r.lib(/mnt/sda5/.user/root/src/openwatcom-1.9/bld/plusplus/cpplib/iostream/cpp/istcoeis.cpp)
6fd0d9fd       W?$aa:istream$:std$n(rnx$0:1$)rn$0:1$
Module: /mnt/sda5/.user/root/src/openwatcom-1.9/bld/plusplus/cpplib/winnt.386/mf_rmtd.dll/plbxmt3r.lib(/mnt/sda5/.user/root/src/openwatcom-1.9/bld/plusplus/cpplib/iostream/cpp/istcoesf.cpp)
6fd0dba1       W?$aa:istream$:std$n(pn$streambuf$:1$)rn$0:1$
Module: /mnt/sda5/.user/root/src/openwatcom-1.9/bld/plusplus/cpplib/winnt.386/mf_rmtd.dll/plbxmt3r.lib(/mnt/sda5/.user/root/src/openwatcom-1.9/bld/plusplus/cpplib/iostream/cpp/istcoist.cpp)
6fd2f410       W?$Wvb0Go0:istream$:std$$nx[]ui
6fd2f420       W?$Wvf0Go8:istream$:std$$nx[]pn()v
6fd2f430       W?$Wvf0Ho1p:istream$:std$$nx[]pn()v
6fd0de8b       W?$Wvt0V.@dt:istream$:std$c$:0:1$dtn()_$:ios$:std$n()pnv
6fd2f440       W?$Wva0Go0:istream$:std$$nx[]uc
6fd0dc9e       W?$ct:istream$:std$n(rnx$0:1$)_
Module: /mnt/sda5/.user/root/src/openwatcom-1.9/bld/plusplus/cpplib/winnt.386/mf_rmtd.dll/plbxmt3r.lib(/mnt/sda5/.user/root/src/openwatcom-1.9/bld/plusplus/cpplib/iostream/cpp/istconde.cpp)
6fd0debe       W?$ct:istream$:std$n()_
Module: /mnt/sda5/.user/root/src/openwatcom-1.9/bld/plusplus/cpplib/winnt.386/mf_rmtd.dll/plbxmt3r.lib(/mnt/sda5/.user/root/src/openwatcom-1.9/bld/plusplus/cpplib/iostream/cpp/istconsf.cpp)
6fd0dffc       W?$ct:istream$:std$n(pn$streambuf$:1$)_
Module: /mnt/sda5/.user/root/src/openwatcom-1.9/bld/plusplus/cpplib/winnt.386/mf_rmtd.dll/plbxmt3r.lib(/mnt/sda5/.user/root/src/openwatcom-1.9/bld/plusplus/cpplib/iostream/cpp/istdestr.cpp)
6fd0e156       W?$dt:istream$:std$n()_
Module: /mnt/sda5/.user/root/src/openwatcom-1.9/bld/plusplus/cpplib/winnt.386/mf_rmtd.dll/plbxmt3r.lib(/mnt/sda5/.user/root/src/openwatcom-1.9/bld/plusplus/cpplib/iostream/cpp/istdipfx.cpp)
6fd0e29a       W?do_ipfx$:istream$:std$n(i)i
Module: /mnt/sda5/.user/root/src/openwatcom-1.9/bld/plusplus/cpplib/winnt.386/mf_rmtd.dll/plbxmt3r.lib(/mnt/sda5/.user/root/src/openwatcom-1.9/bld/plusplus/cpplib/iostream/cpp/istdoget.cpp)
6fd0e582       W?do_get$:istream$:std$n(rna)rn$1:2$
Module: /mnt/sda5/.user/root/src/openwatcom-1.9/bld/plusplus/cpplib/winnt.386/mf_rmtd.dll/plbxmt3r.lib(/mnt/sda5/.user/root/src/openwatcom-1.9/bld/plusplus/cpplib/iostream/cpp/istdread.cpp)
6fd0e7b0       W?do_read$:istream$:std$n(pnai)rn$1:2$
Module: /mnt/sda5/.user/root/src/openwatcom-1.9/bld/plusplus/cpplib/winnt.386/mf_rmtd.dll/plbxmt3r.lib(/mnt/sda5/.user/root/src/openwatcom-1.9/bld/plusplus/cpplib/iostream/cpp/istdrshf.cpp)
6fd0eaf8       W?do_rshift$:istream$:std$n(rna)rn$1:2$
Module: /mnt/sda5/.user/root/src/openwatcom-1.9/bld/plusplus/cpplib/winnt.386/mf_rmtd.dll/plbxmt3r.lib(/mnt/sda5/.user/root/src/openwatcom-1.9/bld/plusplus/cpplib/iostream/cpp/isteatwh.cpp)
6fd0ed12       W?eatwhite$:istream$:std$n()v
Module: /mnt/sda5/.user/root/src/openwatcom-1.9/bld/plusplus/cpplib/winnt.386/mf_rmtd.dll/plbxmt3r.lib(/mnt/sda5/.user/root/src/openwatcom-1.9/bld/plusplus/cpplib/iostream/cpp/istexcha.cpp)
6fd0edde       W?$oa:istream$:std$n(rna)rn$0:1$
Module: /mnt/sda5/.user/root/src/openwatcom-1.9/bld/plusplus/cpplib/winnt.386/mf_rmtd.dll/plbxmt3r.lib(/mnt/sda5/.user/root/src/openwatcom-1.9/bld/plusplus/cpplib/iostream/cpp/istexi64.cpp)
6fd0f2a6       W?$oa:istream$:std$n(rnz)rn$0:1$
Module: /mnt/sda5/.user/root/src/openwatcom-1.9/bld/plusplus/cpplib/winnt.386/mf_rmtd.dll/plbxmt3r.lib(/mnt/sda5/.user/root/src/openwatcom-1.9/bld/plusplus/cpplib/iostream/cpp/isteximn.cpp)
6fd0f4f4       W?$oa:istream$:std$n(pn(rn$0:1$)rn$0:1$)rn$0:1$
Module: /mnt/sda5/.user/root/src/openwatcom-1.9/bld/plusplus/cpplib/winnt.386/mf_rmtd.dll/plbxmt3r.lib(/mnt/sda5/.user/root/src/openwatcom-1.9/bld/plusplus/cpplib/iostream/cpp/istexiom.cpp)
6fd0f523       W?$oa:istream$:std$n(pn(rn$ios$:1$)rn$2:1$)rn$0:1$
Module: /mnt/sda5/.user/root/src/openwatcom-1.9/bld/plusplus/cpplib/winnt.386/mf_rmtd.dll/plbxmt3r.lib(/mnt/sda5/.user/root/src/openwatcom-1.9/bld/plusplus/cpplib/iostream/cpp/istexpch.cpp)
6fd0f565       W?$oa:istream$:std$n(pna)rn$0:1$
Module: /mnt/sda5/.user/root/src/openwatcom-1.9/bld/plusplus/cpplib/winnt.386/mf_rmtd.dll/plbxmt3r.lib(/mnt/sda5/.user/root/src/openwatcom-1.9/bld/plusplus/cpplib/iostream/cpp/istexsin.cpp)
6fd0fb4e       W?$oa:istream$:std$n(rni)rn$0:1$
Module: /mnt/sda5/.user/root/src/openwatcom-1.9/bld/plusplus/cpplib/winnt.386/mf_rmtd.dll/plbxmt3r.lib(/mnt/sda5/.user/root/src/openwatcom-1.9/bld/plusplus/cpplib/iostream/cpp/istexslo.cpp)
6fd0fd83       W?$oa:istream$:std$n(rnl)rn$0:1$
Module: /mnt/sda5/.user/root/src/openwatcom-1.9/bld/plusplus/cpplib/winnt.386/mf_rmtd.dll/plbxmt3r.lib(/mnt/sda5/.user/root/src/openwatcom-1.9/bld/plusplus/cpplib/iostream/cpp/istexssh.cpp)
6fd0ffb8       W?$oa:istream$:std$n(rns)rn$0:1$
Module: /mnt/sda5/.user/root/src/openwatcom-1.9/bld/plusplus/cpplib/winnt.386/mf_rmtd.dll/plbxmt3r.lib(/mnt/sda5/.user/root/src/openwatcom-1.9/bld/plusplus/cpplib/iostream/cpp/istexstf.cpp)
6fd2f690       W?$Wcm015$nx[]uc
6fd101ee       W?$oa:istream$:std$n(pn$streambuf$:1$)rn$0:1$
Module: /mnt/sda5/.user/root/src/openwatcom-1.9/bld/plusplus/cpplib/winnt.386/mf_rmtd.dll/plbxmt3r.lib(/mnt/sda5/.user/root/src/openwatcom-1.9/bld/plusplus/cpplib/iostream/cpp/istexu64.cpp)
6fd107a8       W?$oa:istream$:std$n(rnuz)rn$0:1$
Module: /mnt/sda5/.user/root/src/openwatcom-1.9/bld/plusplus/cpplib/winnt.386/mf_rmtd.dll/plbxmt3r.lib(/mnt/sda5/.user/root/src/openwatcom-1.9/bld/plusplus/cpplib/iostream/cpp/istexuin.cpp)
6fd109f3       W?$oa:istream$:std$n(rnui)rn$0:1$
Module: /mnt/sda5/.user/root/src/openwatcom-1.9/bld/plusplus/cpplib/winnt.386/mf_rmtd.dll/plbxmt3r.lib(/mnt/sda5/.user/root/src/openwatcom-1.9/bld/plusplus/cpplib/iostream/cpp/istexulo.cpp)
6fd10c28       W?$oa:istream$:std$n(rnul)rn$0:1$
Module: /mnt/sda5/.user/root/src/openwatcom-1.9/bld/plusplus/cpplib/winnt.386/mf_rmtd.dll/plbxmt3r.lib(/mnt/sda5/.user/root/src/openwatcom-1.9/bld/plusplus/cpplib/iostream/cpp/istexush.cpp)
6fd10e5d       W?$oa:istream$:std$n(rnus)rn$0:1$
Module: /mnt/sda5/.user/root/src/openwatcom-1.9/bld/plusplus/cpplib/winnt.386/mf_rmtd.dll/plbxmt3r.lib(/mnt/sda5/.user/root/src/openwatcom-1.9/bld/plusplus/cpplib/iostream/cpp/istgch.cpp)
6fd11093       W?get$:istream$:std$n(rna)rn$1:2$
Module: /mnt/sda5/.user/root/src/openwatcom-1.9/bld/plusplus/cpplib/winnt.386/mf_rmtd.dll/plbxmt3r.lib(/mnt/sda5/.user/root/src/openwatcom-1.9/bld/plusplus/cpplib/iostream/cpp/istget.cpp)
6fd114f9       W?get$:istream$:std$n()i
Module: /mnt/sda5/.user/root/src/openwatcom-1.9/bld/plusplus/cpplib/winnt.386/mf_rmtd.dll/plbxmt3r.lib(/mnt/sda5/.user/root/src/openwatcom-1.9/bld/plusplus/cpplib/iostream/cpp/istgline.cpp)
6fd1174c       W?getline$:istream$:std$n(pnaia)rn$1:2$
Module: /mnt/sda5/.user/root/src/openwatcom-1.9/bld/plusplus/cpplib/winnt.386/mf_rmtd.dll/plbxmt3r.lib(/mnt/sda5/.user/root/src/openwatcom-1.9/bld/plusplus/cpplib/iostream/cpp/istgpch.cpp)
6fd11869       W?get$:istream$:std$n(pnaia)rn$1:2$
Module: /mnt/sda5/.user/root/src/openwatcom-1.9/bld/plusplus/cpplib/winnt.386/mf_rmtd.dll/plbxmt3r.lib(/mnt/sda5/.user/root/src/openwatcom-1.9/bld/plusplus/cpplib/iostream/cpp/istgstf.cpp)
6fd11986       W?get$:istream$:std$n(rn$streambuf$:2$a)rn$1:2$
Module: /mnt/sda5/.user/root/src/openwatcom-1.9/bld/plusplus/cpplib/winnt.386/mf_rmtd.dll/plbxmt3r.lib(/mnt/sda5/.user/root/src/openwatcom-1.9/bld/plusplus/cpplib/iostream/cpp/istignor.cpp)
6fd11f04       W?ignore$:istream$:std$n(ii)rn$1:2$
Module: /mnt/sda5/.user/root/src/openwatcom-1.9/bld/plusplus/cpplib/winnt.386/mf_rmtd.dll/plbxmt3r.lib(/mnt/sda5/.user/root/src/openwatcom-1.9/bld/plusplus/cpplib/iostream/cpp/istipfx.cpp)
6fd12188       W?ipfx$:istream$:std$n(i)i
Module: /mnt/sda5/.user/root/src/openwatcom-1.9/bld/plusplus/cpplib/winnt.386/mf_rmtd.dll/plbxmt3r.lib(/mnt/sda5/.user/root/src/openwatcom-1.9/bld/plusplus/cpplib/iostream/cpp/istpback.cpp)
6fd12351       W?putback$:istream$:std$n(a)rn$1:2$
Module: /mnt/sda5/.user/root/src/openwatcom-1.9/bld/plusplus/cpplib/winnt.386/mf_rmtd.dll/plbxmt3r.lib(/mnt/sda5/.user/root/src/openwatcom-1.9/bld/plusplus/cpplib/iostream/cpp/istpeek.cpp)
6fd12642       W?peek$:istream$:std$n()i
Module: /mnt/sda5/.user/root/src/openwatcom-1.9/bld/plusplus/cpplib/winnt.386/mf_rmtd.dll/plbxmt3r.lib(/mnt/sda5/.user/root/src/openwatcom-1.9/bld/plusplus/cpplib/iostream/cpp/istread.cpp)
6fd12864       W?read$:istream$:std$n(pnai)rn$1:2$
Module: /mnt/sda5/.user/root/src/openwatcom-1.9/bld/plusplus/cpplib/winnt.386/mf_rmtd.dll/plbxmt3r.lib(/mnt/sda5/.user/root/src/openwatcom-1.9/bld/plusplus/cpplib/iostream/cpp/istsgsto.cpp)
6fd12d6c       W?seekg$:istream$:std$n(li)rn$1:2$
Module: /mnt/sda5/.user/root/src/openwatcom-1.9/bld/plusplus/cpplib/winnt.386/mf_rmtd.dll/plbxmt3r.lib(/mnt/sda5/.user/root/src/openwatcom-1.9/bld/plusplus/cpplib/iostream/cpp/istsgstp.cpp)
6fd12ec8       W?seekg$:istream$:std$n(l)rn$1:2$
Module: /mnt/sda5/.user/root/src/openwatcom-1.9/bld/plusplus/cpplib/winnt.386/mf_rmtd.dll/plbxmt3r.lib(/mnt/sda5/.user/root/src/openwatcom-1.9/bld/plusplus/cpplib/iostream/cpp/istsync.cpp)
6fd13022       W?sync$:istream$:std$n()i
Module: /mnt/sda5/.user/root/src/openwatcom-1.9/bld/plusplus/cpplib/winnt.386/mf_rmtd.dll/plbxmt3r.lib(/mnt/sda5/.user/root/src/openwatcom-1.9/bld/plusplus/cpplib/iostream/cpp/isttellg.cpp)
6fd1307f       W?tellg$:istream$:std$n()l
Module: /mnt/sda5/.user/root/src/openwatcom-1.9/bld/plusplus/cpplib/winnt.386/mf_rmtd.dll/plbxmt3r.lib(/mnt/sda5/.user/root/src/openwatcom-1.9/bld/plusplus/cpplib/iostream/cpp/mandec.cpp)
6fd131f2       W?dec$:std$n(rn$ios$:1$)rn$2:1$
Module: /mnt/sda5/.user/root/src/openwatcom-1.9/bld/plusplus/cpplib/winnt.386/mf_rmtd.dll/plbxmt3r.lib(/mnt/sda5/.user/root/src/openwatcom-1.9/bld/plusplus/cpplib/iostream/cpp/manendl.cpp)
6fd13277       W?endl$:std$n(rn$ostream$:1$)rn$2:1$
Module: /mnt/sda5/.user/root/src/openwatcom-1.9/bld/plusplus/cpplib/winnt.386/mf_rmtd.dll/plbxmt3r.lib(/mnt/sda5/.user/root/src/openwatcom-1.9/bld/plusplus/cpplib/iostream/cpp/manends.cpp)
6fd1336d       W?ends$:std$n(rn$ostream$:1$)rn$2:1$
Module: /mnt/sda5/.user/root/src/openwatcom-1.9/bld/plusplus/cpplib/winnt.386/mf_rmtd.dll/plbxmt3r.lib(/mnt/sda5/.user/root/src/openwatcom-1.9/bld/plusplus/cpplib/iostream/cpp/manflush.cpp)
6fd133a2       W?flush$:std$n(rn$ostream$:1$)rn$2:1$
Module: /mnt/sda5/.user/root/src/openwatcom-1.9/bld/plusplus/cpplib/winnt.386/mf_rmtd.dll/plbxmt3r.lib(/mnt/sda5/.user/root/src/openwatcom-1.9/bld/plusplus/cpplib/iostream/cpp/manhex.cpp)
6fd133d2       W?hex$:std$n(rn$ios$:1$)rn$2:1$
Module: /mnt/sda5/.user/root/src/openwatcom-1.9/bld/plusplus/cpplib/winnt.386/mf_rmtd.dll/plbxmt3r.lib(/mnt/sda5/.user/root/src/openwatcom-1.9/bld/plusplus/cpplib/iostream/cpp/manoct.cpp)
6fd13457       W?oct$:std$n(rn$ios$:1$)rn$2:1$
Module: /mnt/sda5/.user/root/src/openwatcom-1.9/bld/plusplus/cpplib/winnt.386/mf_rmtd.dll/plbxmt3r.lib(/mnt/sda5/.user/root/src/openwatcom-1.9/bld/plusplus/cpplib/iostream/cpp/manriofg.cpp)
6fd33244       W?resetiosflags$:std$n$sapp$::1nl$
Module: /mnt/sda5/.user/root/src/openwatcom-1.9/bld/plusplus/cpplib/winnt.386/mf_rmtd.dll/plbxmt3r.lib(/mnt/sda5/.user/root/src/openwatcom-1.9/bld/plusplus/cpplib/iostream/cpp/mansbase.cpp)
6fd33248       W?setbase$:std$n$sapp$::1ni$
Module: /mnt/sda5/.user/root/src/openwatcom-1.9/bld/plusplus/cpplib/winnt.386/mf_rmtd.dll/plbxmt3r.lib(/mnt/sda5/.user/root/src/openwatcom-1.9/bld/plusplus/cpplib/iostream/cpp/mansetw.cpp)
6fd3324c       W?setw$:std$n$sapp$::1ni$
Module: /mnt/sda5/.user/root/src/openwatcom-1.9/bld/plusplus/cpplib/winnt.386/mf_rmtd.dll/plbxmt3r.lib(/mnt/sda5/.user/root/src/openwatcom-1.9/bld/plusplus/cpplib/iostream/cpp/mansfill.cpp)
6fd33250       W?setfill$:std$n$sapp$::1ni$
Module: /mnt/sda5/.user/root/src/openwatcom-1.9/bld/plusplus/cpplib/winnt.386/mf_rmtd.dll/plbxmt3r.lib(/mnt/sda5/.user/root/src/openwatcom-1.9/bld/plusplus/cpplib/iostream/cpp/mansiofl.cpp)
6fd33254       W?setiosflags$:std$n$sapp$::1nl$
Module: /mnt/sda5/.user/root/src/openwatcom-1.9/bld/plusplus/cpplib/winnt.386/mf_rmtd.dll/plbxmt3r.lib(/mnt/sda5/.user/root/src/openwatcom-1.9/bld/plusplus/cpplib/iostream/cpp/mansprec.cpp)
6fd33258       W?setprecision$:std$n$sapp$::1ni$
Module: /mnt/sda5/.user/root/src/openwatcom-1.9/bld/plusplus/cpplib/winnt.386/mf_rmtd.dll/plbxmt3r.lib(/mnt/sda5/.user/root/src/openwatcom-1.9/bld/plusplus/cpplib/iostream/cpp/manws.cpp)
6fd13ac8       W?ws$:std$n(rn$istream$:1$)rn$2:1$
Module: /mnt/sda5/.user/root/src/openwatcom-1.9/bld/plusplus/cpplib/winnt.386/mf_rmtd.dll/plbxmt3r.lib(/mnt/sda5/.user/root/src/openwatcom-1.9/bld/plusplus/cpplib/iostream/cpp/ofsconde.cpp)
6fd13d4d       W?$Wvt0Y.@dt:ofstream$:std$o26$:0:1$dtn()_$:ostream$:std$n()pnv
6fd2f930       W?$Wvb0Ho0:ofstream$:std$$nx[]ui
6fd2f940       W?$Wvb0Io26:ofstream$:std$$nx[]ui
6fd2f950       W?$Wvf0Io22:ofstream$:std$$nx[]pn()v
6fd2f960       W?$Wvf0Io2a:ofstream$:std$$nx[]pn()v
6fd2f970       W?$Wvf0Io3r:ofstream$:std$$nx[]pn()v
6fd13d7b       W?$Wvt0W.@dt:ofstream$:std$c$:0:1$dtn()_$:ios$:std$n()pnv
6fd2f980       W?$Wva0Ho0:ofstream$:std$$nx[]uc
6fd13c08       W?$ct:ofstream$:std$n()_
6fd31a58       W?$Wti0G$ofstream$:std$$$n[]uc
Module: /mnt/sda5/.user/root/src/openwatcom-1.9/bld/plusplus/cpplib/winnt.386/mf_rmtd.dll/plbxmt3r.lib(/mnt/sda5/.user/root/src/openwatcom-1.9/bld/plusplus/cpplib/iostream/cpp/ofsconfd.cpp)
6fd13dae       W?$ct:ofstream$:std$n(i)_
Module: /mnt/sda5/.user/root/src/openwatcom-1.9/bld/plusplus/cpplib/winnt.386/mf_rmtd.dll/plbxmt3r.lib(/mnt/sda5/.user/root/src/openwatcom-1.9/bld/plusplus/cpplib/iostream/cpp/ofsconnm.cpp)
6fd13ef7       W?$ct:ofstream$:std$n(pnxaii)_
Module: /mnt/sda5/.user/root/src/openwatcom-1.9/bld/plusplus/cpplib/winnt.386/mf_rmtd.dll/plbxmt3r.lib(/mnt/sda5/.user/root/src/openwatcom-1.9/bld/plusplus/cpplib/iostream/cpp/ofsconsf.cpp)
6fd1404d       W?$ct:ofstream$:std$n(ipnai)_
Module: /mnt/sda5/.user/root/src/openwatcom-1.9/bld/plusplus/cpplib/winnt.386/mf_rmtd.dll/plbxmt3r.lib(/mnt/sda5/.user/root/src/openwatcom-1.9/bld/plusplus/cpplib/iostream/cpp/ofsdestr.cpp)
6fd2fb30+      W?$Wts0Hn$ofstream$:std$$$nx[]uc
6fd1434a+      W?.tdtor$:ofstream$:std$n()pnv
6fd141a0       W?$dt:ofstream$:std$n()_
Module: /mnt/sda5/.user/root/src/openwatcom-1.9/bld/plusplus/cpplib/winnt.386/mf_rmtd.dll/plbxmt3r.lib(/mnt/sda5/.user/root/src/openwatcom-1.9/bld/plusplus/cpplib/iostream/cpp/ossconch.cpp)
6fd14506       W?$Wvt0a.@dt:ostrstream$:std$o2a$:0:1$dtn()_$:ostream$:std$n()pnv
6fd2fba0       W?$Wvb0Jo0:ostrstream$:std$$nx[]ui
6fd2fbb0       W?$Wvb0Ko2a:ostrstream$:std$$nx[]ui
6fd2fbc0       W?$Wvf0Ko26:ostrstream$:std$$nx[]pn()v
6fd2fbd0       W?$Wvf0Ko2e:ostrstream$:std$$nx[]pn()v
6fd2fbe0       W?$Wvf0Ko40:ostrstream$:std$$nx[]pn()v
6fd14534       W?$Wvt0Y.@dt:ostrstream$:std$c$:0:1$dtn()_$:ios$:std$n()pnv
6fd2fbf0       W?$Wva0Jo0:ostrstream$:std$$nx[]uc
6fd1437e       W?$ct:ostrstream$:std$n(pnaii)_
6fd31a6d       W?$Wti0I$ostrstream$:std$$$n[]uc
Module: /mnt/sda5/.user/root/src/openwatcom-1.9/bld/plusplus/cpplib/winnt.386/mf_rmtd.dll/plbxmt3r.lib(/mnt/sda5/.user/root/src/openwatcom-1.9/bld/plusplus/cpplib/iostream/cpp/ossconde.cpp)
6fd14567       W?$ct:ostrstream$:std$n()_
Module: /mnt/sda5/.user/root/src/openwatcom-1.9/bld/plusplus/cpplib/winnt.386/mf_rmtd.dll/plbxmt3r.lib(/mnt/sda5/.user/root/src/openwatcom-1.9/bld/plusplus/cpplib/iostream/cpp/ossconsc.cpp)
6fd146ac       W?$ct:ostrstream$:std$n(pncii)_
Module: /mnt/sda5/.user/root/src/openwatcom-1.9/bld/plusplus/cpplib/winnt.386/mf_rmtd.dll/plbxmt3r.lib(/mnt/sda5/.user/root/src/openwatcom-1.9/bld/plusplus/cpplib/iostream/cpp/ossconuc.cpp)
6fd14834       W?$ct:ostrstream$:std$n(pnucii)_
Module: /mnt/sda5/.user/root/src/openwatcom-1.9/bld/plusplus/cpplib/winnt.386/mf_rmtd.dll/plbxmt3r.lib(/mnt/sda5/.user/root/src/openwatcom-1.9/bld/plusplus/cpplib/iostream/cpp/ossdestr.cpp)
6fd2fda0+      W?$Wts0Jn$ostrstream$:std$$$nx[]uc
6fd14b66+      W?.tdtor$:ostrstream$:std$n()pnv
6fd149bc       W?$dt:ostrstream$:std$n()_
Module: /mnt/sda5/.user/root/src/openwatcom-1.9/bld/plusplus/cpplib/winnt.386/mf_rmtd.dll/plbxmt3r.lib(/mnt/sda5/.user/root/src/openwatcom-1.9/bld/plusplus/cpplib/iostream/cpp/ostcoeos.cpp)
6fd14b9a       W?$aa:ostream$:std$n(rnx$0:1$)rn$0:1$
Module: /mnt/sda5/.user/root/src/openwatcom-1.9/bld/plusplus/cpplib/winnt.386/mf_rmtd.dll/plbxmt3r.lib(/mnt/sda5/.user/root/src/openwatcom-1.9/bld/plusplus/cpplib/iostream/cpp/ostcoesf.cpp)
6fd14d3e       W?$aa:ostream$:std$n(pn$streambuf$:1$)rn$0:1$
Module: /mnt/sda5/.user/root/src/openwatcom-1.9/bld/plusplus/cpplib/winnt.386/mf_rmtd.dll/plbxmt3r.lib(/mnt/sda5/.user/root/src/openwatcom-1.9/bld/plusplus/cpplib/iostream/cpp/ostconde.cpp)
6fd2fdf0       W?$Wvb0Go0:ostream$:std$$nx[]ui
6fd2fe00       W?$Wvf0Go4:ostream$:std$$nx[]pn()v
6fd2fe10       W?$Wvf0Ho1l:ostream$:std$$nx[]pn()v
6fd14ec8       W?$Wvt0V.@dt:ostream$:std$c$:0:1$dtn()_$:ios$:std$n()pnv
6fd14e3b       W?$ct:ostream$:std$n()_
6fd2fe20       W?$Wva0Go0:ostream$:std$$nx[]uc
Module: /mnt/sda5/.user/root/src/openwatcom-1.9/bld/plusplus/cpplib/winnt.386/mf_rmtd.dll/plbxmt3r.lib(/mnt/sda5/.user/root/src/openwatcom-1.9/bld/plusplus/cpplib/iostream/cpp/ostconsf.cpp)
6fd14efb       W?$ct:ostream$:std$n(pn$streambuf$:1$)_
Module: /mnt/sda5/.user/root/src/openwatcom-1.9/bld/plusplus/cpplib/winnt.386/mf_rmtd.dll/plbxmt3r.lib(/mnt/sda5/.user/root/src/openwatcom-1.9/bld/plusplus/cpplib/iostream/cpp/ostcoost.cpp)
6fd14ff2       W?$ct:ostream$:std$n(rnx$0:1$)_
Module: /mnt/sda5/.user/root/src/openwatcom-1.9/bld/plusplus/cpplib/winnt.386/mf_rmtd.dll/plbxmt3r.lib(/mnt/sda5/.user/root/src/openwatcom-1.9/bld/plusplus/cpplib/iostream/cpp/ostdestr.cpp)
6fd1516d       W?$dt:ostream$:std$n()_
Module: /mnt/sda5/.user/root/src/openwatcom-1.9/bld/plusplus/cpplib/winnt.386/mf_rmtd.dll/plbxmt3r.lib(/mnt/sda5/.user/root/src/openwatcom-1.9/bld/plusplus/cpplib/iostream/cpp/ostdlshf.cpp)
6fd152b1       W?do_lshift$:ostream$:std$n(a)rn$1:2$
Module: /mnt/sda5/.user/root/src/openwatcom-1.9/bld/plusplus/cpplib/winnt.386/mf_rmtd.dll/plbxmt3r.lib(/mnt/sda5/.user/root/src/openwatcom-1.9/bld/plusplus/cpplib/iostream/cpp/ostflush.cpp)
6fd153c9       W?flush$:ostream$:std$n()rn$1:2$
Module: /mnt/sda5/.user/root/src/openwatcom-1.9/bld/plusplus/cpplib/winnt.386/mf_rmtd.dll/plbxmt3r.lib(/mnt/sda5/.user/root/src/openwatcom-1.9/bld/plusplus/cpplib/iostream/cpp/ostincch.cpp)
6fd15541       W?$ob:ostream$:std$n(pnxa)rn$0:1$
Module: /mnt/sda5/.user/root/src/openwatcom-1.9/bld/plusplus/cpplib/winnt.386/mf_rmtd.dll/plbxmt3r.lib(/mnt/sda5/.user/root/src/openwatcom-1.9/bld/plusplus/cpplib/iostream/cpp/ostincha.cpp)
6fd1590d       W?$ob:ostream$:std$n(a)rn$0:1$
Module: /mnt/sda5/.user/root/src/openwatcom-1.9/bld/plusplus/cpplib/winnt.386/mf_rmtd.dll/plbxmt3r.lib(/mnt/sda5/.user/root/src/openwatcom-1.9/bld/plusplus/cpplib/iostream/cpp/ostini64.cpp)
6fd15ef3       W?$ob:ostream$:std$n(z)rn$0:1$
Module: /mnt/sda5/.user/root/src/openwatcom-1.9/bld/plusplus/cpplib/winnt.386/mf_rmtd.dll/plbxmt3r.lib(/mnt/sda5/.user/root/src/openwatcom-1.9/bld/plusplus/cpplib/iostream/cpp/ostiniom.cpp)
6fd16445       W?$ob:ostream$:std$n(pn(rn$ios$:1$)rn$2:1$)rn$0:1$
Module: /mnt/sda5/.user/root/src/openwatcom-1.9/bld/plusplus/cpplib/winnt.386/mf_rmtd.dll/plbxmt3r.lib(/mnt/sda5/.user/root/src/openwatcom-1.9/bld/plusplus/cpplib/iostream/cpp/ostinomn.cpp)
6fd16487       W?$ob:ostream$:std$n(pn(rn$0:1$)rn$0:1$)rn$0:1$
Module: /mnt/sda5/.user/root/src/openwatcom-1.9/bld/plusplus/cpplib/winnt.386/mf_rmtd.dll/plbxmt3r.lib(/mnt/sda5/.user/root/src/openwatcom-1.9/bld/plusplus/cpplib/iostream/cpp/ostinptr.cpp)
6fd164b6       W?$ob:ostream$:std$n(pnv)rn$0:1$
Module: /mnt/sda5/.user/root/src/openwatcom-1.9/bld/plusplus/cpplib/winnt.386/mf_rmtd.dll/plbxmt3r.lib(/mnt/sda5/.user/root/src/openwatcom-1.9/bld/plusplus/cpplib/iostream/cpp/ostinslo.cpp)
6fd16951       W?$ob:ostream$:std$n(l)rn$0:1$
Module: /mnt/sda5/.user/root/src/openwatcom-1.9/bld/plusplus/cpplib/winnt.386/mf_rmtd.dll/plbxmt3r.lib(/mnt/sda5/.user/root/src/openwatcom-1.9/bld/plusplus/cpplib/iostream/cpp/ostinstf.cpp)
6fd30040+      W?$Wcm016$nx[]uc
6fd16e63       W?$ob:ostream$:std$n(pn$streambuf$:1$)rn$0:1$
Module: /mnt/sda5/.user/root/src/openwatcom-1.9/bld/plusplus/cpplib/winnt.386/mf_rmtd.dll/plbxmt3r.lib(/mnt/sda5/.user/root/src/openwatcom-1.9/bld/plusplus/cpplib/iostream/cpp/ostinu64.cpp)
6fd17507       W?$ob:ostream$:std$n(uz)rn$0:1$
Module: /mnt/sda5/.user/root/src/openwatcom-1.9/bld/plusplus/cpplib/winnt.386/mf_rmtd.dll/plbxmt3r.lib(/mnt/sda5/.user/root/src/openwatcom-1.9/bld/plusplus/cpplib/iostream/cpp/ostinulo.cpp)
6fd17aea       W?$ob:ostream$:std$n(ul)rn$0:1$
Module: /mnt/sda5/.user/root/src/openwatcom-1.9/bld/plusplus/cpplib/winnt.386/mf_rmtd.dll/plbxmt3r.lib(/mnt/sda5/.user/root/src/openwatcom-1.9/bld/plusplus/cpplib/iostream/cpp/ostopfx.cpp)
6fd180a0       W?do_opfx$:ostream$:std$n()i
Module: /mnt/sda5/.user/root/src/openwatcom-1.9/bld/plusplus/cpplib/winnt.386/mf_rmtd.dll/plbxmt3r.lib(/mnt/sda5/.user/root/src/openwatcom-1.9/bld/plusplus/cpplib/iostream/cpp/ostput.cpp)
6fd18265       W?put$:ostream$:std$n(a)rn$1:2$
Module: /mnt/sda5/.user/root/src/openwatcom-1.9/bld/plusplus/cpplib/winnt.386/mf_rmtd.dll/plbxmt3r.lib(/mnt/sda5/.user/root/src/openwatcom-1.9/bld/plusplus/cpplib/iostream/cpp/ostspsto.cpp)
6fd187ee       W?seekp$:ostream$:std$n(li)rn$1:2$
Module: /mnt/sda5/.user/root/src/openwatcom-1.9/bld/plusplus/cpplib/winnt.386/mf_rmtd.dll/plbxmt3r.lib(/mnt/sda5/.user/root/src/openwatcom-1.9/bld/plusplus/cpplib/iostream/cpp/ostspstp.cpp)
6fd18c4c       W?seekp$:ostream$:std$n(l)rn$1:2$
Module: /mnt/sda5/.user/root/src/openwatcom-1.9/bld/plusplus/cpplib/winnt.386/mf_rmtd.dll/plbxmt3r.lib(/mnt/sda5/.user/root/src/openwatcom-1.9/bld/plusplus/cpplib/iostream/cpp/osttellp.cpp)
6fd190a2       W?tellp$:ostream$:std$n()l
Module: /mnt/sda5/.user/root/src/openwatcom-1.9/bld/plusplus/cpplib/winnt.386/mf_rmtd.dll/plbxmt3r.lib(/mnt/sda5/.user/root/src/openwatcom-1.9/bld/plusplus/cpplib/iostream/cpp/ostwrite.cpp)
6fd19215       W?write$:ostream$:std$n(pnxai)rn$1:2$
Module: /mnt/sda5/.user/root/src/openwatcom-1.9/bld/plusplus/cpplib/winnt.386/mf_rmtd.dll/plbxmt3r.lib(/mnt/sda5/.user/root/src/openwatcom-1.9/bld/plusplus/cpplib/iostream/cpp/sdfconde.cpp)
6fd301b0       W?$Wvf0Do19:stdiobuf$$nx[]pn()v
6fd19839       W?$ct:stdiobuf$n()_
6fd301e0       W?$Wva0Co0:stdiobuf$$nx[]uc
Module: /mnt/sda5/.user/root/src/openwatcom-1.9/bld/plusplus/cpplib/winnt.386/mf_rmtd.dll/plbxmt3r.lib(/mnt/sda5/.user/root/src/openwatcom-1.9/bld/plusplus/cpplib/iostream/cpp/sdfconfp.cpp)
6fd1987f       W?$ct:stdiobuf$n(pn$__iobuf$$)_
Module: /mnt/sda5/.user/root/src/openwatcom-1.9/bld/plusplus/cpplib/winnt.386/mf_rmtd.dll/plbxmt3r.lib(/mnt/sda5/.user/root/src/openwatcom-1.9/bld/plusplus/cpplib/iostream/cpp/sdfdestr.cpp)
6fd198cf       W?$dt:stdiobuf$n()_
Module: /mnt/sda5/.user/root/src/openwatcom-1.9/bld/plusplus/cpplib/winnt.386/mf_rmtd.dll/plbxmt3r.lib(/mnt/sda5/.user/root/src/openwatcom-1.9/bld/plusplus/cpplib/iostream/cpp/sdfoverf.cpp)
6fd19a20       W?overflow$:stdiobuf$n(i)i
Module: /mnt/sda5/.user/root/src/openwatcom-1.9/bld/plusplus/cpplib/winnt.386/mf_rmtd.dll/plbxmt3r.lib(/mnt/sda5/.user/root/src/openwatcom-1.9/bld/plusplus/cpplib/iostream/cpp/sdfsync.cpp)
6fd1a4dc       W?sync$:stdiobuf$n()i
Module: /mnt/sda5/.user/root/src/openwatcom-1.9/bld/plusplus/cpplib/winnt.386/mf_rmtd.dll/plbxmt3r.lib(/mnt/sda5/.user/root/src/openwatcom-1.9/bld/plusplus/cpplib/iostream/cpp/sdfundrf.cpp)
6fd1a690       W?underflow$:stdiobuf$n()i
Module: /mnt/sda5/.user/root/src/openwatcom-1.9/bld/plusplus/cpplib/winnt.386/mf_rmtd.dll/plbxmt3r.lib(/mnt/sda5/.user/root/src/openwatcom-1.9/bld/plusplus/cpplib/iostream/cpp/ssbconde.cpp)
6fd302f0       W?$Wvf0Mo19:strstreambuf$:std$$nx[]pn()v
6fd30320       W?$Wvb0Mo0:strstreambase$:std$$nx[]ui
6fd30330       W?$Wvf0No26:strstreambase$:std$$nx[]pn()v
6fd30340       W?$Wvf0No3n:strstreambase$:std$$nx[]pn()v
6fd30350       W?$Wva0Mo0:strstreambase$:std$$nx[]uc
6fd31a84       W?$Wti0K$strstreambuf$:std$$$n[]uc
6fd1b1b3       W?$Wvt0b.@dt:strstreambase$:std$c$:0:1$dtn()_$:ios$:std$n()pnv
6fd1b1e6       W?.tdtor$:strstreambuf$:std$n()pnv
6fd30380       W?$Wva0Lo0:strstreambuf$:std$$nx[]uc
6fd1b038       W?$ct:strstreambase$:std$n()_
Module: /mnt/sda5/.user/root/src/openwatcom-1.9/bld/plusplus/cpplib/winnt.386/mf_rmtd.dll/plbxmt3r.lib(/mnt/sda5/.user/root/src/openwatcom-1.9/bld/plusplus/cpplib/iostream/cpp/ssbconsz.cpp)
6fd1b21a       W?$ct:strstreambase$:std$n(pnaipna)_
Module: /mnt/sda5/.user/root/src/openwatcom-1.9/bld/plusplus/cpplib/winnt.386/mf_rmtd.dll/plbxmt3r.lib(/mnt/sda5/.user/root/src/openwatcom-1.9/bld/plusplus/cpplib/iostream/cpp/ssbdestr.cpp)
6fd30450+      W?$Wts0Mn$strstreambase$:std$$$nx[]uc
6fd1b3ae       W?$dt:strstreambase$:std$n()_
Module: /mnt/sda5/.user/root/src/openwatcom-1.9/bld/plusplus/cpplib/winnt.386/mf_rmtd.dll/plbxmt3r.lib(/mnt/sda5/.user/root/src/openwatcom-1.9/bld/plusplus/cpplib/iostream/cpp/ssfdestr.cpp)
6fd1b68a       W?$ct:strstreambuf$:std$n()_
6fd304d0+      W?$Wts0Ln$strstreambuf$:std$$$nx[]uc
6fd1b526       W?$dt:strstreambuf$:std$n()_
Module: /mnt/sda5/.user/root/src/openwatcom-1.9/bld/plusplus/cpplib/winnt.386/mf_rmtd.dll/plbxmt3r.lib(/mnt/sda5/.user/root/src/openwatcom-1.9/bld/plusplus/cpplib/iostream/cpp/ssfdoall.cpp)
6fd1b72a       W?doallocate$:strstreambuf$:std$n()i
Module: /mnt/sda5/.user/root/src/openwatcom-1.9/bld/plusplus/cpplib/winnt.386/mf_rmtd.dll/plbxmt3r.lib(/mnt/sda5/.user/root/src/openwatcom-1.9/bld/plusplus/cpplib/iostream/cpp/ssfempsf.cpp)
6fd1bce3       W?$ct:strstreambuf$:std$n(pn(l)pnvpn(pnv)v)_
Module: /mnt/sda5/.user/root/src/openwatcom-1.9/bld/plusplus/cpplib/winnt.386/mf_rmtd.dll/plbxmt3r.lib(/mnt/sda5/.user/root/src/openwatcom-1.9/bld/plusplus/cpplib/iostream/cpp/ssfempsz.cpp)
6fd1bd97       W?$ct:strstreambuf$:std$n(i)_
Module: /mnt/sda5/.user/root/src/openwatcom-1.9/bld/plusplus/cpplib/winnt.386/mf_rmtd.dll/plbxmt3r.lib(/mnt/sda5/.user/root/src/openwatcom-1.9/bld/plusplus/cpplib/iostream/cpp/ssfoverf.cpp)
6fd1be41       W?overflow$:strstreambuf$:std$n(i)i
Module: /mnt/sda5/.user/root/src/openwatcom-1.9/bld/plusplus/cpplib/winnt.386/mf_rmtd.dll/plbxmt3r.lib(/mnt/sda5/.user/root/src/openwatcom-1.9/bld/plusplus/cpplib/iostream/cpp/ssfseeko.cpp)
6fd1c14f       W?seekoff$:strstreambuf$:std$n(lii)l
Module: /mnt/sda5/.user/root/src/openwatcom-1.9/bld/plusplus/cpplib/winnt.386/mf_rmtd.dll/plbxmt3r.lib(/mnt/sda5/.user/root/src/openwatcom-1.9/bld/plusplus/cpplib/iostream/cpp/ssfsetbf.cpp)
6fd1c6a3       W?setbuf$:strstreambuf$:std$n(pnai)pn$streambuf$:2$
Module: /mnt/sda5/.user/root/src/openwatcom-1.9/bld/plusplus/cpplib/winnt.386/mf_rmtd.dll/plbxmt3r.lib(/mnt/sda5/.user/root/src/openwatcom-1.9/bld/plusplus/cpplib/iostream/cpp/ssfstbuf.cpp)
6fd1c705       W?__strstreambuf$:strstreambuf$:std$n(pnaipna)v
Module: /mnt/sda5/.user/root/src/openwatcom-1.9/bld/plusplus/cpplib/winnt.386/mf_rmtd.dll/plbxmt3r.lib(/mnt/sda5/.user/root/src/openwatcom-1.9/bld/plusplus/cpplib/iostream/cpp/ssfstr.cpp)
6fd1c996       W?str$:strstreambuf$:std$n()pna
Module: /mnt/sda5/.user/root/src/openwatcom-1.9/bld/plusplus/cpplib/winnt.386/mf_rmtd.dll/plbxmt3r.lib(/mnt/sda5/.user/root/src/openwatcom-1.9/bld/plusplus/cpplib/iostream/cpp/ssfsync.cpp)
6fd1cccb       W?sync$:strstreambuf$:std$n()i
Module: /mnt/sda5/.user/root/src/openwatcom-1.9/bld/plusplus/cpplib/winnt.386/mf_rmtd.dll/plbxmt3r.lib(/mnt/sda5/.user/root/src/openwatcom-1.9/bld/plusplus/cpplib/iostream/cpp/ssfundrf.cpp)
6fd1ccf7       W?underflow$:strstreambuf$:std$n()i
Module: /mnt/sda5/.user/root/src/openwatcom-1.9/bld/plusplus/cpplib/winnt.386/mf_rmtd.dll/plbxmt3r.lib(/mnt/sda5/.user/root/src/openwatcom-1.9/bld/plusplus/cpplib/iostream/cpp/sstconch.cpp)
6fd1d2e5       W?$Wvt0Z.@dt:strstream$:std$o2a$:0:1$dtn()_$:iostream$:std$n()pnv
6fd1d313       W?$Wvt0Z.@dt:strstream$:std$o2m$:0:1$dtn()_$:ostream$:std$n()pnv
6fd305e0       W?$Wvb0Io0:strstream$:std$$nx[]ui
6fd305f0       W?$Wvb0Jo2a:strstream$:std$$nx[]ui
6fd30600       W?$Wvb0Jo2m:strstream$:std$$nx[]ui
6fd30610       W?$Wvf0Jo26:strstream$:std$$nx[]pn()v
6fd30620       W?$Wvf0Jo2i:strstream$:std$$nx[]pn()v
6fd30630       W?$Wvf0Jo2q:strstream$:std$$nx[]pn()v
6fd30640       W?$Wvf0Jo4c:strstream$:std$$nx[]pn()v
6fd1d341       W?$Wvt0X.@dt:strstream$:std$c$:0:1$dtn()_$:ios$:std$n()pnv
6fd30650       W?$Wva0Io0:strstream$:std$$nx[]uc
6fd1d149       W?$ct:strstream$:std$n(pnaii)_
6fd31a9d       W?$Wti0H$strstream$:std$$$n[]uc
Module: /mnt/sda5/.user/root/src/openwatcom-1.9/bld/plusplus/cpplib/winnt.386/mf_rmtd.dll/plbxmt3r.lib(/mnt/sda5/.user/root/src/openwatcom-1.9/bld/plusplus/cpplib/iostream/cpp/sstconde.cpp)
6fd1d374       W?$ct:strstream$:std$n()_
Module: /mnt/sda5/.user/root/src/openwatcom-1.9/bld/plusplus/cpplib/winnt.386/mf_rmtd.dll/plbxmt3r.lib(/mnt/sda5/.user/root/src/openwatcom-1.9/bld/plusplus/cpplib/iostream/cpp/sstconsc.cpp)
6fd1d4cd       W?$ct:strstream$:std$n(pncii)_
Module: /mnt/sda5/.user/root/src/openwatcom-1.9/bld/plusplus/cpplib/winnt.386/mf_rmtd.dll/plbxmt3r.lib(/mnt/sda5/.user/root/src/openwatcom-1.9/bld/plusplus/cpplib/iostream/cpp/sstconuc.cpp)
6fd1d669       W?$ct:strstream$:std$n(pnucii)_
Module: /mnt/sda5/.user/root/src/openwatcom-1.9/bld/plusplus/cpplib/winnt.386/mf_rmtd.dll/plbxmt3r.lib(/mnt/sda5/.user/root/src/openwatcom-1.9/bld/plusplus/cpplib/iostream/cpp/sstdestr.cpp)
6fd30820+      W?$Wts0In$strstream$:std$$$nx[]uc
6fd1d9b9+      W?.tdtor$:strstream$:std$n()pnv
6fd1d805       W?$dt:strstream$:std$n()_
Module: /mnt/sda5/.user/root/src/openwatcom-1.9/bld/plusplus/cpplib/winnt.386/mf_rmtd.dll/plbxmt3r.lib(/mnt/sda5/.user/root/src/openwatcom-1.9/bld/plusplus/cpplib/iostream/cpp/stfconb.cpp)
6fd30840       W?$Wvf0Jo19:streambuf$:std$$nx[]pn()v
6fd1d9ed       W?$ct:streambuf$:std$n(pnai)_
6fd30870       W?$Wva0Io0:streambuf$:std$$nx[]uc
Module: /mnt/sda5/.user/root/src/openwatcom-1.9/bld/plusplus/cpplib/winnt.386/mf_rmtd.dll/plbxmt3r.lib(/mnt/sda5/.user/root/src/openwatcom-1.9/bld/plusplus/cpplib/iostream/cpp/stfconde.cpp)
6fd1da9c       W?$ct:streambuf$:std$n()_
Module: /mnt/sda5/.user/root/src/openwatcom-1.9/bld/plusplus/cpplib/winnt.386/mf_rmtd.dll/plbxmt3r.lib(/mnt/sda5/.user/root/src/openwatcom-1.9/bld/plusplus/cpplib/iostream/cpp/stfdbp.cpp)
6fd1db3b       W?dbp$:streambuf$:std$n()v
Module: /mnt/sda5/.user/root/src/openwatcom-1.9/bld/plusplus/cpplib/winnt.386/mf_rmtd.dll/plbxmt3r.lib(/mnt/sda5/.user/root/src/openwatcom-1.9/bld/plusplus/cpplib/iostream/cpp/stfdestr.cpp)
6fd1dbb7       W?$dt:streambuf$:std$n()_
Module: /mnt/sda5/.user/root/src/openwatcom-1.9/bld/plusplus/cpplib/winnt.386/mf_rmtd.dll/plbxmt3r.lib(/mnt/sda5/.user/root/src/openwatcom-1.9/bld/plusplus/cpplib/iostream/cpp/stfdoall.cpp)
6fd1dc02       W?doallocate$:streambuf$:std$n()i
Module: /mnt/sda5/.user/root/src/openwatcom-1.9/bld/plusplus/cpplib/winnt.386/mf_rmtd.dll/plbxmt3r.lib(/mnt/sda5/.user/root/src/openwatcom-1.9/bld/plusplus/cpplib/iostream/cpp/stfdsgtn.cpp)
6fd1dd25       W?do_sgetn$:streambuf$:std$n(pnai)i
Module: /mnt/sda5/.user/root/src/openwatcom-1.9/bld/plusplus/cpplib/winnt.386/mf_rmtd.dll/plbxmt3r.lib(/mnt/sda5/.user/root/src/openwatcom-1.9/bld/plusplus/cpplib/iostream/cpp/stfdspun.cpp)
6fd1df19       W?do_sputn$:streambuf$:std$n(pnxai)i
Module: /mnt/sda5/.user/root/src/openwatcom-1.9/bld/plusplus/cpplib/winnt.386/mf_rmtd.dll/plbxmt3r.lib(/mnt/sda5/.user/root/src/openwatcom-1.9/bld/plusplus/cpplib/iostream/cpp/stfpbfai.cpp)
6fd1e1d8       W?pbackfail$:streambuf$:std$n(i)i
Module: /mnt/sda5/.user/root/src/openwatcom-1.9/bld/plusplus/cpplib/winnt.386/mf_rmtd.dll/plbxmt3r.lib(/mnt/sda5/.user/root/src/openwatcom-1.9/bld/plusplus/cpplib/iostream/cpp/stfsbuf.cpp)
6fd1e205       W?setbuf$:streambuf$:std$n(pnai)pn$1:2$
Module: /mnt/sda5/.user/root/src/openwatcom-1.9/bld/plusplus/cpplib/winnt.386/mf_rmtd.dll/plbxmt3r.lib(/mnt/sda5/.user/root/src/openwatcom-1.9/bld/plusplus/cpplib/iostream/cpp/stfseeko.cpp)
6fd1e37c       W?seekoff$:streambuf$:std$n(lii)l
Module: /mnt/sda5/.user/root/src/openwatcom-1.9/bld/plusplus/cpplib/winnt.386/mf_rmtd.dll/plbxmt3r.lib(/mnt/sda5/.user/root/src/openwatcom-1.9/bld/plusplus/cpplib/iostream/cpp/stfseekp.cpp)
6fd1e3ab       W?seekpos$:streambuf$:std$n(li)l
Module: /mnt/sda5/.user/root/src/openwatcom-1.9/bld/plusplus/cpplib/winnt.386/mf_rmtd.dll/plbxmt3r.lib(/mnt/sda5/.user/root/src/openwatcom-1.9/bld/plusplus/cpplib/iostream/cpp/stfsetb.cpp)
6fd1e3ef       W?setb$:streambuf$:std$n(pnapnai)v
Module: /mnt/sda5/.user/root/src/openwatcom-1.9/bld/plusplus/cpplib/winnt.386/mf_rmtd.dll/plbxmt3r.lib(/mnt/sda5/.user/root/src/openwatcom-1.9/bld/plusplus/cpplib/iostream/cpp/stfsync.cpp)
6fd1e535       W?sync$:streambuf$:std$n()i
Module: /mnt/sda5/.user/root/src/openwatcom-1.9/bld/plusplus/cpplib/winnt.386/mf_rmtd.dll/plbxmt3r.lib(/mnt/sda5/.user/root/src/openwatcom-1.9/bld/plusplus/cpplib/string/cpp/allocrep.cpp)
6fd1e5ee       W?__AllocStringRep$:String$n(pn$StringRep$:1$ui)pn$2:1$
6fd31ab4       W?__string_mult_size$:String$nui
6fd3325c       W?_AllocCount$ni
Module: /mnt/sda5/.user/root/src/openwatcom-1.9/bld/plusplus/cpplib/winnt.386/mf_rmtd.dll/plbxmt3r.lib(/mnt/sda5/.user/root/src/openwatcom-1.9/bld/plusplus/cpplib/string/cpp/allomusz.cpp)
6fd1e67c       W?alloc_mult_size$:String$n(i)i
Module: /mnt/sda5/.user/root/src/openwatcom-1.9/bld/plusplus/cpplib/winnt.386/mf_rmtd.dll/plbxmt3r.lib(/mnt/sda5/.user/root/src/openwatcom-1.9/bld/plusplus/cpplib/string/cpp/constrch.cpp)
6fd1e6cd       W?$ct:String$n(aui)_
Module: /mnt/sda5/.user/root/src/openwatcom-1.9/bld/plusplus/cpplib/winnt.386/mf_rmtd.dll/plbxmt3r.lib(/mnt/sda5/.user/root/src/openwatcom-1.9/bld/plusplus/cpplib/string/cpp/destruct.cpp)
6fd1e762       W?$dt:String$n()_
6fd33260       W?_CStrAllocCount$ni
Module: /mnt/sda5/.user/root/src/openwatcom-1.9/bld/plusplus/cpplib/winnt.386/mf_rmtd.dll/plbxmt3r.lib(/mnt/sda5/.user/root/src/openwatcom-1.9/bld/plusplus/cpplib/string/cpp/opcostsc.cpp)
6fd1e7b1       W?$cv:String$n.x()a
Module: /mnt/sda5/.user/root/src/openwatcom-1.9/bld/plusplus/cpplib/winnt.386/mf_rmtd.dll/plbxmt3r.lib(/mnt/sda5/.user/root/src/openwatcom-1.9/bld/plusplus/cpplib/string/cpp/opasstcs.cpp)
6fd1e7fe       W?$aa:String$n(pnxa)rn$0$
Module: /mnt/sda5/.user/root/src/openwatcom-1.9/bld/plusplus/cpplib/winnt.386/mf_rmtd.dll/plbxmt3r.lib(/mnt/sda5/.user/root/src/openwatcom-1.9/bld/plusplus/cpplib/string/cpp/opappcst.cpp)
6fd1e8a7       W?$ac:String$n(pnxa)rn$0$
Module: /mnt/sda5/.user/root/src/openwatcom-1.9/bld/plusplus/cpplib/winnt.386/mf_rmtd.dll/plbxmt3r.lib(/mnt/sda5/.user/root/src/openwatcom-1.9/bld/plusplus/cpplib/string/cpp/opsubstr.cpp)
6fd1ea9a       W?.tdtor$:String$n()pnv
6fd30950       W?$Wts0An$String$$$nx[]uc
6fd1e92f       W?$op:String$n.x(uiui)$0$
6fd31ab8       W?$Wti09$String$$$n[]uc
Module: /mnt/sda5/.user/root/src/openwatcom-1.9/bld/plusplus/cpplib/winnt.386/mf_rmtd.dll/plbxmt3r.lib(/mnt/sda5/.user/root/src/openwatcom-1.9/bld/plusplus/cpplib/string/cpp/oprfchar.cpp)
6fd1eace       W?$op:String$n(ui)rna
6fd33264       W?__ref_char$:String$na
Module: /mnt/sda5/.user/root/src/openwatcom-1.9/bld/plusplus/cpplib/winnt.386/mf_rmtd.dll/plbxmt3r.lib(/mnt/sda5/.user/root/src/openwatcom-1.9/bld/plusplus/cpplib/string/cpp/zapcase.cpp)
6fd1eba6       W?__ZapCase$:String$n.x(pn(i)i)$1$
Module: /mnt/sda5/.user/root/src/openwatcom-1.9/bld/plusplus/cpplib/winnt.386/mf_rmtd.dll/plbxmt3r.lib(/mnt/sda5/.user/root/src/openwatcom-1.9/bld/plusplus/cpplib/string/cpp/compstr.cpp)
6fd1ecf7       W?__CompareStrings$:String$n(rnx$1$rnx$1$)i
Module: /mnt/sda5/.user/root/src/openwatcom-1.9/bld/plusplus/cpplib/winnt.386/mf_rmtd.dll/plbxmt3r.lib(/mnt/sda5/.user/root/src/openwatcom-1.9/bld/plusplus/cpplib/string/cpp/opeqchst.cpp)
6fd1ed84       W?$ran(pnxarnx$String$$)i
Module: /mnt/sda5/.user/root/src/openwatcom-1.9/bld/plusplus/cpplib/winnt.386/mf_rmtd.dll/plbxmt3r.lib(/mnt/sda5/.user/root/src/openwatcom-1.9/bld/plusplus/cpplib/string/cpp/opnechst.cpp)
6fd1ede5       W?$rbn(pnxarnx$String$$)i
Module: /mnt/sda5/.user/root/src/openwatcom-1.9/bld/plusplus/cpplib/winnt.386/mf_rmtd.dll/plbxmt3r.lib(/mnt/sda5/.user/root/src/openwatcom-1.9/bld/plusplus/cpplib/string/cpp/oplqchst.cpp)
6fd1ee46       W?$rdn(pnxarnx$String$$)i
Module: /mnt/sda5/.user/root/src/openwatcom-1.9/bld/plusplus/cpplib/winnt.386/mf_rmtd.dll/plbxmt3r.lib(/mnt/sda5/.user/root/src/openwatcom-1.9/bld/plusplus/cpplib/string/cpp/opgrchst.cpp)
6fd1eea7       W?$ren(pnxarnx$String$$)i
Module: /mnt/sda5/.user/root/src/openwatcom-1.9/bld/plusplus/cpplib/winnt.386/mf_rmtd.dll/plbxmt3r.lib(/mnt/sda5/.user/root/src/openwatcom-1.9/bld/plusplus/cpplib/string/cpp/opgqchst.cpp)
6fd1ef08       W?$rfn(pnxarnx$String$$)i
Module: /mnt/sda5/.user/root/src/openwatcom-1.9/bld/plusplus/cpplib/winnt.386/mf_rmtd.dll/plbxmt3r.lib(/mnt/sda5/.user/root/src/openwatcom-1.9/bld/plusplus/cpplib/string/cpp/opcachst.cpp)
6fd1ef69       W?$ojn(pnxarnx$String$$)$0$
Module: /mnt/sda5/.user/root/src/openwatcom-1.9/bld/plusplus/cpplib/winnt.386/mf_rmtd.dll/plbxmt3r.lib(/mnt/sda5/.user/root/src/openwatcom-1.9/bld/plusplus/cpplib/string/cpp/opinput.cpp)
6fd1f182       W?$oan(rn$istream$:std$$rn$String$$)rn$0:1$
Module: /mnt/sda5/.user/root/src/openwatcom-1.9/bld/plusplus/cpplib/winnt.386/mf_rmtd.dll/plbxmt3r.lib(/mnt/sda5/.user/root/src/openwatcom-1.9/bld/plusplus/cpplib/string/cpp/opoutput.cpp)
6fd1f2fd       W?$obn(rn$ostream$:std$$rnx$String$$)rn$0:1$
Module: /mnt/sda5/.user/root/src/openwatcom-1.9/bld/plusplus/cpplib/winnt.386/mf_rmtd.dll/plbxmt3r.lib(/mnt/sda5/.user/root/src/openwatcom-1.9/bld/plusplus/cpplib/string/cpp/matchcst.cpp)
6fd1f34e       W?match$:String$n.x(pnxa)i
Module: /mnt/sda5/.user/root/src/openwatcom-1.9/bld/plusplus/cpplib/winnt.386/mf_rmtd.dll/plbxmt3r.lib(/mnt/sda5/.user/root/src/openwatcom-1.9/bld/plusplus/cpplib/string/cpp/joinstr.cpp)
6fd1f3b7       W?__JoinStrings$:String$n(pnxauipnxaui)v
Module: /mnt/sda5/.user/root/src/openwatcom-1.9/bld/plusplus/cpplib/winnt.386/mf_rmtd.dll/plbxmt3r.lib(/mnt/sda5/.user/root/src/openwatcom-1.9/bld/plusplus/cpplib/string/cpp/freestr.cpp)
6fd1f471       W?__FreeStringRep$:String$n()v
Module: /mnt/sda5/.user/root/src/openwatcom-1.9/bld/plusplus/cpplib/winnt.386/mf_rmtd.dll/plbxmt3r.lib(/mnt/sda5/.user/root/src/openwatcom-1.9/bld/plusplus/cpplib/string/cpp/indexcha.cpp)
6fd1f4da       W?index$:String$n.x(pnxaui)i
Module: /mnt/sda5/.user/root/src/openwatcom-1.9/bld/plusplus/cpplib/winnt.386/mf_rmtd.dll/plbxmt3r.lib(/mnt/sda5/.user/root/src/openwatcom-1.9/bld/plusplus/cpplib/string/cpp/appendst.cpp)
6fd1f57b       W?__AppendToStringRep$:String$n(rnx$1$pnxaui)v
Module: /mnt/sda5/.user/root/src/openwatcom-1.9/bld/plusplus/cpplib/winnt.386/mf_rmtd.dll/plbxmt3r.lib(/mnt/sda5/.user/root/src/openwatcom-1.9/bld/plusplus/cpplib/string/cpp/indexstr.cpp)
6fd1f714       W?index$:String$n.x(rnx$1$ui)i
Module: /mnt/sda5/.user/root/src/openwatcom-1.9/bld/plusplus/cpplib/winnt.386/mf_rmtd.dll/plbxmt3r.lib(/mnt/sda5/.user/root/src/openwatcom-1.9/bld/plusplus/cpplib/string/cpp/condefau.cpp)
6fd1f7bd       W?$ct:String$n()_
Module: /mnt/sda5/.user/root/src/openwatcom-1.9/bld/plusplus/cpplib/winnt.386/mf_rmtd.dll/plbxmt3r.lib(/mnt/sda5/.user/root/src/openwatcom-1.9/bld/plusplus/cpplib/string/cpp/constrst.cpp)
6fd1f816       W?$ct:String$n(rnx$0$uiui)_
Module: /mnt/sda5/.user/root/src/openwatcom-1.9/bld/plusplus/cpplib/winnt.386/mf_rmtd.dll/plbxmt3r.lib(/mnt/sda5/.user/root/src/openwatcom-1.9/bld/plusplus/cpplib/string/cpp/constcst.cpp)
6fd1f8d4       W?$ct:String$n(pnxaui)_
Module: /mnt/sda5/.user/root/src/openwatcom-1.9/bld/plusplus/cpplib/winnt.386/mf_rmtd.dll/plbxmt3r.lib(/mnt/sda5/.user/root/src/openwatcom-1.9/bld/plusplus/cpplib/string/cpp/matchs.cpp)
6fd1f97e       W?match$:String$n.x(rnx$1$)i
Module: /mnt/sda5/.user/root/src/openwatcom-1.9/bld/plusplus/cpplib/winnt.386/mf_rmtd.dll/plbxmt3r.lib(/mnt/sda5/.user/root/src/openwatcom-1.9/bld/plusplus/cpplib/string/cpp/opappstr.cpp)
6fd1f9ef       W?$ac:String$n(rnx$0$)rn$0$
Module: /mnt/sda5/.user/root/src/openwatcom-1.9/bld/plusplus/cpplib/winnt.386/mf_rmtd.dll/plbxmt3r.lib(/mnt/sda5/.user/root/src/openwatcom-1.9/bld/plusplus/cpplib/string/cpp/opcastst.cpp)
6fd1fa67       W?$ojn(rnx$String$$rnx$0$)$0$
Module: /mnt/sda5/.user/root/src/openwatcom-1.9/bld/plusplus/cpplib/winnt.386/mf_rmtd.dll/plbxmt3r.lib(/mnt/sda5/.user/root/src/openwatcom-1.9/bld/plusplus/cpplib/string/cpp/opcastch.cpp)
6fd1fc58       W?$ojn(rnx$String$$pnxa)$0$
Module: /mnt/sda5/.user/root/src/openwatcom-1.9/bld/plusplus/cpplib/winnt.386/mf_rmtd.dll/plbxmt3r.lib(/mnt/sda5/.user/root/src/openwatcom-1.9/bld/plusplus/cpplib/string/cpp/opcostch.cpp)
6fd1fe60       W?$cv:String$n()pnxa
Module: /mnt/sda5/.user/root/src/openwatcom-1.9/bld/plusplus/cpplib/winnt.386/mf_rmtd.dll/plbxmt3r.lib(/mnt/sda5/.user/root/src/openwatcom-1.9/bld/plusplus/cpplib/string/cpp/opco1sch.cpp)
6fd1ff2f       W?$cv:String$n.x()pnxa
Module: /mnt/sda5/.user/root/src/openwatcom-1.9/bld/plusplus/cpplib/winnt.386/mf_rmtd.dll/plbxmt3r.lib(/mnt/sda5/.user/root/src/openwatcom-1.9/bld/plusplus/cpplib/string/cpp/opgrstst.cpp)
6fd1ff65       W?$ren(rnx$String$$rnx$0$)i
Module: /mnt/sda5/.user/root/src/openwatcom-1.9/bld/plusplus/cpplib/winnt.386/mf_rmtd.dll/plbxmt3r.lib(/mnt/sda5/.user/root/src/openwatcom-1.9/bld/plusplus/cpplib/string/cpp/opgrstch.cpp)
6fd1ffb0       W?$ren(rnx$String$$pnxa)i
Module: /mnt/sda5/.user/root/src/openwatcom-1.9/bld/plusplus/cpplib/winnt.386/mf_rmtd.dll/plbxmt3r.lib(/mnt/sda5/.user/root/src/openwatcom-1.9/bld/plusplus/cpplib/string/cpp/opeqstst.cpp)
6fd20013       W?$ran(rnx$String$$rnx$0$)i
Module: /mnt/sda5/.user/root/src/openwatcom-1.9/bld/plusplus/cpplib/winnt.386/mf_rmtd.dll/plbxmt3r.lib(/mnt/sda5/.user/root/src/openwatcom-1.9/bld/plusplus/cpplib/string/cpp/opeqstch.cpp)
6fd2005e       W?$ran(rnx$String$$pnxa)i
Module: /mnt/sda5/.user/root/src/openwatcom-1.9/bld/plusplus/cpplib/winnt.386/mf_rmtd.dll/plbxmt3r.lib(/mnt/sda5/.user/root/src/openwatcom-1.9/bld/plusplus/cpplib/string/cpp/oplqstst.cpp)
6fd200c1       W?$rdn(rnx$String$$rnx$0$)i
Module: /mnt/sda5/.user/root/src/openwatcom-1.9/bld/plusplus/cpplib/winnt.386/mf_rmtd.dll/plbxmt3r.lib(/mnt/sda5/.user/root/src/openwatcom-1.9/bld/plusplus/cpplib/string/cpp/oplqstch.cpp)
6fd2010c       W?$rdn(rnx$String$$pnxa)i
Module: /mnt/sda5/.user/root/src/openwatcom-1.9/bld/plusplus/cpplib/winnt.386/mf_rmtd.dll/plbxmt3r.lib(/mnt/sda5/.user/root/src/openwatcom-1.9/bld/plusplus/cpplib/string/cpp/oplestst.cpp)
6fd2016f       W?$rcn(rnx$String$$rnx$0$)i
Module: /mnt/sda5/.user/root/src/openwatcom-1.9/bld/plusplus/cpplib/winnt.386/mf_rmtd.dll/plbxmt3r.lib(/mnt/sda5/.user/root/src/openwatcom-1.9/bld/plusplus/cpplib/string/cpp/oplestch.cpp)
6fd201ba       W?$rcn(rnx$String$$pnxa)i
Module: /mnt/sda5/.user/root/src/openwatcom-1.9/bld/plusplus/cpplib/winnt.386/mf_rmtd.dll/plbxmt3r.lib(/mnt/sda5/.user/root/src/openwatcom-1.9/bld/plusplus/cpplib/string/cpp/oplechst.cpp)
6fd2021d       W?$rcn(pnxarnx$String$$)i
Module: /mnt/sda5/.user/root/src/openwatcom-1.9/bld/plusplus/cpplib/winnt.386/mf_rmtd.dll/plbxmt3r.lib(/mnt/sda5/.user/root/src/openwatcom-1.9/bld/plusplus/cpplib/string/cpp/opnestst.cpp)
6fd2027e       W?$rbn(rnx$String$$rnx$0$)i
Module: /mnt/sda5/.user/root/src/openwatcom-1.9/bld/plusplus/cpplib/winnt.386/mf_rmtd.dll/plbxmt3r.lib(/mnt/sda5/.user/root/src/openwatcom-1.9/bld/plusplus/cpplib/string/cpp/opnestch.cpp)
6fd202c9       W?$rbn(rnx$String$$pnxa)i
Module: /mnt/sda5/.user/root/src/openwatcom-1.9/bld/plusplus/cpplib/winnt.386/mf_rmtd.dll/plbxmt3r.lib(/mnt/sda5/.user/root/src/openwatcom-1.9/bld/plusplus/cpplib/string/cpp/opgqstst.cpp)
6fd2032c       W?$rfn(rnx$String$$rnx$0$)i
Module: /mnt/sda5/.user/root/src/openwatcom-1.9/bld/plusplus/cpplib/winnt.386/mf_rmtd.dll/plbxmt3r.lib(/mnt/sda5/.user/root/src/openwatcom-1.9/bld/plusplus/cpplib/string/cpp/opgqstch.cpp)
6fd20377       W?$rfn(rnx$String$$pnxa)i
Module: /mnt/sda5/.user/root/src/openwatcom-1.9/bld/plusplus/cpplib/winnt.386/mf_rmtd.dll/plbxmt3r.lib(/mnt/sda5/.user/root/src/openwatcom-1.9/bld/plusplus/cpplib/string/cpp/opasstst.cpp)
6fd203da       W?$aa:String$n(rnx$0$)rn$0$
Module: /mnt/sda5/.user/root/src/openwatcom-1.9/bld/plusplus/cpplib/winnt.386/mf_rmtd.dll/plbxmt3r.lib(/mnt/sda5/.user/root/src/openwatcom-1.9/bld/plusplus/cpplib/string/cpp/opcrchar.cpp)
6fd2045b       W?$op:String$n.x(ui)rnxa
Module: /mnt/sda5/.user/root/src/openwatcom-1.9/bld/plusplus/cpplib/winnt.386/mf_rmtd.dll/plbxmt3r.lib(/mnt/sda5/.user/root/src/openwatcom-1.9/bld/plusplus/cpplib/string/cpp/conszcap.cpp)
6fd204b3       W?$ct:String$n(ui$$TE$:0$)_
Module: /mnt/sda5/.user/root/src/openwatcom-1.9/bld/plusplus/cpplib/winnt.386/mf_rmtd.dll/plbxmt3r.lib(/mnt/sda5/.user/root/src/openwatcom-1.9/bld/plusplus/cpplib/string/cpp/opeqcrst.cpp)
6fd20557       W?$ran(arnx$String$$)i
Module: /mnt/sda5/.user/root/src/openwatcom-1.9/bld/plusplus/cpplib/winnt.386/mf_rmtd.dll/plbxmt3r.lib(/mnt/sda5/.user/root/src/openwatcom-1.9/bld/plusplus/cpplib/string/cpp/opnecrst.cpp)
6fd205b8       W?$rbn(arnx$String$$)i
Module: /mnt/sda5/.user/root/src/openwatcom-1.9/bld/plusplus/cpplib/winnt.386/mf_rmtd.dll/plbxmt3r.lib(/mnt/sda5/.user/root/src/openwatcom-1.9/bld/plusplus/cpplib/string/cpp/oplecrst.cpp)
6fd20619       W?$rcn(arnx$String$$)i
Module: /mnt/sda5/.user/root/src/openwatcom-1.9/bld/plusplus/cpplib/winnt.386/mf_rmtd.dll/plbxmt3r.lib(/mnt/sda5/.user/root/src/openwatcom-1.9/bld/plusplus/cpplib/string/cpp/oplqcrst.cpp)
6fd2067a       W?$rdn(arnx$String$$)i
Module: /mnt/sda5/.user/root/src/openwatcom-1.9/bld/plusplus/cpplib/winnt.386/mf_rmtd.dll/plbxmt3r.lib(/mnt/sda5/.user/root/src/openwatcom-1.9/bld/plusplus/cpplib/string/cpp/opgrcrst.cpp)
6fd206db       W?$ren(arnx$String$$)i
Module: /mnt/sda5/.user/root/src/openwatcom-1.9/bld/plusplus/cpplib/winnt.386/mf_rmtd.dll/plbxmt3r.lib(/mnt/sda5/.user/root/src/openwatcom-1.9/bld/plusplus/cpplib/string/cpp/opgqcrst.cpp)
6fd2073c       W?$rfn(arnx$String$$)i
Module: /mnt/sda5/.user/root/src/openwatcom-1.9/bld/plusplus/cpplib/winnt.386/mf_rmtd.dll/plbxmt3r.lib(/mnt/sda5/.user/root/src/openwatcom-1.9/bld/plusplus/cpplib/string/cpp/opcacrst.cpp)
6fd2079d       W?$ojn(arnx$String$$)$0$
Module: /mnt/sda5/.user/root/src/openwatcom-1.9/bld/plusplus/cpplib/winnt.386/mf_rmtd.dll/plbxmt3r.lib(/mnt/sda5/.user/root/src/openwatcom-1.9/bld/plusplus/cpplib/string/cpp/opeqstcr.cpp)
6fd2098f       W?$ran(rnx$String$$a)i
Module: /mnt/sda5/.user/root/src/openwatcom-1.9/bld/plusplus/cpplib/winnt.386/mf_rmtd.dll/plbxmt3r.lib(/mnt/sda5/.user/root/src/openwatcom-1.9/bld/plusplus/cpplib/string/cpp/opnestcr.cpp)
6fd209f2       W?$rbn(rnx$String$$a)i
Module: /mnt/sda5/.user/root/src/openwatcom-1.9/bld/plusplus/cpplib/winnt.386/mf_rmtd.dll/plbxmt3r.lib(/mnt/sda5/.user/root/src/openwatcom-1.9/bld/plusplus/cpplib/string/cpp/opgrstcr.cpp)
6fd20a55       W?$ren(rnx$String$$a)i
Module: /mnt/sda5/.user/root/src/openwatcom-1.9/bld/plusplus/cpplib/winnt.386/mf_rmtd.dll/plbxmt3r.lib(/mnt/sda5/.user/root/src/openwatcom-1.9/bld/plusplus/cpplib/string/cpp/opgqstcr.cpp)
6fd20ab8       W?$rfn(rnx$String$$a)i
Module: /mnt/sda5/.user/root/src/openwatcom-1.9/bld/plusplus/cpplib/winnt.386/mf_rmtd.dll/plbxmt3r.lib(/mnt/sda5/.user/root/src/openwatcom-1.9/bld/plusplus/cpplib/string/cpp/oplestcr.cpp)
6fd20b1b       W?$rcn(rnx$String$$a)i
Module: /mnt/sda5/.user/root/src/openwatcom-1.9/bld/plusplus/cpplib/winnt.386/mf_rmtd.dll/plbxmt3r.lib(/mnt/sda5/.user/root/src/openwatcom-1.9/bld/plusplus/cpplib/string/cpp/oplqstcr.cpp)
6fd20b7e       W?$rdn(rnx$String$$a)i
Module: /mnt/sda5/.user/root/src/openwatcom-1.9/bld/plusplus/cpplib/winnt.386/mf_rmtd.dll/plbxmt3r.lib(/mnt/sda5/.user/root/src/openwatcom-1.9/bld/plusplus/cpplib/string/cpp/opcastcr.cpp)
6fd20be1       W?$ojn(rnx$String$$a)$0$
Module: /mnt/sda5/.user/root/src/openwatcom-1.9/bld/plusplus/cpplib/winnt.386/mf_rmtd.dll/plbxmt3r.lib(/mnt/sda5/.user/root/src/openwatcom-1.9/bld/plusplus/cpplib/contain/cpp/wcexcept.cpp)
6fd20dd0       W?base_throw_empty_container$:WCExcept$n.x()v
6fd20e2d       W?base_throw_index_range$:WCExcept$n.x()v
6fd20e8a       W?base_throw_not_empty$:WCExcept$n()v
6fd20ef0       W?base_throw_not_unique$:WCExcept$n.x()v
6fd20f4d       W?base_throw_out_of_memory$:WCExcept$n.x()v
6fd20faa       W?base_throw_resize_required$:WCExcept$n.x()v
6fd21007       W?base_throw_zero_buckets$:WCExcept$n.x()v
6fd21064       W?base_throw_iter_range$:WCIterExcept$n.x()v
6fd210c1       W?base_throw_undef_item$:WCIterExcept$n.x()v
6fd2117b+      W?$ct:failure$:WCIterExcept$n(rnx$0:1$)_
6fd211c9+      W?$dt:failure$:WCIterExcept$n()_
6fd211f5+      W?$ct:failure$:WCExcept$n(rnx$0:1$)_
6fd21243+      W?$dt:failure$:WCExcept$n()_
6fd30d90+      W?$Wth0Nnrn$failure$:WCExcept$$$nx[]uc
6fd30db0+      W?$Wth0Rnrn$failure$:WCIterExcept$$$nx[]uc
6fd30dd0+      W?$Wts0Ln$failure$:WCExcept$$$nx[]uc
6fd31ac6+      W?$Wti0O$failure$:WCIterExcept$$$n[]uc
6fd2111e       W?base_throw_undef_iter$:WCIterExcept$n.x()v
6fd30df0+      W?$Wts0Pn$failure$:WCIterExcept$$$nx[]uc
6fd31ae3+      W?$Wti0K$failure$:WCExcept$$$n[]uc
Module: /mnt/sda5/.user/root/src/openwatcom-1.9/bld/plusplus/cpplib/winnt.386/mf_rmtd.dll/plbxmt3r.lib(/mnt/sda5/.user/root/src/openwatcom-1.9/bld/plusplus/cpplib/contain/cpp/wchash.cpp)
6fd22658       W?$ct:WCExcept$n()_
6fd22696       W?$dt:WCExcept$n()_
6fd2274c+      W?$ct:WCIterExcept$n()_
6fd2278a+      W?$dt:WCIterExcept$n()_
6fd22840+      W?$ct:WCIsvListBase$n()_
6fd228e8+      W?$ct:WCListIterBase$n()_
6fd2299a+      W?$dt:WCListIterBase$n()_
6fd2126f       W?base_construct$:WCHashBase$n(pnx$1$)v
6fd216ee       W?base_find$:WCHashBase$n.x(pnxvpnuipnui$find_type$:1$)pn$WCSLink$$
6fd21c5e       W?base_init$:WCHashBase$n(ui)v
6fd21d04       W?base_remove_but_not_delete$:WCHashBase$n(pnxv)pn$WCSLink$$
6fd21da8       W?base_set_insert$:WCHashBase$n(pnxv)pn$WCSLink$$
6fd21ebe+      W?$dt:WCHashBase$n()_
6fd21f44       W?bitHash$:WCHashBase$n(pnxvui)ui
6fd21fbb       W?clear$:WCHashBase$n()v
6fd22066       W?insert$:WCHashBase$n(pnxv)i
6fd22159       W?occurrencesOf$:WCHashBase$n.x(pnxv)ui
6fd22a20+      W?WCListDelete$:WCIsvSListBase$::1n$WCSLink$$n(pn$2$)v
6fd22a4b+      W?$dt:WCIsvSListBase$::1n$WCSLink$$n()_
6fd22a91+      W?$dt:WCPtrListBase$::1n$WCSLink$$1n$WCIsvSListBase$::1n$1$$n()_
6fd22afa+      W?$ct:WCIsvSList$::1n$WCSLink$$n()_
6fd22c3a+      W?$dt:WCIsvSList$::1n$WCSLink$$n()_
6fd22d6d+      W?$dt:WCIsvListIterBase$::1n$WCSLink$$1n$WCIsvSList$::1n$1$$n()_
6fd22e16+      W?$ct:WCIsvSListIter$::1n$WCSLink$$n()_
6fd22f27+      W?$dt:WCIsvSListIter$::1n$WCSLink$$n()_
6fd2306a+      W?$ct:WCPtrListBase$::1n$WCSLink$$1n$WCIsvSListBase$::1n$1$$n()_
6fd23191+      W?$ct:WCIsvListIterBase$::1n$WCSLink$$1n$WCIsvSList$::1n$1$$n()_
6fd2326f+      W?$ct:WCIsvSListBase$::1n$WCSLink$$n(pn(ui)pnvpn(pnvui)v)_
6fd31000       W?$Wvf0Co4:WCExcept$$nx[]pn()v
6fd31010+      W?$Wvf0Go4:WCIterExcept$$nx[]pn()v
6fd31020       W?$Wvf0Ho4:WCIsvListBase$$nx[]pn()v
6fd31030+      W?$Wvf0Io4:WCListIterBase$$nx[]pn()v
6fd31040+      W?$Wvf0Eo4:WCHashBase$$nx[]pn()v
6fd31060+      W?$Wvf0Wo4:WCIsvSListBase$::1n$WCSLink$$$nx[]pn()v
6fd31070+      W?$Wvf0vo4:WCPtrListBase$::1n$WCSLink$$1n$WCIsvSListBase$::1n$1$$$nx[]pn()v
6fd31080+      W?$Wvf0So4:WCIsvSList$::1n$WCSLink$$$nx[]pn()v
6fd31090+      W?$Wvf0vo4:WCIsvListIterBase$::1n$WCSLink$$1n$WCIsvSList$::1n$1$$$nx[]pn()v
6fd310a0+      W?$Wvf0Wo4:WCIsvSListIter$::1n$WCSLink$$$nx[]pn()v
6fd310b0       W?$Wts0Cn$WCExcept$$$nx[]uc
6fd310d0+      W?$Wts0Gn$WCIterExcept$$$nx[]uc
6fd310f0+      W?$Wts0Wn$WCIsvSListIter$::1n$WCSLink$$$$nx[]uc
6fd31110+      W?$Wts0Sn$WCIsvSList$::1n$WCSLink$$$$nx[]uc
6fd31130+      W?$Wva0Wo0:WCIsvSListIter$::1n$WCSLink$$$nx[]uc
6fd31170+      W?$Wva0vo0:WCIsvListIterBase$::1n$WCSLink$$1n$WCIsvSList$::1n$1$$$nx[]uc
6fd311a0+      W?$Wva0So0:WCIsvSList$::1n$WCSLink$$$nx[]uc
6fd311e0+      W?$Wva0vo0:WCPtrListBase$::1n$WCSLink$$1n$WCIsvSListBase$::1n$1$$$nx[]uc
6fd31220+      W?$Wva0Wo0:WCIsvSListBase$::1n$WCSLink$$$nx[]uc
6fd31250+      W?$Wva0Eo0:WCHashBase$$nx[]uc
6fd31270+      W?$Wva0Io0:WCListIterBase$$nx[]uc
6fd31290       W?$Wva0Ho0:WCIsvListBase$$nx[]uc
6fd312b0+      W?$Wva0Go0:WCIterExcept$$nx[]uc
6fd31afc+      W?$Wti0D$WCHashBase$$$n[]uc
6fd31b0e       W?$Wti0G$WCIsvListBase$$$n[]uc
6fd31b23+      W?$Wti0V$WCIsvSListBase$::1n$WCSLink$$$$n[]uc
6fd31b47+      W?$Wti0u$WCPtrListBase$::1n$WCSLink$$1n$WCIsvSListBase$::1n$1$$$$n[]uc
6fd31b84+      W?$Wti0H$WCListIterBase$$$n[]uc
6fd31b9a+      W?$Wti0u$WCIsvListIterBase$::1n$WCSLink$$1n$WCIsvSList$::1n$1$$$$n[]uc
6fd31bd7+      W?$Wti0R$WCIsvSList$::1n$WCSLink$$$$n[]uc
6fd31bf7+      W?$Wti0V$WCIsvSListIter$::1n$WCSLink$$$$n[]uc
6fd31c1b+      W?$Wti0F$WCIterExcept$$$n[]uc
6fd312c0       W?$Wva0Co0:WCExcept$$nx[]uc
6fd221db       W?removeAll$:WCHashBase$n(pnxv)ui
6fd222bc       W?resize$:WCHashBase$n(ui)v
6fd2247c       W?base_advance$:WCHashIterBase$n()i
6fd225bb       W?reset$:WCHashIterBase$n()v
6fd31c2f       W?$Wti0B$WCExcept$$$n[]uc
Module: /mnt/sda5/.user/root/src/openwatcom-1.9/bld/plusplus/cpplib/winnt.386/mf_rmtd.dll/plbxmt3r.lib(/mnt/sda5/.user/root/src/openwatcom-1.9/bld/plusplus/cpplib/contain/cpp/wclist.cpp)
6fd23357       W?base_next$:WCIsvListBase$n.x(pnx$WCSLink$$i)pn$2$
6fd233ba       W?base_insert$:WCIsvListBase$n(pn$WCSLink$$)v
6fd23417       W?base_index_check$:WCIsvListBase$n.x(i)i
6fd23489       W?base_bfind$:WCIsvListBase$n.x(i)pn$WCSLink$$
6fd234e1       W?base_sfind$:WCIsvListBase$n.x(i)pn$WCSLink$$
6fd2352c       W?base_dfind$:WCIsvListBase$n.x(i)pn$WCDLink$$
6fd235b6       W?base_sget$:WCIsvListBase$n(i)pn$WCSLink$$
6fd2363f       W?base_dget$:WCIsvListBase$n(i)pn$WCDLink$$
6fd236d4       W?base_index$:WCIsvListBase$n.x(pnx$WCSLink$$)i
6fd23749       W?base_clear$:WCIsvListBase$n()v
6fd2377f       W?base_destroy$:WCIsvListBase$n()v
6fd237ef       W?$dt:WCIsvListBase$n()_
6fd238a7       W?base_advance$:WCListIterBase$n(i)pn$WCSLink$$
6fd239c6       W?base_retreat$:WCListIterBase$n(i)pn$WCDLink$$
6fd23af2       W?base_tail_hit$:WCListIterBase$n(pn$WCSLink$$)pn$2$
6fd23b4d       W?base_tail_unhit$:WCListIterBase$n(pn$WCSLink$$)v
Module: /mnt/sda5/.user/root/src/openwatcom-1.9/bld/plusplus/cpplib/winnt.386/mf_rmtd.dll/plbxmt3r.lib(/mnt/sda5/.user/root/src/openwatcom-1.9/bld/plusplus/cpplib/contain/cpp/wcskip.cpp)
6fd247af+      W?$dt:WCSkipNonTempBase$n()_
6fd23bac       W?$ct:WCSkipNonTempBase$n(uiuii)_
6fd23c82       W?$ct:WCSkipNonTempBase$n(uiuipn(ui)pnvpn(pnvui)vi)_
6fd23d58       W?base_assign$:WCSkipNonTempBase$n(pnx$1$)v
6fd23de1       W?base_construct$:WCSkipNonTempBase$n(pnx$1$)v
6fd23e80       W?base_find$:WCSkipNonTempBase$n.x(pnxv)pn$WCSkipListPtrs$$
6fd23f32       W?base_find_with_update$:WCSkipNonTempBase$n.x(pnxvpnpn$WCSkipListPtrs$$)pn$2$
6fd23ff3+      W?base_init$:WCSkipNonTempBase$n(uiui)v
6fd24099       W?base_insert$:WCSkipNonTempBase$n(pnxv)pn$WCSkipListPtrs$$
6fd241a5       W?base_occurrencesOf$:WCSkipNonTempBase$n.x(pnxv)ui
6fd24220       W?base_random_level$:WCSkipNonTempBase$n()i
6fd242be       W?base_removeAll$:WCSkipNonTempBase$n(pnxv)ui
6fd31350+      W?$Wvf0Lo4:WCSkipNonTempBase$$nx[]pn()v
6fd31370+      W?$Wva0Lo0:WCSkipNonTempBase$$nx[]uc
6fd31c44+      W?$Wti0K$WCSkipNonTempBase$$$n[]uc
6fd244f7       W?base_remove_but_not_delete$:WCSkipNonTempBase$n(pnxvrni)pn$WCSkipListPtrs$$
6fd245da       W?clear$:WCSkipNonTempBase$n()v
6fd2474a       W?remove$:WCSkipNonTempBase$n(pnxv)i
6fd31c40       W?randomsLeft$:WCSkipNonTempBase$nui
6fd33268       W?randomBits$:WCSkipNonTempBase$nui
Module: ../../../clib/winnt.386/mf_rd/clbrdlld.lib(/mnt/sda5/.user/root/src/openwatcom-1.9/bld/clib/startup/c/dmndwnt.c)
6fd24840       __LibMain@12
Module: ../../../clib/winnt.386/mf_rd/clbrdlld.lib(segdefns)
6fd01003       ___begtext
6fd2d000*      __nullarea
6fd32ca0       __Start_XI
6fd32cf4       __End_XI
6fd32cf4       __Start_YI
6fd32d00       __End_YI
Module: /mnt/sda5/.user/root/src/openwatcom-1.9/bld/plusplus/cpplib/winnt.386/mf_rmtd/plbxmt3r.lib(/mnt/sda5/.user/root/src/openwatcom-1.9/bld/plusplus/cpplib/runtime/cpp/prwdata.cpp)
6fd33580       __wint_static_init_sema
6fd33590       __wint_pure_error_flag
6fd33592       __wint_undef_vfun_flag
6fd33594       __wint_module_init
Module: /mnt/sda5/.user/root/src/openwatcom-1.9/bld/plusplus/cpplib/winnt.386/mf_rmtd.dll/plbxmt3r.lib(/mnt/sda5/.user/root/src/openwatcom-1.9/bld/plusplus/cpplib/runtime/cpp/thrddata.cpp)
6fd249e0       __wcpp_4_multi_thread_init__
Module: /mnt/sda5/.user/root/src/openwatcom-1.9/bld/plusplus/cpplib/winnt.386/mf_rmtd.dll/plbxmt3r.lib(/mnt/sda5/.user/root/src/openwatcom-1.9/bld/plusplus/cpplib/runtime/cpp/rtdbgst.cpp)
6fd25dda       __wcpp_4_DbgRtDumpModuleDtor__
6fd25e31       __wcpp_4_DbgRtDumpAutoDtor__
6fd2604d*      DbgRedirectBeg_
6fd26084*      DbgRedirectEnd_
6fd260df*      DbgLogBeg_
6fd26116*      DbgLogEnd_
Module: /mnt/sda5/.user/root/src/openwatcom-1.9/bld/plusplus/cpplib/winnt.386/mf_rmtd.dll/plbxmt3r.lib(/mnt/sda5/.user/root/src/openwatcom-1.9/bld/plusplus/cpplib/runtime/cpp/tssize.cpp)
6fd2614e       __wcpp_4_ts_size__
Module: /mnt/sda5/.user/root/src/openwatcom-1.9/bld/plusplus/cpplib/winnt.386/mf_rmtd.dll/plbxmt3r.lib(/mnt/sda5/.user/root/src/openwatcom-1.9/bld/plusplus/cpplib/runtime/cpp/stabdisp.cpp)
6fd2655c       __wcpp_4_dispatchable__
Module: /mnt/sda5/.user/root/src/openwatcom-1.9/bld/plusplus/cpplib/winnt.386/mf_rmtd.dll/plbxmt3r.lib(/mnt/sda5/.user/root/src/openwatcom-1.9/bld/plusplus/cpplib/runtime/cpp/pgmthrd.cpp)
6fd26618       __wcpp_4_pgm_thread__
Module: /mnt/sda5/.user/root/src/openwatcom-1.9/bld/plusplus/cpplib/winnt.386/mf_rmtd.dll/plbxmt3r.lib(/mnt/sda5/.user/root/src/openwatcom-1.9/bld/plusplus/cpplib/runtime/cpp/fatalerr.cpp)
6fd2667d       __wcpp_4_fatal_runtime_error__
Module: /mnt/sda5/.user/root/src/openwatcom-1.9/bld/plusplus/cpplib/winnt.386/mf_rmtd.dll/plbxmt3r.lib(/mnt/sda5/.user/root/src/openwatcom-1.9/bld/plusplus/cpplib/runtime/cpp/rttidync.cpp)
6fd266ca       __DoDynamicCast_
Module: /mnt/sda5/.user/root/src/openwatcom-1.9/bld/plusplus/cpplib/winnt.386/mf_rmtd.dll/plbxmt3r.lib(/mnt/sda5/.user/root/src/openwatcom-1.9/bld/plusplus/cpplib/runtime/cpp/rttisupp.cpp)
6fd267db       __CalcMostDerived_
6fd2686c       __MakeSureTidIsPresent_
Module: /mnt/sda5/.user/root/src/openwatcom-1.9/bld/plusplus/cpplib/winnt.386/mf_rmtd.dll/plbxmt3r.lib(/mnt/sda5/.user/root/src/openwatcom-1.9/bld/plusplus/cpplib/runtime/cpp/stabtrav.cpp)
6fd2691d       __wcpp_4_stab_entry__
6fd2696d*      __wcpp_4_stab_trav_comp__
6fd26b4b       __wcpp_4_stab_trav_init__
6fd26bb1       __wcpp_4_stab_trav_next__
6fd26c6f       __wcpp_4_stab_trav_move__
Module: /mnt/sda5/.user/root/src/openwatcom-1.9/bld/plusplus/cpplib/winnt.386/mf_rmtd.dll/plbxmt3r.lib(/mnt/sda5/.user/root/src/openwatcom-1.9/bld/plusplus/cpplib/runtime/cpp/allocexc.cpp)
6fd26ca5       __wcpp_4_alloc_exc__
6fd26fff       __wcpp_4_free_exc__
6fd270db       __wcpp_4_find_active__
6fd2713f       __wcpp_4_dtor_free_exc__
Module: /mnt/sda5/.user/root/src/openwatcom-1.9/bld/plusplus/cpplib/winnt.386/mf_rmtd.dll/plbxmt3r.lib(/mnt/sda5/.user/root/src/openwatcom-1.9/bld/plusplus/cpplib/runtime/cpp/exc_pr.cpp)
6fd27230       W?$ct:_EXC_PR$n(pn$_RTCTL$$pn$RW_DTREG$$$EXCSTATE$$)_
6fd272ab       W?$dt:_EXC_PR$n()_
6fd272e8       W?$ct:_EXC_PR_FREE$n(pn$_RTCTL$$pn$RW_DTREG$$$EXCSTATE$$pn$ACTIVE_EXC$$)_
6fd27343       W?$dt:_EXC_PR_FREE$n()_
6fd273a9       W?$ct:_EXC_PR_DTOR$n(pn$_RTCTL$$pn$RW_DTREG$$$EXCSTATE$$pn$ACTIVE_EXC$$)_
6fd273ff       W?$dt:_EXC_PR_DTOR$n()_
6fd2745f       W?$ct:_EXC_PR_FNEXC$n(pn$_RTCTL$$pn$RW_DTREG$$pn$2$pn$ACTIVE_EXC$$)_
6fd274d5       W?$dt:_EXC_PR_FNEXC$n()_
Module: /mnt/sda5/.user/root/src/openwatcom-1.9/bld/plusplus/cpplib/winnt.386/mf_rmtd.dll/plbxmt3r.lib(/mnt/sda5/.user/root/src/openwatcom-1.9/bld/plusplus/cpplib/runtime/cpp/callterm.cpp)
6fd27511       __wcpp_4_corrupted_stack__
6fd27541       __wcpp_4_call_terminate__
Module: /mnt/sda5/.user/root/src/openwatcom-1.9/bld/plusplus/cpplib/winnt.386/mf_rmtd.dll/plbxmt3r.lib(/mnt/sda5/.user/root/src/openwatcom-1.9/bld/plusplus/cpplib/runtime/cpp/tsequiv.cpp)
6fd2759e       __wcpp_4_ts_refed__
6fd275ea       __wcpp_4_ts_pnted__
6fd2762e       __wcpp_4_ts_equiv__
Module: /mnt/sda5/.user/root/src/openwatcom-1.9/bld/plusplus/cpplib/winnt.386/mf_rmtd.dll/plbxmt3r.lib(/mnt/sda5/.user/root/src/openwatcom-1.9/bld/plusplus/cpplib/runtime/cpp/stabinit.cpp)
6fd27843       __wcpp_4_exc_setup__
Module: /mnt/sda5/.user/root/src/openwatcom-1.9/bld/plusplus/cpplib/winnt.386/mf_rmtd/plbxmt3r.lib(/mnt/sda5/.user/root/src/openwatcom-1.9/bld/plusplus/cpplib/runtime/cpp/stablcl.cpp)
6fd2795b       __wcpp_4_lcl_register__
Module: /mnt/sda5/.user/root/src/openwatcom-1.9/bld/plusplus/cpplib/winnt.386/mf_rmtd/plbxmt3r.lib(/mnt/sda5/.user/root/src/openwatcom-1.9/bld/plusplus/cpplib/runtime/cpp/moddtorr.cpp)
6fd32cfa       ___wcpp_4_data_module_dtor_ref_
Module: /mnt/sda5/.user/root/src/openwatcom-1.9/bld/plusplus/cpplib/winnt.386/mf_rmtd/plbxmt3r.lib(/mnt/sda5/.user/root/src/openwatcom-1.9/bld/plusplus/cpplib/runtime/cpp/undefmbd.cpp)
6fd335c8       ____wcpp_4_data_undefined_member_data_
Module: /mnt/sda5/.user/root/src/openwatcom-1.9/bld/plusplus/cpplib/winnt.386/mf_rmtd.dll/plbxmt3r.lib(/mnt/sda5/.user/root/src/openwatcom-1.9/bld/plusplus/cpplib/iostream/cpp/iofgldfl.cpp)
6fd27985+      W?__getLDFsign$n(pn$streambuf$:std$$rnpnai)i
6fd27e5d+      W?__getLDFmantissa$n(pn$streambuf$:std$$rnpna)i
6fd284a6+      W?__getLDFexponent$n(pn$streambuf$:std$$rnpna)i
6fd28c20       W?__GetLDFloat$n(pn$streambuf$:std$$pna)i
Module: /mnt/sda5/.user/root/src/openwatcom-1.9/bld/plusplus/cpplib/winnt.386/mf_rmtd.dll/plbxmt3r.lib(/mnt/sda5/.user/root/src/openwatcom-1.9/bld/plusplus/cpplib/iostream/cpp/iosgnilk.cpp)
6fd28d2c       W?$Wda0216$:__lock$n(ui)pnv
6fd28d67       W?.tdctor$:__lock$n()rn$1$
6fd28cb0       W?__get_next_ios_lock$n()pn$__lock$$
Module: /mnt/sda5/.user/root/src/openwatcom-1.9/bld/plusplus/cpplib/winnt.386/mf_rmtd.dll/plbxmt3r.lib(/mnt/sda5/.user/root/src/openwatcom-1.9/bld/plusplus/cpplib/iostream/cpp/iosfail.cpp)
6fd28d97       W?$ct:failure$:ios$:std$n(i)_
Module: /mnt/sda5/.user/root/src/openwatcom-1.9/bld/plusplus/cpplib/winnt.386/mf_rmtd.dll/plbxmt3r.lib(/mnt/sda5/.user/root/src/openwatcom-1.9/bld/plusplus/cpplib/iostream/cpp/istgtu64.cpp)
6fd28dcb       W?__getunsignedint64$n(pn$streambuf$:std$$rnuzuzzl)i
Module: /mnt/sda5/.user/root/src/openwatcom-1.9/bld/plusplus/cpplib/winnt.386/mf_rmtd.dll/plbxmt3r.lib(/mnt/sda5/.user/root/src/openwatcom-1.9/bld/plusplus/cpplib/iostream/cpp/istgetul.cpp)
6fd29304       W?__getunsignedlong$n(pn$streambuf$:std$$rnululll)i
Module: /mnt/sda5/.user/root/src/openwatcom-1.9/bld/plusplus/cpplib/winnt.386/mf_rmtd.dll/plbxmt3r.lib(/mnt/sda5/.user/root/src/openwatcom-1.9/bld/plusplus/cpplib/iostream/cpp/istgalin.cpp)
6fd297d3       W?__getaline$n(rn$istream$:std$$pnaiairni)i
Module: /mnt/sda5/.user/root/src/openwatcom-1.9/bld/plusplus/cpplib/winnt.386/mf_rmtd.dll/plbxmt3r.lib(/mnt/sda5/.user/root/src/openwatcom-1.9/bld/plusplus/cpplib/iostream/cpp/ioufgtba.cpp)
6fd29d3e       W?__FlagsToBase$n(l)i
Module: /mnt/sda5/.user/root/src/openwatcom-1.9/bld/plusplus/cpplib/winnt.386/mf_rmtd.dll/plbxmt3r.lib(/mnt/sda5/.user/root/src/openwatcom-1.9/bld/plusplus/cpplib/iostream/cpp/ostadpre.cpp)
6fd29d9b       W?__AddPrefix$n(apnarniil)v
Module: /mnt/sda5/.user/root/src/openwatcom-1.9/bld/plusplus/cpplib/winnt.386/mf_rmtd.dll/plbxmt3r.lib(/mnt/sda5/.user/root/src/openwatcom-1.9/bld/plusplus/cpplib/iostream/cpp/ssfgpos.cpp)
6fd29e28       W?__get_position$n(lipnapnapnapna)l
Module: /mnt/sda5/.user/root/src/openwatcom-1.9/bld/plusplus/cpplib/winnt.386/mf_rmtd.dll/plbxmt3r.lib(/mnt/sda5/.user/root/src/openwatcom-1.9/bld/plusplus/cpplib/iostream/cpp/stfgnslk.cpp)
6fd29f38       W?__get_next_streambuf_lock$n()pn$__lock$$
Module: /mnt/sda5/.user/root/src/openwatcom-1.9/bld/plusplus/cpplib/winnt.386/mf_rmtd.dll/plbxmt3r.lib(/mnt/sda5/.user/root/src/openwatcom-1.9/bld/plusplus/cpplib/string/cpp/compchar.cpp)
6fd29fb4       W?__CompareChars$n(pnxalpnxal)i
Module: /mnt/sda5/.user/root/src/openwatcom-1.9/bld/plusplus/cpplib/winnt.386/mf_rmtd.dll/plbxmt3r.lib(/mnt/sda5/.user/root/src/openwatcom-1.9/bld/plusplus/cpplib/string/cpp/matchstr.cpp)
6fd2a0ae       W?__MatchStrings$n(pnxauipnxaui)l
Module: /mnt/sda5/.user/root/src/openwatcom-1.9/bld/plusplus/cpplib/winnt.386/mf_rmtd.dll/plbxmt3r.lib(/mnt/sda5/.user/root/src/openwatcom-1.9/bld/plusplus/cpplib/string/cpp/strsrch.cpp)
6fd2a12f       StringSearch_
Module: ../../../clib/winnt.386/mf_rd/clbrdlld.lib(/mnt/sda5/.user/root/src/openwatcom-1.9/bld/clib/startup/c/ddgrpwnt.c)
6fd2a3f0       __disallow_single_dgroup_
Module: ../../../clib/winnt.386/mf_rd/clbrdlld.lib(/mnt/sda5/.user/root/src/openwatcom-1.9/bld/clib/startup/c/dllnmwnt.c)
6fd33be0       ___Is_DLL
6fd33be4       __LpwDllName
6fd33be8       __LpDllName
Module: ../../../clib/winnt.386/mf_rd/clbrdlld.lib(/mnt/sda5/.user/root/src/openwatcom-1.9/bld/clib/startup/c/initrtns.c)
6fd2a4c0       __InitRtns
6fd2a550       __FiniRtns
Module: ../../../clib/winnt.386/mf_rd/clbrdlld.lib(/mnt/sda5/.user/root/src/openwatcom-1.9/bld/clib/startup/c/rdllmwnt.c)
6fd31c84       __pRawDllMain
Module: ../../../clib/winnt.386/mf_rd/clbrdlld.lib(/mnt/sda5/.user/root/src/openwatcom-1.9/bld/clib/startup/c/dcinit.c)
6fd2a5f0       __CommonInit_
Module: ../../../clib/winnt.386/mf_rd/clbrdlld.lib(dosseg)
00001234       __DOSseg__
Module: /mnt/sda5/.user/root/src/openwatcom-1.9/bld/plusplus/cpplib/winnt.386/mf_rmtd.dll/plbxmt3r.lib(/mnt/sda5/.user/root/src/openwatcom-1.9/bld/plusplus/cpplib/runtime/cpp/bittest.cpp)
6fd2a608       __wcpp_4_bit_test__
6fd2a654       __wcpp_4_bit_off__
Module: /mnt/sda5/.user/root/src/openwatcom-1.9/bld/plusplus/cpplib/winnt.386/mf_rmtd/plbxmt3r.lib(/mnt/sda5/.user/root/src/openwatcom-1.9/bld/plusplus/cpplib/runtime/cpp/areaexc.cpp)
6fd31ca0       ___EXC_AREA
Module: /mnt/sda5/.user/root/src/openwatcom-1.9/bld/plusplus/cpplib/winnt.386/mf_rmtd.dll/plbxmt3r.lib(/mnt/sda5/.user/root/src/openwatcom-1.9/bld/plusplus/cpplib/runtime/cpp/dstabmod.cpp)
6fd2a69a       __wcpp_4_module_dtor__
6fd2a716       __wcpp_4_mod_register__
Module: /mnt/sda5/.user/root/src/openwatcom-1.9/bld/plusplus/cpplib/winnt.386/mf_rmtd.dll/plbxmt3r.lib(/mnt/sda5/.user/root/src/openwatcom-1.9/bld/plusplus/cpplib/iostream/cpp/istgsign.cpp)
6fd2a75f       W?__getsign$n(pn$streambuf$:std$$rna)i
Module: /mnt/sda5/.user/root/src/openwatcom-1.9/bld/plusplus/cpplib/winnt.386/mf_rmtd.dll/plbxmt3r.lib(/mnt/sda5/.user/root/src/openwatcom-1.9/bld/plusplus/cpplib/iostream/cpp/istgbase.cpp)
6fd2a941       W?__getbase$n(pn$streambuf$:std$$rnirni)i
Module: /mnt/sda5/.user/root/src/openwatcom-1.9/bld/plusplus/cpplib/winnt.386/mf_rmtd.dll/plbxmt3r.lib(/mnt/sda5/.user/root/src/openwatcom-1.9/bld/plusplus/cpplib/iostream/cpp/istgnm64.cpp)
6fd2b2f5       W?__getnumberint64$n(pn$streambuf$:std$$rnuzirni)i
Module: /mnt/sda5/.user/root/src/openwatcom-1.9/bld/plusplus/cpplib/winnt.386/mf_rmtd.dll/plbxmt3r.lib(/mnt/sda5/.user/root/src/openwatcom-1.9/bld/plusplus/cpplib/iostream/cpp/istgnum.cpp)
6fd2b819       W?__getnumber$n(pn$streambuf$:std$$rnulirni)i


                        +---------------------+
                        |   Module Segments   |
                        +---------------------+

! = 32-bit segment
c = initialized communal data

Module          Segment               Class           Address         Size
======          =======               =====           =======         ====

/mnt/sda5/.user/root/src/openwatcom-1.9/bld/clib/startup/c/clibdwnt.c
                _TEXT                 CODE           6fd01010  !      0000001f
                CONST                 DATA           6fd2d004  !      00000000
                CONST2                DATA           6fd2dba0  !      00000000
                _DATA                 DATA           6fd316c0  !      00000000
LINKER MODULE   TRANSFER CODE         CODE           6fd2bc90  !      00000180
                .idata                .idata         6fd2c000  !      000005c9
dstrt386        _TEXT                 CODE           6fd01030  !      0000005c
                _DATA                 DATA           6fd316c0  !      00000000
FSHAND          _TEXT                 CODE           6fd0108c  !      0000000b
                _DATA                 DATA           6fd316c0  !      00000000
/mnt/sda5/.user/root/src/openwatcom-1.9/bld/plusplus/cpplib/runtime/cpp/opdel.cpp
                _TEXT                 CODE           6fd01097  !      000000ab
                CONST                 DATA           6fd2d004  !      00000000
                CONST2                DATA           6fd2dba0  !      00000000
                _DATA                 DATA           6fd316c0  !      00000004
                _BSS                  BSS            6fd33000  !      00000000
/mnt/sda5/.user/root/src/openwatcom-1.9/bld/plusplus/cpplib/runtime/cpp/opdelarr.cpp
                _TEXT                 CODE           6fd01142  !      000000a4
                CONST                 DATA           6fd2d004  !      00000000
                CONST2                DATA           6fd2dba0  !      00000000
                _DATA                 DATA           6fd316c4  !      00000004
                _BSS                  BSS            6fd33000  !      00000000
/mnt/sda5/.user/root/src/openwatcom-1.9/bld/plusplus/cpplib/runtime/cpp/opnew.cpp
                _TEXT                 CODE           6fd011e6  !      0000010d
                CONST                 DATA           6fd2d004  !      00000000
                CONST2                DATA           6fd2dba0  !      00000000
                _DATA                 DATA           6fd316c8  !      00000004
                _BSS                  BSS            6fd33000  !      00000000
/mnt/sda5/.user/root/src/openwatcom-1.9/bld/plusplus/cpplib/runtime/cpp/opnewarr.cpp
                _TEXT                 CODE           6fd012f3  !      000000b0
                CONST                 DATA           6fd2d004  !      00000000
                CONST2                DATA           6fd2dba0  !      00000000
                _DATA                 DATA           6fd316cc  !      00000004
                _BSS                  BSS            6fd33000  !      00000000
/mnt/sda5/.user/root/src/openwatcom-1.9/bld/plusplus/cpplib/runtime/cpp/opnewp.cpp
                _TEXT                 CODE           6fd013a3  !      0000002c
                CONST                 DATA           6fd2d004  !      00000000
                CONST2                DATA           6fd2dba0  !      00000000
                _DATA                 DATA           6fd316d0  !      00000000
                _BSS                  BSS            6fd33000  !      00000000
/mnt/sda5/.user/root/src/openwatcom-1.9/bld/plusplus/cpplib/runtime/cpp/opnewpar.cpp
                _TEXT                 CODE           6fd013cf  !      0000002c
                CONST                 DATA           6fd2d004  !      00000000
                CONST2                DATA           6fd2dba0  !      00000000
                _DATA                 DATA           6fd316d0  !      00000000
                _BSS                  BSS            6fd33000  !      00000000
/mnt/sda5/.user/root/src/openwatcom-1.9/bld/plusplus/cpplib/runtime/cpp/arrassgn.cpp
                _TEXT                 CODE           6fd013fb  !      00000057
                CONST                 DATA           6fd2d004  !      00000000
                CONST2                DATA           6fd2dba0  !      00000000
                _DATA                 DATA           6fd316d0  !      00000000
                _BSS                  BSS            6fd33000  !      00000000
/mnt/sda5/.user/root/src/openwatcom-1.9/bld/plusplus/cpplib/runtime/cpp/cppdata.cpp
                _TEXT                 CODE           6fd01452  !      00000000
                CONST                 DATA           6fd2d004  !      00000000
                CONST2                DATA           6fd2dba0  !      00000000
                _DATA                 DATA           6fd316d0  !      00000000
                _BSS                  BSS            6fd33000  !      00000008
                XIB                   DATA           6fd32ca0  !      00000000
                XI                    DATA           6fd32ca0  !      00000006
                XIE                   DATA           6fd32cf4  !      00000000
/mnt/sda5/.user/root/src/openwatcom-1.9/bld/plusplus/cpplib/runtime/cpp/ctorarst.cpp
                _TEXT                 CODE           6fd01452  !      0000053c
                CONST                 DATA           6fd2d004  !      00000000
                CONST2                DATA           6fd2dba0  !      00000028
                _DATA                 DATA           6fd316d0  !      00000000
                _BSS                  BSS            6fd33008  !      00000000
                _TEXT                 CODE           6fd0198e c!      00000034
                _TEXT                 CODE           6fd019c2 c!      00000046
                CONST2                DATA           6fd2dbd0 c!      00000018
                _DATA                 DATA           6fd316d0 c!      0000000d
/mnt/sda5/.user/root/src/openwatcom-1.9/bld/plusplus/cpplib/runtime/cpp/dtorarst.cpp
                _TEXT                 CODE           6fd01a08  !      00000054
                CONST                 DATA           6fd2d004  !      00000000
                CONST2                DATA           6fd2dbe8  !      00000000
                _DATA                 DATA           6fd316dd  !      00000000
                _BSS                  BSS            6fd33008  !      00000000
/mnt/sda5/.user/root/src/openwatcom-1.9/bld/plusplus/cpplib/runtime/cpp/fsregist.cpp
                _TEXT                 CODE           6fd01a5c  !      000003e0
                CONST                 DATA           6fd2d004  !      00000000
                CONST2                DATA           6fd2dbe8  !      00000000
                _DATA                 DATA           6fd316dd  !      00000000
                _BSS                  BSS            6fd33008  !      00000000
/mnt/sda5/.user/root/src/openwatcom-1.9/bld/plusplus/cpplib/runtime/cpp/stabfunc.cpp
                _TEXT                 CODE           6fd01e3c  !      00000030
                CONST                 DATA           6fd2d004  !      00000000
                CONST2                DATA           6fd2dbe8  !      00000000
                _DATA                 DATA           6fd316dd  !      00000000
                _BSS                  BSS            6fd33008  !      00000000
/mnt/sda5/.user/root/src/openwatcom-1.9/bld/plusplus/cpplib/runtime/cpp/stabreg.cpp
                _TEXT                 CODE           6fd01e6c  !      00000090
                CONST                 DATA           6fd2d004  !      00000000
                CONST2                DATA           6fd2dbe8  !      00000000
                _DATA                 DATA           6fd316dd  !      00000000
                _BSS                  BSS            6fd33008  !      00000000
/mnt/sda5/.user/root/src/openwatcom-1.9/bld/plusplus/cpplib/runtime/cpp/lock.cpp
                _TEXT                 CODE           6fd01efc  !      00000195
                CONST                 DATA           6fd2d004  !      00000000
                CONST2                DATA           6fd2dbe8  !      00000000
                _DATA                 DATA           6fd316dd  !      00000000
                _BSS                  BSS            6fd33008  !      00000000
                YIB                   DATA           6fd32cf4  !      00000000
                YI                    DATA           6fd32cf4  !      00000006
                YIE                   DATA           6fd32d00  !      00000000
/mnt/sda5/.user/root/src/openwatcom-1.9/bld/plusplus/cpplib/runtime/cpp/pure_err.cpp
                _TEXT                 CODE           6fd02091  !      00000041
                CONST                 DATA           6fd2d004  !      0000001e
                CONST2                DATA           6fd2dbe8  !      00000000
                _DATA                 DATA           6fd316dd  !      00000000
                _BSS                  BSS            6fd33008  !      00000000
/mnt/sda5/.user/root/src/openwatcom-1.9/bld/plusplus/cpplib/runtime/cpp/rttiptr.cpp
                _TEXT                 CODE           6fd020d2  !      0000005d
                CONST                 DATA           6fd2d022  !      00000000
                CONST2                DATA           6fd2dbf0  !      00000000
                _DATA                 DATA           6fd316dd  !      00000000
                _BSS                  BSS            6fd33008  !      00000000
/mnt/sda5/.user/root/src/openwatcom-1.9/bld/plusplus/cpplib/runtime/cpp/rttivoid.cpp
                _TEXT                 CODE           6fd0212f  !      0000005d
                CONST                 DATA           6fd2d022  !      00000000
                CONST2                DATA           6fd2dbf0  !      00000000
                _DATA                 DATA           6fd316dd  !      00000000
                _BSS                  BSS            6fd33008  !      00000000
/mnt/sda5/.user/root/src/openwatcom-1.9/bld/plusplus/cpplib/runtime/cpp/rttiref.cpp
                _TEXT                 CODE           6fd0218c  !      000000ef
                CONST                 DATA           6fd2d022  !      00000015
                CONST2                DATA           6fd2dbf0  !      00000084
                _DATA                 DATA           6fd316dd  !      00000000
                _BSS                  BSS            6fd33008  !      00000000
                _TEXT                 CODE           6fd0227b c!      00000065
                _TEXT                 CODE           6fd022e0 c!      00000070
                _TEXT                 CODE           6fd02350 c!      0000006e
                _TEXT                 CODE           6fd023be c!      000000c0
                _TEXT                 CODE           6fd0247e c!      0000005d
                _TEXT                 CODE           6fd024db c!      0000007f
                _TEXT                 CODE           6fd0255a c!      00000044
                _TEXT                 CODE           6fd0259e c!      000000e0
                CONST2                DATA           6fd2dc80 c!      0000000c
                CONST2                DATA           6fd2dc90 c!      0000000c
                CONST2                DATA           6fd2dca0 c!      00000008
                CONST2                DATA           6fd2dcb0 c!      0000001c
                CONST2                DATA           6fd2dcd0 c!      00000018
                CONST2                DATA           6fd2dcf0 c!      00000018
                CONST2                DATA           6fd2dd10 c!      0000001c
                _DATA                 DATA           6fd316dd c!      00000015
                _TEXT                 CODE           6fd0267e c!      00000034
                _TEXT                 CODE           6fd026b2 c!      00000034
                _TEXT                 CODE           6fd026e6 c!      00000034
                CONST2                DATA           6fd2dd30 c!      00000010
                _DATA                 DATA           6fd316f2 c!      00000016
/mnt/sda5/.user/root/src/openwatcom-1.9/bld/plusplus/cpplib/runtime/cpp/rttitid.cpp
                _TEXT                 CODE           6fd0271a  !      00000119
                CONST                 DATA           6fd2d037  !      00000016
                CONST2                DATA           6fd2dd40  !      00000084
                _DATA                 DATA           6fd31708  !      00000000
                _BSS                  BSS            6fd33008  !      00000000
                _TEXT                 CODE           6fd02833 c!      0000007f
                _TEXT                 CODE           6fd028b2 c!      00000044
                _TEXT                 CODE           6fd028f6 c!      000000e0
                CONST2                DATA           6fd2ddd0 c!      0000000c
                CONST2                DATA           6fd2dde0 c!      0000001c
                CONST2                DATA           6fd2de00 c!      00000018
                CONST2                DATA           6fd2de20 c!      0000001c
                _DATA                 DATA           6fd31708 c!      00000017
                _TEXT                 CODE           6fd029d6 c!      00000034
                _TEXT                 CODE           6fd02a0a c!      00000034
/mnt/sda5/.user/root/src/openwatcom-1.9/bld/plusplus/cpplib/runtime/cpp/setnwhdl.cpp
                _TEXT                 CODE           6fd02a3e  !      0000004f
                CONST                 DATA           6fd2d04d  !      00000000
                CONST2                DATA           6fd2de40  !      00000000
                _DATA                 DATA           6fd3171f  !      00000000
                _BSS                  BSS            6fd33008  !      00000000
/mnt/sda5/.user/root/src/openwatcom-1.9/bld/plusplus/cpplib/runtime/cpp/_stnwhdl.cpp
                _TEXT                 CODE           6fd02a8d  !      00000045
                CONST                 DATA           6fd2d04d  !      00000000
                CONST2                DATA           6fd2de40  !      00000000
                _DATA                 DATA           6fd3171f  !      00000000
                _BSS                  BSS            6fd33008  !      00000000
/mnt/sda5/.user/root/src/openwatcom-1.9/bld/plusplus/cpplib/runtime/cpp/settrmnt.cpp
                _TEXT                 CODE           6fd02ad2  !      0000004f
                CONST                 DATA           6fd2d04d  !      00000000
                CONST2                DATA           6fd2de40  !      00000000
                _DATA                 DATA           6fd3171f  !      00000000
                _BSS                  BSS            6fd33008  !      00000000
/mnt/sda5/.user/root/src/openwatcom-1.9/bld/plusplus/cpplib/runtime/cpp/setunexp.cpp
                _TEXT                 CODE           6fd02b21  !      0000004f
                CONST                 DATA           6fd2d04d  !      00000000
                CONST2                DATA           6fd2de40  !      00000000
                _DATA                 DATA           6fd3171f  !      00000000
                _BSS                  BSS            6fd33008  !      00000000
/mnt/sda5/.user/root/src/openwatcom-1.9/bld/plusplus/cpplib/runtime/cpp/sisema.cpp
                _TEXT                 CODE           6fd02b70  !      0000006c
                CONST                 DATA           6fd2d04d  !      00000000
                CONST2                DATA           6fd2de40  !      00000000
                _DATA                 DATA           6fd3171f  !      00000000
                _BSS                  BSS            6fd33008  !      00000000
/mnt/sda5/.user/root/src/openwatcom-1.9/bld/plusplus/cpplib/runtime/cpp/stabacp.cpp
                _TEXT                 CODE           6fd02bdc  !      00000135
                CONST                 DATA           6fd2d04d  !      00000000
                CONST2                DATA           6fd2de40  !      0000000c
                _DATA                 DATA           6fd3171f  !      00000000
                _BSS                  BSS            6fd33008  !      00000000
                CONST2                DATA           6fd2de50 c!      00000018
                _DATA                 DATA           6fd3171f c!      00000011
/mnt/sda5/.user/root/src/openwatcom-1.9/bld/plusplus/cpplib/runtime/cpp/stabacpv.cpp
                _TEXT                 CODE           6fd02d11  !      00000137
                CONST                 DATA           6fd2d04d  !      00000000
                CONST2                DATA           6fd2de70  !      0000000c
                _DATA                 DATA           6fd31730  !      00000000
                _BSS                  BSS            6fd33008  !      00000000
/mnt/sda5/.user/root/src/openwatcom-1.9/bld/plusplus/cpplib/runtime/cpp/stabact.cpp
                _TEXT                 CODE           6fd02e48  !      00000129
                CONST                 DATA           6fd2d04d  !      00000000
                CONST2                DATA           6fd2de80  !      0000000c
                _DATA                 DATA           6fd31730  !      00000000
                _BSS                  BSS            6fd33008  !      00000000
/mnt/sda5/.user/root/src/openwatcom-1.9/bld/plusplus/cpplib/runtime/cpp/stabactv.cpp
                _TEXT                 CODE           6fd02f71  !      0000012b
                CONST                 DATA           6fd2d04d  !      00000000
                CONST2                DATA           6fd2de90  !      0000000c
                _DATA                 DATA           6fd31730  !      00000000
                _BSS                  BSS            6fd33008  !      00000000
/mnt/sda5/.user/root/src/openwatcom-1.9/bld/plusplus/cpplib/runtime/cpp/stabadt.cpp
                _TEXT                 CODE           6fd0309c  !      00000241
                CONST                 DATA           6fd2d04d  !      00000024
                CONST2                DATA           6fd2dea0  !      0000000c
                _DATA                 DATA           6fd31730  !      00000000
                _BSS                  BSS            6fd33008  !      00000000
/mnt/sda5/.user/root/src/openwatcom-1.9/bld/plusplus/cpplib/runtime/cpp/stabdtor.cpp
                _TEXT                 CODE           6fd032dd  !      00000647
                CONST                 DATA           6fd2d071  !      0000007b
                CONST2                DATA           6fd2deac  !      00000000
                _DATA                 DATA           6fd31730  !      00000000
                _BSS                  BSS            6fd33008  !      00000000
/mnt/sda5/.user/root/src/openwatcom-1.9/bld/plusplus/cpplib/runtime/cpp/stabthrw.cpp
                _TEXT                 CODE           6fd03924  !      00000bda
                CONST                 DATA           6fd2d0ec  !      00000276
                CONST2                DATA           6fd2deb0  !      000000ec
                _DATA                 DATA           6fd31730  !      00000000
                _BSS                  BSS            6fd33008  !      00000000
                _TEXT                 CODE           6fd044fe c!      0000009b
                _TEXT                 CODE           6fd04599 c!      00000070
                _TEXT                 CODE           6fd04609 c!      000000fe
                CONST2                DATA           6fd2dfa0 c!      0000000c
                CONST2                DATA           6fd2dfb0 c!      00000008
                CONST2                DATA           6fd2dfc0 c!      0000001c
                CONST2                DATA           6fd2dfe0 c!      00000018
                CONST2                DATA           6fd2e000 c!      00000018
                CONST2                DATA           6fd2e020 c!      00000018
                CONST2                DATA           6fd2e040 c!      00000018
                CONST2                DATA           6fd2e060 c!      00000018
                CONST2                DATA           6fd2e080 c!      0000001c
                _DATA                 DATA           6fd31730 c!      0000000f
                _DATA                 DATA           6fd3173f c!      00000014
                _DATA                 DATA           6fd31753 c!      00000014
                _DATA                 DATA           6fd31767 c!      00000015
                _DATA                 DATA           6fd3177c c!      0000001a
                _TEXT                 CODE           6fd04707 c!      00000034
                _TEXT                 CODE           6fd0473b c!      00000034
/mnt/sda5/.user/root/src/openwatcom-1.9/bld/plusplus/cpplib/runtime/cpp/termnate.cpp
                _TEXT                 CODE           6fd0476f  !      0000007b
                CONST                 DATA           6fd2d362  !      00000022
                CONST2                DATA           6fd2e09c  !      00000000
                _DATA                 DATA           6fd31796  !      00000000
                _BSS                  BSS            6fd33008  !      00000000
/mnt/sda5/.user/root/src/openwatcom-1.9/bld/plusplus/cpplib/runtime/cpp/ti_bfor.cpp
                _TEXT                 CODE           6fd047ea  !      0000005a
                CONST                 DATA           6fd2d384  !      00000000
                CONST2                DATA           6fd2e0a0  !      00000000
                _DATA                 DATA           6fd31796  !      00000000
                _BSS                  BSS            6fd33008  !      00000000
/mnt/sda5/.user/root/src/openwatcom-1.9/bld/plusplus/cpplib/runtime/cpp/ti_dtor.cpp
                _TEXT                 CODE           6fd04844  !      0000002c
                CONST                 DATA           6fd2d384  !      00000000
                CONST2                DATA           6fd2e0a0  !      00000000
                _DATA                 DATA           6fd31796  !      00000000
                _BSS                  BSS            6fd33008  !      00000000
/mnt/sda5/.user/root/src/openwatcom-1.9/bld/plusplus/cpplib/runtime/cpp/ti_name.cpp
                _TEXT                 CODE           6fd04870  !      000001a3
                CONST                 DATA           6fd2d384  !      00000000
                CONST2                DATA           6fd2e0a0  !      00000018
                _DATA                 DATA           6fd31796  !      00000020
                _BSS                  BSS            6fd33010  !      00000015
                XIB                   DATA           6fd32ca0  !      00000000
                XI                    DATA           6fd32ca6  !      00000006
                XIE                   DATA           6fd32cf4  !      00000000
                CONST2                DATA           6fd2e0c0 c!      00000018
                CONST2                DATA           6fd2e0e0 c!      00000018
                _DATA                 DATA           6fd317b6 c!      00000028
                _DATA                 DATA           6fd317de c!      00000011
                _TEXT                 CODE           6fd04a13 c!      00000034
                _TEXT                 CODE           6fd04a47 c!      00000034
                CONST2                DATA           6fd2e100 c!      00000018
                _DATA                 DATA           6fd317ef c!      0000000e
/mnt/sda5/.user/root/src/openwatcom-1.9/bld/plusplus/cpplib/runtime/cpp/ti_raw.cpp
                _TEXT                 CODE           6fd04a7b  !      0000002e
                CONST                 DATA           6fd2d384  !      00000000
                CONST2                DATA           6fd2e120  !      00000000
                _DATA                 DATA           6fd317fd  !      00000000
                _BSS                  BSS            6fd33025  !      00000000
/mnt/sda5/.user/root/src/openwatcom-1.9/bld/plusplus/cpplib/runtime/cpp/ti_opeq.cpp
                _TEXT                 CODE           6fd04aa9  !      0000005a
                CONST                 DATA           6fd2d384  !      00000000
                CONST2                DATA           6fd2e120  !      00000000
                _DATA                 DATA           6fd317fd  !      00000000
                _BSS                  BSS            6fd33025  !      00000000
/mnt/sda5/.user/root/src/openwatcom-1.9/bld/plusplus/cpplib/runtime/cpp/ti_opne.cpp
                _TEXT                 CODE           6fd04b03  !      0000005a
                CONST                 DATA           6fd2d384  !      00000000
                CONST2                DATA           6fd2e120  !      00000000
                _DATA                 DATA           6fd317fd  !      00000000
                _BSS                  BSS            6fd33025  !      00000000
/mnt/sda5/.user/root/src/openwatcom-1.9/bld/plusplus/cpplib/runtime/cpp/undefed.cpp
                _TEXT                 CODE           6fd04b5d  !      0000002e
                CONST                 DATA           6fd2d384  !      0000002c
                CONST2                DATA           6fd2e120  !      00000000
                _DATA                 DATA           6fd317fd  !      00000000
                _BSS                  BSS            6fd33025  !      00000000
/mnt/sda5/.user/root/src/openwatcom-1.9/bld/plusplus/cpplib/runtime/cpp/undefmbr.cpp
                _TEXT                 CODE           6fd04b8b  !      0000002e
                CONST                 DATA           6fd2d3b0  !      0000003c
                CONST2                DATA           6fd2e120  !      00000000
                _DATA                 DATA           6fd317fd  !      00000000
                _BSS                  BSS            6fd33025  !      00000000
/mnt/sda5/.user/root/src/openwatcom-1.9/bld/plusplus/cpplib/runtime/cpp/unexpect.cpp
                _TEXT                 CODE           6fd04bb9  !      000000c8
                CONST                 DATA           6fd2d3ec  !      00000023
                CONST2                DATA           6fd2e120  !      0000000c
                _DATA                 DATA           6fd317fd  !      00000000
                _BSS                  BSS            6fd33025  !      00000000
/mnt/sda5/.user/root/src/openwatcom-1.9/bld/plusplus/cpplib/runtime/cpp/vfun_err.cpp
                _TEXT                 CODE           6fd04c81  !      00000041
                CONST                 DATA           6fd2d40f  !      00000032
                CONST2                DATA           6fd2e12c  !      00000000
                _DATA                 DATA           6fd317fd  !      00000000
                _BSS                  BSS            6fd33025  !      00000000
/mnt/sda5/.user/root/src/openwatcom-1.9/bld/plusplus/cpplib/iostream/cpp/flfattac.cpp
                _TEXT                 CODE           6fd04cc2  !      00000149
                CONST                 DATA           6fd2d441  !      00000000
                CONST2                DATA           6fd2e130  !      0000000c
                _DATA                 DATA           6fd317fd  !      00000000
                _BSS                  BSS            6fd33025  !      00000000
                _TEXT                 CODE           6fd04e0b c!      00000034
                CONST2                DATA           6fd2e140 c!      00000018
                _DATA                 DATA           6fd317fd c!      00000012
/mnt/sda5/.user/root/src/openwatcom-1.9/bld/plusplus/cpplib/iostream/cpp/flfclose.cpp
                _TEXT                 CODE           6fd04e3f  !      00000184
                CONST                 DATA           6fd2d441  !      00000000
                CONST2                DATA           6fd2e160  !      0000000c
                _DATA                 DATA           6fd3180f  !      00000000
                _BSS                  BSS            6fd33025  !      00000000
/mnt/sda5/.user/root/src/openwatcom-1.9/bld/plusplus/cpplib/iostream/cpp/flfconde.cpp
                _TEXT                 CODE           6fd04fc3  !      00000050
                CONST                 DATA           6fd2d441  !      00000000
                CONST2                DATA           6fd2e170  !      00000000
                _DATA                 DATA           6fd3180f  !      00000000
                _BSS                  BSS            6fd33025  !      00000000
                CONST2                DATA           6fd2e170 c!      00000030
                _DATA                 DATA           6fd3180f c!      00000016
                CONST2                DATA           6fd2e1a0 c!      0000001c
                _DATA                 DATA           6fd31825 c!      00000014
/mnt/sda5/.user/root/src/openwatcom-1.9/bld/plusplus/cpplib/iostream/cpp/flfconfd.cpp
                _TEXT                 CODE           6fd05013  !      000000a8
                CONST                 DATA           6fd2d441  !      00000000
                CONST2                DATA           6fd2e1c0  !      0000001c
                _DATA                 DATA           6fd31839  !      00000000
                _BSS                  BSS            6fd33025  !      00000000
                _TEXT                 CODE           6fd050bb c!      00000034
/mnt/sda5/.user/root/src/openwatcom-1.9/bld/plusplus/cpplib/iostream/cpp/flfconsf.cpp
                _TEXT                 CODE           6fd050ef  !      000000b8
                CONST                 DATA           6fd2d441  !      00000000
                CONST2                DATA           6fd2e1e0  !      0000001c
                _DATA                 DATA           6fd31839  !      00000000
                _BSS                  BSS            6fd33025  !      00000000
/mnt/sda5/.user/root/src/openwatcom-1.9/bld/plusplus/cpplib/iostream/cpp/flfdestr.cpp
                _TEXT                 CODE           6fd051a7  !      00000173
                CONST                 DATA           6fd2d441  !      00000000
                CONST2                DATA           6fd2e200  !      00000038
                _DATA                 DATA           6fd31839  !      00000000
                _BSS                  BSS            6fd33025  !      00000000
                CONST2                DATA           6fd2e240 c!      00000018
                _TEXT                 CODE           6fd0531a c!      00000034
/mnt/sda5/.user/root/src/openwatcom-1.9/bld/plusplus/cpplib/iostream/cpp/flfopen.cpp
                _TEXT                 CODE           6fd0534e  !      0000021f
                CONST                 DATA           6fd2d441  !      00000000
                CONST2                DATA           6fd2e260  !      0000000c
                _DATA                 DATA           6fd31839  !      00000000
                _BSS                  BSS            6fd33025  !      00000000
/mnt/sda5/.user/root/src/openwatcom-1.9/bld/plusplus/cpplib/iostream/cpp/flfoprot.cpp
                _TEXT                 CODE           6fd0556d  !      00000000
                CONST                 DATA           6fd2d441  !      00000000
                CONST2                DATA           6fd2e270  !      00000004
                _DATA                 DATA           6fd31839  !      00000000
                _BSS                  BSS            6fd33025  !      00000000
/mnt/sda5/.user/root/src/openwatcom-1.9/bld/plusplus/cpplib/iostream/cpp/flfoverf.cpp
                _TEXT                 CODE           6fd0556d  !      00000cbe
                CONST                 DATA           6fd2d441  !      00000000
                CONST2                DATA           6fd2e280  !      00000014
                _DATA                 DATA           6fd31839  !      00000000
                _BSS                  BSS            6fd33025  !      00000000
/mnt/sda5/.user/root/src/openwatcom-1.9/bld/plusplus/cpplib/iostream/cpp/flfpbfai.cpp
                _TEXT                 CODE           6fd0622b  !      000005de
                CONST                 DATA           6fd2d441  !      00000000
                CONST2                DATA           6fd2e2a0  !      00000024
                _DATA                 DATA           6fd31839  !      00000000
                _BSS                  BSS            6fd33025  !      00000000
/mnt/sda5/.user/root/src/openwatcom-1.9/bld/plusplus/cpplib/iostream/cpp/flfseeko.cpp
                _TEXT                 CODE           6fd06809  !      000002dd
                CONST                 DATA           6fd2d441  !      00000000
                CONST2                DATA           6fd2e2d0  !      0000000c
                _DATA                 DATA           6fd31839  !      00000000
                _BSS                  BSS            6fd33025  !      00000000
/mnt/sda5/.user/root/src/openwatcom-1.9/bld/plusplus/cpplib/iostream/cpp/flfsetbf.cpp
                _TEXT                 CODE           6fd06ae6  !      00000190
                CONST                 DATA           6fd2d441  !      00000000
                CONST2                DATA           6fd2e2e0  !      0000000c
                _DATA                 DATA           6fd31839  !      00000000
                _BSS                  BSS            6fd33025  !      00000000
/mnt/sda5/.user/root/src/openwatcom-1.9/bld/plusplus/cpplib/iostream/cpp/flfsync.cpp
                _TEXT                 CODE           6fd06c76  !      00000385
                CONST                 DATA           6fd2d441  !      00000000
                CONST2                DATA           6fd2e2f0  !      0000000c
                _DATA                 DATA           6fd31839  !      00000000
                _BSS                  BSS            6fd33025  !      00000000
/mnt/sda5/.user/root/src/openwatcom-1.9/bld/plusplus/cpplib/iostream/cpp/flfundrf.cpp
                _TEXT                 CODE           6fd06ffb  !      000009ff
                CONST                 DATA           6fd2d441  !      00000000
                CONST2                DATA           6fd2e300  !      00000014
                _DATA                 DATA           6fd31839  !      00000000
                _BSS                  BSS            6fd33025  !      00000000
/mnt/sda5/.user/root/src/openwatcom-1.9/bld/plusplus/cpplib/iostream/cpp/fsbattac.cpp
                _TEXT                 CODE           6fd079fa  !      0000019e
                CONST                 DATA           6fd2d441  !      00000000
                CONST2                DATA           6fd2e320  !      00000014
                _DATA                 DATA           6fd31839  !      00000000
                _BSS                  BSS            6fd33025  !      00000000
/mnt/sda5/.user/root/src/openwatcom-1.9/bld/plusplus/cpplib/iostream/cpp/fsbclose.cpp
                _TEXT                 CODE           6fd07b98  !      0000017b
                CONST                 DATA           6fd2d441  !      00000000
                CONST2                DATA           6fd2e340  !      00000014
                _DATA                 DATA           6fd31839  !      00000000
                _BSS                  BSS            6fd33025  !      00000000
/mnt/sda5/.user/root/src/openwatcom-1.9/bld/plusplus/cpplib/iostream/cpp/fsbconde.cpp
                _TEXT                 CODE           6fd07d13  !      00000122
                CONST                 DATA           6fd2d441  !      00000000
                CONST2                DATA           6fd2e360  !      00000034
                _DATA                 DATA           6fd31839  !      00000000
                _BSS                  BSS            6fd33025  !      00000000
                CONST2                DATA           6fd2e3a0 c!      00000008
                CONST2                DATA           6fd2e3b0 c!      00000008
                CONST2                DATA           6fd2e3c0 c!      00000008
                _DATA                 DATA           6fd31839 c!      00000010
                _TEXT                 CODE           6fd07e35 c!      00000033
                _TEXT                 CODE           6fd07e68 c!      00000034
                CONST2                DATA           6fd2e3d0 c!      00000024
                _DATA                 DATA           6fd31849 c!      00000018
/mnt/sda5/.user/root/src/openwatcom-1.9/bld/plusplus/cpplib/iostream/cpp/fsbconfd.cpp
                _TEXT                 CODE           6fd07e9c  !      00000152
                CONST                 DATA           6fd2d441  !      00000000
                CONST2                DATA           6fd2e400  !      00000034
                _DATA                 DATA           6fd31861  !      00000000
                _BSS                  BSS            6fd33025  !      00000000
/mnt/sda5/.user/root/src/openwatcom-1.9/bld/plusplus/cpplib/iostream/cpp/fsbconnm.cpp
                _TEXT                 CODE           6fd07fee  !      0000015b
                CONST                 DATA           6fd2d441  !      00000000
                CONST2                DATA           6fd2e440  !      00000034
                _DATA                 DATA           6fd31861  !      00000000
                _BSS                  BSS            6fd33025  !      00000000
/mnt/sda5/.user/root/src/openwatcom-1.9/bld/plusplus/cpplib/iostream/cpp/fsbconsf.cpp
                _TEXT                 CODE           6fd08149  !      00000163
                CONST                 DATA           6fd2d441  !      00000000
                CONST2                DATA           6fd2e480  !      00000034
                _DATA                 DATA           6fd31861  !      00000000
                _BSS                  BSS            6fd33025  !      00000000
/mnt/sda5/.user/root/src/openwatcom-1.9/bld/plusplus/cpplib/iostream/cpp/fsbdestr.cpp
                _TEXT                 CODE           6fd082ac  !      00000178
                CONST                 DATA           6fd2d441  !      00000000
                CONST2                DATA           6fd2e4c0  !      00000050
                _DATA                 DATA           6fd31861  !      00000000
                _BSS                  BSS            6fd33025  !      00000000
                CONST2                DATA           6fd2e510 c!      00000018
                _TEXT                 CODE           6fd08424 c!      00000034
/mnt/sda5/.user/root/src/openwatcom-1.9/bld/plusplus/cpplib/iostream/cpp/fsbopen.cpp
                _TEXT                 CODE           6fd08458  !      000001a6
                CONST                 DATA           6fd2d441  !      00000000
                CONST2                DATA           6fd2e530  !      00000014
                _DATA                 DATA           6fd31861  !      00000000
                _BSS                  BSS            6fd33025  !      00000000
/mnt/sda5/.user/root/src/openwatcom-1.9/bld/plusplus/cpplib/iostream/cpp/fsbsetbf.cpp
                _TEXT                 CODE           6fd085fe  !      0000018a
                CONST                 DATA           6fd2d441  !      00000000
                CONST2                DATA           6fd2e550  !      00000014
                _DATA                 DATA           6fd31861  !      00000000
                _BSS                  BSS            6fd33025  !      00000000
/mnt/sda5/.user/root/src/openwatcom-1.9/bld/plusplus/cpplib/iostream/cpp/fstconde.cpp
                _TEXT                 CODE           6fd08788  !      00000159
                CONST                 DATA           6fd2d441  !      00000000
                CONST2                DATA           6fd2e570  !      0000004c
                _DATA                 DATA           6fd31861  !      00000000
                _BSS                  BSS            6fd33025  !      00000000
                _TEXT                 CODE           6fd088e1 c!      0000002e
                _TEXT                 CODE           6fd0890f c!      0000002e
                CONST2                DATA           6fd2e5c0 c!      00000008
                CONST2                DATA           6fd2e5d0 c!      00000008
                CONST2                DATA           6fd2e5e0 c!      00000008
                CONST2                DATA           6fd2e5f0 c!      00000008
                CONST2                DATA           6fd2e600 c!      00000008
                CONST2                DATA           6fd2e610 c!      00000008
                CONST2                DATA           6fd2e620 c!      00000008
                _DATA                 DATA           6fd31861 c!      00000014
                _DATA                 DATA           6fd31875 c!      00000014
                _DATA                 DATA           6fd31889 c!      00000015
                _TEXT                 CODE           6fd0893d c!      00000033
                _TEXT                 CODE           6fd08970 c!      00000034
                CONST2                DATA           6fd2e630 c!      00000064
                _DATA                 DATA           6fd3189e c!      00000014
/mnt/sda5/.user/root/src/openwatcom-1.9/bld/plusplus/cpplib/iostream/cpp/fstconfd.cpp
                _TEXT                 CODE           6fd089a4  !      0000015d
                CONST                 DATA           6fd2d441  !      00000000
                CONST2                DATA           6fd2e6a0  !      0000004c
                _DATA                 DATA           6fd318b2  !      00000000
                _BSS                  BSS            6fd33025  !      00000000
/mnt/sda5/.user/root/src/openwatcom-1.9/bld/plusplus/cpplib/iostream/cpp/fstconnm.cpp
                _TEXT                 CODE           6fd08b01  !      00000187
                CONST                 DATA           6fd2d441  !      00000000
                CONST2                DATA           6fd2e6f0  !      0000004c
                _DATA                 DATA           6fd318b2  !      00000000
                _BSS                  BSS            6fd33025  !      00000000
/mnt/sda5/.user/root/src/openwatcom-1.9/bld/plusplus/cpplib/iostream/cpp/fstconsf.cpp
                _TEXT                 CODE           6fd08c88  !      00000167
                CONST                 DATA           6fd2d441  !      00000000
                CONST2                DATA           6fd2e740  !      0000004c
                _DATA                 DATA           6fd318b2  !      00000000
                _BSS                  BSS            6fd33025  !      00000000
/mnt/sda5/.user/root/src/openwatcom-1.9/bld/plusplus/cpplib/iostream/cpp/fstdestr.cpp
                _TEXT                 CODE           6fd08def  !      000001b4
                CONST                 DATA           6fd2d441  !      00000000
                CONST2                DATA           6fd2e790  !      00000068
                _DATA                 DATA           6fd318b2  !      00000000
                _BSS                  BSS            6fd33025  !      00000000
                CONST2                DATA           6fd2e800 c!      00000018
                _TEXT                 CODE           6fd08fa3 c!      00000034
/mnt/sda5/.user/root/src/openwatcom-1.9/bld/plusplus/cpplib/iostream/cpp/ifsconde.cpp
                _TEXT                 CODE           6fd08fd7  !      00000145
                CONST                 DATA           6fd2d441  !      00000000
                CONST2                DATA           6fd2e820  !      0000004c
                _DATA                 DATA           6fd318b2  !      00000000
                _BSS                  BSS            6fd33025  !      00000000
                _TEXT                 CODE           6fd0911c c!      0000002e
                CONST2                DATA           6fd2e870 c!      00000008
                CONST2                DATA           6fd2e880 c!      00000008
                CONST2                DATA           6fd2e890 c!      00000008
                CONST2                DATA           6fd2e8a0 c!      00000008
                CONST2                DATA           6fd2e8b0 c!      00000008
                _TEXT                 CODE           6fd0914a c!      00000033
                _TEXT                 CODE           6fd0917d c!      00000034
                CONST2                DATA           6fd2e8c0 c!      00000044
                _DATA                 DATA           6fd318b2 c!      00000015
/mnt/sda5/.user/root/src/openwatcom-1.9/bld/plusplus/cpplib/iostream/cpp/ifsconfd.cpp
                _TEXT                 CODE           6fd091b1  !      00000149
                CONST                 DATA           6fd2d441  !      00000000
                CONST2                DATA           6fd2e910  !      0000004c
                _DATA                 DATA           6fd318c7  !      00000000
                _BSS                  BSS            6fd33025  !      00000000
/mnt/sda5/.user/root/src/openwatcom-1.9/bld/plusplus/cpplib/iostream/cpp/ifsconnm.cpp
                _TEXT                 CODE           6fd092fa  !      00000156
                CONST                 DATA           6fd2d441  !      00000000
                CONST2                DATA           6fd2e960  !      0000004c
                _DATA                 DATA           6fd318c7  !      00000000
                _BSS                  BSS            6fd33025  !      00000000
/mnt/sda5/.user/root/src/openwatcom-1.9/bld/plusplus/cpplib/iostream/cpp/ifsconsf.cpp
                _TEXT                 CODE           6fd09450  !      00000153
                CONST                 DATA           6fd2d441  !      00000000
                CONST2                DATA           6fd2e9b0  !      0000004c
                _DATA                 DATA           6fd318c7  !      00000000
                _BSS                  BSS            6fd33025  !      00000000
/mnt/sda5/.user/root/src/openwatcom-1.9/bld/plusplus/cpplib/iostream/cpp/ifsdestr.cpp
                _TEXT                 CODE           6fd095a3  !      000001aa
                CONST                 DATA           6fd2d441  !      00000000
                CONST2                DATA           6fd2ea00  !      00000068
                _DATA                 DATA           6fd318c7  !      00000000
                _BSS                  BSS            6fd33025  !      00000000
                CONST2                DATA           6fd2ea70 c!      00000018
                _TEXT                 CODE           6fd0974d c!      00000034
/mnt/sda5/.user/root/src/openwatcom-1.9/bld/plusplus/cpplib/iostream/cpp/iofexdou.cpp
                _TEXT                 CODE           6fd09781  !      000001cb
                CONST                 DATA           6fd2d441  !      00000000
                CONST2                DATA           6fd2ea90  !      0000000c
                _DATA                 DATA           6fd318c7  !      00000000
                _BSS                  BSS            6fd33025  !      00000000
/mnt/sda5/.user/root/src/openwatcom-1.9/bld/plusplus/cpplib/iostream/cpp/iofexflo.cpp
                _TEXT                 CODE           6fd0994c  !      0000015a
                CONST                 DATA           6fd2d441  !      00000000
                CONST2                DATA           6fd2eaa0  !      0000000c
                _DATA                 DATA           6fd318c7  !      00000000
                _BSS                  BSS            6fd33025  !      00000000
/mnt/sda5/.user/root/src/openwatcom-1.9/bld/plusplus/cpplib/iostream/cpp/iofexldo.cpp
                _TEXT                 CODE           6fd09aa6  !      000001cb
                CONST                 DATA           6fd2d441  !      00000000
                CONST2                DATA           6fd2eab0  !      0000000c
                _DATA                 DATA           6fd318c7  !      00000000
                _BSS                  BSS            6fd33025  !      00000000
/mnt/sda5/.user/root/src/openwatcom-1.9/bld/plusplus/cpplib/iostream/cpp/iofnoefg.cpp
                _TEXT                 CODE           6fd09c71  !      0000002f
                CONST                 DATA           6fd2d441  !      00000026
                CONST2                DATA           6fd2eac0  !      00000000
                _DATA                 DATA           6fd318c8  !      00000014
                _BSS                  BSS            6fd33025  !      00000000
/mnt/sda5/.user/root/src/openwatcom-1.9/bld/plusplus/cpplib/iostream/cpp/iofoutfl.cpp
                _TEXT                 CODE           6fd09ca0  !      0000071c
                CONST                 DATA           6fd2d467  !      00000000
                CONST2                DATA           6fd2eac0  !      00000024
                _DATA                 DATA           6fd318dc  !      00000000
                _BSS                  BSS            6fd33025  !      00000000
/mnt/sda5/.user/root/src/openwatcom-1.9/bld/plusplus/cpplib/iostream/cpp/ioicerr.cpp
                _TEXT                 CODE           6fd0a3bc  !      00000169
                CONST                 DATA           6fd2d467  !      00000000
                CONST2                DATA           6fd2eaf0  !      00000024
                _DATA                 DATA           6fd318dc  !      00000030
                _BSS                  BSS            6fd33030  !      00000071
                XIB                   DATA           6fd32ca0  !      00000000
                XI                    DATA           6fd32cac  !      00000006
                XIE                   DATA           6fd32cf4  !      00000000
                CONST2                DATA           6fd2eb20 c!      00000018
                CONST2                DATA           6fd2eb40 c!      00000018
                _DATA                 DATA           6fd3190c c!      00000015
                _DATA                 DATA           6fd31921 c!      00000010
                _TEXT                 CODE           6fd0a525 c!      00000034
                _TEXT                 CODE           6fd0a559 c!      00000034
                CONST2                DATA           6fd2eb60 c!      00000018
/mnt/sda5/.user/root/src/openwatcom-1.9/bld/plusplus/cpplib/iostream/cpp/ioicin.cpp
                _TEXT                 CODE           6fd0a58d  !      00000123
                CONST                 DATA           6fd2d467  !      00000000
                CONST2                DATA           6fd2eb80  !      00000018
                _DATA                 DATA           6fd31931  !      00000020
                _BSS                  BSS            6fd330b0  !      00000075
                XIB                   DATA           6fd32ca0  !      00000000
                XI                    DATA           6fd32cb2  !      00000006
                XIE                   DATA           6fd32cf4  !      00000000
                CONST2                DATA           6fd2eba0 c!      00000018
/mnt/sda5/.user/root/src/openwatcom-1.9/bld/plusplus/cpplib/iostream/cpp/ioiclog.cpp
                _TEXT                 CODE           6fd0a6b0  !      00000122
                CONST                 DATA           6fd2d467  !      00000000
                CONST2                DATA           6fd2ebc0  !      00000024
                _DATA                 DATA           6fd31951  !      00000030
                _BSS                  BSS            6fd33130  !      00000071
                XIB                   DATA           6fd32ca0  !      00000000
                XI                    DATA           6fd32cb8  !      00000006
                XIE                   DATA           6fd32cf4  !      00000000
                _DATA                 DATA           6fd31981 c!      00000015
                CONST2                DATA           6fd2ebf0 c!      00000018
/mnt/sda5/.user/root/src/openwatcom-1.9/bld/plusplus/cpplib/iostream/cpp/ioicout.cpp
                _TEXT                 CODE           6fd0a7d2  !      00000122
                CONST                 DATA           6fd2d467  !      00000000
                CONST2                DATA           6fd2ec10  !      00000024
                _DATA                 DATA           6fd31996  !      00000030
                _BSS                  BSS            6fd331b0  !      00000071
                XIB                   DATA           6fd32ca0  !      00000000
                XI                    DATA           6fd32cbe  !      00000006
                XIE                   DATA           6fd32cf4  !      00000000
                _DATA                 DATA           6fd319c6 c!      00000015
                CONST2                DATA           6fd2ec40 c!      00000018
/mnt/sda5/.user/root/src/openwatcom-1.9/bld/plusplus/cpplib/iostream/cpp/ioilfofg.cpp
                _TEXT                 CODE           6fd0a8f4  !      00000000
                CONST                 DATA           6fd2d467  !      00000000
                CONST2                DATA           6fd2ec60  !      00000000
                _DATA                 DATA           6fd319dc  !      00000004
                _BSS                  BSS            6fd33221  !      00000000
/mnt/sda5/.user/root/src/openwatcom-1.9/bld/plusplus/cpplib/iostream/cpp/ioilock.cpp
                _TEXT                 CODE           6fd0a8f4  !      00000036
                CONST                 DATA           6fd2d467  !      00000000
                CONST2                DATA           6fd2ec60  !      0000000c
                _DATA                 DATA           6fd319e0  !      00000014
                _BSS                  BSS            6fd33230  !      00000010
                XIB                   DATA           6fd32ca0  !      00000000
                XI                    DATA           6fd32cc4  !      00000006
                XIE                   DATA           6fd32cf4  !      00000000
/mnt/sda5/.user/root/src/openwatcom-1.9/bld/plusplus/cpplib/iostream/cpp/ioixainx.cpp
                _TEXT                 CODE           6fd0a92a  !      00000000
                CONST                 DATA           6fd2d467  !      00000000
                CONST2                DATA           6fd2ec70  !      00000000
                _DATA                 DATA           6fd319f4  !      00000000
                _BSS                  BSS            6fd33240  !      00000004
/mnt/sda5/.user/root/src/openwatcom-1.9/bld/plusplus/cpplib/iostream/cpp/iolglcon.cpp
                _TEXT                 CODE           6fd0a92a  !      00000046
                CONST                 DATA           6fd2d467  !      00000000
                CONST2                DATA           6fd2ec70  !      00000000
                _DATA                 DATA           6fd319f4  !      00000000
                _BSS                  BSS            6fd33244  !      00000000
/mnt/sda5/.user/root/src/openwatcom-1.9/bld/plusplus/cpplib/iostream/cpp/iolgldes.cpp
                _TEXT                 CODE           6fd0a970  !      0000003e
                CONST                 DATA           6fd2d467  !      00000000
                CONST2                DATA           6fd2ec70  !      00000000
                _DATA                 DATA           6fd319f4  !      00000000
                _BSS                  BSS            6fd33244  !      00000000
/mnt/sda5/.user/root/src/openwatcom-1.9/bld/plusplus/cpplib/iostream/cpp/iosbital.cpp
                _TEXT                 CODE           6fd0a9ae  !      00000076
                CONST                 DATA           6fd2d467  !      00000000
                CONST2                DATA           6fd2ec70  !      00000000
                _DATA                 DATA           6fd319f4  !      00000000
                _BSS                  BSS            6fd33244  !      00000000
/mnt/sda5/.user/root/src/openwatcom-1.9/bld/plusplus/cpplib/iostream/cpp/iosclear.cpp
                _TEXT                 CODE           6fd0aa24  !      000000f0
                CONST                 DATA           6fd2d467  !      00000000
                CONST2                DATA           6fd2ec70  !      0000000c
                _DATA                 DATA           6fd319f4  !      00000000
                _BSS                  BSS            6fd33244  !      00000000
/mnt/sda5/.user/root/src/openwatcom-1.9/bld/plusplus/cpplib/iostream/cpp/ioscoeio.cpp
                _TEXT                 CODE           6fd0ab14  !      00000262
                CONST                 DATA           6fd2d467  !      00000000
                CONST2                DATA           6fd2ec80  !      0000001c
                _DATA                 DATA           6fd319f4  !      00000000
                _BSS                  BSS            6fd33244  !      00000000
/mnt/sda5/.user/root/src/openwatcom-1.9/bld/plusplus/cpplib/iostream/cpp/ioscoios.cpp
                _TEXT                 CODE           6fd0ad76  !      00000125
                CONST                 DATA           6fd2d467  !      00000000
                CONST2                DATA           6fd2eca0  !      0000000c
                _DATA                 DATA           6fd319f4  !      00000000
                _BSS                  BSS            6fd33244  !      00000000
                CONST2                DATA           6fd2ecb0 c!      00000008
                CONST2                DATA           6fd2ecc0 c!      00000010
/mnt/sda5/.user/root/src/openwatcom-1.9/bld/plusplus/cpplib/iostream/cpp/iosconde.cpp
                _TEXT                 CODE           6fd0ae9b  !      00000035
                CONST                 DATA           6fd2d467  !      00000000
                CONST2                DATA           6fd2ecd0  !      00000000
                _DATA                 DATA           6fd319f4  !      00000000
                _BSS                  BSS            6fd33244  !      00000000
/mnt/sda5/.user/root/src/openwatcom-1.9/bld/plusplus/cpplib/iostream/cpp/ioscostf.cpp
                _TEXT                 CODE           6fd0aed0  !      00000041
                CONST                 DATA           6fd2d467  !      00000000
                CONST2                DATA           6fd2ecd0  !      00000000
                _DATA                 DATA           6fd319f4  !      00000000
                _BSS                  BSS            6fd33244  !      00000000
/mnt/sda5/.user/root/src/openwatcom-1.9/bld/plusplus/cpplib/iostream/cpp/iosdestr.cpp
                _TEXT                 CODE           6fd0af11  !      000000c8
                CONST                 DATA           6fd2d467  !      00000000
                CONST2                DATA           6fd2ecd0  !      00000018
                _DATA                 DATA           6fd319f4  !      00000000
                _BSS                  BSS            6fd33244  !      00000000
                CONST2                DATA           6fd2ecf0 c!      00000018
/mnt/sda5/.user/root/src/openwatcom-1.9/bld/plusplus/cpplib/iostream/cpp/iosexcep.cpp
                _TEXT                 CODE           6fd0afd9  !      000000ee
                CONST                 DATA           6fd2d467  !      00000000
                CONST2                DATA           6fd2ed10  !      0000000c
                _DATA                 DATA           6fd319f4  !      00000000
                _BSS                  BSS            6fd33244  !      00000000
/mnt/sda5/.user/root/src/openwatcom-1.9/bld/plusplus/cpplib/iostream/cpp/iosinit.cpp
                _TEXT                 CODE           6fd0b0c7  !      00000095
                CONST                 DATA           6fd2d467  !      00000000
                CONST2                DATA           6fd2ed20  !      00000000
                _DATA                 DATA           6fd319f4  !      00000000
                _BSS                  BSS            6fd33244  !      00000000
/mnt/sda5/.user/root/src/openwatcom-1.9/bld/plusplus/cpplib/iostream/cpp/iosiword.cpp
                _TEXT                 CODE           6fd0b15c  !      000000f4
                CONST                 DATA           6fd2d467  !      00000000
                CONST2                DATA           6fd2ed20  !      0000000c
                _DATA                 DATA           6fd319f4  !      00000000
                _BSS                  BSS            6fd33244  !      00000000
/mnt/sda5/.user/root/src/openwatcom-1.9/bld/plusplus/cpplib/iostream/cpp/iospword.cpp
                _TEXT                 CODE           6fd0b250  !      000000f4
                CONST                 DATA           6fd2d467  !      00000000
                CONST2                DATA           6fd2ed30  !      0000000c
                _DATA                 DATA           6fd319f4  !      00000000
                _BSS                  BSS            6fd33244  !      00000000
/mnt/sda5/.user/root/src/openwatcom-1.9/bld/plusplus/cpplib/iostream/cpp/iossetst.cpp
                _TEXT                 CODE           6fd0b344  !      000000d6
                CONST                 DATA           6fd2d467  !      00000000
                CONST2                DATA           6fd2ed40  !      0000000c
                _DATA                 DATA           6fd319f4  !      00000000
                _BSS                  BSS            6fd33244  !      00000000
                _TEXT                 CODE           6fd0b41a c!      0000004e
                _TEXT                 CODE           6fd0b468 c!      0000002c
                _TEXT                 CODE           6fd0b494 c!      0000002c
                CONST2                DATA           6fd2ed50 c!      0000001c
                CONST2                DATA           6fd2ed70 c!      00000018
                _DATA                 DATA           6fd319f4 c!      0000001a
                _DATA                 DATA           6fd31a0e c!      00000019
                _TEXT                 CODE           6fd0b4c0 c!      0000002c
                CONST2                DATA           6fd2ed90 c!      00000018
/mnt/sda5/.user/root/src/openwatcom-1.9/bld/plusplus/cpplib/iostream/cpp/iosxallo.cpp
                _TEXT                 CODE           6fd0b4ec  !      00000057
                CONST                 DATA           6fd2d467  !      00000000
                CONST2                DATA           6fd2edb0  !      00000000
                _DATA                 DATA           6fd31a27  !      00000000
                _BSS                  BSS            6fd33244  !      00000000
/mnt/sda5/.user/root/src/openwatcom-1.9/bld/plusplus/cpplib/iostream/cpp/iotconbf.cpp
                _TEXT                 CODE           6fd0b543  !      000001ba
                CONST                 DATA           6fd2d467  !      00000000
                CONST2                DATA           6fd2edb0  !      0000004c
                _DATA                 DATA           6fd31a27  !      00000000
                _BSS                  BSS            6fd33244  !      00000000
                _TEXT                 CODE           6fd0b6fd c!      0000002e
                CONST2                DATA           6fd2ee00 c!      00000008
                CONST2                DATA           6fd2ee10 c!      00000008
                CONST2                DATA           6fd2ee20 c!      00000008
                CONST2                DATA           6fd2ee30 c!      00000008
                CONST2                DATA           6fd2ee40 c!      00000008
                _TEXT                 CODE           6fd0b72b c!      00000033
                CONST2                DATA           6fd2ee50 c!      00000044
/mnt/sda5/.user/root/src/openwatcom-1.9/bld/plusplus/cpplib/iostream/cpp/iotconde.cpp
                _TEXT                 CODE           6fd0b75e  !      0000019e
                CONST                 DATA           6fd2d467  !      00000000
                CONST2                DATA           6fd2eea0  !      0000004c
                _DATA                 DATA           6fd31a27  !      00000000
                _BSS                  BSS            6fd33244  !      00000000
/mnt/sda5/.user/root/src/openwatcom-1.9/bld/plusplus/cpplib/iostream/cpp/iotconsm.cpp
                _TEXT                 CODE           6fd0b8fc  !      000001c1
                CONST                 DATA           6fd2d467  !      00000000
                CONST2                DATA           6fd2eef0  !      00000054
                _DATA                 DATA           6fd31a27  !      00000000
                _BSS                  BSS            6fd33244  !      00000000
/mnt/sda5/.user/root/src/openwatcom-1.9/bld/plusplus/cpplib/iostream/cpp/iotdestr.cpp
                _TEXT                 CODE           6fd0babd  !      000001aa
                CONST                 DATA           6fd2d467  !      00000000
                CONST2                DATA           6fd2ef50  !      00000068
                _DATA                 DATA           6fd31a27  !      00000000
                _BSS                  BSS            6fd33244  !      00000000
                CONST2                DATA           6fd2efc0 c!      00000018
/mnt/sda5/.user/root/src/openwatcom-1.9/bld/plusplus/cpplib/iostream/cpp/iotopbuf.cpp
                _TEXT                 CODE           6fd0bc67  !      000000fd
                CONST                 DATA           6fd2d467  !      00000000
                CONST2                DATA           6fd2efe0  !      0000000c
                _DATA                 DATA           6fd31a27  !      00000000
                _BSS                  BSS            6fd33244  !      00000000
/mnt/sda5/.user/root/src/openwatcom-1.9/bld/plusplus/cpplib/iostream/cpp/iotopstm.cpp
                _TEXT                 CODE           6fd0bd64  !      00000154
                CONST                 DATA           6fd2d467  !      00000000
                CONST2                DATA           6fd2eff0  !      00000014
                _DATA                 DATA           6fd31a27  !      00000000
                _BSS                  BSS            6fd33244  !      00000000
/mnt/sda5/.user/root/src/openwatcom-1.9/bld/plusplus/cpplib/iostream/cpp/ioufrxal.cpp
                _TEXT                 CODE           6fd0beb8  !      0000004a
                CONST                 DATA           6fd2d467  !      00000000
                CONST2                DATA           6fd2f010  !      00000000
                _DATA                 DATA           6fd31a27  !      00000000
                _BSS                  BSS            6fd33244  !      00000000
/mnt/sda5/.user/root/src/openwatcom-1.9/bld/plusplus/cpplib/iostream/cpp/ioufuswr.cpp
                _TEXT                 CODE           6fd0bf02  !      0000012b
                CONST                 DATA           6fd2d467  !      00000000
                CONST2                DATA           6fd2f010  !      00000000
                _DATA                 DATA           6fd31a27  !      00000000
                _BSS                  BSS            6fd33244  !      00000000
/mnt/sda5/.user/root/src/openwatcom-1.9/bld/plusplus/cpplib/iostream/cpp/iouwrtit.cpp
                _TEXT                 CODE           6fd0c02d  !      00000f89
                CONST                 DATA           6fd2d467  !      00000000
                CONST2                DATA           6fd2f010  !      0000007c
                _DATA                 DATA           6fd31a27  !      00000000
                _BSS                  BSS            6fd33244  !      00000000
                CONST2                DATA           6fd2f090 c!      00000008
/mnt/sda5/.user/root/src/openwatcom-1.9/bld/plusplus/cpplib/iostream/cpp/isscochz.cpp
                _TEXT                 CODE           6fd0cfb6  !      0000014f
                CONST                 DATA           6fd2d467  !      00000000
                CONST2                DATA           6fd2f0a0  !      0000004c
                _DATA                 DATA           6fd31a27  !      00000000
                _BSS                  BSS            6fd33244  !      00000000
                _TEXT                 CODE           6fd0d105 c!      0000002e
                CONST2                DATA           6fd2f0f0 c!      00000008
                CONST2                DATA           6fd2f100 c!      00000008
                CONST2                DATA           6fd2f110 c!      00000008
                CONST2                DATA           6fd2f120 c!      00000008
                CONST2                DATA           6fd2f130 c!      00000008
                _DATA                 DATA           6fd31a27 c!      0000001a
                _TEXT                 CODE           6fd0d133 c!      00000033
                _TEXT                 CODE           6fd0d166 c!      00000034
                CONST2                DATA           6fd2f140 c!      00000044
                _DATA                 DATA           6fd31a41 c!      00000017
/mnt/sda5/.user/root/src/openwatcom-1.9/bld/plusplus/cpplib/iostream/cpp/issconch.cpp
                _TEXT                 CODE           6fd0d19a  !      0000014d
                CONST                 DATA           6fd2d467  !      00000000
                CONST2                DATA           6fd2f190  !      0000004c
                _DATA                 DATA           6fd31a58  !      00000000
                _BSS                  BSS            6fd33244  !      00000000
/mnt/sda5/.user/root/src/openwatcom-1.9/bld/plusplus/cpplib/iostream/cpp/issconsc.cpp
                _TEXT                 CODE           6fd0d2e7  !      0000014d
                CONST                 DATA           6fd2d467  !      00000000
                CONST2                DATA           6fd2f1e0  !      0000004c
                _DATA                 DATA           6fd31a58  !      00000000
                _BSS                  BSS            6fd33244  !      00000000
/mnt/sda5/.user/root/src/openwatcom-1.9/bld/plusplus/cpplib/iostream/cpp/issconuc.cpp
                _TEXT                 CODE           6fd0d434  !      0000014d
                CONST                 DATA           6fd2d467  !      00000000
                CONST2                DATA           6fd2f230  !      0000004c
                _DATA                 DATA           6fd31a58  !      00000000
                _BSS                  BSS            6fd33244  !      00000000
/mnt/sda5/.user/root/src/openwatcom-1.9/bld/plusplus/cpplib/iostream/cpp/isscoscz.cpp
                _TEXT                 CODE           6fd0d581  !      0000014f
                CONST                 DATA           6fd2d467  !      00000000
                CONST2                DATA           6fd2f280  !      0000004c
                _DATA                 DATA           6fd31a58  !      00000000
                _BSS                  BSS            6fd33244  !      00000000
/mnt/sda5/.user/root/src/openwatcom-1.9/bld/plusplus/cpplib/iostream/cpp/isscoucz.cpp
                _TEXT                 CODE           6fd0d6d0  !      0000014f
                CONST                 DATA           6fd2d467  !      00000000
                CONST2                DATA           6fd2f2d0  !      0000004c
                _DATA                 DATA           6fd31a58  !      00000000
                _BSS                  BSS            6fd33244  !      00000000
/mnt/sda5/.user/root/src/openwatcom-1.9/bld/plusplus/cpplib/iostream/cpp/issdestr.cpp
                _TEXT                 CODE           6fd0d81f  !      000001aa
                CONST                 DATA           6fd2d467  !      00000000
                CONST2                DATA           6fd2f320  !      00000068
                _DATA                 DATA           6fd31a58  !      00000000
                _BSS                  BSS            6fd33244  !      00000000
                CONST2                DATA           6fd2f390 c!      00000018
                _TEXT                 CODE           6fd0d9c9 c!      00000034
/mnt/sda5/.user/root/src/openwatcom-1.9/bld/plusplus/cpplib/iostream/cpp/istcoeis.cpp
                _TEXT                 CODE           6fd0d9fd  !      000001a4
                CONST                 DATA           6fd2d467  !      00000000
                CONST2                DATA           6fd2f3b0  !      00000014
                _DATA                 DATA           6fd31a58  !      00000000
                _BSS                  BSS            6fd33244  !      00000000
/mnt/sda5/.user/root/src/openwatcom-1.9/bld/plusplus/cpplib/iostream/cpp/istcoesf.cpp
                _TEXT                 CODE           6fd0dba1  !      000000fd
                CONST                 DATA           6fd2d467  !      00000000
                CONST2                DATA           6fd2f3d0  !      0000000c
                _DATA                 DATA           6fd31a58  !      00000000
                _BSS                  BSS            6fd33244  !      00000000
/mnt/sda5/.user/root/src/openwatcom-1.9/bld/plusplus/cpplib/iostream/cpp/istcoist.cpp
                _TEXT                 CODE           6fd0dc9e  !      000001ed
                CONST                 DATA           6fd2d467  !      00000000
                CONST2                DATA           6fd2f3e0  !      00000024
                _DATA                 DATA           6fd31a58  !      00000000
                _BSS                  BSS            6fd33244  !      00000000
                CONST2                DATA           6fd2f410 c!      00000008
                CONST2                DATA           6fd2f420 c!      00000008
                CONST2                DATA           6fd2f430 c!      00000008
                _TEXT                 CODE           6fd0de8b c!      00000033
                CONST2                DATA           6fd2f440 c!      00000024
/mnt/sda5/.user/root/src/openwatcom-1.9/bld/plusplus/cpplib/iostream/cpp/istconde.cpp
                _TEXT                 CODE           6fd0debe  !      0000013e
                CONST                 DATA           6fd2d467  !      00000000
                CONST2                DATA           6fd2f470  !      0000001c
                _DATA                 DATA           6fd31a58  !      00000000
                _BSS                  BSS            6fd33244  !      00000000
/mnt/sda5/.user/root/src/openwatcom-1.9/bld/plusplus/cpplib/iostream/cpp/istconsf.cpp
                _TEXT                 CODE           6fd0dffc  !      0000015a
                CONST                 DATA           6fd2d467  !      00000000
                CONST2                DATA           6fd2f490  !      0000001c
                _DATA                 DATA           6fd31a58  !      00000000
                _BSS                  BSS            6fd33244  !      00000000
/mnt/sda5/.user/root/src/openwatcom-1.9/bld/plusplus/cpplib/iostream/cpp/istdestr.cpp
                _TEXT                 CODE           6fd0e156  !      00000144
                CONST                 DATA           6fd2d467  !      00000000
                CONST2                DATA           6fd2f4b0  !      00000038
                _DATA                 DATA           6fd31a58  !      00000000
                _BSS                  BSS            6fd33244  !      00000000
/mnt/sda5/.user/root/src/openwatcom-1.9/bld/plusplus/cpplib/iostream/cpp/istdipfx.cpp
                _TEXT                 CODE           6fd0e29a  !      000002e8
                CONST                 DATA           6fd2d467  !      00000000
                CONST2                DATA           6fd2f4f0  !      0000000c
                _DATA                 DATA           6fd31a58  !      00000000
                _BSS                  BSS            6fd33244  !      00000000
/mnt/sda5/.user/root/src/openwatcom-1.9/bld/plusplus/cpplib/iostream/cpp/istdoget.cpp
                _TEXT                 CODE           6fd0e582  !      0000022e
                CONST                 DATA           6fd2d467  !      00000000
                CONST2                DATA           6fd2f500  !      00000014
                _DATA                 DATA           6fd31a58  !      00000000
                _BSS                  BSS            6fd33244  !      00000000
/mnt/sda5/.user/root/src/openwatcom-1.9/bld/plusplus/cpplib/iostream/cpp/istdread.cpp
                _TEXT                 CODE           6fd0e7b0  !      00000348
                CONST                 DATA           6fd2d467  !      00000000
                CONST2                DATA           6fd2f520  !      00000014
                _DATA                 DATA           6fd31a58  !      00000000
                _BSS                  BSS            6fd33244  !      00000000
/mnt/sda5/.user/root/src/openwatcom-1.9/bld/plusplus/cpplib/iostream/cpp/istdrshf.cpp
                _TEXT                 CODE           6fd0eaf8  !      0000021a
                CONST                 DATA           6fd2d467  !      00000000
                CONST2                DATA           6fd2f540  !      00000014
                _DATA                 DATA           6fd31a58  !      00000000
                _BSS                  BSS            6fd33244  !      00000000
/mnt/sda5/.user/root/src/openwatcom-1.9/bld/plusplus/cpplib/iostream/cpp/isteatwh.cpp
                _TEXT                 CODE           6fd0ed12  !      000000cc
                CONST                 DATA           6fd2d467  !      00000000
                CONST2                DATA           6fd2f560  !      0000000c
                _DATA                 DATA           6fd31a58  !      00000000
                _BSS                  BSS            6fd33244  !      00000000
/mnt/sda5/.user/root/src/openwatcom-1.9/bld/plusplus/cpplib/iostream/cpp/istexcha.cpp
                _TEXT                 CODE           6fd0edde  !      000004c8
                CONST                 DATA           6fd2d467  !      00000000
                CONST2                DATA           6fd2f570  !      00000024
                _DATA                 DATA           6fd31a58  !      00000000
                _BSS                  BSS            6fd33244  !      00000000
/mnt/sda5/.user/root/src/openwatcom-1.9/bld/plusplus/cpplib/iostream/cpp/istexi64.cpp
                _TEXT                 CODE           6fd0f2a6  !      0000024e
                CONST                 DATA           6fd2d467  !      00000000
                CONST2                DATA           6fd2f5a0  !      00000014
                _DATA                 DATA           6fd31a58  !      00000000
                _BSS                  BSS            6fd33244  !      00000000
/mnt/sda5/.user/root/src/openwatcom-1.9/bld/plusplus/cpplib/iostream/cpp/isteximn.cpp
                _TEXT                 CODE           6fd0f4f4  !      0000002f
                CONST                 DATA           6fd2d467  !      00000000
                CONST2                DATA           6fd2f5c0  !      00000000
                _DATA                 DATA           6fd31a58  !      00000000
                _BSS                  BSS            6fd33244  !      00000000
/mnt/sda5/.user/root/src/openwatcom-1.9/bld/plusplus/cpplib/iostream/cpp/istexiom.cpp
                _TEXT                 CODE           6fd0f523  !      00000042
                CONST                 DATA           6fd2d467  !      00000000
                CONST2                DATA           6fd2f5c0  !      00000000
                _DATA                 DATA           6fd31a58  !      00000000
                _BSS                  BSS            6fd33244  !      00000000
/mnt/sda5/.user/root/src/openwatcom-1.9/bld/plusplus/cpplib/iostream/cpp/istexpch.cpp
                _TEXT                 CODE           6fd0f565  !      000005e9
                CONST                 DATA           6fd2d467  !      00000000
                CONST2                DATA           6fd2f5c0  !      0000002c
                _DATA                 DATA           6fd31a58  !      00000000
                _BSS                  BSS            6fd33244  !      00000000
/mnt/sda5/.user/root/src/openwatcom-1.9/bld/plusplus/cpplib/iostream/cpp/istexsin.cpp
                _TEXT                 CODE           6fd0fb4e  !      00000235
                CONST                 DATA           6fd2d467  !      00000000
                CONST2                DATA           6fd2f5f0  !      00000014
                _DATA                 DATA           6fd31a58  !      00000000
                _BSS                  BSS            6fd33244  !      00000000
/mnt/sda5/.user/root/src/openwatcom-1.9/bld/plusplus/cpplib/iostream/cpp/istexslo.cpp
                _TEXT                 CODE           6fd0fd83  !      00000235
                CONST                 DATA           6fd2d467  !      00000000
                CONST2                DATA           6fd2f610  !      00000014
                _DATA                 DATA           6fd31a58  !      00000000
                _BSS                  BSS            6fd33244  !      00000000
/mnt/sda5/.user/root/src/openwatcom-1.9/bld/plusplus/cpplib/iostream/cpp/istexssh.cpp
                _TEXT                 CODE           6fd0ffb8  !      00000236
                CONST                 DATA           6fd2d467  !      00000000
                CONST2                DATA           6fd2f630  !      00000014
                _DATA                 DATA           6fd31a58  !      00000000
                _BSS                  BSS            6fd33244  !      00000000
/mnt/sda5/.user/root/src/openwatcom-1.9/bld/plusplus/cpplib/iostream/cpp/istexstf.cpp
                _TEXT                 CODE           6fd101ee  !      000005ba
                CONST                 DATA           6fd2d467  !      00000000
                CONST2                DATA           6fd2f650  !      00000034
                _DATA                 DATA           6fd31a58  !      00000000
                _BSS                  BSS            6fd33244  !      00000000
                CONST2                DATA           6fd2f690 c!      00000008
/mnt/sda5/.user/root/src/openwatcom-1.9/bld/plusplus/cpplib/iostream/cpp/istexu64.cpp
                _TEXT                 CODE           6fd107a8  !      0000024b
                CONST                 DATA           6fd2d467  !      00000000
                CONST2                DATA           6fd2f6a0  !      00000014
                _DATA                 DATA           6fd31a58  !      00000000
                _BSS                  BSS            6fd33244  !      00000000
/mnt/sda5/.user/root/src/openwatcom-1.9/bld/plusplus/cpplib/iostream/cpp/istexuin.cpp
                _TEXT                 CODE           6fd109f3  !      00000235
                CONST                 DATA           6fd2d467  !      00000000
                CONST2                DATA           6fd2f6c0  !      00000014
                _DATA                 DATA           6fd31a58  !      00000000
                _BSS                  BSS            6fd33244  !      00000000
/mnt/sda5/.user/root/src/openwatcom-1.9/bld/plusplus/cpplib/iostream/cpp/istexulo.cpp
                _TEXT                 CODE           6fd10c28  !      00000235
                CONST                 DATA           6fd2d467  !      00000000
                CONST2                DATA           6fd2f6e0  !      00000014
                _DATA                 DATA           6fd31a58  !      00000000
                _BSS                  BSS            6fd33244  !      00000000
/mnt/sda5/.user/root/src/openwatcom-1.9/bld/plusplus/cpplib/iostream/cpp/istexush.cpp
                _TEXT                 CODE           6fd10e5d  !      00000236
                CONST                 DATA           6fd2d467  !      00000000
                CONST2                DATA           6fd2f700  !      00000014
                _DATA                 DATA           6fd31a58  !      00000000
                _BSS                  BSS            6fd33244  !      00000000
/mnt/sda5/.user/root/src/openwatcom-1.9/bld/plusplus/cpplib/iostream/cpp/istgch.cpp
                _TEXT                 CODE           6fd11093  !      00000466
                CONST                 DATA           6fd2d467  !      00000000
                CONST2                DATA           6fd2f720  !      00000024
                _DATA                 DATA           6fd31a58  !      00000000
                _BSS                  BSS            6fd33244  !      00000000
/mnt/sda5/.user/root/src/openwatcom-1.9/bld/plusplus/cpplib/iostream/cpp/istget.cpp
                _TEXT                 CODE           6fd114f9  !      00000253
                CONST                 DATA           6fd2d467  !      00000000
                CONST2                DATA           6fd2f750  !      00000014
                _DATA                 DATA           6fd31a58  !      00000000
                _BSS                  BSS            6fd33244  !      00000000
/mnt/sda5/.user/root/src/openwatcom-1.9/bld/plusplus/cpplib/iostream/cpp/istgline.cpp
                _TEXT                 CODE           6fd1174c  !      0000011d
                CONST                 DATA           6fd2d467  !      00000000
                CONST2                DATA           6fd2f770  !      0000000c
                _DATA                 DATA           6fd31a58  !      00000000
                _BSS                  BSS            6fd33244  !      00000000
/mnt/sda5/.user/root/src/openwatcom-1.9/bld/plusplus/cpplib/iostream/cpp/istgpch.cpp
                _TEXT                 CODE           6fd11869  !      0000011d
                CONST                 DATA           6fd2d467  !      00000000
                CONST2                DATA           6fd2f780  !      0000000c
                _DATA                 DATA           6fd31a58  !      00000000
                _BSS                  BSS            6fd33244  !      00000000
/mnt/sda5/.user/root/src/openwatcom-1.9/bld/plusplus/cpplib/iostream/cpp/istgstf.cpp
                _TEXT                 CODE           6fd11986  !      0000057e
                CONST                 DATA           6fd2d467  !      00000000
                CONST2                DATA           6fd2f790  !      00000044
                _DATA                 DATA           6fd31a58  !      00000000
                _BSS                  BSS            6fd33244  !      00000000
/mnt/sda5/.user/root/src/openwatcom-1.9/bld/plusplus/cpplib/iostream/cpp/istignor.cpp
                _TEXT                 CODE           6fd11f04  !      00000284
                CONST                 DATA           6fd2d467  !      00000000
                CONST2                DATA           6fd2f7e0  !      0000001c
                _DATA                 DATA           6fd31a58  !      00000000
                _BSS                  BSS            6fd33244  !      00000000
/mnt/sda5/.user/root/src/openwatcom-1.9/bld/plusplus/cpplib/iostream/cpp/istipfx.cpp
                _TEXT                 CODE           6fd12188  !      000001c9
                CONST                 DATA           6fd2d467  !      00000000
                CONST2                DATA           6fd2f800  !      0000000c
                _DATA                 DATA           6fd31a58  !      00000000
                _BSS                  BSS            6fd33244  !      00000000
/mnt/sda5/.user/root/src/openwatcom-1.9/bld/plusplus/cpplib/iostream/cpp/istpback.cpp
                _TEXT                 CODE           6fd12351  !      000002f1
                CONST                 DATA           6fd2d467  !      00000000
                CONST2                DATA           6fd2f810  !      00000014
                _DATA                 DATA           6fd31a58  !      00000000
                _BSS                  BSS            6fd33244  !      00000000
/mnt/sda5/.user/root/src/openwatcom-1.9/bld/plusplus/cpplib/iostream/cpp/istpeek.cpp
                _TEXT                 CODE           6fd12642  !      00000222
                CONST                 DATA           6fd2d467  !      00000000
                CONST2                DATA           6fd2f830  !      00000014
                _DATA                 DATA           6fd31a58  !      00000000
                _BSS                  BSS            6fd33244  !      00000000
/mnt/sda5/.user/root/src/openwatcom-1.9/bld/plusplus/cpplib/iostream/cpp/istread.cpp
                _TEXT                 CODE           6fd12864  !      00000508
                CONST                 DATA           6fd2d467  !      00000000
                CONST2                DATA           6fd2f850  !      00000024
                _DATA                 DATA           6fd31a58  !      00000000
                _BSS                  BSS            6fd33244  !      00000000
/mnt/sda5/.user/root/src/openwatcom-1.9/bld/plusplus/cpplib/iostream/cpp/istsgsto.cpp
                _TEXT                 CODE           6fd12d6c  !      0000015c
                CONST                 DATA           6fd2d467  !      00000000
                CONST2                DATA           6fd2f880  !      0000000c
                _DATA                 DATA           6fd31a58  !      00000000
                _BSS                  BSS            6fd33244  !      00000000
/mnt/sda5/.user/root/src/openwatcom-1.9/bld/plusplus/cpplib/iostream/cpp/istsgstp.cpp
                _TEXT                 CODE           6fd12ec8  !      0000015a
                CONST                 DATA           6fd2d467  !      00000000
                CONST2                DATA           6fd2f890  !      0000000c
                _DATA                 DATA           6fd31a58  !      00000000
                _BSS                  BSS            6fd33244  !      00000000
/mnt/sda5/.user/root/src/openwatcom-1.9/bld/plusplus/cpplib/iostream/cpp/istsync.cpp
                _TEXT                 CODE           6fd13022  !      0000005d
                CONST                 DATA           6fd2d467  !      00000000
                CONST2                DATA           6fd2f8a0  !      00000000
                _DATA                 DATA           6fd31a58  !      00000000
                _BSS                  BSS            6fd33244  !      00000000
/mnt/sda5/.user/root/src/openwatcom-1.9/bld/plusplus/cpplib/iostream/cpp/isttellg.cpp
                _TEXT                 CODE           6fd1307f  !      00000173
                CONST                 DATA           6fd2d467  !      00000000
                CONST2                DATA           6fd2f8a0  !      0000000c
                _DATA                 DATA           6fd31a58  !      00000000
                _BSS                  BSS            6fd33244  !      00000000
/mnt/sda5/.user/root/src/openwatcom-1.9/bld/plusplus/cpplib/iostream/cpp/mandec.cpp
                _TEXT                 CODE           6fd131f2  !      00000085
                CONST                 DATA           6fd2d467  !      00000000
                CONST2                DATA           6fd2f8b0  !      00000000
                _DATA                 DATA           6fd31a58  !      00000000
                _BSS                  BSS            6fd33244  !      00000000
/mnt/sda5/.user/root/src/openwatcom-1.9/bld/plusplus/cpplib/iostream/cpp/manendl.cpp
                _TEXT                 CODE           6fd13277  !      000000f6
                CONST                 DATA           6fd2d467  !      00000000
                CONST2                DATA           6fd2f8b0  !      0000000c
                _DATA                 DATA           6fd31a58  !      00000000
                _BSS                  BSS            6fd33244  !      00000000
/mnt/sda5/.user/root/src/openwatcom-1.9/bld/plusplus/cpplib/iostream/cpp/manends.cpp
                _TEXT                 CODE           6fd1336d  !      00000035
                CONST                 DATA           6fd2d467  !      00000000
                CONST2                DATA           6fd2f8c0  !      00000000
                _DATA                 DATA           6fd31a58  !      00000000
                _BSS                  BSS            6fd33244  !      00000000
/mnt/sda5/.user/root/src/openwatcom-1.9/bld/plusplus/cpplib/iostream/cpp/manflush.cpp
                _TEXT                 CODE           6fd133a2  !      00000030
                CONST                 DATA           6fd2d467  !      00000000
                CONST2                DATA           6fd2f8c0  !      00000000
                _DATA                 DATA           6fd31a58  !      00000000
                _BSS                  BSS            6fd33244  !      00000000
/mnt/sda5/.user/root/src/openwatcom-1.9/bld/plusplus/cpplib/iostream/cpp/manhex.cpp
                _TEXT                 CODE           6fd133d2  !      00000085
                CONST                 DATA           6fd2d467  !      00000000
                CONST2                DATA           6fd2f8c0  !      00000000
                _DATA                 DATA           6fd31a58  !      00000000
                _BSS                  BSS            6fd33244  !      00000000
/mnt/sda5/.user/root/src/openwatcom-1.9/bld/plusplus/cpplib/iostream/cpp/manoct.cpp
                _TEXT                 CODE           6fd13457  !      00000085
                CONST                 DATA           6fd2d467  !      00000000
                CONST2                DATA           6fd2f8c0  !      00000000
                _DATA                 DATA           6fd31a58  !      00000000
                _BSS                  BSS            6fd33244  !      00000000
/mnt/sda5/.user/root/src/openwatcom-1.9/bld/plusplus/cpplib/iostream/cpp/manriofg.cpp
                _TEXT                 CODE           6fd134dc  !      000000b0
                CONST                 DATA           6fd2d467  !      00000000
                CONST2                DATA           6fd2f8c0  !      00000000
                _DATA                 DATA           6fd31a58  !      00000000
                _BSS                  BSS            6fd33244  !      00000004
                XIB                   DATA           6fd32ca0  !      00000000
                XI                    DATA           6fd32cca  !      00000006
                XIE                   DATA           6fd32cf4  !      00000000
/mnt/sda5/.user/root/src/openwatcom-1.9/bld/plusplus/cpplib/iostream/cpp/mansbase.cpp
                _TEXT                 CODE           6fd1358c  !      00000284
                CONST                 DATA           6fd2d467  !      00000000
                CONST2                DATA           6fd2f8c0  !      00000010
                _DATA                 DATA           6fd31a58  !      00000000
                _BSS                  BSS            6fd33248  !      00000004
                XIB                   DATA           6fd32ca0  !      00000000
                XI                    DATA           6fd32cd0  !      00000006
                XIE                   DATA           6fd32cf4  !      00000000
/mnt/sda5/.user/root/src/openwatcom-1.9/bld/plusplus/cpplib/iostream/cpp/mansetw.cpp
                _TEXT                 CODE           6fd13810  !      000000ae
                CONST                 DATA           6fd2d467  !      00000000
                CONST2                DATA           6fd2f8d0  !      00000000
                _DATA                 DATA           6fd31a58  !      00000000
                _BSS                  BSS            6fd3324c  !      00000004
                XIB                   DATA           6fd32ca0  !      00000000
                XI                    DATA           6fd32cd6  !      00000006
                XIE                   DATA           6fd32cf4  !      00000000
/mnt/sda5/.user/root/src/openwatcom-1.9/bld/plusplus/cpplib/iostream/cpp/mansfill.cpp
                _TEXT                 CODE           6fd138be  !      000000ae
                CONST                 DATA           6fd2d467  !      00000000
                CONST2                DATA           6fd2f8d0  !      00000000
                _DATA                 DATA           6fd31a58  !      00000000
                _BSS                  BSS            6fd33250  !      00000004
                XIB                   DATA           6fd32ca0  !      00000000
                XI                    DATA           6fd32cdc  !      00000006
                XIE                   DATA           6fd32cf4  !      00000000
/mnt/sda5/.user/root/src/openwatcom-1.9/bld/plusplus/cpplib/iostream/cpp/mansiofl.cpp
                _TEXT                 CODE           6fd1396c  !      000000ae
                CONST                 DATA           6fd2d467  !      00000000
                CONST2                DATA           6fd2f8d0  !      00000000
                _DATA                 DATA           6fd31a58  !      00000000
                _BSS                  BSS            6fd33254  !      00000004
                XIB                   DATA           6fd32ca0  !      00000000
                XI                    DATA           6fd32ce2  !      00000006
                XIE                   DATA           6fd32cf4  !      00000000
/mnt/sda5/.user/root/src/openwatcom-1.9/bld/plusplus/cpplib/iostream/cpp/mansprec.cpp
                _TEXT                 CODE           6fd13a1a  !      000000ae
                CONST                 DATA           6fd2d467  !      00000000
                CONST2                DATA           6fd2f8d0  !      00000000
                _DATA                 DATA           6fd31a58  !      00000000
                _BSS                  BSS            6fd33258  !      00000004
                XIB                   DATA           6fd32ca0  !      00000000
                XI                    DATA           6fd32ce8  !      00000006
                XIE                   DATA           6fd32cf4  !      00000000
/mnt/sda5/.user/root/src/openwatcom-1.9/bld/plusplus/cpplib/iostream/cpp/manws.cpp
                _TEXT                 CODE           6fd13ac8  !      00000140
                CONST                 DATA           6fd2d467  !      00000000
                CONST2                DATA           6fd2f8d0  !      0000000c
                _DATA                 DATA           6fd31a58  !      00000000
                _BSS                  BSS            6fd3325c  !      00000000
/mnt/sda5/.user/root/src/openwatcom-1.9/bld/plusplus/cpplib/iostream/cpp/ofsconde.cpp
                _TEXT                 CODE           6fd13c08  !      00000145
                CONST                 DATA           6fd2d467  !      00000000
                CONST2                DATA           6fd2f8e0  !      0000004c
                _DATA                 DATA           6fd31a58  !      00000000
                _BSS                  BSS            6fd3325c  !      00000000
                _TEXT                 CODE           6fd13d4d c!      0000002e
                CONST2                DATA           6fd2f930 c!      00000008
                CONST2                DATA           6fd2f940 c!      00000008
                CONST2                DATA           6fd2f950 c!      00000008
                CONST2                DATA           6fd2f960 c!      00000008
                CONST2                DATA           6fd2f970 c!      00000008
                _TEXT                 CODE           6fd13d7b c!      00000033
                CONST2                DATA           6fd2f980 c!      00000044
                _DATA                 DATA           6fd31a58 c!      00000015
/mnt/sda5/.user/root/src/openwatcom-1.9/bld/plusplus/cpplib/iostream/cpp/ofsconfd.cpp
                _TEXT                 CODE           6fd13dae  !      00000149
                CONST                 DATA           6fd2d467  !      00000000
                CONST2                DATA           6fd2f9d0  !      0000004c
                _DATA                 DATA           6fd31a6d  !      00000000
                _BSS                  BSS            6fd3325c  !      00000000
/mnt/sda5/.user/root/src/openwatcom-1.9/bld/plusplus/cpplib/iostream/cpp/ofsconnm.cpp
                _TEXT                 CODE           6fd13ef7  !      00000156
                CONST                 DATA           6fd2d467  !      00000000
                CONST2                DATA           6fd2fa20  !      0000004c
                _DATA                 DATA           6fd31a6d  !      00000000
                _BSS                  BSS            6fd3325c  !      00000000
/mnt/sda5/.user/root/src/openwatcom-1.9/bld/plusplus/cpplib/iostream/cpp/ofsconsf.cpp
                _TEXT                 CODE           6fd1404d  !      00000153
                CONST                 DATA           6fd2d467  !      00000000
                CONST2                DATA           6fd2fa70  !      0000004c
                _DATA                 DATA           6fd31a6d  !      00000000
                _BSS                  BSS            6fd3325c  !      00000000
/mnt/sda5/.user/root/src/openwatcom-1.9/bld/plusplus/cpplib/iostream/cpp/ofsdestr.cpp
                _TEXT                 CODE           6fd141a0  !      000001aa
                CONST                 DATA           6fd2d467  !      00000000
                CONST2                DATA           6fd2fac0  !      00000068
                _DATA                 DATA           6fd31a6d  !      00000000
                _BSS                  BSS            6fd3325c  !      00000000
                CONST2                DATA           6fd2fb30 c!      00000018
                _TEXT                 CODE           6fd1434a c!      00000034
/mnt/sda5/.user/root/src/openwatcom-1.9/bld/plusplus/cpplib/iostream/cpp/ossconch.cpp
                _TEXT                 CODE           6fd1437e  !      00000188
                CONST                 DATA           6fd2d467  !      00000000
                CONST2                DATA           6fd2fb50  !      0000004c
                _DATA                 DATA           6fd31a6d  !      00000000
                _BSS                  BSS            6fd3325c  !      00000000
                _TEXT                 CODE           6fd14506 c!      0000002e
                CONST2                DATA           6fd2fba0 c!      00000008
                CONST2                DATA           6fd2fbb0 c!      00000008
                CONST2                DATA           6fd2fbc0 c!      00000008
                CONST2                DATA           6fd2fbd0 c!      00000008
                CONST2                DATA           6fd2fbe0 c!      00000008
                _TEXT                 CODE           6fd14534 c!      00000033
                CONST2                DATA           6fd2fbf0 c!      00000044
                _DATA                 DATA           6fd31a6d c!      00000017
/mnt/sda5/.user/root/src/openwatcom-1.9/bld/plusplus/cpplib/iostream/cpp/ossconde.cpp
                _TEXT                 CODE           6fd14567  !      00000145
                CONST                 DATA           6fd2d467  !      00000000
                CONST2                DATA           6fd2fc40  !      0000004c
                _DATA                 DATA           6fd31a84  !      00000000
                _BSS                  BSS            6fd3325c  !      00000000
/mnt/sda5/.user/root/src/openwatcom-1.9/bld/plusplus/cpplib/iostream/cpp/ossconsc.cpp
                _TEXT                 CODE           6fd146ac  !      00000188
                CONST                 DATA           6fd2d467  !      00000000
                CONST2                DATA           6fd2fc90  !      0000004c
                _DATA                 DATA           6fd31a84  !      00000000
                _BSS                  BSS            6fd3325c  !      00000000
/mnt/sda5/.user/root/src/openwatcom-1.9/bld/plusplus/cpplib/iostream/cpp/ossconuc.cpp
                _TEXT                 CODE           6fd14834  !      00000188
                CONST                 DATA           6fd2d467  !      00000000
                CONST2                DATA           6fd2fce0  !      0000004c
                _DATA                 DATA           6fd31a84  !      00000000
                _BSS                  BSS            6fd3325c  !      00000000
/mnt/sda5/.user/root/src/openwatcom-1.9/bld/plusplus/cpplib/iostream/cpp/ossdestr.cpp
                _TEXT                 CODE           6fd149bc  !      000001aa
                CONST                 DATA           6fd2d467  !      00000000
                CONST2                DATA           6fd2fd30  !      00000068
                _DATA                 DATA           6fd31a84  !      00000000
                _BSS                  BSS            6fd3325c  !      00000000
                CONST2                DATA           6fd2fda0 c!      00000018
                _TEXT                 CODE           6fd14b66 c!      00000034
/mnt/sda5/.user/root/src/openwatcom-1.9/bld/plusplus/cpplib/iostream/cpp/ostcoeos.cpp
                _TEXT                 CODE           6fd14b9a  !      000001a4
                CONST                 DATA           6fd2d467  !      00000000
                CONST2                DATA           6fd2fdc0  !      00000014
                _DATA                 DATA           6fd31a84  !      00000000
                _BSS                  BSS            6fd3325c  !      00000000
/mnt/sda5/.user/root/src/openwatcom-1.9/bld/plusplus/cpplib/iostream/cpp/ostcoesf.cpp
                _TEXT                 CODE           6fd14d3e  !      000000fd
                CONST                 DATA           6fd2d467  !      00000000
                CONST2                DATA           6fd2fde0  !      0000000c
                _DATA                 DATA           6fd31a84  !      00000000
                _BSS                  BSS            6fd3325c  !      00000000
/mnt/sda5/.user/root/src/openwatcom-1.9/bld/plusplus/cpplib/iostream/cpp/ostconde.cpp
                _TEXT                 CODE           6fd14e3b  !      0000008d
                CONST                 DATA           6fd2d467  !      00000000
                CONST2                DATA           6fd2fdf0  !      00000000
                _DATA                 DATA           6fd31a84  !      00000000
                _BSS                  BSS            6fd3325c  !      00000000
                CONST2                DATA           6fd2fdf0 c!      00000008
                CONST2                DATA           6fd2fe00 c!      00000008
                CONST2                DATA           6fd2fe10 c!      00000008
                _TEXT                 CODE           6fd14ec8 c!      00000033
                CONST2                DATA           6fd2fe20 c!      00000024
/mnt/sda5/.user/root/src/openwatcom-1.9/bld/plusplus/cpplib/iostream/cpp/ostconsf.cpp
                _TEXT                 CODE           6fd14efb  !      000000f7
                CONST                 DATA           6fd2d467  !      00000000
                CONST2                DATA           6fd2fe50  !      0000001c
                _DATA                 DATA           6fd31a84  !      00000000
                _BSS                  BSS            6fd3325c  !      00000000
/mnt/sda5/.user/root/src/openwatcom-1.9/bld/plusplus/cpplib/iostream/cpp/ostcoost.cpp
                _TEXT                 CODE           6fd14ff2  !      0000017b
                CONST                 DATA           6fd2d467  !      00000000
                CONST2                DATA           6fd2fe70  !      00000024
                _DATA                 DATA           6fd31a84  !      00000000
                _BSS                  BSS            6fd3325c  !      00000000
/mnt/sda5/.user/root/src/openwatcom-1.9/bld/plusplus/cpplib/iostream/cpp/ostdestr.cpp
                _TEXT                 CODE           6fd1516d  !      00000144
                CONST                 DATA           6fd2d467  !      00000000
                CONST2                DATA           6fd2fea0  !      00000038
                _DATA                 DATA           6fd31a84  !      00000000
                _BSS                  BSS            6fd3325c  !      00000000
/mnt/sda5/.user/root/src/openwatcom-1.9/bld/plusplus/cpplib/iostream/cpp/ostdlshf.cpp
                _TEXT                 CODE           6fd152b1  !      00000118
                CONST                 DATA           6fd2d467  !      00000000
                CONST2                DATA           6fd2fee0  !      0000000c
                _DATA                 DATA           6fd31a84  !      00000000
                _BSS                  BSS            6fd3325c  !      00000000
/mnt/sda5/.user/root/src/openwatcom-1.9/bld/plusplus/cpplib/iostream/cpp/ostflush.cpp
                _TEXT                 CODE           6fd153c9  !      00000178
                CONST                 DATA           6fd2d467  !      00000000
                CONST2                DATA           6fd2fef0  !      0000000c
                _DATA                 DATA           6fd31a84  !      00000000
                _BSS                  BSS            6fd3325c  !      00000000
/mnt/sda5/.user/root/src/openwatcom-1.9/bld/plusplus/cpplib/iostream/cpp/ostincch.cpp
                _TEXT                 CODE           6fd15541  !      000003cc
                CONST                 DATA           6fd2d467  !      00000000
                CONST2                DATA           6fd2ff00  !      00000024
                _DATA                 DATA           6fd31a84  !      00000000
                _BSS                  BSS            6fd3325c  !      00000000
/mnt/sda5/.user/root/src/openwatcom-1.9/bld/plusplus/cpplib/iostream/cpp/ostincha.cpp
                _TEXT                 CODE           6fd1590d  !      000005e6
                CONST                 DATA           6fd2d467  !      00000000
                CONST2                DATA           6fd2ff30  !      00000034
                _DATA                 DATA           6fd31a84  !      00000000
                _BSS                  BSS            6fd3325c  !      00000000
/mnt/sda5/.user/root/src/openwatcom-1.9/bld/plusplus/cpplib/iostream/cpp/ostini64.cpp
                _TEXT                 CODE           6fd15ef3  !      00000552
                CONST                 DATA           6fd2d467  !      00000000
                CONST2                DATA           6fd2ff70  !      00000024
                _DATA                 DATA           6fd31a84  !      00000000
                _BSS                  BSS            6fd3325c  !      00000000
/mnt/sda5/.user/root/src/openwatcom-1.9/bld/plusplus/cpplib/iostream/cpp/ostiniom.cpp
                _TEXT                 CODE           6fd16445  !      00000042
                CONST                 DATA           6fd2d467  !      00000000
                CONST2                DATA           6fd2ffa0  !      00000000
                _DATA                 DATA           6fd31a84  !      00000000
                _BSS                  BSS            6fd3325c  !      00000000
/mnt/sda5/.user/root/src/openwatcom-1.9/bld/plusplus/cpplib/iostream/cpp/ostinomn.cpp
                _TEXT                 CODE           6fd16487  !      0000002f
                CONST                 DATA           6fd2d467  !      00000000
                CONST2                DATA           6fd2ffa0  !      00000000
                _DATA                 DATA           6fd31a84  !      00000000
                _BSS                  BSS            6fd3325c  !      00000000
/mnt/sda5/.user/root/src/openwatcom-1.9/bld/plusplus/cpplib/iostream/cpp/ostinptr.cpp
                _TEXT                 CODE           6fd164b6  !      0000049b
                CONST                 DATA           6fd2d467  !      00000000
                CONST2                DATA           6fd2ffa0  !      00000024
                _DATA                 DATA           6fd31a84  !      00000000
                _BSS                  BSS            6fd3325c  !      00000000
/mnt/sda5/.user/root/src/openwatcom-1.9/bld/plusplus/cpplib/iostream/cpp/ostinslo.cpp
                _TEXT                 CODE           6fd16951  !      00000512
                CONST                 DATA           6fd2d467  !      00000000
                CONST2                DATA           6fd2ffd0  !      00000024
                _DATA                 DATA           6fd31a84  !      00000000
                _BSS                  BSS            6fd3325c  !      00000000
/mnt/sda5/.user/root/src/openwatcom-1.9/bld/plusplus/cpplib/iostream/cpp/ostinstf.cpp
                _TEXT                 CODE           6fd16e63  !      000006a4
                CONST                 DATA           6fd2d467  !      00000000
                CONST2                DATA           6fd30000  !      0000003c
                _DATA                 DATA           6fd31a84  !      00000000
                _BSS                  BSS            6fd3325c  !      00000000
                CONST2                DATA           6fd30040 c!      00000008
/mnt/sda5/.user/root/src/openwatcom-1.9/bld/plusplus/cpplib/iostream/cpp/ostinu64.cpp
                _TEXT                 CODE           6fd17507  !      000005e3
                CONST                 DATA           6fd2d467  !      00000000
                CONST2                DATA           6fd30050  !      00000024
                _DATA                 DATA           6fd31a84  !      00000000
                _BSS                  BSS            6fd3325c  !      00000000
/mnt/sda5/.user/root/src/openwatcom-1.9/bld/plusplus/cpplib/iostream/cpp/ostinulo.cpp
                _TEXT                 CODE           6fd17aea  !      000005b6
                CONST                 DATA           6fd2d467  !      00000000
                CONST2                DATA           6fd30080  !      00000024
                _DATA                 DATA           6fd31a84  !      00000000
                _BSS                  BSS            6fd3325c  !      00000000
/mnt/sda5/.user/root/src/openwatcom-1.9/bld/plusplus/cpplib/iostream/cpp/ostopfx.cpp
                _TEXT                 CODE           6fd180a0  !      000001c5
                CONST                 DATA           6fd2d467  !      00000000
                CONST2                DATA           6fd300b0  !      0000000c
                _DATA                 DATA           6fd31a84  !      00000000
                _BSS                  BSS            6fd3325c  !      00000000
/mnt/sda5/.user/root/src/openwatcom-1.9/bld/plusplus/cpplib/iostream/cpp/ostput.cpp
                _TEXT                 CODE           6fd18265  !      00000589
                CONST                 DATA           6fd2d467  !      00000000
                CONST2                DATA           6fd300c0  !      00000034
                _DATA                 DATA           6fd31a84  !      00000000
                _BSS                  BSS            6fd3325c  !      00000000
/mnt/sda5/.user/root/src/openwatcom-1.9/bld/plusplus/cpplib/iostream/cpp/ostspsto.cpp
                _TEXT                 CODE           6fd187ee  !      0000045e
                CONST                 DATA           6fd2d467  !      00000000
                CONST2                DATA           6fd30100  !      00000024
                _DATA                 DATA           6fd31a84  !      00000000
                _BSS                  BSS            6fd3325c  !      00000000
/mnt/sda5/.user/root/src/openwatcom-1.9/bld/plusplus/cpplib/iostream/cpp/ostspstp.cpp
                _TEXT                 CODE           6fd18c4c  !      00000456
                CONST                 DATA           6fd2d467  !      00000000
                CONST2                DATA           6fd30130  !      00000024
                _DATA                 DATA           6fd31a84  !      00000000
                _BSS                  BSS            6fd3325c  !      00000000
/mnt/sda5/.user/root/src/openwatcom-1.9/bld/plusplus/cpplib/iostream/cpp/osttellp.cpp
                _TEXT                 CODE           6fd190a2  !      00000173
                CONST                 DATA           6fd2d467  !      00000000
                CONST2                DATA           6fd30160  !      0000000c
                _DATA                 DATA           6fd31a84  !      00000000
                _BSS                  BSS            6fd3325c  !      00000000
/mnt/sda5/.user/root/src/openwatcom-1.9/bld/plusplus/cpplib/iostream/cpp/ostwrite.cpp
                _TEXT                 CODE           6fd19215  !      00000624
                CONST                 DATA           6fd2d467  !      00000000
                CONST2                DATA           6fd30170  !      00000034
                _DATA                 DATA           6fd31a84  !      00000000
                _BSS                  BSS            6fd3325c  !      00000000
/mnt/sda5/.user/root/src/openwatcom-1.9/bld/plusplus/cpplib/iostream/cpp/sdfconde.cpp
                _TEXT                 CODE           6fd19839  !      00000046
                CONST                 DATA           6fd2d467  !      00000000
                CONST2                DATA           6fd301b0  !      00000000
                _DATA                 DATA           6fd31a84  !      00000000
                _BSS                  BSS            6fd3325c  !      00000000
                CONST2                DATA           6fd301b0 c!      00000030
                CONST2                DATA           6fd301e0 c!      0000001c
/mnt/sda5/.user/root/src/openwatcom-1.9/bld/plusplus/cpplib/iostream/cpp/sdfconfp.cpp
                _TEXT                 CODE           6fd1987f  !      00000050
                CONST                 DATA           6fd2d467  !      00000000
                CONST2                DATA           6fd30200  !      00000000
                _DATA                 DATA           6fd31a84  !      00000000
                _BSS                  BSS            6fd3325c  !      00000000
/mnt/sda5/.user/root/src/openwatcom-1.9/bld/plusplus/cpplib/iostream/cpp/sdfdestr.cpp
                _TEXT                 CODE           6fd198cf  !      00000151
                CONST                 DATA           6fd2d467  !      00000000
                CONST2                DATA           6fd30200  !      00000038
                _DATA                 DATA           6fd31a84  !      00000000
                _BSS                  BSS            6fd3325c  !      00000000
/mnt/sda5/.user/root/src/openwatcom-1.9/bld/plusplus/cpplib/iostream/cpp/sdfoverf.cpp
                _TEXT                 CODE           6fd19a20  !      00000abc
                CONST                 DATA           6fd2d467  !      00000000
                CONST2                DATA           6fd30240  !      00000014
                _DATA                 DATA           6fd31a84  !      00000000
                _BSS                  BSS            6fd3325c  !      00000000
/mnt/sda5/.user/root/src/openwatcom-1.9/bld/plusplus/cpplib/iostream/cpp/sdfsync.cpp
                _TEXT                 CODE           6fd1a4dc  !      000001b4
                CONST                 DATA           6fd2d467  !      00000000
                CONST2                DATA           6fd30260  !      0000000c
                _DATA                 DATA           6fd31a84  !      00000000
                _BSS                  BSS            6fd3325c  !      00000000
/mnt/sda5/.user/root/src/openwatcom-1.9/bld/plusplus/cpplib/iostream/cpp/sdfundrf.cpp
                _TEXT                 CODE           6fd1a690  !      000009a8
                CONST                 DATA           6fd2d467  !      00000000
                CONST2                DATA           6fd30270  !      00000014
                _DATA                 DATA           6fd31a84  !      00000000
                _BSS                  BSS            6fd3325c  !      00000000
/mnt/sda5/.user/root/src/openwatcom-1.9/bld/plusplus/cpplib/iostream/cpp/ssbconde.cpp
                _TEXT                 CODE           6fd1b038  !      0000017b
                CONST                 DATA           6fd2d467  !      00000000
                CONST2                DATA           6fd30290  !      0000005c
                _DATA                 DATA           6fd31a84  !      00000000
                _BSS                  BSS            6fd3325c  !      00000000
                CONST2                DATA           6fd302f0 c!      00000030
                CONST2                DATA           6fd30320 c!      00000008
                CONST2                DATA           6fd30330 c!      00000008
                CONST2                DATA           6fd30340 c!      00000008
                CONST2                DATA           6fd30350 c!      00000024
                _DATA                 DATA           6fd31a84 c!      00000019
                _TEXT                 CODE           6fd1b1b3 c!      00000033
                _TEXT                 CODE           6fd1b1e6 c!      00000034
                CONST2                DATA           6fd30380 c!      0000001c
/mnt/sda5/.user/root/src/openwatcom-1.9/bld/plusplus/cpplib/iostream/cpp/ssbconsz.cpp
                _TEXT                 CODE           6fd1b21a  !      00000194
                CONST                 DATA           6fd2d467  !      00000000
                CONST2                DATA           6fd303a0  !      0000005c
                _DATA                 DATA           6fd31a9d  !      00000000
                _BSS                  BSS            6fd3325c  !      00000000
/mnt/sda5/.user/root/src/openwatcom-1.9/bld/plusplus/cpplib/iostream/cpp/ssbdestr.cpp
                _TEXT                 CODE           6fd1b3ae  !      00000178
                CONST                 DATA           6fd2d467  !      00000000
                CONST2                DATA           6fd30400  !      00000050
                _DATA                 DATA           6fd31a9d  !      00000000
                _BSS                  BSS            6fd3325c  !      00000000
                CONST2                DATA           6fd30450 c!      00000018
/mnt/sda5/.user/root/src/openwatcom-1.9/bld/plusplus/cpplib/iostream/cpp/ssfdestr.cpp
                _TEXT                 CODE           6fd1b526  !      00000164
                CONST                 DATA           6fd2d467  !      00000000
                CONST2                DATA           6fd30470  !      00000054
                _DATA                 DATA           6fd31a9d  !      00000000
                _BSS                  BSS            6fd3325c  !      00000000
                _TEXT                 CODE           6fd1b68a c!      000000a0
                CONST2                DATA           6fd304d0 c!      00000018
/mnt/sda5/.user/root/src/openwatcom-1.9/bld/plusplus/cpplib/iostream/cpp/ssfdoall.cpp
                _TEXT                 CODE           6fd1b72a  !      000005b9
                CONST                 DATA           6fd2d467  !      00000000
                CONST2                DATA           6fd304f0  !      0000000c
                _DATA                 DATA           6fd31a9d  !      00000000
                _BSS                  BSS            6fd3325c  !      00000000
/mnt/sda5/.user/root/src/openwatcom-1.9/bld/plusplus/cpplib/iostream/cpp/ssfempsf.cpp
                _TEXT                 CODE           6fd1bce3  !      000000b4
                CONST                 DATA           6fd2d467  !      00000000
                CONST2                DATA           6fd30500  !      0000001c
                _DATA                 DATA           6fd31a9d  !      00000000
                _BSS                  BSS            6fd3325c  !      00000000
/mnt/sda5/.user/root/src/openwatcom-1.9/bld/plusplus/cpplib/iostream/cpp/ssfempsz.cpp
                _TEXT                 CODE           6fd1bd97  !      000000aa
                CONST                 DATA           6fd2d467  !      00000000
                CONST2                DATA           6fd30520  !      0000001c
                _DATA                 DATA           6fd31a9d  !      00000000
                _BSS                  BSS            6fd3325c  !      00000000
/mnt/sda5/.user/root/src/openwatcom-1.9/bld/plusplus/cpplib/iostream/cpp/ssfoverf.cpp
                _TEXT                 CODE           6fd1be41  !      0000030e
                CONST                 DATA           6fd2d467  !      00000000
                CONST2                DATA           6fd30540  !      0000000c
                _DATA                 DATA           6fd31a9d  !      00000000
                _BSS                  BSS            6fd3325c  !      00000000
/mnt/sda5/.user/root/src/openwatcom-1.9/bld/plusplus/cpplib/iostream/cpp/ssfseeko.cpp
                _TEXT                 CODE           6fd1c14f  !      00000554
                CONST                 DATA           6fd2d467  !      00000000
                CONST2                DATA           6fd30550  !      0000000c
                _DATA                 DATA           6fd31a9d  !      00000000
                _BSS                  BSS            6fd3325c  !      00000000
/mnt/sda5/.user/root/src/openwatcom-1.9/bld/plusplus/cpplib/iostream/cpp/ssfsetbf.cpp
                _TEXT                 CODE           6fd1c6a3  !      00000062
                CONST                 DATA           6fd2d467  !      00000000
                CONST2                DATA           6fd30560  !      00000000
                _DATA                 DATA           6fd31a9d  !      00000000
                _BSS                  BSS            6fd3325c  !      00000000
/mnt/sda5/.user/root/src/openwatcom-1.9/bld/plusplus/cpplib/iostream/cpp/ssfstbuf.cpp
                _TEXT                 CODE           6fd1c705  !      00000291
                CONST                 DATA           6fd2d467  !      00000000
                CONST2                DATA           6fd30560  !      0000000c
                _DATA                 DATA           6fd31a9d  !      00000000
                _BSS                  BSS            6fd3325c  !      00000000
/mnt/sda5/.user/root/src/openwatcom-1.9/bld/plusplus/cpplib/iostream/cpp/ssfstr.cpp
                _TEXT                 CODE           6fd1c996  !      00000335
                CONST                 DATA           6fd2d467  !      00000000
                CONST2                DATA           6fd30570  !      0000000c
                _DATA                 DATA           6fd31a9d  !      00000000
                _BSS                  BSS            6fd3325c  !      00000000
/mnt/sda5/.user/root/src/openwatcom-1.9/bld/plusplus/cpplib/iostream/cpp/ssfsync.cpp
                _TEXT                 CODE           6fd1cccb  !      0000002c
                CONST                 DATA           6fd2d467  !      00000000
                CONST2                DATA           6fd30580  !      00000000
                _DATA                 DATA           6fd31a9d  !      00000000
                _BSS                  BSS            6fd3325c  !      00000000
/mnt/sda5/.user/root/src/openwatcom-1.9/bld/plusplus/cpplib/iostream/cpp/ssfundrf.cpp
                _TEXT                 CODE           6fd1ccf7  !      00000452
                CONST                 DATA           6fd2d467  !      00000000
                CONST2                DATA           6fd30580  !      0000000c
                _DATA                 DATA           6fd31a9d  !      00000000
                _BSS                  BSS            6fd3325c  !      00000000
/mnt/sda5/.user/root/src/openwatcom-1.9/bld/plusplus/cpplib/iostream/cpp/sstconch.cpp
                _TEXT                 CODE           6fd1d149  !      0000019c
                CONST                 DATA           6fd2d467  !      00000000
                CONST2                DATA           6fd30590  !      0000004c
                _DATA                 DATA           6fd31a9d  !      00000000
                _BSS                  BSS            6fd3325c  !      00000000
                _TEXT                 CODE           6fd1d2e5 c!      0000002e
                _TEXT                 CODE           6fd1d313 c!      0000002e
                CONST2                DATA           6fd305e0 c!      00000008
                CONST2                DATA           6fd305f0 c!      00000008
                CONST2                DATA           6fd30600 c!      00000008
                CONST2                DATA           6fd30610 c!      00000008
                CONST2                DATA           6fd30620 c!      00000008
                CONST2                DATA           6fd30630 c!      00000008
                CONST2                DATA           6fd30640 c!      00000008
                _TEXT                 CODE           6fd1d341 c!      00000033
                CONST2                DATA           6fd30650 c!      00000064
                _DATA                 DATA           6fd31a9d c!      00000016
/mnt/sda5/.user/root/src/openwatcom-1.9/bld/plusplus/cpplib/iostream/cpp/sstconde.cpp
                _TEXT                 CODE           6fd1d374  !      00000159
                CONST                 DATA           6fd2d467  !      00000000
                CONST2                DATA           6fd306c0  !      0000004c
                _DATA                 DATA           6fd31ab3  !      00000000
                _BSS                  BSS            6fd3325c  !      00000000
/mnt/sda5/.user/root/src/openwatcom-1.9/bld/plusplus/cpplib/iostream/cpp/sstconsc.cpp
                _TEXT                 CODE           6fd1d4cd  !      0000019c
                CONST                 DATA           6fd2d467  !      00000000
                CONST2                DATA           6fd30710  !      0000004c
                _DATA                 DATA           6fd31ab3  !      00000000
                _BSS                  BSS            6fd3325c  !      00000000
/mnt/sda5/.user/root/src/openwatcom-1.9/bld/plusplus/cpplib/iostream/cpp/sstconuc.cpp
                _TEXT                 CODE           6fd1d669  !      0000019c
                CONST                 DATA           6fd2d467  !      00000000
                CONST2                DATA           6fd30760  !      0000004c
                _DATA                 DATA           6fd31ab3  !      00000000
                _BSS                  BSS            6fd3325c  !      00000000
/mnt/sda5/.user/root/src/openwatcom-1.9/bld/plusplus/cpplib/iostream/cpp/sstdestr.cpp
                _TEXT                 CODE           6fd1d805  !      000001b4
                CONST                 DATA           6fd2d467  !      00000000
                CONST2                DATA           6fd307b0  !      00000068
                _DATA                 DATA           6fd31ab3  !      00000000
                _BSS                  BSS            6fd3325c  !      00000000
                CONST2                DATA           6fd30820 c!      00000018
                _TEXT                 CODE           6fd1d9b9 c!      00000034
/mnt/sda5/.user/root/src/openwatcom-1.9/bld/plusplus/cpplib/iostream/cpp/stfconb.cpp
                _TEXT                 CODE           6fd1d9ed  !      000000af
                CONST                 DATA           6fd2d467  !      00000000
                CONST2                DATA           6fd30840  !      00000000
                _DATA                 DATA           6fd31ab3  !      00000000
                _BSS                  BSS            6fd3325c  !      00000000
                CONST2                DATA           6fd30840 c!      00000030
                CONST2                DATA           6fd30870 c!      00000010
/mnt/sda5/.user/root/src/openwatcom-1.9/bld/plusplus/cpplib/iostream/cpp/stfconde.cpp
                _TEXT                 CODE           6fd1da9c  !      0000009f
                CONST                 DATA           6fd2d467  !      00000000
                CONST2                DATA           6fd30880  !      00000000
                _DATA                 DATA           6fd31ab3  !      00000000
                _BSS                  BSS            6fd3325c  !      00000000
/mnt/sda5/.user/root/src/openwatcom-1.9/bld/plusplus/cpplib/iostream/cpp/stfdbp.cpp
                _TEXT                 CODE           6fd1db3b  !      0000007c
                CONST                 DATA           6fd2d467  !      000000a2
                CONST2                DATA           6fd30880  !      00000000
                _DATA                 DATA           6fd31ab3  !      00000000
                _BSS                  BSS            6fd3325c  !      00000000
/mnt/sda5/.user/root/src/openwatcom-1.9/bld/plusplus/cpplib/iostream/cpp/stfdestr.cpp
                _TEXT                 CODE           6fd1dbb7  !      0000004b
                CONST                 DATA           6fd2d509  !      00000000
                CONST2                DATA           6fd30880  !      00000000
                _DATA                 DATA           6fd31ab3  !      00000000
                _BSS                  BSS            6fd3325c  !      00000000
/mnt/sda5/.user/root/src/openwatcom-1.9/bld/plusplus/cpplib/iostream/cpp/stfdoall.cpp
                _TEXT                 CODE           6fd1dc02  !      00000123
                CONST                 DATA           6fd2d509  !      00000000
                CONST2                DATA           6fd30880  !      0000000c
                _DATA                 DATA           6fd31ab3  !      00000000
                _BSS                  BSS            6fd3325c  !      00000000
/mnt/sda5/.user/root/src/openwatcom-1.9/bld/plusplus/cpplib/iostream/cpp/stfdsgtn.cpp
                _TEXT                 CODE           6fd1dd25  !      000001f4
                CONST                 DATA           6fd2d509  !      00000000
                CONST2                DATA           6fd30890  !      0000000c
                _DATA                 DATA           6fd31ab3  !      00000000
                _BSS                  BSS            6fd3325c  !      00000000
/mnt/sda5/.user/root/src/openwatcom-1.9/bld/plusplus/cpplib/iostream/cpp/stfdspun.cpp
                _TEXT                 CODE           6fd1df19  !      000002bf
                CONST                 DATA           6fd2d509  !      00000000
                CONST2                DATA           6fd308a0  !      0000000c
                _DATA                 DATA           6fd31ab3  !      00000000
                _BSS                  BSS            6fd3325c  !      00000000
/mnt/sda5/.user/root/src/openwatcom-1.9/bld/plusplus/cpplib/iostream/cpp/stfpbfai.cpp
                _TEXT                 CODE           6fd1e1d8  !      0000002d
                CONST                 DATA           6fd2d509  !      00000000
                CONST2                DATA           6fd308b0  !      00000000
                _DATA                 DATA           6fd31ab3  !      00000000
                _BSS                  BSS            6fd3325c  !      00000000
/mnt/sda5/.user/root/src/openwatcom-1.9/bld/plusplus/cpplib/iostream/cpp/stfsbuf.cpp
                _TEXT                 CODE           6fd1e205  !      00000177
                CONST                 DATA           6fd2d509  !      00000000
                CONST2                DATA           6fd308b0  !      0000000c
                _DATA                 DATA           6fd31ab3  !      00000000
                _BSS                  BSS            6fd3325c  !      00000000
/mnt/sda5/.user/root/src/openwatcom-1.9/bld/plusplus/cpplib/iostream/cpp/stfseeko.cpp
                _TEXT                 CODE           6fd1e37c  !      0000002f
                CONST                 DATA           6fd2d509  !      00000000
                CONST2                DATA           6fd308c0  !      00000000
                _DATA                 DATA           6fd31ab3  !      00000000
                _BSS                  BSS            6fd3325c  !      00000000
/mnt/sda5/.user/root/src/openwatcom-1.9/bld/plusplus/cpplib/iostream/cpp/stfseekp.cpp
                _TEXT                 CODE           6fd1e3ab  !      00000044
                CONST                 DATA           6fd2d509  !      00000000
                CONST2                DATA           6fd308c0  !      00000000
                _DATA                 DATA           6fd31ab3  !      00000000
                _BSS                  BSS            6fd3325c  !      00000000
/mnt/sda5/.user/root/src/openwatcom-1.9/bld/plusplus/cpplib/iostream/cpp/stfsetb.cpp
                _TEXT                 CODE           6fd1e3ef  !      00000146
                CONST                 DATA           6fd2d509  !      00000000
                CONST2                DATA           6fd308c0  !      0000000c
                _DATA                 DATA           6fd31ab3  !      00000000
                _BSS                  BSS            6fd3325c  !      00000000
/mnt/sda5/.user/root/src/openwatcom-1.9/bld/plusplus/cpplib/iostream/cpp/stfsync.cpp
                _TEXT                 CODE           6fd1e535  !      000000b9
                CONST                 DATA           6fd2d509  !      00000000
                CONST2                DATA           6fd308d0  !      00000000
                _DATA                 DATA           6fd31ab3  !      00000000
                _BSS                  BSS            6fd3325c  !      00000000
/mnt/sda5/.user/root/src/openwatcom-1.9/bld/plusplus/cpplib/string/cpp/allocrep.cpp
                _TEXT                 CODE           6fd1e5ee  !      0000008e
                CONST                 DATA           6fd2d509  !      00000000
                CONST2                DATA           6fd308d0  !      00000004
                _DATA                 DATA           6fd31ab4  !      00000004
                _BSS                  BSS            6fd3325c  !      00000004
/mnt/sda5/.user/root/src/openwatcom-1.9/bld/plusplus/cpplib/string/cpp/allomusz.cpp
                _TEXT                 CODE           6fd1e67c  !      00000051
                CONST                 DATA           6fd2d509  !      00000000
                CONST2                DATA           6fd308e0  !      00000004
                _DATA                 DATA           6fd31ab8  !      00000000
                _BSS                  BSS            6fd33260  !      00000000
/mnt/sda5/.user/root/src/openwatcom-1.9/bld/plusplus/cpplib/string/cpp/constrch.cpp
                _TEXT                 CODE           6fd1e6cd  !      00000095
                CONST                 DATA           6fd2d509  !      00000000
                CONST2                DATA           6fd308f0  !      00000004
                _DATA                 DATA           6fd31ab8  !      00000000
                _BSS                  BSS            6fd33260  !      00000000
/mnt/sda5/.user/root/src/openwatcom-1.9/bld/plusplus/cpplib/string/cpp/destruct.cpp
                _TEXT                 CODE           6fd1e762  !      0000004f
                CONST                 DATA           6fd2d509  !      00000000
                CONST2                DATA           6fd30900  !      00000004
                _DATA                 DATA           6fd31ab8  !      00000000
                _BSS                  BSS            6fd33260  !      00000004
/mnt/sda5/.user/root/src/openwatcom-1.9/bld/plusplus/cpplib/string/cpp/opcostsc.cpp
                _TEXT                 CODE           6fd1e7b1  !      0000004d
                CONST                 DATA           6fd2d509  !      00000000
                CONST2                DATA           6fd30910  !      00000004
                _DATA                 DATA           6fd31ab8  !      00000000
                _BSS                  BSS            6fd33264  !      00000000
/mnt/sda5/.user/root/src/openwatcom-1.9/bld/plusplus/cpplib/string/cpp/opasstcs.cpp
                _TEXT                 CODE           6fd1e7fe  !      000000a9
                CONST                 DATA           6fd2d509  !      00000000
                CONST2                DATA           6fd30920  !      00000004
                _DATA                 DATA           6fd31ab8  !      00000000
                _BSS                  BSS            6fd33264  !      00000000
/mnt/sda5/.user/root/src/openwatcom-1.9/bld/plusplus/cpplib/string/cpp/opappcst.cpp
                _TEXT                 CODE           6fd1e8a7  !      00000088
                CONST                 DATA           6fd2d509  !      00000000
                CONST2                DATA           6fd30930  !      00000004
                _DATA                 DATA           6fd31ab8  !      00000000
                _BSS                  BSS            6fd33264  !      00000000
/mnt/sda5/.user/root/src/openwatcom-1.9/bld/plusplus/cpplib/string/cpp/opsubstr.cpp
                _TEXT                 CODE           6fd1e92f  !      0000016b
                CONST                 DATA           6fd2d509  !      00000000
                CONST2                DATA           6fd30940  !      00000010
                _DATA                 DATA           6fd31ab8  !      00000000
                _BSS                  BSS            6fd33264  !      00000000
                _TEXT                 CODE           6fd1ea9a c!      00000034
                CONST2                DATA           6fd30950 c!      00000018
                _DATA                 DATA           6fd31ab8 c!      0000000e
/mnt/sda5/.user/root/src/openwatcom-1.9/bld/plusplus/cpplib/string/cpp/oprfchar.cpp
                _TEXT                 CODE           6fd1eace  !      000000d8
                CONST                 DATA           6fd2d509  !      00000000
                CONST2                DATA           6fd30970  !      00000004
                _DATA                 DATA           6fd31ac6  !      00000000
                _BSS                  BSS            6fd33264  !      00000001
/mnt/sda5/.user/root/src/openwatcom-1.9/bld/plusplus/cpplib/string/cpp/zapcase.cpp
                _TEXT                 CODE           6fd1eba6  !      00000151
                CONST                 DATA           6fd2d509  !      00000000
                CONST2                DATA           6fd30980  !      00000010
                _DATA                 DATA           6fd31ac6  !      00000000
                _BSS                  BSS            6fd33265  !      00000000
/mnt/sda5/.user/root/src/openwatcom-1.9/bld/plusplus/cpplib/string/cpp/compstr.cpp
                _TEXT                 CODE           6fd1ecf7  !      0000008d
                CONST                 DATA           6fd2d509  !      00000000
                CONST2                DATA           6fd30990  !      00000004
                _DATA                 DATA           6fd31ac6  !      00000000
                _BSS                  BSS            6fd33265  !      00000000
/mnt/sda5/.user/root/src/openwatcom-1.9/bld/plusplus/cpplib/string/cpp/opeqchst.cpp
                _TEXT                 CODE           6fd1ed84  !      00000061
                CONST                 DATA           6fd2d509  !      00000000
                CONST2                DATA           6fd309a0  !      00000004
                _DATA                 DATA           6fd31ac6  !      00000000
                _BSS                  BSS            6fd33265  !      00000000
/mnt/sda5/.user/root/src/openwatcom-1.9/bld/plusplus/cpplib/string/cpp/opnechst.cpp
                _TEXT                 CODE           6fd1ede5  !      00000061
                CONST                 DATA           6fd2d509  !      00000000
                CONST2                DATA           6fd309b0  !      00000004
                _DATA                 DATA           6fd31ac6  !      00000000
                _BSS                  BSS            6fd33265  !      00000000
/mnt/sda5/.user/root/src/openwatcom-1.9/bld/plusplus/cpplib/string/cpp/oplqchst.cpp
                _TEXT                 CODE           6fd1ee46  !      00000061
                CONST                 DATA           6fd2d509  !      00000000
                CONST2                DATA           6fd309c0  !      00000004
                _DATA                 DATA           6fd31ac6  !      00000000
                _BSS                  BSS            6fd33265  !      00000000
/mnt/sda5/.user/root/src/openwatcom-1.9/bld/plusplus/cpplib/string/cpp/opgrchst.cpp
                _TEXT                 CODE           6fd1eea7  !      00000061
                CONST                 DATA           6fd2d509  !      00000000
                CONST2                DATA           6fd309d0  !      00000004
                _DATA                 DATA           6fd31ac6  !      00000000
                _BSS                  BSS            6fd33265  !      00000000
/mnt/sda5/.user/root/src/openwatcom-1.9/bld/plusplus/cpplib/string/cpp/opgqchst.cpp
                _TEXT                 CODE           6fd1ef08  !      00000061
                CONST                 DATA           6fd2d509  !      00000000
                CONST2                DATA           6fd309e0  !      00000004
                _DATA                 DATA           6fd31ac6  !      00000000
                _BSS                  BSS            6fd33265  !      00000000
/mnt/sda5/.user/root/src/openwatcom-1.9/bld/plusplus/cpplib/string/cpp/opcachst.cpp
                _TEXT                 CODE           6fd1ef69  !      00000219
                CONST                 DATA           6fd2d509  !      00000000
                CONST2                DATA           6fd309f0  !      00000030
                _DATA                 DATA           6fd31ac6  !      00000000
                _BSS                  BSS            6fd33265  !      00000000
/mnt/sda5/.user/root/src/openwatcom-1.9/bld/plusplus/cpplib/string/cpp/opinput.cpp
                _TEXT                 CODE           6fd1f182  !      0000017b
                CONST                 DATA           6fd2d509  !      00000000
                CONST2                DATA           6fd30a20  !      00000004
                _DATA                 DATA           6fd31ac6  !      00000000
                _BSS                  BSS            6fd33265  !      00000000
/mnt/sda5/.user/root/src/openwatcom-1.9/bld/plusplus/cpplib/string/cpp/opoutput.cpp
                _TEXT                 CODE           6fd1f2fd  !      00000051
                CONST                 DATA           6fd2d509  !      00000000
                CONST2                DATA           6fd30a30  !      00000004
                _DATA                 DATA           6fd31ac6  !      00000000
                _BSS                  BSS            6fd33265  !      00000000
/mnt/sda5/.user/root/src/openwatcom-1.9/bld/plusplus/cpplib/string/cpp/matchcst.cpp
                _TEXT                 CODE           6fd1f34e  !      00000069
                CONST                 DATA           6fd2d509  !      00000000
                CONST2                DATA           6fd30a40  !      00000004
                _DATA                 DATA           6fd31ac6  !      00000000
                _BSS                  BSS            6fd33265  !      00000000
/mnt/sda5/.user/root/src/openwatcom-1.9/bld/plusplus/cpplib/string/cpp/joinstr.cpp
                _TEXT                 CODE           6fd1f3b7  !      000000ba
                CONST                 DATA           6fd2d509  !      00000000
                CONST2                DATA           6fd30a50  !      00000004
                _DATA                 DATA           6fd31ac6  !      00000000
                _BSS                  BSS            6fd33265  !      00000000
/mnt/sda5/.user/root/src/openwatcom-1.9/bld/plusplus/cpplib/string/cpp/freestr.cpp
                _TEXT                 CODE           6fd1f471  !      00000069
                CONST                 DATA           6fd2d509  !      00000000
                CONST2                DATA           6fd30a60  !      00000004
                _DATA                 DATA           6fd31ac6  !      00000000
                _BSS                  BSS            6fd33265  !      00000000
/mnt/sda5/.user/root/src/openwatcom-1.9/bld/plusplus/cpplib/string/cpp/indexcha.cpp
                _TEXT                 CODE           6fd1f4da  !      000000a1
                CONST                 DATA           6fd2d509  !      00000000
                CONST2                DATA           6fd30a70  !      00000004
                _DATA                 DATA           6fd31ac6  !      00000000
                _BSS                  BSS            6fd33265  !      00000000
/mnt/sda5/.user/root/src/openwatcom-1.9/bld/plusplus/cpplib/string/cpp/appendst.cpp
                _TEXT                 CODE           6fd1f57b  !      00000199
                CONST                 DATA           6fd2d509  !      00000000
                CONST2                DATA           6fd30a80  !      00000004
                _DATA                 DATA           6fd31ac6  !      00000000
                _BSS                  BSS            6fd33265  !      00000000
/mnt/sda5/.user/root/src/openwatcom-1.9/bld/plusplus/cpplib/string/cpp/indexstr.cpp
                _TEXT                 CODE           6fd1f714  !      000000a9
                CONST                 DATA           6fd2d509  !      00000000
                CONST2                DATA           6fd30a90  !      00000004
                _DATA                 DATA           6fd31ac6  !      00000000
                _BSS                  BSS            6fd33265  !      00000000
/mnt/sda5/.user/root/src/openwatcom-1.9/bld/plusplus/cpplib/string/cpp/condefau.cpp
                _TEXT                 CODE           6fd1f7bd  !      00000059
                CONST                 DATA           6fd2d509  !      00000000
                CONST2                DATA           6fd30aa0  !      00000004
                _DATA                 DATA           6fd31ac6  !      00000000
                _BSS                  BSS            6fd33265  !      00000000
/mnt/sda5/.user/root/src/openwatcom-1.9/bld/plusplus/cpplib/string/cpp/constrst.cpp
                _TEXT                 CODE           6fd1f816  !      000000be
                CONST                 DATA           6fd2d509  !      00000000
                CONST2                DATA           6fd30ab0  !      00000004
                _DATA                 DATA           6fd31ac6  !      00000000
                _BSS                  BSS            6fd33265  !      00000000
/mnt/sda5/.user/root/src/openwatcom-1.9/bld/plusplus/cpplib/string/cpp/constcst.cpp
                _TEXT                 CODE           6fd1f8d4  !      000000aa
                CONST                 DATA           6fd2d509  !      00000000
                CONST2                DATA           6fd30ac0  !      00000004
                _DATA                 DATA           6fd31ac6  !      00000000
                _BSS                  BSS            6fd33265  !      00000000
/mnt/sda5/.user/root/src/openwatcom-1.9/bld/plusplus/cpplib/string/cpp/matchs.cpp
                _TEXT                 CODE           6fd1f97e  !      00000071
                CONST                 DATA           6fd2d509  !      00000000
                CONST2                DATA           6fd30ad0  !      00000004
                _DATA                 DATA           6fd31ac6  !      00000000
                _BSS                  BSS            6fd33265  !      00000000
/mnt/sda5/.user/root/src/openwatcom-1.9/bld/plusplus/cpplib/string/cpp/opappstr.cpp
                _TEXT                 CODE           6fd1f9ef  !      00000078
                CONST                 DATA           6fd2d509  !      00000000
                CONST2                DATA           6fd30ae0  !      00000004
                _DATA                 DATA           6fd31ac6  !      00000000
                _BSS                  BSS            6fd33265  !      00000000
/mnt/sda5/.user/root/src/openwatcom-1.9/bld/plusplus/cpplib/string/cpp/opcastst.cpp
                _TEXT                 CODE           6fd1fa67  !      000001f1
                CONST                 DATA           6fd2d509  !      00000000
                CONST2                DATA           6fd30af0  !      00000030
                _DATA                 DATA           6fd31ac6  !      00000000
                _BSS                  BSS            6fd33265  !      00000000
/mnt/sda5/.user/root/src/openwatcom-1.9/bld/plusplus/cpplib/string/cpp/opcastch.cpp
                _TEXT                 CODE           6fd1fc58  !      00000208
                CONST                 DATA           6fd2d509  !      00000000
                CONST2                DATA           6fd30b20  !      00000030
                _DATA                 DATA           6fd31ac6  !      00000000
                _BSS                  BSS            6fd33265  !      00000000
/mnt/sda5/.user/root/src/openwatcom-1.9/bld/plusplus/cpplib/string/cpp/opcostch.cpp
                _TEXT                 CODE           6fd1fe60  !      000000cf
                CONST                 DATA           6fd2d509  !      00000000
                CONST2                DATA           6fd30b50  !      00000004
                _DATA                 DATA           6fd31ac6  !      00000000
                _BSS                  BSS            6fd33265  !      00000000
/mnt/sda5/.user/root/src/openwatcom-1.9/bld/plusplus/cpplib/string/cpp/opco1sch.cpp
                _TEXT                 CODE           6fd1ff2f  !      00000036
                CONST                 DATA           6fd2d509  !      00000000
                CONST2                DATA           6fd30b60  !      00000004
                _DATA                 DATA           6fd31ac6  !      00000000
                _BSS                  BSS            6fd33265  !      00000000
/mnt/sda5/.user/root/src/openwatcom-1.9/bld/plusplus/cpplib/string/cpp/opgrstst.cpp
                _TEXT                 CODE           6fd1ff65  !      0000004b
                CONST                 DATA           6fd2d509  !      00000000
                CONST2                DATA           6fd30b70  !      00000004
                _DATA                 DATA           6fd31ac6  !      00000000
                _BSS                  BSS            6fd33265  !      00000000
/mnt/sda5/.user/root/src/openwatcom-1.9/bld/plusplus/cpplib/string/cpp/opgrstch.cpp
                _TEXT                 CODE           6fd1ffb0  !      00000063
                CONST                 DATA           6fd2d509  !      00000000
                CONST2                DATA           6fd30b80  !      00000004
                _DATA                 DATA           6fd31ac6  !      00000000
                _BSS                  BSS            6fd33265  !      00000000
/mnt/sda5/.user/root/src/openwatcom-1.9/bld/plusplus/cpplib/string/cpp/opeqstst.cpp
                _TEXT                 CODE           6fd20013  !      0000004b
                CONST                 DATA           6fd2d509  !      00000000
                CONST2                DATA           6fd30b90  !      00000004
                _DATA                 DATA           6fd31ac6  !      00000000
                _BSS                  BSS            6fd33265  !      00000000
/mnt/sda5/.user/root/src/openwatcom-1.9/bld/plusplus/cpplib/string/cpp/opeqstch.cpp
                _TEXT                 CODE           6fd2005e  !      00000063
                CONST                 DATA           6fd2d509  !      00000000
                CONST2                DATA           6fd30ba0  !      00000004
                _DATA                 DATA           6fd31ac6  !      00000000
                _BSS                  BSS            6fd33265  !      00000000
/mnt/sda5/.user/root/src/openwatcom-1.9/bld/plusplus/cpplib/string/cpp/oplqstst.cpp
                _TEXT                 CODE           6fd200c1  !      0000004b
                CONST                 DATA           6fd2d509  !      00000000
                CONST2                DATA           6fd30bb0  !      00000004
                _DATA                 DATA           6fd31ac6  !      00000000
                _BSS                  BSS            6fd33265  !      00000000
/mnt/sda5/.user/root/src/openwatcom-1.9/bld/plusplus/cpplib/string/cpp/oplqstch.cpp
                _TEXT                 CODE           6fd2010c  !      00000063
                CONST                 DATA           6fd2d509  !      00000000
                CONST2                DATA           6fd30bc0  !      00000004
                _DATA                 DATA           6fd31ac6  !      00000000
                _BSS                  BSS            6fd33265  !      00000000
/mnt/sda5/.user/root/src/openwatcom-1.9/bld/plusplus/cpplib/string/cpp/oplestst.cpp
                _TEXT                 CODE           6fd2016f  !      0000004b
                CONST                 DATA           6fd2d509  !      00000000
                CONST2                DATA           6fd30bd0  !      00000004
                _DATA                 DATA           6fd31ac6  !      00000000
                _BSS                  BSS            6fd33265  !      00000000
/mnt/sda5/.user/root/src/openwatcom-1.9/bld/plusplus/cpplib/string/cpp/oplestch.cpp
                _TEXT                 CODE           6fd201ba  !      00000063
                CONST                 DATA           6fd2d509  !      00000000
                CONST2                DATA           6fd30be0  !      00000004
                _DATA                 DATA           6fd31ac6  !      00000000
                _BSS                  BSS            6fd33265  !      00000000
/mnt/sda5/.user/root/src/openwatcom-1.9/bld/plusplus/cpplib/string/cpp/oplechst.cpp
                _TEXT                 CODE           6fd2021d  !      00000061
                CONST                 DATA           6fd2d509  !      00000000
                CONST2                DATA           6fd30bf0  !      00000004
                _DATA                 DATA           6fd31ac6  !      00000000
                _BSS                  BSS            6fd33265  !      00000000
/mnt/sda5/.user/root/src/openwatcom-1.9/bld/plusplus/cpplib/string/cpp/opnestst.cpp
                _TEXT                 CODE           6fd2027e  !      0000004b
                CONST                 DATA           6fd2d509  !      00000000
                CONST2                DATA           6fd30c00  !      00000004
                _DATA                 DATA           6fd31ac6  !      00000000
                _BSS                  BSS            6fd33265  !      00000000
/mnt/sda5/.user/root/src/openwatcom-1.9/bld/plusplus/cpplib/string/cpp/opnestch.cpp
                _TEXT                 CODE           6fd202c9  !      00000063
                CONST                 DATA           6fd2d509  !      00000000
                CONST2                DATA           6fd30c10  !      00000004
                _DATA                 DATA           6fd31ac6  !      00000000
                _BSS                  BSS            6fd33265  !      00000000
/mnt/sda5/.user/root/src/openwatcom-1.9/bld/plusplus/cpplib/string/cpp/opgqstst.cpp
                _TEXT                 CODE           6fd2032c  !      0000004b
                CONST                 DATA           6fd2d509  !      00000000
                CONST2                DATA           6fd30c20  !      00000004
                _DATA                 DATA           6fd31ac6  !      00000000
                _BSS                  BSS            6fd33265  !      00000000
/mnt/sda5/.user/root/src/openwatcom-1.9/bld/plusplus/cpplib/string/cpp/opgqstch.cpp
                _TEXT                 CODE           6fd20377  !      00000063
                CONST                 DATA           6fd2d509  !      00000000
                CONST2                DATA           6fd30c30  !      00000004
                _DATA                 DATA           6fd31ac6  !      00000000
                _BSS                  BSS            6fd33265  !      00000000
/mnt/sda5/.user/root/src/openwatcom-1.9/bld/plusplus/cpplib/string/cpp/opasstst.cpp
                _TEXT                 CODE           6fd203da  !      00000081
                CONST                 DATA           6fd2d509  !      00000000
                CONST2                DATA           6fd30c40  !      00000004
                _DATA                 DATA           6fd31ac6  !      00000000
                _BSS                  BSS            6fd33265  !      00000000
/mnt/sda5/.user/root/src/openwatcom-1.9/bld/plusplus/cpplib/string/cpp/opcrchar.cpp
                _TEXT                 CODE           6fd2045b  !      00000058
                CONST                 DATA           6fd2d509  !      00000000
                CONST2                DATA           6fd30c50  !      00000004
                _DATA                 DATA           6fd31ac6  !      00000000
                _BSS                  BSS            6fd33265  !      00000000
/mnt/sda5/.user/root/src/openwatcom-1.9/bld/plusplus/cpplib/string/cpp/conszcap.cpp
                _TEXT                 CODE           6fd204b3  !      000000a4
                CONST                 DATA           6fd2d509  !      00000000
                CONST2                DATA           6fd30c60  !      00000004
                _DATA                 DATA           6fd31ac6  !      00000000
                _BSS                  BSS            6fd33265  !      00000000
/mnt/sda5/.user/root/src/openwatcom-1.9/bld/plusplus/cpplib/string/cpp/opeqcrst.cpp
                _TEXT                 CODE           6fd20557  !      00000061
                CONST                 DATA           6fd2d509  !      00000000
                CONST2                DATA           6fd30c70  !      00000004
                _DATA                 DATA           6fd31ac6  !      00000000
                _BSS                  BSS            6fd33265  !      00000000
/mnt/sda5/.user/root/src/openwatcom-1.9/bld/plusplus/cpplib/string/cpp/opnecrst.cpp
                _TEXT                 CODE           6fd205b8  !      00000061
                CONST                 DATA           6fd2d509  !      00000000
                CONST2                DATA           6fd30c80  !      00000004
                _DATA                 DATA           6fd31ac6  !      00000000
                _BSS                  BSS            6fd33265  !      00000000
/mnt/sda5/.user/root/src/openwatcom-1.9/bld/plusplus/cpplib/string/cpp/oplecrst.cpp
                _TEXT                 CODE           6fd20619  !      00000061
                CONST                 DATA           6fd2d509  !      00000000
                CONST2                DATA           6fd30c90  !      00000004
                _DATA                 DATA           6fd31ac6  !      00000000
                _BSS                  BSS            6fd33265  !      00000000
/mnt/sda5/.user/root/src/openwatcom-1.9/bld/plusplus/cpplib/string/cpp/oplqcrst.cpp
                _TEXT                 CODE           6fd2067a  !      00000061
                CONST                 DATA           6fd2d509  !      00000000
                CONST2                DATA           6fd30ca0  !      00000004
                _DATA                 DATA           6fd31ac6  !      00000000
                _BSS                  BSS            6fd33265  !      00000000
/mnt/sda5/.user/root/src/openwatcom-1.9/bld/plusplus/cpplib/string/cpp/opgrcrst.cpp
                _TEXT                 CODE           6fd206db  !      00000061
                CONST                 DATA           6fd2d509  !      00000000
                CONST2                DATA           6fd30cb0  !      00000004
                _DATA                 DATA           6fd31ac6  !      00000000
                _BSS                  BSS            6fd33265  !      00000000
/mnt/sda5/.user/root/src/openwatcom-1.9/bld/plusplus/cpplib/string/cpp/opgqcrst.cpp
                _TEXT                 CODE           6fd2073c  !      00000061
                CONST                 DATA           6fd2d509  !      00000000
                CONST2                DATA           6fd30cc0  !      00000004
                _DATA                 DATA           6fd31ac6  !      00000000
                _BSS                  BSS            6fd33265  !      00000000
/mnt/sda5/.user/root/src/openwatcom-1.9/bld/plusplus/cpplib/string/cpp/opcacrst.cpp
                _TEXT                 CODE           6fd2079d  !      000001f2
                CONST                 DATA           6fd2d509  !      00000000
                CONST2                DATA           6fd30cd0  !      00000030
                _DATA                 DATA           6fd31ac6  !      00000000
                _BSS                  BSS            6fd33265  !      00000000
/mnt/sda5/.user/root/src/openwatcom-1.9/bld/plusplus/cpplib/string/cpp/opeqstcr.cpp
                _TEXT                 CODE           6fd2098f  !      00000063
                CONST                 DATA           6fd2d509  !      00000000
                CONST2                DATA           6fd30d00  !      00000004
                _DATA                 DATA           6fd31ac6  !      00000000
                _BSS                  BSS            6fd33265  !      00000000
/mnt/sda5/.user/root/src/openwatcom-1.9/bld/plusplus/cpplib/string/cpp/opnestcr.cpp
                _TEXT                 CODE           6fd209f2  !      00000063
                CONST                 DATA           6fd2d509  !      00000000
                CONST2                DATA           6fd30d10  !      00000004
                _DATA                 DATA           6fd31ac6  !      00000000
                _BSS                  BSS            6fd33265  !      00000000
/mnt/sda5/.user/root/src/openwatcom-1.9/bld/plusplus/cpplib/string/cpp/opgrstcr.cpp
                _TEXT                 CODE           6fd20a55  !      00000063
                CONST                 DATA           6fd2d509  !      00000000
                CONST2                DATA           6fd30d20  !      00000004
                _DATA                 DATA           6fd31ac6  !      00000000
                _BSS                  BSS            6fd33265  !      00000000
/mnt/sda5/.user/root/src/openwatcom-1.9/bld/plusplus/cpplib/string/cpp/opgqstcr.cpp
                _TEXT                 CODE           6fd20ab8  !      00000063
                CONST                 DATA           6fd2d509  !      00000000
                CONST2                DATA           6fd30d30  !      00000004
                _DATA                 DATA           6fd31ac6  !      00000000
                _BSS                  BSS            6fd33265  !      00000000
/mnt/sda5/.user/root/src/openwatcom-1.9/bld/plusplus/cpplib/string/cpp/oplestcr.cpp
                _TEXT                 CODE           6fd20b1b  !      00000063
                CONST                 DATA           6fd2d509  !      00000000
                CONST2                DATA           6fd30d40  !      00000004
                _DATA                 DATA           6fd31ac6  !      00000000
                _BSS                  BSS            6fd33265  !      00000000
/mnt/sda5/.user/root/src/openwatcom-1.9/bld/plusplus/cpplib/string/cpp/oplqstcr.cpp
                _TEXT                 CODE           6fd20b7e  !      00000063
                CONST                 DATA           6fd2d509  !      00000000
                CONST2                DATA           6fd30d50  !      00000004
                _DATA                 DATA           6fd31ac6  !      00000000
                _BSS                  BSS            6fd33265  !      00000000
/mnt/sda5/.user/root/src/openwatcom-1.9/bld/plusplus/cpplib/string/cpp/opcastcr.cpp
                _TEXT                 CODE           6fd20be1  !      000001ef
                CONST                 DATA           6fd2d509  !      00000000
                CONST2                DATA           6fd30d60  !      00000030
                _DATA                 DATA           6fd31ac6  !      00000000
                _BSS                  BSS            6fd33265  !      00000000
/mnt/sda5/.user/root/src/openwatcom-1.9/bld/plusplus/cpplib/contain/cpp/wcexcept.cpp
                _TEXT                 CODE           6fd20dd0  !      000003ab
                CONST                 DATA           6fd2d509  !      00000000
                CONST2                DATA           6fd30d90  !      00000000
                _DATA                 DATA           6fd31ac6  !      00000000
                _BSS                  BSS            6fd33265  !      00000000
                _TEXT                 CODE           6fd2117b c!      0000004e
                _TEXT                 CODE           6fd211c9 c!      0000002c
                _TEXT                 CODE           6fd211f5 c!      0000004e
                _TEXT                 CODE           6fd21243 c!      0000002c
                CONST2                DATA           6fd30d90 c!      0000001c
                CONST2                DATA           6fd30db0 c!      0000001c
                CONST2                DATA           6fd30dd0 c!      00000018
                _DATA                 DATA           6fd31ac6 c!      0000001d
                CONST2                DATA           6fd30df0 c!      00000018
                _DATA                 DATA           6fd31ae3 c!      00000019
/mnt/sda5/.user/root/src/openwatcom-1.9/bld/plusplus/cpplib/contain/cpp/wchash.cpp
                _TEXT                 CODE           6fd2126f  !      000013e9
                CONST                 DATA           6fd2d509  !      00000000
                CONST2                DATA           6fd30e10  !      000001e4
                _DATA                 DATA           6fd31afc  !      00000000
                _BSS                  BSS            6fd33265  !      00000000
                _TEXT                 CODE           6fd22658 c!      0000003e
                _TEXT                 CODE           6fd22696 c!      000000b6
                _TEXT                 CODE           6fd2274c c!      0000003e
                _TEXT                 CODE           6fd2278a c!      000000b6
                _TEXT                 CODE           6fd22840 c!      000000a8
                _TEXT                 CODE           6fd228e8 c!      000000b2
                _TEXT                 CODE           6fd2299a c!      00000086
                _TEXT                 CODE           6fd22a20 c!      0000002b
                _TEXT                 CODE           6fd22a4b c!      00000046
                _TEXT                 CODE           6fd22a91 c!      00000069
                _TEXT                 CODE           6fd22afa c!      00000140
                _TEXT                 CODE           6fd22c3a c!      00000133
                _TEXT                 CODE           6fd22d6d c!      000000a9
                _TEXT                 CODE           6fd22e16 c!      00000111
                _TEXT                 CODE           6fd22f27 c!      00000143
                _TEXT                 CODE           6fd2306a c!      00000127
                _TEXT                 CODE           6fd23191 c!      000000de
                _TEXT                 CODE           6fd2326f c!      000000e8
                CONST2                DATA           6fd31000 c!      00000008
                CONST2                DATA           6fd31010 c!      00000008
                CONST2                DATA           6fd31020 c!      0000000c
                CONST2                DATA           6fd31030 c!      00000008
                CONST2                DATA           6fd31040 c!      00000020
                CONST2                DATA           6fd31060 c!      0000000c
                CONST2                DATA           6fd31070 c!      0000000c
                CONST2                DATA           6fd31080 c!      0000000c
                CONST2                DATA           6fd31090 c!      00000008
                CONST2                DATA           6fd310a0 c!      00000008
                CONST2                DATA           6fd310b0 c!      00000018
                CONST2                DATA           6fd310d0 c!      00000018
                CONST2                DATA           6fd310f0 c!      00000018
                CONST2                DATA           6fd31110 c!      00000018
                CONST2                DATA           6fd31130 c!      00000034
                CONST2                DATA           6fd31170 c!      00000028
                CONST2                DATA           6fd311a0 c!      00000040
                CONST2                DATA           6fd311e0 c!      00000034
                CONST2                DATA           6fd31220 c!      00000028
                CONST2                DATA           6fd31250 c!      0000001c
                CONST2                DATA           6fd31270 c!      0000001c
                CONST2                DATA           6fd31290 c!      0000001c
                CONST2                DATA           6fd312b0 c!      00000010
                _DATA                 DATA           6fd31afc c!      00000012
                _DATA                 DATA           6fd31b0e c!      00000015
                _DATA                 DATA           6fd31b23 c!      00000024
                _DATA                 DATA           6fd31b47 c!      0000003d
                _DATA                 DATA           6fd31b84 c!      00000016
                _DATA                 DATA           6fd31b9a c!      0000003d
                _DATA                 DATA           6fd31bd7 c!      00000020
                _DATA                 DATA           6fd31bf7 c!      00000024
                _DATA                 DATA           6fd31c1b c!      00000014
                CONST2                DATA           6fd312c0 c!      00000010
                _DATA                 DATA           6fd31c2f c!      00000010
/mnt/sda5/.user/root/src/openwatcom-1.9/bld/plusplus/cpplib/contain/cpp/wclist.cpp
                _TEXT                 CODE           6fd23357  !      0000082b
                CONST                 DATA           6fd2d509  !      00000000
                CONST2                DATA           6fd312d0  !      00000034
                _DATA                 DATA           6fd31c3f  !      00000000
                _BSS                  BSS            6fd33265  !      00000000
/mnt/sda5/.user/root/src/openwatcom-1.9/bld/plusplus/cpplib/contain/cpp/wcskip.cpp
                _TEXT                 CODE           6fd23b82  !      00000c2d
                CONST                 DATA           6fd2d509  !      00000000
                CONST2                DATA           6fd31310  !      00000038
                _DATA                 DATA           6fd31c40  !      00000004
                _BSS                  BSS            6fd33268  !      00000004
                XIB                   DATA           6fd32ca0  !      00000000
                XI                    DATA           6fd32cee  !      00000006
                XIE                   DATA           6fd32cf4  !      00000000
                _TEXT                 CODE           6fd247af c!      0000007c
                CONST2                DATA           6fd31350 c!      0000001c
                CONST2                DATA           6fd31370 c!      0000001c
                _DATA                 DATA           6fd31c44 c!      00000019
/mnt/sda5/.user/root/src/openwatcom-1.9/bld/clib/startup/c/dmndwnt.c
                _TEXT                 CODE           6fd24830  !      000001af
                CONST                 DATA           6fd2d50c  !      00000000
                CONST2                DATA           6fd3138c  !      00000000
                _DATA                 DATA           6fd31c60  !      00000000
                _BSS                  BSS            6fd3326c  !      00000310
segdefns        _TEXT                 CODE           6fd249e0  !      00000000
                _DATA                 DATA           6fd31c60  !      00000000
                BEGTEXT               CODE           6fd01000  !      00000007
                _NULL                 BEGDATA        6fd2d000  !      00000004
                _AFTERNULL            BEGDATA        6fd2d004  !      00000000
                CONST                 DATA           6fd2d50c  !      00000000
                TIB                   DATA           6fd32d00  !      00000000
                TI                    DATA           6fd32d00  !      00000000
                TIE                   DATA           6fd32d00  !      00000000
                XIB                   DATA           6fd32ca0  !      00000000
                XI                    DATA           6fd32cf4  !      00000000
                XIE                   DATA           6fd32cf4  !      00000000
                YIB                   DATA           6fd32cf4  !      00000000
                YI                    DATA           6fd32cfa  !      00000000
                YIE                   DATA           6fd32d00  !      00000000
                DATA                  DATA           6fd32d00  !      00000000
                _BSS                  BSS            6fd3357c  !      00000000
                STACK                 STACK          6fd33bf0  !      00010000
/mnt/sda5/.user/root/src/openwatcom-1.9/bld/plusplus/cpplib/runtime/cpp/prwdata.cpp
                _TEXT                 CODE           6fd249e0  !      00000000
                CONST                 DATA           6fd2d50c  !      00000000
                CONST2                DATA           6fd3138c  !      00000000
                _DATA                 DATA           6fd31c60  !      00000000
                _BSS                  BSS            6fd33580  !      00000018
/mnt/sda5/.user/root/src/openwatcom-1.9/bld/plusplus/cpplib/runtime/cpp/thrddata.cpp
                _TEXT                 CODE           6fd249e0  !      00000025
                CONST                 DATA           6fd2d50c  !      00000000
                CONST2                DATA           6fd3138c  !      00000000
                _DATA                 DATA           6fd31c60  !      00000000
                _BSS                  BSS            6fd33598  !      00000000
/mnt/sda5/.user/root/src/openwatcom-1.9/bld/plusplus/cpplib/runtime/cpp/rtdbgst.cpp
                _TEXT                 CODE           6fd24a05  !      00001749
                CONST                 DATA           6fd2d50c  !      00000550
                CONST2                DATA           6fd3138c  !      00000000
                _DATA                 DATA           6fd31c60  !      00000004
                _BSS                  BSS            6fd33598  !      00000030
/mnt/sda5/.user/root/src/openwatcom-1.9/bld/plusplus/cpplib/runtime/cpp/tssize.cpp
                _TEXT                 CODE           6fd2614e  !      000000b0
                CONST                 DATA           6fd2da5c  !      00000025
                CONST2                DATA           6fd3138c  !      00000000
                _DATA                 DATA           6fd31c64  !      00000000
                _BSS                  BSS            6fd335c8  !      00000000
/mnt/sda5/.user/root/src/openwatcom-1.9/bld/plusplus/cpplib/runtime/cpp/stabdisp.cpp
                _TEXT                 CODE           6fd261fe  !      0000041a
                CONST                 DATA           6fd2da81  !      00000032
                CONST2                DATA           6fd3138c  !      00000000
                _DATA                 DATA           6fd31c64  !      00000000
                _BSS                  BSS            6fd335c8  !      00000000
/mnt/sda5/.user/root/src/openwatcom-1.9/bld/plusplus/cpplib/runtime/cpp/pgmthrd.cpp
                _TEXT                 CODE           6fd26618  !      00000065
                CONST                 DATA           6fd2dab3  !      00000000
                CONST2                DATA           6fd3138c  !      00000000
                _DATA                 DATA           6fd31c64  !      00000000
                _BSS                  BSS            6fd335c8  !      00000000
/mnt/sda5/.user/root/src/openwatcom-1.9/bld/plusplus/cpplib/runtime/cpp/fatalerr.cpp
                _TEXT                 CODE           6fd2667d  !      0000004d
                CONST                 DATA           6fd2dab3  !      00000000
                CONST2                DATA           6fd3138c  !      00000000
                _DATA                 DATA           6fd31c64  !      00000000
                _BSS                  BSS            6fd335c8  !      00000000
/mnt/sda5/.user/root/src/openwatcom-1.9/bld/plusplus/cpplib/runtime/cpp/rttidync.cpp
                _TEXT                 CODE           6fd266ca  !      00000111
                CONST                 DATA           6fd2dab3  !      00000000
                CONST2                DATA           6fd31390  !      00000000
                _DATA                 DATA           6fd31c64  !      00000000
                _BSS                  BSS            6fd335c8  !      00000000
/mnt/sda5/.user/root/src/openwatcom-1.9/bld/plusplus/cpplib/runtime/cpp/rttisupp.cpp
                _TEXT                 CODE           6fd267db  !      00000142
                CONST                 DATA           6fd2dab3  !      00000000
                CONST2                DATA           6fd31390  !      00000000
                _DATA                 DATA           6fd31c64  !      00000000
                _BSS                  BSS            6fd335c8  !      00000000
/mnt/sda5/.user/root/src/openwatcom-1.9/bld/plusplus/cpplib/runtime/cpp/stabtrav.cpp
                _TEXT                 CODE           6fd2691d  !      00000388
                CONST                 DATA           6fd2dab3  !      0000001e
                CONST2                DATA           6fd31390  !      00000000
                _DATA                 DATA           6fd31c64  !      00000000
                _BSS                  BSS            6fd335c8  !      00000000
/mnt/sda5/.user/root/src/openwatcom-1.9/bld/plusplus/cpplib/runtime/cpp/allocexc.cpp
                _TEXT                 CODE           6fd26ca5  !      0000058b
                CONST                 DATA           6fd2dad1  !      0000005a
                CONST2                DATA           6fd31390  !      00000028
                _DATA                 DATA           6fd31c64  !      00000000
                _BSS                  BSS            6fd335c8  !      00000000
/mnt/sda5/.user/root/src/openwatcom-1.9/bld/plusplus/cpplib/runtime/cpp/exc_pr.cpp
                _TEXT                 CODE           6fd27230  !      000002e1
                CONST                 DATA           6fd2db2b  !      00000000
                CONST2                DATA           6fd313b8  !      00000000
                _DATA                 DATA           6fd31c64  !      00000000
                _BSS                  BSS            6fd335c8  !      00000000
/mnt/sda5/.user/root/src/openwatcom-1.9/bld/plusplus/cpplib/runtime/cpp/callterm.cpp
                _TEXT                 CODE           6fd27511  !      0000008d
                CONST                 DATA           6fd2db2b  !      00000041
                CONST2                DATA           6fd313b8  !      00000000
                _DATA                 DATA           6fd31c64  !      00000000
                _BSS                  BSS            6fd335c8  !      00000000
/mnt/sda5/.user/root/src/openwatcom-1.9/bld/plusplus/cpplib/runtime/cpp/tsequiv.cpp
                _TEXT                 CODE           6fd2759e  !      000002a5
                CONST                 DATA           6fd2db6c  !      00000025
                CONST2                DATA           6fd313b8  !      00000000
                _DATA                 DATA           6fd31c64  !      00000000
                _BSS                  BSS            6fd335c8  !      00000000
/mnt/sda5/.user/root/src/openwatcom-1.9/bld/plusplus/cpplib/runtime/cpp/stabinit.cpp
                _TEXT                 CODE           6fd27843  !      00000118
                CONST                 DATA           6fd2db91  !      00000000
                CONST2                DATA           6fd313b8  !      00000000
                _DATA                 DATA           6fd31c64  !      00000000
                _BSS                  BSS            6fd335c8  !      00000000
/mnt/sda5/.user/root/src/openwatcom-1.9/bld/plusplus/cpplib/runtime/cpp/stablcl.cpp
                _TEXT                 CODE           6fd2795b  !      0000002a
                CONST                 DATA           6fd2db91  !      00000000
                CONST2                DATA           6fd313b8  !      00000000
                _DATA                 DATA           6fd31c64  !      00000000
                _BSS                  BSS            6fd335c8  !      00000000
/mnt/sda5/.user/root/src/openwatcom-1.9/bld/plusplus/cpplib/runtime/cpp/moddtorr.cpp
                _TEXT                 CODE           6fd27985  !      00000000
                CONST                 DATA           6fd2db91  !      00000000
                CONST2                DATA           6fd313b8  !      00000000
                _DATA                 DATA           6fd31c64  !      00000000
                _BSS                  BSS            6fd335c8  !      00000000
                YIB                   DATA           6fd32cf4  !      00000000
                YI                    DATA           6fd32cfa  !      00000006
                YIE                   DATA           6fd32d00  !      00000000
/mnt/sda5/.user/root/src/openwatcom-1.9/bld/plusplus/cpplib/runtime/cpp/undefmbd.cpp
                _TEXT                 CODE           6fd27985  !      00000000
                CONST                 DATA           6fd2db91  !      00000000
                CONST2                DATA           6fd313b8  !      00000000
                _DATA                 DATA           6fd31c64  !      00000000
                _BSS                  BSS            6fd335c8  !      00000004
/mnt/sda5/.user/root/src/openwatcom-1.9/bld/plusplus/cpplib/iostream/cpp/iofgldfl.cpp
                _TEXT                 CODE           6fd27985  !      0000132b
                CONST                 DATA           6fd2db91  !      00000000
                CONST2                DATA           6fd313c0  !      000000e4
                _DATA                 DATA           6fd31c64  !      00000000
                _BSS                  BSS            6fd335cc  !      00000000
/mnt/sda5/.user/root/src/openwatcom-1.9/bld/plusplus/cpplib/iostream/cpp/iosgnilk.cpp
                _TEXT                 CODE           6fd28cb0  !      0000007c
                CONST                 DATA           6fd2db91  !      00000000
                CONST2                DATA           6fd314b0  !      0000000c
                _DATA                 DATA           6fd31c64  !      00000010
                _BSS                  BSS            6fd335d0  !      00000105
                _TEXT                 CODE           6fd28d2c c!      0000003b
                _TEXT                 CODE           6fd28d67 c!      00000030
/mnt/sda5/.user/root/src/openwatcom-1.9/bld/plusplus/cpplib/iostream/cpp/iosfail.cpp
                _TEXT                 CODE           6fd28d97  !      00000034
                CONST                 DATA           6fd2db91  !      00000000
                CONST2                DATA           6fd314c0  !      00000000
                _DATA                 DATA           6fd31c74  !      00000000
                _BSS                  BSS            6fd336d5  !      00000000
/mnt/sda5/.user/root/src/openwatcom-1.9/bld/plusplus/cpplib/iostream/cpp/istgtu64.cpp
                _TEXT                 CODE           6fd28dcb  !      00000539
                CONST                 DATA           6fd2db91  !      00000000
                CONST2                DATA           6fd314c0  !      0000002c
                _DATA                 DATA           6fd31c74  !      00000000
                _BSS                  BSS            6fd336d5  !      00000000
/mnt/sda5/.user/root/src/openwatcom-1.9/bld/plusplus/cpplib/iostream/cpp/istgetul.cpp
                _TEXT                 CODE           6fd29304  !      000004cf
                CONST                 DATA           6fd2db91  !      00000000
                CONST2                DATA           6fd314f0  !      0000002c
                _DATA                 DATA           6fd31c74  !      00000000
                _BSS                  BSS            6fd336d5  !      00000000
/mnt/sda5/.user/root/src/openwatcom-1.9/bld/plusplus/cpplib/iostream/cpp/istgalin.cpp
                _TEXT                 CODE           6fd297d3  !      0000056b
                CONST                 DATA           6fd2db91  !      00000000
                CONST2                DATA           6fd31520  !      0000003c
                _DATA                 DATA           6fd31c74  !      00000000
                _BSS                  BSS            6fd336d5  !      00000000
/mnt/sda5/.user/root/src/openwatcom-1.9/bld/plusplus/cpplib/iostream/cpp/ioufgtba.cpp
                _TEXT                 CODE           6fd29d3e  !      0000005d
                CONST                 DATA           6fd2db91  !      00000000
                CONST2                DATA           6fd31560  !      00000000
                _DATA                 DATA           6fd31c74  !      00000000
                _BSS                  BSS            6fd336d5  !      00000000
/mnt/sda5/.user/root/src/openwatcom-1.9/bld/plusplus/cpplib/iostream/cpp/ostadpre.cpp
                _TEXT                 CODE           6fd29d9b  !      0000008d
                CONST                 DATA           6fd2db91  !      00000000
                CONST2                DATA           6fd31560  !      00000000
                _DATA                 DATA           6fd31c74  !      00000000
                _BSS                  BSS            6fd336d5  !      00000000
/mnt/sda5/.user/root/src/openwatcom-1.9/bld/plusplus/cpplib/iostream/cpp/ssfgpos.cpp
                _TEXT                 CODE           6fd29e28  !      00000110
                CONST                 DATA           6fd2db91  !      00000000
                CONST2                DATA           6fd31560  !      00000000
                _DATA                 DATA           6fd31c74  !      00000000
                _BSS                  BSS            6fd336d5  !      00000000
/mnt/sda5/.user/root/src/openwatcom-1.9/bld/plusplus/cpplib/iostream/cpp/stfgnslk.cpp
                _TEXT                 CODE           6fd29f38  !      0000007c
                CONST                 DATA           6fd2db91  !      00000000
                CONST2                DATA           6fd31560  !      0000000c
                _DATA                 DATA           6fd31c74  !      00000010
                _BSS                  BSS            6fd336e0  !      00000105
/mnt/sda5/.user/root/src/openwatcom-1.9/bld/plusplus/cpplib/string/cpp/compchar.cpp
                _TEXT                 CODE           6fd29fb4  !      000000fa
                CONST                 DATA           6fd2db91  !      00000000
                CONST2                DATA           6fd31570  !      00000004
                _DATA                 DATA           6fd31c84  !      00000000
                _BSS                  BSS            6fd337e5  !      00000000
/mnt/sda5/.user/root/src/openwatcom-1.9/bld/plusplus/cpplib/string/cpp/matchstr.cpp
                _TEXT                 CODE           6fd2a0ae  !      00000081
                CONST                 DATA           6fd2db91  !      00000000
                CONST2                DATA           6fd31580  !      00000004
                _DATA                 DATA           6fd31c84  !      00000000
                _BSS                  BSS            6fd337e5  !      00000000
/mnt/sda5/.user/root/src/openwatcom-1.9/bld/plusplus/cpplib/string/cpp/strsrch.cpp
                _TEXT                 CODE           6fd2a12f  !      000001ca
                CONST                 DATA           6fd2db91  !      00000000
                CONST2                DATA           6fd31584  !      00000000
                _DATA                 DATA           6fd31c84  !      00000000
                _BSS                  BSS            6fd337e5  !      00000000
/mnt/sda5/.user/root/src/openwatcom-1.9/bld/clib/startup/c/ddgrpwnt.c
                _TEXT                 CODE           6fd2a300  !      00000186
                CONST                 DATA           6fd2db94  !      00000000
                CONST2                DATA           6fd31584  !      00000000
                _DATA                 DATA           6fd31c84  !      00000000
                _BSS                  BSS            6fd337e8  !      000003f5
/mnt/sda5/.user/root/src/openwatcom-1.9/bld/clib/startup/c/dllnmwnt.c
                _TEXT                 CODE           6fd2a490  !      00000000
                CONST                 DATA           6fd2db94  !      00000000
                CONST2                DATA           6fd31584  !      00000000
                _DATA                 DATA           6fd31c84  !      00000000
                _BSS                  BSS            6fd33be0  !      0000000c
/mnt/sda5/.user/root/src/openwatcom-1.9/bld/clib/startup/c/initrtns.c
                _TEXT                 CODE           6fd2a490  !      0000015a
                CONST                 DATA           6fd2db94  !      00000000
                CONST2                DATA           6fd31584  !      00000000
                _DATA                 DATA           6fd31c84  !      00000000
/mnt/sda5/.user/root/src/openwatcom-1.9/bld/clib/startup/c/rdllmwnt.c
                _TEXT                 CODE           6fd2a5f0  !      00000000
                CONST                 DATA           6fd2db94  !      00000000
                CONST2                DATA           6fd31584  !      00000000
                _DATA                 DATA           6fd31c84  !      00000004
/mnt/sda5/.user/root/src/openwatcom-1.9/bld/clib/startup/c/dcinit.c
                _TEXT                 CODE           6fd2a5f0  !      00000017
                CONST                 DATA           6fd2db94  !      00000000
                CONST2                DATA           6fd31584  !      00000000
                _DATA                 DATA           6fd31c88  !      00000000
dosseg          _TEXT                 CODE           6fd2a608  !      00000000
                _DATA                 DATA           6fd31c88  !      00000000
/mnt/sda5/.user/root/src/openwatcom-1.9/bld/plusplus/cpplib/runtime/cpp/bittest.cpp
                _TEXT                 CODE           6fd2a608  !      00000092
                CONST                 DATA           6fd2db94  !      00000000
                CONST2                DATA           6fd31584  !      00000000
                _DATA                 DATA           6fd31c90  !      00000010
                _BSS                  BSS            6fd33bec  !      00000000
/mnt/sda5/.user/root/src/openwatcom-1.9/bld/plusplus/cpplib/runtime/cpp/areaexc.cpp
                _TEXT                 CODE           6fd2a69a  !      00000000
                CONST                 DATA           6fd2db94  !      00000000
                CONST2                DATA           6fd31584  !      00000000
                _DATA                 DATA           6fd31ca0  !      00001000
                _BSS                  BSS            6fd33bec  !      00000000
/mnt/sda5/.user/root/src/openwatcom-1.9/bld/plusplus/cpplib/runtime/cpp/dstabmod.cpp
                _TEXT                 CODE           6fd2a69a  !      000000c5
                CONST                 DATA           6fd2db94  !      00000000
                CONST2                DATA           6fd31584  !      00000000
                _DATA                 DATA           6fd32ca0  !      00000000
                _BSS                  BSS            6fd33bec  !      00000000
/mnt/sda5/.user/root/src/openwatcom-1.9/bld/plusplus/cpplib/iostream/cpp/istgsign.cpp
                _TEXT                 CODE           6fd2a75f  !      000001e2
                CONST                 DATA           6fd2db94  !      00000000
                CONST2                DATA           6fd31590  !      00000014
                _DATA                 DATA           6fd32ca0  !      00000000
                _BSS                  BSS            6fd33bec  !      00000000
/mnt/sda5/.user/root/src/openwatcom-1.9/bld/plusplus/cpplib/iostream/cpp/istgbase.cpp
                _TEXT                 CODE           6fd2a941  !      000009b4
                CONST                 DATA           6fd2db94  !      00000000
                CONST2                DATA           6fd315b0  !      00000074
                _DATA                 DATA           6fd32ca0  !      00000000
                _BSS                  BSS            6fd33bec  !      00000000
/mnt/sda5/.user/root/src/openwatcom-1.9/bld/plusplus/cpplib/iostream/cpp/istgnm64.cpp
                _TEXT                 CODE           6fd2b2f5  !      00000524
                CONST                 DATA           6fd2db94  !      00000000
                CONST2                DATA           6fd31630  !      00000050
                _DATA                 DATA           6fd32ca0  !      00000000
                _BSS                  BSS            6fd33bec  !      00000000
/mnt/sda5/.user/root/src/openwatcom-1.9/bld/plusplus/cpplib/iostream/cpp/istgnum.cpp
                _TEXT                 CODE           6fd2b819  !      00000477
                CONST                 DATA           6fd2db94  !      00000000
                CONST2                DATA           6fd31680  !      00000038
                _DATA                 DATA           6fd32ca0  !      00000000
                _BSS                  BSS            6fd33bec  !      00000000


                        +----------------------+
                        |   Imported Symbols   |
                        +----------------------+

Symbol                              Module
======                              ======

__CHK                               clbr19d.dll
__GRO                               clbr19d.dll
free_                               clbr19d.dll
malloc_                             clbr19d.dll
___GetThreadPtr                     clbr19d.dll
memset_                             clbr19d.dll
___ReleaseSema4                     clbr19d.dll
___CloseSema4                       clbr19d.dll
___AccessSema4                      clbr19d.dll
memcpy_                             clbr19d.dll
longjmp_                            clbr19d.dll
stackavail_                         clbr19d.dll
_RaiseException@16                  KERNEL32.DLL
_RtlUnwind@16                       KERNEL32.DLL
__exit_                             clbr19d.dll
strcmp_                             clbr19d.dll
__demangle_t_                       clbr19d.dll
__plusplus_fstat_                   clbr19d.dll
close_                              clbr19d.dll
__plusplus_open_                    clbr19d.dll
write_                              clbr19d.dll
tell_                               clbr19d.dll
lseek_                              clbr19d.dll
memmove_                            clbr19d.dll
read_                               clbr19d.dll
__get_errno_ptr_                    clbr19d.dll
__fatal_runtime_error_              clbr19d.dll
strlen_                             clbr19d.dll
__get_std_stream_                   clbr19d.dll
_plib_free_                         clbr19d.dll
_plib_malloc_                       clbr19d.dll
isspace_                            clbr19d.dll
lltoa_                              clbr19d.dll
ultoa_                              clbr19d.dll
strupr_                             clbr19d.dll
ltoa_                               clbr19d.dll
ulltoa_                             clbr19d.dll
__flush_                            clbr19d.dll
fwrite_                             clbr19d.dll
fgetc_                              clbr19d.dll
printf_                             clbr19d.dll
realloc_                            clbr19d.dll
rand_                               clbr19d.dll
strcat_                             clbr19d.dll
_GetModuleFileNameA@12              KERNEL32.DLL
__lib_GetModuleFileNameW_           clbr19d.dll
___sig_init_rtn                     clbr19d.dll
__RegisterThreadDataSize_           clbr19d.dll
fflush_                             clbr19d.dll
puts_                               clbr19d.dll
strcpy_                             clbr19d.dll
itoa_                               clbr19d.dll
fopen_                              clbr19d.dll
fclose_                             clbr19d.dll
__EnterWVIDEO_                      clbr19d.dll
exit_                               clbr19d.dll
__exit_with_msg_                    clbr19d.dll
isdigit_                            clbr19d.dll
tolower_                            clbr19d.dll
isxdigit_                           clbr19d.dll
__U8LS                              clbr19d.dll
memcmp_                             clbr19d.dll
memchr_                             clbr19d.dll
_MessageBoxA@16                     USER32.DLL


                        +--------------------+
                        |   Libraries Used   |
                        +--------------------+

/mnt/sda5/.user/root/src/openwatcom-1.9/rel2/lib386/nt/kernel32.lib
/mnt/sda5/.user/root/src/openwatcom-1.9/rel2/lib386/nt/user32.lib
/mnt/sda5/.user/root/src/openwatcom-1.9/bld/plusplus/cpplib/winnt.386/mf_rmtd.dll/plbxmt3r.lib
../../../clib/winnt.386/mf_rd/clbrdlld.lib
/mnt/sda5/.user/root/src/openwatcom-1.9/bld/plusplus/cpplib/winnt.386/mf_rmtd/plbxmt3r.lib


                        +-----------------------+
                        |   Linker Statistics   |
                        +-----------------------+

Stack size:  0000 (0.)
Memory size:  00031fc9 (204745.)
Entry point address: 6fd01030
Link time: 00:00.00
