Open Watcom Linker Version 1.9
Portions Copyright (c) 1985-2002 Sybase, Inc. All Rights Reserved.
Created on:       12/12/16 02:42:14
Executable Image: wsmpnt.exe
creating a Windows NT character-mode executable


                        +------------+
                        |   Groups   |
                        +------------+

Group                           Address              Size
=====                           =======              ====

.idata                          0040d000             00000697
DGROUP                          0040e000             000123b0



                        +--------------+
                        |   Segments   |
                        +--------------+

Segment                Class          Group          Address         Size
=======                =====          =====          =======         ====

BEGTEXT                CODE           AUTO           00401000        00000007
_TEXT                  CODE           AUTO           00401010        0000b468
TRANSFER CODE          CODE           AUTO           0040c478        00000162
.idata                 .idata         .idata         0040d000        00000697
_NULL                  BEGDATA        DGROUP         0040e000        00000004
_AFTERNULL             BEGDATA        DGROUP         0040e004        00000000
CONST                  DATA           DGROUP         0040e004        00000034
CONST2                 DATA           DGROUP         0040e038        00000000
_DATA                  DATA           DGROUP         0040e038        00000728
XIB                    DATA           DGROUP         0040e760        00000000
XI                     DATA           DGROUP         0040e760        00000024
XIE                    DATA           DGROUP         0040e784        00000000
YIB                    DATA           DGROUP         0040e784        00000000
YI                     DATA           DGROUP         0040e784        0000001e
YIE                    DATA           DGROUP         0040e7a2        00000000
TIB                    DATA           DGROUP         0040e7a2        00000000
TI                     DATA           DGROUP         0040e7a2        00000000
TIE                    DATA           DGROUP         0040e7a2        00000000
DATA                   DATA           DGROUP         0040e7a2        00000000
_BSS                   BSS            DGROUP         0040f000        000013a8
STACK                  STACK          DGROUP         004103b0        00010000


                        +----------------+
                        |   Memory Map   |
                        +----------------+

* = unreferenced symbol
+ = symbol only referenced locally

Address        Symbol
=======        ======

Module: sampnt.obj(/mnt/sda5/.user/root/src/openwatcom-1.9/bld/wsample/c/sampnt.c)
00401070       NextThread_
004010c0       InitTimerRate_
004010d0*      SetTimerRate_
00401100       TimerRate_
00401110       SafeMargin_
00401120       VersionCheck_
00401130+      RecordSample_
00401230       GetCommArea_
004012a0       ResetCommArea_
004012f0       GetNextAddr_
00401320       StopProg_
004016f0+      _TimerThread@4
004018f0       StartProg_
00401c10       SysDefaultOptions_
00401c90       SysParseOptions_
Module: sysinit.obj(/mnt/sda5/.user/root/src/openwatcom-1.9/bld/wsample/c/sysinit.c)
00401cf0       SysInit_
Module: sampexe.obj(/mnt/sda5/.user/root/src/openwatcom-1.9/bld/wsample/c/sampexe.c)
00401d20       GetProg_
00401e80       fatal_
Module: sample.obj(/mnt/sda5/.user/root/src/openwatcom-1.9/bld/wsample/c/sample.c)
0040e038+      _Header
0040e040+      _Last
0040e048+      _FirstSample
00401fa0       WriteMark_
00402030       WriteCodeLoad_
004020f0       WriteAddrMap_
00402140       StopAndSave_
00402160+      SaveSamples_
00402390       RecordCGraph_
004024e0       report_
004025b0+      Usage_
004025e0+      skip_
00402600       GetNumber_
00402700+      Parse_
004028f0       AllocSamples_
004029a0       main_
Module: sampdata.obj(/mnt/sda5/.user/root/src/openwatcom-1.9/bld/wsample/c/sampdata.c)
0040f884       _ExeName
0040f904       _SampName
0040fa04       _CGraphOff
0040fa08       _SampleIndex
0040fa0c       _Margin
0040fa10       _LastSampleIndex
0040fa14       _Comm
0040fa28       _SamplerOff
0040fa2c       _Samples
0040fa30       _SampleCount
0040fa34       _CallGraph
0040fa38       _Info
0040fa9c       _CurrTick
0040faa0       _Ceiling
0040faa4       _InsiderTime
0040faa8       _CGraphSeg
0040faaa       _FarWriteProblem
0040faab       _CallGraphMode
0040faac       _LostData
Module: io.obj(/mnt/sda5/.user/root/src/openwatcom-1.9/bld/wsample/c/io.c)
00402b70       SampCreate_
00402b90       SampWrite_
00402bf0       SampSeek_
00402c20       SampClose_
00402c40       Output_
Module: sysio.obj(/mnt/sda5/.user/root/src/openwatcom-1.9/bld/wsample/c/sysio.c)
00402c70       SysCreate_
00402c90       SysWrite_
00402ca0       SysSeek_
00402cb0       SysClose_
00402cc0       alloc_
00402cd0       mfree_
Module: wmsg.obj(/mnt/sda5/.user/root/src/openwatcom-1.9/bld/wsample/c/wmsg.c)
00402d40       MsgInit_
00402ec0       MsgFini_
00402ef0       MsgPrintfUsage_
0040e058       _WResRtns
0040fab8       _MsgArray
Module: /mnt/sda5/.user/root/src/openwatcom-1.9/rel2/lib386/nt/clib3r.lib(exit.c)
00402f1f+      __null_int23_exit_
00402f20       exit_
00402f70       _exit_
0040e078+      ___int23_exit
0040e07c+      ___FPE_handler_exit
Module: /mnt/sda5/.user/root/src/openwatcom-1.9/rel2/lib386/nt/clib3r.lib(nrealloc.c)
00402f90*      _nrealloc_
00402f90       realloc_
Module: /mnt/sda5/.user/root/src/openwatcom-1.9/rel2/lib386/nt/clib3r.lib(memset.c)
00403010       memset_
Module: /mnt/sda5/.user/root/src/openwatcom-1.9/rel2/lib386/nt/clib3r.lib(split2.c)
00403080       _splitpath2_
Module: /mnt/sda5/.user/root/src/openwatcom-1.9/rel2/lib386/nt/clib3r.lib(makepath.c)
004031f0       _makepath_
Module: /mnt/sda5/.user/root/src/openwatcom-1.9/rel2/lib386/nt/clib3r.lib(searchen.c)
004033a0       _searchenv_
Module: /mnt/sda5/.user/root/src/openwatcom-1.9/rel2/lib386/nt/clib3r.lib(accsswnt.c)
004034d0       access_
Module: /mnt/sda5/.user/root/src/openwatcom-1.9/rel2/lib386/nt/clib3r.lib(stackwnt.c)
00403500       stackavail_
Module: /mnt/sda5/.user/root/src/openwatcom-1.9/rel2/lib386/nt/clib3r.lib(statwnt.c)
00403619       stat_
Module: /mnt/sda5/.user/root/src/openwatcom-1.9/rel2/lib386/nt/clib3r.lib(stk)
0040384d*      __CHK
0040385d*      __STK
0040387c       __STKOVERFLOW_
0040388c       __GRO
004038ac*      __alloca_probe
Module: /mnt/sda5/.user/root/src/openwatcom-1.9/rel2/lib386/nt/clib3r.lib(tolower.c)
004038c0       tolower_
Module: /mnt/sda5/.user/root/src/openwatcom-1.9/rel2/lib386/nt/clib3r.lib(istable.c)
004038d0       __IsTable
Module: /mnt/sda5/.user/root/src/openwatcom-1.9/rel2/lib386/nt/clib3r.lib(gtcmd.c)
00403a20       _bgetcmd_
00403a90       getcmd_
Module: /mnt/sda5/.user/root/src/openwatcom-1.9/rel2/lib386/nt/clib3r.lib(nmalloc.c)
00403ab0       _nmalloc_
00403ab0       malloc_
0040e090       ___nheapbeg
0040e094       ___MiniHeapRover
0040e098       ___LargestSizeB4MiniHeapRover
Module: /mnt/sda5/.user/root/src/openwatcom-1.9/rel2/lib386/nt/clib3r.lib(nfree.c)
00403bb0       _nfree_
00403bb0       free_
0040fc2c       ___MiniHeapFreeRover
Module: /mnt/sda5/.user/root/src/openwatcom-1.9/rel2/lib386/nt/clib3r.lib(cstrtwnt)
00403cb8       _cstart_
00403cb8*      mainCRTStartup
Module: /mnt/sda5/.user/root/src/openwatcom-1.9/rel2/lib386/nt/clib3r.lib(argcv.c)
0040fc30       __argc
0040fc34       __argv
0040fc38       ___argv
0040fc3c       ___argc
Module: /mnt/sda5/.user/root/src/openwatcom-1.9/rel2/lib386/nt/clib3r.lib(openwnt.c)
00403f20       open_
00403f40+      sopen_
Module: /mnt/sda5/.user/root/src/openwatcom-1.9/rel2/lib386/nt/clib3r.lib(write.c)
004041c0       write_
Module: /mnt/sda5/.user/root/src/openwatcom-1.9/rel2/lib386/nt/clib3r.lib(lseek.c)
00404420       lseek_
Module: /mnt/sda5/.user/root/src/openwatcom-1.9/rel2/lib386/nt/clib3r.lib(close.c)
00404470       close_
Module: /mnt/sda5/.user/root/src/openwatcom-1.9/rel2/lib386/nt/clib3r.lib(read.c)
00404490       read_
Module: /mnt/sda5/.user/root/src/openwatcom-1.9/rel2/lib386/nt/clib3r.lib(tell.c)
00404620       tell_
Module: /mnt/sda5/.user/root/src/openwatcom-1.9/bld/sdk/rc/wres/flat386/mf_r/wres.lib(loadfind.c)
00404658       FindResources_
0040e09c       _FileShift
Module: /mnt/sda5/.user/root/src/openwatcom-1.9/rel2/lib386/nt/clib3r.lib(cmdname.c)
00404760       _cmdname_
Module: /mnt/sda5/.user/root/src/openwatcom-1.9/bld/sdk/rc/wres/flat386/mf_r/wres.lib(loadstr.c)
004048c8+      WResLoadString2_
00404978       WResLoadString_
00404990       OpenResFile_
004049a0+      InitResources2_
004049c8       InitResources_
004049d8*      CloseResFile2_
004049e4       CloseResFile_
004049fc*      LoadstrInitStatics_
0040fc40+      _MainDir
Module: /mnt/sda5/.user/root/src/openwatcom-1.9/rel2/lib386/nt/clib3r.lib(wrlang.c)
00404a30       _WResLanguage_
Module: /mnt/sda5/.user/root/src/openwatcom-1.9/rel2/lib386/nt/clib3r.lib(mainwnt.c)
0040e0a0*      ___TlsIndex
0040e0a4+      ___FirstThreadData
0040e0a8       ___GetThreadPtr
0040e0ac       __AccessFileH
0040e0b0       __ReleaseFileH
0040e0b4       __AccessIOB
0040e0b8       __ReleaseIOB
0040e0bc       __AccessNHeap
0040e0c0*      __AccessFHeap
0040e0c4       __ReleaseNHeap
00404ac0*      __threadid_
00404ae0+      __sig_null_rtn_
00404af0+      __NTInit_
00404cd0+      __NTFini_
00404d30       __NTMainInit_
00404d90       __exit_
0040e0c8*      __ReleaseFHeap
0040e0cc*      __AccessTDList
0040e0d0*      __ReleaseTDList
0040e0d4       __AccessFList
0040e0d8       __ReleaseFList
0040e0dc+      __ThreadExitRtn
0040e0e0       ___sig_init_rtn
0040e0e4       ___sig_fini_rtn
0040e0e8       ___process_fini
0040fc4c       ___Is_DLL
Module: /mnt/sda5/.user/root/src/openwatcom-1.9/rel2/lib386/nt/clib3r.lib(initrtns.c)
00404df0       __InitRtns
00404e40       __FiniRtns
Module: /mnt/sda5/.user/root/src/openwatcom-1.9/rel2/lib386/nt/clib3r.lib(nmsize.c)
00404ea0       _nmsize_
00404ea0*      _msize_
Module: /mnt/sda5/.user/root/src/openwatcom-1.9/rel2/lib386/nt/clib3r.lib(nexpand.c)
00404eb0       _nexpand_
00404eb0*      _expand_
00404ef0+      __HeapManager_expand_
Module: /mnt/sda5/.user/root/src/openwatcom-1.9/rel2/lib386/nt/clib3r.lib(__stos)
004050b0       __STOSB
004050e7*      __STOSD
Module: /mnt/sda5/.user/root/src/openwatcom-1.9/rel2/lib386/nt/clib3r.lib(mbsnccnt.c)
00405160       _mbsnccnt_
Module: /mnt/sda5/.user/root/src/openwatcom-1.9/rel2/lib386/nt/clib3r.lib(mbsncpy.c)
00405190       _mbsncpy_
Module: /mnt/sda5/.user/root/src/openwatcom-1.9/rel2/lib386/nt/clib3r.lib(mbsnbcnt.c)
004051b0       _mbsnbcnt_
Module: /mnt/sda5/.user/root/src/openwatcom-1.9/rel2/lib386/nt/clib3r.lib(mbsnextc.c)
00405220       _mbsnextc_
Module: /mnt/sda5/.user/root/src/openwatcom-1.9/rel2/lib386/nt/clib3r.lib(mbsinc.c)
00405260       _mbsinc_
Module: /mnt/sda5/.user/root/src/openwatcom-1.9/rel2/lib386/nt/clib3r.lib(mbconv.c)
00405290       _mbvtop_
Module: /mnt/sda5/.user/root/src/openwatcom-1.9/rel2/lib386/nt/clib3r.lib(mbclen.c)
004052b0       _mbclen_
Module: /mnt/sda5/.user/root/src/openwatcom-1.9/rel2/lib386/nt/clib3r.lib(mbsdec.c)
004052e0       _mbsdec_
Module: /mnt/sda5/.user/root/src/openwatcom-1.9/rel2/lib386/nt/clib3r.lib(gtcwdwnt.c)
00405360       getcwd_
Module: /mnt/sda5/.user/root/src/openwatcom-1.9/rel2/lib386/nt/clib3r.lib(strlen.c)
004053f0       strlen_
Module: /mnt/sda5/.user/root/src/openwatcom-1.9/rel2/lib386/nt/clib3r.lib(strncat.c)
00405410       strncat_
Module: /mnt/sda5/.user/root/src/openwatcom-1.9/rel2/lib386/nt/clib3r.lib(getenv.c)
00405450       getenv_
Module: /mnt/sda5/.user/root/src/openwatcom-1.9/rel2/lib386/nt/clib3r.lib(strcat.c)
004054e0       strcat_
Module: /mnt/sda5/.user/root/src/openwatcom-1.9/rel2/lib386/nt/clib3r.lib(seterrno.c)
0040550f       __set_errno_
0040551d*      __set_EDOM_
0040552b*      __set_ERANGE_
00405539*      __set_EINVAL_
0040554c       __set_doserrno_
Module: /mnt/sda5/.user/root/src/openwatcom-1.9/rel2/lib386/nt/clib3r.lib(fgtattr.c)
00405560       __fixed_GetFileAttributesA_
Module: /mnt/sda5/.user/root/src/openwatcom-1.9/rel2/lib386/nt/clib3r.lib(dosret.c)
00405600*      _dosretax_
00405610*      _dosret0_
00405620       __set_errno_dos_
00405650*      __set_errno_dos_reterr_
00405660       __set_errno_nt_
00405670*      __set_errno_nt_reterr_
Module: /mnt/sda5/.user/root/src/openwatcom-1.9/rel2/lib386/nt/clib3r.lib(crwdata)
0040e234       __osmajor
0040e235       __osminor
0040e236       __osbuild
0040e238       __osver
0040e23c       __winmajor
0040e240       __winminor
0040e244       __winver
0040e200       __LpDllName
0040e204       __LpwCmdLine
0040e208       __LpwPgmName
0040e20c       __LpwDllName
0040e1f8       __LpCmdLine
0040e1fc       __LpPgmName
0040e1f0*      __dynend
0040e1f4       __curbrk
0040e210*      __STACKLOW
0040e214       __STACKTOP
0040e218       __ASTACKSIZ
0040e21c       __ASTACKPTR
0040e220*      __cbyte
0040e224*      __cbyte2
0040e228*      __child
0040e22e       __Envptr
0040e232*      __Envseg
0040e22c*      __no87
0040e248       ___FPE_handler
Module: /mnt/sda5/.user/root/src/openwatcom-1.9/rel2/lib386/nt/clib3r.lib(stricmp.c)
00405690       stricmp_
Module: /mnt/sda5/.user/root/src/openwatcom-1.9/rel2/lib386/nt/clib3r.lib(_strcmp)
004056d0       strcmp_
Module: /mnt/sda5/.user/root/src/openwatcom-1.9/rel2/lib386/nt/clib3r.lib(mbspbrk.c)
00405810       _mbspbrk_
Module: /mnt/sda5/.user/root/src/openwatcom-1.9/rel2/lib386/nt/clib3r.lib(fullpath.c)
00405870+      _sys_fullpath_
004058f0       _fullpath_
Module: /mnt/sda5/.user/root/src/openwatcom-1.9/rel2/lib386/nt/clib3r.lib(ntdirinf.c)
00405960       __MakeDOSDT_
00405990*      __FromDOSDT_
004059c0*      __GetNTDirInfo_
00405a00*      __NTFindNextFileWithAttr_
Module: /mnt/sda5/.user/root/src/openwatcom-1.9/rel2/lib386/nt/clib3r.lib(d2ttime.c)
00405a60       _d2ttime_
Module: /mnt/sda5/.user/root/src/openwatcom-1.9/rel2/lib386/nt/clib3r.lib(xmsgwnt.c)
00405ae0+      __exit_with_msg_
00405b40       __fatal_runtime_error_
Module: /mnt/sda5/.user/root/src/openwatcom-1.9/rel2/lib386/nt/clib3r.lib(nmemneed.c)
00405b60       __nmemneed_
Module: /mnt/sda5/.user/root/src/openwatcom-1.9/rel2/lib386/nt/clib3r.lib(mem.c)
00405b70       __MemAllocator
00405c20       __MemFree
Module: /mnt/sda5/.user/root/src/openwatcom-1.9/rel2/lib386/nt/clib3r.lib(grownear.c)
00405ec0       __ExpandDGROUP_
Module: /mnt/sda5/.user/root/src/openwatcom-1.9/rel2/lib386/nt/clib3r.lib(main2wnt.c)
00405ee0       __NTMain
Module: /mnt/sda5/.user/root/src/openwatcom-1.9/rel2/lib386/nt/clib3r.lib(segdefns)
00401003       ___begtext
0040e000*      __nullarea
0040e760       __Start_XI
0040e784       __End_XI
0040e784       __Start_YI
0040e7a2       __End_YI
Module: /mnt/sda5/.user/root/src/openwatcom-1.9/rel2/lib386/nt/clib3r.lib(initargv.c)
00405f40       __Init_Argv_
00405f90+      _getargv_
00406130       __Fini_Argv_
Module: /mnt/sda5/.user/root/src/openwatcom-1.9/rel2/lib386/nt/clib3r.lib(hdlman.c)
0040e24c+      ___NHandles
0040e250+      ___OSHandles
0040e254+      ___FakeHandles
00406140+      __growPOSIXHandles_
004061e0       __allocPOSIXHandle_
004062a0       __freePOSIXHandle_
004062c0       __getOSHandle_
004062d0       __setOSHandle_
00406320+      __NTGetFakeHandle_
00406390       __initPOSIXHandles_
00406470*      __set_handles_
00406480*      _grow_handles_
Module: /mnt/sda5/.user/root/src/openwatcom-1.9/rel2/lib386/nt/clib3r.lib(ntfio.c)
004064c0*      __GetNTCreateAttr_
00406500       __GetNTAccessAttr_
00406530       __GetNTShareAttr_
Module: /mnt/sda5/.user/root/src/openwatcom-1.9/rel2/lib386/nt/clib3r.lib(umaskval.c)
0040e260       ___umaskval
Module: /mnt/sda5/.user/root/src/openwatcom-1.9/rel2/lib386/nt/clib3r.lib(isattwnt.c)
00406590       isatty_
Module: /mnt/sda5/.user/root/src/openwatcom-1.9/rel2/lib386/nt/clib3r.lib(stiomode.c)
004065b0       __grow_iomode_
00406680+      __shrink_iomode_
004066c0       __SetIOMode_
Module: /mnt/sda5/.user/root/src/openwatcom-1.9/rel2/lib386/nt/clib3r.lib(iob.c)
0040e264       ___iob
0040e46c       __fmode
00410270       ___OpenStreams
00410274       ___ClosedStreams
Module: /mnt/sda5/.user/root/src/openwatcom-1.9/rel2/lib386/nt/clib3r.lib(iomode.c)
00406730       __GetIOMode_
00406750       __SetIOMode_nogrow_
0040e470       ___NFiles
0040e474       ___init_mode
0040e4c4       ___io_mode
Module: /mnt/sda5/.user/root/src/openwatcom-1.9/rel2/lib386/nt/clib3r.lib(__lseek.c)
00406770       __lseek_
Module: /mnt/sda5/.user/root/src/openwatcom-1.9/rel2/lib386/nt/clib3r.lib(_clsewnt.c)
004067b0       __close_
Module: /mnt/sda5/.user/root/src/openwatcom-1.9/rel2/lib386/nt/clib3r.lib(iomodtty.c)
00406810       __ChkTTYIOMode_
00406850*      __IOMode_
Module: /mnt/sda5/.user/root/src/openwatcom-1.9/bld/sdk/rc/wres/flat386/mf_r/wres.lib(wriidfn.c)
00406870       WResInitIDFromNum_
Module: /mnt/sda5/.user/root/src/openwatcom-1.9/bld/sdk/rc/wres/flat386/mf_r/wres.lib(wrfindrs.c)
00406880       __FindType_
004068a4       __FindRes_
004068c8       __FindLang_
00406904       WResFindResource_
Module: /mnt/sda5/.user/root/src/openwatcom-1.9/bld/sdk/rc/wres/flat386/mf_r/wres.lib(wrgetli.c)
00406990       WResGetLangInfo_
004069a4*      WResGetFileInfo_
Module: /mnt/sda5/.user/root/src/openwatcom-1.9/bld/sdk/rc/wres/flat386/mf_r/wres.lib(ropenfro.c)
004069c0       ResOpenFileRO_
Module: /mnt/sda5/.user/root/src/openwatcom-1.9/bld/sdk/rc/wres/flat386/mf_r/wres.lib(wrinitdi.c)
00406a10       WResInitDir_
Module: /mnt/sda5/.user/root/src/openwatcom-1.9/bld/sdk/rc/wres/flat386/mf_r/wres.lib(wrreaddi.c)
00407188       WResReadDir_
00407194+      WResReadDir2_
Module: /mnt/sda5/.user/root/src/openwatcom-1.9/bld/sdk/rc/wres/flat386/mf_r/wres.lib(wrfreedi.c)
00407250+      __FreeLangList_
0040727c+      __FreeResList_
004072b4       __FreeTypeList_
004072ec       WResFreeDir_
Module: /mnt/sda5/.user/root/src/openwatcom-1.9/bld/sdk/rc/wres/flat386/mf_r/wres.lib(rclosef.c)
00407310       ResCloseFile_
Module: /mnt/sda5/.user/root/src/openwatcom-1.9/rel2/lib386/nt/clib3r.lib(environ.c)
00410278       ___env_mask
0041027c       _environ
00410280       __wenviron
Module: /mnt/sda5/.user/root/src/openwatcom-1.9/rel2/lib386/nt/clib3r.lib(getmodfn.c)
00407330       __lib_GetModuleFileNameW_
Module: /mnt/sda5/.user/root/src/openwatcom-1.9/rel2/lib386/nt/clib3r.lib(strdup.c)
004073d0       __clib_strdup_
Module: /mnt/sda5/.user/root/src/openwatcom-1.9/rel2/lib386/nt/clib3r.lib(ustrdup.c)
00407410       __clib_wcsdup_
Module: /mnt/sda5/.user/root/src/openwatcom-1.9/rel2/lib386/nt/clib3r.lib(excptwnt.c)
00407aa0+      ___ReportException@4
00407ef0       __DefaultExceptionHandler_
00407f30+      ___ExceptionFilter
00408140       __NewExceptionFilter_
00408170       __DoneExceptionFilter_
0040e4c8       ___oscode_check_func
0040e4cc       ___raise_func
00410284*      _sw
00410288+      ___ExceptionHandled
00410289+      ___ReportInvoked
Module: /mnt/sda5/.user/root/src/openwatcom-1.9/rel2/lib386/nt/clib3r.lib(stklmwnt.c)
004081b0       __init_stack_limits_
Module: /mnt/sda5/.user/root/src/openwatcom-1.9/rel2/lib386/nt/clib3r.lib(mbterm.c)
00408220       _mbterm_
Module: /mnt/sda5/.user/root/src/openwatcom-1.9/rel2/lib386/nt/clib3r.lib(mbsnbcpy.c)
00408260       _mbsnbcpy_
Module: /mnt/sda5/.user/root/src/openwatcom-1.9/rel2/lib386/nt/clib3r.lib(mbisdbcs.c)
0041028c       ___IsDBCS
Module: /mnt/sda5/.user/root/src/openwatcom-1.9/rel2/lib386/nt/clib3r.lib(mbislead.c)
004082c0*      _ismbblead_
00410290       ___MBCSIsTable
Module: /mnt/sda5/.user/root/src/openwatcom-1.9/rel2/lib386/nt/clib3r.lib(mbcupper.c)
004082e0       _mbctoupper_
Module: /mnt/sda5/.user/root/src/openwatcom-1.9/rel2/lib386/nt/clib3r.lib(mbschr.c)
00408310       _mbschr_
Module: /mnt/sda5/.user/root/src/openwatcom-1.9/rel2/lib386/nt/clib3r.lib(strncpy.c)
00408370       strncpy_
Module: /mnt/sda5/.user/root/src/openwatcom-1.9/rel2/lib386/nt/clib3r.lib(mktime.c)
004083b0       mktime_
Module: /mnt/sda5/.user/root/src/openwatcom-1.9/rel2/lib386/nt/clib3r.lib(enterdb.c)
00408440       __EnterWVIDEO_
0040e4e4+      ___WD_Present
Module: /mnt/sda5/.user/root/src/openwatcom-1.9/rel2/lib386/nt/clib3r.lib(amblksiz.c)
0040e4e8       __amblksiz
Module: /mnt/sda5/.user/root/src/openwatcom-1.9/rel2/lib386/nt/clib3r.lib(heapen.c)
00408470*      _heapenable_
0040e4ec       ___heap_enabled
Module: /mnt/sda5/.user/root/src/openwatcom-1.9/rel2/lib386/nt/clib3r.lib(nheapmin.c)
004084a0       _nheapshrink_
004084a0*      _nheapmin_
004084a0*      _heapmin_
004084a0*      _heapshrink_
Module: /mnt/sda5/.user/root/src/openwatcom-1.9/rel2/lib386/nt/clib3r.lib(mthrdini.c)
00408590       __InitThreadData_
0040e4f0       ___ThreadDataSize
Module: /mnt/sda5/.user/root/src/openwatcom-1.9/rel2/lib386/nt/clib3r.lib(cmain386.c)
004085c0       __CMain
Module: /mnt/sda5/.user/root/src/openwatcom-1.9/rel2/lib386/nt/clib3r.lib(dosseg)
00001234       __DOSseg__
Module: /mnt/sda5/.user/root/src/openwatcom-1.9/rel2/lib386/nt/clib3r.lib(histsplt.c)
00410394       ___historical_splitparms
Module: /mnt/sda5/.user/root/src/openwatcom-1.9/rel2/lib386/nt/clib3r.lib(___argc.c)
00410398       ____Argc
0041039c       ____Argv
Module: /mnt/sda5/.user/root/src/openwatcom-1.9/rel2/lib386/nt/clib3r.lib(initfile.c)
00408630       __InitFiles_
Module: /mnt/sda5/.user/root/src/openwatcom-1.9/rel2/lib386/nt/clib3r.lib(ioexit.c)
00408730*      fcloseall_
00408740       __full_io_exit_
Module: /mnt/sda5/.user/root/src/openwatcom-1.9/bld/sdk/rc/wres/flat386/mf_r/wres.lib(wridcmp.c)
00408750       WResIDCmp_
Module: /mnt/sda5/.user/root/src/openwatcom-1.9/rel2/lib386/nt/clib3r.lib(setmd.c)
00408790       setmode_
Module: /mnt/sda5/.user/root/src/openwatcom-1.9/bld/sdk/rc/wres/flat386/mf_r/wres.lib(wrerror.c)
00408880       WresRecordError_
Module: /mnt/sda5/.user/root/src/openwatcom-1.9/bld/sdk/rc/wres/flat386/mf_r/wres.lib(ralliae.c)
00408890       ResAddLLItemAtEnd_
Module: /mnt/sda5/.user/root/src/openwatcom-1.9/bld/sdk/rc/wres/flat386/mf_r/wres.lib(wrrfrr.c)
004088c0       WResReadFixedResRecord_
00408900       WResReadFixedResRecord1_
00408940       WResReadFixedResRecord2_
Module: /mnt/sda5/.user/root/src/openwatcom-1.9/bld/sdk/rc/wres/flat386/mf_r/wres.lib(wridexby.c)
004089c0       WResIDExtraBytes_
Module: /mnt/sda5/.user/root/src/openwatcom-1.9/bld/sdk/rc/wres/flat386/mf_r/wres.lib(wrrewrid.c)
004089d0       WResReadExtraWResID_
Module: /mnt/sda5/.user/root/src/openwatcom-1.9/bld/sdk/rc/wres/flat386/mf_r/wres.lib(wrrftr.c)
00408a30       WResReadFixedTypeRecord_
00408a78       WResReadFixedTypeRecord2_
Module: /mnt/sda5/.user/root/src/openwatcom-1.9/bld/sdk/rc/wres/flat386/mf_r/wres.lib(wrrhr.c)
00408af0       WResReadHeaderRecord_
00408b68       WResReadExtHeader_
Module: /mnt/sda5/.user/root/src/openwatcom-1.9/bld/sdk/rc/wres/flat386/mf_r/wres.lib(mrrdrh.c)
00408bb0       M32ResReadResourceHeader_
00408d1c       MResReadResourceHeader_
Module: /mnt/sda5/.user/root/src/openwatcom-1.9/bld/sdk/rc/wres/flat386/mf_r/wres.lib(wrfree.c)
00408dc0       MResFreeResourceHeader_
Module: /mnt/sda5/.user/root/src/openwatcom-1.9/bld/sdk/rc/wres/flat386/mf_r/wres.lib(wridfnoo.c)
00408e00       WResIDFromNameOrOrd_
Module: /mnt/sda5/.user/root/src/openwatcom-1.9/bld/sdk/rc/wres/flat386/mf_r/wres.lib(wraddres.c)
00408f70*      WResAddResource_
00408fcc       WResAddResource2_
Module: /mnt/sda5/.user/root/src/openwatcom-1.9/bld/sdk/rc/wres/flat386/mf_r/wres.lib(wriswrf.c)
004090f0       WResFindResType_
00409188*      WResIsWResFile_
Module: /mnt/sda5/.user/root/src/openwatcom-1.9/rel2/lib386/nt/clib3r.lib(setenvp.c)
004091a0       __setenvp_
00409260       __freeenvp_
Module: /mnt/sda5/.user/root/src/openwatcom-1.9/rel2/lib386/nt/clib3r.lib(ustrlen.c)
004092ad       wcslen_
Module: /mnt/sda5/.user/root/src/openwatcom-1.9/rel2/lib386/nt/clib3r.lib(memcpy.c)
004092c0       memcpy_
Module: /mnt/sda5/.user/root/src/openwatcom-1.9/rel2/lib386/nt/clib3r.lib(conutwnt.c)
004092f0*      __NTRealKey_
004093a0*      __NTConsoleInput_
004093b0       __NTConsoleOutput_
Module: /mnt/sda5/.user/root/src/openwatcom-1.9/rel2/lib386/nt/clib3r.lib(fclex387.c)
004093c0       _ClearFPE_
Module: /mnt/sda5/.user/root/src/openwatcom-1.9/rel2/lib386/nt/clib3r.lib(signlwnt.c)
0040e4fc+      __SignalTable
004093d0+      __SetSignalFunc_
00409420+      __GetSignalFunc_
00409450+      __GetSignalOSCode_
00409480+      __CheckSignalExCode_
004095c0+      __sigabort_
004095d0       __sigfpe_handler_
00409620*      signal_
004096b0+      raise_
00409720+      __SigInit_
00409770+      __SigFini_
004097b0+      __sig_init_
Module: /mnt/sda5/.user/root/src/openwatcom-1.9/rel2/lib386/nt/clib3r.lib(mbinit.c)
00409809       __mbinit_
0040e568       ___MBCodePage
Module: /mnt/sda5/.user/root/src/openwatcom-1.9/rel2/lib386/nt/clib3r.lib(mbccmp.c)
00409900       _mbccmp_
Module: /mnt/sda5/.user/root/src/openwatcom-1.9/rel2/lib386/nt/clib3r.lib(locmktim.c)
00409940       __local_mktime_
Module: /mnt/sda5/.user/root/src/openwatcom-1.9/rel2/lib386/nt/clib3r.lib(gmtime.c)
00409ac0       __brktime_
00409bc0+      _gmtime_
00409be0*      gmtime_
Module: /mnt/sda5/.user/root/src/openwatcom-1.9/rel2/lib386/nt/clib3r.lib(tzset.c)
0040e56c       ___start_dst
0040e590       ___end_dst
0040e6b8*      _tzname
0040e6c0       _timezone
0040e6c4       _daylight
0040e6c8       ___dst_adjust
00409c50*      __DontCacheOSTZ_
00409c60*      __CacheOSTZ_
0040a140+      __parse_tz_
0040a530       tzset_
Module: /mnt/sda5/.user/root/src/openwatcom-1.9/rel2/lib386/nt/clib3r.lib(timeutil.c)
0040a6a0       __isindst_
Module: /mnt/sda5/.user/root/src/openwatcom-1.9/rel2/lib386/nt/clib3r.lib(cinit.c)
0040a9d0       __CommonInit_
Module: /mnt/sda5/.user/root/src/openwatcom-1.9/rel2/lib386/nt/clib3r.lib(fclose.c)
0040a9e0+      __doclose_
0040aa80       __shutdown_stream_
0040aaa0*      fclose_
004103a4+      ___RmTmpFileFn
Module: /mnt/sda5/.user/root/src/openwatcom-1.9/rel2/lib386/nt/clib3r.lib(freefp.c)
0040aaf0       __freefp_
0040ab40       __purgefp_
Module: /mnt/sda5/.user/root/src/openwatcom-1.9/bld/sdk/rc/wres/flat386/mf_r/wres.lib(wridnacm.c)
0040abb0       WResIDNameCmp_
Module: /mnt/sda5/.user/root/src/openwatcom-1.9/bld/sdk/rc/wres/flat386/mf_r/wres.lib(resseek.c)
0040ac00*      ResSeek_
0040ac20       ResPadDWord_
Module: /mnt/sda5/.user/root/src/openwatcom-1.9/bld/sdk/rc/wres/flat386/mf_r/wres.lib(rduint32.c)
0040ac80       ResReadUint32_
Module: /mnt/sda5/.user/root/src/openwatcom-1.9/bld/sdk/rc/wres/flat386/mf_r/wres.lib(rrnamoor.c)
0040acd0       ResReadNameOrOrdinal_
0040adb8       ResRead32NameOrOrdinal_
Module: /mnt/sda5/.user/root/src/openwatcom-1.9/bld/sdk/rc/wres/flat386/mf_r/wres.lib(rduint16.c)
0040aea0       ResReadUint16_
Module: /mnt/sda5/.user/root/src/openwatcom-1.9/bld/sdk/rc/wres/flat386/mf_r/wres.lib(wridfrst.c)
0040aef0       WResIDFromStr_
Module: /mnt/sda5/.user/root/src/openwatcom-1.9/bld/sdk/rc/wres/flat386/mf_r/wres.lib(wridfrnu.c)
0040af60       WResIDFromNum_
Module: /mnt/sda5/.user/root/src/openwatcom-1.9/bld/sdk/rc/wres/flat386/mf_r/wres.lib(wrfirres.c)
0040afc0*      WResFirstResource_
0040afec       WResSetEmptyWindow_
0040b008       WResMakeWindow_
Module: /mnt/sda5/.user/root/src/openwatcom-1.9/rel2/lib386/nt/clib3r.lib(dofilstr.c)
0040b040       __ParsePosixHandleStr_
Module: /mnt/sda5/.user/root/src/openwatcom-1.9/rel2/lib386/nt/clib3r.lib(clearenv.c)
0040b160       clearenv_
Module: /mnt/sda5/.user/root/src/openwatcom-1.9/rel2/lib386/nt/clib3r.lib(abort.c)
0040b205*      abort_
0040b217       __terminate_
0040e6d0       ___abort
Module: /mnt/sda5/.user/root/src/openwatcom-1.9/rel2/lib386/nt/clib3r.lib(leapyear.c)
0040b230       __leapyear_
0040e004       ___diyr
0040e01e       ___dilyr
Module: /mnt/sda5/.user/root/src/openwatcom-1.9/rel2/lib386/nt/clib3r.lib(wcstombs.c)
0040b270       wcstombs_
Module: /mnt/sda5/.user/root/src/openwatcom-1.9/rel2/lib386/nt/clib3r.lib(flush.c)
0040b310       __flush_
Module: /mnt/sda5/.user/root/src/openwatcom-1.9/rel2/lib386/nt/clib3r.lib(toupper.c)
0040b410       toupper_
Module: /mnt/sda5/.user/root/src/openwatcom-1.9/bld/sdk/rc/wres/flat386/mf_r/wres.lib(rduint8.c)
0040b420       ResReadUint8_
Module: /mnt/sda5/.user/root/src/openwatcom-1.9/bld/sdk/rc/wres/flat386/mf_r/wres.lib(rrdstr.c)
0040b470       ResReadString_
0040b4e0       ResRead32String_
Module: /mnt/sda5/.user/root/src/openwatcom-1.9/rel2/lib386/nt/clib3r.lib(strtol.c)
0040b780*      strtoul_
0040b790       strtol_
Module: /mnt/sda5/.user/root/src/openwatcom-1.9/rel2/lib386/nt/clib3r.lib(putenv.c)
0040b7a0       putenv_
0040ba30       __putenv_
Module: /mnt/sda5/.user/root/src/openwatcom-1.9/rel2/lib386/nt/clib3r.lib(wctomb.c)
0040bba0       wctomb_
Module: /mnt/sda5/.user/root/src/openwatcom-1.9/rel2/lib386/nt/clib3r.lib(fsync.c)
0040bbe0       fsync_
Module: /mnt/sda5/.user/root/src/openwatcom-1.9/rel2/lib386/nt/clib3r.lib(qwrit.c)
0040bc30       __qwrite_
Module: /mnt/sda5/.user/root/src/openwatcom-1.9/bld/sdk/rc/wres/flat386/mf_r/wres.lib(varstr.c)
0040bd10       VarStringStart_
0040bd44       VarStringAddChar_
0040bd9c       VarStringEnd_
Module: /mnt/sda5/.user/root/src/openwatcom-1.9/rel2/lib386/nt/clib3r.lib(mbslen.c)
0040be30       _mbslen_
Module: /mnt/sda5/.user/root/src/openwatcom-1.9/rel2/lib386/nt/clib3r.lib(mbstowcs.c)
0040be60       mbstowcs_
Module: /mnt/sda5/.user/root/src/openwatcom-1.9/rel2/lib386/nt/clib3r.lib(uputenv.c)
0040bee0*      _wputenv_
0040c100       __wputenv_
Module: /mnt/sda5/.user/root/src/openwatcom-1.9/rel2/lib386/nt/clib3r.lib(memmove.c)
0040c200       memmove_
Module: /mnt/sda5/.user/root/src/openwatcom-1.9/rel2/lib386/nt/clib3r.lib(mbtowc.c)
0040c260       mbtowc_
Module: /mnt/sda5/.user/root/src/openwatcom-1.9/rel2/lib386/nt/clib3r.lib(ustrchr.c)
0040c2f0       wcschr_
Module: /mnt/sda5/.user/root/src/openwatcom-1.9/rel2/lib386/nt/clib3r.lib(setenvar.c)
0040c310       __lib_SetEnvironmentVariableW_
Module: /mnt/sda5/.user/root/src/openwatcom-1.9/rel2/lib386/nt/clib3r.lib(crtwenv.c)
0040c400       __create_wide_environment_
Module: /mnt/sda5/.user/root/src/openwatcom-1.9/rel2/lib386/nt/clib3r.lib(utoupper.c)
0040c468       towupper_


                        +----------------------+
                        |   Imported Symbols   |
                        +----------------------+

Symbol                              Module
======                              ======

_ReadProcessMemory@20               KERNEL32.DLL
_WriteProcessMemory@20              KERNEL32.DLL
_SetFilePointer@16                  KERNEL32.DLL
_ReadFile@20                        KERNEL32.DLL
_CreateProcessA@40                  KERNEL32.DLL
_WaitForDebugEvent@8                KERNEL32.DLL
_GetThreadContext@8                 KERNEL32.DLL
_Sleep@4                            KERNEL32.DLL
_CreateThread@24                    KERNEL32.DLL
_SetThreadPriority@8                KERNEL32.DLL
_ContinueDebugEvent@12              KERNEL32.DLL
_TerminateProcess@8                 KERNEL32.DLL
_CreateFileA@28                     KERNEL32.DLL
_GetFileType@4                      KERNEL32.DLL
_CloseHandle@4                      KERNEL32.DLL
_GetLastError@0                     KERNEL32.DLL
_GetDriveTypeA@4                    KERNEL32.DLL
_FindFirstFileA@8                   KERNEL32.DLL
_FindClose@4                        KERNEL32.DLL
_GetCommandLineA@0                  KERNEL32.DLL
_WriteFile@20                       KERNEL32.DLL
_GetOEMCP@0                         KERNEL32.DLL
_GetEnvironmentStringsA@0           KERNEL32.DLL
_GetVersion@0                       KERNEL32.DLL
_GetModuleFileNameA@12              KERNEL32.DLL
_GetCommandLineW@0                  KERNEL32.DLL
_FreeEnvironmentStringsA@4          KERNEL32.DLL
_GetModuleHandleA@4                 KERNEL32.DLL
_ExitProcess@4                      KERNEL32.DLL
_GetCurrentDirectoryA@8             KERNEL32.DLL
_GetFileAttributesA@4               KERNEL32.DLL
_GetFullPathNameA@16                KERNEL32.DLL
_FileTimeToLocalFileTime@8          KERNEL32.DLL
_FileTimeToDosDateTime@12           KERNEL32.DLL
_DosDateTimeToFileTime@12           KERNEL32.DLL
_LocalFileTimeToFileTime@8          KERNEL32.DLL
_FindNextFileA@8                    KERNEL32.DLL
_GetStdHandle@4                     KERNEL32.DLL
_VirtualAlloc@16                    KERNEL32.DLL
_SetStdHandle@8                     KERNEL32.DLL
_CreateEventA@16                    KERNEL32.DLL
_GetModuleFileNameW@12              KERNEL32.DLL
_MultiByteToWideChar@24             KERNEL32.DLL
_LoadLibraryA@4                     KERNEL32.DLL
_GetProcAddress@8                   KERNEL32.DLL
_SetUnhandledExceptionFilter@4      KERNEL32.DLL
_UnhandledExceptionFilter@4         KERNEL32.DLL
_VirtualQuery@12                    KERNEL32.DLL
_CharUpperA@4                       USER32.DLL
_VirtualFree@12                     KERNEL32.DLL
_GetCurrentThreadId@0               KERNEL32.DLL
_SetConsoleCtrlHandler@8            KERNEL32.DLL
_GetACP@0                           KERNEL32.DLL
_GetCPInfo@8                        KERNEL32.DLL
_GetTimeZoneInformation@4           KERNEL32.DLL
_SetEnvironmentVariableA@8          KERNEL32.DLL
_WideCharToMultiByte@32             KERNEL32.DLL
_FlushFileBuffers@4                 KERNEL32.DLL
_SetEnvironmentVariableW@8          KERNEL32.DLL


                        +--------------------+
                        |   Libraries Used   |
                        +--------------------+

/mnt/sda5/.user/root/src/openwatcom-1.9/rel2/lib386/nt/kernel32.lib
/mnt/sda5/.user/root/src/openwatcom-1.9/rel2/lib386/nt/user32.lib
/mnt/sda5/.user/root/src/openwatcom-1.9/bld/sdk/rc/wres/flat386/mf_r/wres.lib
/mnt/sda5/.user/root/src/openwatcom-1.9/rel2/lib386/nt/clib3r.lib


                        +-----------------------+
                        |   Linker Statistics   |
                        +-----------------------+

Stack size:  00010000 (65536.)
Memory size:  0001e021 (122913.)
Entry point address: 00403cb8
Link time: 00:00.00
