Open Watcom Linker Version 1.9
Portions Copyright (c) 1985-2002 Sybase, Inc. All Rights Reserved.
Created on:       12/12/16 02:39:31
Executable Image: wdis.exe
creating a Windows NT character-mode executable


                        +------------+
                        |   Groups   |
                        +------------+

Group                           Address              Size
=====                           =======              ====

.idata                          00448000             000004b2
DGROUP                          00449000             00013180



                        +--------------+
                        |   Segments   |
                        +--------------+

Segment                Class          Group          Address         Size
=======                =====          =====          =======         ====

BEGTEXT                CODE           AUTO           00401000        00000007
_TEXT                  CODE           AUTO           00401010        00046e9f
TRANSFER CODE          CODE           AUTO           00447eb0        000000fc
.idata                 .idata         .idata         00448000        000004b2
_NULL                  BEGDATA        DGROUP         00449000        00000004
_AFTERNULL             BEGDATA        DGROUP         00449004        00000000
CONST                  DATA           DGROUP         00449004        00000110
CONST2                 DATA           DGROUP         00449114        00000000
_DATA                  DATA           DGROUP         00449114        00000768
XIB                    DATA           DGROUP         0044987c        00000000
XI                     DATA           DGROUP         0044987c        00000024
XIE                    DATA           DGROUP         004498a0        00000000
YIB                    DATA           DGROUP         004498a0        00000000
YI                     DATA           DGROUP         004498a0        0000001e
YIE                    DATA           DGROUP         004498be        00000000
TIB                    DATA           DGROUP         004498be        00000000
TI                     DATA           DGROUP         004498be        00000000
TIE                    DATA           DGROUP         004498be        00000000
DATA                   DATA           DGROUP         004498be        00000000
_BSS                   BSS            DGROUP         0044a000        00002180
STACK                  STACK          DGROUP         0044c180        00010000


                        +----------------+
                        |   Memory Map   |
                        +----------------+

* = unreferenced symbol
+ = symbol only referenced locally

Address        Symbol
=======        ======

Module: args.obj(/mnt/sda5/.user/root/src/openwatcom-1.9/bld/ndisasm/stand/c/args.c)
00401520       HandleArgs_
Module: buffer.obj(/mnt/sda5/.user/root/src/openwatcom-1.9/bld/ndisasm/stand/c/buffer.c)
004018b0       FmtHexNum_
00401990       BufferAlignToTab_
00401a70       BufferConcat_
00401ab0       BufferConcatNL_
00401af0       BufferStore_
00401b60       BufferMsg_
00401bd0       BufferPrint_
00401bf0       BufferHex_
00401c40       BufferQuoteName_
0044a000+      _IntermedBuffer
0044ac00+      _Buffer
Module: dwarf.obj(/mnt/sda5/.user/root/src/openwatcom-1.9/bld/ndisasm/stand/c/dwarf.c)
00401da0       GetDwarfLines_
Module: externs.obj(/mnt/sda5/.user/root/src/openwatcom-1.9/bld/ndisasm/stand/c/externs.c)
00402490       CreateExterns_
00402550       FreeExterns_
00402570       PrintExterns_
Module: formasm.obj(/mnt/sda5/.user/root/src/openwatcom-1.9/bld/ndisasm/stand/c/formasm.c)
004027f0       IsMasmOutput_
00402d30       HandleAddend_
00402da0       IsDataReloc_
00402eb0       RelocSize_
00402f00       HandleRefInData_
004033e0       DumpASMDataFromSection_
00403570       DumpASMSection_
00403900       BssASMSection_
00403960       SkipRef_
Module: fini.obj(/mnt/sda5/.user/root/src/openwatcom-1.9/bld/ndisasm/stand/c/fini.c)
00403a90+      SectionFini_
00403af0       FreeHashTables_
00403b30+      FreeServicesUsed_
00403b60       CloseFiles_
00403bb0       Fini_
Module: groups.obj(/mnt/sda5/.user/root/src/openwatcom-1.9/bld/ndisasm/stand/c/groups.c)
00403c30       DumpASMGroupName_
00403c70       DumpASMGroupMember_
00403ca0       DumpASMGroupFini_
Module: identsec.obj(/mnt/sda5/.user/root/src/openwatcom-1.9/bld/ndisasm/stand/c/identsec.c)
00403cc0       IdentifySec_
Module: init.obj(/mnt/sda5/.user/root/src/openwatcom-1.9/bld/ndisasm/stand/c/init.c)
00449118       _CommentString
0044911c+      _RecognizedName
00403e00       IsIntelx86_
00403e20       GetFormat_
00404470       CloseObjFile_
00404620       GetMachineType_
00404630*      FileU16toHostU16_
00404660*      FileU32toHostU32_
004046b0*      FileU64toHostU64_
00404b20       PrintErrorMsg_
00404b70*      LeaveProgram_
00404b90       Init_
Module: hashtabl.obj(/mnt/sda5/.user/root/src/openwatcom-1.9/bld/ndisasm/stand/c/hashtabl.c)
00404d00       NumberCmp_
00404d50       HashTableInsert_
00404dd0       HashTableQuery_
00404e20       HashTableCreate_
00404e90       HashTableFree_
Module: labproc.obj(/mnt/sda5/.user/root/src/openwatcom-1.9/bld/ndisasm/stand/c/labproc.c)
00405050       NeedsQuoting_
004050b0+      CreateNamedLabel_
004052f0       DealWithSymbolSection_
00405300       CreateUnnamedLabel_
00405360       CreateAbsoluteLabel_
Module: main.obj(/mnt/sda5/.user/root/src/openwatcom-1.9/bld/ndisasm/stand/c/main.c)
0044b838       _Sections
0044b840       _NameRecognitionTable
0044b844       _ORLHnd
0044b848       _HandleToSectionTable
0044b84c       _ObjFileHnd
0044b850       _HandleToRefListTable
0044b854       _HandleToLabelListTable
0044b858       _debugHnd
0044b85c       _SymbolToLabelTable
0044917c       _LabelChar
0044917d       _QuoteChar
00449180       _ObjFileName
00449184       _ListFileName
00449188       _SkipRefTable
00405c70       PrintAssumeHeader_
00405cc0       PrintHeader_
00405ce0       PrintTail_
00405dd0       PrintLinePrefix_
00406130       DumpDataFromSection_
00406860       UseFlatModel_
00406970       main_
0044b860       _Publics
0044b86c       _DHnd
0044b878       _OutputDest
0044b87c       _DFormat
0044b87d       _Options
Module: memfuncs.obj(/mnt/sda5/.user/root/src/openwatcom-1.9/bld/ndisasm/stand/c/memfuncs.c)
00406a20       MemClose_
00406a20       MemPrtList_
00406a20       MemOpen_
00406a30       MemAlloc_
00406a40       MemRealloc_
00406a50       MemFree_
Module: msg.obj(/mnt/sda5/.user/root/src/openwatcom-1.9/bld/ndisasm/stand/c/msg.c)
00406ab0       MsgInit_
00406b70       MsgGet_
00406bb0       MsgFini_
0044919c       _WResRtns
Module: pass1.obj(/mnt/sda5/.user/root/src/openwatcom-1.9/bld/ndisasm/stand/c/pass1.c)
00406bf0       DoPass1Relocs_
00406d00       DoPass1_
Module: pass2.obj(/mnt/sda5/.user/root/src/openwatcom-1.9/bld/ndisasm/stand/c/pass2.c)
00407270       DisCliGetData_
00407710       HandleAReference_
00407c80       DisCliValueString_
00407e30       DoPass2_
Module: pdata.obj(/mnt/sda5/.user/root/src/openwatcom-1.9/bld/ndisasm/stand/c/pdata.c)
004085e0*      StoreReloc_
004085f0       DumpPDataSection_
Module: print.obj(/mnt/sda5/.user/root/src/openwatcom-1.9/bld/ndisasm/stand/c/print.c)
004087a0       ChangePrintDest_
004087b0       Print_
004491c4+      _CurrentDest
Module: publics.obj(/mnt/sda5/.user/root/src/openwatcom-1.9/bld/ndisasm/stand/c/publics.c)
00408840       CreatePublicsArray_
004088d0       PrintPublics_
Module: srcmix.obj(/mnt/sda5/.user/root/src/openwatcom-1.9/bld/ndisasm/stand/c/srcmix.c)
0044b888+      _numlines
0044b88c+      _lineInFile
0044b890+      _currline
0044b894+      _SourceFile
0044b898       _lines
00408a70       GetSourceFile_
00408ff0       MixSource_
00409080       EndSourceMix_
004491c8       _SourceFileName
004491cc       _SourceFileInObject
004491d0       _SourceFileInDwarf
004491d4       _source_mix
Module: refproc.obj(/mnt/sda5/.user/root/src/openwatcom-1.9/bld/ndisasm/stand/c/refproc.c)
004091c0+      CreateNamedLabelRef_
00409270       DealWithRelocSection_
00409280       CreateUnnamedLabelRef_
004092f0       CreateAbsoluteLabelRef_
Module: cmdlhelp.obj(/mnt/sda5/.user/root/src/openwatcom-1.9/bld/watcom/c/cmdlhelp.c)
00409370*      BuildQuotedFName_
00409440       UnquoteFName_
004094d0       FindNextWS_
Module: disentry.obj(/mnt/sda5/.user/root/src/openwatcom-1.9/bld/ndisasm/core/c/disentry.c)
00409530       _AXPMaxInsName
00409531       _PPCMaxInsName
00409532       _X86MaxInsName
00409533       _X64MaxInsName
00409534       _SPARCMaxInsName
00409535       _MIPSMaxInsName
00409536+      _DisStringTable
0040b258       _DisInstructionTable
00412718+      _DisRegisterTable
00412da4       _DisRefTypeTable
00412e4a       _AXPRangeTable
00412e7c       _AXPRangeTablePos
00412e84       _PPCRangeTable
00412f60       _PPCRangeTablePos
00412f68       _X86RangeTable
00413190       _X86RangeTablePos
004131a8       _X64RangeTable
00413258       _X64RangeTablePos
00413260       _SPARCRangeTable
00413278       _SPARCRangeTablePos
00413280       _MIPSRangeTable
004132b0       _MIPSRangeTablePos
004132b8+      _DisSelectorTable
004246f0       SEX_
00424710       DisGetString_
00424760*      DisDummyHandler_
00424770       DisInit_
004247e0       DisFini_
004247f0       DisDecodeInit_
00424860       DisDecode_
004249b0       DisAddReg_
004249f0+      DisOpFormat_
00424bd0       DisFormat_
00424d50       DisInsNameMax_
00424d60       DisInsSizeInc_
Module: disaxp.obj(/mnt/sda5/.user/root/src/openwatcom-1.9/bld/ndisasm/core/c/disaxp.c)
00424db4       _AXPData
00424de0       AXPPal_
00424e30       AXPMemory_
00424ec0       AXPFPMemory_
00424ee0       AXPMemoryLA_
00424f00       AXPMemoryFC_
00424f50       AXPJump_
00424fa0       AXPBranch_
00424fe0       AXPFPBranch_
00425000       AXPOperate_
00425050       AXPOperateV_
00425070       AXPFPOperate_
004250b0       AXPFPConvert_
004251b0       AXPIEEEOperate_
004251d0       AXPIEEECompare_
004251f0       AXPIEEEConvert_
00425220       AXPVAXOperate_
00425250       AXPVAXConvert_
Module: disppc.obj(/mnt/sda5/.user/root/src/openwatcom-1.9/bld/ndisasm/core/c/disppc.c)
00425988       _PPCData
004259b0       PPCMath_
00425a40       PPCMathb_
00425a60       PPCMathd_
00425a70       PPCMathab_
00425aa0       PPCMathda_
00425ac0       PPCMathdb_
00425af0       PPCMath2_
00425b30       PPCMathsa_
00425b40       PPCImmediate_
00425bf0       PPCImmed2_
00425cf0       PPCFloat_
00425d20       PPCFloatdab_
00425d50       PPCFloatdac_
00425d80       PPCFloatCmpab_
00425dc0       PPCFloatdb_
00425de0       PPCFloato_
00425e60       PPCMem1_
00425f10       PPCMemD1_
00425f90       PPCMem2_
004260d0       PPCMemD2_
00426140       PPCMem3_
004261a0       PPCFloatMem1_
004261c0       PPCFloatMem2_
004261e0       PPCBranch_
004262e0       PPCCompare_
004263a0       PPCCondition_
00426430       PPCConditionField_
004264c0       PPCSpecial_
004265d0       PPCShiftImmed_
00426600       PPCShiftImmedD_
00426640       PPCRotate_
004266b0       PPCRotateD_
004266f0       PPCRotateImmD_
00426770       PPCTrap_
00426800       PPCNull_
Module: disx86.obj(/mnt/sda5/.user/root/src/openwatcom-1.9/bld/ndisasm/core/c/disx86.c)
00427374       _X86Data
00427430       X86PrefixFwait_
004274b0       X86PrefixOpnd_
004274d0       X86PrefixAddr_
004274f0       X86PrefixRepe_
00427500       X86PrefixRepne_
00427510       X86PrefixLock_
00427520       X86PrefixCS_
00427530       X86PrefixSS_
00427540       X86PrefixDS_
00427550       X86PrefixES_
00427560       X86PrefixFS_
00427570       X86PrefixGS_
004275a0+      X86GetRegister_D_
00427610+      X86GetRegister_W_
00427670+      X86GetRegister_B_
004276e0+      X86FGetSTReg_
00427750+      X86GetMMReg_
004277c0+      X86GetXMMReg_
00427820+      X86GetCRegister_
00427870+      X86GetDRegister_
004278c0+      X86GetTRegister_
00427910+      X86GetSRegister_
00427950+      X86GetRegister_
004279e0+      X86GetRegisterAddr_
00428450+      X86GetRefType_
004285d0+      X86FGetRefType_
004285f0+      X86FGetRefTypeEnv_
00428810+      X86GetRegModRM_B_
004288c0       X86SReg_8_
00428990       X86NoOp_8_
00428b00       X86String_8_
00428d10       X86ImmAcc_8_
00428db0       X86MemAbsAcc_8_
00428e90       X86Abs_8_
00428eb0       X86Rel_8_
00428ed0       X86Imm_8_
00429050       X86ImmReg_8_
00429090       X86ImmImm_8_
004290e0       X86Reg_8_
00429210       X86AccAcc_8_
00429270       X86JmpCC_8_
00429300       X86Shift_16_
004293b0       X86SReg_16_
00429490       X86NoOp_16_
004294a0       X86ModRM_16_
00429590       X86ModRMImm_16_
00429680*      X86ModRMAcc_16_
004296e0       X86RegModRM_16_
00429740       X86RegModRM_test_
004297a0       X86RegModRM_bound_
00429800       X86RegModRM_16B_
004298f0       X86Reg_16_
00429910       X86JmpCC_16_
00429930       X86SRegModRM_16_
00429a10       X86SetCC_
00429a60       X86MovCC_24_
00429ad0       X86CRegReg_24_
00429b80       X86DRegReg_24_
00429c30       X86TRegReg_24_
00429ce0       X86ModRMImm_24_
00429d50       X86NoOp_24_
00429d60       X86ModRM_24_
00429de0       X86RegModRM_24_
00429e40       X86RegModRM_24B_
0042a060       X86RegModRM_24C_
0042a130       X86FTypeCond_
0042a160       X86FType3_
0042a220       X86FType3B_
0042a250       X86FType3C_
0042a280       X86FType2_
0042a2f0       X86FTypeFSTSWAX_
0042a330       X86FType4_
0042a390       X86FType1_
0042a4b0       X86FTypeEnv_
0042a670       X86MMRegModRM_
0042a6c0       X86MMRegModRMImm_
0042a720       X86MMRegModRM_Rev_
0042a770       X86MMRegImm_
0042a7a0       X86XMMRegModRM_
0042a7f0       X86XMMRegModRMImm_
0042a850       X86XMMRegModRM_Rev_
0042a8a0       X86XMMRegImm_
0042a8e0       X86XMMRegModRM64_
0042a930       X86XMMRegModRM64Imm_
0042a990       X86XMMRegModRM64_Rev_
0042a9e0       X86XMMRegModRM32_
0042aa30       X86XMMRegModRM32Imm_
0042aa90       X86XMMRegModRM32_Rev_
0042aae0       X86RegModRM32_Rev_
0042ab40       X86MMRegModRMMixed_
0042ac30       X86MMRegModRMMixedImm_
0042acc0       X86MMRegModRMMixed_Rev_
0042ad20       X86XMMRegModRMMixed_
0042ade0       X86XMMRegModRMMixedImm_
0042ae70       X86XMMRegModRMMixed_Rev_
0042aed0       X86RegModRMMixed_
0042afd0       X86RegModRMMixedImm_
0042b060       X86_3DNow_
0042b8f0*      DisAddUnixReg_
Module: dissparc.obj(/mnt/sda5/.user/root/src/openwatcom-1.9/bld/ndisasm/core/c/dissparc.c)
0042bfdc       _SPARCData
0042c010       SPARCSetHi_
0042c050       SPARCBranch_
0042c090       SPARCCall_
0042c0c0       SPARCOp3_
0042c1c0       SPARCMem_
0042c250       SPARCFPop2_
0042c2c0       SPARCFPop3_
0042c320       SPARCMemF_
0042c400       SPARCMemC_
Module: dismips.obj(/mnt/sda5/.user/root/src/openwatcom-1.9/bld/ndisasm/core/c/dismips.c)
0042c7f0       _MIPSData
0042c870       MIPSNull_
0042c880       MIPSJType_
0042c8b0       MIPSCode_
0042c8d0       MIPSImmed1_
0042c900       MIPSImmed2_
0042c950       MIPSImmed2U_
0042c9a0       MIPSShift_
0042c9f0       MIPSTrap1_
0042ca30       MIPSMulDiv_
0042ca30       MIPSTrap2_
0042ca70       MIPSRegD_
0042ca90       MIPSJump1_
0042ca90       MIPSRegS_
0042cab0       MIPSReg2_
0042caf0       MIPSReg3_
0042cb40       MIPSCache_
0042cbb0       MIPSMemory_
0042cc30       MIPSJump2_
0042cc70       MIPSBranch1_
0042ccf0       MIPSBranch2_
0042cd60       MIPSBranch3_
0042cdc0       MIPSFGMove_
0042ce00       MIPSFPUOp2_
0042ce50       MIPSFPUOp3_
0042ceb0       MIPSFPUCmp_
0042cf10       MIPSFPUMemory_
0042cf80       MIPSBranchCop_
Module: disx64.obj(/mnt/sda5/.user/root/src/openwatcom-1.9/bld/ndisasm/core/c/disx64.c)
0042d2b4       _X64Data
0042d370       X64PrefixOpnd_
0042d390       X64PrefixRex_
0042d3f0       X64PrefixCS_
0042d400       X64PrefixFS_
0042d410       X64PrefixGS_
0042d420       X64PrefixAddr_
0042d440       X64PrefixRepe_
0042d450       X64PrefixRepne_
0042d460       X64PrefixLock_
0042d470       X64PrefixSS_
0042d480       X64PrefixDS_
0042d490       X64PrefixES_
0042d4e0+      X64GetRegister_Q_
0042d5a0+      X64GetRegister_D_
0042d660*      X64GetRegister_W_
0042d730+      X64GetRegister_B_
0042d7e0+      X64GetCRegister_
0042d840+      X64GetDRegister_
0042d890+      X64GetSRegister_
0042d8e0+      X64GetRegister_
0042df20+      X64GetRefType_
0042e0d0+      X64GetRegModRM_B_
0042e1a0       X64SReg_8_
0042e220       X64NoOp_8_
0042e380       X64String_8_
0042e5a0       X64ImmAcc_8_
0042e640       X64MemAbsAcc_8_
0042e780*      X64Abs_8_
0042e7a0       X64Rel_8_
0042e7c0       X64Imm_8_
0042e8a0       X64ImmReg_8_
0042e930       X64ImmImm_8_
0042e980       X64Reg_8_
0042eaa0       X64AccAcc_8_
0042eb10       X64JmpCC_8_
0042ebc0       X64Shift_16_
0042ec80       X64SReg_16_
0042ed60       X64NoOp_16_
0042ed70       X64ModRM_16_
0042eeb0       X64RegModRM_16_
0042ef10       X64RegModRM_test_
0042ef70       X64RegModRM_16B_
0042f030       X64RegModRM_16C_
0042f0c0       X64ModRMImm_16_
0042f1c0       X64Reg_16_
0042f200       X64JmpCC_16_
0042f220       X64SRegModRM_16_
0042f310       X64NoOp_24_
0042f320       X64SetCC_
0042f370       X64MovCC_24_
0042f3b0       X64CRegReg_24_
0042f460       X64DRegReg_24_
0042f510       X64ModRM_24_
0042f5b0       X64RegModRM_24_
0042f610       X64RegModRM_24B_
0042f7c0       X64RegModRM_24C_
0042f860       X64ModRMImm_24_
0042fe70*      DisAddUnixRegX64_
Module: demangle.obj(/mnt/sda5/.user/root/src/openwatcom-1.9/bld/lib_misc/c/demangle.c)
00432830*      __demangle_t_
00432890       __demangle_l_
00432900*      __demangle_r_
00432990*      __scope_name_
00432a30+      __is_mangled_
00432b10*      __is_mangled_internal_
00432b50*      __unmangled_name_
00432bc0*      __demangled_basename_
Module: /mnt/sda5/.user/root/src/openwatcom-1.9/rel2/lib386/nt/clib3r.lib(exit.c)
00432c2f+      __null_int23_exit_
00432c30       exit_
00432c80*      _exit_
004491d8+      ___int23_exit
004491dc+      ___FPE_handler_exit
Module: /mnt/sda5/.user/root/src/openwatcom-1.9/rel2/lib386/nt/clib3r.lib(istable.c)
00432ca0       __IsTable
Module: /mnt/sda5/.user/root/src/openwatcom-1.9/rel2/lib386/nt/clib3r.lib(split2.c)
00432e00       _splitpath2_
Module: /mnt/sda5/.user/root/src/openwatcom-1.9/rel2/lib386/nt/clib3r.lib(makepath.c)
00432f70       _makepath_
Module: /mnt/sda5/.user/root/src/openwatcom-1.9/rel2/lib386/nt/clib3r.lib(tolower.c)
00433120       tolower_
Module: /mnt/sda5/.user/root/src/openwatcom-1.9/rel2/lib386/nt/clib3r.lib(toupper.c)
00433130       toupper_
Module: /mnt/sda5/.user/root/src/openwatcom-1.9/rel2/lib386/nt/clib3r.lib(sprintf.c)
00433140       sprintf_
Module: /mnt/sda5/.user/root/src/openwatcom-1.9/rel2/lib386/nt/clib3r.lib(vsprintf.c)
00433190       vsprintf_
Module: /mnt/sda5/.user/root/src/openwatcom-1.9/bld/orl/osi386/orl.lib(/mnt/sda5/.user/root/src/openwatcom-1.9/bld/orl/c/orlentry.c)
004331b0       ORLInit_
00433210       ORLGetError_
00433220       ORLFini_
00433270       ORLFileIdentify_
00433560       ORLFileInit_
00433630*      ORLFileFini_
00433680*      ORLExportTableRVA_
004336a0       ORLFileScan_
004336e0       ORLFileGetMachineType_
00433720       ORLFileGetFlags_
00433760*      ORLFileGetSize_
004337a0*      ORLFileGetType_
004337e0       ORLFileGetFormat_
004337f0*      ORLFileGetSymbolTable_
00433830       ORLSecGetName_
00433860*      ORLSecGetBase_
00433890       ORLSecGetSize_
004338c0       ORLSecGetType_
004338f0       ORLSecGetAlignment_
00433920       ORLSecGetFlags_
00433950*      ORLSecGetStringTable_
00433980*      ORLSecGetSymbolTable_
004339b0       ORLSecGetRelocTable_
004339e0       ORLSecGetLines_
00433a10       ORLSecGetNumLines_
00433a40*      ORLSecGetOffset_
00433a50       ORLSecGetClassName_
00433a60       ORLSecGetCombine_
00433a70       ORLSecGetAbsFrame_
00433a80       ORLSecGetAssociated_
00433a90       ORLSecGetGroup_
00433aa0       ORLSecGetContents_
00433ad0*      ORLSecQueryReloc_
00433b00*      ORLSecScanReloc_
00433b30*      ORLCvtSecHdlToIdx_
00433b60*      ORLCvtIdxToSecHdl_
00433ba0       ORLRelocSecScan_
00433bd0       ORLSymbolSecScan_
00433c00       ORLNoteSecScan_
00433c30       ORLSymbolGetName_
00433c60       ORLSymbolGetValue_
00433c90       ORLSymbolGetBinding_
00433cc0       ORLSymbolGetType_
00433cf0*      ORLSymbolGetRawInfo_
00433d20       ORLSymbolGetSecHandle_
00433d50*      ORLSymbolGetAssociated_
00433d80       ORLGroupsScan_
00433da0       ORLGroupName_
00433db0       ORLGroupSize_
00433dc0       ORLGroupMember_
Module: /mnt/sda5/.user/root/src/openwatcom-1.9/rel2/lib386/nt/clib3r.lib(stricmp.c)
00433dd0       stricmp_
Module: /mnt/sda5/.user/root/src/openwatcom-1.9/rel2/lib386/nt/clib3r.lib(memset.c)
00433e10       memset_
Module: /mnt/sda5/.user/root/src/openwatcom-1.9/rel2/lib386/nt/clib3r.lib(qsort.c)
00433e80       qsort_
Module: /mnt/sda5/.user/root/src/openwatcom-1.9/rel2/lib386/nt/clib3r.lib(_strcmp)
00434530       strcmp_
Module: /mnt/sda5/.user/root/src/openwatcom-1.9/rel2/lib386/nt/clib3r.lib(strncpy.c)
00434670       strncpy_
Module: /mnt/sda5/.user/root/src/openwatcom-1.9/rel2/lib386/nt/clib3r.lib(close.c)
004346b0       close_
Module: /mnt/sda5/.user/root/src/openwatcom-1.9/rel2/lib386/nt/clib3r.lib(openwnt.c)
004348d0       open_
004348f0       sopen_
Module: /mnt/sda5/.user/root/src/openwatcom-1.9/rel2/lib386/nt/clib3r.lib(filelen.c)
00434920       filelength_
Module: /mnt/sda5/.user/root/src/openwatcom-1.9/rel2/lib386/nt/clib3r.lib(read.c)
004349a0       read_
Module: /mnt/sda5/.user/root/src/openwatcom-1.9/rel2/lib386/nt/clib3r.lib(perror.c)
00434b40       perror_
Module: /mnt/sda5/.user/root/src/openwatcom-1.9/rel2/lib386/nt/clib3r.lib(i8s)
00434b8c       __U8RS
00434ba6*      __I8RS
00434bc1*      __I8LS
00434bc1       __U8LS
Module: /mnt/sda5/.user/root/src/openwatcom-1.9/rel2/lib386/nt/clib3r.lib(gtcmd.c)
00434c20+      _bgetcmd_
00434c90       getcmd_
Module: /mnt/sda5/.user/root/src/openwatcom-1.9/rel2/lib386/nt/clib3r.lib(cstrtwnt)
00434ca4       _cstart_
00434ca4*      mainCRTStartup
Module: /mnt/sda5/.user/root/src/openwatcom-1.9/rel2/lib386/nt/clib3r.lib(argcv.c)
0044b8f8       __argc
0044b8fc       __argv
0044b900       ___argv
0044b904       ___argc
Module: /mnt/sda5/.user/root/src/openwatcom-1.9/rel2/lib386/nt/clib3r.lib(nmalloc.c)
00434d00       _nmalloc_
00434d00       malloc_
004491e0       ___nheapbeg
004491e4       ___MiniHeapRover
004491e8       ___LargestSizeB4MiniHeapRover
Module: /mnt/sda5/.user/root/src/openwatcom-1.9/rel2/lib386/nt/clib3r.lib(nrealloc.c)
00434e00*      _nrealloc_
00434e00       realloc_
Module: /mnt/sda5/.user/root/src/openwatcom-1.9/rel2/lib386/nt/clib3r.lib(nfree.c)
00434e80       _nfree_
00434e80       free_
0044b908       ___MiniHeapFreeRover
Module: /mnt/sda5/.user/root/src/openwatcom-1.9/rel2/lib386/nt/clib3r.lib(write.c)
004351e0       write_
Module: /mnt/sda5/.user/root/src/openwatcom-1.9/rel2/lib386/nt/clib3r.lib(tell.c)
00435440       tell_
Module: /mnt/sda5/.user/root/src/openwatcom-1.9/rel2/lib386/nt/clib3r.lib(lseek.c)
00435460       lseek_
Module: /mnt/sda5/.user/root/src/openwatcom-1.9/bld/sdk/rc/wres/flat386/mf_r/wres.lib(loadfind.c)
004354c8       FindResources_
004491ec       _FileShift
Module: /mnt/sda5/.user/root/src/openwatcom-1.9/rel2/lib386/nt/clib3r.lib(cmdname.c)
004355d0       _cmdname_
Module: /mnt/sda5/.user/root/src/openwatcom-1.9/rel2/lib386/nt/clib3r.lib(wrlang.c)
00435620       _WResLanguage_
Module: /mnt/sda5/.user/root/src/openwatcom-1.9/bld/sdk/rc/wres/flat386/mf_r/wres.lib(loadstr.c)
004357d8+      WResLoadString2_
00435888       WResLoadString_
004358a0       OpenResFile_
004358b0+      InitResources2_
004358d8       InitResources_
004358e8*      CloseResFile2_
004358f4       CloseResFile_
0043590c*      LoadstrInitStatics_
0044b90c+      _MainDir
Module: /mnt/sda5/.user/root/src/openwatcom-1.9/rel2/lib386/nt/clib3r.lib(fopen.c)
00435920+      __open_flags_
00435b30+      _fsopen_
00435b80       fopen_
00435c10*      freopen_
Module: /mnt/sda5/.user/root/src/openwatcom-1.9/rel2/lib386/nt/clib3r.lib(ftell.c)
00435c80       ftell_
Module: /mnt/sda5/.user/root/src/openwatcom-1.9/rel2/lib386/nt/clib3r.lib(fgetc.c)
00435cf0+      __fill_buffer_
00435df0       fgetc_
Module: /mnt/sda5/.user/root/src/openwatcom-1.9/rel2/lib386/nt/clib3r.lib(fseek.c)
00435f00       fseek_
Module: /mnt/sda5/.user/root/src/openwatcom-1.9/rel2/lib386/nt/clib3r.lib(fgets.c)
00436010       fgets_
Module: /mnt/sda5/.user/root/src/openwatcom-1.9/rel2/lib386/nt/clib3r.lib(fclose.c)
00436080       __doclose_
00436120       __shutdown_stream_
00436140       fclose_
0044b910+      ___RmTmpFileFn
Module: /mnt/sda5/.user/root/src/openwatcom-1.9/rel2/lib386/nt/clib3r.lib(strlcpy.c)
00436190       strlcpy_
Module: /mnt/sda5/.user/root/src/openwatcom-1.9/rel2/lib386/nt/clib3r.lib(strlcat.c)
004361e0       strlcat_
Module: /mnt/sda5/.user/root/src/openwatcom-1.9/rel2/lib386/nt/clib3r.lib(strupr.c)
00436230       strupr_
Module: /mnt/sda5/.user/root/src/openwatcom-1.9/rel2/lib386/nt/clib3r.lib(memmove.c)
00436250       memmove_
Module: /mnt/sda5/.user/root/src/openwatcom-1.9/rel2/lib386/nt/clib3r.lib(itoa.c)
004362b0+      utoa_
00436300       itoa_
Module: /mnt/sda5/.user/root/src/openwatcom-1.9/rel2/lib386/nt/clib3r.lib(stackwnt.c)
00436330       stackavail_
Module: /mnt/sda5/.user/root/src/openwatcom-1.9/rel2/lib386/nt/clib3r.lib(stk)
00436341*      __CHK
00436351*      __STK
00436370       __STKOVERFLOW_
00436380       __GRO
004363a0*      __alloca_probe
Module: /mnt/sda5/.user/root/src/openwatcom-1.9/rel2/lib386/nt/clib3r.lib(memicmp.c)
004363c0       memicmp_
Module: /mnt/sda5/.user/root/src/openwatcom-1.9/rel2/lib386/nt/clib3r.lib(mainwnt.c)
00449200*      ___TlsIndex
00449204+      ___FirstThreadData
00449208       ___GetThreadPtr
0044920c       __AccessFileH
00449210       __ReleaseFileH
00449214       __AccessIOB
00449218       __ReleaseIOB
0044921c       __AccessNHeap
00449220*      __AccessFHeap
00449224       __ReleaseNHeap
00436410*      __threadid_
00436430+      __sig_null_rtn_
00436440+      __NTInit_
00436620+      __NTFini_
00436680       __NTMainInit_
004366e0       __exit_
00449228*      __ReleaseFHeap
0044922c*      __AccessTDList
00449230*      __ReleaseTDList
00449234       __AccessFList
00449238       __ReleaseFList
0044923c+      __ThreadExitRtn
00449240       ___sig_init_rtn
00449244       ___sig_fini_rtn
00449248       ___process_fini
0044b91c       ___Is_DLL
Module: /mnt/sda5/.user/root/src/openwatcom-1.9/rel2/lib386/nt/clib3r.lib(initrtns.c)
00436740       __InitRtns
00436790       __FiniRtns
Module: /mnt/sda5/.user/root/src/openwatcom-1.9/rel2/lib386/nt/clib3r.lib(mbsnccnt.c)
004367f0       _mbsnccnt_
Module: /mnt/sda5/.user/root/src/openwatcom-1.9/rel2/lib386/nt/clib3r.lib(mbsncpy.c)
00436820       _mbsncpy_
Module: /mnt/sda5/.user/root/src/openwatcom-1.9/rel2/lib386/nt/clib3r.lib(mbsnbcnt.c)
00436840       _mbsnbcnt_
Module: /mnt/sda5/.user/root/src/openwatcom-1.9/rel2/lib386/nt/clib3r.lib(mbsnextc.c)
004368b0       _mbsnextc_
Module: /mnt/sda5/.user/root/src/openwatcom-1.9/rel2/lib386/nt/clib3r.lib(mbsinc.c)
004368f0       _mbsinc_
Module: /mnt/sda5/.user/root/src/openwatcom-1.9/rel2/lib386/nt/clib3r.lib(mbconv.c)
00436920       _mbvtop_
Module: /mnt/sda5/.user/root/src/openwatcom-1.9/rel2/lib386/nt/clib3r.lib(mbclen.c)
00436940       _mbclen_
Module: /mnt/sda5/.user/root/src/openwatcom-1.9/rel2/lib386/nt/clib3r.lib(mbsdec.c)
00436970       _mbsdec_
Module: /mnt/sda5/.user/root/src/openwatcom-1.9/rel2/lib386/nt/clib3r.lib(prtf.c)
004369f0       __prtf_
Module: /mnt/sda5/.user/root/src/openwatcom-1.9/bld/orl/osi386/orl.lib(/mnt/sda5/.user/root/src/openwatcom-1.9/bld/orl/elf/c/elfentr.c)
004376c0       ElfInit_
004376e0       ElfFini_
00437710       ElfFileInit_
00437760       ElfFileFini_
00437770       ElfFileScan_
004377d0       ElfFileGetMachineType_
004377e0       ElfFileGetFlags_
004377f0       ElfFileGetType_
00437800       ElfFileGetSize_
00437810       ElfFileGetSymbolTable_
00437820       ElfSymbolGetName_
00437820       ElfSecGetName_
00437830       ElfSecGetBase_
00437840       ElfSymbolGetValue_
00437840       ElfSecGetSize_
00437850       ElfSecGetType_
00437860       ElfSecGetFlags_
00437870       ElfSecGetAlignment_
00437880       ElfSecGetStringTable_
004378a0       ElfSecGetSymbolTable_
004378d0       ElfSecGetRelocTable_
00437900       ElfSecGetContents_
00437920       ElfSecQueryReloc_
004379a0       ElfSecScanReloc_
00437a00       ElfCvtSecHdlToIdx_
00437a40       ElfCvtIdxToSecHdl_
00437a70       ElfRelocSecScan_
00437ad0       ElfSymbolSecScan_
00437b30       ElfNoteSecScan_
00437b70       ElfSymbolGetBinding_
00437b80       ElfSymbolGetType_
00437b90       ElfSymbolGetRawInfo_
00437ba0       ElfSymbolGetSecHandle_
00437bc0       ElfSymbolGetAssociated_
Module: /mnt/sda5/.user/root/src/openwatcom-1.9/bld/orl/osi386/orl.lib(/mnt/sda5/.user/root/src/openwatcom-1.9/bld/orl/coff/c/coffentr.c)
00437be0       CoffInit_
00437c00       CoffFini_
00437c30       CoffFileInit_
00437ca0       CoffFileFini_
00437cb0       CoffFileScan_
00437d10       CoffExportTableRVA_
00437d20       CoffFileGetMachineType_
00437d30       CoffFileGetFlags_
00437d40       CoffFileGetType_
00437d50       CoffSecGetBase_
00437d50       CoffFileGetSize_
00437d60       CoffFileGetSymbolTable_
00437d70       CoffSecGetStringTable_
00437d80       CoffSecGetSymbolTable_
00437d90       CoffSecGetName_
00437da0       CoffSecGetSize_
00437db0       CoffSecGetType_
00437dc0       CoffSecGetFlags_
00437dd0       CoffSecGetAlignment_
00437de0       CoffSecGetRelocTable_
00437df0       CoffSecGetNumLines_
00437e10       CoffSecGetLines_
00437e30       CoffSecGetOffset_
00437e50       CoffSecGetContents_
00437e70       CoffSecQueryReloc_
00437ed0       CoffCvtSecHdlToIdx_
00437f00       CoffCvtIdxToSecHdl_
00437f10       CoffSecScanReloc_
00437f70       CoffRelocSecScan_
00437fc0       CoffSymbolSecScan_
00438030       CoffNoteSecScan_
00438070       CoffSymbolGetName_
00438090       CoffSymbolGetValue_
004380a0       CoffSymbolGetBinding_
004380b0       CoffSymbolGetType_
004380c0       CoffSymbolGetSecHandle_
004380f0       CoffSymbolGetAssociated_
Module: /mnt/sda5/.user/root/src/openwatcom-1.9/bld/orl/osi386/orl.lib(/mnt/sda5/.user/root/src/openwatcom-1.9/bld/orl/omf/c/omfentr.c)
00438110       OmfInit_
00438130       OmfFini_
00438160       OmfFileInit_
004381c0       OmfFileFini_
004381d0       OmfFileScan_
00438230       OmfFileGetMachineType_
00438240       OmfFileGetFlags_
00438250       OmfFileGetType_
00438260       OmfFileGetSize_
00438270       OmfFileGetSymbolTable_
00438280       OmfSecGetName_
004382a0       OmfSecGetBase_
004382b0       OmfGroupSize_
004382b0       OmfSecGetSize_
004382c0       OmfSecGetType_
004382d0       OmfSecGetFlags_
004382e0       OmfSecGetAlignment_
00438300       OmfSecGetClassName_
00438320       OmfSecGetCombine_
00438340       OmfSecGetAbsFrame_
00438360       OmfSecGetAssociated_
00438380       OmfSecGetGroup_
004383b0       OmfSecGetStringTable_
004383d0       OmfSecGetSymbolTable_
004383e0       OmfSecGetRelocTable_
004383f0       OmfSymbolGetSecHandle_
00438400       OmfSecGetContents_
004384c0       OmfSecQueryReloc_
004384e0       OmfSecScanReloc_
00438500       OmfSymbolGetValue_
00438500       OmfCvtSecHdlToIdx_
00438510       OmfCvtIdxToSecHdl_
00438530       OmfRelocSecScan_
00438550       OmfSymbolSecScan_
00438590       OmfSecGetNumLines_
004385a0       OmfSecGetLines_
004385b0       OmfSymbolGetName_
004385c0       OmfSymbolGetBinding_
004385d0       OmfSymbolGetType_
004385e0       OmfSymbolGetRawInfo_
004385f0       OmfNoteSecScan_
00438600       OmfGroupsScan_
00438640       OmfGroupName_
00438650       OmfGroupMember_
Module: /mnt/sda5/.user/root/src/openwatcom-1.9/bld/orl/osi386/orl.lib(/mnt/sda5/.user/root/src/openwatcom-1.9/bld/orl/c/orlflhnd.c)
00438690       ORLAddFileLinks_
004386a0       ORLRemoveFileLinks_
Module: /mnt/sda5/.user/root/src/openwatcom-1.9/rel2/lib386/nt/clib3r.lib(__stos)
00438700       __STOSB
00438737*      __STOSD
Module: /mnt/sda5/.user/root/src/openwatcom-1.9/rel2/lib386/nt/clib3r.lib(iomode.c)
004387b0       __GetIOMode_
004387d0       __SetIOMode_nogrow_
0044924c       ___NFiles
00449250       ___init_mode
004492a0       ___io_mode
Module: /mnt/sda5/.user/root/src/openwatcom-1.9/rel2/lib386/nt/clib3r.lib(_clsewnt.c)
004387f0       __close_
Module: /mnt/sda5/.user/root/src/openwatcom-1.9/rel2/lib386/nt/clib3r.lib(seterrno.c)
00438846       __set_errno_
00438854*      __set_EDOM_
00438862*      __set_ERANGE_
00438870*      __set_EINVAL_
00438883       __set_doserrno_
Module: /mnt/sda5/.user/root/src/openwatcom-1.9/rel2/lib386/nt/clib3r.lib(hdlman.c)
004492a4+      ___NHandles
004492a8+      ___OSHandles
004492ac+      ___FakeHandles
004388a0+      __growPOSIXHandles_
00438940       __allocPOSIXHandle_
00438a00       __freePOSIXHandle_
00438a20       __getOSHandle_
00438a30       __setOSHandle_
00438a80+      __NTGetFakeHandle_
00438af0       __initPOSIXHandles_
00438bd0*      __set_handles_
00438be0*      _grow_handles_
Module: /mnt/sda5/.user/root/src/openwatcom-1.9/rel2/lib386/nt/clib3r.lib(ntfio.c)
00438c20*      __GetNTCreateAttr_
00438c60       __GetNTAccessAttr_
00438c90       __GetNTShareAttr_
Module: /mnt/sda5/.user/root/src/openwatcom-1.9/rel2/lib386/nt/clib3r.lib(umaskval.c)
004492b8       ___umaskval
Module: /mnt/sda5/.user/root/src/openwatcom-1.9/rel2/lib386/nt/clib3r.lib(isattwnt.c)
00438cf0       isatty_
Module: /mnt/sda5/.user/root/src/openwatcom-1.9/rel2/lib386/nt/clib3r.lib(stiomode.c)
00438d10       __grow_iomode_
00438de0+      __shrink_iomode_
00438e20       __SetIOMode_
Module: /mnt/sda5/.user/root/src/openwatcom-1.9/rel2/lib386/nt/clib3r.lib(dosret.c)
00438e90*      _dosretax_
00438ea0*      _dosret0_
00438eb0       __set_errno_dos_
00438ee0*      __set_errno_dos_reterr_
00438ef0       __set_errno_nt_
00438f00*      __set_errno_nt_reterr_
Module: /mnt/sda5/.user/root/src/openwatcom-1.9/rel2/lib386/nt/clib3r.lib(iob.c)
004493c0       ___iob
004495c8       __fmode
0044bf3c       ___OpenStreams
0044bf40       ___ClosedStreams
Module: /mnt/sda5/.user/root/src/openwatcom-1.9/rel2/lib386/nt/clib3r.lib(__lseek.c)
00438f20       __lseek_
Module: /mnt/sda5/.user/root/src/openwatcom-1.9/rel2/lib386/nt/clib3r.lib(iomodtty.c)
00438f60       __ChkTTYIOMode_
00438fa0*      __IOMode_
Module: /mnt/sda5/.user/root/src/openwatcom-1.9/rel2/lib386/nt/clib3r.lib(fputs.c)
00438fc0       fputs_
Module: /mnt/sda5/.user/root/src/openwatcom-1.9/rel2/lib386/nt/clib3r.lib(strerror.c)
00439380       strerror_
004393a0*      _strerror_
00439470*      _doserror_
004495cc+      __sys_errlist
00449670+      __sys_nerr
Module: /mnt/sda5/.user/root/src/openwatcom-1.9/rel2/lib386/nt/clib3r.lib(fputc.c)
004394a0       fputc_
Module: /mnt/sda5/.user/root/src/openwatcom-1.9/rel2/lib386/nt/clib3r.lib(main2wnt.c)
00439580       __NTMain
Module: /mnt/sda5/.user/root/src/openwatcom-1.9/rel2/lib386/nt/clib3r.lib(segdefns)
00401003       ___begtext
00449000*      __nullarea
0044987c       __Start_XI
004498a0       __End_XI
004498a0       __Start_YI
004498be       __End_YI
Module: /mnt/sda5/.user/root/src/openwatcom-1.9/rel2/lib386/nt/clib3r.lib(initargv.c)
004395e0       __Init_Argv_
00439630+      _getargv_
004397d0       __Fini_Argv_
Module: /mnt/sda5/.user/root/src/openwatcom-1.9/rel2/lib386/nt/clib3r.lib(nmemneed.c)
004397e0       __nmemneed_
Module: /mnt/sda5/.user/root/src/openwatcom-1.9/rel2/lib386/nt/clib3r.lib(mem.c)
004397f0       __MemAllocator
004398a0       __MemFree
Module: /mnt/sda5/.user/root/src/openwatcom-1.9/rel2/lib386/nt/clib3r.lib(grownear.c)
00439b40       __ExpandDGROUP_
Module: /mnt/sda5/.user/root/src/openwatcom-1.9/rel2/lib386/nt/clib3r.lib(nmsize.c)
00439b60       _nmsize_
00439b60*      _msize_
Module: /mnt/sda5/.user/root/src/openwatcom-1.9/rel2/lib386/nt/clib3r.lib(nexpand.c)
00439b70       _nexpand_
00439b70*      _expand_
00439bb0+      __HeapManager_expand_
Module: /mnt/sda5/.user/root/src/openwatcom-1.9/rel2/lib386/nt/clib3r.lib(getenv.c)
00439d70       getenv_
Module: /mnt/sda5/.user/root/src/openwatcom-1.9/bld/sdk/rc/wres/flat386/mf_r/wres.lib(wriidfn.c)
00439e00       WResInitIDFromNum_
Module: /mnt/sda5/.user/root/src/openwatcom-1.9/bld/sdk/rc/wres/flat386/mf_r/wres.lib(wrfindrs.c)
00439e10       __FindType_
00439e34       __FindRes_
00439e58       __FindLang_
00439e94       WResFindResource_
Module: /mnt/sda5/.user/root/src/openwatcom-1.9/bld/sdk/rc/wres/flat386/mf_r/wres.lib(wrgetli.c)
00439f20       WResGetLangInfo_
00439f34*      WResGetFileInfo_
Module: /mnt/sda5/.user/root/src/openwatcom-1.9/bld/sdk/rc/wres/flat386/mf_r/wres.lib(ropenfro.c)
00439f50       ResOpenFileRO_
Module: /mnt/sda5/.user/root/src/openwatcom-1.9/bld/sdk/rc/wres/flat386/mf_r/wres.lib(wrinitdi.c)
00439fa0       WResInitDir_
Module: /mnt/sda5/.user/root/src/openwatcom-1.9/bld/sdk/rc/wres/flat386/mf_r/wres.lib(wrreaddi.c)
0043a718       WResReadDir_
0043a724+      WResReadDir2_
Module: /mnt/sda5/.user/root/src/openwatcom-1.9/bld/sdk/rc/wres/flat386/mf_r/wres.lib(wrfreedi.c)
0043a7e0+      __FreeLangList_
0043a80c+      __FreeResList_
0043a844       __FreeTypeList_
0043a87c       WResFreeDir_
Module: /mnt/sda5/.user/root/src/openwatcom-1.9/bld/sdk/rc/wres/flat386/mf_r/wres.lib(rclosef.c)
0043a8a0       ResCloseFile_
Module: /mnt/sda5/.user/root/src/openwatcom-1.9/rel2/lib386/nt/clib3r.lib(comtflag.c)
0043a8c0*      __set_commode_
00449674       __commode
Module: /mnt/sda5/.user/root/src/openwatcom-1.9/rel2/lib386/nt/clib3r.lib(chktty.c)
0043a8d0       __chktty_
Module: /mnt/sda5/.user/root/src/openwatcom-1.9/rel2/lib386/nt/clib3r.lib(freefp.c)
0043a910       __freefp_
0043a960       __purgefp_
Module: /mnt/sda5/.user/root/src/openwatcom-1.9/rel2/lib386/nt/clib3r.lib(allocfp.c)
0043a990       __allocfp_
Module: /mnt/sda5/.user/root/src/openwatcom-1.9/rel2/lib386/nt/clib3r.lib(fflush.c)
0043aa60       fflush_
Module: /mnt/sda5/.user/root/src/openwatcom-1.9/rel2/lib386/nt/clib3r.lib(flushall.c)
0043aa70       __flushall_
0043aab0       flushall_
Module: /mnt/sda5/.user/root/src/openwatcom-1.9/rel2/lib386/nt/clib3r.lib(gtchewnt.c)
0043aac0       getche_
Module: /mnt/sda5/.user/root/src/openwatcom-1.9/rel2/lib386/nt/clib3r.lib(ioalloc.c)
0043aaf0       __ioalloc_
Module: /mnt/sda5/.user/root/src/openwatcom-1.9/rel2/lib386/nt/clib3r.lib(qread.c)
0043ab90       __qread_
Module: /mnt/sda5/.user/root/src/openwatcom-1.9/rel2/lib386/nt/clib3r.lib(flush.c)
0043ac00       __flush_
Module: /mnt/sda5/.user/root/src/openwatcom-1.9/rel2/lib386/nt/clib3r.lib(alphabet.c)
0044901c       ___Alphabet
Module: /mnt/sda5/.user/root/src/openwatcom-1.9/rel2/lib386/nt/clib3r.lib(xmsgwnt.c)
0043ad00+      __exit_with_msg_
0043ad60       __fatal_runtime_error_
Module: /mnt/sda5/.user/root/src/openwatcom-1.9/rel2/lib386/nt/clib3r.lib(crwdata)
004496bc       __osmajor
004496bd       __osminor
004496be       __osbuild
004496c0       __osver
004496c4       __winmajor
004496c8       __winminor
004496cc       __winver
00449688       __LpDllName
0044968c       __LpwCmdLine
00449690       __LpwPgmName
00449694       __LpwDllName
00449680       __LpCmdLine
00449684       __LpPgmName
00449678*      __dynend
0044967c       __curbrk
00449698*      __STACKLOW
0044969c       __STACKTOP
004496a0       __ASTACKSIZ
004496a4       __ASTACKPTR
004496a8       __cbyte
004496ac*      __cbyte2
004496b0*      __child
004496b6       __Envptr
004496ba*      __Envseg
004496b4*      __no87
004496d0       ___FPE_handler
Module: /mnt/sda5/.user/root/src/openwatcom-1.9/rel2/lib386/nt/clib3r.lib(environ.c)
0044c048       ___env_mask
0044c04c       _environ
0044c050       __wenviron
Module: /mnt/sda5/.user/root/src/openwatcom-1.9/rel2/lib386/nt/clib3r.lib(getmodfn.c)
0043ad90       __lib_GetModuleFileNameW_
Module: /mnt/sda5/.user/root/src/openwatcom-1.9/rel2/lib386/nt/clib3r.lib(strdup.c)
0043ae30       __clib_strdup_
Module: /mnt/sda5/.user/root/src/openwatcom-1.9/rel2/lib386/nt/clib3r.lib(ustrdup.c)
0043ae70       __clib_wcsdup_
Module: /mnt/sda5/.user/root/src/openwatcom-1.9/rel2/lib386/nt/clib3r.lib(excptwnt.c)
0043b500+      ___ReportException@4
0043b950       __DefaultExceptionHandler_
0043b990+      ___ExceptionFilter
0043bba0       __NewExceptionFilter_
0043bbd0       __DoneExceptionFilter_
004496d4       ___oscode_check_func
004496d8       ___raise_func
0044c054*      _sw
0044c058+      ___ExceptionHandled
0044c059+      ___ReportInvoked
Module: /mnt/sda5/.user/root/src/openwatcom-1.9/rel2/lib386/nt/clib3r.lib(stklmwnt.c)
0043bc10       __init_stack_limits_
Module: /mnt/sda5/.user/root/src/openwatcom-1.9/rel2/lib386/nt/clib3r.lib(mbterm.c)
0043bc80       _mbterm_
Module: /mnt/sda5/.user/root/src/openwatcom-1.9/rel2/lib386/nt/clib3r.lib(mbsnbcpy.c)
0043bcc0       _mbsnbcpy_
Module: /mnt/sda5/.user/root/src/openwatcom-1.9/rel2/lib386/nt/clib3r.lib(mbisdbcs.c)
0044c05c       ___IsDBCS
Module: /mnt/sda5/.user/root/src/openwatcom-1.9/rel2/lib386/nt/clib3r.lib(mbislead.c)
0043bd20*      _ismbblead_
0044c060       ___MBCSIsTable
Module: /mnt/sda5/.user/root/src/openwatcom-1.9/rel2/lib386/nt/clib3r.lib(wctomb.c)
0043bd40       wctomb_
Module: /mnt/sda5/.user/root/src/openwatcom-1.9/rel2/lib386/nt/clib3r.lib(noefgfmt.c)
004496f0       ___EFG_printf
004496f4*      ___EFG_scanf
Module: /mnt/sda5/.user/root/src/openwatcom-1.9/rel2/lib386/nt/clib3r.lib(lltoa.c)
0043bdd0       ulltoa_
0043be40*      lltoa_
Module: /mnt/sda5/.user/root/src/openwatcom-1.9/rel2/lib386/nt/clib3r.lib(ltoa.c)
0043be70       ultoa_
0043bec0*      ltoa_
Module: /mnt/sda5/.user/root/src/openwatcom-1.9/bld/orl/osi386/orl.lib(/mnt/sda5/.user/root/src/openwatcom-1.9/bld/orl/elf/c/elfflhn.c)
0043bfa0       ElfAddFileLinks_
0043bfb0       ElfRemoveFileLinks_
Module: /mnt/sda5/.user/root/src/openwatcom-1.9/bld/orl/osi386/orl.lib(/mnt/sda5/.user/root/src/openwatcom-1.9/bld/orl/elf/c/elfload.c)
0043d680       ElfLoadFileStructure_
Module: /mnt/sda5/.user/root/src/openwatcom-1.9/bld/orl/osi386/orl.lib(/mnt/sda5/.user/root/src/openwatcom-1.9/bld/orl/elf/c/elflwlv.c)
0043e240       ElfCreateSymbolHandles_
0043e3f0       ElfBuildSecNameHashTable_
0043e650+      ElfConvertRelocType_
0043e730       ElfCreateRelocs_
0043eb90       ElfParseDrectve_
Module: /mnt/sda5/.user/root/src/openwatcom-1.9/bld/orl/osi386/orl.lib(/mnt/sda5/.user/root/src/openwatcom-1.9/bld/orl/c/orlhash.c)
0043ec80*      ORLNumberCmp_
0043ecd0       ORLHashTableInsert_
0043ed90       ORLHashTableQuery_
0043edf0       ORLHashTableCreate_
0043ee60       ORLHashTableFree_
Module: /mnt/sda5/.user/root/src/openwatcom-1.9/bld/orl/osi386/orl.lib(/mnt/sda5/.user/root/src/openwatcom-1.9/bld/orl/coff/c/coffflhn.c)
0043efd0       CoffAddFileLinks_
0043efe0       CoffRemoveFileLinks_
Module: /mnt/sda5/.user/root/src/openwatcom-1.9/bld/orl/osi386/orl.lib(/mnt/sda5/.user/root/src/openwatcom-1.9/bld/orl/coff/c/coffload.c)
0043f820       CoffLoadFileStructure_
Module: /mnt/sda5/.user/root/src/openwatcom-1.9/bld/orl/osi386/orl.lib(/mnt/sda5/.user/root/src/openwatcom-1.9/bld/orl/coff/c/cofflwlv.c)
0043fd70       CoffCreateSymbolHandles_
00440180       CoffBuildSecNameHashTable_
00440240+      CoffConvertRelocType_
00440410       CoffCreateRelocs_
00440510       CoffConvertLines_
00440830       CoffParseDrectve_
Module: /mnt/sda5/.user/root/src/openwatcom-1.9/bld/orl/osi386/orl.lib(/mnt/sda5/.user/root/src/openwatcom-1.9/bld/orl/omf/c/omfflhn.c)
00440be0       OmfAddFileLinks_
00440bf0       OmfRemoveFileLinks_
Module: /mnt/sda5/.user/root/src/openwatcom-1.9/bld/orl/osi386/orl.lib(/mnt/sda5/.user/root/src/openwatcom-1.9/bld/orl/omf/c/omfload.c)
00440c70       OmfGetWordSize_
00440da0+      loadIndex_
00441f60       OmfLoadFileStructure_
00441fe0       OmfParseScanTab_
Module: /mnt/sda5/.user/root/src/openwatcom-1.9/bld/orl/osi386/orl.lib(/mnt/sda5/.user/root/src/openwatcom-1.9/bld/orl/omf/c/omfmunge.c)
00442ba0       OmfModEnd_
00442f80       OmfAddLIData_
004430d0       OmfAddLEData_
00443160       OmfAddLName_
00443210       OmfAddFixupp_
00443500       OmfAddExtDef_
004435f0       OmfAddComDat_
004438b0       OmfAddLineNum_
00443900       OmfAddSegDef_
00443a40       OmfAddPubDef_
00443b00       OmfAddGrpDef_
00443be0       OmfAddComment_
00443cc0       OmfGetLName_
00443d20       OmfGetPtrToLName_
00443d50       OmfFindSegOrComdat_
00443dc0       OmfExportSegmentContents_
00443de0       OmfTheadr_
Module: /mnt/sda5/.user/root/src/openwatcom-1.9/bld/orl/osi386/orl.lib(/mnt/sda5/.user/root/src/openwatcom-1.9/bld/orl/omf/c/omfdrctv.c)
00443e50       OmfParseComments_
Module: /mnt/sda5/.user/root/src/openwatcom-1.9/rel2/lib386/nt/clib3r.lib(initfile.c)
00443f30       __InitFiles_
Module: /mnt/sda5/.user/root/src/openwatcom-1.9/rel2/lib386/nt/clib3r.lib(ioexit.c)
00444030*      fcloseall_
00444040       __full_io_exit_
Module: /mnt/sda5/.user/root/src/openwatcom-1.9/rel2/lib386/nt/clib3r.lib(mthrdini.c)
00444050       __InitThreadData_
00449710       ___ThreadDataSize
Module: /mnt/sda5/.user/root/src/openwatcom-1.9/rel2/lib386/nt/clib3r.lib(cmain386.c)
00444080       __CMain
Module: /mnt/sda5/.user/root/src/openwatcom-1.9/rel2/lib386/nt/clib3r.lib(dosseg)
00001234       __DOSseg__
Module: /mnt/sda5/.user/root/src/openwatcom-1.9/rel2/lib386/nt/clib3r.lib(histsplt.c)
0044c164       ___historical_splitparms
Module: /mnt/sda5/.user/root/src/openwatcom-1.9/rel2/lib386/nt/clib3r.lib(___argc.c)
0044c168       ____Argc
0044c16c       ____Argv
Module: /mnt/sda5/.user/root/src/openwatcom-1.9/rel2/lib386/nt/clib3r.lib(amblksiz.c)
00449714       __amblksiz
Module: /mnt/sda5/.user/root/src/openwatcom-1.9/rel2/lib386/nt/clib3r.lib(heapen.c)
004440c0*      _heapenable_
00449718       ___heap_enabled
Module: /mnt/sda5/.user/root/src/openwatcom-1.9/rel2/lib386/nt/clib3r.lib(nheapmin.c)
004440f0       _nheapshrink_
004440f0*      _nheapmin_
004440f0*      _heapmin_
004440f0*      _heapshrink_
Module: /mnt/sda5/.user/root/src/openwatcom-1.9/rel2/lib386/nt/clib3r.lib(mbcupper.c)
004441e0       _mbctoupper_
Module: /mnt/sda5/.user/root/src/openwatcom-1.9/bld/sdk/rc/wres/flat386/mf_r/wres.lib(wridcmp.c)
00444210       WResIDCmp_
Module: /mnt/sda5/.user/root/src/openwatcom-1.9/rel2/lib386/nt/clib3r.lib(setmd.c)
00444250       setmode_
Module: /mnt/sda5/.user/root/src/openwatcom-1.9/bld/sdk/rc/wres/flat386/mf_r/wres.lib(wrerror.c)
00444340       WresRecordError_
Module: /mnt/sda5/.user/root/src/openwatcom-1.9/bld/sdk/rc/wres/flat386/mf_r/wres.lib(ralliae.c)
00444350       ResAddLLItemAtEnd_
Module: /mnt/sda5/.user/root/src/openwatcom-1.9/bld/sdk/rc/wres/flat386/mf_r/wres.lib(wrrfrr.c)
00444380       WResReadFixedResRecord_
004443c0       WResReadFixedResRecord1_
00444400       WResReadFixedResRecord2_
Module: /mnt/sda5/.user/root/src/openwatcom-1.9/bld/sdk/rc/wres/flat386/mf_r/wres.lib(wridexby.c)
00444480       WResIDExtraBytes_
Module: /mnt/sda5/.user/root/src/openwatcom-1.9/bld/sdk/rc/wres/flat386/mf_r/wres.lib(wrrewrid.c)
00444490       WResReadExtraWResID_
Module: /mnt/sda5/.user/root/src/openwatcom-1.9/bld/sdk/rc/wres/flat386/mf_r/wres.lib(wrrftr.c)
004444f0       WResReadFixedTypeRecord_
00444538       WResReadFixedTypeRecord2_
Module: /mnt/sda5/.user/root/src/openwatcom-1.9/bld/sdk/rc/wres/flat386/mf_r/wres.lib(wrrhr.c)
004445b0       WResReadHeaderRecord_
00444628       WResReadExtHeader_
Module: /mnt/sda5/.user/root/src/openwatcom-1.9/bld/sdk/rc/wres/flat386/mf_r/wres.lib(mrrdrh.c)
00444670       M32ResReadResourceHeader_
004447dc       MResReadResourceHeader_
Module: /mnt/sda5/.user/root/src/openwatcom-1.9/bld/sdk/rc/wres/flat386/mf_r/wres.lib(wrfree.c)
00444880       MResFreeResourceHeader_
Module: /mnt/sda5/.user/root/src/openwatcom-1.9/bld/sdk/rc/wres/flat386/mf_r/wres.lib(wridfnoo.c)
004448c0       WResIDFromNameOrOrd_
Module: /mnt/sda5/.user/root/src/openwatcom-1.9/bld/sdk/rc/wres/flat386/mf_r/wres.lib(wraddres.c)
00444a30*      WResAddResource_
00444a8c       WResAddResource2_
Module: /mnt/sda5/.user/root/src/openwatcom-1.9/bld/sdk/rc/wres/flat386/mf_r/wres.lib(wriswrf.c)
00444bb0       WResFindResType_
00444c48*      WResIsWResFile_
Module: /mnt/sda5/.user/root/src/openwatcom-1.9/rel2/lib386/nt/clib3r.lib(getchwnt.c)
00444d60       getch_
Module: /mnt/sda5/.user/root/src/openwatcom-1.9/rel2/lib386/nt/clib3r.lib(putchwnt.c)
00444dd0       putch_
Module: /mnt/sda5/.user/root/src/openwatcom-1.9/rel2/lib386/nt/clib3r.lib(fsync.c)
00444e20       fsync_
Module: /mnt/sda5/.user/root/src/openwatcom-1.9/rel2/lib386/nt/clib3r.lib(qwrit.c)
00444e70       __qwrite_
Module: /mnt/sda5/.user/root/src/openwatcom-1.9/rel2/lib386/nt/clib3r.lib(enterdb.c)
00444f50       __EnterWVIDEO_
00449720+      ___WD_Present
Module: /mnt/sda5/.user/root/src/openwatcom-1.9/rel2/lib386/nt/clib3r.lib(setenvp.c)
00444f80       __setenvp_
00445040       __freeenvp_
Module: /mnt/sda5/.user/root/src/openwatcom-1.9/rel2/lib386/nt/clib3r.lib(ustrlen.c)
0044508d       wcslen_
Module: /mnt/sda5/.user/root/src/openwatcom-1.9/rel2/lib386/nt/clib3r.lib(memcpy.c)
004450a0       memcpy_
Module: /mnt/sda5/.user/root/src/openwatcom-1.9/rel2/lib386/nt/clib3r.lib(conutwnt.c)
004450d0       __NTRealKey_
00445180       __NTConsoleInput_
00445190       __NTConsoleOutput_
Module: /mnt/sda5/.user/root/src/openwatcom-1.9/rel2/lib386/nt/clib3r.lib(fclex387.c)
004451a0       _ClearFPE_
Module: /mnt/sda5/.user/root/src/openwatcom-1.9/rel2/lib386/nt/clib3r.lib(signlwnt.c)
0044972c+      __SignalTable
004451b0+      __SetSignalFunc_
00445200+      __GetSignalFunc_
00445230+      __GetSignalOSCode_
00445260+      __CheckSignalExCode_
004453a0+      __sigabort_
004453b0       __sigfpe_handler_
00445400*      signal_
00445490+      raise_
00445500+      __SigInit_
00445550+      __SigFini_
00445590+      __sig_init_
Module: /mnt/sda5/.user/root/src/openwatcom-1.9/rel2/lib386/nt/clib3r.lib(mbinit.c)
004455e9       __mbinit_
00449798       ___MBCodePage
Module: /mnt/sda5/.user/root/src/openwatcom-1.9/rel2/lib386/nt/clib3r.lib(i8d)
004456d8*      __I8D
0044572d       __U8D
Module: /mnt/sda5/.user/root/src/openwatcom-1.9/bld/orl/osi386/orl.lib(/mnt/sda5/.user/root/src/openwatcom-1.9/bld/orl/coff/c/coffimpl.c)
00445da0+      getImportName_
00446680       convert_import_library_
004497dc       _ImportLibData
Module: /mnt/sda5/.user/root/src/openwatcom-1.9/rel2/lib386/nt/clib3r.lib(atoi.c)
00446710       atoi_
Module: /mnt/sda5/.user/root/src/openwatcom-1.9/rel2/lib386/nt/clib3r.lib(strstr.c)
00446760       strstr_
Module: /mnt/sda5/.user/root/src/openwatcom-1.9/rel2/lib386/nt/clib3r.lib(cinit.c)
00446810       __CommonInit_
Module: /mnt/sda5/.user/root/src/openwatcom-1.9/bld/sdk/rc/wres/flat386/mf_r/wres.lib(wridnacm.c)
00446860       WResIDNameCmp_
Module: /mnt/sda5/.user/root/src/openwatcom-1.9/bld/sdk/rc/wres/flat386/mf_r/wres.lib(resseek.c)
004468b0*      ResSeek_
004468d0       ResPadDWord_
Module: /mnt/sda5/.user/root/src/openwatcom-1.9/bld/sdk/rc/wres/flat386/mf_r/wres.lib(rduint32.c)
00446930       ResReadUint32_
Module: /mnt/sda5/.user/root/src/openwatcom-1.9/bld/sdk/rc/wres/flat386/mf_r/wres.lib(rrnamoor.c)
00446980       ResReadNameOrOrdinal_
00446a68       ResRead32NameOrOrdinal_
Module: /mnt/sda5/.user/root/src/openwatcom-1.9/bld/sdk/rc/wres/flat386/mf_r/wres.lib(rduint16.c)
00446b50       ResReadUint16_
Module: /mnt/sda5/.user/root/src/openwatcom-1.9/bld/sdk/rc/wres/flat386/mf_r/wres.lib(wridfrst.c)
00446ba0       WResIDFromStr_
Module: /mnt/sda5/.user/root/src/openwatcom-1.9/bld/sdk/rc/wres/flat386/mf_r/wres.lib(wridfrnu.c)
00446c10       WResIDFromNum_
Module: /mnt/sda5/.user/root/src/openwatcom-1.9/bld/sdk/rc/wres/flat386/mf_r/wres.lib(wrfirres.c)
00446c70*      WResFirstResource_
00446c9c       WResSetEmptyWindow_
00446cb8       WResMakeWindow_
Module: /mnt/sda5/.user/root/src/openwatcom-1.9/rel2/lib386/nt/clib3r.lib(dofilstr.c)
00446cf0       __ParsePosixHandleStr_
Module: /mnt/sda5/.user/root/src/openwatcom-1.9/rel2/lib386/nt/clib3r.lib(clearenv.c)
00446e10       clearenv_
Module: /mnt/sda5/.user/root/src/openwatcom-1.9/rel2/lib386/nt/clib3r.lib(abort.c)
00446eb5*      abort_
00446ec7       __terminate_
004497ec       ___abort
Module: /mnt/sda5/.user/root/src/openwatcom-1.9/bld/sdk/rc/wres/flat386/mf_r/wres.lib(rduint8.c)
00446ee0       ResReadUint8_
Module: /mnt/sda5/.user/root/src/openwatcom-1.9/bld/sdk/rc/wres/flat386/mf_r/wres.lib(rrdstr.c)
00446f30       ResReadString_
00446fa0       ResRead32String_
Module: /mnt/sda5/.user/root/src/openwatcom-1.9/rel2/lib386/nt/clib3r.lib(strtol.c)
00447240*      strtoul_
00447250       strtol_
Module: /mnt/sda5/.user/root/src/openwatcom-1.9/rel2/lib386/nt/clib3r.lib(putenv.c)
00447260       putenv_
004474f0       __putenv_
Module: /mnt/sda5/.user/root/src/openwatcom-1.9/bld/sdk/rc/wres/flat386/mf_r/wres.lib(varstr.c)
00447660       VarStringStart_
00447694       VarStringAddChar_
004476ec       VarStringEnd_
Module: /mnt/sda5/.user/root/src/openwatcom-1.9/rel2/lib386/nt/clib3r.lib(mbschr.c)
00447780       _mbschr_
Module: /mnt/sda5/.user/root/src/openwatcom-1.9/rel2/lib386/nt/clib3r.lib(mbslen.c)
004477e0       _mbslen_
Module: /mnt/sda5/.user/root/src/openwatcom-1.9/rel2/lib386/nt/clib3r.lib(mbstowcs.c)
00447810       mbstowcs_
Module: /mnt/sda5/.user/root/src/openwatcom-1.9/rel2/lib386/nt/clib3r.lib(uputenv.c)
00447890*      _wputenv_
00447ab0       __wputenv_
Module: /mnt/sda5/.user/root/src/openwatcom-1.9/rel2/lib386/nt/clib3r.lib(mbccmp.c)
00447bb0       _mbccmp_
Module: /mnt/sda5/.user/root/src/openwatcom-1.9/rel2/lib386/nt/clib3r.lib(mbtowc.c)
00447bf0       mbtowc_
Module: /mnt/sda5/.user/root/src/openwatcom-1.9/rel2/lib386/nt/clib3r.lib(ustrchr.c)
00447c80       wcschr_
Module: /mnt/sda5/.user/root/src/openwatcom-1.9/rel2/lib386/nt/clib3r.lib(setenvar.c)
00447ca0       __lib_SetEnvironmentVariableW_
Module: /mnt/sda5/.user/root/src/openwatcom-1.9/rel2/lib386/nt/clib3r.lib(crtwenv.c)
00447d90       __create_wide_environment_
Module: /mnt/sda5/.user/root/src/openwatcom-1.9/rel2/lib386/nt/clib3r.lib(wcstombs.c)
00447e00       wcstombs_
Module: /mnt/sda5/.user/root/src/openwatcom-1.9/rel2/lib386/nt/clib3r.lib(utoupper.c)
00447e9f       towupper_


                        +----------------------+
                        |   Imported Symbols   |
                        +----------------------+

Symbol                              Module
======                              ======

_CreateFileA@28                     KERNEL32.DLL
_ReadFile@20                        KERNEL32.DLL
_GetLastError@0                     KERNEL32.DLL
_GetCommandLineA@0                  KERNEL32.DLL
_SetFilePointer@16                  KERNEL32.DLL
_WriteFile@20                       KERNEL32.DLL
_GetFileType@4                      KERNEL32.DLL
_GetOEMCP@0                         KERNEL32.DLL
_GetEnvironmentStringsA@0           KERNEL32.DLL
_GetVersion@0                       KERNEL32.DLL
_GetModuleFileNameA@12              KERNEL32.DLL
_GetCommandLineW@0                  KERNEL32.DLL
_FreeEnvironmentStringsA@4          KERNEL32.DLL
_GetModuleHandleA@4                 KERNEL32.DLL
_ExitProcess@4                      KERNEL32.DLL
_CloseHandle@4                      KERNEL32.DLL
_SetStdHandle@8                     KERNEL32.DLL
_CreateEventA@16                    KERNEL32.DLL
_GetStdHandle@4                     KERNEL32.DLL
_FormatMessageA@28                  KERNEL32.DLL
_VirtualAlloc@16                    KERNEL32.DLL
_GetModuleFileNameW@12              KERNEL32.DLL
_MultiByteToWideChar@24             KERNEL32.DLL
_LoadLibraryA@4                     KERNEL32.DLL
_GetProcAddress@8                   KERNEL32.DLL
_SetUnhandledExceptionFilter@4      KERNEL32.DLL
_UnhandledExceptionFilter@4         KERNEL32.DLL
_VirtualQuery@12                    KERNEL32.DLL
_WideCharToMultiByte@32             KERNEL32.DLL
_GetCurrentThreadId@0               KERNEL32.DLL
_VirtualFree@12                     KERNEL32.DLL
_CharUpperA@4                       USER32.DLL
_ReadConsoleInputA@16               KERNEL32.DLL
_GetConsoleMode@8                   KERNEL32.DLL
_SetConsoleMode@8                   KERNEL32.DLL
_WriteConsoleA@20                   KERNEL32.DLL
_FlushFileBuffers@4                 KERNEL32.DLL
_SetConsoleCtrlHandler@8            KERNEL32.DLL
_GetACP@0                           KERNEL32.DLL
_GetCPInfo@8                        KERNEL32.DLL
_SetEnvironmentVariableA@8          KERNEL32.DLL
_SetEnvironmentVariableW@8          KERNEL32.DLL


                        +--------------------+
                        |   Libraries Used   |
                        +--------------------+

/mnt/sda5/.user/root/src/openwatcom-1.9/rel2/lib386/nt/kernel32.lib
/mnt/sda5/.user/root/src/openwatcom-1.9/rel2/lib386/nt/user32.lib
/mnt/sda5/.user/root/src/openwatcom-1.9/bld/orl/osi386/orl.lib
/mnt/sda5/.user/root/src/openwatcom-1.9/bld/sdk/rc/wres/flat386/mf_r/wres.lib
/mnt/sda5/.user/root/src/openwatcom-1.9/rel2/lib386/nt/clib3r.lib


                        +-----------------------+
                        |   Linker Statistics   |
                        +-----------------------+

Stack size:  00010000 (65536.)
Memory size:  0005a5de (370142.)
Entry point address: 00434ca4
Link time: 00:00.00
