Open Watcom Linker Version 1.9
Portions Copyright (c) 1985-2002 Sybase, Inc. All Rights Reserved.
Created on:       12/12/16 02:41:01
Executable Image: madx86.dll
creating a Windows 16-bit executable


                        +------------+
                        |   Groups   |
                        +------------+

Group                           Address              Size
=====                           =======              ====

DGROUP                          0003:0000            00002c40



                        +--------------+
                        |   Segments   |
                        +--------------+

Segment                Class          Group          Address         Size
=======                =====          =====          =======         ====

madimp_TEXT            CODE           AUTO           0001:0000       000003a8
disentry_TEXT          CODE           AUTO           0001:03b0       0000c2d3
disx86_TEXT            CODE           AUTO           0002:0000       00005856
x86addr_TEXT           CODE           AUTO           0002:5860       000003bc
x86ctrl_TEXT           CODE           AUTO           0002:5c20       000000da
x86types_TEXT          CODE           AUTO           0002:5d00       000007ff
x86reg_TEXT            CODE           AUTO           0002:6500       00004e35
x86call_TEXT           CODE           AUTO           0002:b340       00000d8c
x86disas_TEXT          CODE           AUTO           0002:c0d0       000017db
x86trace_TEXT          CODE           AUTO           0002:d8b0       000008bc
_TEXT                  CODE           AUTO           0002:e16c       00000774
FAR_DATA               FAR_DATA       AUTO           0003:0000       00000000
_NULL                  BEGDATA        DGROUP         0003:0000       00000010
AFX_NULL               BEGDATA        DGROUP         0003:0010       00000000
CONST                  DATA           DGROUP         0003:0010       00000000
CONST2                 DATA           DGROUP         0003:0010       00000102
_DATA                  DATA           DGROUP         0003:0120       000009e4
XIB                    DATA           DGROUP         0003:0b04       00000000
XI                     DATA           DGROUP         0003:0b04       00000000
XIE                    DATA           DGROUP         0003:0b04       00000000
YIB                    DATA           DGROUP         0003:0b04       00000000
YI                     DATA           DGROUP         0003:0b04       00000000
YIE                    DATA           DGROUP         0003:0b04       00000000
STRINGS                DATA           DGROUP         0003:0b04       00000000
DATA                   DATA           DGROUP         0003:0b04       00000000
BCSD                   DATA           DGROUP         0003:0b04       00000000
_BSS                   BSS            DGROUP         0003:0b10       00000126
STACK                  STACK          DGROUP         0003:0c40       00002000


                        +----------------+
                        |   Memory Map   |
                        +----------------+

* = unreferenced symbol
+ = symbol only referenced locally

Address        Symbol
=======        ======

Module: madimp.obj(/mnt/sda5/.user/root/src/openwatcom-1.9/bld/mad/c/madimp.c)
0003:0b10+     _MadClient
0001:0000+     MADUNLOAD
0001:0020      WINMAIN
0001:010e+     MADLOAD
0001:013a*     MCAlloc_
0001:014c*     MCRealloc_
0001:015e*     MCFree_
0001:0170*     MCOpen_
0001:0184*     MCSeek_
0001:0198*     MCRead_
0001:01aa*     MCClose_
0001:01bc      MCReadMem_
0001:01e8      MCWriteMem_
0001:0214      MCString_
0001:0226*     MCAddString_
0001:0238      MCRadixPrefix_
0001:024a      MCNotify_
0001:025e      MCMachineData_
0001:0296      MCAddrToString_
0001:02cc      MCMemExpr_
0001:02ea      MCAddrSection_
0001:02fc      MCAddrOvlReturn_
0001:030e      MCSystemConfig_
0001:0320      MCTypeInfoForHost_
0001:0334*     MCTypeConvert_
0001:035a      MCTypeToString_
0001:0384*     MCStatus_
0003:0120+     _MadImpInterface
Module: disentry.obj(/mnt/sda5/.user/root/src/openwatcom-1.9/bld/ndisasm/core/c/disentry.c)
0001:03b0      _X86MaxInsName
0001:03b1+     _DisStringTable
0001:0fc2      _DisInstructionTable
0001:3e68+     _DisRegisterTable
0001:3ef4      _DisRefTypeTable
0001:3f24      _X86RangeTable
0001:414c      _X86RangeTablePos
0001:4158+     _DisSelectorTable
0001:be28      SEX_
0001:be5e      DisGetString_
0001:bebc*     DisDummyHandler_
0001:bec6      DisInit_
0001:bef8      DisFini_
0001:bf04      DisDecodeInit_
0001:bf9e      DisDecode_
0001:c1ac      DisAddReg_
0001:c1ea+     DisOpFormat_
0001:c450      DisFormat_
0001:c65a      DisInsNameMax_
0001:c670*     DisInsSizeInc_
Module: disx86.obj(/mnt/sda5/.user/root/src/openwatcom-1.9/bld/ndisasm/core/c/disx86.c)
0002:0044      _X86Data
0002:00e8      X86PrefixFwait_
0002:016c      X86PrefixOpnd_
0002:0194      X86PrefixAddr_
0002:01bc      X86PrefixRepe_
0002:01d2      X86PrefixRepne_
0002:01e8      X86PrefixLock_
0002:01fe      X86PrefixCS_
0002:0214      X86PrefixSS_
0002:022a      X86PrefixDS_
0002:0240      X86PrefixES_
0002:0256      X86PrefixFS_
0002:026c      X86PrefixGS_
0002:0292+     X86GetRegister_D_
0002:02d0+     X86GetRegister_W_
0002:030a+     X86GetRegister_B_
0002:0344+     X86FGetSTReg_
0002:0382+     X86GetMMReg_
0002:03bc+     X86GetXMMReg_
0002:03f0+     X86GetCRegister_
0002:0422+     X86GetDRegister_
0002:0450+     X86GetTRegister_
0002:047e+     X86GetSRegister_
0002:04a6+     X86GetRegister_
0002:054c+     X86GetRegisterAddr_
0002:12ba+     X86GetRefType_
0002:13ec+     X86FGetRefType_
0002:13fe+     X86FGetRefTypeEnv_
0002:161c+     X86GetRegModRM_B_
0002:16b8      X86SReg_8_
0002:1818      X86NoOp_8_
0002:19ec      X86String_8_
0002:1c3c      X86ImmAcc_8_
0002:1cd0      X86MemAbsAcc_8_
0002:1e06      X86Abs_8_
0002:1e2a      X86Rel_8_
0002:1e4e      X86Imm_8_
0002:1fce      X86ImmReg_8_
0002:203c      X86ImmImm_8_
0002:20b2      X86Reg_8_
0002:225a      X86AccAcc_8_
0002:22cc      X86JmpCC_8_
0002:2396      X86Shift_16_
0002:24bc      X86SReg_16_
0002:2632      X86NoOp_16_
0002:2648      X86ModRM_16_
0002:27de      X86ModRMImm_16_
0002:28f0*     X86ModRMAcc_16_
0002:298a      X86RegModRM_16_
0002:2a24      X86RegModRM_test_
0002:2ad4      X86RegModRM_bound_
0002:2b68      X86RegModRM_16B_
0002:2cba      X86Reg_16_
0002:2cf6      X86JmpCC_16_
0002:2d1a      X86SRegModRM_16_
0002:2e3c      X86SetCC_
0002:2e80      X86MovCC_24_
0002:2f08      X86CRegReg_24_
0002:2fc6      X86DRegReg_24_
0002:3084      X86TRegReg_24_
0002:3142      X86ModRMImm_24_
0002:31d2      X86NoOp_24_
0002:31e8      X86ModRM_24_
0002:327a      X86RegModRM_24_
0002:3306      X86RegModRM_24B_
0002:358a      X86RegModRM_24C_
0002:367a      X86FTypeCond_
0002:36c6      X86FType3_
0002:37b4      X86FType3B_
0002:37f0      X86FType3C_
0002:3840      X86FType2_
0002:38ea      X86FTypeFSTSWAX_
0002:393c      X86FType4_
0002:39c2      X86FType1_
0002:3af2      X86FTypeEnv_
0002:3cd4      X86MMRegModRM_
0002:3d28      X86MMRegModRMImm_
0002:3d9a      X86MMRegModRM_Rev_
0002:3dee      X86MMRegImm_
0002:3e30      X86XMMRegModRM_
0002:3e90      X86XMMRegModRMImm_
0002:3f08      X86XMMRegModRM_Rev_
0002:3f68      X86XMMRegImm_
0002:3fb2      X86XMMRegModRM64_
0002:4012      X86XMMRegModRM64Imm_
0002:408a      X86XMMRegModRM64_Rev_
0002:40ea      X86XMMRegModRM32_
0002:414a      X86XMMRegModRM32Imm_
0002:41c2      X86XMMRegModRM32_Rev_
0002:4222      X86RegModRM32_Rev_
0002:4288      X86MMRegModRMMixed_
0002:4370      X86MMRegModRMMixedImm_
0002:4424      X86MMRegModRMMixed_Rev_
0002:4490      X86XMMRegModRMMixed_
0002:454e      X86XMMRegModRMMixedImm_
0002:4602      X86XMMRegModRMMixed_Rev_
0002:466e      X86RegModRMMixed_
0002:476e      X86RegModRMMixedImm_
0002:4822      X86_3DNow_
0002:50a4+     DisAddUnixReg_
Module: x86addr.obj(/mnt/sda5/.user/root/src/openwatcom-1.9/bld/mad/x86/c/x86addr.c)
0002:5860      MIADDRADD
0002:58ea      MIADDRCOMP
0002:5a16      MIADDRDIFF
0002:5ab6      MIADDRMAP
0002:5b18      MIADDRFLAT
0002:5b62      MIADDRINTERRUPT
0002:5be6      AddrCharacteristics_
Module: x86ctrl.obj(/mnt/sda5/.user/root/src/openwatcom-1.9/bld/mad/x86/c/x86ctrl.c)
0002:5c20      MIINIT
0002:5c42      MIFINI
0002:5c5a      MISTATESIZE
0002:5c6c      MISTATEINIT
0002:5caa      MISTATESET
0002:5cc6      MISTATECOPY
0003:0b20      _MADState
Module: x86types.obj(/mnt/sda5/.user/root/src/openwatcom-1.9/bld/mad/x86/c/x86types.c)
0002:6004      MITYPEWALK
0002:60c4      MITYPENAME
0002:60e0      MITYPEPREFERREDRADIX
0002:610c      MITYPEINFO
0002:618e      MITYPEDEFAULT
0002:631a      MITYPETOSTRING
0002:63ce      MITYPEFORDIPTYPE
0002:64ec      MITYPECONVERT
Module: x86reg.obj(/mnt/sda5/.user/root/src/openwatcom-1.9/bld/mad/x86/c/x86reg.c)
0002:6726      _CPU_eax
0002:6736      _CPU_ebx
0002:6746      _CPU_ecx
0002:6756      _CPU_edx
0002:6766+     _CPU_esi
0002:6776+     _CPU_edi
0002:6786+     _CPU_ebp
0002:6796+     _CPU_esp
0002:67a6+     _CPU_eip
0002:67b6+     _CPU_efl
0002:67c6      _CPU_ax
0002:67d6      _CPU_bx
0002:67e6      _CPU_cx
0002:67f6      _CPU_dx
0002:6806+     _CPU_si
0002:6816+     _CPU_di
0002:6826+     _CPU_bp
0002:6836+     _CPU_sp
0002:6846+     _CPU_ip
0002:6856+     _CPU_fl
0002:6866+     _CPU_al
0002:6876+     _CPU_bl
0002:6886+     _CPU_cl
0002:6896+     _CPU_dl
0002:68a6+     _CPU_ah
0002:68b6+     _CPU_bh
0002:68c6+     _CPU_ch
0002:68d6+     _CPU_dh
0002:68e6+     _CPU_cs
0002:68f6+     _CPU_ds
0002:6906+     _CPU_es
0002:6916+     _CPU_ss
0002:6926+     _CPU_fs
0002:6936+     _CPU_gs
0002:6946+     _CPU_vm
0002:6956+     _CPU_rf
0002:6966+     _CPU_nt
0002:6976+     _CPU_iopl
0002:6986+     _CPU_o
0002:6996+     _CPU_d
0002:69a6+     _CPU_i
0002:69b6+     _CPU_s
0002:69c6+     _CPU_z
0002:69d6+     _CPU_a
0002:69e6+     _CPU_p
0002:69f6+     _CPU_c
0002:6a06+     _FPU_st0
0002:6a16+     _FPU_st1
0002:6a26+     _FPU_st2
0002:6a36+     _FPU_st3
0002:6a46+     _FPU_st4
0002:6a56+     _FPU_st5
0002:6a66+     _FPU_st6
0002:6a76+     _FPU_st7
0002:6a86+     _FPU_sw
0002:6a96+     _FPU_cw
0002:6aa6+     _FPU_tag
0002:6ab6+     _FPU_tag0
0002:6ac6+     _FPU_tag1
0002:6ad6+     _FPU_tag2
0002:6ae6+     _FPU_tag3
0002:6af6+     _FPU_tag4
0002:6b06+     _FPU_tag5
0002:6b16+     _FPU_tag6
0002:6b26+     _FPU_tag7
0002:6b36+     _FPU_iptr
0002:6b46+     _FPU_optr
0002:6b56+     _FPU_ie
0002:6b66+     _FPU_de
0002:6b76+     _FPU_ze
0002:6b86+     _FPU_oe
0002:6b96+     _FPU_ue
0002:6ba6+     _FPU_pe
0002:6bb6+     _FPU_sf
0002:6bc6+     _FPU_c0
0002:6bd6+     _FPU_es
0002:6be6+     _FPU_c1
0002:6bf6+     _FPU_c2
0002:6c06+     _FPU_st
0002:6c16+     _FPU_c3
0002:6c26+     _FPU_b
0002:6c36+     _FPU_im
0002:6c46+     _FPU_dm
0002:6c56+     _FPU_zm
0002:6c66+     _FPU_om
0002:6c76+     _FPU_um
0002:6c86+     _FPU_pm
0002:6c96+     _FPU_iem
0002:6ca6+     _FPU_pc
0002:6cb6+     _FPU_rc
0002:6cc6+     _FPU_ic
0002:6e30+     _MMX0_b0
0002:6e40+     _MMX0_b1
0002:6e50+     _MMX0_b2
0002:6e60+     _MMX0_b3
0002:6e70+     _MMX0_b4
0002:6e80+     _MMX0_b5
0002:6e90+     _MMX0_b6
0002:6ea0+     _MMX0_b7
0002:6eb0+     _MMX0_w0
0002:6ec0+     _MMX0_w1
0002:6ed0+     _MMX0_w2
0002:6ee0+     _MMX0_w3
0002:6ef0+     _MMX0_d0
0002:6f00+     _MMX0_d1
0002:6f10+     _MMX0_q0
0002:6f60+     _MMX1_b0
0002:6f70+     _MMX1_b1
0002:6f80+     _MMX1_b2
0002:6f90+     _MMX1_b3
0002:6fa0+     _MMX1_b4
0002:6fb0+     _MMX1_b5
0002:6fc0+     _MMX1_b6
0002:6fd0+     _MMX1_b7
0002:6fe0+     _MMX1_w0
0002:6ff0+     _MMX1_w1
0002:7000+     _MMX1_w2
0002:7010+     _MMX1_w3
0002:7020+     _MMX1_d0
0002:7030+     _MMX1_d1
0002:7040+     _MMX1_q0
0002:7090+     _MMX2_b0
0002:70a0+     _MMX2_b1
0002:70b0+     _MMX2_b2
0002:70c0+     _MMX2_b3
0002:70d0+     _MMX2_b4
0002:70e0+     _MMX2_b5
0002:70f0+     _MMX2_b6
0002:7100+     _MMX2_b7
0002:7110+     _MMX2_w0
0002:7120+     _MMX2_w1
0002:7130+     _MMX2_w2
0002:7140+     _MMX2_w3
0002:7150+     _MMX2_d0
0002:7160+     _MMX2_d1
0002:7170+     _MMX2_q0
0002:71c0+     _MMX3_b0
0002:71d0+     _MMX3_b1
0002:71e0+     _MMX3_b2
0002:71f0+     _MMX3_b3
0002:7200+     _MMX3_b4
0002:7210+     _MMX3_b5
0002:7220+     _MMX3_b6
0002:7230+     _MMX3_b7
0002:7240+     _MMX3_w0
0002:7250+     _MMX3_w1
0002:7260+     _MMX3_w2
0002:7270+     _MMX3_w3
0002:7280+     _MMX3_d0
0002:7290+     _MMX3_d1
0002:72a0+     _MMX3_q0
0002:72f0+     _MMX4_b0
0002:7300+     _MMX4_b1
0002:7310+     _MMX4_b2
0002:7320+     _MMX4_b3
0002:7330+     _MMX4_b4
0002:7340+     _MMX4_b5
0002:7350+     _MMX4_b6
0002:7360+     _MMX4_b7
0002:7370+     _MMX4_w0
0002:7380+     _MMX4_w1
0002:7390+     _MMX4_w2
0002:73a0+     _MMX4_w3
0002:73b0+     _MMX4_d0
0002:73c0+     _MMX4_d1
0002:73d0+     _MMX4_q0
0002:7420+     _MMX5_b0
0002:7430+     _MMX5_b1
0002:7440+     _MMX5_b2
0002:7450+     _MMX5_b3
0002:7460+     _MMX5_b4
0002:7470+     _MMX5_b5
0002:7480+     _MMX5_b6
0002:7490+     _MMX5_b7
0002:74a0+     _MMX5_w0
0002:74b0+     _MMX5_w1
0002:74c0+     _MMX5_w2
0002:74d0+     _MMX5_w3
0002:74e0+     _MMX5_d0
0002:74f0+     _MMX5_d1
0002:7500+     _MMX5_q0
0002:7550+     _MMX6_b0
0002:7560+     _MMX6_b1
0002:7570+     _MMX6_b2
0002:7580+     _MMX6_b3
0002:7590+     _MMX6_b4
0002:75a0+     _MMX6_b5
0002:75b0+     _MMX6_b6
0002:75c0+     _MMX6_b7
0002:75d0+     _MMX6_w0
0002:75e0+     _MMX6_w1
0002:75f0+     _MMX6_w2
0002:7600+     _MMX6_w3
0002:7610+     _MMX6_d0
0002:7620+     _MMX6_d1
0002:7630+     _MMX6_q0
0002:7680+     _MMX7_b0
0002:7690+     _MMX7_b1
0002:76a0+     _MMX7_b2
0002:76b0+     _MMX7_b3
0002:76c0+     _MMX7_b4
0002:76d0+     _MMX7_b5
0002:76e0+     _MMX7_b6
0002:76f0+     _MMX7_b7
0002:7700+     _MMX7_w0
0002:7710+     _MMX7_w1
0002:7720+     _MMX7_w2
0002:7730+     _MMX7_w3
0002:7740+     _MMX7_d0
0002:7750+     _MMX7_d1
0002:7760+     _MMX7_q0
0002:77b0+     _MMX_mm0
0002:77c0+     _MMX_mm1
0002:77d0+     _MMX_mm2
0002:77e0+     _MMX_mm3
0002:77f0+     _MMX_mm4
0002:7800+     _MMX_mm5
0002:7810+     _MMX_mm6
0002:7820+     _MMX_mm7
0002:7854+     _XMM0_b0
0002:7864+     _XMM0_b1
0002:7874+     _XMM0_b2
0002:7884+     _XMM0_b3
0002:7894+     _XMM0_b4
0002:78a4+     _XMM0_b5
0002:78b4+     _XMM0_b6
0002:78c4+     _XMM0_b7
0002:78d4+     _XMM0_b8
0002:78e4+     _XMM0_b9
0002:78f4+     _XMM0_b10
0002:7904+     _XMM0_b11
0002:7914+     _XMM0_b12
0002:7924+     _XMM0_b13
0002:7934+     _XMM0_b14
0002:7944+     _XMM0_b15
0002:7954+     _XMM0_w0
0002:7964+     _XMM0_w1
0002:7974+     _XMM0_w2
0002:7984+     _XMM0_w3
0002:7994+     _XMM0_w4
0002:79a4+     _XMM0_w5
0002:79b4+     _XMM0_w6
0002:79c4+     _XMM0_w7
0002:79d4+     _XMM0_d0
0002:79e4+     _XMM0_d1
0002:79f4+     _XMM0_d2
0002:7a04+     _XMM0_d3
0002:7a14+     _XMM0_q0
0002:7a24+     _XMM0_q1
0002:7ab0+     _XMM1_b0
0002:7ac0+     _XMM1_b1
0002:7ad0+     _XMM1_b2
0002:7ae0+     _XMM1_b3
0002:7af0+     _XMM1_b4
0002:7b00+     _XMM1_b5
0002:7b10+     _XMM1_b6
0002:7b20+     _XMM1_b7
0002:7b30+     _XMM1_b8
0002:7b40+     _XMM1_b9
0002:7b50+     _XMM1_b10
0002:7b60+     _XMM1_b11
0002:7b70+     _XMM1_b12
0002:7b80+     _XMM1_b13
0002:7b90+     _XMM1_b14
0002:7ba0+     _XMM1_b15
0002:7bb0+     _XMM1_w0
0002:7bc0+     _XMM1_w1
0002:7bd0+     _XMM1_w2
0002:7be0+     _XMM1_w3
0002:7bf0+     _XMM1_w4
0002:7c00+     _XMM1_w5
0002:7c10+     _XMM1_w6
0002:7c20+     _XMM1_w7
0002:7c30+     _XMM1_d0
0002:7c40+     _XMM1_d1
0002:7c50+     _XMM1_d2
0002:7c60+     _XMM1_d3
0002:7c70+     _XMM1_q0
0002:7c80+     _XMM1_q1
0002:7d0c+     _XMM2_b0
0002:7d1c+     _XMM2_b1
0002:7d2c+     _XMM2_b2
0002:7d3c+     _XMM2_b3
0002:7d4c+     _XMM2_b4
0002:7d5c+     _XMM2_b5
0002:7d6c+     _XMM2_b6
0002:7d7c+     _XMM2_b7
0002:7d8c+     _XMM2_b8
0002:7d9c+     _XMM2_b9
0002:7dac+     _XMM2_b10
0002:7dbc+     _XMM2_b11
0002:7dcc+     _XMM2_b12
0002:7ddc+     _XMM2_b13
0002:7dec+     _XMM2_b14
0002:7dfc+     _XMM2_b15
0002:7e0c+     _XMM2_w0
0002:7e1c+     _XMM2_w1
0002:7e2c+     _XMM2_w2
0002:7e3c+     _XMM2_w3
0002:7e4c+     _XMM2_w4
0002:7e5c+     _XMM2_w5
0002:7e6c+     _XMM2_w6
0002:7e7c+     _XMM2_w7
0002:7e8c+     _XMM2_d0
0002:7e9c+     _XMM2_d1
0002:7eac+     _XMM2_d2
0002:7ebc+     _XMM2_d3
0002:7ecc+     _XMM2_q0
0002:7edc+     _XMM2_q1
0002:7f68+     _XMM3_b0
0002:7f78+     _XMM3_b1
0002:7f88+     _XMM3_b2
0002:7f98+     _XMM3_b3
0002:7fa8+     _XMM3_b4
0002:7fb8+     _XMM3_b5
0002:7fc8+     _XMM3_b6
0002:7fd8+     _XMM3_b7
0002:7fe8+     _XMM3_b8
0002:7ff8+     _XMM3_b9
0002:8008+     _XMM3_b10
0002:8018+     _XMM3_b11
0002:8028+     _XMM3_b12
0002:8038+     _XMM3_b13
0002:8048+     _XMM3_b14
0002:8058+     _XMM3_b15
0002:8068+     _XMM3_w0
0002:8078+     _XMM3_w1
0002:8088+     _XMM3_w2
0002:8098+     _XMM3_w3
0002:80a8+     _XMM3_w4
0002:80b8+     _XMM3_w5
0002:80c8+     _XMM3_w6
0002:80d8+     _XMM3_w7
0002:80e8+     _XMM3_d0
0002:80f8+     _XMM3_d1
0002:8108+     _XMM3_d2
0002:8118+     _XMM3_d3
0002:8128+     _XMM3_q0
0002:8138+     _XMM3_q1
0002:81c4+     _XMM4_b0
0002:81d4+     _XMM4_b1
0002:81e4+     _XMM4_b2
0002:81f4+     _XMM4_b3
0002:8204+     _XMM4_b4
0002:8214+     _XMM4_b5
0002:8224+     _XMM4_b6
0002:8234+     _XMM4_b7
0002:8244+     _XMM4_b8
0002:8254+     _XMM4_b9
0002:8264+     _XMM4_b10
0002:8274+     _XMM4_b11
0002:8284+     _XMM4_b12
0002:8294+     _XMM4_b13
0002:82a4+     _XMM4_b14
0002:82b4+     _XMM4_b15
0002:82c4+     _XMM4_w0
0002:82d4+     _XMM4_w1
0002:82e4+     _XMM4_w2
0002:82f4+     _XMM4_w3
0002:8304+     _XMM4_w4
0002:8314+     _XMM4_w5
0002:8324+     _XMM4_w6
0002:8334+     _XMM4_w7
0002:8344+     _XMM4_d0
0002:8354+     _XMM4_d1
0002:8364+     _XMM4_d2
0002:8374+     _XMM4_d3
0002:8384+     _XMM4_q0
0002:8394+     _XMM4_q1
0002:8420+     _XMM5_b0
0002:8430+     _XMM5_b1
0002:8440+     _XMM5_b2
0002:8450+     _XMM5_b3
0002:8460+     _XMM5_b4
0002:8470+     _XMM5_b5
0002:8480+     _XMM5_b6
0002:8490+     _XMM5_b7
0002:84a0+     _XMM5_b8
0002:84b0+     _XMM5_b9
0002:84c0+     _XMM5_b10
0002:84d0+     _XMM5_b11
0002:84e0+     _XMM5_b12
0002:84f0+     _XMM5_b13
0002:8500+     _XMM5_b14
0002:8510+     _XMM5_b15
0002:8520+     _XMM5_w0
0002:8530+     _XMM5_w1
0002:8540+     _XMM5_w2
0002:8550+     _XMM5_w3
0002:8560+     _XMM5_w4
0002:8570+     _XMM5_w5
0002:8580+     _XMM5_w6
0002:8590+     _XMM5_w7
0002:85a0+     _XMM5_d0
0002:85b0+     _XMM5_d1
0002:85c0+     _XMM5_d2
0002:85d0+     _XMM5_d3
0002:85e0+     _XMM5_q0
0002:85f0+     _XMM5_q1
0002:867c+     _XMM6_b0
0002:868c+     _XMM6_b1
0002:869c+     _XMM6_b2
0002:86ac+     _XMM6_b3
0002:86bc+     _XMM6_b4
0002:86cc+     _XMM6_b5
0002:86dc+     _XMM6_b6
0002:86ec+     _XMM6_b7
0002:86fc+     _XMM6_b8
0002:870c+     _XMM6_b9
0002:871c+     _XMM6_b10
0002:872c+     _XMM6_b11
0002:873c+     _XMM6_b12
0002:874c+     _XMM6_b13
0002:875c+     _XMM6_b14
0002:876c+     _XMM6_b15
0002:877c+     _XMM6_w0
0002:878c+     _XMM6_w1
0002:879c+     _XMM6_w2
0002:87ac+     _XMM6_w3
0002:87bc+     _XMM6_w4
0002:87cc+     _XMM6_w5
0002:87dc+     _XMM6_w6
0002:87ec+     _XMM6_w7
0002:87fc+     _XMM6_d0
0002:880c+     _XMM6_d1
0002:881c+     _XMM6_d2
0002:882c+     _XMM6_d3
0002:883c+     _XMM6_q0
0002:884c+     _XMM6_q1
0002:88d8+     _XMM7_b0
0002:88e8+     _XMM7_b1
0002:88f8+     _XMM7_b2
0002:8908+     _XMM7_b3
0002:8918+     _XMM7_b4
0002:8928+     _XMM7_b5
0002:8938+     _XMM7_b6
0002:8948+     _XMM7_b7
0002:8958+     _XMM7_b8
0002:8968+     _XMM7_b9
0002:8978+     _XMM7_b10
0002:8988+     _XMM7_b11
0002:8998+     _XMM7_b12
0002:89a8+     _XMM7_b13
0002:89b8+     _XMM7_b14
0002:89c8+     _XMM7_b15
0002:89d8+     _XMM7_w0
0002:89e8+     _XMM7_w1
0002:89f8+     _XMM7_w2
0002:8a08+     _XMM7_w3
0002:8a18+     _XMM7_w4
0002:8a28+     _XMM7_w5
0002:8a38+     _XMM7_w6
0002:8a48+     _XMM7_w7
0002:8a58+     _XMM7_d0
0002:8a68+     _XMM7_d1
0002:8a78+     _XMM7_d2
0002:8a88+     _XMM7_d3
0002:8a98+     _XMM7_q0
0002:8aa8+     _XMM7_q1
0002:8b34+     _XMM_xmm0
0002:8b44+     _XMM_xmm1
0002:8b54+     _XMM_xmm2
0002:8b64+     _XMM_xmm3
0002:8b74+     _XMM_xmm4
0002:8b84+     _XMM_xmm5
0002:8b94+     _XMM_xmm6
0002:8ba4+     _XMM_xmm7
0002:8bb4+     _XMM_mxcsr
0002:8bc4+     _XMM_mxcsr_ie
0002:8bd4+     _XMM_mxcsr_de
0002:8be4+     _XMM_mxcsr_ze
0002:8bf4+     _XMM_mxcsr_oe
0002:8c04+     _XMM_mxcsr_ue
0002:8c14+     _XMM_mxcsr_pe
0002:8c24+     _XMM_mxcsr_daz
0002:8c34+     _XMM_mxcsr_im
0002:8c44+     _XMM_mxcsr_dm
0002:8c54+     _XMM_mxcsr_zm
0002:8c64+     _XMM_mxcsr_om
0002:8c74+     _XMM_mxcsr_um
0002:8c84+     _XMM_mxcsr_pm
0002:8c94+     _XMM_mxcsr_rc
0002:8ca4+     _XMM_mxcsr_fz
0002:9000      MIREGISTERSSIZE
0002:9012      MIREGISTERSHOST
0002:9056      MIREGISTERSTARGET
0002:909a      MIREGSETWALK
0002:913a      MIREGSETNAME
0002:9152      MIREGSETLEVEL
0002:9452      MIREGSETDISPLAYGROUPING
0002:a15a      MIREGSETDISPLAYGETPIECE
0002:a19c      MIREGSETDISPLAYMODIFY
0002:a486      RegDispType_
0002:a6f0      MIREGMODIFIED
0002:a9aa      MIREGINSPECTADDR
0002:ab46      MIREGSETDISPLAYTOGGLELIST
0002:ab62      MIREGSETDISPLAYTOGGLE
0002:ac42      MIREGWALK
0002:ad8a      GetRegSP_
0002:add4+     GetRegFP_
0002:ae1e      GetRegIP_
0002:ae68      MIREGSPECIALGET
0002:aefe      MIREGSPECIALSET
0002:af94      MIREGSPECIALNAME
0002:b168      MIREGFROMCONTEXTITEM
0002:b188      MIREGUPDATESTART
0002:b198      MIREGUPDATEEND
0002:b332      RegInit_
0002:b334      RegFini_
Module: x86call.obj(/mnt/sda5/.user/root/src/openwatcom-1.9/bld/mad/x86/c/x86call.c)
0002:b3a4      MICALLSTACKGROWSUP
0002:b3b6      MICALLTYPELIST
0002:b3ca      MICALLBUILDFRAME
0002:b514      MICALLRETURNREG
0002:b54c      MICALLPARMREGLIST
0002:b674+     GetFarAddr_
0002:bf54      MICALLUPSTACKSIZE
0002:bf66      MICALLUPSTACKINIT
0002:bf78      MICALLUPSTACKLEVEL
Module: x86disas.obj(/mnt/sda5/.user/root/src/openwatcom-1.9/bld/mad/x86/c/x86disas.c)
0003:0b9e      _DbgAddr
0002:c10a      MIDISASMDATASIZE
0002:c11c      MIDISASMNAMEMAX
0002:c134      DoCode_
0002:c18c      DecodeIns_
0002:c1f0      GetDisasmPrev_
0002:c33c      MIDISASM
0002:c3ac      MIDISASMFORMAT
0002:c508      MIDISASMINSSIZE
0002:c522      MIDISASMINSUNDOABLE
0002:c732+     DisasmControl_
0002:ca10      MIDISASMCONTROL
0002:ca52      MIDISASMINSNEXT
0002:cc6a+     GetSegRegOverride_
0002:cce0+     MemReference_
0002:cec6      DoDisasmMemRefWalk_
0002:d068      MIDISASMMEMREFWALK
0002:d0b2      MIDISASMTOGGLELIST
0002:d0c6      MIDISASMTOGGLE
0002:d190      MIDISASMINSPECTADDR
0002:d2c4      CnvRadix_
0002:d36c      JmpLabel_
0002:d3fa      ToSegStr_
0002:d50a      GetDataWord_
0002:d542      GetDataLong_
0002:d57a      InitCache_
0002:d5c8      DisCliGetData_
0002:d668      DisCliValueString_
0002:d86c      DisasmInit_
0002:d898      DisasmFini_
Module: x86trace.obj(/mnt/sda5/.user/root/src/openwatcom-1.9/bld/mad/x86/c/x86trace.c)
0002:d8b8      MITRACESIZE
0002:d8ca      MITRACEINIT
0002:d8ea      MITRACEHAVERECURSED
0002:ddce      MITRACEONE
0002:deb8      MITRACESIMULATE
0002:dfde      MITRACEFINI
0002:dfee      MIUNEXPECTEDBREAK
Module: /mnt/sda5/.user/root/src/openwatcom-1.9/rel2/lib286/win/clibl.lib(strtol.c)
0002:e3b2      strtoul_
0002:e3c6*     strtol_
Module: /mnt/sda5/.user/root/src/openwatcom-1.9/rel2/lib286/win/clibl.lib(wstart)
0000:0006*     pLocalHeap
0000:0008*     pAtomTable
0000:000a*     pStackTop
0000:000c*     pStackMin
0000:000e*     pStackBot
0003:0000*     __nullarea
0003:0a06*     __curbrk
0003:0a08*     __psp
0003:0a0a*     __osmajor
0003:0a0b*     __osminor
0003:0a0c*     __osmode
0003:000a*     __STACKLOW
0003:000c*     __STACKTOP
0003:0a0e*     __cbyte
0003:0a10*     __child
0003:0a12*     __no87
0003:0a0d*     __HShift
0003:0a14*     __get_ovl_stack
0003:0a18*     __restore_ovl_stack
0003:0a1c*     ___FPE_handler
0003:0a20*     __LpCmdLine
0003:0a24*     __LpPgmName
0002:e3d0      _wstart_
0002:e3d0*     _cstart_
0002:e4b1      __exit_
0002:e4c2      __GETDS
Module: /mnt/sda5/.user/root/src/openwatcom-1.9/rel2/lib286/win/clibl.lib(cmodel)
0002:e4c4      _big_code_
0002:e4c4*     CodeModelMismatch
Module: /mnt/sda5/.user/root/src/openwatcom-1.9/rel2/lib286/win/clibl.lib(toupper.c)
0002:e4c4      toupper_
Module: /mnt/sda5/.user/root/src/openwatcom-1.9/rel2/lib286/win/clibl.lib(strupr.c)
0002:e4d2      strupr_
Module: /mnt/sda5/.user/root/src/openwatcom-1.9/rel2/lib286/win/clibl.lib(memmove.c)
0002:e4f6      memmove_
Module: /mnt/sda5/.user/root/src/openwatcom-1.9/rel2/lib286/win/clibl.lib(strncmp.c)
0002:e56f      strncmp_
Module: /mnt/sda5/.user/root/src/openwatcom-1.9/rel2/lib286/win/clibl.lib(i4m)
0002:e5b2*     __I4M
0002:e5b2      __U4M
Module: /mnt/sda5/.user/root/src/openwatcom-1.9/rel2/lib286/win/clibl.lib(strnicmp.c)
0002:e5ca      strnicmp_
Module: /mnt/sda5/.user/root/src/openwatcom-1.9/rel2/lib286/win/clibl.lib(istable.c)
0003:0010      __IsTable
Module: /mnt/sda5/.user/root/src/openwatcom-1.9/rel2/lib286/win/clibl.lib(i4d)
0002:e61e*     __I4D
0002:e66d      __U4D
Module: /mnt/sda5/.user/root/src/openwatcom-1.9/rel2/lib286/win/clibl.lib(tolower.c)
0002:e6f1      tolower_
Module: /mnt/sda5/.user/root/src/openwatcom-1.9/rel2/lib286/win/clibl.lib(seterrno.c)
0002:e6ff      __set_errno_
0002:e71a*     __set_EDOM_
0002:e731*     __set_ERANGE_
0002:e747*     __set_EINVAL_
0002:e760*     __set_doserrno_
Module: /mnt/sda5/.user/root/src/openwatcom-1.9/rel2/lib286/win/clibl.lib(exit.c)
0002:e770+     __null_int23_exit_
0002:e771      exit_
0002:e7aa*     _exit_
0003:0ab8+     ___int23_exit
0003:0abc+     ___FPE_handler_exit
Module: /mnt/sda5/.user/root/src/openwatcom-1.9/rel2/lib286/win/clibl.lib(initrtns.c)
0002:e7fa      __FInitRtns
0002:e805+     __InitRtns
0002:e863      __FFiniRtns
0002:e86e      __FiniRtns
Module: /mnt/sda5/.user/root/src/openwatcom-1.9/rel2/lib286/win/clibl.lib(dosseg)
0002:e8d2      __DOSseg__
Module: /mnt/sda5/.user/root/src/openwatcom-1.9/rel2/lib286/win/clibl.lib(errno.c)
0002:e8d3      __get_errno_ptr_
0002:e8d9      __get_doserrno_ptr_
0003:0c32+     _errno
0003:0c34+     __doserrno
Module: /mnt/sda5/.user/root/src/openwatcom-1.9/rel2/lib286/win/clibl.lib(winrtns.c)
0003:0ac0*     __WindowsIsWindowedHandle
0003:0ac4*     __WindowsRemoveWindowedHandle
0003:0ac8*     __WindowsNewWindow
0003:0acc*     __WindowsCloseWindow
0003:0ad0*     __WindowsSetAbout
0003:0ad4*     __WindowsSetAppTitle
0003:0ad8*     __WindowsSetConTitle
0003:0adc*     __WindowsDestroyOnClose
0003:0ae0*     __WindowsYieldControl
0003:0ae4*     __WindowsShutDown
0003:0ae8*     __WindowsStdin
0003:0aec*     __WindowsStdout
0003:0af0*     __WindowsKbhit
0003:0af4*     __WindowsGetch
0003:0af8*     __WindowsGetche
0003:0afc*     __WindowsPutch
0003:0b00      __WindowsExitRtn
Module: /mnt/sda5/.user/root/src/openwatcom-1.9/rel2/lib286/win/clibl.lib(sgdef086)
0003:0b04      __Start_XI
0003:0b04      __End_XI
0003:0b04      __Start_YI
0003:0b04      __End_YI


                        +----------------------+
                        |   Imported Symbols   |
                        +----------------------+

Symbol                              Module
======                              ======

POSTAPPMESSAGE                      USER
GETCURRENTTASK                      KERNEL
MAKEPROCINSTANCE                    KERNEL
GETMESSAGE                          USER
TRANSLATEMESSAGE                    USER
DISPATCHMESSAGE                     USER
INITTASK                            KERNEL
GETMODULEFILENAME                   KERNEL
INITAPP                             USER
WAITEVENT                           KERNEL
__AHSHIFT                           KERNEL


                        +--------------------+
                        |   Libraries Used   |
                        +--------------------+

/mnt/sda5/.user/root/src/openwatcom-1.9/rel2/lib286/win/windows.lib
/mnt/sda5/.user/root/src/openwatcom-1.9/rel2/lib286/win/clibl.lib


                        +-----------------------+
                        |   Linker Statistics   |
                        +-----------------------+

Stack size:  2000 (8192.)
Memory size:  0001dba3 (121763.)
Entry point address: 0002:e3d0
Link time: 00:00.00
