Open Watcom Linker Version 1.9
Portions Copyright (c) 1985-2002 Sybase, Inc. All Rights Reserved.
Created on:       12/12/16 02:22:40
Executable Image: mt7s19.dll
creating an OS/2 32-bit dynamic link library


                        +------------+
                        |   Groups   |
                        +------------+

Group                           Address              Size
=====                           =======              ====

DGROUP                          0002:00000000        000008c0



                        +--------------+
                        |   Segments   |
                        +--------------+

Segment                Class          Group          Address         Size
=======                =====          =====          =======         ====

BEGTEXT                CODE           AUTO           0001:00000000   00000007
_TEXT                  CODE           AUTO           0001:00000010   00005ad0
_NULL                  BEGDATA        DGROUP         0002:00000000   00000004
_AFTERNULL             BEGDATA        DGROUP         0002:00000004   00000000
CONST                  DATA           DGROUP         0002:00000004   000000e4
CONST2                 DATA           DGROUP         0002:000000e8   00000000
_DATA                  DATA           DGROUP         0002:000000e8   000001f8
TIB                    DATA           DGROUP         0002:000002e0   00000000
TI                     DATA           DGROUP         0002:000002e0   00000000
TIE                    DATA           DGROUP         0002:000002e0   00000000
XIB                    DATA           DGROUP         0002:000002e0   00000000
XI                     DATA           DGROUP         0002:000002e0   00000000
XIE                    DATA           DGROUP         0002:000002e0   00000000
YIB                    DATA           DGROUP         0002:000002e0   00000000
YI                     DATA           DGROUP         0002:000002e0   00000000
YIE                    DATA           DGROUP         0002:000002e0   00000000
DATA                   DATA           DGROUP         0002:000002e0   00000000
_BSS                   BSS            DGROUP         0002:000002e0   000005dc
STACK                  STACK          DGROUP         0002:000008c0   00000000


                        +----------------+
                        |   Memory Map   |
                        +----------------+

* = unreferenced symbol
+ = symbol only referenced locally

Address        Symbol
=======        ======

Module: /mnt/sda5/.user/root/src/openwatcom-1.9/bld/clib/startup/library/os2.386/mf_s/clibdo32.obj(/mnt/sda5/.user/root/src/openwatcom-1.9/bld/clib/startup/c/clibdo32.c)
0001:00000010  __dll_terminate
0001:00000010  __dll_initialize
Module: ../../../clib/os2.386/mf_s/clbsdll.lib(dstrt386)
0001:00000016  __DLLstart_
0001:00000016* __DLLstartw_
Module: /mnt/sda5/.user/root/src/openwatcom-1.9/bld/mathlib/library/os2.387/mf_s.dll/math387s.lib(__87LDI2)
0001:00000074  __87LDI2
0001:00000074  __87LDI2_
Module: /mnt/sda5/.user/root/src/openwatcom-1.9/bld/mathlib/library/os2.387/mf_s.dll/math387s.lib(__87LDI4)
0001:00000094  __87LDI4
0001:00000094  __87LDI4_
Module: /mnt/sda5/.user/root/src/openwatcom-1.9/bld/mathlib/library/os2.387/mf_s.dll/math387s.lib(acosl87)
0001:000000b4  acosl_
Module: /mnt/sda5/.user/root/src/openwatcom-1.9/bld/mathlib/library/os2.387/mf_s.dll/math387s.lib(asinl87)
0001:000000c8  asinl_
Module: /mnt/sda5/.user/root/src/openwatcom-1.9/bld/mathlib/library/os2.387/mf_s.dll/math387s.lib(atanl87)
0001:000000dc  atanl_
0001:000000ef  atan2l_
Module: /mnt/sda5/.user/root/src/openwatcom-1.9/bld/mathlib/library/os2.387/mf_s.dll/math387s.lib(atof.c)
0001:00000106  atof
Module: /mnt/sda5/.user/root/src/openwatcom-1.9/bld/mathlib/library/os2.387/mf_s.dll/math387s.lib(cabs.c)
0001:00000136  cabs
Module: /mnt/sda5/.user/root/src/openwatcom-1.9/bld/mathlib/library/os2.387/mf_s.dll/math387s.lib(ceil.c)
0001:0000015a  ceil
Module: /mnt/sda5/.user/root/src/openwatcom-1.9/bld/mathlib/library/os2.387/mf_s.dll/math387s.lib(fchop87)
0001:0000018c  __CHP
Module: /mnt/sda5/.user/root/src/openwatcom-1.9/bld/mathlib/library/os2.387/mf_s.dll/math387s.lib(clear87.c)
0001:000001a3  _status87
0001:000001b4  _clear87
Module: /mnt/sda5/.user/root/src/openwatcom-1.9/bld/mathlib/library/os2.387/mf_s.dll/math387s.lib(cnvd2f.c)
0001:000001d0  __cnvd2f
Module: /mnt/sda5/.user/root/src/openwatcom-1.9/bld/mathlib/library/os2.387/mf_s.dll/math387s.lib(cnvd2ld.c)
0001:0000024e  __cnvd2ld
0001:0000025d  __get__cnvd2ld
Module: /mnt/sda5/.user/root/src/openwatcom-1.9/bld/mathlib/library/os2.387/mf_s.dll/math387s.lib(cnvs2d.c)
0001:00000263  __cnvs2d
0001:0000028f  __get__cnvs2d
Module: /mnt/sda5/.user/root/src/openwatcom-1.9/bld/mathlib/library/os2.387/mf_s.dll/math387s.lib(exp87)
0001:00000311  exp
0001:00000298  __@DEXP1
0001:000002a0  IF@EXP
0001:000002a0  IF@DEXP
0001:000002a2  __@DEXP
Module: /mnt/sda5/.user/root/src/openwatcom-1.9/bld/mathlib/library/os2.387/mf_s.dll/math387s.lib(difftime.c)
0001:00000324  difftime
Module: /mnt/sda5/.user/root/src/openwatcom-1.9/bld/mathlib/library/os2.387/mf_s.dll/math387s.lib(inf_nan.c)
0001:0000035b  __f_infinity
0001:0000035f  __f_posqnan
0001:00000363  __d_infinity
0001:0000036b  __d_posqnan
0001:00000373  __ld_infinity
0001:0000037b  __ld_posqnan
Module: /mnt/sda5/.user/root/src/openwatcom-1.9/bld/mathlib/library/os2.387/mf_s.dll/math387s.lib(sqrt87)
0001:00000384  sqrt
0001:000003c0  IF@SQRT
0001:000003c0  IF@DSQRT
0001:000003c2  __@DSQRT
Module: /mnt/sda5/.user/root/src/openwatcom-1.9/bld/mathlib/library/os2.387/mf_s.dll/math387s.lib(_i__ecvt.asm)
0001:00000408  __ecvt
Module: /mnt/sda5/.user/root/src/openwatcom-1.9/bld/mathlib/library/os2.387/mf_s.dll/math387s.lib(_i_ecvt_.asm)
0001:00000410  _ecvt
Module: /mnt/sda5/.user/root/src/openwatcom-1.9/bld/mathlib/library/os2.387/mf_s.dll/math387s.lib(efcvt.c)
0001:0000044c  ecvt
0001:00000488  fcvt
Module: /mnt/sda5/.user/root/src/openwatcom-1.9/bld/mathlib/library/os2.387/mf_s.dll/math387s.lib(efgfmt.c)
0001:000004c7  _EFG_Format
0001:00000645  __get_EFG_Format
Module: /mnt/sda5/.user/root/src/openwatcom-1.9/bld/mathlib/library/os2.387/mf_s.dll/math387s.lib(evalpoly.c)
0001:0000064b  _EvalPoly
0001:0000069c  _OddPoly
Module: /mnt/sda5/.user/root/src/openwatcom-1.9/bld/mathlib/library/os2.387/mf_s.dll/math387s.lib(_i__fcvt.asm)
0001:000006d8  __fcvt
Module: /mnt/sda5/.user/root/src/openwatcom-1.9/bld/mathlib/library/os2.387/mf_s.dll/math387s.lib(_i_fcvt_.asm)
0001:000006e0  _fcvt
Module: /mnt/sda5/.user/root/src/openwatcom-1.9/bld/mathlib/library/os2.387/mf_s.dll/math387s.lib(fdclass.c)
0001:000006e5  _FDClass
Module: /mnt/sda5/.user/root/src/openwatcom-1.9/bld/mathlib/library/os2.387/mf_s.dll/math387s.lib(fdsign.c)
0001:0000075c  _FDSign
Module: /mnt/sda5/.user/root/src/openwatcom-1.9/bld/mathlib/library/os2.387/mf_s.dll/math387s.lib(finite.c)
0001:00000775  _finite
Module: /mnt/sda5/.user/root/src/openwatcom-1.9/bld/mathlib/library/os2.387/mf_s.dll/math387s.lib(_i_finit.asm)
0001:0000078c  finite
Module: /mnt/sda5/.user/root/src/openwatcom-1.9/bld/mathlib/library/os2.387/mf_s.dll/math387s.lib(ldclass.c)
0001:00000791  __LDClass
0001:000007df  _FLClass
Module: /mnt/sda5/.user/root/src/openwatcom-1.9/bld/mathlib/library/os2.387/mf_s.dll/math387s.lib(floor.c)
0001:000007f0  floor
Module: /mnt/sda5/.user/root/src/openwatcom-1.9/bld/mathlib/library/os2.387/mf_s.dll/math387s.lib(flsign.c)
0001:0000083e* __LDSign
0001:0000084a  _FLSign
Module: /mnt/sda5/.user/root/src/openwatcom-1.9/bld/mathlib/library/os2.387/mf_s.dll/math387s.lib(frexp.c)
0001:00000853  frexp
Module: /mnt/sda5/.user/root/src/openwatcom-1.9/bld/mathlib/library/os2.387/mf_s.dll/math387s.lib(fsclass.c)
0001:000008c9  _FSClass
Module: /mnt/sda5/.user/root/src/openwatcom-1.9/bld/mathlib/library/os2.387/mf_s.dll/math387s.lib(fssign.c)
0001:0000092a  _FSSign
Module: /mnt/sda5/.user/root/src/openwatcom-1.9/bld/mathlib/library/os2.387/mf_s.dll/math387s.lib(_i__gcvt.asm)
0001:00000934  __gcvt
Module: /mnt/sda5/.user/root/src/openwatcom-1.9/bld/mathlib/library/os2.387/mf_s.dll/math387s.lib(_i_gcvt_.asm)
0001:0000093c  _gcvt
Module: /mnt/sda5/.user/root/src/openwatcom-1.9/bld/mathlib/library/os2.387/mf_s.dll/math387s.lib(gcvt.c)
0001:00000941  gcvt
Module: /mnt/sda5/.user/root/src/openwatcom-1.9/bld/mathlib/library/os2.387/mf_s.dll/math387s.lib(hypot.c)
0001:00000a2b  hypot
Module: /mnt/sda5/.user/root/src/openwatcom-1.9/bld/mathlib/library/os2.387/mf_s.dll/math387s.lib(fabs87)
0001:00000a50  fabs
0001:00000a5e  IF@DABS
0001:00000a5e  IF@ABS
Module: /mnt/sda5/.user/root/src/openwatcom-1.9/bld/mathlib/library/os2.387/mf_s.dll/math387s.lib(acos87)
0001:00000aa3  acos
0001:00000a64  IF@DACOS
0001:00000a64  IF@ACOS
Module: /mnt/sda5/.user/root/src/openwatcom-1.9/bld/mathlib/library/os2.387/mf_s.dll/math387s.lib(acosh87)
0001:00000b04  acosh
0001:00000ab8  IF@DACOSH
0001:00000ab8  IF@ACOSH
Module: /mnt/sda5/.user/root/src/openwatcom-1.9/bld/mathlib/library/os2.387/mf_s.dll/math387s.lib(asin87)
0001:00000b33  asin
0001:00000b18  IF@DASIN
0001:00000b18  IF@ASIN
Module: /mnt/sda5/.user/root/src/openwatcom-1.9/bld/mathlib/library/os2.387/mf_s.dll/math387s.lib(asinh87)
0001:00000b79  asinh
0001:00000b48  IF@DASINH
0001:00000b48  IF@ASINH
Module: /mnt/sda5/.user/root/src/openwatcom-1.9/bld/mathlib/library/os2.387/mf_s.dll/math387s.lib(atan87)
0001:00000bb6  atan
0001:00000bc9  atan2
0001:00000b8c  IF@ATAN
0001:00000b8c  IF@DATAN
0001:00000ba1  IF@ATAN2
0001:00000ba1  IF@DATAN2
Module: /mnt/sda5/.user/root/src/openwatcom-1.9/bld/mathlib/library/os2.387/mf_s.dll/math387s.lib(atanh87)
0001:00000c49  atanh
0001:00000be0  IF@DATANH
0001:00000be0  IF@ATANH
Module: /mnt/sda5/.user/root/src/openwatcom-1.9/bld/mathlib/library/os2.387/mf_s.dll/math387s.lib(divc16.c)
0001:00000c5c  IF@C16Div
Module: /mnt/sda5/.user/root/src/openwatcom-1.9/bld/mathlib/library/os2.387/mf_s.dll/math387s.lib(mulc16.c)
0001:00000d75  IF@C16Mul
Module: /mnt/sda5/.user/root/src/openwatcom-1.9/bld/mathlib/library/os2.387/mf_s.dll/math387s.lib(powc16.c)
0001:00000dc5  IF@C16Pow
Module: /mnt/sda5/.user/root/src/openwatcom-1.9/bld/mathlib/library/os2.387/mf_s.dll/math387s.lib(powic16.c)
0001:00000f41  IF@C16PowI
Module: /mnt/sda5/.user/root/src/openwatcom-1.9/bld/mathlib/library/os2.387/mf_s.dll/math387s.lib(divc20.c)
0001:00001102  IF@C32Div
Module: /mnt/sda5/.user/root/src/openwatcom-1.9/bld/mathlib/library/os2.387/mf_s.dll/math387s.lib(mulc20.c)
0001:0000121b  IF@C32Mul
Module: /mnt/sda5/.user/root/src/openwatcom-1.9/bld/mathlib/library/os2.387/mf_s.dll/math387s.lib(powc20.c)
0001:0000126b  IF@C32Pow
Module: /mnt/sda5/.user/root/src/openwatcom-1.9/bld/mathlib/library/os2.387/mf_s.dll/math387s.lib(powic32.c)
0001:000012bf  IF@C32PowI
Module: /mnt/sda5/.user/root/src/openwatcom-1.9/bld/mathlib/library/os2.387/mf_s.dll/math387s.lib(divc8.c)
0001:00001307  IF@C8Div
Module: /mnt/sda5/.user/root/src/openwatcom-1.9/bld/mathlib/library/os2.387/mf_s.dll/math387s.lib(mulc8.c)
0001:000013f2  IF@C8Mul
Module: /mnt/sda5/.user/root/src/openwatcom-1.9/bld/mathlib/library/os2.387/mf_s.dll/math387s.lib(powc8.c)
0001:00001440  IF@C8Pow
Module: /mnt/sda5/.user/root/src/openwatcom-1.9/bld/mathlib/library/os2.387/mf_s.dll/math387s.lib(powic8.c)
0001:00001558  IF@C8PowI
Module: /mnt/sda5/.user/root/src/openwatcom-1.9/bld/mathlib/library/os2.387/mf_s.dll/math387s.lib(ifcdabs.c)
0001:000016cd  IF@CDABS
Module: /mnt/sda5/.user/root/src/openwatcom-1.9/bld/mathlib/library/os2.387/mf_s.dll/math387s.lib(ifcdcos.c)
0001:0000178a  IF@CDCOS
Module: /mnt/sda5/.user/root/src/openwatcom-1.9/bld/mathlib/library/os2.387/mf_s.dll/math387s.lib(ifcdexp.c)
0001:000017dc  IF@CDEXP
Module: /mnt/sda5/.user/root/src/openwatcom-1.9/bld/mathlib/library/os2.387/mf_s.dll/math387s.lib(ifcdlog.c)
0001:00001838  IF@CDLOG
Module: /mnt/sda5/.user/root/src/openwatcom-1.9/bld/mathlib/library/os2.387/mf_s.dll/math387s.lib(ifcdsin.c)
0001:00001882  IF@CDSIN
Module: /mnt/sda5/.user/root/src/openwatcom-1.9/bld/mathlib/library/os2.387/mf_s.dll/math387s.lib(ifcdsqrt.c)
0001:000018d2  IF@CDSQRT
Module: /mnt/sda5/.user/root/src/openwatcom-1.9/bld/mathlib/library/os2.387/mf_s.dll/math387s.lib(trig87)
0001:00001b48  sin
0001:00001b35  cos
0001:00001b70  tan
0001:00001af4  IF@COS
0001:00001af4  IF@DCOS
0001:00001afe  IF@SIN
0001:00001afe  IF@DSIN
0001:00001b5b  IF@TAN
0001:00001b5b  IF@DTAN
Module: /mnt/sda5/.user/root/src/openwatcom-1.9/bld/mathlib/library/os2.387/mf_s.dll/math387s.lib(trigh87)
0001:00001c89  sinh
0001:00001c76  cosh
0001:00001c9c  tanh
0001:00001b84  IF@DSINH
0001:00001b84  IF@SINH
0001:00001bb8  IF@DCOSH
0001:00001bb8  IF@COSH
0001:00001bf2  IF@DTANH
0001:00001bf2  IF@TANH
Module: /mnt/sda5/.user/root/src/openwatcom-1.9/bld/mathlib/library/os2.387/mf_s.dll/math387s.lib(cotan87)
0001:00001cb0  IF@DCOTAN
0001:00001cb0  IF@COTAN
Module: /mnt/sda5/.user/root/src/openwatcom-1.9/bld/mathlib/library/os2.387/mf_s.dll/math387s.lib(fmod87)
0001:00001cf7  fmod
0001:00001cdc  IF@DFMOD
0001:00001cdc  IF@FMOD
Module: /mnt/sda5/.user/root/src/openwatcom-1.9/bld/mathlib/library/os2.387/mf_s.dll/math387s.lib(log87)
0001:00001d76  log
0001:00001d9c  log2
0001:00001d89  log10
0001:00001d10  IF@LOG
0001:00001d10  IF@DLOG
0001:00001d62  IF@LOG2
0001:00001d62  IF@DLOG2
0001:00001d6c  IF@LOG10
0001:00001d6c  IF@DLOG10
Module: /mnt/sda5/.user/root/src/openwatcom-1.9/bld/mathlib/library/os2.387/mf_s.dll/math387s.lib(pow87)
0001:00001f1b  pow
0001:00001db0  IF@DPOW
0001:00001db0  IF@POW
Module: /mnt/sda5/.user/root/src/openwatcom-1.9/bld/mathlib/library/os2.387/mf_s.dll/math387s.lib(powri.c)
0001:00001f32  IF@POWI
0001:00001f47  IF@DPOWI
0001:0000203c  IF@PowRI
Module: /mnt/sda5/.user/root/src/openwatcom-1.9/bld/mathlib/library/os2.387/mf_s.dll/math387s.lib(powii.c)
0001:0000204d  IF@IPOW
0001:0000204d  IF@PowII
Module: /mnt/sda5/.user/root/src/openwatcom-1.9/bld/mathlib/library/os2.387/mf_s.dll/math387s.lib(powrr.c)
0001:000020e5  IF@PowRR
Module: /mnt/sda5/.user/root/src/openwatcom-1.9/bld/mathlib/library/os2.387/mf_s.dll/math387s.lib(powxi.c)
0001:00002159  IF@PowXI
Module: /mnt/sda5/.user/root/src/openwatcom-1.9/bld/mathlib/library/os2.387/mf_s.dll/math387s.lib(j0.c)
0001:000022b4  _P0P
0001:000022dc  _P0Q
0001:0000230c  _Q0P
0001:00002334  _Q0Q
0001:00002364  j0
Module: /mnt/sda5/.user/root/src/openwatcom-1.9/bld/mathlib/library/os2.387/mf_s.dll/math387s.lib(j1.c)
0001:000025a3  _P1P
0001:000025cb  _P1Q
0001:000025fb  _Q1P
0001:00002623  _Q1Q
0001:0000264b  j1
Module: /mnt/sda5/.user/root/src/openwatcom-1.9/bld/mathlib/library/os2.387/mf_s.dll/math387s.lib(jn.c)
0001:00002826  jn
Module: /mnt/sda5/.user/root/src/openwatcom-1.9/bld/mathlib/library/os2.387/mf_s.dll/math387s.lib(ldcvt.c)
0001:00002b3f  _LDScale10x
0001:000030ab  __LDcvt
Module: /mnt/sda5/.user/root/src/openwatcom-1.9/bld/mathlib/library/os2.387/mf_s.dll/math387s.lib(ldexp.c)
0001:0000353d  ldexp
Module: /mnt/sda5/.user/root/src/openwatcom-1.9/bld/mathlib/library/os2.387/mf_s.dll/math387s.lib(math2err.c)
0001:00003663  __math1err
0001:00003696  __math2err
Module: /mnt/sda5/.user/root/src/openwatcom-1.9/bld/mathlib/library/os2.387/mf_s.dll/math387s.lib(__mtherr)
0001:000037c0  __matherr
Module: /mnt/sda5/.user/root/src/openwatcom-1.9/bld/mathlib/library/os2.387/mf_s.dll/math387s.lib(_matherr.c)
0001:0000386b  _set_matherr
0001:00003875  __rterrmsg
0001:000038c2  _matherr
0002:00000220+ __matherr_handler
Module: /mnt/sda5/.user/root/src/openwatcom-1.9/bld/mathlib/library/os2.387/mf_s.dll/math387s.lib(matherr.c)
0001:00003914  matherr
Module: /mnt/sda5/.user/root/src/openwatcom-1.9/bld/mathlib/library/os2.387/mf_s.dll/math387s.lib(qmatherr.c)
0001:00003983  __qmath1err
0001:000039b3  __qmath2err
Module: /mnt/sda5/.user/root/src/openwatcom-1.9/bld/mathlib/library/os2.387/mf_s.dll/math387s.lib(strtod.c)
0001:00003f1b  __Strtold
0001:0000408f  strtod
Module: /mnt/sda5/.user/root/src/openwatcom-1.9/bld/mathlib/library/os2.387/mf_s.dll/math387s.lib(_iwtof__.asm)
0001:000041f4  _watof
Module: /mnt/sda5/.user/root/src/openwatcom-1.9/bld/mathlib/library/os2.387/mf_s.dll/math387s.lib(_ustrtod.c)
0001:00004793  __wStrtold
0001:0000492a  wcstod
Module: /mnt/sda5/.user/root/src/openwatcom-1.9/bld/mathlib/library/os2.387/mf_s.dll/math387s.lib(_uefcvt.c)
0001:00004ac3  _wecvt
0001:00004b0b  _wfcvt
Module: /mnt/sda5/.user/root/src/openwatcom-1.9/bld/mathlib/library/os2.387/mf_s.dll/math387s.lib(_ugcvt.c)
0001:00004b56  _wgcvt
Module: /mnt/sda5/.user/root/src/openwatcom-1.9/bld/mathlib/library/os2.387/mf_s.dll/math387s.lib(_uatof.c)
0001:00004b84  _wtof
Module: /mnt/sda5/.user/root/src/openwatcom-1.9/bld/mathlib/library/os2.387/mf_s.dll/math387s.lib(y0.c)
0001:00004c3c  y0
Module: /mnt/sda5/.user/root/src/openwatcom-1.9/bld/mathlib/library/os2.387/mf_s.dll/math387s.lib(y1.c)
0001:00004ed8  y1
Module: /mnt/sda5/.user/root/src/openwatcom-1.9/bld/mathlib/library/os2.387/mf_s.dll/math387s.lib(yn.c)
0001:0000511c  yn
Module: /mnt/sda5/.user/root/src/openwatcom-1.9/bld/mathlib/library/os2.387/mf_s.dll/math387s.lib(bufld386)
0001:0000521c  __ZBuf2LD
Module: /mnt/sda5/.user/root/src/openwatcom-1.9/bld/mathlib/library/os2.387/mf_s.dll/math387s.lib(zmatherr.c)
0001:0000532b  __zmath1err
0001:00005359  __zmath2err
Module: /mnt/sda5/.user/root/src/openwatcom-1.9/bld/mathlib/library/os2.387/mf_s.dll/math387s.lib(modf87)
0001:0000539c  modf
Module: /mnt/sda5/.user/root/src/openwatcom-1.9/bld/mathlib/library/os2.387/mf_s.dll/math387s.lib(trigl87)
0001:000053bc  _cosl
0001:000053cf  _sinl
0001:000053e2  _tanl
Module: ../../../clib/os2.386/mf_s/clbsdll.lib(dmndo32.c)
0001:00005400  __LibMain
0002:000002e0+ __Is_DLL
0002:000002e4+ _LpwDllName
0002:000002e8+ _LpDllName
Module: ../../../clib/os2.386/mf_s/clbsdll.lib(segdefns)
0001:00000003  ___begtext
0002:00000000* __nullarea
0002:000002e0  _Start_XI
0002:000002e0  _End_XI
0002:000002e0  _Start_YI
0002:000002e0  _End_YI
Module: /mnt/sda5/.user/root/src/openwatcom-1.9/bld/mathlib/library/os2.387/mf_s.dll/math387s.lib(math87e.c)
0001:000054ca  __math87_err
Module: /mnt/sda5/.user/root/src/openwatcom-1.9/bld/mathlib/library/os2.387/mf_s.dll/math387s.lib(cvt.c)
0001:0000553e  __cvt
Module: /mnt/sda5/.user/root/src/openwatcom-1.9/bld/mathlib/library/os2.387/mf_s.dll/math387s.lib(log87e.c)
0001:000055bd  __log87_err
Module: /mnt/sda5/.user/root/src/openwatcom-1.9/bld/mathlib/library/os2.387/mf_s.dll/math387s.lib(pow87e.c)
0001:0000560e  __pow87_err
Module: ../../../clib/os2.386/mf_s/clbsdll.lib(lmaino32.c)
0001:000056a0  LibMain
Module: ../../../clib/os2.386/mf_s/clbsdll.lib(initrtns.c)
0001:000056d0  __InitRtns
0001:00005730  __FiniRtns
Module: ../../../clib/os2.386/mf_s/clbsdll.lib(ddgrpo32.c)
0001:00005870  __disallow_single_dgroup
Module: ../../../clib/os2.386/mf_s/clbsdll.lib(dcinit.c)
0001:00005ac0  __CommonInit
0002:000008b8  __hmodule
Module: ../../../clib/os2.386/mf_s/clbsdll.lib(dosseg)
0000:00001234  __DOSseg__
Module: ../../../clib/os2.386/mf_s/clbsdll.lib(dllmno32.c)
0001:00005ad0  DllMain


                        +----------------------+
                        |   Imported Symbols   |
                        +----------------------+

Symbol                              Module
======                              ======

__8087                              clbs19
_IsTable_br                         clbs19
__CVTBuffer                         clbs19
_LDisDouble                         clbs19
memset                              clbs19
__chipbug                           clbs19
__fpatan_wrap                       clbs19
__fdiv_fpr                          clbs19
__fdiv_m64r                         clbs19
__fdiv_m32r                         clbs19
__fptan_chk                         clbs19
__fprem_chk                         clbs19
__real87                            clbs19
__fdiv_m64                          clbs19
__set_ERANGE                        clbs19
_HugeValue_br                       clbs19
__get_std_stream                    clbs19
fputs                               clbs19
fputc                               clbs19
__set_EDOM                          clbs19
tolower                             clbs19
wcstombs                            clbs19
_atouni                             clbs19
DosQueryModuleName                  DOSCALLS
DosGetInfoBlocks                    DOSCALLS
DosLoadModule                       DOSCALLS
DosQueryProcAddr                    DOSCALLS
DosOpen                             DOSCALLS
DosWrite                            DOSCALLS
DosClose                            DOSCALLS
_amblksiz_br                        clbs19


                        +--------------------+
                        |   Libraries Used   |
                        +--------------------+

/mnt/sda5/.user/root/src/openwatcom-1.9/bld/mathlib/library/os2.387/mf_s.dll/math387s.lib
../../../clib/os2.386/mf_s/clbsdll.lib
/mnt/sda5/.user/root/src/openwatcom-1.9/rel2/lib386/os2/os2386.lib


                        +-----------------------+
                        |   Linker Statistics   |
                        +-----------------------+

Stack size:  0000 (0.)
Memory size:  63a0 (25504.)
Link time: 00:00.00
