Open Watcom Linker Version 1.9
Portions Copyright (c) 1985-2002 Sybase, Inc. All Rights Reserved.
Created on:       12/12/16 02:40:38
Executable Image: dwarf.dll
creating a RDOS dynamic link library


                        +------------+
                        |   Groups   |
                        +------------+

Group                           Address              Size
=====                           =======              ====

DGROUP                          00419000             00001140



                        +--------------+
                        |   Segments   |
                        +--------------+

Segment                Class          Group          Address         Size
=======                =====          =====          =======         ====

BEGTEXT                CODE           AUTO           00401000        00000007
_TEXT                  CODE           AUTO           00401010        0001739d
_NULL                  BEGDATA        DGROUP         00419000        00000004
_AFTERNULL             BEGDATA        DGROUP         00419004        00000000
CONST                  DATA           DGROUP         00419004        00000028
CONST2                 DATA           DGROUP         0041902c        00000000
_DATA                  DATA           DGROUP         0041902c        00000418
XIB                    DATA           DGROUP         00419444        00000000
XI                     DATA           DGROUP         00419444        00000006
XIE                    DATA           DGROUP         0041944a        00000000
TIB                    DATA           DGROUP         0041944a        00000000
TI                     DATA           DGROUP         0041944a        00000000
TIE                    DATA           DGROUP         0041944a        00000000
YIB                    DATA           DGROUP         0041944a        00000000
YI                     DATA           DGROUP         0041944a        00000000
YIE                    DATA           DGROUP         0041944a        00000000
DATA                   DATA           DGROUP         0041944a        00000000
_BSS                   BSS            DGROUP         0041a000        00000132
STACK                  STACK          DGROUP         0041a140        00000000


                        +----------------+
                        |   Memory Map   |
                        +----------------+

* = unreferenced symbol
+ = symbol only referenced locally

Address        Symbol
=======        ======

Module: dipimp.obj(/mnt/sda5/.user/root/src/openwatcom-1.9/bld/dip/c/dipimp.c)
00401010       DIPLOAD
00401040       DCAlloc_
00401050*      DCAllocZ_
00401080       DCRealloc_
00401090       DCFree_
004010a0       DCMapAddr_
004010b0       DCSymCreate_
004010c0       DCItemLocation_
004010d0       DCAssignLocation_
004010e0       DCSameAddrSpace_
00401110*      DCAddrSection_
00401120*      DCOpen_
00401130       DCSeek_
00401140       DCRead_
00401150*      DCReadAt_
004011b0*      DCWrite_
004011c0       DCClose_
004011d0*      DCRemove_
004011e0       DCStatus_
004011f0       DCCurrMAD_
00401210*      DCMachineData_
00401260+      DIPImpOldTypeBase_
0041902c+      _ImpInterface
0041a000       _NilAddr
0041a008+      _Client
Module: dfmisc.obj(/mnt/sda5/.user/root/src/openwatcom-1.9/bld/dip/dwarf/c/dfmisc.c)
00401270       _DIPImpName
00401280       DIPImpCancel_
004012a0       DIPImpQueryHandleSize_
004012b0       DFAddImage_
004012c0       DFFreeImage_
004012f0       DIPImpMoreMem_
00401340       DIPImpStartup_
00401360       DIPImpShutdown_
0041a010       _Cleaners
Module: dfld.obj(/mnt/sda5/.user/root/src/openwatcom-1.9/bld/dip/dwarf/c/dfld.c)
00401420+      Lookup_section_name_
00401d60       DIPImpLoadInfo_
00401eb0       DIPImpMapInfo_
00401f20       DIPImpUnloadInfo_
00419124       _DWRRtns
Module: dfmod.obj(/mnt/sda5/.user/root/src/openwatcom-1.9/bld/dip/dwarf/c/dfmod.c)
004021a0       InitModMap_
00402250       ClearMods_
004022a0       FiniModMap_
00402300       Dwarf2ModIdx_
00402330       DwarfModIdx_
00402370       CuTag2ModIdx_
00402390       DFWalkModList_
004023e0       DFWalkModListSrc_
00402440       DIPImpWalkModList_
00402490       DIPImpModName_
004024e0       DIPImpModSrcLang_
00402530       DFAddrMod_
004025d0       DIPImpAddrMod_
004026a0       DIPImpModAddr_
00402760       DIPImpModInfo_
00402820       DIPImpModDefault_
004028a0       NameCopy_
004028e0       SetModPubNames_
Module: dfmodbld.obj(/mnt/sda5/.user/root/src/openwatcom-1.9/bld/dip/dwarf/c/dfmodbld.c)
00402900       InitModList_
00402920       NextModInfo_
00402990       FiniModInfo_
Module: dftype.obj(/mnt/sda5/.user/root/src/openwatcom-1.9/bld/dip/dwarf/c/dftype.c)
00402f90       DIPImpWalkTypeList_
00402fe0       DIPImpTypeMod_
00403050       MapImpTypeInfo_
00403140       DIPImpTypeInfo_
004031b0       DIPImpTypeBase_
004034c0       DIPImpTypeArrayInfo_
00403590       DIPImpTypeFreeAll_
00403590       DIPImpTypeRelease_
00403590       DIPImpTypeAddRef_
004035a0       GetParmN_
004035f0       GetParmCount_
00403630       DIPImpTypeProcInfo_
004036a0       DIPImpTypePtrAddrSpace_
004036b0       DIPImpTypeCmp_
00403ae0       WalkTypeSymList_
00403c10       SearchMbr_
00403dd0       DFBaseAdjust_
00403e30       DIPImpTypeThunkAdjust_
00403e50       DIPImpTypeName_
Module: dfsym.obj(/mnt/sda5/.user/root/src/openwatcom-1.9/bld/dip/dwarf/c/dfsym.c)
00403f20       DIPImpSymMod_
00403f40       DIPImpSymName_
00404080       DIPImpSymType_
004041a0       DFLoadAddrSym_
00404330       DIPImpSymLocation_
00404620       DIPImpSymValue_
004046b0       DIPImpSymInfo_
00404940+      GetRet_
00404980       DIPImpSymParmLocation_
00404a90       DIPImpSymObjType_
00404b30       DIPImpSymObjLocation_
00404ce0       DIPImpAddrSym_
00404f20       DIPImpAddrScope_
004050d0       DIPImpScopeOuter_
00405850       DIPImpWalkSymList_
00405870       DIPImpWalkSymListEx_
00405b10+      DoLookupSym_
00405d20       DIPImpLookupSym_
00405d40       DIPImpLookupSymEx_
00405d60       DIPImpSymCmp_
00405d70       DIPImpSymFreeAll_
00405d70       DIPImpSymRelease_
00405d70       DIPImpSymAddRef_
Module: dfaddr.obj(/mnt/sda5/.user/root/src/openwatcom-1.9/bld/dip/dwarf/c/dfaddr.c)
00405fe0       AddMapAddr_
00406110       FindMapAddr_
00406150       SortMapAddr_
00406160       Real2Map_
004061a0       InitAddrInfo_
004061d0       FiniAddrInfo_
Module: dfsegs.obj(/mnt/sda5/.user/root/src/openwatcom-1.9/bld/dip/dwarf/c/dfsegs.c)
004061f0       InitSegList_
00406210       FiniSegList_
00406240       AddMapSeg_
004062f0*      FindMapSeg_
004063c0       FindRealSeg_
00406440       SegWalk_
004064d0       SortSegReal_
Module: dfloc.obj(/mnt/sda5/.user/root/src/openwatcom-1.9/bld/dip/dwarf/c/dfloc.c)
00406940       SafeDCItemLocation_
00406980       LocationCreate_
004069f0       LocationAdd_
00406ae0       LocationTrunc_
00407220       EvalLocation_
00407400       EvalParmLocation_
00407480       EvalRetLocation_
00407520       EvalLocAdj_
00407630       EvalBasedPtr_
004077d0       EvalOffset_
00407810       EvalSeg_
00407850       EvalSymOffset_
Module: dfcue.obj(/mnt/sda5/.user/root/src/openwatcom-1.9/bld/dip/dwarf/c/dfcue.c)
004078b0       InitImpCueInfo_
00407900       FiniImpCueInfo_
00407920       DIPImpCueMod_
00407b50       DIPImpCueFile_
00407de0       DIPImpWalkFileList_
00407e60       DIPImpCueFileId_
00407ef0       DIPImpCueAdjust_
00408070       DIPImpCueLine_
00408080       DIPImpCueColumn_
00408090       DIPImpCueAddr_
004080c0       DIPImpAddrCue_
00408220       DIPImpLineCue_
00408360       DIPImpCueCmp_
Module: dfline.obj(/mnt/sda5/.user/root/src/openwatcom-1.9/bld/dip/dwarf/c/dfline.c)
004083a0       InitCueList_
004083b0       InitSegCue_
00408400       AddCue_
00408520       FindCueOffset_
004086b0       FindCue_
00408980       FiniCueInfo_
Module: dfaddsym.obj(/mnt/sda5/.user/root/src/openwatcom-1.9/bld/dip/dwarf/c/dfaddsym.c)
00408a40       AddAddrSym_
00408ad0       FindAddrSym_
00408c40       SortAddrSym_
00408ce0       WlkAddrSyms_
00408d00       InitAddrSym_
00408d30       FiniAddrSym_
Module: dfscope.obj(/mnt/sda5/.user/root/src/openwatcom-1.9/bld/dip/dwarf/c/dfscope.c)
00408d50       FindScope_
00408de0       AddScope_
00408e40       InitScope_
00408e60       FiniScope_
Module: dfhash.obj(/mnt/sda5/.user/root/src/openwatcom-1.9/bld/dip/dwarf/c/dfhash.c)
00408f60       InitHashName_
00408fb0       FiniHashName_
00409020       AddHashName_
004090e0       FindHashWalk_
0041a014*      _name_defs
Module: demangle.obj(/mnt/sda5/.user/root/src/openwatcom-1.9/bld/lib_misc/c/demangle.c)
0040b550*      __demangle_t_
0040b5b0       __demangle_l_
0040b620*      __demangle_r_
0040b6b0*      __scope_name_
0040b750       __is_mangled_
0040b830*      __is_mangled_internal_
0040b870*      __unmangled_name_
0040b8e0       __demangled_basename_
0040b950*      __parse_mangled_name_
0040b9b0*      __mangle_operator_
Module: stub.obj(/mnt/sda5/.user/root/src/openwatcom-1.9/bld/dip/dwarf/c/stub.c)
0041a070       _fltused_
0041a074*      __8087
0041a078*      __real87
Module: /mnt/sda5/.user/root/src/openwatcom-1.9/rel2/lib386/rdos/clib3r.lib(memset.c)
0040baf0       memset_
Module: dwarfr.lib(/mnt/sda5/.user/root/src/openwatcom-1.9/bld/dwarf/dr/c/drinit.c)
0040bcf0       DRDbgClear_
0040bd20       DRDbgDone_
0040bd50       DRDbgOldVersion_
0040be50       DRDbgInitNFT_
0040be70*      DRDbgInit_
0040be90       DRDbgFini_
0040bf00       DRSetDebug_
0040bf10       DRGetDebug_
0040bf20       DRInit_
0040bf40       DRFini_
004191a4       _DWRCurrNode
Module: /mnt/sda5/.user/root/src/openwatcom-1.9/rel2/lib386/rdos/clib3r.lib(stricmp.c)
0040bf70       stricmp_
Module: dwarfr.lib(/mnt/sda5/.user/root/src/openwatcom-1.9/bld/dwarf/dr/c/drinfo.c)
0040c0e0       DRGetLanguageAT_
0040c100       DRGetMemModelAT_
0040c150       DRGetProducer_
0040c1a0*      DRGetLanguage_
0040c270       DRGetCompDirBuff_
0040c280       DRGetName_
0040c2a0       DRGetNameBuff_
0040c2b0       DRGetScopedNameBuff_
0040c3b0*      DRGetColumn_
0040c400*      DRGetLine_
0040c450*      DRGetFileName_
0040c4b0*      DRGetFileNameList_
0040c500*      DRIndexFileName_
0040c530       DRGetAccess_
0040c580       DRIsStatic_
0040c5d0       DRIsArtificial_
0040c620       DRIsSymDefined_
0040c660*      DRIsMemberStatic_
0040c6a0       DRIsFunc_
0040c6e0       DRIsParm_
0040c720       DRGetVirtuality_
0040c770*      DRGetByteSize_
0040c7c0       DRGetLowPc_
0040c810       DRGetHighPc_
0040c860       DRGetContaining_
0040c8b0*      DRWalkParent_
0040c910       DRWalkModFunc_
0040c960       DRWalkModTypes_
0040c990       DRWalkScope_
0040c9b0       DRWalkBlock_
0040ca00       DRStartScopeAT_
0040ca50       DRGetAddrSize_
0040ca60       DRDebugPCHDef_
0040cab0       DRGetTagType_
Module: dwarfr.lib(/mnt/sda5/.user/root/src/openwatcom-1.9/bld/dwarf/dr/c/drpubnam.c)
0040cb20       DRWalkPubName_
Module: dwarfr.lib(/mnt/sda5/.user/root/src/openwatcom-1.9/bld/dwarf/dr/c/drarange.c)
0040ce40       DRWalkARange_
Module: dwarfr.lib(/mnt/sda5/.user/root/src/openwatcom-1.9/bld/dwarf/dr/c/drutils.c)
0040d0a0       _FunctionTags
0040d0a4       _ClassTags
0040d0ac       _TypedefTags
0040d0b0       _EnumTags
0040d0b4       _LabelTags
0040d0b8       _VariableTags
0040d0c2+      _MacroTags
0040d0c4       _SearchTags
0040d0e0+      _SearchSymbolTags
0040d0f6+      _SearchFunctionTags
0040d0fa+      _SearchClassTags
0040d102+      _SearchTypeTags
0040d108+      _SearchVariableTags
0040d110+      _SearchFriendTags
0040d114+      _SearchBaseTags
0040d118*      _ScanKidsTags
0040d11e*      _DeclarationTags
0040d134       _SearchTypes
0040d150*      DWRInfoLength_
0040d170       DWRScanCompileUnit_
0040d360       DWRSkipChildren_
0040d3d0       DWRSkipAttribs_
0040d400       DWRSkipRest_
0040d440       DWRAllChildren_
0040d4a0       DWRSearchArray_
0040d4c0       DWRGetAddrSize_
0040d530       DWRSkipForm_
0040d650       DWRFormClass_
0040d6b0       ReadConst_
0040d770       DWRReadConstant_
0040d790       DWRReadReference_
0040d7e0       DWRReadAddr_
0040d870       DWRReadString_
0040d8d0       DWRReadFlag_
0040d910       DWRGetAbbrev_
0040d950       DWRLookupAbbrev_
0040d970*      DWRReadAbbrev_
0040d990       DWRCopyString_
0040d9b0+      DWRCopyDbgSecString_
0040d9e0       DWRScanForAttrib_
0040da20       DWRGetCompileUnitHdr_
0040da80       DRGetCompileUnitTag_
0040da90       DWRGetName_
0040db40       DRIterateCompileUnits_
0040db70*      DWRScanAllCompileUnits_
0040dc70       DWRWalkCompileUnit_
0040dce0       DWRWalkChildren_
0040de20       DWRWalkContaining_
0040df40       DWRWalkSiblings_
0040e020       DWRWalkScope_
0040e1a0       DWRFindCompileInfo_
0040e1d0       DWRFindCompileUnit_
0040e1e0+      DWRContextPush_
0040e250+      DWRContextPop_
0040e290       DWRContext_
0040e2b0       DWRFreeContextStack_
Module: dwarfr.lib(/mnt/sda5/.user/root/src/openwatcom-1.9/bld/dwarf/dr/c/drline.c)
0040e720       DRGetStmtList_
0040e780       DRWalkLines_
0040e800       DRWalkLFiles_
Module: /mnt/sda5/.user/root/src/openwatcom-1.9/rel2/lib386/rdos/clib3r.lib(_strcmp)
0040e920       strcmp_
Module: dwarfr.lib(/mnt/sda5/.user/root/src/openwatcom-1.9/bld/dwarf/dr/c/drtype.c)
0040ebf0       DRGetSubrangeInfo_
0040ec60       DRGetBitFieldInfo_
0040ed10       DRGetTypeInfo_
0040f0d0       DRGetAddrClass_
0040f160       DRGetTypeAT_
0040f1b0       DRGetArrayInfo_
0040f2c0       DRSkipTypeChain_
0040f350       DRWalkStruct_
0040f370       DRWalkArraySibs_
0040f390       DRWalkEnum_
0040f3b0       DRConstValAT_
Module: dwarfr.lib(/mnt/sda5/.user/root/src/openwatcom-1.9/bld/dwarf/dr/c/drloc.c)
00410120       DRLocBasedAT_
004101f0       DRLocationAT_
00410290       DRParmEntryAT_
00410300       DRStringLengthAT_
00410340       DRRetAddrLocation_
00410390       DRSegLocation_
Module: /mnt/sda5/.user/root/src/openwatcom-1.9/rel2/lib386/rdos/clib3r.lib(memcmp.c)
004103e0       memcmp_
Module: /mnt/sda5/.user/root/src/openwatcom-1.9/rel2/lib386/rdos/clib3r.lib(memicmp.c)
00410400       memicmp_
Module: dwarfr.lib(/mnt/sda5/.user/root/src/openwatcom-1.9/bld/dwarf/dr/c/drdecnam.c)
00410770*      DRDecorateLabel_
004108f0       DRDecoratedName_
00410920*      DRDecoratedNameList_
Module: /mnt/sda5/.user/root/src/openwatcom-1.9/rel2/lib386/rdos/clib3r.lib(strncpy.c)
00413b70       strncpy_
Module: /mnt/sda5/.user/root/src/openwatcom-1.9/rel2/lib386/rdos/clib3r.lib(memmove.c)
00413bb0       memmove_
Module: /mnt/sda5/.user/root/src/openwatcom-1.9/rel2/lib386/rdos/clib3r.lib(qsort.c)
00413c60       qsort_
Module: /mnt/sda5/.user/root/src/openwatcom-1.9/rel2/lib386/rdos/clib3r.lib(istable.c)
00414310       __IsTable
Module: /mnt/sda5/.user/root/src/openwatcom-1.9/rel2/lib386/rdos/clib3r.lib(tolower.c)
00414420       tolower_
Module: /mnt/sda5/.user/root/src/openwatcom-1.9/rel2/lib386/rdos/clib3r.lib(itoa.c)
00414430+      utoa_
00414480       itoa_
Module: /mnt/sda5/.user/root/src/openwatcom-1.9/rel2/lib386/rdos/clib3r.lib(toupper.c)
004144b0       toupper_
Module: /mnt/sda5/.user/root/src/openwatcom-1.9/rel2/lib386/rdos/clib3r.lib(strncmp.c)
004144c0       strncmp_
Module: /mnt/sda5/.user/root/src/openwatcom-1.9/rel2/lib386/rdos/clib3r.lib(__stos)
004144f0       __STOSB
00414527*      __STOSD
Module: dwarfr.lib(/mnt/sda5/.user/root/src/openwatcom-1.9/bld/dwarf/dr/c/virtmem.c)
004145a0       DWRVMInit_
00414600*      DWRVMReset_
00414780       DWRVMAlloc_
00414790*      DWRVMFree_
004147c0*      DRSwap_
004148a0       DWRVMDestroy_
004149b0       DWRVMSwap_
00414a30       DWRVMSectDone_
00414a50       DWRVMRead_
00414af0       DWRVMReadByte_
00414c70       DWRVMReadSLEB128_
00414c80       DWRVMReadULEB128_
00414d40       DWRVMSkipLEB128_
00414e30       DWRVMReadWord_
00414f00       DWRVMReadDWord_
00415030       DWRStrLen_
004150c0       DWRGetString_
00415150       DWRGetStrBuff_
Module: dwarfr.lib(/mnt/sda5/.user/root/src/openwatcom-1.9/bld/dwarf/dr/c/drgettab.c)
00415230       DWRInitFileTable_
00415250       DWRFiniFileTable_
004152c0+      DWRAddFileName_
00415330*      DWRAddIndex_
00415350*      DWRIndexPath_
00415360       DWRIndexFile_
00415370       DWRIndexFileName_
00415400       DWRScanFileTable_
004155f0       DWRFindFileName_
0041a080       _FileNameTable
Module: dwarfr.lib(/mnt/sda5/.user/root/src/openwatcom-1.9/bld/dwarf/dr/c/drscope.c)
004156f0       DRGetScopeList_
00415730       DREndScopeList_
Module: /mnt/sda5/.user/root/src/openwatcom-1.9/rel2/lib386/rdos/clib3r.lib(strrev.c)
00415760       strrev_
Module: dwarfr.lib(/mnt/sda5/.user/root/src/openwatcom-1.9/bld/dwarf/dr/c/drfdkids.c)
004157b0+      DRKidsSearch_
00415a00       DRBaseSearch_
00415b10*      DRDerivedSearch_
00415c20*      DRFriendsSearch_
00415c50+      DRGetSymType_
Module: /mnt/sda5/.user/root/src/openwatcom-1.9/rel2/lib386/rdos/clib3r.lib(strncat.c)
00415cc0       strncat_
Module: /mnt/sda5/.user/root/src/openwatcom-1.9/rel2/lib386/rdos/clib3r.lib(ltoa.c)
00415d00       ultoa_
00415d50       ltoa_
Module: /mnt/sda5/.user/root/src/openwatcom-1.9/rel2/lib386/rdos/clib3r.lib(fsfd386)
00415d74       __FSFD
Module: /mnt/sda5/.user/root/src/openwatcom-1.9/rel2/lib386/math3r.lib(gcvt.c)
00415def       gcvt_
Module: /mnt/sda5/.user/root/src/openwatcom-1.9/rel2/lib386/rdos/clib3r.lib(alphabet.c)
00419004       ___Alphabet
Module: /mnt/sda5/.user/root/src/openwatcom-1.9/rel2/lib386/math3r.lib(fdld386)
00415f00       __iFDLD
Module: /mnt/sda5/.user/root/src/openwatcom-1.9/rel2/lib386/math3r.lib(ldcvt.c)
0041603c+      _LDScale10x_
004165e1       __LDcvt_
Module: /mnt/sda5/.user/root/src/openwatcom-1.9/rel2/lib386/rdos/clib3r.lib(fstat386)
004169c8*      F8UnderFlow
004169ca*      F4UnderFlow
004169cd       F8InvalidOp
004169d9       F8DivZero
00416a05*      F4DivZero
004169e5*      F8OverFlow
00416a11*      F4OverFlow
004169e5*      F8RetInf_
004169e5*      _F8RetInf_
Module: /mnt/sda5/.user/root/src/openwatcom-1.9/rel2/lib386/math3r.lib(fldm386)
00416a30       __FLDM
00416af6*      ___LDM
Module: /mnt/sda5/.user/root/src/openwatcom-1.9/rel2/lib386/math3r.lib(fldd386)
00416c0c       __FLDD
00416cac*      ___LDD
Module: /mnt/sda5/.user/root/src/openwatcom-1.9/rel2/lib386/math3r.lib(ldclass.c)
00416e67       __LDClass_
00416eb7*      _FLClass_
Module: /mnt/sda5/.user/root/src/openwatcom-1.9/rel2/lib386/math3r.lib(ldi4386)
00416f25       __LDI4
00416f2a*      __LDU4
00416ed0*      __RLDU4
Module: /mnt/sda5/.user/root/src/openwatcom-1.9/rel2/lib386/math3r.lib(i4ld386)
00416f94       __I4LD
00416fa5*      __U4LD
Module: /mnt/sda5/.user/root/src/openwatcom-1.9/rel2/lib386/math3r.lib(flda386)
00417006*      __FLDA
00417030*      __FLDAC
00416fdc       __FLDS
004170e2*      ___LDA
Module: /mnt/sda5/.user/root/src/openwatcom-1.9/rel2/lib386/rdos/clib3r.lib(seterrno.c)
0041726c       __set_errno_
0041727a*      __set_EDOM_
00417288       __set_ERANGE_
00417296*      __set_EINVAL_
004172a9*      __set_doserrno_
Module: /mnt/sda5/.user/root/src/openwatcom-1.9/rel2/lib386/rdos/clib3r.lib(fpexcept.c)
004172c0       __FPE_exception_
Module: /mnt/sda5/.user/root/src/openwatcom-1.9/rel2/lib386/rdos/clib3r.lib(mainrdu.c)
00419338*      ___TlsIndex
0041933c+      __LpDllName
00419340+      ___FirstThreadData
00419344       ___GetThreadPtr
00419348*      __AccessFileH
0041934c*      __ReleaseFileH
00419350*      __AccessIOB
00419354*      __ReleaseIOB
00419358*      __AccessNHeap
0041935c*      __AccessFHeap
004172e0*      __threadid_
00417300+      __sig_null_rtn_
00417310*      __RdosInit_
004173f0       __exit_
00419360*      __ReleaseNHeap
00419364*      __ReleaseFHeap
00419368*      __AccessTDList
0041936c*      __ReleaseTDList
00419370*      __AccessFList
00419374*      __ReleaseFList
00419378       ___sig_init_rtn
0041937c       ___sig_fini_rtn
0041a128+      ___Is_DLL
Module: /mnt/sda5/.user/root/src/openwatcom-1.9/rel2/lib386/rdos/clib3r.lib(crwdata)
004193b4       __osmajor
004193b5       __osminor
00419388       __LpCmdLine
0041938c*      __LpPgmName
00419380*      __dynend
00419384*      __curbrk
00419390*      __STACKLOW
00419394*      __STACKTOP
00419398*      __ASTACKSIZ
0041939c*      __ASTACKPTR
004193a0*      __cbyte
004193a4*      __cbyte2
004193a8*      __child
004193ae*      __Envptr
004193b2*      __Envseg
004193ac*      __no87
004193b6       ___FPE_handler
Module: /mnt/sda5/.user/root/src/openwatcom-1.9/rel2/lib386/rdos/clib3r.lib(excptrdu.c)
00417a10+      __ReportException_
00417d70+      ___ExceptionFilter
00417f50*      __NewExceptionFilter_
00417f80       __DoneExceptionFilter_
004193bc       ___oscode_check_func
004193c0       ___raise_func
0041a12c*      _sw
0041a130+      ___ExceptionHandled
0041a131+      ___ReportInvoked
Module: /mnt/sda5/.user/root/src/openwatcom-1.9/rel2/lib386/rdos/clib3r.lib(initrtns.c)
00417fd0*      __InitRtns
00418020       __FiniRtns
Module: /mnt/sda5/.user/root/src/openwatcom-1.9/rel2/lib386/rdos/clib3r.lib(fclex387.c)
00418080       _ClearFPE_
Module: /mnt/sda5/.user/root/src/openwatcom-1.9/rel2/lib386/rdos/clib3r.lib(signlrdu.c)
00418090+      __SetSignalFunc_
004180e0+      __GetSignalFunc_
00418110+      __GetSignalOSCode_
00418140+      __CheckSignalExCode_
00418160+      __sigabort_
00418170       __sigfpe_handler_
004181c0*      signal_
00418230+      raise_
004182a0+      __SigInit_
004182f0+      __SigFini_
00418320+      __sig_init_
004193d8+      __SignalTable
Module: /mnt/sda5/.user/root/src/openwatcom-1.9/rel2/lib386/rdos/clib3r.lib(segdefns)
00401003*      ___begtext
00419000*      __nullarea
00419444       __Start_XI
0041944a       __End_XI
0041944a       __Start_YI
0041944a       __End_YI
Module: /mnt/sda5/.user/root/src/openwatcom-1.9/rel2/lib386/rdos/clib3r.lib(abort.c)
00418355*      abort_
00418367       __terminate_
00419440       ___abort
Module: /mnt/sda5/.user/root/src/openwatcom-1.9/rel2/lib386/rdos/clib3r.lib(dosseg)
00001234       __DOSseg__
Module: /mnt/sda5/.user/root/src/openwatcom-1.9/rel2/lib386/rdos/clib3r.lib(xmsgrdu.c)
00418390*      __exit_with_msg_
00418390       __fatal_runtime_error_


                        +----------------------+
                        |   Imported Symbols   |
                        +----------------------+

Symbol                              Module
======                              ======



                        +--------------------+
                        |   Libraries Used   |
                        +--------------------+

dwarfr.lib
/mnt/sda5/.user/root/src/openwatcom-1.9/rel2/lib386/rdos/clib3r.lib
/mnt/sda5/.user/root/src/openwatcom-1.9/rel2/lib386/math3r.lib


                        +-----------------------+
                        |   Linker Statistics   |
                        +-----------------------+

Stack size:  0000 (0.)
Memory size:  000184ed (99565.)
Entry point address: 00000000
Link time: 00:00.00
