Open Watcom Linker Version 1.9
Portions Copyright (c) 1985-2002 Sybase, Inc. All Rights Reserved.
Created on:       12/12/16 02:42:19
Executable Image: wprof.exe
creating a Linux x86 executable


                        +------------+
                        |   Groups   |
                        +------------+

Group                           Address              Size
=====                           =======              ====

DGROUP                          0808c000             00006078



                        +--------------+
                        |   Segments   |
                        +--------------+

Segment                Class          Group          Address         Size
=======                =====          =====          =======         ====

BEGTEXT                CODE           AUTO           08048100        00000007
_TEXT                  CODE           AUTO           08048110        000437e0
_NULL                  BEGDATA        DGROUP         0808c000        00000004
_AFTERNULL             BEGDATA        DGROUP         0808c004        00000000
CONST                  DATA           DGROUP         0808c004        0000004c
CONST2                 DATA           DGROUP         0808c050        00000000
_DATA                  DATA           DGROUP         0808c050        00002439
XIB                    DATA           DGROUP         0808e48a        00000000
XI                     DATA           DGROUP         0808e48a        0000001e
XIE                    DATA           DGROUP         0808e4a8        00000000
YIB                    DATA           DGROUP         0808e4a8        00000000
YI                     DATA           DGROUP         0808e4a8        0000000c
YIE                    DATA           DGROUP         0808e4b4        00000000
TIB                    DATA           DGROUP         0808e4b4        00000000
TI                     DATA           DGROUP         0808e4b4        00000000
TIE                    DATA           DGROUP         0808e4b4        00000000
DATA                   DATA           DGROUP         0808e4b4        00000000
_BSS                   BSS            DGROUP         0808f000        00003078


                        +----------------+
                        |   Memory Map   |
                        +----------------+

* = unreferenced symbol
+ = symbol only referenced locally

Address        Symbol
=======        ======

Module: srcmgt.obj(/mnt/sda5/.user/root/src/openwatcom-1.9/bld/watcom/c/srcmgt.c)
080481a0*      FClearOpenSourceCache_
080481c0       FOpenSource_
08048250*      FSize_
08048280*      FLastOffset_
080482a0*      FileIsRemote_
080482b0*      FGetName_
080482c0       FDoneSource_
080484d0*      FCurrLine_
080484e0       FReadLine_
0808c050+      _FileList
Module: aboutmsg.obj(/mnt/sda5/.user/root/src/openwatcom-1.9/bld/wprof/c/aboutmsg.c)
08048630       AboutOpen_
08048680*      AboutClose_
08048720       AboutSetOff_
08048740       DlgAbout_
0808c05c+      _AboutInfo
Module: clrsamps.obj(/mnt/sda5/.user/root/src/openwatcom-1.9/bld/wprof/c/clrsamps.c)
08048800       ClearMassaged_
08048860       ClearRoutineInfo_
080488c0       ClearFileInfo_
08048920       ClearModuleInfo_
08048980       ClearSample_
08048b80*      ClearAllSamples_
Module: dipinter.obj(/mnt/sda5/.user/root/src/openwatcom-1.9/bld/wprof/c/dipinter.c)
08048db0       DIPCliImageUnload_
08048dc0       DIPCliMapAddr_
08048dd0       DIPCliSymCreate_
08048de0       DIPCliItemLocation_
08048df0       DIPCliAssignLocation_
08048e00       DIPCliSameAddrSpace_
08048e90       DIPCliAddrSection_
08048ea0       DIPCliStatus_
08048eb0       DIPCliCurrMAD_
08048ec0       WPDipInit_
08048f40       WPDipProc_
08048f50       WPDipDestroyProc_
08048f60       WPDipSetProc_
08048f70       WPDipLoadInfo_
08049010       WPDipFini_
Module: diginter.obj(/mnt/sda5/.user/root/src/openwatcom-1.9/bld/wprof/c/diginter.c)
080490a0       DIGCliAlloc_
080490b0       DIGCliRealloc_
080490c0       DIGCliFree_
080490d0       DIGCliOpen_
08049110       DIGCliSeek_
08049120       DIGCliRead_
08049130       DIGCliWrite_
08049140       DIGCliClose_
08049150       DIGCliRemove_
08049160       DIGCliMachineData_
Module: dlgcnvt.obj(/mnt/sda5/.user/root/src/openwatcom-1.9/bld/wprof/c/dlgcnvt.c)
080492a0       DlgGetConvert_
0808c264       _OptDIFFormat
0808c265+      _OptCommaFormat
0808f104       _ConvertFile
Module: dlgoptn.obj(/mnt/sda5/.user/root/src/openwatcom-1.9/bld/wprof/c/dlgoptn.c)
08049620       DlgGetOptions_
0808c498+      _OptStretchGlobal
0808c499+      _OptAbsBarGlobal
0808c49a+      _OptRelBarGlobal
0808c49b+      _OptSortCountGlobal
0808c49c+      _OptSortNameGlobal
0808c49d+      _OptGatherGlobal
0808c4a0       _OptGatherCut
Module: dlgsamp.obj(/mnt/sda5/.user/root/src/openwatcom-1.9/bld/wprof/c/dlgsamp.c)
08049990       WPSampFound_
08049a30       DlgOpenSample_
Module: getsamps.obj(/mnt/sda5/.user/root/src/openwatcom-1.9/bld/wprof/c/getsamps.c)
0804a390       GetSampleInfo_
0808f108       _SIOData
0808f10c       _CurrSIOData
Module: madinter.obj(/mnt/sda5/.user/root/src/openwatcom-1.9/bld/wprof/c/madinter.c)
0804a6e0       MADCliAddrSection_
0804a6f0       MADCliAddString_
0804a6f0       MADCliMemExpr_
0804a6f0       MADCliAddrOvlReturn_
0804a700       MADCliAddrToString_
0804a7a0       MADCliReadMem_
0804a7e0       MADCliWriteMem_
0804a7f0       MADCliString_
0804a840       MADCliRadixPrefix_
0804a860       MADCliNotify_
0804a880       MADCliSystemConfig_
0804a890       InitMADInfo_
0804a8b0       FiniMADInfo_
0804a8e0+      ReportMADFailure_
0804aa20       SetCurrentMAD_
0808c4a8       _DefSysConfig
0808f110+      _MADStatus
Module: memutil.obj(/mnt/sda5/.user/root/src/openwatcom-1.9/bld/wprof/c/memutil.c)
0804aac0       ProfAlloc_
0804aac0       WndAlloc_
0804aad0       WndNoMemory_
0804aae0       WndFree_
0804aae0       ProfFree_
0804aaf0       ProfRealloc_
0804aaf0       WndRealloc_
0804ab10       ProfCAlloc_
0804ab30*      WndMemFini_
0804ab30*      WndMemInit_
Module: msg.obj(/mnt/sda5/.user/root/src/openwatcom-1.9/bld/wprof/c/msg.c)
0804ad30       ErrorMsg_
0804ad50       fatal_
Module: msgstr.obj(/mnt/sda5/.user/root/src/openwatcom-1.9/bld/wprof/c/msgstr.c)
0804ad90       __Literal_Assertion_Failed
0804ada3       __Literal_Cannot_Open_Smp_File
0804adbf       __Literal_Cannot_Process_Ovly
0804adeb       __Literal_Dip_Find_Failed
0804ae11       __Literal_Dip_Info_Failed
0804ae43       __Literal_Dip_Init_Failed
0804ae76       __Literal_Dip_Load_Failed
0804ae9f       __Literal_Exe_Has_Changed
0804aecb       __Literal_Exe_Not_Found
0804aee6       __Literal_Incompat_Smp_File
0804af0a       __Literal_Incompat_Ver_Ovly
0804af49       __Literal_Invalid_Smp_File
0804af69       __Literal_Memfull
0804af77       __Literal_Memfull_Realloc
0804af93       __Literal_Smp_File_IO_Err
0804afb9*      __Literal_Usage
0804afde       __Literal_Usage1
0804b003       __Literal_Usage2
0804b024       __Literal_Usage3
0804b036       __Literal_Usage4
0804b03d       __Literal_Usage5
0804b047*      __Literal_Usage6
0804b05e*      __Literal_Usage7
0804b073*      __Literal_Usage8
0804b084       __Literal_Empty_Str
0804b085       __Literal_File_Does_Not_Exist
0804b09e*      __Literal_Bad_System_Load
0804b0c4       __Literal_About_WPROF
0804b0d0       __Literal_WPROF_TITLE
0804b0e5       __Literal_Enter_Sample
0804b0fc*      __Literal_OK_Str
0804b0ff*      __Literal_Cancel_Str
0804b106       __Literal_Unknown_Image
0804b117       __Literal_Unknown_Module
0804b129       __Literal_Unknown_File
0804b139       __Literal_Unknown_Routine
0804b14c       __Literal_Gathered_Images
0804b15f       __Literal_Gathered_Modules
0804b173       __Literal_Gathered_Files
0804b185       __Literal_Gathered_Routines
0804b19a       __Literal_No_Symbol_Info
0804b1c0       __Literal_No_Routine_Names
0804b1e0       __Literal_Src_File_Not_Found
0804b1fb       __Literal_Src_File_Not_Known
0804b214       __Literal_Rel_Header
0804b219       __Literal_Abs_Header
0804b21e       __Literal_Sample_Data
0804b229*      __Literal_Smp_File_Raw_Err
0804b25d       __Literal_Sample_Header
0804b267       __Literal_Image_Header
0804b270       __Literal_Module_Header
0804b27a       __Literal_File_Header
0804b282       __Literal_Routine_Header
0804b28d       __Literal_Source_Header
0804b29a       __Literal_Image_Names
0804b2a6       __Literal_Module_Names
0804b2b3       __Literal_File_Names
0804b2be       __Literal_Routine_Names
0804b2cc       __Literal_Source_Line
0804b2d8       __Literal_Assembler_Instructions
0804b2ef       __Literal_Options
0804b2f7       __Literal_Cmd_Option_Not_Valid
0804b31d       __Literal_Unable_To_Open_Src
0804b338       __Literal_Unable_To_Open_Help
0804b356       __Literal_Convert_Data
0804b36d       __Literal_Convert_File_Name
0804b385       __Literal_Mad_Init_Failed
0804b3b6       __Literal_LDS_FSEEK_FAILED
0804b3c7       __Literal_LDS_FREAD_FAILED
0804b3d8       __Literal_LDS_FOPEN_FAILED
0804b3e9       __Literal_LMS_INVALID_MAD_VERSION
0804b40e       __Literal_LMS_INVALID_MAD
0804b430       __Literal_LMS_UNREGISTERED_MAD
0804b44d       __Literal_LMS_RECURSIVE_MAD_FAILURE
Module: rptsamps.obj(/mnt/sda5/.user/root/src/openwatcom-1.9/bld/wprof/c/rptsamps.c)
0804c3d0       ReportSampleInfo_
Module: setsamps.obj(/mnt/sda5/.user/root/src/openwatcom-1.9/bld/wprof/c/setsamps.c)
0804c9e0       AddrCmp_
0804ca00       GatherSetAll_
0804cb00       AbsSetAll_
0804cc70       RelSetAll_
0804cde0       StretchSetAll_
0804cf40       SortSetAll_
0804d900       SetSampleInfo_
Module: support.obj(/mnt/sda5/.user/root/src/openwatcom-1.9/bld/wprof/c/support.c)
0804d9c0       AsmSize_
0804d9f0       AsmFini_
0804da00       ExeOpen_
0804da10       ExeClose_
0804daf0       SetExeOffset_
0804e0c0       SetExeImage_
0804e110       SetExeFile_
0804ea10       AddrImage_
0804eae0       MapAddressToActual_
0804eb60+      MapAddressToMap_
0804ebf0       MapAddressIntoSection_
0804f230       LoadImageOverlays_
0804f310       SetNumBytes_
0804f320       CodeAdvance_
0804f430       FormatAddr_
0804f4b0       GetFullInstruct_
0804f5f0       CnvAddr_
0804f690       IsX86BigAddr_
0804f6a0       IsX86RealAddr_
0804f6c0       GetDataByte_
0804f6e0       EndOfSegment_
Module: utils.obj(/mnt/sda5/.user/root/src/openwatcom-1.9/bld/wprof/c/utils.c)
0804f740       ReplaceExt_
0804f7d0       FindFile_
0804f8a0       FullPathOpen_
0804f960       PathOpen_
0804f980       InitPaths_
0804fab0+      AddPath_
0804fba0       BigRead_
0804fbb0       Ring_
0808c5f0       _HelpPathList
0808c5f4+      _FilePathList
0808c5f8+      _DipExePathList
Module: wndimain.obj(/mnt/sda5/.user/root/src/openwatcom-1.9/bld/wprof/c/wndimain.c)
0804fbd0       WndInitWndMain_
Module: wpasmfil.obj(/mnt/sda5/.user/root/src/openwatcom-1.9/bld/wprof/c/wpasmfil.c)
0804fbf0       WPGetAsmLoc_
0804fc70       WPAsmOpen_
0804fff0       WPAsmClose_
08050090       WPAsmGetLine_
080501a0       WPAsmFindSrcLine_
Module: wpavals.obj(/mnt/sda5/.user/root/src/openwatcom-1.9/bld/wprof/c/wpavals.c)
0808c5fc       _WndColours
0808c630       _WndNumColours
0808c634       _WndPlainAttr
0808c635       _WndTabStopAttr
0808c636       _WndSelectedAttr
0808c637       _WndCursorAttr
0808c638*      _WndStatusColour
0808c63c       _WndFlags
0808c640       _WndStyle
Module: wpbar.obj(/mnt/sda5/.user/root/src/openwatcom-1.9/bld/wprof/c/wpbar.c)
080501e0       GetCurrentAbsBar_
08050250       GetCurrentRelBar_
080502c0       GetCurrentMaxBar_
08050340       FlipCurrentAbsBar_
08050400       FlipCurrentRelBar_
080504c0       FlipCurrentMaxBar_
Module: wpcnvt.obj(/mnt/sda5/.user/root/src/openwatcom-1.9/bld/wprof/c/wpcnvt.c)
08050b40       WPConvert_
Module: wpdriver.obj(/mnt/sda5/.user/root/src/openwatcom-1.9/bld/wprof/c/wpdriver.c)
08050db0       WndMainMenuProc_
08050e60       OpenSample_
0808c764       _WndMainMenu
0808c7dc       _WndNumMenus
Module: wpgather.obj(/mnt/sda5/.user/root/src/openwatcom-1.9/bld/wprof/c/wpgather.c)
08050e90       GetCurrentGather_
08050ee0       FlipCurrentGather_
08050f70       GatherCurrent_
08050fd0+      GatherImage_
080510b0+      GatherMod_
08051180+      GatherFile_
08051250+      GatherRtn_
Module: wpgetrow.obj(/mnt/sda5/.user/root/src/openwatcom-1.9/bld/wprof/c/wpgetrow.c)
08051320       SImageGetImage_
08051370       SModGetModule_
080513c0       SFileGetFile_
08051410       SRtnGetRoutine_
08051460       WPGetRow_
Module: wphelp.obj(/mnt/sda5/.user/root/src/openwatcom-1.9/bld/wprof/c/wphelp.c)
08051650       WPInitHelp_
08051670       WPFiniHelp_
08051690       WPProcHelp_
Module: wpmain.obj(/mnt/sda5/.user/root/src/openwatcom-1.9/bld/wprof/c/wpmain.c)
08051710       GUImain_
08051750       WndProcMacro_
Module: wpnumrow.obj(/mnt/sda5/.user/root/src/openwatcom-1.9/bld/wprof/c/wpnumrow.c)
080517a0       SampleNumRows_
Module: wppushin.obj(/mnt/sda5/.user/root/src/openwatcom-1.9/bld/wprof/c/wppushin.c)
08051860*      WPPopPtr_
08051880       WndDoInput_
080518a0+      WPPushEvent_
080518d0*      WPPushPtrEvent_
08051910+      WPPopEvent_
Module: wpsamp.obj(/mnt/sda5/.user/root/src/openwatcom-1.9/bld/wprof/c/wpsamp.c)
08051b00       WPSampleOpen_
080531a0+      WPZoomIn_
08053310+      WPBackOut_
08053330       WPDoPopUp_
08053360       WPFindDoPopUp_
0808c964+      _WPSampleInfo
Module: wpsort.obj(/mnt/sda5/.user/root/src/openwatcom-1.9/bld/wprof/c/wpsort.c)
080536c0       GetCurrentSort_
08053700       SetCurrentSort_
08053760       SortCurrent_
080537a0+      SortImage_
080537d0+      SortMod_
08053800+      SortFile_
08053830+      SortRtn_
Module: wpstart.obj(/mnt/sda5/.user/root/src/openwatcom-1.9/bld/wprof/c/wpstart.c)
0808c9f4       _WPWndInitDone
0808c9f8       _WProfDips
08053990       WPInit_
08053a10       WPFini_
0808f508       _SamplePath
Module: wpsrcfil.obj(/mnt/sda5/.user/root/src/openwatcom-1.9/bld/wprof/c/wpsrcfil.c)
08053d00       WPSourceGetLine_
08053d80       WPSourceOpen_
08053ed0       WPSourceClose_
08053f00       WPGetMassgdSampData_
Module: wpwind.obj(/mnt/sda5/.user/root/src/openwatcom-1.9/bld/wprof/c/wpwind.c)
08054110       WPGetClientHeight_
08054130       WPGetClientWidth_
08054160       WPAdjustRowHeight_
08054210       WPSetRowHeight_
08054220       WPPixelTruncWidth_
08054240       WPPixelWidth_
Module: dipman.obj(/mnt/sda5/.user/root/src/openwatcom-1.9/bld/dig/c/dipman.c)
08054280*      DCSymCreate_
08054280+      XDIPCliSymCreate_
080542a0       DIPInit_
080542f0       DIPLoad_
08054380*      DIPRegister_
080543e0*      DIPFiniLatest_
08054440       DIPFini_
08054490       DIPHandleSize_
080544b0       DIPMoreMem_
080544f0*      DIPCancel_
08054570+      FindImageMapSlot_
080546a0       DIPCreateProcess_
080547f0       DIPSetProcess_
08054800       DIPDestroyProcess_
08054830       DIPPriority_
08054880       DIPLoadInfo_
08054990       DIPMapInfo_
080549f0*      DIPUnloadInfo_
08054a40*      DIPImagePriority_
08054a90+      WalkImageList_
08054b50       WalkModList_
08054bb0*      WalkTypeList_
08054e40+      WalkSymListEx_
08054e70       WalkSymList_
08054e90*      WalkFileList_
08054f40       ImageExtra_
08054f90       ImageDIP_
08054fe0       ModName_
08055040       ModSrcLang_
080550a0*      ModHasInfo_
08055110*      ModDefault_
08055180       ModAddr_
080551f0*      TypeMod_
08055240*      TypeInfo_
080552e0*      TypeCreate_
08055300*      TypePointer_
08055380*      TypeBase_
08055430*      TypeAddRef_
08055480*      TypeRelease_
080554d0*      TypeFreeAll_
08055510*      TypeArrayInfo_
08055590*      TypeProcInfo_
080555f0*      TypePtrAddrSpace_
08055650*      TypeThunkAdjust_
080556b0*      TypeCmp_
08055710*      TypeName_
08055760*      SymMod_
080557a0       SymName_
080557f0*      SymType_
08055840       SymLocation_
08055880*      SymValue_
080558c0       SymInfo_
08055910*      SymParmLocation_
08055960*      SymObjType_
080559b0*      SymObjLocation_
08055a00       SymCmp_
08055a60*      SymAddRef_
08055ab0*      SymRelease_
08055b00*      SymFreeAll_
08055b40*      CueMod_
08055b90       CueFile_
08055bd0       CueFileId_
08055c10*      CueAdjust_
08055c70       CueLine_
08055cb0*      CueColumn_
08055cf0       CueAddr_
08055d60       LineCue_
08055df0       AddrCue_
08055ea0       CueCmp_
08055f00       AddrMod_
08055fc0       AddrSym_
08056080+      LookupSymEx_
080562d0*      LookupSym_
080562e0*      AddrScope_
08056380*      ScopeOuter_
0808ca04       _DIPDefaults
0808ca2a+      _DIPClientInterface
Module: dipld.obj(/mnt/sda5/.user/root/src/openwatcom-1.9/bld/dig/c/linux/dipld.c)
08056630       DIPSysUnload_
08056640       DIPSysLoad_
Module: madman.obj(/mnt/sda5/.user/root/src/openwatcom-1.9/bld/dig/c/madman.c)
0808ca78+      _MADClientInterface
080568c0       MADTypeInfoForHost_
08056950       MADInit_
080569a0       MADRegister_
08056b20       MADLoad_
08056cb0+      MADUnload_
08056d00       MADLoaded_
08056d40       MADActiveSet_
08056d70*      MADStateCreate_
08056dd0*      MADStateSet_
08056e40*      MADStateCopy_
08056e60+      MADStateDestroy_
08056eb0       MADFini_
08056ee0*      MADWalk_
08056f10       MADNameFile_
08056f80*      MADNameDescription_
08057000       MADAddrAdd_
08057040       MADAddrComp_
08057070*      MADAddrDiff_
080570a0*      MADAddrMap_
080570b0*      MADAddrFlat_
080570c0*      MADAddrInterrupt_
080570f0*      MADTypeWalk_
08057120*      MADTypeName_
08057140*      MADTypePreferredRadix_
08057170*      MADTypeForDIPType_
08057190       MADTypeInfo_
080572a0       MADTypeDefault_
08057bd0       MADTypeConvert_
080580d0       MADTypeToString_
08058160*      MADTypeHandleToString_
08058190*      MADRegistersSize_
080581a0*      MADRegistersHost_
080581b0*      MADRegistersTarget_
080581d0*      MADRegSetWalk_
08058200*      MADRegSetName_
08058230*      MADRegSetLevel_
08058240*      MADRegSetDisplayGrouping_
08058260*      MADRegSetDisplayGetPiece_
080582b0*      MADRegSetDisplayModify_
080582d0*      MADRegSetDisplayToggleList_
080582e0*      MADRegSetDisplayToggle_
080582f0*      MADRegModified_
08058310*      MADRegInspectAddr_
08058360+      MADRegWalk_
080584f0*      MADRegFullName_
08058550*      MADRegSpecialGet_
08058580*      MADRegSpecialSet_
080585b0*      MADRegSpecialName_
080585e0*      MADRegFromContextItem_
08058610*      MADRegUpdateStart_
08058640*      MADRegUpdateEnd_
08058660*      MADCallStackGrowsUp_
08058680*      MADCallTypeList_
080586a0*      MADCallBuildFrame_
080586f0*      MADCallReturnReg_
08058730*      MADCallParmRegList_
08058760*      MADCallUpStackSize_
08058770*      MADCallUpStackInit_
080587a0*      MADCallUpStackLevel_
080587e0       MADDisasmDataSize_
08058800*      MADDisasmNameMax_
08058820       MADDisasm_
08058890       MADDisasmFormat_
080588b0       MADDisasmInsSize_
080588d0*      MADDisasmInsUndoable_
08058900*      MADDisasmControl_
08058920*      MADDisasmInsNext_
08058950*      MADDisasmInspectAddr_
080589a0*      MADDisasmMemRefWalk_
080589d0*      MADDisasmToggleList_
080589e0*      MADDisasmToggle_
08058a00*      MADTraceSize_
08058a20*      MADTraceInit_
08058a50*      MADTraceOne_
08058a80*      MADTraceHaveRecursed_
08058ab0*      MADTraceSimulate_
08058ae0*      MADTraceFini_
08058b20*      MADUnexpectedBreak_
Module: madld.obj(/mnt/sda5/.user/root/src/openwatcom-1.9/bld/dig/c/linux/madld.c)
08058d00       MADSysUnload_
08058d10       MADSysLoad_
Module: i64.obj(/mnt/sda5/.user/root/src/openwatcom-1.9/bld/watcom/c/i64.c)
08058db0*      I32ToI64_
08058dc0       U32ToU64_
08058dd0       U64Neg_
08058e00+      U64Add_
08058e20*      U64IncDec_
08058e50+      U64Sub_
08058e70*      U64Mul_
08058ee0       U64Div_
08058fe0*      I64Div_
08059090+      U64Cmp_
080590d0*      U64Test_
080590f0*      I64Cmp_
08059120*      I64Test_
08059150*      I64ShiftR_
080591a0+      U64ShiftR_
08059200*      U64Shift_
08059210+      U64ShiftL_
Module: finger.obj(/mnt/sda5/.user/root/src/openwatcom-1.9/bld/wprof/c/finger.c)
0808cc08       _AboutMessage
0808cc20       _AboutSize
Module: /mnt/sda5/.user/root/src/openwatcom-1.9/bld/aui/linux386/aui.lib(/mnt/sda5/.user/root/src/openwatcom-1.9/bld/aui/c/wndmeth.c)
08059320       NoScroll_
08059320*      WndNoOpen_
08059330+      NoGetLine_
08059340       NoEndPaint_
08059340       NoBegPaint_
08059340       NoNotify_
08059340       NoModify_
08059350       NoRefresh_
08059360       NoMenuItem_
08059370       NoNumRows_
08059380       NoNextRow_
08059390+      NoEventProc_
080593b0       WndMenuItem_
080593d0       WndFiniCacheLines_
08059400       WndKillCacheEntries_
08059460       WndKillCacheLines_
08059610       WndSetCache_
08059660*      WndGetLineAbs_
08059670       WndGetLine_
08059780       WndFirstMenuItem_
080597a0*      WndNoRow_
080597b0       WndModify_
080597d0       WndNotify_
080597f0       WndBegPaint_
08059810       WndEndPaint_
08059830       WndRefresh_
08059850       WndEvent_
08059860       WndNumRows_
08059870       WndNextRow_
0808cc24       _NoInfo
0808f730+      _CacheLine
08090860+      _CacheCurr
Module: /mnt/sda5/.user/root/src/openwatcom-1.9/bld/aui/linux386/aui.lib(/mnt/sda5/.user/root/src/openwatcom-1.9/bld/aui/c/wndcreat.c)
08059880*      WndSetTitleSize_
08059890*      WndSetTitle_
080598a0*      WndGetTitle_
08059af0       WndCreateWithStruct_
08059b20       WndCreateWithStructAndMenuRes_
08059b50       WndInitCreateStruct_
08059b90       WndCreate_
08059bc0       WndDestroy_
08059c40       WndClose_
08059c60*      WndSetMainMenuText_
08059c90*      WndSetIcon_
0808cc5c       _WndMainMenuPtr
08090868       _WndPopupMenuPtr
Module: /mnt/sda5/.user/root/src/openwatcom-1.9/bld/aui/linux386/aui.lib(/mnt/sda5/.user/root/src/openwatcom-1.9/bld/aui/c/wndshrnk.c)
08059ca0*      WndShrinkToMouse_
08059e30*      WndMinimizeWindow_
08059e40*      WndMaximizeWindow_
08059e50       WndIsMinimized_
08059e90*      WndIsMaximized_
08059ea0*      WndRestoreWindow_
08059eb0*      WndGetRect_
08059ec0       WndShowWindow_
08059ed0       WndResizeWindow_
08059ee0       WndShowAll_
Module: /mnt/sda5/.user/root/src/openwatcom-1.9/bld/aui/linux386/aui.lib(/mnt/sda5/.user/root/src/openwatcom-1.9/bld/aui/c/wndutil.c)
08059f60       WndCharCol_
08059f90       WndLastCharCol_
08059fb0       WndPrevCharCol_
08059fc0*      WndPrevChar_
08059fd0       WndCurrToGUIPoint_
08059ff0       WndCoordToGUIPoint_
0805a060       WndPieceIsTab_
0805a090*      WndPieceIsHot_
0805a0c0       WndFindActive_
0805a0f0       WndValid_
0805a120       WndDirty_
0805a130       WndZapped_
0805a150       WndExtentX_
0805a170*      WndFindClass_
0805a190       WndSetWndMax_
0805a1e0       WndNext_
0805a210*      WndForAllClass_
Module: /mnt/sda5/.user/root/src/openwatcom-1.9/bld/aui/linux386/aui.lib(/mnt/sda5/.user/root/src/openwatcom-1.9/bld/aui/c/wndmsg.c)
0805a250       WndDisplayMessage_
Module: /mnt/sda5/.user/root/src/openwatcom-1.9/bld/aui/linux386/aui.lib(/mnt/sda5/.user/root/src/openwatcom-1.9/bld/aui/c/guimain.c)
0809086c+      _WndScale
08090874       _WndMax
0809087c+      _WndScreen
08090884+      _WndClickHook
0809088c       _WndMain
08090890*      _WndSwitches
0808cc60       _WndMaxDirtyRects
0808cc64+      _WndDClick
0808cc68+      _WndIgnoreAllEvents
0805a280*      WndGetDClick_
0805a290*      WndSetDClick_
0805a310*      WndInitWithMenuRes_
0805a3d0       WndInit_
0805a3e0       WndShowWndMain_
0805a3f0       WndFini_
0805a420*      WndInitNumRows_
0805a590*      WndInstallClickHook_
0805add0*      WndArrowCursor_
0805ae00*      WndSetCursor_
0805ae30       WndHourGlass_
0805ae40*      WndHourCursor_
0805ae80       WndMainEventProc_
Module: /mnt/sda5/.user/root/src/openwatcom-1.9/bld/aui/linux386/aui.lib(/mnt/sda5/.user/root/src/openwatcom-1.9/bld/aui/c/wnddlg.c)
0805af30       DlgGetParent_
0805af60       DlgOpen_
0805afa0*      ResDlgOpen_
Module: /mnt/sda5/.user/root/src/openwatcom-1.9/bld/gui/ui/linux386/gui.lib(/mnt/sda5/.user/root/src/openwatcom-1.9/bld/gui/ui/c/guicheck.c)
0805afe0       GUIIsChecked_
0805b030       GUISetChecked_
Module: /mnt/sda5/.user/root/src/openwatcom-1.9/bld/gui/ui/linux386/gui.lib(/mnt/sda5/.user/root/src/openwatcom-1.9/bld/gui/c/guindlg.c)
0805b0a0       GUIDlgBuffGetText_
0805b410*      GUISetModalDlgs_
0805b420       GUIDlgOpen_
0805b450       GUIModalDlgOpen_
0805b480*      GUISysModalDlgOpen_
Module: /mnt/sda5/.user/root/src/openwatcom-1.9/bld/gui/ui/linux386/gui.lib(/mnt/sda5/.user/root/src/openwatcom-1.9/bld/gui/ui/c/guixedit.c)
0805b4b0       GUISetEditText_
0805b560       GUISetText_
0805b680*      GUIClearText_
0805b690*      GUISelectAll_
Module: /mnt/sda5/.user/root/src/openwatcom-1.9/bld/aui/linux386/aui.lib(/mnt/sda5/.user/root/src/openwatcom-1.9/bld/aui/c/wndfdlg.c)
0805b6a0+      DlgGetFileName_
0805b6d0       DlgFileBrowse_
Module: /mnt/sda5/.user/root/src/openwatcom-1.9/bld/gui/ui/linux386/gui.lib(/mnt/sda5/.user/root/src/openwatcom-1.9/bld/gui/ui/c/guifocus.c)
0805b800       GUISetFocus_
Module: /mnt/sda5/.user/root/src/openwatcom-1.9/bld/gui/ui/linux386/gui.lib(/mnt/sda5/.user/root/src/openwatcom-1.9/bld/gui/ui/c/guixdlg.c)
0805b830*      GUISetJapanese_
0805b880       GUIDeleteDialog_
0805b8c0       GUIGetDlgByWnd_
0805b930+      GUIGetControlId_
0805b990       GUIGetDialog_
0805b9a0       GUIGetField_
0805b9e0       GUIPushControlEvents_
0805b9f0       GUIPopControlEvents_
0805ba40       GUIInsertDialog_
0805bad0       GUIRefreshControl_
0805bb30       GUIGetList_
0805bb80       GUIGetFocus_
0805bbf0+      GUIDoFreeField_
0805bd50+      GUIDoAddControl_
0805c040       GUIDeleteField_
0805c1b0       GUIAddAControl_
0805c290       GUIResizeDialog_
0805c390       GUIFocusChangeNotify_
0805c3e0       GUIProcessControlNotify_
0805c470       GUIXCreateDialog_
0805c740       GUIFreeDialog_
0805c790       GUICloseDialog_
0805c7c0       GUIGetDlgRect_
Module: /mnt/sda5/.user/root/src/openwatcom-1.9/rel2/lib386/math387r.lib(strtod.c)
0805cd2c+      __Strtold_
0805ce93       strtod_
Module: /mnt/sda5/.user/root/src/openwatcom-1.9/rel2/lib386/math387r.lib(fchop87)
0805cfd8       __CHP
Module: /mnt/sda5/.user/root/src/openwatcom-1.9/rel2/lib386/linux/emu387.lib(386)
0805cff0       __init_387_emulator
0805cff1*      __fini_387_emulator
Module: /mnt/sda5/.user/root/src/openwatcom-1.9/bld/gui/ui/linux386/gui.lib(/mnt/sda5/.user/root/src/openwatcom-1.9/bld/gui/ui/c/guixsys.c)
0805d000+      GUIWndGetEvent_
0805d020       uistartevent_
0805d030       uidoneevent_
0805d0a0       GUICleanup_
0805d160       GUIXMain_
0805d1a0       GUIXSetupWnd_
0805d1d0       GUISetBackgroundChar_
0805d1e0+      GUISetupStruct1_
0805d200+      GUISetupStruct2_
0805d2d0       GUISetupStruct_
0805d300       GUIXCreateWindow_
0808cd84       _GUICurrWnd
0808cd88       _GUIAllEvents
Module: /mnt/sda5/.user/root/src/openwatcom-1.9/bld/gui/ui/linux386/gui.lib(/mnt/sda5/.user/root/src/openwatcom-1.9/bld/gui/c/guimem.c)
0805d420*      GUIMemPrintLine_
0805d420*      GUIMemPrtUsage_
0805d420       GUIMemClose_
0805d420       GUIMemOpen_
0805d420*      GUIMemRedirect_
0805d430       GUIMemAlloc_
0805d440       GUIMemFree_
0805d450       GUIMemRealloc_
Module: /mnt/sda5/.user/root/src/openwatcom-1.9/bld/gui/ui/linux386/gui.lib(/mnt/sda5/.user/root/src/openwatcom-1.9/bld/gui/c/guiisgui.c)
0805d460       GUIIsGUI_
Module: /mnt/sda5/.user/root/src/openwatcom-1.9/bld/gui/ui/linux386/gui.lib(/mnt/sda5/.user/root/src/openwatcom-1.9/bld/gui/ui/c/guihelp.c)
0805d480       GUIHelpInit_
0805d490       GUIHelpFini_
0805d4b0       GUIShowHelp_
0805d500*      GUIShowHtmlHelp_
0805d510+      GUIDisplayHelp_
0805d560*      GUIDisplayHelpId_
Module: /mnt/sda5/.user/root/src/openwatcom-1.9/bld/aui/linux386/aui.lib(/mnt/sda5/.user/root/src/openwatcom-1.9/bld/aui/c/wndstat.c)
0805d570       WndCreateStatusWindow_
0805d5a0*      WndHaveStatusWindow_
0805d5c0*      WndCloseStatusWindow_
0805d600       WndStatusText_
0805d650       GUIClearStatusText_
0805d670       WndResetStatusText_
0805d680       WndInternalStatusText_
080908c0+      _WndStatusString
Module: /mnt/sda5/.user/root/src/openwatcom-1.9/bld/aui/linux386/aui.lib(/mnt/sda5/.user/root/src/openwatcom-1.9/bld/aui/c/wndscrol.c)
0805d6d0*      WndFixedThumb_
0805d700*      WndSetThumbPercent_
0805d710*      WndSetThumbPos_
0805d720*      WndSetVScrollRange_
0805d730       WndResetScroll_
0805d740*      WndVScrollWidth_
0805d760*      WndHasNumRows_
0805d770       WndSetThumb_
0805d8e0       WndScrollAbs_
0805d8f0       WndScroll_
0805d910       WndSetHScroll_
0805d960+      WndCurrHScrollPos_
0805d9e0       WndHScrollToCurr_
0805da00       WndHScrollNotify_
Module: /mnt/sda5/.user/root/src/openwatcom-1.9/bld/aui/linux386/aui.lib(/mnt/sda5/.user/root/src/openwatcom-1.9/bld/aui/c/wndfront.c)
0805da40       WndToFront_
0805da50*      WndRestoreToFront_
0805da80       WndNextNonIconToFront_
0805daa0*      WndChooseNew_
Module: /mnt/sda5/.user/root/src/openwatcom-1.9/bld/aui/linux386/aui.lib(/mnt/sda5/.user/root/src/openwatcom-1.9/bld/aui/c/wndcurr.c)
0805dae0       WndSetPoint_
0805dd80       WndGetCurrent_
0805ddb0       WndNewCurrent_
0805dde0*      WndMoveCurrent_
0805de40       WndHasCurrent_
0805de50       WndNoCurrent_
0805de70*      WndCurrRow_
0805dea0       WndNextCurrent_
0805df80       WndPrevCurrent_
0805e0a0       WndFirstCurrent_
0805e0c0       WndLastCurrent_
0805e100       WndCheckCurrentValid_
0805e1a0       WndCurrVisible_
0805e250       WndDirtyCurr_
0805e2a0       WndDirtyCurrChar_
0805e2d0       WndSetCurrCol_
Module: /mnt/sda5/.user/root/src/openwatcom-1.9/bld/gui/ui/linux386/gui.lib(/mnt/sda5/.user/root/src/openwatcom-1.9/bld/gui/ui/c/guidrawr.c)
0805e550*      GUIDrawRect_
0805e570*      GUIFillRect_
0805e590       GUIFillBar_
0805e5b0       GUIDrawLine_
0805e670*      GUIDrawRectRGB_
0805e670*      GUIFillRectRGB_
0805e680*      GUIDrawLineRGB_
Module: /mnt/sda5/.user/root/src/openwatcom-1.9/bld/aui/linux386/aui.lib(/mnt/sda5/.user/root/src/openwatcom-1.9/bld/aui/c/wnddirt.c)
0805e7e0       WndDirtyScreenRange_
0805e800       WndDirtyScreenChar_
0805e820       WndDirtyScreenPiece_
0805e840       WndAdjustDirt_
0805e870       WndDirtyScreenRow_
0805e890*      WndDirtyRect_
0805e8d0       WndRowDirty_
0805e910*      WndRowDirtyImmed_
0805e950*      WndPieceDirty_
0805e990*      WndStopRefresh_
0805e9a0+      WndPaintDirt_
0805ed10       WndFreshAll_
0808cda8       _WndDoingRefresh
Module: /mnt/sda5/.user/root/src/openwatcom-1.9/bld/aui/linux386/aui.lib(/mnt/sda5/.user/root/src/openwatcom-1.9/bld/aui/c/wndpop.c)
0805ed80+      CalcMaxId_
0805edd0*      NullPopupMenu_
0805ee60       WndAddPopupMenu_
0805ef60       WndNullPopItem_
0805f070+      WndSelPopPiece_
0805f2b0       WndSelPopItem_
0805f2f0+      WndKeyPopItem_
0805f350       WndPopUp_
0805f3d0+      WndChangeMenuAll_
0805f450       WndMenuEnableAll_
0805f470       WndMenuGrayAll_
0805f4a0*      WndMenuIgnoreAll_
0805f4d0*      WndMenuRespectAll_
0805f4f0+      DoMenuBitOn_
0805f580       WndMenuCheck_
0805f590       WndMenuEnable_
0805f5b0*      WndMenuIgnore_
0805f5c0+      WndCreateFloatingPopup_
0805f610       WndInvokePopUp_
0805f740*      WndKeyPopUp_
0805f770       WndRowPopUp_
0805f7b0*      WndSetMainMenu_
0805f7e0       WndClick_
0805f8b0       WndSetPopup_
0805f940*      WndEnableMainMenu_
0805f9a0*      WndCheckMainMenu_
Module: /mnt/sda5/.user/root/src/openwatcom-1.9/bld/aui/linux386/aui.lib(/mnt/sda5/.user/root/src/openwatcom-1.9/bld/aui/c/wndsel.c)
0805f9f0       WndSelectEvent_
0805fa70       WndSelEnds_
0805fab0       WndSelected_
0805fbf0       WndSelSetStart_
0805fc20       WndSelGetEndPiece_
0805fc60*      WndSelSetEnd_
0805fc80       WndSelPieceChange_
0805fd60       WndSelChange_
0805fd80       WndNoSelect_
0805fe10*      WndSelRow_
0805fe40       SetWndMenuRow_
0805fe90       WndToSelectMode_
0805fed0       WndEndSelectEvent_
08090914       _WndMenuRow
08090918       _WndMenuPiece
Module: /mnt/sda5/.user/root/src/openwatcom-1.9/bld/gui/ui/linux386/gui.lib(/mnt/sda5/.user/root/src/openwatcom-1.9/bld/gui/ui/c/guicrect.c)
0805fee0       GUIGetClientRect_
0805ff00*      GUIGetPaintRect_
Module: /mnt/sda5/.user/root/src/openwatcom-1.9/bld/gui/ui/linux386/gui.lib(/mnt/sda5/.user/root/src/openwatcom-1.9/bld/gui/ui/c/guigscrl.c)
0805ff30*      GUIGetHScrollCol_
0805ff50*      GUIGetVScrollRow_
0805ff70       GUIGetHScroll_
0805ffa0*      GUIGetVScroll_
Module: /mnt/sda5/.user/root/src/openwatcom-1.9/bld/gui/ui/linux386/gui.lib(/mnt/sda5/.user/root/src/openwatcom-1.9/bld/gui/ui/c/guirect.c)
0805ffd0       GUIGetRect_
Module: /mnt/sda5/.user/root/src/openwatcom-1.9/bld/gui/ui/linux386/gui.lib(/mnt/sda5/.user/root/src/openwatcom-1.9/bld/gui/c/guipixel.c)
08060040       GUITruncToPixel_
Module: /mnt/sda5/.user/root/src/openwatcom-1.9/rel2/lib386/math387r.lib(ldcvt.c)
08060136       _LDScale10x_
080606dd       __LDcvt_
Module: /mnt/sda5/.user/root/src/openwatcom-1.9/bld/gui/ui/linux386/gui.lib(/mnt/sda5/.user/root/src/openwatcom-1.9/bld/gui/ui/c/guistext.c)
08060b30       GUISetWindowText_
08060b50*      GUIGetWindowTextLength_
08060b80       GUIGetWindowText_
Module: /mnt/sda5/.user/root/src/openwatcom-1.9/bld/gui/ui/linux386/gui.lib(/mnt/sda5/.user/root/src/openwatcom-1.9/bld/gui/c/guicreat.c)
08060bd0       GUICreateWindow_
0808ce54       _GUIMDI
Module: /mnt/sda5/.user/root/src/openwatcom-1.9/bld/gui/ui/linux386/gui.lib(/mnt/sda5/.user/root/src/openwatcom-1.9/bld/gui/c/guiextra.c)
08060c30       GUISetExtra_
08060c40       GUIGetExtra_
Module: /mnt/sda5/.user/root/src/openwatcom-1.9/bld/aui/linux386/aui.lib(/mnt/sda5/.user/root/src/openwatcom-1.9/bld/aui/c/wndclean.c)
08060c50       WndCleanUp_
Module: /mnt/sda5/.user/root/src/openwatcom-1.9/bld/gui/ui/linux386/gui.lib(/mnt/sda5/.user/root/src/openwatcom-1.9/bld/gui/ui/c/guixwind.c)
08060c90*      GUIWantPartialRows_
08060cb0       GUIFreeWindowMemory_
08060e50       GUIDestroyDialog_
08060e60       GUICloseWnd_
08060e90       GUIDestroyWnd_
08060ea0       GUIGetRow_
08060ed0*      GUIGetCol_
08060f00*      GUIShowWindowNA_
08060f00       GUIShowWindow_
08060f10*      GUIHideWindow_
08060f20*      GUIIsWindowVisible_
08060f30*      GUIIsFirstInstance_
Module: /mnt/sda5/.user/root/src/openwatcom-1.9/bld/gui/ui/linux386/gui.lib(/mnt/sda5/.user/root/src/openwatcom-1.9/bld/gui/ui/c/guimenu.c)
08061090       GUIFreeMenuItems_
080610d0+      GUIAllocMenuItems_
08061290       GUIGetMenuPopupCount_
080612d0       GUIEnableMenuItem_
08061340       GUISetMenuText_
080613d0       GUICheckMenuItem_
08061430       GUIChangeMenu_
080614b0+      GUIGetNumIgnore_
080614e0       GUICreateMenuItems_
08061570+      GUIAllocVBarMenu_
080618a0       GUICreateMenus_
08061920+      GUIFreeVBarMenu_
08061950       GUIFreeMenus_
08061990       GUISetBetweenTitles_
080619a0*      GUIAppendMenuByOffset_
08061ae0       GUIDeleteMenuItem_
08061b70       GUIDeleteToolbarMenuItem_
08061be0       GUIResetMenus_
08061c80*      GUIEnableMenus_
08061d10+      GUIInsertMenu_
08061d90*      GUIInsertMenuByID_
08061e10*      GUIAppendMenu_
08061e60       GUIAppendToolbarMenu_
08061eb0+      AddMenuItemToPopup_
08061f40       GUIAppendMenuToPopup_
08061f60       GUIInsertMenuToPopup_
Module: /mnt/sda5/.user/root/src/openwatcom-1.9/bld/gui/ui/linux386/gui.lib(/mnt/sda5/.user/root/src/openwatcom-1.9/bld/gui/ui/c/guisicon.c)
08061f80       GUISetIcon_
Module: /mnt/sda5/.user/root/src/openwatcom-1.9/bld/gui/ui/linux386/gui.lib(/mnt/sda5/.user/root/src/openwatcom-1.9/bld/gui/ui/c/guimouse.c)
08061fd0       GUIGetMousePosn_
Module: /mnt/sda5/.user/root/src/openwatcom-1.9/bld/gui/ui/linux386/gui.lib(/mnt/sda5/.user/root/src/openwatcom-1.9/bld/gui/ui/c/guisize.c)
080621d0*      GUISetCheckResizeAreaForChildren_
080621f0       GUICheckResizeAreaForChildren_
080622b0       GUICheckResizeAreaForParent_
080625c0       GUICheckMove_
08062750       GUICheckArea_
080628a0       GUIWndMoveSize_
080629d0+      GUICalcIconArea_
08062ba0       GUIZoomWnd_
08062ce0       GUIResizeWindow_
08062d80       GUISetRestoredSize_
08062dd0*      GUIGetRestoredSize_
08062e20       GUIMinimizeWindow_
08062e40       GUIMaximizeWindow_
08062e60       GUIRestoreWindow_
08062e80       GUIIsMaximized_
08062e90       GUIIsMinimized_
Module: /mnt/sda5/.user/root/src/openwatcom-1.9/bld/gui/ui/linux386/gui.lib(/mnt/sda5/.user/root/src/openwatcom-1.9/bld/gui/c/guizlist.c)
08062ec0       GUIDeleteFromList_
08062f00       GUIFrontOfList_
08062f20       GUIGetFront_
08062f30       GUIGetNextWindow_
08062f50       GUIIsValidWindow_
Module: /mnt/sda5/.user/root/src/openwatcom-1.9/bld/gui/ui/linux386/gui.lib(/mnt/sda5/.user/root/src/openwatcom-1.9/bld/gui/ui/c/guiclen.c)
08062f80       GUICharLen_
08062f90*      GUIIsDBCS_
Module: /mnt/sda5/.user/root/src/openwatcom-1.9/bld/gui/ui/linux386/gui.lib(/mnt/sda5/.user/root/src/openwatcom-1.9/bld/gui/ui/c/guixtent.c)
08062fa0       GUIGetExtentX_
08062ff0*      GUIGetControlExtentX_
08063000*      GUIGetControlExtentY_
08063010*      GUIGetExtentY_
Module: /mnt/sda5/.user/root/src/openwatcom-1.9/bld/gui/ui/linux386/gui.lib(/mnt/sda5/.user/root/src/openwatcom-1.9/bld/gui/ui/c/guidirty.c)
08063030       GUIWndDirty_
Module: /mnt/sda5/.user/root/src/openwatcom-1.9/bld/aui/linux386/aui.lib(/mnt/sda5/.user/root/src/openwatcom-1.9/bld/aui/c/wndresiz.c)
080630c0       WndMainResized_
Module: /mnt/sda5/.user/root/src/openwatcom-1.9/bld/gui/ui/linux386/gui.lib(/mnt/sda5/.user/root/src/openwatcom-1.9/bld/gui/ui/c/guixdisp.c)
080631f0+      DisplayMessage_
08063220+      GUIStrnDup_
08063290+      TabFilter_
080634f0+      AdjustVert_
08063660       GUIDisplayMessage_
Module: /mnt/sda5/.user/root/src/openwatcom-1.9/bld/gui/ui/linux386/gui.lib(/mnt/sda5/.user/root/src/openwatcom-1.9/bld/gui/ui/c/guidbclk.c)
08063850       GUISetDClickRate_
Module: /mnt/sda5/.user/root/src/openwatcom-1.9/bld/gui/ui/linux386/gui.lib(/mnt/sda5/.user/root/src/openwatcom-1.9/bld/gui/c/guirscal.c)
08063870       GUIGetRoundScale_
Module: /mnt/sda5/.user/root/src/openwatcom-1.9/bld/gui/ui/linux386/gui.lib(/mnt/sda5/.user/root/src/openwatcom-1.9/bld/gui/c/guiscale.c)
080638d0       GUISetScale_
08063900       GUIGetScale_
08063930       GUISetScreen_
08063950       GUIGetScreen_
08063980+      GUIConvert_
08063a10       GUIConvertRect_
08063a50+      GUIConvertPoint_
08063aa0*      GUIScaleToScreen_
08063ac0       GUIScaleToScreenR_
08063ae0*      GUIScreenToScale_
08063b00       GUIScreenToScaleR_
08063b20       GUIScaleToScreenRPt_
08063b40*      GUIScreenToScaleRPt_
Module: /mnt/sda5/.user/root/src/openwatcom-1.9/bld/gui/ui/linux386/gui.lib(/mnt/sda5/.user/root/src/openwatcom-1.9/bld/gui/ui/c/guixinit.c)
08063b70       GUIGetWindowStyles_
08063b80       GUIWndInit_
08063c90*      GUISetF10Menus_
08063cb0       GUIIsInit_
Module: /mnt/sda5/.user/root/src/openwatcom-1.9/bld/gui/ui/linux386/gui.lib(/mnt/sda5/.user/root/src/openwatcom-1.9/bld/gui/c/guiimmdi.c)
08063cc0       GUIMDIInitMenuOnly_
Module: /mnt/sda5/.user/root/src/openwatcom-1.9/bld/gui/ui/linux386/gui.lib(/mnt/sda5/.user/root/src/openwatcom-1.9/bld/gui/ui/c/guistub.c)
08063d10*      GUIGetEditSelect_
08063d10*      GUISetEditSelect_
08063d10*      GUIIsControlEnabled_
08063d10*      GUIEnableControl_
08063d10*      GUISetHorizontalExtent_
08063d10       GUI3DDialogInit_
08063d10*      GUIFontsSupported_
08063d10*      GUISetSystemFont_
08063d10*      GUISetFontInfo_
08063d10*      GUIChangeFont_
08063d20       GUISetMouseCursor_
08063d20*      GUIGetFontFromUser_
08063d20*      GUIGetFontInfo_
08063d30*      GUIScrollCaret_
08063d30*      GUIShowControl_
08063d30*      GUIHideControl_
08063d30       GUIResetMouseCursor_
Module: /mnt/sda5/.user/root/src/openwatcom-1.9/bld/gui/ui/linux386/gui.lib(/mnt/sda5/.user/root/src/openwatcom-1.9/bld/gui/ui/c/guicolor.c)
08063d60       GUIXSetColours_
08063e20*      GUIGetBack_
08063e30*      GUIGetFore_
08063e40       GUIMakeColour_
08063e50*      GUISetWindowColours_
08063e90       GUISetDialColours_
080641d0       GUIResetDialColours_
08064200       GUISetBackgroundColour_
08064220*      GUIGetDialogColours_
08064270*      GUISetDialogColours_
080642b0+      GetColour_
080642d0       GUIXGetWindowColours_
08064320*      GUIGetRGBFromUser_
08064320*      GUIGetRGB_
08064320*      GUISetRGB_
08064330*      GUIGetWndColour_
08064370*      GUISetWndColour_
Module: /mnt/sda5/.user/root/src/openwatcom-1.9/bld/aui/linux386/aui.lib(/mnt/sda5/.user/root/src/openwatcom-1.9/bld/aui/c/wndsysin.c)
080643a0       WndSysInit_
Module: /mnt/sda5/.user/root/src/openwatcom-1.9/bld/aui/linux386/aui.lib(/mnt/sda5/.user/root/src/openwatcom-1.9/bld/aui/c/wndmnsz.c)
080643b0       WndSetWndMainSize_
Module: /mnt/sda5/.user/root/src/openwatcom-1.9/bld/aui/linux386/aui.lib(/mnt/sda5/.user/root/src/openwatcom-1.9/bld/aui/c/wndbgch.c)
0808d148       _WndBackgroundChar
Module: /mnt/sda5/.user/root/src/openwatcom-1.9/bld/gui/ui/linux386/gui.lib(/mnt/sda5/.user/root/src/openwatcom-1.9/bld/gui/ui/c/guixdraw.c)
080643e0       GUIInitDrawingChars_
08064460       GUIGetCharacter_
08064480*      GUISetCharacter_
08064c00       GUIWndRfrshArea_
08064da0       GUIWndUpdate_
0809093c       _DrawingChars
Module: /mnt/sda5/.user/root/src/openwatcom-1.9/bld/aui/linux386/aui.lib(/mnt/sda5/.user/root/src/openwatcom-1.9/bld/aui/c/wndshthk.c)
08064e00       WndShutDownHook_
Module: /mnt/sda5/.user/root/src/openwatcom-1.9/bld/gui/ui/linux386/gui.lib(/mnt/sda5/.user/root/src/openwatcom-1.9/bld/gui/ui/c/guigetnr.c)
08064e10       GUIGetNumRows_
Module: /mnt/sda5/.user/root/src/openwatcom-1.9/bld/gui/ui/linux386/gui.lib(/mnt/sda5/.user/root/src/openwatcom-1.9/bld/gui/ui/c/guitextm.c)
08064e20       GUIGetTextMetrics_
08064e50       GUIGetDlgTextMetrics_
08064e60*      GUIGetMaxDialogSize_
Module: /mnt/sda5/.user/root/src/openwatcom-1.9/bld/gui/ui/linux386/gui.lib(/mnt/sda5/.user/root/src/openwatcom-1.9/bld/gui/ui/c/guirange.c)
08064ec0       GUISetHScrollRange_
08064ef0*      GUISetVScrollRange_
08064f20*      GUISetHScrollRangeCols_
08064f40       GUISetVScrollRangeRows_
08064f60+      GUIGetVScrollRangeRows_
08064f80*      GUIGetVScrollRange_
08064fb0+      GUIGetHScrollRangeCols_
08064fd0*      GUIGetHScrollRange_
Module: /mnt/sda5/.user/root/src/openwatcom-1.9/bld/aui/linux386/aui.lib(/mnt/sda5/.user/root/src/openwatcom-1.9/bld/aui/c/wndrszhk.c)
08065000       WndResizeHook_
Module: /mnt/sda5/.user/root/src/openwatcom-1.9/bld/aui/linux386/aui.lib(/mnt/sda5/.user/root/src/openwatcom-1.9/bld/aui/c/wndchoos.c)
08065010       WndChooseEvent_
08065070*      WndDoneChoose_
08065080       WndKeyEscape_
080650a0*      WndStartChoose_
080650b0       WndSayMatchMode_
080651d0       WndKeyChoose_
080653c0       WndKeyRubOut_
Module: /mnt/sda5/.user/root/src/openwatcom-1.9/bld/aui/linux386/aui.lib(/mnt/sda5/.user/root/src/openwatcom-1.9/bld/aui/c/wndmouse.c)
08065460*      WndGetMouseRow_
08065520       WndLButtonDown_
08065600       WndLButtonUp_
080656d0       WndLDblClk_
08065750       WndRButtonDown_
08065850       WndRButtonUp_
080658d0       WndMouseButtonIsDown_
080658f0       WndIgnoreMouseMove_
08065910       WndMouseMove_
Module: /mnt/sda5/.user/root/src/openwatcom-1.9/bld/aui/linux386/aui.lib(/mnt/sda5/.user/root/src/openwatcom-1.9/bld/aui/c/wndcrsr.c)
08065990+      WndAtTop_
08065b30       WndScrollUp_
08065b80       WndScrollDown_
08065bd0       WndCursorUp_
08065bf0       WndCursorDown_
08065c30       WndPageUp_
08065c50       WndPageDown_
08065c70       WndTabLeft_
08065cd0       WndCursorLeft_
08065d70       WndTabRight_
08065dd0       WndCursorRight_
08065e60       WndScrollTop_
08065e80       WndScrollBottom_
08065ea0       WndCursorStart_
08065eb0       WndCursorEnd_
Module: /mnt/sda5/.user/root/src/openwatcom-1.9/bld/aui/linux386/aui.lib(/mnt/sda5/.user/root/src/openwatcom-1.9/bld/aui/c/wndfonhk.c)
08065ec0       WndFontHook_
Module: /mnt/sda5/.user/root/src/openwatcom-1.9/bld/gui/ui/linux386/gui.lib(/mnt/sda5/.user/root/src/openwatcom-1.9/bld/gui/ui/c/guistat.c)
08065f30       GUICreateStatusWindow_
08065fb0       GUIResizeStatusWindow_
08066030       GUIDrawStatus_
080660b0       GUIDrawStatusText_
08066110       GUIHasStatus_
08066120       GUIFreeStatus_
08066160       GUIResizeStatus_
08066190       GUICloseStatusWindow_
Module: /mnt/sda5/.user/root/src/openwatcom-1.9/bld/aui/linux386/aui.lib(/mnt/sda5/.user/root/src/openwatcom-1.9/bld/aui/c/wndpaint.c)
08066600+      WndPaintRows_
08066760       WndProcPaint_
08066780*      WndForcePaint_
Module: /mnt/sda5/.user/root/src/openwatcom-1.9/bld/gui/ui/linux386/gui.lib(/mnt/sda5/.user/root/src/openwatcom-1.9/bld/gui/ui/c/guiflush.c)
080667b0       GUIFlushKeys_
Module: /mnt/sda5/.user/root/src/openwatcom-1.9/bld/aui/linux386/aui.lib(/mnt/sda5/.user/root/src/openwatcom-1.9/bld/aui/c/wndchar.c)
080667c0*      WndSetIDChars_
080667d0       WndIDChar_
08066820       WndKeyChar_
Module: /mnt/sda5/.user/root/src/openwatcom-1.9/bld/aui/linux386/aui.lib(/mnt/sda5/.user/root/src/openwatcom-1.9/bld/aui/c/wndqryhk.c)
08066830       WndQueryEndSessionHook_
Module: /mnt/sda5/.user/root/src/openwatcom-1.9/bld/aui/linux386/aui.lib(/mnt/sda5/.user/root/src/openwatcom-1.9/bld/aui/c/wndendhk.c)
08066840       WndEndSessionHook_
Module: /mnt/sda5/.user/root/src/openwatcom-1.9/bld/aui/linux386/aui.lib(/mnt/sda5/.user/root/src/openwatcom-1.9/bld/aui/c/wndtool.c)
08066850*      WndCreateToolBar_
080668c0*      WndCreateToolBarWithTips_
08066930*      WndHaveToolBar_
08066940*      WndCloseToolBar_
08066960*      WndToolHeight_
08066970*      WndToolFixed_
08066980       WndSetToolBar_
08090998+      _ToolHeight
Module: /mnt/sda5/.user/root/src/openwatcom-1.9/bld/aui/linux386/aui.lib(/mnt/sda5/.user/root/src/openwatcom-1.9/bld/aui/c/wndldstr.c)
080669a0       WndLoadString_
Module: /mnt/sda5/.user/root/src/openwatcom-1.9/bld/aui/linux386/aui.lib(/mnt/sda5/.user/root/src/openwatcom-1.9/bld/aui/c/wndspawn.c)
08066a00*      Spawn_
08066a40       SpawnP_
08066a80*      Suicide_
Module: /mnt/sda5/.user/root/src/openwatcom-1.9/bld/gui/ui/linux386/gui.lib(/mnt/sda5/.user/root/src/openwatcom-1.9/bld/gui/c/guidlg.c)
08066ae0       GUICreateDialog_
08066af0       GUICreateResDialog_
08066b10       GUICreateSysModalDialog_
Module: /mnt/sda5/.user/root/src/openwatcom-1.9/bld/gui/ui/linux386/gui.lib(/mnt/sda5/.user/root/src/openwatcom-1.9/bld/gui/ui/c/guigtext.c)
08066bf0       GUIGetText_
08066c10       GUIGetListItem_
Module: /mnt/sda5/.user/root/src/openwatcom-1.9/bld/gui/ui/linux386/gui.lib(/mnt/sda5/.user/root/src/openwatcom-1.9/bld/gui/ui/c/guismetr.c)
08066c20       GUIGetSystemMetrics_
Module: /mnt/sda5/.user/root/src/openwatcom-1.9/bld/gui/ui/linux386/gui.lib(/mnt/sda5/.user/root/src/openwatcom-1.9/bld/gui/c/guisdef.c)
080909a0       ___LITApplIcon
080909a4       ___LITEmpty
080909a8       ___LITBrightGreen
080909ac       ___LITOS2_Dialog_Font
080909b0       ___LITBrightCyan
080909b4       ___LITBrightBlue
080909b8       ___LITBrightRed
080909bc       ___LITBlank
080909c0       ___LITBrightYellow
080909c4       ___LITTable_of_Contents
080909c8       ___LITInternal_Last_Message
080909cc       ___LITBrightWhite
080909d0       ___LITBrightMagenta
080909d4       ___LITWhite
080909d8       ___LITWindows_Dialog_Font
080909dc       ___LITGrey
080909e0       ___LITXNo
080909e4       ___LITXIgnore
080909e8       ___LITBlack
080909ec       ___LITFix_Toolbar_Hint
080909f0       ___LITCyan
080909f4       ___LITBrown
080909f8       ___LITBlue
080909fc       ___LITGreen
08090a00       ___LITExclamation
08090a04       ___LITXAbort
08090a08       ___LITWindow_Name_Hint
08090a0c       ___LITColour
08090a10       ___LITXFix_Toolbar
08090a14       ___LITStop_Bang
08090a18       ___LITMagenta
08090a1c       ___LITRed
08090a20       ___LITXRetry
08090a24       ___LITSelect_Window
08090a28       ___LITXYes
08090a2c       ___LITNexXt
08090a30       ___LITArrange_Icons_Hint
08090a34       ___LITClose
08090a38       ___LITFDlg_Open_Text
08090a3c       ___LITTile_Horz_Hint
08090a40       ___LITCascade_Hint
08090a44       ___LITTile_XVert
08090a48       ___LITTile_Vert_Hint
08090a4c       ___LITTile_XHorz
08090a50       ___LITRestore
08090a54       ___LITMove
08090a58       ___LITMore_Windows_Hint
08090a5c       ___LITXMore_Windows
08090a60       ___LITXClose
08090a64       ___LITSize
08090a68       ___LITXCascade
08090a6c       ___LITMinimize
08090a70       ___LITXArrange_Icons
08090a74       ___LITMaximize
08090a78       ___LITXFix_Tool_Bar
08090a7c       ___LITFile_Exists_Replace
08090a80       ___LITChange_XFont_
08090a84       ___LITCancel
08090a88       ___LITOpen_Failed
08090a8c       ___LITDrives_Colon
08090a90       ___LITFDlg_Save_Text
08090a94       ___LITList_Files_of_Type_Colon
08090a98       ___LITPen_Failed
08090a9c       ___LITFile_Name_Colon
08090aa0       ___LITChange_Font_for_this_window
08090aa4       ___LITMake_Tool_Bar_Fixed
08090aa8       ___LITFloating_Toolbar
08090aac       ___LITInternal_First_Message
08090ab0       ___LITDirectories_Colon
08090ab4       ___LITOK
Module: /mnt/sda5/.user/root/src/openwatcom-1.9/bld/ui/unix/linux386/ui.lib(/mnt/sda5/.user/root/src/openwatcom-1.9/bld/ui/c/uialloc.c)
08066cc0*      UIMemPrintLine_
08066cc0*      UIMemPrtUsage_
08066cc0       UIMemClose_
08066cc0       UIMemOpen_
08066cc0*      UIMemRedirect_
08066cc1       uicalloc_
08066cc6       uimalloc_
08066ccb       uifree_
08066cd0       uirealloc_
Module: /mnt/sda5/.user/root/src/openwatcom-1.9/bld/gui/ui/linux386/gui.lib(/mnt/sda5/.user/root/src/openwatcom-1.9/bld/gui/c/guiutil.c)
08066ce0*      GUIStripTrailingBlanks_
08066d60       GUIStrDup_
08066de0       GUIStoreArgs_
08066e00*      GUIGetArgs_
08066e30*      GUIIsRootWindow_
08066e50       GUIGetRootWindow_
Module: /mnt/sda5/.user/root/src/openwatcom-1.9/bld/ui/unix/linux386/ui.lib(/mnt/sda5/.user/root/src/openwatcom-1.9/bld/ui/c/uidialog.c)
0806746a       uiprintfield_
080674ae+      ui_split_line_
08067550+      uiinitdialog_
08067666*      uifinidialog_
08067724       uireinitdialog_
080677b6       uigetdialogarea_
080677cb       uibegdialog_
0806788f       uiupdatecombobox_
080678fc       uiupdateedit_
08067998+      pulldownfilter_
08067b96+      uidialogexitcurr_
08067bad       uidialogsetcurr_
08067bff       uimovefield_
08067c5b       uiredrawdialog_
08067c97       uiresizedialog_
080680a9+      uihotkeyfilter_
080681a6       uiprocessdialogevent_
08068382       uidialog_
0806848e       uifreedialog_
080684da       uienddialog_
080684f2*      uidialogisdirty_
08068502*      uidialogsetdirty_
Module: /mnt/sda5/.user/root/src/openwatcom-1.9/bld/gui/ui/linux386/gui.lib(/mnt/sda5/.user/root/src/openwatcom-1.9/bld/gui/ui/c/guihotsp.c)
08068520       GUICreateHot_
080685a0       GUIFreeHotSpot_
080685c0       GUISetHotSpotText_
Module: /mnt/sda5/.user/root/src/openwatcom-1.9/bld/gui/ui/linux386/gui.lib(/mnt/sda5/.user/root/src/openwatcom-1.9/bld/gui/ui/c/guifdlg.c)
08068990+      Compare_
08069590+      ProcessOKorDClick_
080698a0+      GetFileNameEvent_
08069a60       GUIGetFileName_
08069b60*      GUIHookFileDlg_
Module: /mnt/sda5/.user/root/src/openwatcom-1.9/bld/gui/ui/linux386/gui.lib(/mnt/sda5/.user/root/src/openwatcom-1.9/bld/gui/ui/c/guicontr.c)
08069b70       GUIAddControl_
08069c10       GUIGetControl_
08069c30       GUIGetControlByIndex_
08069c90       GUIInsertControl_
08069ce0*      GUIDeleteControl_
08069d50       GUIFreeAllControls_
08069dc0*      GUILimitEditText_
08069dd0       GUIResizeControls_
08069e20       GUIProcessControlEvent_
08069e90*      GUIEnumControls_
08069ec0*      GUIGetControlClass_
08069ee0+      GUIGetControlRect_
08069f30*      GUIResizeControl_
08069ff0*      GUIIsControlVisible_
Module: /mnt/sda5/.user/root/src/openwatcom-1.9/bld/ui/unix/linux386/ui.lib(/mnt/sda5/.user/root/src/openwatcom-1.9/bld/ui/c/uilist.c)
08069ffb*      uigetlist_
0806a004*      uiputlist_
0806a011       uipushlist_
0806a04d*      uichecklist_
0806a06f       uipoplist_
0806a093       uiinlist_
0806a0eb*      uiintoplist_
Module: /mnt/sda5/.user/root/src/openwatcom-1.9/bld/gui/ui/linux386/gui.lib(/mnt/sda5/.user/root/src/openwatcom-1.9/bld/gui/ui/c/guilistb.c)
0806a150       GUIClearListBox_
0806a170       GUIListBoxDeleteItem_
0806a230       GUIFreeList_
0806a2a0       GUIFillInListBox_
0806a2c0       GUICreateListBox_
0806a2f0       GUICreateEditMLE_
0806a3c0       GUIListSize_
0806a500       GUIListBoxAddText_
0806a560       GUIListBoxAddTextList_
0806a5e0       GUIGetListBoxText_
0806a610       GUIListCurr_
0806a650       GUIListBoxTopIndex_
0806a680*      GUISetListItemData_
0806a680*      GUIDropDown_
0806a690*      GUIGetListItemData_
Module: /mnt/sda5/.user/root/src/openwatcom-1.9/bld/gui/ui/linux386/gui.lib(/mnt/sda5/.user/root/src/openwatcom-1.9/bld/gui/ui/c/guixutil.c)
0806a6a0*      GUISetRedraw_
0806a6b0       GUIIsOpen_
0806a6c0       GUISetUseArea_
0806a710       GUISetUseWnd_
0806a720       GUIPtInRect_
0806a7e0       GUIOverlap_
0806a800       GUISetDialogArea_
0806a850       GUIAdjustDialogArea_
0806a860       GUIGetSAREA_
0806a890       GUIGetClientSAREA_
0806a8c0       GUISetArea_
0806aad0       GUIMakeEditCopy_
0806ab20       GUIRedrawTitle_
0806ab30       GUIMakeRelative_
0806aba0       GUIJustSetWindowText_
0806abd0*      GUIInArea_
0806ac10       GUIDirtyArea_
0806ac20       GUIGetTopWnd_
0806ac40       GUIGetFirstSibling_
0806ac60       GUIGetParentWindow_
0806ac70       GUIXGetRootWindow_
0806ac90       GUISetCursor_
0806acb0*      GUIUnHookF1_
0806acb0*      GUIHookF1_
Module: /mnt/sda5/.user/root/src/openwatcom-1.9/bld/gui/ui/linux386/gui.lib(/mnt/sda5/.user/root/src/openwatcom-1.9/bld/gui/c/guimkey.c)
0806acd0       GUIMapKey_
0806b130       GUIGetKeyState_
0808d404       _KeyState
Module: /mnt/sda5/.user/root/src/openwatcom-1.9/bld/gui/ui/linux386/gui.lib(/mnt/sda5/.user/root/src/openwatcom-1.9/bld/gui/ui/c/guirdlg.c)
0806b150+      GUIFreeDialogBoxControlPtrs_
0806b1a0+      GUIFreeDialogBoxHeader_
0806bb00       GUICreateDialogFromRes_
Module: /mnt/sda5/.user/root/src/openwatcom-1.9/bld/ui/unix/linux386/ui.lib(/mnt/sda5/.user/root/src/openwatcom-1.9/bld/ui/c/uiyield.c)
0806bd45       uiyield_
Module: /mnt/sda5/.user/root/src/openwatcom-1.9/bld/gui/ui/linux386/gui.lib(/mnt/sda5/.user/root/src/openwatcom-1.9/bld/gui/ui/c/guixloop.c)
0808d410       _GUIUserEvents
0806c050       GUICreatePopup_
0806c6b0       GUIGetMenuWindow_
0806c820       GUIProcessEvent_
Module: /mnt/sda5/.user/root/src/openwatcom-1.9/bld/ui/unix/linux386/ui.lib(/mnt/sda5/.user/root/src/openwatcom-1.9/bld/ui/c/uiforce.c)
0806cdb6       forceevfini_
0806cdb6       forceevinit_
0806cdb7       uiforceevadd_
0806cdf9*      uiforceevflush_
0806ce37       forcedevent_
Module: /mnt/sda5/.user/root/src/openwatcom-1.9/rel2/lib386/math387r.lib(bufld386)
0806ce68       __ZBuf2LD
Module: /mnt/sda5/.user/root/src/openwatcom-1.9/rel2/lib386/math387r.lib(inf_nan.c)
0806cf0b*      ___f_infinity
0806cf0f*      ___f_posqnan
0806cf13       ___d_infinity
0806cf1b       ___d_posqnan
0806cf23*      ___ld_infinity
0806cf2b*      ___ld_posqnan
Module: /mnt/sda5/.user/root/src/openwatcom-1.9/bld/ui/unix/linux386/ui.lib(/mnt/sda5/.user/root/src/openwatcom-1.9/bld/ui/c/uimget.c)
0806cf33       uivgetevent_
0806cf33       uivget_
0806cf3d*      uiungetevent_
0806cf4d*      uiflushevent_
Module: /mnt/sda5/.user/root/src/openwatcom-1.9/bld/gui/ui/linux386/gui.lib(/mnt/sda5/.user/root/src/openwatcom-1.9/bld/gui/ui/c/guiuiev.c)
0806cf60       GUIUIProcessEvent_
Module: /mnt/sda5/.user/root/src/openwatcom-1.9/bld/gui/ui/linux386/gui.lib(/mnt/sda5/.user/root/src/openwatcom-1.9/bld/gui/c/guiev.c)
0806cf70       GUIDoneEventProcessing_
0806cf70       GUIStartEventProcessing_
Module: /mnt/sda5/.user/root/src/openwatcom-1.9/bld/gui/ui/linux386/gui.lib(/mnt/sda5/.user/root/src/openwatcom-1.9/bld/gui/ui/c/guildstr.c)
0806cfe0       GUIIsLoadStrInitialized_
0806cff0       GUILoadStrInit_
0806d0b0       GUILoadStrFini_
0806d0e0       GUILoadString_
0806d120       GUILoadDialogTemplate_
0806d170       GUILoadMenuTemplate_
0808d464       _WResRtns
Module: /mnt/sda5/.user/root/src/openwatcom-1.9/bld/gui/ui/linux386/gui.lib(/mnt/sda5/.user/root/src/openwatcom-1.9/bld/gui/c/guistr.c)
0806d210       GUIInitInternalStringTable_
0806d630       GUIFiniInternalStringTable_
Module: /mnt/sda5/.user/root/src/openwatcom-1.9/bld/gui/ui/linux386/gui.lib(/mnt/sda5/.user/root/src/openwatcom-1.9/bld/gui/c/guideath.c)
0806d8f0       GUIDeath_
Module: /mnt/sda5/.user/root/src/openwatcom-1.9/bld/ui/unix/linux386/ui.lib(/mnt/sda5/.user/root/src/openwatcom-1.9/bld/ui/c/uirefer.c)
0806d8f6       uirefresh_
Module: /mnt/sda5/.user/root/src/openwatcom-1.9/bld/ui/unix/linux386/ui.lib(/mnt/sda5/.user/root/src/openwatcom-1.9/bld/ui/c/uiinit.c)
0806d8fb       uistart_
0806d92e*      uiinit_
0806d94f       uistop_
0806d95e*      uifini_
0806d97a       uiswap_
Module: /mnt/sda5/.user/root/src/openwatcom-1.9/bld/ui/unix/linux386/ui.lib(/mnt/sda5/.user/root/src/openwatcom-1.9/bld/ui/c/uiback.c)
0806da12       uirestorebackground_
0806da3f       openbackground_
0806da74       closebackground_
0806da81+      uibackgroundbuffer_
0806dabf*      uiremovebackground_
0806daf8*      uikeepbackground_
Module: /mnt/sda5/.user/root/src/openwatcom-1.9/bld/gui/ui/linux386/gui.lib(/mnt/sda5/.user/root/src/openwatcom-1.9/bld/gui/c/guihook.c)
0806db50       GUISetHotSpotCleanup_
0806db60       GUICleanupHotSpots_
0806db80*      GUISetXChangeTitle_
0806db90       GUIXChangeTitle_
0806dbb0       GUISetXInitMDI_
0806dbc0       GUIXInitMDI_
0806dbe0       GUISetInitMDI_
0806dbf0       GUIInitMDI_
0806dc10       GUIChangeMDITitle_
0806dc30       GUISetMDIChangeTitle_
0806dc40       GUISetMDIBroughtToFront_
0806dc50       GUIMDIBroughtToFront_
0806dc70       GUISetMDIDelete_
0806dc80       GUIMDIDelete_
0806dca0       GUISetMDIResetMenus_
0806dcb0       GUIMDIResetMenus_
0806dcd0       GUISetMDIDeleteMenuItem_
0806dce0       GUIMDIDeleteMenuItem_
0806dd00*      GUISetEnableMDIActions_
0806dd10       GUIEnableMDIActions_
0806dd30*      GUISetAddMDIActions_
0806dd40       GUIAddMDIActions_
Module: /mnt/sda5/.user/root/src/openwatcom-1.9/bld/gui/ui/linux386/gui.lib(/mnt/sda5/.user/root/src/openwatcom-1.9/bld/gui/ui/c/guisysfi.c)
0806dd60       GUISysFini_
Module: /mnt/sda5/.user/root/src/openwatcom-1.9/bld/gui/ui/linux386/gui.lib(/mnt/sda5/.user/root/src/openwatcom-1.9/bld/gui/c/guiextnm.c)
0806dd70       GUIGetExtName_
0806dd90*      GUISetExtName_
Module: /mnt/sda5/.user/root/src/openwatcom-1.9/bld/gui/ui/linux386/gui.lib(/mnt/sda5/.user/root/src/openwatcom-1.9/bld/gui/c/guidead.c)
0806dde0       GUIDead_
Module: /mnt/sda5/.user/root/src/openwatcom-1.9/bld/gui/ui/linux386/gui.lib(/mnt/sda5/.user/root/src/openwatcom-1.9/bld/gui/ui/c/guixmain.c)
0806ddf0       main_
0808d5b0       _GUIMainTouched
0808d5b1*      _In_raw_mode
08090b3c*      _Saved_terminal_configuration
Module: /mnt/sda5/.user/root/src/openwatcom-1.9/bld/gui/ui/linux386/gui.lib(/mnt/sda5/.user/root/src/openwatcom-1.9/bld/gui/c/guifcrck.c)
0806de00       GUIFirstCrack_
Module: /mnt/sda5/.user/root/src/openwatcom-1.9/bld/gui/ui/linux386/gui.lib(/mnt/sda5/.user/root/src/openwatcom-1.9/bld/gui/ui/c/guigadgt.c)
0806de10       GUIUseGadget_
0806de70       GUIDrawGadgetLine_
0806e000       GUISetShowGadget_
0806e0a0       GUIGadgetFilter_
0806e170       GUIInitGadget_
0806e1b0       GUICreateGadget_
0806e2c0       GUIGetScrollOffset_
Module: /mnt/sda5/.user/root/src/openwatcom-1.9/bld/gui/ui/linux386/gui.lib(/mnt/sda5/.user/root/src/openwatcom-1.9/bld/gui/c/guiwnclr.c)
0806e2d0       GUISetColours_
0806e2f0       GUIFreeColours_
0806e310       GUIGetNumWindowColours_
0806e320       GUIGetWindowColours_
Module: /mnt/sda5/.user/root/src/openwatcom-1.9/bld/ui/unix/linux386/ui.lib(/mnt/sda5/.user/root/src/openwatcom-1.9/bld/ui/c/uimenu.c)
0806e36e       uisetbetweentitles_
0806e374       uialtchar_
0806e51d       uidisplayitem_
0806e801       uidrawmenu_
0806e870       uiclosepopup_
0806e881       uiopenpopup_
0806ea32+      process_menuevent_
0806ef85*      uigeteventfrompos_
0806eff1       menuevent_
0806f108       uidescmenu_
0806f318       uimenutitlebar_
0806f39b*      uienablemenuitem_
0806f3d2*      uimenuindicators_
0806f3ec       uisetmenudesc_
0806f478       uimenuson_
0806f483       uimenuheight_
0806f49b       uimenudisable_
0806f4b9       uimenuisdisabled_
0806f4ce*      uimenugetaltpressed_
0806f4e3       uimenusetaltpressed_
0806f501       uinomenus_
0806f503       uimenubar_
0806f561*      uimenus_
0806f59e*      uiactivatemenus_
0806f5c0*      uiignorealt_
0806f5ce       uigetcurrentmenu_
Module: /mnt/sda5/.user/root/src/openwatcom-1.9/bld/ui/unix/linux386/ui.lib(/mnt/sda5/.user/root/src/openwatcom-1.9/bld/ui/c/uidata.c)
0808d630       _UIData
Module: /mnt/sda5/.user/root/src/openwatcom-1.9/bld/ui/unix/linux386/ui.lib(/mnt/sda5/.user/root/src/openwatcom-1.9/bld/ui/c/uivopen.c)
0806f65e       uivopen_
0806f824       uivclose_
0806f859       uivresize_
0806f96c       uivmove_
Module: /mnt/sda5/.user/root/src/openwatcom-1.9/bld/ui/unix/linux386/ui.lib(/mnt/sda5/.user/root/src/openwatcom-1.9/bld/ui/c/uivhide.c)
0806f9b7       uivhide_
0806f9dd       uivshow_
Module: /mnt/sda5/.user/root/src/openwatcom-1.9/bld/ui/unix/linux386/ui.lib(/mnt/sda5/.user/root/src/openwatcom-1.9/bld/ui/c/uigadget.c)
0808d634       _VertScrollFrame
0808d636       _HorzScrollFrame
0808d638       _SliderChar
0808d63a       _LeftPoint
0808d63c       _RightPoint
0808d63e       _UpPoint
0808d640       _DownPoint
0806f9fd       uishowgadget_
0806fc1f       uiinitgadget_
0806fc30       uidrawgadget_
0806fc52       uisetgadget_
0806fc5e       uifinigadget_
0806fc5f       uisetgadgetnodraw_
0806fc64       uigadgetfilter_
Module: /mnt/sda5/.user/root/src/openwatcom-1.9/bld/gui/ui/linux386/gui.lib(/mnt/sda5/.user/root/src/openwatcom-1.9/bld/gui/ui/c/guifront.c)
0806ff40       GUIBringToFront_
0806fff0*      GUIActivateNC_
Module: /mnt/sda5/.user/root/src/openwatcom-1.9/bld/gui/ui/linux386/gui.lib(/mnt/sda5/.user/root/src/openwatcom-1.9/bld/gui/ui/c/guiwhole.c)
08070040       GUIWholeWndDirty_
Module: /mnt/sda5/.user/root/src/openwatcom-1.9/bld/ui/unix/linux386/ui.lib(/mnt/sda5/.user/root/src/openwatcom-1.9/bld/ui/unix/c/uibmous.c)
0807014c       uisetmouse_
08070173       uimouse_
Module: /mnt/sda5/.user/root/src/openwatcom-1.9/bld/gui/ui/linux386/gui.lib(/mnt/sda5/.user/root/src/openwatcom-1.9/bld/help/c/helpopen.c)
08070360+      do_init_
08070480       helpinit_
08070540       help_reinit_
080705b0       helpfini_
0808d654       _HelpFiles
Module: /mnt/sda5/.user/root/src/openwatcom-1.9/bld/gui/ui/linux386/gui.lib(/mnt/sda5/.user/root/src/openwatcom-1.9/bld/help/c/help.c)
080706b0+      hlp_ut_screen_area_
08070700+      hlp_ut_position_
08070d50+      help_next_field_
08070ee0*      Free_Stack_
08070f00+      help_in_tab_
08072360       showhelp_
080725e0+      do_showhelp_
Module: /mnt/sda5/.user/root/src/openwatcom-1.9/rel2/lib386/linux/clib3r.lib(_strcmp)
080727f0       strcmp_
Module: /mnt/sda5/.user/root/src/openwatcom-1.9/bld/aui/linux386/aui.lib(/mnt/sda5/.user/root/src/openwatcom-1.9/bld/aui/c/wndfref.c)
08072930       WndForceRefresh_
Module: /mnt/sda5/.user/root/src/openwatcom-1.9/bld/gui/ui/linux386/gui.lib(/mnt/sda5/.user/root/src/openwatcom-1.9/bld/gui/ui/c/guithumb.c)
080729c0*      GUISetHScrollThumb_
08072a00       GUISetVScrollThumb_
Module: /mnt/sda5/.user/root/src/openwatcom-1.9/bld/gui/ui/linux386/gui.lib(/mnt/sda5/.user/root/src/openwatcom-1.9/bld/gui/ui/c/guiscrol.c)
08072a40       GUIScroll_
08072b70+      SetScroll_
08072b90       GUIInitHScroll_
08072bb0*      GUIInitHScrollCol_
08072bd0*      GUIInitVScroll_
08072bf0       GUIInitVScrollRow_
08072c10       GUISetHScroll_
08072c30*      GUISetHScrollCol_
08072c50*      GUISetVScroll_
08072c70*      GUISetVScrollRow_
Module: /mnt/sda5/.user/root/src/openwatcom-1.9/bld/gui/ui/linux386/gui.lib(/mnt/sda5/.user/root/src/openwatcom-1.9/bld/gui/ui/c/guidoscr.c)
08072e00       GUIDoHScroll_
08072e20       GUIDoVScroll_
08072e40*      GUIDoHScrollClip_
08072e50       GUIDoVScrollClip_
Module: /mnt/sda5/.user/root/src/openwatcom-1.9/bld/gui/ui/linux386/gui.lib(/mnt/sda5/.user/root/src/openwatcom-1.9/bld/gui/ui/c/guistrin.c)
08072e60       GUIGetStringPos_
Module: /mnt/sda5/.user/root/src/openwatcom-1.9/bld/ui/unix/linux386/ui.lib(/mnt/sda5/.user/root/src/openwatcom-1.9/bld/ui/c/uivfill.c)
08072ea9       uivfill_
Module: /mnt/sda5/.user/root/src/openwatcom-1.9/bld/ui/unix/linux386/ui.lib(/mnt/sda5/.user/root/src/openwatcom-1.9/bld/ui/c/uibox.c)
08072f11       drawbox_
08073057       blowup_
0807312f       uidrawbox_
Module: /mnt/sda5/.user/root/src/openwatcom-1.9/bld/gui/ui/linux386/gui.lib(/mnt/sda5/.user/root/src/openwatcom-1.9/bld/gui/ui/c/guidrect.c)
080731a0       GUIWndDirtyRect_
Module: /mnt/sda5/.user/root/src/openwatcom-1.9/bld/gui/ui/linux386/gui.lib(/mnt/sda5/.user/root/src/openwatcom-1.9/bld/gui/ui/c/guidrow.c)
080732e0       GUIWndDirtyRow_
Module: /mnt/sda5/.user/root/src/openwatcom-1.9/bld/gui/ui/linux386/gui.lib(/mnt/sda5/.user/root/src/openwatcom-1.9/bld/gui/c/guidraw.c)
08073330       GUIDrawText_
08073380*      GUIDrawTextPos_
080733a0       GUIDrawTextExtent_
080733f0*      GUIDrawTextExtentPos_
08073410*      GUIDrawTextRGB_
08073460*      GUIDrawTextPosRGB_
08073480*      GUIDrawTextExtentRGB_
080734d0*      GUIDrawTextExtentPosRGB_
Module: /mnt/sda5/.user/root/src/openwatcom-1.9/bld/gui/ui/linux386/gui.lib(/mnt/sda5/.user/root/src/openwatcom-1.9/bld/gui/c/guihot.c)
08073510*      GUIInitHotSpots_
08073570*      GUIGetNumHotSpots_
08073580       GUIGetHotSpotSize_
08090da4       _GUINumHotSpots
Module: /mnt/sda5/.user/root/src/openwatcom-1.9/bld/aui/linux386/aui.lib(/mnt/sda5/.user/root/src/openwatcom-1.9/bld/aui/c/wndsfra.c)
080735c0       WndStartFreshAll_
Module: /mnt/sda5/.user/root/src/openwatcom-1.9/bld/aui/linux386/aui.lib(/mnt/sda5/.user/root/src/openwatcom-1.9/bld/aui/c/wndefra.c)
080735d0       WndEndFreshAll_
Module: /mnt/sda5/.user/root/src/openwatcom-1.9/bld/aui/linux386/aui.lib(/mnt/sda5/.user/root/src/openwatcom-1.9/bld/aui/c/wndmem.c)
080735e0       WndMustAlloc_
08073600*      WndMustRealloc_
Module: /mnt/sda5/.user/root/src/openwatcom-1.9/bld/gui/ui/linux386/gui.lib(/mnt/sda5/.user/root/src/openwatcom-1.9/bld/gui/c/guihflt.c)
08073620       GUICreateFloatingPopup_
Module: /mnt/sda5/.user/root/src/openwatcom-1.9/bld/gui/ui/linux386/gui.lib(/mnt/sda5/.user/root/src/openwatcom-1.9/bld/gui/ui/c/guixscal.c)
08073690       GUIGetScreenArea_
080736c0       GUIMulDiv_
08073760       GUIScreenToScaleRect_
08073780       GUIScreenToScaleRectR_
080737a0       GUIScaleToScreenRect_
080737c0       GUIScaleToScreenRectR_
Module: /mnt/sda5/.user/root/src/openwatcom-1.9/rel2/lib386/math387r.lib(ldclass.c)
080737db       __LDClass_
0807382b*      _FLClass_
Module: /mnt/sda5/.user/root/src/openwatcom-1.9/bld/gui/ui/linux386/gui.lib(/mnt/sda5/.user/root/src/openwatcom-1.9/bld/gui/c/guisetup.c)
08073840       GUISetupWnd_
Module: /mnt/sda5/.user/root/src/openwatcom-1.9/bld/gui/ui/linux386/gui.lib(/mnt/sda5/.user/root/src/openwatcom-1.9/bld/gui/ui/c/guitool.c)
08073890       GUIXCreateFixedToolbar_
08073cf0       GUIXCreateToolBar_
08073eb0       GUIXCreateToolBarWithTips_
08073ee0       GUIXCloseToolBar_
08073fc0       GUIHasToolBar_
08073fd0       GUIToolBarFixed_
08074020*      GUIChangeToolBar_
Module: /mnt/sda5/.user/root/src/openwatcom-1.9/bld/gui/ui/linux386/gui.lib(/mnt/sda5/.user/root/src/openwatcom-1.9/bld/gui/c/guihint.c)
080741b0+      GUIHasHintType_
080741e0       GUIDisplayHintText_
08074250*      GUISetHintText_
08074270       GUIHasHintText_
08074290       GUIDeleteHintText_
08074380+      CountMenus_
080743c0+      InsertHint_
08074420       GUIAppendHintText_
080744a0       GUIInitHint_
08074570       GUIInitToolbarHint_
08074610       GUIFreeHint_
Module: /mnt/sda5/.user/root/src/openwatcom-1.9/bld/gui/ui/linux386/gui.lib(/mnt/sda5/.user/root/src/openwatcom-1.9/bld/gui/c/guihtool.c)
08074650*      GUICreateFloatToolBar_
080746b0       GUICreateToolBar_
08074710       GUICreateToolBarWithTips_
08074770       GUICloseToolBar_
Module: /mnt/sda5/.user/root/src/openwatcom-1.9/bld/gui/ui/linux386/gui.lib(/mnt/sda5/.user/root/src/openwatcom-1.9/bld/gui/ui/c/guifloat.c)
08074800       GUIProcessMenuCurr_
080748f0       GUICreateMenuPopup_
08074b70       GUIXCreateFloatingPopup_
08074bc0*      GUITrackFloatingPopup_
0808d90c       _GUIPopupMenu
Module: /mnt/sda5/.user/root/src/openwatcom-1.9/bld/gui/ui/linux386/gui.lib(/mnt/sda5/.user/root/src/openwatcom-1.9/bld/gui/ui/c/guisysme.c)
08074c10       GUISetSystemMenuFlags_
08074cc0       GUISetSystemMenu_
08074dc0       GUIProcessSysMenuEvent_
Module: /mnt/sda5/.user/root/src/openwatcom-1.9/bld/gui/ui/linux386/gui.lib(/mnt/sda5/.user/root/src/openwatcom-1.9/bld/gui/ui/c/guirmenu.c)
080751d0       GUIFreeGUIMenuStruct_
08075380       GUICreateMenuStructFromRes_
Module: /mnt/sda5/.user/root/src/openwatcom-1.9/bld/ui/unix/linux386/ui.lib(/mnt/sda5/.user/root/src/openwatcom-1.9/bld/ui/c/uidirty.c)
08075431       dirtyarea_
080754b3       dirtynext_
08075503       uidirty_
Module: /mnt/sda5/.user/root/src/openwatcom-1.9/bld/ui/unix/linux386/ui.lib(/mnt/sda5/.user/root/src/openwatcom-1.9/bld/ui/c/uimousev.c)
08090da8       _MouseCol
08090daa       _MouseRow
08090dac       _MouseStatus
08090dae+      _MouseOn
0807551e*      uivmouseinstalled_
0807551e       uimouseinstalled_
08075526       uimouseforceoff_
08075537*      uimouseforceon_
0807553e       uionmouse_
08075576       uioffmouse_
0807557d       uihidemouse_
080755a4       mouseevent_
08075789       uimousepos_
0807586c       uivmousepos_
080758cb       uiswapmouse_
080758f9*      uigetmrow_
08075900*      uigetmcol_
08075907       uigetmouse_
08090db0       _MouseInstalled
Module: /mnt/sda5/.user/root/src/openwatcom-1.9/bld/ui/unix/linux386/ui.lib(/mnt/sda5/.user/root/src/openwatcom-1.9/bld/ui/c/uivscrn.c)
0807594a       findvscreen_
080759a0       uivdirty_
080759ae       uivsetactive_
080759c6       uivsetcursor_
Module: /mnt/sda5/.user/root/src/openwatcom-1.9/bld/ui/unix/linux386/ui.lib(/mnt/sda5/.user/root/src/openwatcom-1.9/bld/ui/c/uichlen.c)
080759f9       uicharlen_
080759ff       uionnec_
080759ff       uiisdbcs_
Module: /mnt/sda5/.user/root/src/openwatcom-1.9/rel2/lib386/linux/clib3r.lib(strcspn.c)
08075a10       strcspn_
Module: /mnt/sda5/.user/root/src/openwatcom-1.9/rel2/lib386/linux/clib3r.lib(strnset.c)
08075a60       strnset_
Module: /mnt/sda5/.user/root/src/openwatcom-1.9/bld/ui/unix/linux386/ui.lib(/mnt/sda5/.user/root/src/openwatcom-1.9/bld/ui/unix/c/uibios.c)
08075a8d*      uiset80col_
08075a8f       uiclockdelay_
08075a90       GetTermType_
08075abc       initbios_
08075b7f       finibios_
08075b91       forbid_refresh_
08075b98       permit_refresh_
08075bbc       physupdate_
08090db4       _UITermType
Module: /mnt/sda5/.user/root/src/openwatcom-1.9/bld/gui/ui/linux386/gui.lib(/mnt/sda5/.user/root/src/openwatcom-1.9/bld/gui/ui/c/guigmous.c)
08075be0       GUIInitGraphicsMouse_
08075bf0       GUIInitMouse_
08075c20       GUIFiniMouse_
08075c40*      GUIGMouseOn_
08075c90*      GUIGMouseOff_
08075cb0       GUIHasCharRemap_
Module: /mnt/sda5/.user/root/src/openwatcom-1.9/bld/gui/ui/linux386/gui.lib(/mnt/sda5/.user/root/src/openwatcom-1.9/bld/gui/ui/c/guisysin.c)
08075cc0       GUISysInit_
Module: /mnt/sda5/.user/root/src/openwatcom-1.9/bld/ui/unix/linux386/ui.lib(/mnt/sda5/.user/root/src/openwatcom-1.9/bld/ui/c/uiattr.c)
0808d9e5+      _VGAcolours
0808da25+      _ui_vga_colour_attrs
0808da4a+      _ui_colour_attrs
0808da6f+      _ui_bw_attrs
0808da94+      _ui_mono_attrs
08075ce1       uiattrs_
08075d75*      uivgaattrs_
08075db0+      uisetblinkattr_
08075de9*      uigetblinkattr_
Module: /mnt/sda5/.user/root/src/openwatcom-1.9/bld/ui/unix/linux386/ui.lib(/mnt/sda5/.user/root/src/openwatcom-1.9/bld/ui/c/uigchar.c)
08075def       DBCSCharacterMap_
0808dae0       _UiGChar
Module: /mnt/sda5/.user/root/src/openwatcom-1.9/bld/gui/ui/linux386/gui.lib(/mnt/sda5/.user/root/src/openwatcom-1.9/bld/gui/ui/c/guiximdi.c)
08075e50       XFakeInitMDI_
Module: /mnt/sda5/.user/root/src/openwatcom-1.9/bld/gui/ui/linux386/gui.lib(/mnt/sda5/.user/root/src/openwatcom-1.9/bld/gui/c/guimdi.c)
0808db34+      _GUIMDIMenuID
0808db38+      _Root
08075e80*      GUIGetRoot_
08076110       MDIDeleteMenu_
08076130       MDIResetMenus_
080761b0*      GUIEnableMDIMenus_
08076240       InitMDI_
08076390       ChangeTitle_
080763d0       BroughtToFront_
08076440+      FindNextMDIMenuWindowNotInArray_
080764b0       MDIDelete_
08076760+      GUIGetNumChildWindows_
08076790*      GUIGetNumIconicWindows_
08076810       GUIMDIMoreWindows_
08076870       GUIMDIGetWindow_
Module: /mnt/sda5/.user/root/src/openwatcom-1.9/bld/ui/unix/linux386/ui.lib(/mnt/sda5/.user/root/src/openwatcom-1.9/bld/ui/c/uivstr.c)
08076885       uitextfield_
08076959       uivtextput_
0807699f*      uivrawput_
Module: /mnt/sda5/.user/root/src/openwatcom-1.9/bld/gui/ui/linux386/gui.lib(/mnt/sda5/.user/root/src/openwatcom-1.9/bld/gui/ui/c/guiicon.c)
08076a10       GUIDrawIcon_
Module: /mnt/sda5/.user/root/src/openwatcom-1.9/rel2/lib386/linux/clib3r.lib(strnicmp.c)
08076ae0       strnicmp_
Module: /mnt/sda5/.user/root/src/openwatcom-1.9/bld/gui/ui/linux386/gui.lib(/mnt/sda5/.user/root/src/openwatcom-1.9/bld/gui/ui/c/guixbar.c)
08076b30       GUIDrawBar_
08076ba0       GUIDrawBarGroup_
Module: /mnt/sda5/.user/root/src/openwatcom-1.9/bld/gui/ui/linux386/gui.lib(/mnt/sda5/.user/root/src/openwatcom-1.9/bld/gui/ui/c/guixhot.c)
08076c20       GUIXInitHotSpots_
08076cb0       GUIDrawHotSpot_
08076cf0       GUIXCleanupHotSpots_
0808db4c       _GUIHotSpots
Module: /mnt/sda5/.user/root/src/openwatcom-1.9/bld/aui/linux386/aui.lib(/mnt/sda5/.user/root/src/openwatcom-1.9/bld/aui/c/wndtbatr.c)
08076d20       WndMapTabAttr_
Module: /mnt/sda5/.user/root/src/openwatcom-1.9/bld/ui/unix/linux386/ui.lib(/mnt/sda5/.user/root/src/openwatcom-1.9/bld/ui/unix/c/uiget.c)
08076d2a       uiflush_
08076de7       uiget_
08076dec*      uieventsource_
Module: /mnt/sda5/.user/root/src/openwatcom-1.9/rel2/lib386/linux/clib3r.lib(setjmp)
08076e08       _setjmp_
08076e37       longjmp_
Module: /mnt/sda5/.user/root/src/openwatcom-1.9/rel2/lib386/linux/clib3r.lib(calloc.c)
08076ea0       calloc_
Module: /mnt/sda5/.user/root/src/openwatcom-1.9/bld/ui/unix/linux386/ui.lib(/mnt/sda5/.user/root/src/openwatcom-1.9/bld/ui/c/uiledit.c)
08076f19       uiedittrim_
08076f2b*      uieditmarking_
08076f5f       uibegedit_
08077073       uieditpushlist_
08077087       uieditpoplist_
080770dd       uiledit_
080771d1*      uieditinsert_
0807724d       uiendedit_
08077295       uieditisdirty_
080772bc*      uieditautoclear_
080772d1*      uieditcursor_
080772e2*      uieditdirty_
080772ec*      uieditclean_
0808db54+      _UIEdit
Module: /mnt/sda5/.user/root/src/openwatcom-1.9/bld/ui/unix/linux386/ui.lib(/mnt/sda5/.user/root/src/openwatcom-1.9/bld/ui/c/uimisc.c)
080772f6       uisetscreenarea_
08077332       uisetarea_
0807737e       uiposition_
080773d8       uiopen_
08077415       uiclose_
08077426       uicntrtext_
0807746a       uinocursor_
08077472       uicursor_
Module: /mnt/sda5/.user/root/src/openwatcom-1.9/bld/ui/unix/linux386/ui.lib(/mnt/sda5/.user/root/src/openwatcom-1.9/bld/ui/c/uilstbox.c)
0807747d       uigetlistelement_
080774b5       uipaintlistbox_
080775f9+      checkitem_
0807766a       uiupdatelistbox_
080776dd       uiboxpushlist_
080776e7       uiboxpoplist_
08077715       uilistsize_
0807772d       uimovelistbox_
0807774b       uibeglistbox_
08077816       uiendlistbox_
080778bf+      charselect_
0807792c       uilistbox_
Module: /mnt/sda5/.user/root/src/openwatcom-1.9/bld/ui/unix/linux386/ui.lib(/mnt/sda5/.user/root/src/openwatcom-1.9/bld/ui/c/uihotspt.c)
08077d1f       uidrawhottext_
08077e31       uihotspot_
08077fdb       uiposnhotspots_
08078076       uiprinthotspots_
0807809a*      uioffhotspots_
080780d5       uihotspotfilter_
08078244       uiisdefaulthotspot_
Module: /mnt/sda5/.user/root/src/openwatcom-1.9/rel2/lib386/linux/clib3r.lib(strncat.c)
08078270       strncat_
Module: /mnt/sda5/.user/root/src/openwatcom-1.9/bld/gui/ui/linux386/gui.lib(/mnt/sda5/.user/root/src/openwatcom-1.9/bld/gui/ui/c/uidchfld.c)
080782b0       uidialogchangefield_
Module: /mnt/sda5/.user/root/src/openwatcom-1.9/bld/ui/unix/linux386/ui.lib(/mnt/sda5/.user/root/src/openwatcom-1.9/bld/ui/c/uidevent.c)
080782b5       uidialogevent_
Module: /mnt/sda5/.user/root/src/openwatcom-1.9/bld/gui/ui/linux386/gui.lib(/mnt/sda5/.user/root/src/openwatcom-1.9/bld/help/c/dialcb.c)
080782c0       uidialogcallback_
Module: /mnt/sda5/.user/root/src/openwatcom-1.9/rel2/lib386/linux/clib3r.lib(chdir.c)
080782d0       chdir_
Module: /mnt/sda5/.user/root/src/openwatcom-1.9/rel2/lib386/linux/clib3r.lib(_istrcc_.asm)
080782fc       strcasecmp_
Module: /mnt/sda5/.user/root/src/openwatcom-1.9/rel2/lib386/linux/clib3r.lib(geteuid.c)
08078310       geteuid_
Module: /mnt/sda5/.user/root/src/openwatcom-1.9/rel2/lib386/linux/clib3r.lib(getegid.c)
08078340       getegid_
Module: /mnt/sda5/.user/root/src/openwatcom-1.9/rel2/lib386/linux/clib3r.lib(strtok.c)
08078370       strtok_
Module: /mnt/sda5/.user/root/src/openwatcom-1.9/rel2/lib386/linux/clib3r.lib(gtcwdlnx.c)
08078420       getcwd_
Module: /mnt/sda5/.user/root/src/openwatcom-1.9/bld/gui/ui/linux386/gui.lib(/mnt/sda5/.user/root/src/openwatcom-1.9/bld/gui/ui/c/guixaddt.c)
080784a0*      GUIControlSetRedraw_
08078510       GUIAddText_
08078550*      GUIAddTextList_
08078590*      GUIDeleteItem_
080785c0       GUIClearList_
08078620       GUIGetCurrSelect_
08078670       GUISetCurrSelect_
080786c0*      GUIGetListSize_
080786f0*      GUIInsertText_
08078730*      GUISetTopIndex_
08078780*      GUIGetTopIndex_
Module: /mnt/sda5/.user/root/src/openwatcom-1.9/rel2/lib386/linux/clib3r.lib(opendir.c)
080787c0       opendir_
Module: /mnt/sda5/.user/root/src/openwatcom-1.9/rel2/lib386/linux/clib3r.lib(readdir.c)
08078800       readdir_
Module: /mnt/sda5/.user/root/src/openwatcom-1.9/rel2/lib386/linux/clib3r.lib(fnmatch.c)
08078a00       fnmatch_
Module: /mnt/sda5/.user/root/src/openwatcom-1.9/rel2/lib386/linux/clib3r.lib(closedir.c)
08078bd0       closedir_
Module: /mnt/sda5/.user/root/src/openwatcom-1.9/rel2/lib386/linux/clib3r.lib(strstr.c)
08078bf0       strstr_
Module: /mnt/sda5/.user/root/src/openwatcom-1.9/bld/gui/ui/linux386/gui.lib(/mnt/sda5/.user/root/src/openwatcom-1.9/bld/gui/ui/c/guimapky.c)
08078ca0       GUISetKeyState_
08078cd0       GUIMapKeys_
Module: /mnt/sda5/.user/root/src/openwatcom-1.9/rel2/lib386/linux/clib3r.lib(itoa.c)
080791b0       utoa_
08079200       itoa_
Module: /mnt/sda5/.user/root/src/openwatcom-1.9/bld/gui/ui/linux386/gui.lib(/mnt/sda5/.user/root/src/openwatcom-1.9/bld/gui/ui/c/guismove.c)
08079270       GUIStartMoveResize_
080792a0       GUIStartKeyboardMoveResize_
08079570*      MoveResizeCancel_
08079580       GUIDoKeyboardMoveResize_
08079660       GUIDoMoveResize_
080796c0       GUIDoMoveResizeCheck_
Module: /mnt/sda5/.user/root/src/openwatcom-1.9/bld/gui/ui/linux386/gui.lib(/mnt/sda5/.user/root/src/openwatcom-1.9/bld/gui/ui/c/guikey.c)
08079710       GUIProcessAltMenuEvent_
Module: /mnt/sda5/.user/root/src/openwatcom-1.9/bld/gui/ui/linux386/gui.lib(/mnt/sda5/.user/root/src/openwatcom-1.9/bld/gui/ui/c/guixhook.c)
080797a0       GUISetMDIProcessEvent_
080797b0       GUIMDIProcessEvent_
Module: /mnt/sda5/.user/root/src/openwatcom-1.9/bld/ui/unix/linux386/ui.lib(/mnt/sda5/.user/root/src/openwatcom-1.9/bld/ui/c/uipget.c)
080797c3       saveevent_
080797e9       getprime_
08079811*      uivgetprimevent_
08079811*      uivgetprime_
080910b0       _Event
Module: /mnt/sda5/.user/root/src/openwatcom-1.9/bld/sdk/rc/wres/linux386/mf_r/wres.lib(loadfind.c)
08079838       FindResources_
0808dbe0       _FileShift
Module: /mnt/sda5/.user/root/src/openwatcom-1.9/bld/sdk/rc/wres/linux386/mf_r/wres.lib(loadstr.c)
08079a74+      WResLoadString2_
08079b24       WResLoadString_
08079b3c       OpenResFile_
08079b4c+      InitResources2_
08079b74       InitResources_
08079b84*      CloseResFile2_
08079b90       CloseResFile_
08079ba8*      LoadstrInitStatics_
080910b4       _MainDir
Module: /mnt/sda5/.user/root/src/openwatcom-1.9/rel2/lib386/linux/clib3r.lib(iob.c)
0808dbe4       ___iob
080910b8       ___OpenStreams
080910bc       ___ClosedStreams
Module: /mnt/sda5/.user/root/src/openwatcom-1.9/bld/sdk/rc/wres/linux386/mf_r/wres.lib(loadres.c)
08079be4+      WResLoadResource2_
08079ca4       WResLoadResource_
Module: /mnt/sda5/.user/root/src/openwatcom-1.9/bld/ui/unix/linux386/ui.lib(/mnt/sda5/.user/root/src/openwatcom-1.9/bld/ui/c/uirfrsh.c)
08079d61       uidorefresh_
Module: /mnt/sda5/.user/root/src/openwatcom-1.9/bld/ui/unix/linux386/ui.lib(/mnt/sda5/.user/root/src/openwatcom-1.9/bld/ui/unix/c/uiextrn.c)
0808dda4*      _UIWantShiftChanges
0808dda8       _UIDisableShiftChanges
0808ddac       _MouseTime
080910c0*      _UIRemProxy
080910c4*      _UIProxy
080910c8       _UIConHandle
080910cc       _UIConFile
080910d0       _UIPGroup
080910d4       _UIVirt
Module: /mnt/sda5/.user/root/src/openwatcom-1.9/bld/ui/unix/linux386/ui.lib(/mnt/sda5/.user/root/src/openwatcom-1.9/bld/ui/unix/c/uicurs.c)
08079de7       uioffcursor_
08079e8c*      uigetcursor_
08079e98       uisetcursor_
08079eaa       uiswapcursor_
08079eaf       newcursor_
08079ebe*      uioncursor_
08079ede       uiinitcursor_
08079f22       uifinicursor_
Module: /mnt/sda5/.user/root/src/openwatcom-1.9/bld/ui/unix/linux386/ui.lib(/mnt/sda5/.user/root/src/openwatcom-1.9/bld/ui/c/uibfill.c)
08079f3d       bfill_
Module: /mnt/sda5/.user/root/src/openwatcom-1.9/bld/ui/unix/linux386/ui.lib(/mnt/sda5/.user/root/src/openwatcom-1.9/bld/ui/c/uibcopy.c)
08079f74       uibcopy_
Module: /mnt/sda5/.user/root/src/openwatcom-1.9/bld/ui/unix/linux386/ui.lib(/mnt/sda5/.user/root/src/openwatcom-1.9/bld/ui/c/uiwin.c)
0807a00b+      findspot_
0807a070       closewindow_
0807a0ba       openwindow_
0807a0e5       movewindow_
0807a10f       frontwindow_
Module: /mnt/sda5/.user/root/src/openwatcom-1.9/bld/ui/unix/linux386/ui.lib(/mnt/sda5/.user/root/src/openwatcom-1.9/bld/ui/c/uiballoc.c)
0807a13d       bframe_
0807a148       balloc_
0807a16a       bunframe_
0807a175       bfree_
Module: /mnt/sda5/.user/root/src/openwatcom-1.9/rel2/lib386/linux/clib3r.lib(cstart)
0807a17c       _cstart_
0807a17c*      _start
Module: /mnt/sda5/.user/root/src/openwatcom-1.9/rel2/lib386/linux/clib3r.lib(cmainlnx.c)
0807a1f0       __LinuxMain
080910e8       __argc
080910ec       __argv
Module: /mnt/sda5/.user/root/src/openwatcom-1.9/bld/ui/unix/linux386/ui.lib(/mnt/sda5/.user/root/src/openwatcom-1.9/bld/ui/c/uibstr.c)
0807a273       bstring_
0807a2a6       braw_
Module: /mnt/sda5/.user/root/src/openwatcom-1.9/bld/ui/unix/linux386/ui.lib(/mnt/sda5/.user/root/src/openwatcom-1.9/bld/ui/c/uipopup.c)
0807a599+      uicreatepopupdesc_
0807a784       uiposfloatingpopup_
0807acd3       uicreatepopupinarea_
0807acf6+      uicreatesubpopup_
0807ad3c       uicreatesubpopupinarea_
0807ad5c*      uicreatepopup_
Module: /mnt/sda5/.user/root/src/openwatcom-1.9/bld/ui/unix/linux386/ui.lib(/mnt/sda5/.user/root/src/openwatcom-1.9/bld/ui/c/uivutil.c)
0807adc2       isdialogue_
0807add2       isscreen_
0807ae04*      uisetsnow_
Module: /mnt/sda5/.user/root/src/openwatcom-1.9/bld/gui/ui/linux386/gui.lib(/mnt/sda5/.user/root/src/openwatcom-1.9/bld/gui/ui/c/uimenucr.c)
0807ae20       uimenucurr_
Module: /mnt/sda5/.user/root/src/openwatcom-1.9/bld/ui/unix/linux386/ui.lib(/mnt/sda5/.user/root/src/openwatcom-1.9/bld/ui/c/uicheck.c)
0807ae5a       okarea_
0807ae88       oksubarea_
0807ae9b       okline_
0807aec1       okopen_
Module: /mnt/sda5/.user/root/src/openwatcom-1.9/bld/ui/unix/linux386/ui.lib(/mnt/sda5/.user/root/src/openwatcom-1.9/bld/ui/c/uibfake.c)
0807aecc       bfake_
Module: /mnt/sda5/.user/root/src/openwatcom-1.9/bld/ui/unix/linux386/ui.lib(/mnt/sda5/.user/root/src/openwatcom-1.9/bld/ui/c/uiprot.c)
0807aef8       uiunprotect_
0807af1f       uiprotect_
Module: /mnt/sda5/.user/root/src/openwatcom-1.9/bld/gui/ui/linux386/gui.lib(/mnt/sda5/.user/root/src/openwatcom-1.9/bld/gui/ui/c/helpmem.c)
0807af40       HelpMemFree_
0807af50       HelpMemAlloc_
0807af60       HelpMemRealloc_
Module: /mnt/sda5/.user/root/src/openwatcom-1.9/bld/gui/ui/linux386/gui.lib(/mnt/sda5/.user/root/src/openwatcom-1.9/bld/help/c/helpio.c)
0807af70       HelpFileLen_
0807af80       HelpRead_
0807af90*      HelpWrite_
0807afa0       HelpSeek_
0807afb0       HelpTell_
0807afc0       HelpOpen_
0807b010       HelpClose_
0807b020       HelpAccess_
0807b050       HelpGetCWD_
0807b060       HelpSearchEnv_
Module: /mnt/sda5/.user/root/src/openwatcom-1.9/rel2/lib386/linux/clib3r.lib(splitpat.c)
0807b0a0       _splitpath_
Module: /mnt/sda5/.user/root/src/openwatcom-1.9/bld/gui/ui/linux386/gui.lib(/mnt/sda5/.user/root/src/openwatcom-1.9/bld/help/c/search.c)
0807b3f0       HelpFindFirst_
0807b480       HelpGetIndexedTopic_
0807b4f0       HelpFindTopicOffset_
0807b560       InitHelpSearch_
0807b7b0       GetDefTopic_
0807b7c0*      GetDescrip_
0807b7d0       FiniHelpSearch_
0808de34+      _curFile
080910f0+      _curPage
080914f0+      _pageIndex
080914f4+      _pageHeader
080914f8+      _stringBlock
Module: /mnt/sda5/.user/root/src/openwatcom-1.9/bld/ui/unix/linux386/ui.lib(/mnt/sda5/.user/root/src/openwatcom-1.9/bld/ui/c/uivattr.c)
0807b810       uivattribute_
0807b856*      uivattrflip_
Module: /mnt/sda5/.user/root/src/openwatcom-1.9/bld/ui/unix/linux386/ui.lib(/mnt/sda5/.user/root/src/openwatcom-1.9/bld/ui/c/uitab.c)
0807b93f       uitabfilter_
Module: /mnt/sda5/.user/root/src/openwatcom-1.9/bld/gui/ui/linux386/gui.lib(/mnt/sda5/.user/root/src/openwatcom-1.9/bld/help/c/dlg.c)
0807bc80+      GetListBoxItem_
0807bda0       HelpDialogCallBack_
0807be30       SearchDlgFini_
0807be60       HelpSearch_
Module: /mnt/sda5/.user/root/src/openwatcom-1.9/bld/gui/ui/linux386/gui.lib(/mnt/sda5/.user/root/src/openwatcom-1.9/bld/help/c/helpscan.c)
0807c150+      freeHyperlinkInfo_
0807c170       ScanLine_
Module: /mnt/sda5/.user/root/src/openwatcom-1.9/rel2/lib386/linux/clib3r.lib(atoi.c)
0807c300       atoi_
Module: /mnt/sda5/.user/root/src/openwatcom-1.9/bld/gui/ui/linux386/gui.lib(/mnt/sda5/.user/root/src/openwatcom-1.9/bld/help/c/vvscroll.c)
0807c350       vvscroll_
Module: /mnt/sda5/.user/root/src/openwatcom-1.9/rel2/lib386/linux/clib3r.lib(strncmp.c)
0807c440       strncmp_
Module: /mnt/sda5/.user/root/src/openwatcom-1.9/bld/gui/ui/linux386/gui.lib(/mnt/sda5/.user/root/src/openwatcom-1.9/bld/help/c/msgbox.c)
0807c480       ShowMsgBox_
0808defc+      _helpMsgBox
Module: /mnt/sda5/.user/root/src/openwatcom-1.9/bld/ui/unix/linux386/ui.lib(/mnt/sda5/.user/root/src/openwatcom-1.9/bld/ui/c/uivmove.c)
0807c4db       uivmoveblock_
Module: /mnt/sda5/.user/root/src/openwatcom-1.9/bld/ui/unix/linux386/ui.lib(/mnt/sda5/.user/root/src/openwatcom-1.9/bld/ui/c/uibpix.c)
0807c611       bpixel_
Module: /mnt/sda5/.user/root/src/openwatcom-1.9/bld/gui/ui/linux386/gui.lib(/mnt/sda5/.user/root/src/openwatcom-1.9/bld/gui/ui/c/guidrawt.c)
0807c650       GUIXDrawText_
0807c950       GUIXDrawTextRGB_
Module: /mnt/sda5/.user/root/src/openwatcom-1.9/bld/sdk/rc/wres/linux386/mf_r/wres.lib(resmenu.c)
0807c960*      ResWriteMenuHeader_
0807c990*      ResWriteMenuExHeader_
0807c9f4+      ResWriteMenuItemPopup_
0807ca44*      ResWriteMenuExItemPopup_
0807cadc+      ResWriteMenuItemNormal_
0807cb40*      ResWriteMenuExItemNormal_
0807cbc8*      ResWriteMenuItem_
0807cbec+      ResReadMenuHeader_
0807cc2c*      ResReadMenuExtraBytes_
0807cc68*      ResIsMenuEx_
0807cc94*      ResIsHeaderMenuEx_
0807cca0*      ResReadMenuExItem_
0807cd80*      ResReadMenuItem_
0807ce00*      ResReadMenuItem32_
0807ce80       ResNewMenuItem_
0807cebc       ResFreeMenuItem_
Module: /mnt/sda5/.user/root/src/openwatcom-1.9/bld/ui/unix/linux386/ui.lib(/mnt/sda5/.user/root/src/openwatcom-1.9/bld/ui/c/uiarea.c)
0807cef4       dividearea_
Module: /mnt/sda5/.user/root/src/openwatcom-1.9/bld/ui/unix/linux386/ui.lib(/mnt/sda5/.user/root/src/openwatcom-1.9/bld/ui/unix/c/uimous.c)
0807d0a8       uisetmouseposn_
0807d0b4       checkmouse_
0807d0c0       stopmouse_
0807d0c9       initmouse_
0807d0d4       finimouse_
0807d0dd*      uimousespeed_
Module: /mnt/sda5/.user/root/src/openwatcom-1.9/bld/ui/unix/linux386/ui.lib(/mnt/sda5/.user/root/src/openwatcom-1.9/bld/ui/unix/c/uikeyb.c)
0807d0e9       flushkey_
0807d0f2       uicheckshift_
0807d0f2*      checkshift_
0807d0fb*      uishiftrelease_
0807d107       restorekeyb_
0807d110       initkeyboard_
0807d118       finikeyboard_
0807d121       savekeyb_
0807d12a       stopkeyboard_
Module: /mnt/sda5/.user/root/src/openwatcom-1.9/rel2/lib386/linux/clib3r.lib(setbits.c)
0807d140       __setbits_
Module: /mnt/sda5/.user/root/src/openwatcom-1.9/rel2/lib386/linux/clib3r.lib(bits.c)
0807d180       __Bits
Module: /mnt/sda5/.user/root/src/openwatcom-1.9/rel2/lib386/linux/clib3r.lib(fcntl.c)
0807d190       fcntl_
Module: /mnt/sda5/.user/root/src/openwatcom-1.9/bld/ncurses/linux386/ncurses.lib(/mnt/sda5/.user/root/src/openwatcom-1.9/bld/ncurses/c/lib_setu.c)
0807d300*      use_env_
0807d540       setupterm_
0808df3c+      _LINES
0808df40+      _COLS
0808df44+      _TABSIZE
0808df48+      _ttytype
Module: /mnt/sda5/.user/root/src/openwatcom-1.9/bld/ncurses/linux386/ncurses.lib(/mnt/sda5/.user/root/src/openwatcom-1.9/bld/ncurses/c/lib_cur_.c)
0807d8a0       set_curterm_
0807d8f0       del_curterm_
0808e048       _cur_term
Module: /mnt/sda5/.user/root/src/openwatcom-1.9/bld/ui/unix/linux386/ui.lib(/mnt/sda5/.user/root/src/openwatcom-1.9/bld/ui/unix/c/uivirt.c)
0808e04c       _DisplayList
Module: /mnt/sda5/.user/root/src/openwatcom-1.9/bld/gui/ui/linux386/gui.lib(/mnt/sda5/.user/root/src/openwatcom-1.9/bld/gui/ui/c/guienum.c)
0807d920       GUIEnumChildWindows_
Module: /mnt/sda5/.user/root/src/openwatcom-1.9/bld/gui/ui/linux386/gui.lib(/mnt/sda5/.user/root/src/openwatcom-1.9/bld/gui/c/guipick.c)
0807d950+      GUIPickEvent_
0807d9f0+      GUIDlgPickWithRtn_
0807da70       GUIDlgPick_
Module: /mnt/sda5/.user/root/src/openwatcom-1.9/bld/ui/unix/linux386/ui.lib(/mnt/sda5/.user/root/src/openwatcom-1.9/bld/ui/unix/c/kbwait.c)
0807da7d       kb_wait_
Module: /mnt/sda5/.user/root/src/openwatcom-1.9/bld/ui/unix/linux386/ui.lib(/mnt/sda5/.user/root/src/openwatcom-1.9/bld/ui/unix/c/tdisp.c)
0808e0e4       _UserForcedTermRefresh
0808e0f1+      _OldCol
0808e0f5+      _OldRow
0807db8d       TInfCheck_
0807df3d+      TI_CURSOR_MOVE_
0807ec64+      initmonitor_
0807f125+      update_shadow_
0807f990+      td_event_
0808e1b3       _TInfDisplay
Module: /mnt/sda5/.user/root/src/openwatcom-1.9/bld/ui/unix/linux386/ui.lib(/mnt/sda5/.user/root/src/openwatcom-1.9/bld/ui/unix/c/uihook.c)
0807f9b5       uieventsourcehook_
Module: /mnt/sda5/.user/root/src/openwatcom-1.9/rel2/lib386/linux/clib3r.lib(ljmphdl.c)
0808e1d0       ___longjmp_handler
Module: /mnt/sda5/.user/root/src/openwatcom-1.9/bld/ui/unix/linux386/ui.lib(/mnt/sda5/.user/root/src/openwatcom-1.9/bld/ui/c/uivline.c)
0807faee       uiveditevent_
0807fc7a*      uiveditline_
0807fca0       uiveditinit_
0807fcec       uiveditfini_
0808e1d4       _LineEvents
Module: /mnt/sda5/.user/root/src/openwatcom-1.9/rel2/lib386/linux/clib3r.lib(errno.c)
0807fcf0       __get_errno_ptr_
08091530+      _errno
Module: /mnt/sda5/.user/root/src/openwatcom-1.9/rel2/lib386/linux/clib3r.lib(seterrno.c)
0807fcf6       __set_errno_
0807fd02*      __set_EDOM_
0807fd0e       __set_ERANGE_
0807fd1a*      __set_EINVAL_
Module: /mnt/sda5/.user/root/src/openwatcom-1.9/rel2/lib386/linux/clib3r.lib(getdents.c)
0807fd30       sys_getdents_
Module: /mnt/sda5/.user/root/src/openwatcom-1.9/rel2/lib386/linux/clib3r.lib(wctype.c)
0807fdb0       wctype_
Module: /mnt/sda5/.user/root/src/openwatcom-1.9/rel2/lib386/linux/clib3r.lib(iswctype.c)
0807ff10       iswctype_
Module: /mnt/sda5/.user/root/src/openwatcom-1.9/rel2/lib386/linux/clib3r.lib(alphabet.c)
0808c028       ___Alphabet
Module: /mnt/sda5/.user/root/src/openwatcom-1.9/bld/ui/unix/linux386/ui.lib(/mnt/sda5/.user/root/src/openwatcom-1.9/bld/ui/c/uiband.c)
0807ffd6       uibandinit_
0808002a       uibandmove_
0808004d       uibandfini_
Module: /mnt/sda5/.user/root/src/openwatcom-1.9/bld/sdk/rc/wres/linux386/mf_r/wres.lib(wriidfn.c)
08080070       WResInitIDFromNum_
Module: /mnt/sda5/.user/root/src/openwatcom-1.9/bld/sdk/rc/wres/linux386/mf_r/wres.lib(wrfindrs.c)
08080080       __FindType_
080800a4       __FindRes_
080800c8       __FindLang_
08080104       WResFindResource_
Module: /mnt/sda5/.user/root/src/openwatcom-1.9/bld/sdk/rc/wres/linux386/mf_r/wres.lib(wrgetli.c)
08080190*      _WResLanguage_
08080194       WResGetLangInfo_
080801a8*      WResGetFileInfo_
Module: /mnt/sda5/.user/root/src/openwatcom-1.9/bld/sdk/rc/wres/linux386/mf_r/wres.lib(ropenfro.c)
080801c0       ResOpenFileRO_
Module: /mnt/sda5/.user/root/src/openwatcom-1.9/bld/sdk/rc/wres/linux386/mf_r/wres.lib(wrinitdi.c)
08080200       WResInitDir_
Module: /mnt/sda5/.user/root/src/openwatcom-1.9/bld/sdk/rc/wres/linux386/mf_r/wres.lib(wrreaddi.c)
08080978       WResReadDir_
08080984+      WResReadDir2_
Module: /mnt/sda5/.user/root/src/openwatcom-1.9/bld/sdk/rc/wres/linux386/mf_r/wres.lib(wrfreedi.c)
08080a40+      __FreeLangList_
08080a6c+      __FreeResList_
08080aa4       __FreeTypeList_
08080adc       WResFreeDir_
Module: /mnt/sda5/.user/root/src/openwatcom-1.9/bld/sdk/rc/wres/linux386/mf_r/wres.lib(rclosef.c)
08080b00       ResCloseFile_
Module: /mnt/sda5/.user/root/src/openwatcom-1.9/rel2/lib386/linux/clib3r.lib(initfile.c)
08080b50       __InitFiles_
Module: /mnt/sda5/.user/root/src/openwatcom-1.9/rel2/lib386/linux/clib3r.lib(ioexit.c)
08080c50*      fcloseall_
08080c60       __full_io_exit_
Module: /mnt/sda5/.user/root/src/openwatcom-1.9/bld/ui/unix/linux386/ui.lib(/mnt/sda5/.user/root/src/openwatcom-1.9/bld/ui/unix/c/uisnow.c)
08080c6c*      vertretrace_
08080c6d       issnow_
Module: /mnt/sda5/.user/root/src/openwatcom-1.9/bld/ui/unix/linux386/ui.lib(/mnt/sda5/.user/root/src/openwatcom-1.9/bld/ui/c/uifar.c)
08080c7e       _farfill
08080c9a       _farcopy
08080cb1       _farstring
08080cf7       _farattrib
08080d13       _farattrflip
Module: /mnt/sda5/.user/root/src/openwatcom-1.9/bld/ui/unix/linux386/ui.lib(/mnt/sda5/.user/root/src/openwatcom-1.9/bld/ui/c/uimem.c)
08080d2f       faralloc_
08080d34       farfree_
Module: /mnt/sda5/.user/root/src/openwatcom-1.9/rel2/lib386/linux/clib3r.lib(segdefns)
08048103       ___begtext
0808c000*      __nullarea
0808e48a       __Start_XI
0808e4a8       __End_XI
0808e4a8       __Start_YI
0808e4b4       __End_YI
Module: /mnt/sda5/.user/root/src/openwatcom-1.9/rel2/lib386/linux/clib3r.lib(crwdata)
0808e208*      __LpCmdLine
0808e20c       __LpPgmName
0808e200*      __dynend
0808e204       __curbrk
0808e210       __STACKLOW
0808e214       __STACKTOP
0808e218       __ASTACKSIZ
0808e21c       __ASTACKPTR
0808e220*      __cbyte
0808e224*      __cbyte2
0808e228*      __child
0808e22e*      __Envptr
0808e232*      __Envseg
0808e22c       __no87
0808e234*      ___FPE_handler
Module: /mnt/sda5/.user/root/src/openwatcom-1.9/rel2/lib386/linux/clib3r.lib(sbrklnx.c)
08080d40       sbrk_
08080d50       __brk_
08080d80*      brk_
Module: /mnt/sda5/.user/root/src/openwatcom-1.9/rel2/lib386/linux/clib3r.lib(environ.c)
08091560       ___env_mask
08091564       _environ
08091568*      __wenviron
Module: /mnt/sda5/.user/root/src/openwatcom-1.9/rel2/lib386/linux/clib3r.lib(initrtns.c)
08080dc0       __InitRtns
08080e10       __FiniRtns
Module: /mnt/sda5/.user/root/src/openwatcom-1.9/rel2/lib386/linux/clib3r.lib(amblksiz.c)
0808e238       __amblksiz
Module: /mnt/sda5/.user/root/src/openwatcom-1.9/rel2/lib386/linux/clib3r.lib(toupper.c)
08080e70       toupper_
Module: /mnt/sda5/.user/root/src/openwatcom-1.9/bld/ui/unix/linux386/ui.lib(/mnt/sda5/.user/root/src/openwatcom-1.9/bld/ui/c/uibarf.c)
08080e7e       uibarf_
Module: /mnt/sda5/.user/root/src/openwatcom-1.9/rel2/lib386/linux/clib3r.lib(filelen.c)
08080e80       filelength_
Module: /mnt/sda5/.user/root/src/openwatcom-1.9/bld/ui/unix/linux386/ui.lib(/mnt/sda5/.user/root/src/openwatcom-1.9/bld/ui/c/uibattr.c)
08080ec3       battribute_
08080f11       battrflip_
Module: /mnt/sda5/.user/root/src/openwatcom-1.9/bld/sdk/rc/wres/linux386/mf_r/wres.lib(wrerror.c)
08080f60       WresRecordError_
Module: /mnt/sda5/.user/root/src/openwatcom-1.9/bld/sdk/rc/wres/linux386/mf_r/wres.lib(write.c)
08080f9c       ResWriteUint8_
08080fcc       ResWriteUint16_
08080ffc       ResWriteUint32_
0808102c+      WResWriteWResIDNameUni_
08081114*      WResWriteWResIDName_
08081120*      WResWriteWResID_
08081168*      WResWriteTypeRecord_
080811ac*      WResWriteResRecord_
080811f0*      WResWriteLangRecord_
08081220*      WResWriteHeaderRecord_
08081290*      WResWriteExtHeader_
080812c0+      ResWriteStringLen_
08081344       ResWriteString_
08081370+      ResWriteNameOrOrdinal_
08081464*      MResWriteResourceHeader_
08081598*      WriteInitStatics_
0808e23c+      _ConvToUnicode
Module: /mnt/sda5/.user/root/src/openwatcom-1.9/bld/sdk/rc/wres/linux386/mf_r/wres.lib(resseek.c)
080815b0*      ResSeek_
080815d0       ResPadDWord_
Module: /mnt/sda5/.user/root/src/openwatcom-1.9/bld/sdk/rc/wres/linux386/mf_r/wres.lib(rduint32.c)
08081630       ResReadUint32_
Module: /mnt/sda5/.user/root/src/openwatcom-1.9/bld/sdk/rc/wres/linux386/mf_r/wres.lib(rduint16.c)
08081680       ResReadUint16_
Module: /mnt/sda5/.user/root/src/openwatcom-1.9/bld/sdk/rc/wres/linux386/mf_r/wres.lib(rrdstr.c)
080816d0       ResReadString_
08081740       ResRead32String_
Module: /mnt/sda5/.user/root/src/openwatcom-1.9/bld/ncurses/linux386/ncurses.lib(/mnt/sda5/.user/root/src/openwatcom-1.9/bld/ncurses/c/getenv_n.c)
080817c0       _nc_getenv_num_
Module: /mnt/sda5/.user/root/src/openwatcom-1.9/rel2/lib386/linux/clib3r.lib(isattlnx.c)
08081810       isatty_
Module: /mnt/sda5/.user/root/src/openwatcom-1.9/rel2/lib386/linux/clib3r.lib(ioctl.c)
08081850       ioctl_
Module: /mnt/sda5/.user/root/src/openwatcom-1.9/bld/ncurses/linux386/ncurses.lib(/mnt/sda5/.user/root/src/openwatcom-1.9/bld/ncurses/c/read_ent.c)
080818d0*      _nc_tic_dir_
08081910*      _nc_keep_tic_dir_
080821b0+      _nc_read_file_entry_
080822c0       _nc_read_entry_
Module: /mnt/sda5/.user/root/src/openwatcom-1.9/bld/ncurses/linux386/ncurses.lib(/mnt/sda5/.user/root/src/openwatcom-1.9/bld/ncurses/c/fallback.c)
08082380       _nc_fallback_
Module: /mnt/sda5/.user/root/src/openwatcom-1.9/bld/ncurses/linux386/ncurses.lib(/mnt/sda5/.user/root/src/openwatcom-1.9/bld/ncurses/c/lib_ttyf.c)
08082390+      _nc_get_tty_mode_
080823e0*      def_shell_mode_
08082400       def_prog_mode_
08082420*      reset_prog_mode_
08082440*      reset_shell_mode_
08082460*      savetty_
08082470*      resetty_
08082480+      _nc_set_tty_mode_
Module: /mnt/sda5/.user/root/src/openwatcom-1.9/bld/ncurses/linux386/ncurses.lib(/mnt/sda5/.user/root/src/openwatcom-1.9/bld/ncurses/c/lib_baud.c)
08082550       _nc_baudrate_
080825b0       _nc_ospeed_
080825f0       baudrate_
Module: /mnt/sda5/.user/root/src/openwatcom-1.9/bld/ncurses/linux386/ncurses.lib(/mnt/sda5/.user/root/src/openwatcom-1.9/bld/ncurses/c/lib_tput.c)
0808e248       _PC
0808e24a       _ospeed
0808e24c+      __nc_nulls_sent
08082630+      delay_output_
080826b0*      _nc_flush_
080826c0*      putp_
080826e0       tputs_
Module: /mnt/sda5/.user/root/src/openwatcom-1.9/bld/ncurses/linux386/ncurses.lib(/mnt/sda5/.user/root/src/openwatcom-1.9/bld/ncurses/c/free_tty.c)
080828a0       _nc_free_termtype_
08082920*      use_extended_names_
0808e254       __nc_user_definable
Module: /mnt/sda5/.user/root/src/openwatcom-1.9/bld/ui/unix/linux386/ui.lib(/mnt/sda5/.user/root/src/openwatcom-1.9/bld/ui/unix/c/ctkeyb2.c)
08082932+      ck_stop_
08082932+      ck_unevent_
08082935+      ck_flush_
08082946       ck_shift_state_
0808299c+      ck_restore_
080829f4+      ck_init_
08082a46+      ck_fini_
08082a60+      ck_save_
0808e258       _ConsKeyboard
Module: /mnt/sda5/.user/root/src/openwatcom-1.9/bld/ui/unix/linux386/ui.lib(/mnt/sda5/.user/root/src/openwatcom-1.9/bld/ui/unix/c/tmouse.c)
08082f4a       tm_saveevent_
0808e27c       _UIMouseHandle
0808e288       _TermMouse
Module: /mnt/sda5/.user/root/src/openwatcom-1.9/rel2/lib386/linux/clib3r.lib(select.c)
08082fd0       select_
Module: /mnt/sda5/.user/root/src/openwatcom-1.9/rel2/lib386/linux/clib3r.lib(fputc.c)
08083010       fputc_
Module: /mnt/sda5/.user/root/src/openwatcom-1.9/bld/ncurses/linux386/ncurses.lib(/mnt/sda5/.user/root/src/openwatcom-1.9/bld/ncurses/c/lib_tpar.c)
0808e29c+      __nc_tparm_err
08083ef0       tparm_
Module: /mnt/sda5/.user/root/src/openwatcom-1.9/bld/ui/unix/linux386/ui.lib(/mnt/sda5/.user/root/src/openwatcom-1.9/bld/ui/unix/c/tixparse.c)
08084094+      tix_error_
08084130       ti_fopen_
08084205+      init_tix_scanner_
080842d8*      close_tix_scanner_
080848ae       ti_read_tix_
080919c4       __ti_alt_map
080919e4       _ti_char_map
Module: /mnt/sda5/.user/root/src/openwatcom-1.9/rel2/lib386/linux/clib3r.lib(fgetc.c)
08084b30+      __fill_buffer_
08084be0       fgetc_
Module: /mnt/sda5/.user/root/src/openwatcom-1.9/rel2/lib386/linux/clib3r.lib(splunx.c)
08084c50       spawnl_
Module: /mnt/sda5/.user/root/src/openwatcom-1.9/rel2/lib386/linux/clib3r.lib(splpunx.c)
08084c70       spawnlp_
Module: /mnt/sda5/.user/root/src/openwatcom-1.9/rel2/lib386/linux/clib3r.lib(fflush.c)
08084c90       fflush_
Module: /mnt/sda5/.user/root/src/openwatcom-1.9/rel2/lib386/linux/clib3r.lib(sigact.c)
08084ca0       sigaction_
Module: /mnt/sda5/.user/root/src/openwatcom-1.9/rel2/lib386/linux/clib3r.lib(fputs.c)
08084ce0       fputs_
Module: /mnt/sda5/.user/root/src/openwatcom-1.9/bld/ui/unix/linux386/ui.lib(/mnt/sda5/.user/root/src/openwatcom-1.9/bld/ui/unix/c/ctkeyb.c)
0808516f+      init_interminfo_
08085786*      clear_shift_
0808578e       ck_arm_
0808578f       nextc_
08085813       nextc_unget_
08085833+      find_entry_
08085838+      ck_keyboardevent_
08085acf       tk_keyboardevent_
08085ae4       init_trie_
08091e04+      _InTerminfo
08092054       _ShftState
Module: /mnt/sda5/.user/root/src/openwatcom-1.9/bld/ui/unix/linux386/ui.lib(/mnt/sda5/.user/root/src/openwatcom-1.9/bld/ui/c/uipad.c)
08085bf1       uipadblanks_
Module: /mnt/sda5/.user/root/src/openwatcom-1.9/bld/ui/unix/linux386/ui.lib(/mnt/sda5/.user/root/src/openwatcom-1.9/bld/ui/c/uivedit.c)
08085c5e+      secondbyte_
08085c79       uieditevent_
Module: /mnt/sda5/.user/root/src/openwatcom-1.9/rel2/lib386/linux/clib3r.lib(uisalnum.c)
08086035       iswalnum_
Module: /mnt/sda5/.user/root/src/openwatcom-1.9/rel2/lib386/linux/clib3r.lib(uisalpha.c)
08086051       iswalpha_
Module: /mnt/sda5/.user/root/src/openwatcom-1.9/rel2/lib386/linux/clib3r.lib(uisblank.c)
08086070       iswblank_
Module: /mnt/sda5/.user/root/src/openwatcom-1.9/rel2/lib386/linux/clib3r.lib(uiscntrl.c)
0808608a       iswcntrl_
Module: /mnt/sda5/.user/root/src/openwatcom-1.9/rel2/lib386/linux/clib3r.lib(uisdigit.c)
080860a4       iswdigit_
Module: /mnt/sda5/.user/root/src/openwatcom-1.9/rel2/lib386/linux/clib3r.lib(uisgraph.c)
080860be       iswgraph_
Module: /mnt/sda5/.user/root/src/openwatcom-1.9/rel2/lib386/linux/clib3r.lib(uislower.c)
080860e1       iswlower_
Module: /mnt/sda5/.user/root/src/openwatcom-1.9/rel2/lib386/linux/clib3r.lib(uisprint.c)
080860fd       iswprint_
Module: /mnt/sda5/.user/root/src/openwatcom-1.9/rel2/lib386/linux/clib3r.lib(uispunct.c)
08086117       iswpunct_
Module: /mnt/sda5/.user/root/src/openwatcom-1.9/rel2/lib386/linux/clib3r.lib(uisspace.c)
08086131       iswspace_
Module: /mnt/sda5/.user/root/src/openwatcom-1.9/rel2/lib386/linux/clib3r.lib(uisupper.c)
0808614b       iswupper_
Module: /mnt/sda5/.user/root/src/openwatcom-1.9/rel2/lib386/linux/clib3r.lib(uisxdig.c)
08086165       iswxdigit_
Module: /mnt/sda5/.user/root/src/openwatcom-1.9/bld/sdk/rc/wres/linux386/mf_r/wres.lib(wridcmp.c)
08086180       WResIDCmp_
Module: /mnt/sda5/.user/root/src/openwatcom-1.9/rel2/lib386/linux/clib3r.lib(setmdunx.c)
080861c0       setmode_
Module: /mnt/sda5/.user/root/src/openwatcom-1.9/bld/sdk/rc/wres/linux386/mf_r/wres.lib(ralliae.c)
080861d0       ResAddLLItemAtEnd_
Module: /mnt/sda5/.user/root/src/openwatcom-1.9/bld/sdk/rc/wres/linux386/mf_r/wres.lib(wrrfrr.c)
08086200       WResReadFixedResRecord_
08086240       WResReadFixedResRecord1_
08086280       WResReadFixedResRecord2_
Module: /mnt/sda5/.user/root/src/openwatcom-1.9/bld/sdk/rc/wres/linux386/mf_r/wres.lib(wridexby.c)
08086300       WResIDExtraBytes_
Module: /mnt/sda5/.user/root/src/openwatcom-1.9/bld/sdk/rc/wres/linux386/mf_r/wres.lib(wrrewrid.c)
08086310       WResReadExtraWResID_
Module: /mnt/sda5/.user/root/src/openwatcom-1.9/bld/sdk/rc/wres/linux386/mf_r/wres.lib(wrrftr.c)
08086370       WResReadFixedTypeRecord_
080863b8       WResReadFixedTypeRecord2_
Module: /mnt/sda5/.user/root/src/openwatcom-1.9/bld/sdk/rc/wres/linux386/mf_r/wres.lib(wrrhr.c)
08086430       WResReadHeaderRecord_
080864a8       WResReadExtHeader_
Module: /mnt/sda5/.user/root/src/openwatcom-1.9/bld/sdk/rc/wres/linux386/mf_r/wres.lib(mrrdrh.c)
080864f0       M32ResReadResourceHeader_
0808665c       MResReadResourceHeader_
Module: /mnt/sda5/.user/root/src/openwatcom-1.9/bld/sdk/rc/wres/linux386/mf_r/wres.lib(wrfree.c)
08086700       MResFreeResourceHeader_
Module: /mnt/sda5/.user/root/src/openwatcom-1.9/bld/sdk/rc/wres/linux386/mf_r/wres.lib(wridfnoo.c)
08086740       WResIDFromNameOrOrd_
Module: /mnt/sda5/.user/root/src/openwatcom-1.9/bld/sdk/rc/wres/linux386/mf_r/wres.lib(wraddres.c)
080868b0*      WResAddResource_
0808690c       WResAddResource2_
Module: /mnt/sda5/.user/root/src/openwatcom-1.9/bld/sdk/rc/wres/linux386/mf_r/wres.lib(wriswrf.c)
08086a30       WResFindResType_
08086ac8*      WResIsWResFile_
Module: /mnt/sda5/.user/root/src/openwatcom-1.9/rel2/lib386/linux/clib3r.lib(nmalloc.c)
08086ae0       _nmalloc_
08086ae0       malloc_
0808e374       ___nheapbeg
0808e378       ___MiniHeapRover
0808e37c       ___LargestSizeB4MiniHeapRover
Module: /mnt/sda5/.user/root/src/openwatcom-1.9/rel2/lib386/linux/clib3r.lib(xmsglnx.c)
08086bd0+      __exit_with_msg_
08086c20       __fatal_runtime_error_
Module: /mnt/sda5/.user/root/src/openwatcom-1.9/rel2/lib386/linux/clib3r.lib(fclose.c)
08086c40       __doclose_
08086cb0       __shutdown_stream_
08086cd0       fclose_
Module: /mnt/sda5/.user/root/src/openwatcom-1.9/rel2/lib386/linux/clib3r.lib(freefp.c)
08086d00       __freefp_
08086d40       __purgefp_
Module: /mnt/sda5/.user/root/src/openwatcom-1.9/bld/ui/unix/linux386/ui.lib(/mnt/sda5/.user/root/src/openwatcom-1.9/bld/ui/c/uifmem.c)
08086d62       uifaralloc_
08086d6a       uifarfree_
Module: /mnt/sda5/.user/root/src/openwatcom-1.9/rel2/lib386/linux/clib3r.lib(dosseg)
00001234       __DOSseg__
Module: /mnt/sda5/.user/root/src/openwatcom-1.9/rel2/lib386/linux/clib3r.lib(sys_brk.c)
08086d70       sys_brk_
Module: /mnt/sda5/.user/root/src/openwatcom-1.9/rel2/lib386/linux/clib3r.lib(setenvp.c)
08086d90       __setenvp_
Module: /mnt/sda5/.user/root/src/openwatcom-1.9/rel2/lib386/linux/clib3r.lib(__lseek.c)
08086e00       __lseek_
Module: /mnt/sda5/.user/root/src/openwatcom-1.9/bld/sdk/rc/wres/linux386/mf_r/wres.lib(varstr.c)
08086e30       VarStringStart_
08086e64       VarStringAddChar_
08086ebc       VarStringEnd_
Module: /mnt/sda5/.user/root/src/openwatcom-1.9/bld/sdk/rc/wres/linux386/mf_r/wres.lib(rduint8.c)
08086f50       ResReadUint8_
Module: /mnt/sda5/.user/root/src/openwatcom-1.9/rel2/lib386/linux/clib3r.lib(strtol.c)
080871c0       strtoul_
080871d0       strtol_
Module: /mnt/sda5/.user/root/src/openwatcom-1.9/rel2/lib386/linux/clib3r.lib(tcgattr.c)
080871e0       tcgetattr_
Module: /mnt/sda5/.user/root/src/openwatcom-1.9/bld/ncurses/linux386/ncurses.lib(/mnt/sda5/.user/root/src/openwatcom-1.9/bld/ncurses/c/doalloc.c)
080871f0       _nc_doalloc_
Module: /mnt/sda5/.user/root/src/openwatcom-1.9/bld/ncurses/linux386/ncurses.lib(/mnt/sda5/.user/root/src/openwatcom-1.9/bld/ncurses/c/access.c)
08087240+      _nc_basename_
08087240*      _nc_rootname_
08087260       _nc_access_
Module: /mnt/sda5/.user/root/src/openwatcom-1.9/rel2/lib386/linux/clib3r.lib(_icstrdu.asm)
08087320       strdup_
Module: /mnt/sda5/.user/root/src/openwatcom-1.9/bld/ncurses/linux386/ncurses.lib(/mnt/sda5/.user/root/src/openwatcom-1.9/bld/ncurses/c/home_ter.c)
08087350       _nc_home_terminfo_
Module: /mnt/sda5/.user/root/src/openwatcom-1.9/rel2/lib386/linux/clib3r.lib(tcsattr.c)
080873e0       tcsetattr_
Module: /mnt/sda5/.user/root/src/openwatcom-1.9/rel2/lib386/linux/clib3r.lib(cfgtospd.c)
08087430       cfgetospeed_
Module: /mnt/sda5/.user/root/src/openwatcom-1.9/rel2/lib386/linux/clib3r.lib(putchar.c)
08087440       putchar_
Module: /mnt/sda5/.user/root/src/openwatcom-1.9/bld/ncurses/linux386/ncurses.lib(/mnt/sda5/.user/root/src/openwatcom-1.9/bld/ncurses/c/lib_napm.c)
080874c0       napms_
Module: /mnt/sda5/.user/root/src/openwatcom-1.9/rel2/lib386/linux/clib3r.lib(tcflush.c)
08087500       tcflush_
Module: /mnt/sda5/.user/root/src/openwatcom-1.9/rel2/lib386/linux/clib3r.lib(tcgtpgrp.c)
08087510       tcgetpgrp_
Module: /mnt/sda5/.user/root/src/openwatcom-1.9/rel2/lib386/linux/clib3r.lib(tcstpgrp.c)
08087540       tcsetpgrp_
Module: /mnt/sda5/.user/root/src/openwatcom-1.9/rel2/lib386/linux/clib3r.lib(time.c)
08087560       time_
Module: /mnt/sda5/.user/root/src/openwatcom-1.9/bld/ui/unix/linux386/ui.lib(/mnt/sda5/.user/root/src/openwatcom-1.9/bld/ui/unix/c/trie.c)
0808758a       TrieInit_
080875ed       TrieFini_
0808764e       TrieAdd_
08087786       TrieRead_
0808e410+      _KeyTrieDepth
Module: /mnt/sda5/.user/root/src/openwatcom-1.9/rel2/lib386/linux/clib3r.lib(socket.c)
08087860       socket_
Module: /mnt/sda5/.user/root/src/openwatcom-1.9/rel2/lib386/linux/clib3r.lib(connect.c)
08087880       connect_
Module: /mnt/sda5/.user/root/src/openwatcom-1.9/rel2/lib386/linux/clib3r.lib(getpid.c)
080878a0       getpid_
Module: /mnt/sda5/.user/root/src/openwatcom-1.9/rel2/lib386/linux/clib3r.lib(readlink.c)
080878d0       readlink_
Module: /mnt/sda5/.user/root/src/openwatcom-1.9/rel2/lib386/linux/clib3r.lib(ioalloc.c)
08087900       __ioalloc_
Module: /mnt/sda5/.user/root/src/openwatcom-1.9/rel2/lib386/linux/clib3r.lib(flush.c)
080879a0       __flush_
Module: /mnt/sda5/.user/root/src/openwatcom-1.9/bld/ncurses/linux386/ncurses.lib(/mnt/sda5/.user/root/src/openwatcom-1.9/bld/ncurses/c/comp_err.c)
08087aa0*      _nc_set_source_
08087ab0*      _nc_set_type_
08087b00*      _nc_get_type_
08087be0*      _nc_warning_
08087c30       _nc_err_abort_
08087c80*      _nc_syserr_abort_
0808e414+      __nc_suppress_warnings
0808e418+      __nc_curr_line
0808e41c+      __nc_curr_col
Module: /mnt/sda5/.user/root/src/openwatcom-1.9/bld/ui/unix/linux386/ui.lib(/mnt/sda5/.user/root/src/openwatcom-1.9/bld/ui/unix/c/tixsupp.c)
08087cc8*      ui_tix_missing_
0808e420       _ui_tix_path
Module: /mnt/sda5/.user/root/src/openwatcom-1.9/rel2/lib386/linux/clib3r.lib(ungetc.c)
08087cd0       ungetc_
Module: /mnt/sda5/.user/root/src/openwatcom-1.9/rel2/lib386/linux/clib3r.lib(wctomb.c)
08087d90       wctomb_
Module: /mnt/sda5/.user/root/src/openwatcom-1.9/rel2/lib386/linux/clib3r.lib(flushall.c)
08087dc0       __flushall_
08087e00       flushall_
Module: /mnt/sda5/.user/root/src/openwatcom-1.9/rel2/lib386/linux/clib3r.lib(qreadunx.c)
08087e10       __qread_
Module: /mnt/sda5/.user/root/src/openwatcom-1.9/rel2/lib386/linux/clib3r.lib(spvelnx.c)
08087e60       spawnve_
0808e430+      ___p_overlay
Module: /mnt/sda5/.user/root/src/openwatcom-1.9/rel2/lib386/linux/clib3r.lib(spvpeunx.c)
08088020       spawnvpe_
Module: /mnt/sda5/.user/root/src/openwatcom-1.9/rel2/lib386/linux/clib3r.lib(bsearch.c)
080881b0       bsearch_
Module: /mnt/sda5/.user/root/src/openwatcom-1.9/bld/sdk/rc/wres/linux386/mf_r/wres.lib(wridnacm.c)
08088270       WResIDNameCmp_
Module: /mnt/sda5/.user/root/src/openwatcom-1.9/bld/sdk/rc/wres/linux386/mf_r/wres.lib(rrnamoor.c)
080882c0       ResReadNameOrOrdinal_
080883a8       ResRead32NameOrOrdinal_
Module: /mnt/sda5/.user/root/src/openwatcom-1.9/bld/sdk/rc/wres/linux386/mf_r/wres.lib(wridfrst.c)
08088490       WResIDFromStr_
Module: /mnt/sda5/.user/root/src/openwatcom-1.9/bld/sdk/rc/wres/linux386/mf_r/wres.lib(wridfrnu.c)
08088500       WResIDFromNum_
Module: /mnt/sda5/.user/root/src/openwatcom-1.9/bld/sdk/rc/wres/linux386/mf_r/wres.lib(wrfirres.c)
08088560*      WResFirstResource_
0808858c       WResSetEmptyWindow_
080885a8       WResMakeWindow_
Module: /mnt/sda5/.user/root/src/openwatcom-1.9/rel2/lib386/linux/clib3r.lib(nmemneed.c)
080885c0       __nmemneed_
Module: /mnt/sda5/.user/root/src/openwatcom-1.9/rel2/lib386/linux/clib3r.lib(mem.c)
080885d0       __MemAllocator
08088680       __MemFree
Module: /mnt/sda5/.user/root/src/openwatcom-1.9/rel2/lib386/linux/clib3r.lib(grownear.c)
08088840+      __LastFree_
080888c0       __ExpandDGROUP_
Module: /mnt/sda5/.user/root/src/openwatcom-1.9/rel2/lib386/linux/clib3r.lib(sys_exit.c)
080889c0       sys_exit_
Module: /mnt/sda5/.user/root/src/openwatcom-1.9/rel2/lib386/linux/clib3r.lib(enterdb.c)
080889d0       __EnterWVIDEO_
0808e434+      ___WD_Present
Module: /mnt/sda5/.user/root/src/openwatcom-1.9/rel2/lib386/linux/clib3r.lib(strdup.c)
08088a00       __clib_strdup_
Module: /mnt/sda5/.user/root/src/openwatcom-1.9/rel2/lib386/linux/clib3r.lib(nanoslp.c)
08088a40       nanosleep_
Module: /mnt/sda5/.user/root/src/openwatcom-1.9/rel2/lib386/linux/clib3r.lib(sockcall.c)
08088a70       __socketcall_
Module: /mnt/sda5/.user/root/src/openwatcom-1.9/rel2/lib386/linux/clib3r.lib(chktty.c)
08088aa0       __chktty_
Module: /mnt/sda5/.user/root/src/openwatcom-1.9/rel2/lib386/linux/clib3r.lib(qwritunx.c)
08088ad0       __qwrite_
Module: /mnt/sda5/.user/root/src/openwatcom-1.9/rel2/lib386/linux/clib3r.lib(fsync.c)
08088b20       fsync_
Module: /mnt/sda5/.user/root/src/openwatcom-1.9/rel2/lib386/linux/clib3r.lib(vfprintf.c)
08088b50       vfprintf_
Module: /mnt/sda5/.user/root/src/openwatcom-1.9/rel2/lib386/linux/clib3r.lib(pipe.c)
08088b60       pipe_
Module: /mnt/sda5/.user/root/src/openwatcom-1.9/rel2/lib386/linux/clib3r.lib(execve.c)
08088b90       execve_
Module: /mnt/sda5/.user/root/src/openwatcom-1.9/rel2/lib386/linux/clib3r.lib(fork.c)
08088bc0       fork_
Module: /mnt/sda5/.user/root/src/openwatcom-1.9/rel2/lib386/linux/clib3r.lib(exit.c)
08088be5       exit_
08088bf7       _exit_
Module: /mnt/sda5/.user/root/src/openwatcom-1.9/rel2/lib386/linux/clib3r.lib(waitpid.c)
08088c00       waitpid_
Module: /mnt/sda5/.user/root/src/openwatcom-1.9/rel2/lib386/linux/clib3r.lib(strcpy.c)
08088c30       strcpy_
Module: /mnt/sda5/.user/root/src/openwatcom-1.9/rel2/lib386/linux/clib3r.lib(heapen.c)
08088c60*      _heapenable_
0808e438       ___heap_enabled
Module: /mnt/sda5/.user/root/src/openwatcom-1.9/rel2/lib386/linux/clib3r.lib(nfree.c)
08088c70       _nfree_
08088c70       free_
08092074+      ___MiniHeapFreeRover
Module: /mnt/sda5/.user/root/src/openwatcom-1.9/rel2/lib386/linux/clib3r.lib(fprtf.c)
08088d90       __fprtf_
Module: /mnt/sda5/.user/root/src/openwatcom-1.9/rel2/lib386/linux/clib3r.lib(mainlnx.c)
0808e43c+      ___FirstThreadData
0808e440+      ___GetThreadPtr
0808e444*      __AccessFileH
0808e448*      __ReleaseFileH
0808e44c*      __AccessIOB
0808e450*      __ReleaseIOB
0808e454*      __AccessNHeap
0808e458*      __AccessFHeap
0808e45c*      __ReleaseNHeap
0808e460*      __ReleaseFHeap
08088e20*      __threadid_
08088e50*      __LinuxInit_
08088e60       __exit_
0808e464*      __AccessTDList
0808e468*      __ReleaseTDList
Module: /mnt/sda5/.user/root/src/openwatcom-1.9/rel2/lib386/linux/clib3r.lib(prtf.c)
08088e80       __prtf_
Module: /mnt/sda5/.user/root/src/openwatcom-1.9/rel2/lib386/linux/clib3r.lib(mthrdini.c)
080899a0       __InitThreadData_
0808e46c*      ___ThreadDataSize
Module: /mnt/sda5/.user/root/src/openwatcom-1.9/rel2/lib386/linux/clib3r.lib(strupr.c)
080899b0       strupr_
Module: /mnt/sda5/.user/root/src/openwatcom-1.9/rel2/lib386/linux/clib3r.lib(noefgfmt.c)
0808e470       ___EFG_printf
0808e474       ___EFG_scanf
Module: /mnt/sda5/.user/root/src/openwatcom-1.9/rel2/lib386/linux/clib3r.lib(lltoa.c)
08089a20       ulltoa_
08089a90*      lltoa_
Module: /mnt/sda5/.user/root/src/openwatcom-1.9/rel2/lib386/linux/clib3r.lib(ltoa.c)
08089ac0       ultoa_
08089b10*      ltoa_
Module: /mnt/sda5/.user/root/src/openwatcom-1.9/rel2/lib386/linux/clib3r.lib(lseek.c)
08089b40       lseek_
Module: /mnt/sda5/.user/root/src/openwatcom-1.9/rel2/lib386/linux/clib3r.lib(openlnx.c)
08089b50       open_
08089b70       sopen_
Module: /mnt/sda5/.user/root/src/openwatcom-1.9/rel2/lib386/linux/clib3r.lib(close.c)
08089b90       close_
Module: /mnt/sda5/.user/root/src/openwatcom-1.9/rel2/lib386/linux/clib3r.lib(read.c)
08089bc0       read_
Module: /mnt/sda5/.user/root/src/openwatcom-1.9/rel2/lib386/linux/clib3r.lib(nrealloc.c)
08089bf0*      _nrealloc_
08089bf0       realloc_
Module: /mnt/sda5/.user/root/src/openwatcom-1.9/rel2/lib386/linux/clib3r.lib(write.c)
08089c70       write_
Module: /mnt/sda5/.user/root/src/openwatcom-1.9/rel2/lib386/linux/clib3r.lib(remove.c)
08089ca0       remove_
Module: /mnt/sda5/.user/root/src/openwatcom-1.9/rel2/lib386/linux/clib3r.lib(fopen.c)
08089cb0+      __open_flags_
08089e50+      _fsopen_
08089ea0       fopen_
08089f20*      freopen_
Module: /mnt/sda5/.user/root/src/openwatcom-1.9/rel2/lib386/linux/clib3r.lib(sprintf.c)
08089f80       sprintf_
Module: /mnt/sda5/.user/root/src/openwatcom-1.9/rel2/lib386/linux/clib3r.lib(fltused.c)
0808e478       _fltused_
Module: /mnt/sda5/.user/root/src/openwatcom-1.9/rel2/lib386/linux/clib3r.lib(_8087)
0808e47c       __8087
0808e47d       __real87
Module: /mnt/sda5/.user/root/src/openwatcom-1.9/rel2/lib386/linux/clib3r.lib(stat.c)
08089fb0       stat_
Module: /mnt/sda5/.user/root/src/openwatcom-1.9/rel2/lib386/linux/clib3r.lib(split2.c)
0808a020       _splitpath2_
Module: /mnt/sda5/.user/root/src/openwatcom-1.9/rel2/lib386/linux/clib3r.lib(memset.c)
0808a0f0       memset_
Module: /mnt/sda5/.user/root/src/openwatcom-1.9/rel2/lib386/linux/clib3r.lib(fprintf.c)
0808a110       fprintf_
Module: /mnt/sda5/.user/root/src/openwatcom-1.9/rel2/lib386/linux/clib3r.lib(stack386.c)
0808a140       stackavail_
Module: /mnt/sda5/.user/root/src/openwatcom-1.9/rel2/lib386/linux/clib3r.lib(fstat.c)
0808a150       fstat_
Module: /mnt/sda5/.user/root/src/openwatcom-1.9/rel2/lib386/linux/clib3r.lib(qsort.c)
0808a1d0       qsort_
Module: /mnt/sda5/.user/root/src/openwatcom-1.9/rel2/lib386/linux/clib3r.lib(tell.c)
0808a880       tell_
Module: /mnt/sda5/.user/root/src/openwatcom-1.9/rel2/lib386/linux/clib3r.lib(access.c)
0808a8a0       access_
Module: /mnt/sda5/.user/root/src/openwatcom-1.9/rel2/lib386/linux/clib3r.lib(searchen.c)
0808a8d0       _searchenv_
Module: /mnt/sda5/.user/root/src/openwatcom-1.9/rel2/lib386/linux/clib3r.lib(makepath.c)
0808a9e0       _makepath_
Module: /mnt/sda5/.user/root/src/openwatcom-1.9/rel2/lib386/linux/clib3r.lib(stricmp.c)
0808ab70       stricmp_
Module: /mnt/sda5/.user/root/src/openwatcom-1.9/rel2/lib386/linux/clib3r.lib(getenv.c)
0808abb0       getenv_
Module: /mnt/sda5/.user/root/src/openwatcom-1.9/rel2/lib386/linux/clib3r.lib(cmdname.c)
0808ac40       _cmdname_
Module: /mnt/sda5/.user/root/src/openwatcom-1.9/rel2/lib386/linux/clib3r.lib(strrchr.c)
0808acc0       strrchr_
Module: /mnt/sda5/.user/root/src/openwatcom-1.9/rel2/lib386/linux/clib3r.lib(snprintf.c)
0808ad20+      vsnprintf_
0808ad80       snprintf_
Module: /mnt/sda5/.user/root/src/openwatcom-1.9/rel2/lib386/linux/clib3r.lib(gtcmdunx.c)
0808adb0+      _bgetcmd_
0808ae80       getcmd_
Module: /mnt/sda5/.user/root/src/openwatcom-1.9/rel2/lib386/linux/clib3r.lib(istable.c)
0808aea0       __IsTable
Module: /mnt/sda5/.user/root/src/openwatcom-1.9/rel2/lib386/linux/clib3r.lib(tolower.c)
0808afb0       tolower_
Module: /mnt/sda5/.user/root/src/openwatcom-1.9/rel2/lib386/linux/clib3r.lib(mprotect.c)
0808afc0       mprotect_
Module: /mnt/sda5/.user/root/src/openwatcom-1.9/rel2/lib386/linux/clib3r.lib(memmove.c)
0808aff0       memmove_
Module: /mnt/sda5/.user/root/src/openwatcom-1.9/rel2/lib386/linux/clib3r.lib(strncpy.c)
0808b050       strncpy_
Module: /mnt/sda5/.user/root/src/openwatcom-1.9/rel2/lib386/linux/clib3r.lib(hugeval.c)
0808b090       __HugeValue
Module: /mnt/sda5/.user/root/src/openwatcom-1.9/rel2/lib386/linux/clib3r.lib(sys_open.c)
0808b0a0       sys_open_
Module: /mnt/sda5/.user/root/src/openwatcom-1.9/rel2/lib386/linux/clib3r.lib(nmsize.c)
0808b0d0       _nmsize_
0808b0d0*      _msize_
Module: /mnt/sda5/.user/root/src/openwatcom-1.9/rel2/lib386/linux/clib3r.lib(nexpand.c)
0808b0e0       _nexpand_
0808b0e0*      _expand_
0808b130+      __HeapManager_expand_
Module: /mnt/sda5/.user/root/src/openwatcom-1.9/rel2/lib386/linux/clib3r.lib(unlink.c)
0808b300       unlink_
Module: /mnt/sda5/.user/root/src/openwatcom-1.9/rel2/lib386/linux/clib3r.lib(comtflag.c)
0808b330*      __set_commode_
0808e480       __commode
Module: /mnt/sda5/.user/root/src/openwatcom-1.9/rel2/lib386/linux/clib3r.lib(fseek.c)
0808b390       fseek_
Module: /mnt/sda5/.user/root/src/openwatcom-1.9/rel2/lib386/linux/clib3r.lib(allocfp.c)
0808b490       __allocfp_
Module: /mnt/sda5/.user/root/src/openwatcom-1.9/rel2/lib386/linux/clib3r.lib(vsprintf.c)
0808b570       vsprintf_
Module: /mnt/sda5/.user/root/src/openwatcom-1.9/rel2/lib386/linux/clib3r.lib(setefg.c)
0808b590       __setEFGfmt_
Module: /mnt/sda5/.user/root/src/openwatcom-1.9/rel2/lib386/linux/clib3r.lib(chk8087.c)
0808b5b0*      _fpreset_
0808b5d0*      __init_8087_
0808b5e0       __chk8087_
Module: /mnt/sda5/.user/root/src/openwatcom-1.9/rel2/lib386/linux/clib3r.lib(__stos)
0808b600       __STOSB
0808b637*      __STOSD
Module: /mnt/sda5/.user/root/src/openwatcom-1.9/rel2/lib386/linux/clib3r.lib(strlen.c)
0808b6b0       strlen_
Module: /mnt/sda5/.user/root/src/openwatcom-1.9/rel2/lib386/linux/clib3r.lib(strcat.c)
0808b6d0       strcat_
Module: /mnt/sda5/.user/root/src/openwatcom-1.9/rel2/lib386/math387r.lib(efgfmt.c)
0808b6ff       _EFG_Format_
Module: /mnt/sda5/.user/root/src/openwatcom-1.9/rel2/lib386/math387r.lib(cnvs2d.c)
0808b869       __cnvs2d_
Module: /mnt/sda5/.user/root/src/openwatcom-1.9/rel2/lib386/linux/clib3r.lib(8087cw.c)
0808e484       __8087cw
Module: /mnt/sda5/.user/root/src/openwatcom-1.9/rel2/lib386/linux/clib3r.lib(init8087)
0808b880       __x87id
Module: /mnt/sda5/.user/root/src/openwatcom-1.9/rel2/lib386/linux/clib3r.lib(rtcntrl.c)
0808b8c0*      _SetLD64bit_
0808b8d0*      _SetLD80bit_
0808b8e0       _LDisDouble_


                        +--------------------+
                        |   Libraries Used   |
                        +--------------------+

/mnt/sda5/.user/root/src/openwatcom-1.9/bld/aui/linux386/aui.lib
/mnt/sda5/.user/root/src/openwatcom-1.9/bld/gui/ui/linux386/gui.lib
/mnt/sda5/.user/root/src/openwatcom-1.9/bld/ui/unix/linux386/ui.lib
/mnt/sda5/.user/root/src/openwatcom-1.9/bld/ncurses/linux386/ncurses.lib
/mnt/sda5/.user/root/src/openwatcom-1.9/bld/sdk/rc/wres/linux386/mf_r/wres.lib
/mnt/sda5/.user/root/src/openwatcom-1.9/rel2/lib386/math387r.lib
/mnt/sda5/.user/root/src/openwatcom-1.9/rel2/lib386/linux/emu387.lib
/mnt/sda5/.user/root/src/openwatcom-1.9/rel2/lib386/linux/clib3r.lib


                        +-----------------------+
                        |   Linker Statistics   |
                        +-----------------------+

Stack size:  1000 (4096.)
Memory size:  00049868 (301160.)
Entry point address: 0807a17c
Link time: 00:00.00
