Open Watcom Linker Version 1.9
Portions Copyright (c) 1985-2002 Sybase, Inc. All Rights Reserved.
Created on:       12/12/16 02:40:11
Executable Image: par.d32
creating an OS/2 32-bit dynamic link library


                        +------------+
                        |   Groups   |
                        +------------+

Group                           Address              Size
=====                           =======              ====

DGROUP                          0003:00000000        00000670



                        +--------------+
                        |   Segments   |
                        +--------------+

Segment                Class          Group          Address         Size
=======                =====          =====          =======         ====

_TEXT16                CODE           AUTO           0001:00000000   00000068
BEGTEXT                CODE           AUTO           0002:00000000   00000007
_TEXT                  CODE           AUTO           0002:00000010   00002360
_NULL                  BEGDATA        DGROUP         0003:00000000   00000004
_AFTERNULL             BEGDATA        DGROUP         0003:00000004   00000000
CONST                  DATA           DGROUP         0003:00000004   00000058
CONST2                 DATA           DGROUP         0003:0000005c   00000000
_DATA                  DATA           DGROUP         0003:0000005c   000000d4
XIB                    DATA           DGROUP         0003:00000130   00000000
XI                     DATA           DGROUP         0003:00000130   0000000c
XIE                    DATA           DGROUP         0003:0000013c   00000000
YIB                    DATA           DGROUP         0003:0000013c   00000000
YI                     DATA           DGROUP         0003:0000013c   00000000
YIE                    DATA           DGROUP         0003:0000013c   00000000
TIB                    DATA           DGROUP         0003:0000013c   00000000
TI                     DATA           DGROUP         0003:0000013c   00000000
TIE                    DATA           DGROUP         0003:0000013c   00000000
DATA                   DATA           DGROUP         0003:0000013c   00000000
_BSS                   BSS            DGROUP         0003:0000013c   0000052c
stack                  STACK          DGROUP         0003:00000670   00000000


                        +----------------+
                        |   Memory Map   |
                        +----------------+

* = unreferenced symbol
+ = symbol only referenced locally

Address        Symbol
=======        ======

Module: mxutil.obj(/mnt/sda5/.user/root/src/openwatcom-1.9/bld/trap/common/mxutil.c)
0002:00000010* GetInPtr_
0002:00000040  GetOutPtr_
0002:00000070* GetTotalSize_
0003:0000013c  _In_Mx_Ptr
0003:00000140  _Out_Mx_Ptr
0003:00000144  _Out_Mx_Num
0003:00000145  _In_Mx_Num
Module: remote.obj(/mnt/sda5/.user/root/src/openwatcom-1.9/bld/trap/common/remote.c)
0002:000001f0  TrapInit_
0002:00000260  TrapRequest_
0002:000002b0  TrapFini_
Module: packet.obj(/mnt/sda5/.user/root/src/openwatcom-1.9/bld/trap/common/packet.c)
0002:000002c0  StartPacket_
0002:000002d0  PutPacket_
0002:000002f0* PutBuffPacket_
0002:00000310  AddPacket_
0002:00000360  GetPacket_
0002:00000380  RemovePacket_
0002:000003d0* GetPacketBuffPtr_
0002:000003e0  MaxPacketSize_
Module: parlink.obj(/mnt/sda5/.user/root/src/openwatcom-1.9/bld/trap/par/c/parlink.c)
0002:00001450  RemoteGet_
0002:000014a0  RemotePut_
0002:000017d0  RemoteConnect_
0002:00001940  RemoteDisco_
0002:000019d0  RemoteLink_
0002:00001b50  RemoteUnLink_
Module: paros22.obj(/mnt/sda5/.user/root/src/openwatcom-1.9/bld/trap/par/c/paros22.c)
0002:00001b70  NumPrinters_
0002:00001bc0  AccessPorts_
0002:00001c10  FreePorts_
0002:00001c60+ CheckForPort_
0002:00001ce0  InitSys_
0002:00001db0  FiniSys_
0002:00001dc0  Ticks_
0002:00001df0  PrnAddress_
0003:00000080+ _PortTest
0003:00000086+ _PortAddress
0003:00000558+ _PortsFound
Module: os2noth2.obj(/mnt/sda5/.user/root/src/openwatcom-1.9/bld/trap/common/os2v2/os2noth2.c)
0002:00001e00  NothingToDo_
Module: /mnt/sda5/.user/root/src/openwatcom-1.9/rel2/lib386/os2/clib3r.lib(thunk)
0002:00001e24  __TNK
0002:00001e10* __TNC
Module: /mnt/sda5/.user/root/src/openwatcom-1.9/rel2/lib386/os2/clib3r.lib(far16fun)
0002:00001e74  __Far16Func2
0002:00001ebd* __Far16Func
0002:00001f0b* __Far16Pascal2
0002:00001f52* __Far16Pascal
0002:00001f9e* __Far16Cdecl2
0002:00001fec* __Far16Cdecl
0002:0000203f* __FlatToFar16
0002:00002048* __Far16ToFlat
Module: /mnt/sda5/.user/root/src/openwatcom-1.9/rel2/lib386/os2/clib3r.lib(stk)
0002:00002065  __STK
0002:00002055* __CHK
0002:00002094* __GRO
0002:00002084* __STKOVERFLOW_
Module: /mnt/sda5/.user/root/src/openwatcom-1.9/rel2/lib386/os2/clib3r.lib(itsto32.c)
0002:000020c0  __init_threadstksize_
Module: /mnt/sda5/.user/root/src/openwatcom-1.9/rel2/lib386/os2/clib3r.lib(xmsgo32.c)
0002:000020d0+ __exit_with_msg_
0002:00002120  __fatal_runtime_error_
Module: /mnt/sda5/.user/root/src/openwatcom-1.9/rel2/lib386/os2/clib3r.lib(maino32.c)
0003:0000009c+ ___FirstThreadData
0003:000000a0  ___GetThreadPtr
0003:000000a4* __AccessFileH
0003:000000a8* __ReleaseFileH
0003:000000ac* __AccessIOB
0003:000000b0* __ReleaseIOB
0003:000000b4* __AccessNHeap
0003:000000b8* __AccessFHeap
0003:000000bc* __ReleaseNHeap
0003:000000c0* __ReleaseFHeap
0002:00002146* __threadstack_
0002:0000214d* __threadid_
0002:00002154* __OS2MainInit_
0002:000021c3+ __OS2Init_
0002:00002201* __OS2Fini_
0002:00002209* __shutdown_stack_checking_
0002:0000221e  __exit_
0003:000000c4* __AccessTDList
0003:000000c8* __ReleaseTDList
0003:000000cc+ ___sig_init_rtn
0003:000000d0* ___sig_fini_rtn
0003:000000d4  __threadstksize
0003:000000d8+ ___process_fini
0003:0000055c+ ___Is_DLL
0003:00000560+ ___saved_CS
Module: /mnt/sda5/.user/root/src/openwatcom-1.9/rel2/lib386/os2/clib3r.lib(enterdb.c)
0002:00002270  __EnterWVIDEO_
0003:000000dc+ ___WD_Present
Module: /mnt/sda5/.user/root/src/openwatcom-1.9/rel2/lib386/os2/clib3r.lib(crwdata)
0003:00000124  __osmajor
0003:00000125  __osminor
0003:000000f0* __LpDllName
0003:000000f4* __LpwCmdLine
0003:000000f8* __LpwPgmName
0003:000000fc* __LpwDllName
0003:000000e8  __LpCmdLine
0003:000000ec  __LpPgmName
0003:000000e0* __dynend
0003:000000e4* __curbrk
0003:00000100* __STACKLOW
0003:00000104* __STACKTOP
0003:00000108* __ASTACKSIZ
0003:0000010c* __ASTACKPTR
0003:00000110* __cbyte
0003:00000114* __cbyte2
0003:00000118* __child
0003:0000011e  __Envptr
0003:00000122* __Envseg
0003:0000011c* __no87
0003:00000126* ___FPE_handler
Module: /mnt/sda5/.user/root/src/openwatcom-1.9/rel2/lib386/os2/clib3r.lib(cinit.c)
0002:000022a0* __CommonInit_
0003:00000664  ___hmodule
Module: /mnt/sda5/.user/root/src/openwatcom-1.9/rel2/lib386/os2/clib3r.lib(initrtns.c)
0002:000022c0  __InitRtns
0002:00002310  __FiniRtns
Module: /mnt/sda5/.user/root/src/openwatcom-1.9/rel2/lib386/os2/clib3r.lib(amblksiz.c)
0003:0000012c  __amblksiz
Module: /mnt/sda5/.user/root/src/openwatcom-1.9/rel2/lib386/os2/clib3r.lib(segdefns)
0002:00000003* ___begtext
0003:00000000* __nullarea
0003:00000130  __Start_XI
0003:0000013c  __End_XI
0003:0000013c  __Start_YI
0003:0000013c  __End_YI
Module: /mnt/sda5/.user/root/src/openwatcom-1.9/rel2/lib386/os2/clib3r.lib(dosseg)
0000:00001234  __DOSseg__


                        +----------------------+
                        |   Imported Symbols   |
                        +----------------------+

Symbol                              Module
======                              ======

OUTPUT_PORT                         wdio
INPUT_PORT                          wdio
DOSPORTACCESS                       DOSCALLS
DosDevConfig                        DOSCALLS
DosSleep                            DOSCALLS
DosQuerySysInfo                     DOSCALLS
DosFlatToSel                        DOSCALLS
DosSelToFlat                        DOSCALLS
DosWrite                            DOSCALLS
DosExit                             DOSCALLS


                        +--------------------+
                        |   Libraries Used   |
                        +--------------------+

/mnt/sda5/.user/root/src/openwatcom-1.9/rel2/lib386/os2/os2386.lib
/mnt/sda5/.user/root/src/openwatcom-1.9/rel2/lib386/os2/clib3r.lib


                        +-----------------------+
                        |   Linker Statistics   |
                        +-----------------------+

Stack size:  0000 (0.)
Memory size:  2a48 (10824.)
Link time: 00:00.00
