Open Watcom Linker Version 1.9
Portions Copyright (c) 1985-2002 Sybase, Inc. All Rights Reserved.
Created on:       12/12/16 02:42:10
Executable Image: wv.exe
creating a Windows 16-bit executable


                        +------------+
                        |   Groups   |
                        +------------+

Group                           Address              Size
=====                           =======              ====

DGROUP                          0009:0000            0000b720



                        +--------------+
                        |   Segments   |
                        +--------------+

Segment                Class          Group          Address         Size
=======                =====          =====          =======         ====

autoenv_TEXT           CODE           AUTO           0001:0000       000002ee
wininit_TEXT           CODE           AUTO           0001:02f0       00000143
winchk_TEXT            CODE           AUTO           0001:0440       00000003
wincmd_TEXT            CODE           AUTO           0001:0450       000000e5
winfilio_TEXT          CODE           AUTO           0001:0540       0000019b
winlkup_TEXT           CODE           AUTO           0001:06e0       000000b1
wguiscrn_TEXT          CODE           AUTO           0001:07a0       0000019e
fingmsg_TEXT           CODE           AUTO           0001:0940       00000153
dipman_TEXT            CODE           AUTO           0001:0aa0       000030f4
dipld_TEXT             CODE           AUTO           0001:3ba0       000001bf
madman_TEXT            CODE           AUTO           0001:3d60       00002ff0
madld_TEXT             CODE           AUTO           0001:6d50       000001bf
i64_TEXT               CODE           AUTO           0001:6f10       00000a83
trpsupp_TEXT           CODE           AUTO           0001:79a0       00000429
trpld_TEXT             CODE           AUTO           0001:7dd0       000003b4
dumb_TEXT              CODE           AUTO           0001:8190       0000028f
spawn_TEXT             CODE           AUTO           0001:8420       00000146
dbgchain_TEXT          CODE           AUTO           0001:8570       000008d2
dbgvar_TEXT            CODE           AUTO           0001:8e50       00004cb9
dbgvset_TEXT           CODE           AUTO           0001:db10       00000967
dbgass_TEXT            CODE           AUTO           0001:e480       000000e8
dbgimg_TEXT            CODE           AUTO           0001:e570       000000fa
dbglist_TEXT           CODE           AUTO           0001:e670       00000023
dbgpend_TEXT           CODE           AUTO           0001:e6a0       00000153
ambigsym_TEXT          CODE           AUTO           0001:e800       00000321
addarith_TEXT          CODE           AUTO           0001:eb30       00000315
dbgbrk_TEXT            CODE           AUTO           0002:0000       0000331f
dbgcall_TEXT           CODE           AUTO           0002:3320       00000672
dbgcall2_TEXT          CODE           AUTO           0002:39a0       000002f7
dbgcmd_TEXT            CODE           AUTO           0002:3ca0       0000008c
dbgcmdln_TEXT          CODE           AUTO           0002:3d30       0000089d
dbgdot_TEXT            CODE           AUTO           0002:45d0       0000013f
dbgexec_TEXT           CODE           AUTO           0002:4710       00000d2b
dbgexpr_TEXT           CODE           AUTO           0002:5440       00001448
dbgexpr2_TEXT          CODE           AUTO           0002:6890       00000cf7
dbgexpr3_TEXT          CODE           AUTO           0002:7590       00001436
dbgexpr4_TEXT          CODE           AUTO           0002:89d0       00002855
dbgfile_TEXT           CODE           AUTO           0002:b230       00000d98
dbghook_TEXT           CODE           AUTO           0002:bfd0       000002a0
dbginvk_TEXT           CODE           AUTO           0002:c270       000007f0
dbglkup_TEXT           CODE           AUTO           0002:ca60       00000c6f
dbgloc_TEXT            CODE           AUTO           0002:d6d0       00000a0b
dbglog_TEXT            CODE           AUTO           0002:e0e0       00000219
dbgmain_TEXT           CODE           AUTO           0002:e300       00000824
dbgmem_TEXT            CODE           AUTO           0002:eb30       0000045b
memtypes_TEXT          CODE           AUTO           0002:ef90       00000358
dbgmisc_TEXT           CODE           AUTO           0003:0000       00000f5f
dbgovl_TEXT            CODE           AUTO           0003:0f60       00000435
dbgparse_TEXT          CODE           AUTO           0003:13a0       0000049e
dbgprint_TEXT          CODE           AUTO           0003:1840       000014c2
dbgreg_TEXT            CODE           AUTO           0003:2d10       000019ba
dbgscan_TEXT           CODE           AUTO           0003:46d0       000012fb
dbgshow_TEXT           CODE           AUTO           0003:59d0       00000458
dbgsrc_TEXT            CODE           AUTO           0003:5e30       0000055c
dbgstdio_TEXT          CODE           AUTO           0003:6390       000000d2
dbgsys_TEXT            CODE           AUTO           0003:6470       00000110
dbgutil_TEXT           CODE           AUTO           0003:6580       00000d17
dbg_dbg_TEXT           CODE           AUTO           0003:72a0       00000b82
dbgprog_TEXT           CODE           AUTO           0003:7e30       00002de3
strutil_TEXT           CODE           AUTO           0003:ac20       000004b5
stub_TEXT              CODE           AUTO           0003:b0e0       0000000f
dbgwalk_TEXT           CODE           AUTO           0003:b0f0       000002dd
dynmem_TEXT            CODE           AUTO           0003:b3d0       000002cb
dbgsem_TEXT            CODE           AUTO           0003:b6a0       00001e73
dbgtrace_TEXT          CODE           AUTO           0003:d520       00000f4f
dbgexins_TEXT          CODE           AUTO           0003:e470       0000007f
dbgexdat_TEXT          CODE           AUTO           0003:e4f0       00000198
dbgmodfy_TEXT          CODE           AUTO           0003:e690       000001ba
dbgtback_TEXT          CODE           AUTO           0003:e850       000002ce
dbgerr_TEXT            CODE           AUTO           0003:eb20       000002d6
namelist_TEXT          CODE           AUTO           0003:ee00       0000078f
modlist_TEXT           CODE           AUTO           0003:f590       0000054d
sortlist_TEXT          CODE           AUTO           0003:fae0       0000037c
remmisc_TEXT           CODE           AUTO           0004:0000       000002de
remcore_TEXT           CODE           AUTO           0004:02e0       00000fb1
remfinfo_TEXT          CODE           AUTO           0004:12a0       0000017b
remenv_TEXT            CODE           AUTO           0004:1420       000001b8
remfile_TEXT           CODE           AUTO           0004:15e0       0000082c
remthrd_TEXT           CODE           AUTO           0004:1e10       0000025b
removl_TEXT            CODE           AUTO           0004:2070       000003a0
ldsupp_TEXT            CODE           AUTO           0004:2410       0000022e
doserr_TEXT            CODE           AUTO           0004:2640       0000004a
diginter_TEXT          CODE           AUTO           0004:2690       00000102
dipinter_TEXT          CODE           AUTO           0004:27a0       00000f7d
madinter_TEXT          CODE           AUTO           0004:3720       00000798
dbglit_TEXT            CODE           AUTO           0004:3ec0       00000023
dbginsty_TEXT          CODE           AUTO           0004:3ef0       0000037c
dbgdata_TEXT           CODE           AUTO           0004:4270       00000000
dbgevent_TEXT          CODE           AUTO           0004:4270       000006b7
dbgdll_TEXT            CODE           AUTO           0004:4930       00000243
dlgscan_TEXT           CODE           AUTO           0004:4b80       0000022a
dbgset_TEXT            CODE           AUTO           0004:4db0       000013dc
srcmgt_TEXT            CODE           AUTO           0004:6190       0000074a
dbgupdt_TEXT           CODE           AUTO           0004:68e0       00000121
symcomp_TEXT           CODE           AUTO           0004:6a10       00000273
litengin_TEXT          CODE           AUTO           0004:6c90       00001a1f
litwd_TEXT             CODE           AUTO           0004:86b0       00000dc9
dui_TEXT               CODE           AUTO           0004:9480       00000485
dbgwset_TEXT           CODE           AUTO           0004:9910       00000b86
dbginsp_TEXT           CODE           AUTO           0004:a4a0       00000915
dbgicon_TEXT           CODE           AUTO           0004:adc0       00000064
dbgdisp_TEXT           CODE           AUTO           0004:ae30       00000cc9
dbgpaint_TEXT          CODE           AUTO           0004:bb00       00000783
dbgcap_TEXT            CODE           AUTO           0004:c290       00000136
wndalloc_TEXT          CODE           AUTO           0004:c3d0       00000056
dlgambig_TEXT          CODE           AUTO           0004:c430       0000005c
dlgscomp_TEXT          CODE           AUTO           0004:c490       00000246
modcomp_TEXT           CODE           AUTO           0004:c6e0       0000017f
wndsys_TEXT            CODE           AUTO           0004:c860       00000a7d
wnddump_TEXT           CODE           AUTO           0004:d2e0       00000357
dbgintrn_TEXT          CODE           AUTO           0004:d640       00000000
dlgabout_TEXT          CODE           AUTO           0004:d640       00000098
dlgstk_TEXT            CODE           AUTO           0004:d6e0       00000143
dlgayn_TEXT            CODE           AUTO           0004:d830       000000d2
dlgsrc_TEXT            CODE           AUTO           0004:d910       00000041
dlgdll_TEXT            CODE           AUTO           0004:d960       00000041
dlglist_TEXT           CODE           AUTO           0004:d9b0       000003e5
dlgfile_TEXT           CODE           AUTO           0004:dda0       00000719
dlgnewp_TEXT           CODE           AUTO           0004:e4c0       00000200
dlgexpr_TEXT           CODE           AUTO           0004:e6c0       00000404
dlgbreak_TEXT          CODE           AUTO           0004:ead0       00000b23
dlgvarx_TEXT           CODE           AUTO           0004:f600       000001ff
dlgcmd_TEXT            CODE           AUTO           0004:f800       00000196
dlgnewws_TEXT          CODE           AUTO           0004:f9a0       00000112
wndhelp_TEXT           CODE           AUTO           0004:fac0       00000167
wndmenu_TEXT           CODE           AUTO           0005:0000       00001355
dbgwfpu_TEXT           CODE           AUTO           0005:1360       00000060
dbgwmac_TEXT           CODE           AUTO           0005:13c0       00000fdf
dbgwglob_TEXT          CODE           AUTO           0005:23a0       00000389
dbgwfunc_TEXT          CODE           AUTO           0005:2730       0000079e
dbgwcall_TEXT          CODE           AUTO           0005:2ed0       00000549
dbgwmod_TEXT           CODE           AUTO           0005:3420       0000088b
dbgwsrch_TEXT          CODE           AUTO           0005:3cb0       00000a4c
dbgwdlg_TEXT           CODE           AUTO           0005:4700       000003fe
dbgwfil_TEXT           CODE           AUTO           0005:4b00       00001de8
dbgwass_TEXT           CODE           AUTO           0005:68f0       00002737
dbgwimg_TEXT           CODE           AUTO           0005:9030       000004cf
dbgwbrk_TEXT           CODE           AUTO           0005:9500       00000617
dbgwio_TEXT            CODE           AUTO           0005:9b20       00000972
dbgwrep_TEXT           CODE           AUTO           0005:a4a0       0000044d
dbgwmem_TEXT           CODE           AUTO           0005:a8f0       00002263
dbgwregs_TEXT          CODE           AUTO           0005:cb60       00000035
dbgwmmx_TEXT           CODE           AUTO           0005:cba0       00000060
dbgwxmm_TEXT           CODE           AUTO           0005:cc00       00000060
dbgwmadr_TEXT          CODE           AUTO           0005:cc60       00000e89
dbgwtogl_TEXT          CODE           AUTO           0005:daf0       0000018f
dbgwvar_TEXT           CODE           AUTO           0005:dc80       00001c1e
dbgwthrd_TEXT          CODE           AUTO           0005:f8a0       00000369
dlgwind_TEXT           CODE           AUTO           0006:0000       000004b4
dbgwdata_TEXT          CODE           AUTO           0006:04c0       00000000
dlgoptn_TEXT           CODE           AUTO           0006:04c0       000003d8
dbgtool_TEXT           CODE           AUTO           0006:08a0       000000a6
dbgfing_TEXT           CODE           AUTO           0006:0950       0000031c
guimain_TEXT           CODE           AUTO           0006:0c70       00000d69
guigsysh_TEXT          CODE           AUTO           0006:19e0       0000001a
guindlg_TEXT           CODE           AUTO           0006:1a00       00000497
wndmem_TEXT            CODE           AUTO           0006:1ea0       00000055
_TEXT                  CODE           AUTO           0006:1f00       0000981b
wndstat_TEXT           CODE           AUTO           0006:b720       000001cf
wndhist_TEXT           CODE           AUTO           0006:b8f0       00000387
wndcreat_TEXT          CODE           AUTO           0006:bc80       00000621
wnddirt_TEXT           CODE           AUTO           0006:c2b0       000007e6
wndshrnk_TEXT          CODE           AUTO           0006:caa0       00000363
guiisgui_TEXT          CODE           AUTO           0006:ce10       00000003
guismetr_TEXT          CODE           AUTO           0006:ce20       000001ab
wndmsg_TEXT            CODE           AUTO           0006:cfd0       00000045
wndldstr_TEXT          CODE           AUTO           0006:d020       00000075
guiclen_TEXT           CODE           AUTO           0006:d0a0       000000ab
wndutil_TEXT           CODE           AUTO           0006:d150       000003d4
wndfront_TEXT          CODE           AUTO           0006:d530       0000011f
dlgsrch_TEXT           CODE           AUTO           0006:d650       00000674
wndcurr_TEXT           CODE           AUTO           0006:dcd0       000008a3
wndpaint_TEXT          CODE           AUTO           0006:e580       0000071c
wndcrsr_TEXT           CODE           AUTO           0006:eca0       00000652
wndfont_TEXT           CODE           AUTO           0006:f300       00000088
guimem_TEXT            CODE           AUTO           0006:f390       0000002d
wndrect_TEXT           CODE           AUTO           0006:f3c0       00000219
guifont_TEXT           CODE           AUTO           0006:f5e0       00000305
guimin_TEXT            CODE           AUTO           0006:f8f0       0000002d
wndtool_TEXT           CODE           AUTO           0006:f920       00000190
guistub_TEXT           CODE           AUTO           0006:fab0       0000000a
wndcolor_TEXT          CODE           AUTO           0006:fac0       000000cb
dlgpick_TEXT           CODE           AUTO           0006:fb90       000000dd
guipick_TEXT           CODE           AUTO           0006:fc70       0000015b
wnddlg_TEXT            CODE           AUTO           0006:fdd0       00000184
guifocus_TEXT          CODE           AUTO           0007:0000       0000012c
guixtext_TEXT          CODE           AUTO           0007:0130       0000040c
wndsrch_TEXT           CODE           AUTO           0007:0540       00000751
wndpop_TEXT            CODE           AUTO           0007:0ca0       0000103e
guispawn_TEXT          CODE           AUTO           0007:1ce0       00000001
wndgadgt_TEXT          CODE           AUTO           0007:1cf0       00000095
guihot_TEXT            CODE           AUTO           0007:1d90       00000101
guiflush_TEXT          CODE           AUTO           0007:1ea0       00000055
wndmeth_TEXT           CODE           AUTO           0007:1f00       000006ab
guiextra_TEXT          CODE           AUTO           0007:25b0       0000001f
guixdlg_TEXT           CODE           AUTO           0007:25d0       00000f7c
guiclear_TEXT          CODE           AUTO           0007:3550       00000099
guistext_TEXT          CODE           AUTO           0007:35f0       00000058
wndfdlg_TEXT           CODE           AUTO           0007:3650       00000166
guicontr_TEXT          CODE           AUTO           0007:37c0       00000d54
dlgnew_TEXT            CODE           AUTO           0007:4520       000001a9
guicheck_TEXT          CODE           AUTO           0007:46d0       00000080
guihelp_TEXT           CODE           AUTO           0007:4750       00000310
wndsel_TEXT            CODE           AUTO           0007:4a60       000005ac
wndscrol_TEXT          CODE           AUTO           0007:5010       000004fc
wndchar_TEXT           CODE           AUTO           0007:5510       00000085
guiwnclr_TEXT          CODE           AUTO           0007:55a0       000000bb
guicolor_TEXT          CODE           AUTO           0007:5660       00000555
guidbclk_TEXT          CODE           AUTO           0007:5bc0       00000013
guirscal_TEXT          CODE           AUTO           0007:5be0       00000065
guiscale_TEXT          CODE           AUTO           0007:5c50       000002d4
wndstyle_TEXT          CODE           AUTO           0007:5f30       00000000
guixwind_TEXT          CODE           AUTO           0007:5f30       00001704
guiimmdi_TEXT          CODE           AUTO           0007:7640       0000005b
gui3ddlg_TEXT          CODE           AUTO           0007:76a0       000001a9
wndimain_TEXT          CODE           AUTO           0007:7850       0000000c
wndbgch_TEXT           CODE           AUTO           0007:7860       00000000
guigetnr_TEXT          CODE           AUTO           0007:7860       0000000b
guitextm_TEXT          CODE           AUTO           0007:7870       0000008e
guicrect_TEXT          CODE           AUTO           0007:7900       0000013a
guirange_TEXT          CODE           AUTO           0007:7a40       00000206
guicursr_TEXT          CODE           AUTO           0007:7c50       0000006a
wndchoos_TEXT          CODE           AUTO           0007:7cc0       00000554
wndmouse_TEXT          CODE           AUTO           0007:8220       00000568
guistat_TEXT           CODE           AUTO           0007:8790       000003e2
wndqryhk_TEXT          CODE           AUTO           0007:8b80       00000003
wndendhk_TEXT          CODE           AUTO           0007:8b90       00000001
guixutil_TEXT          CODE           AUTO           0007:8ba0       00000de4
guipixel_TEXT          CODE           AUTO           0007:9990       0000002a
guidlg_TEXT            CODE           AUTO           0007:99c0       000000bd
wndfref_TEXT           CODE           AUTO           0007:9a80       0000001b
guicreat_TEXT          CODE           AUTO           0007:9aa0       00000081
guimenus_TEXT          CODE           AUTO           0007:9b30       000014a3
guisicon_TEXT          CODE           AUTO           0007:afe0       0000009e
guidrect_TEXT          CODE           AUTO           0007:b080       000000b6
guidrow_TEXT           CODE           AUTO           0007:b140       000000db
guiiscrl_TEXT          CODE           AUTO           0007:b220       00000127
guidraw_TEXT           CODE           AUTO           0007:b350       00000220
guidoscr_TEXT          CODE           AUTO           0007:b570       00000202
guidirty_TEXT          CODE           AUTO           0007:b780       000000b5
guiscrol_TEXT          CODE           AUTO           0007:b840       000007fa
guixtent_TEXT          CODE           AUTO           0007:c040       00000281
guirect_TEXT           CODE           AUTO           0007:c2d0       00000171
guimouse_TEXT          CODE           AUTO           0007:c450       00000052
guisize_TEXT           CODE           AUTO           0007:c4b0       00000384
guizlist_TEXT          CODE           AUTO           0007:c840       0000017c
guixdisp_TEXT          CODE           AUTO           0007:c9c0       000000c7
guildstr_TEXT          CODE           AUTO           0007:ca90       000000ee
guifront_TEXT          CODE           AUTO           0007:cb80       000001bf
guissel_TEXT           CODE           AUTO           0007:cd40       00000162
guigetrc_TEXT          CODE           AUTO           0007:ceb0       000000dc
guistrin_TEXT          CODE           AUTO           0007:cf90       00000186
guixbar_TEXT           CODE           AUTO           0007:d120       00000514
guidrawr_TEXT          CODE           AUTO           0007:d640       000004b5
guixhot_TEXT           CODE           AUTO           0007:db00       0000020b
fontstr_TEXT           CODE           AUTO           0007:dd10       00000169
guiutil_TEXT           CODE           AUTO           0007:de80       00000212
guitool_TEXT           CODE           AUTO           0007:e0a0       00000b4e
guihtool_TEXT          CODE           AUTO           0007:ebf0       00000181
guisdef_TEXT           CODE           AUTO           0007:ed80       00000000
guicutil_TEXT          CODE           AUTO           0007:ed80       00000123
rxwrap_TEXT            CODE           AUTO           0008:0000       0000133b
guihflt_TEXT           CODE           AUTO           0008:1340       00000083
guireset_TEXT          CODE           AUTO           0008:13d0       0000017b
guihook_TEXT           CODE           AUTO           0008:1550       000001f4
guixhook_TEXT          CODE           AUTO           0008:1750       000002a6
guirdlg_TEXT           CODE           AUTO           0008:1a00       0000026f
guimkey_TEXT           CODE           AUTO           0008:1c70       0000032e
guimapky_TEXT          CODE           AUTO           0008:1fa0       00000810
guipaint_TEXT          CODE           AUTO           0008:27b0       00000126
windlg_TEXT            CODE           AUTO           0008:28e0       0000033e
guifdlg_TEXT           CODE           AUTO           0008:2c20       000002cd
wpi_win_TEXT           CODE           AUTO           0008:2ef0       000009b2
guicombo_TEXT          CODE           AUTO           0008:38b0       000000f1
wwinhelp_TEXT          CODE           AUTO           0008:39b0       00000173
guithumb_TEXT          CODE           AUTO           0008:3b30       00000108
guigscrl_TEXT          CODE           AUTO           0008:3c40       000000b9
guideath_TEXT          CODE           AUTO           0008:3d00       00000004
guistr_TEXT            CODE           AUTO           0008:3d10       00000743
guixmain_TEXT          CODE           AUTO           0008:4460       00000028
guifcrck_TEXT          CODE           AUTO           0008:4490       00000003
guidead_TEXT           CODE           AUTO           0008:44a0       00000004
guiwinlp_TEXT          CODE           AUTO           0008:44b0       00000070
guihint_TEXT           CODE           AUTO           0008:4520       00000814
guisystr_TEXT          CODE           AUTO           0008:4d40       00000001
guiximdi_TEXT          CODE           AUTO           0008:4d50       000000aa
guimdi_TEXT            CODE           AUTO           0008:4e00       00000b23
guixscal_TEXT          CODE           AUTO           0008:5930       00000356
wstatus_TEXT           CODE           AUTO           0008:5c90       00000a38
guienum_TEXT           CODE           AUTO           0008:66d0       00000108
guisetup_TEXT          CODE           AUTO           0008:67e0       00000087
guifloat_TEXT          CODE           AUTO           0008:6870       0000022a
guixdraw_TEXT          CODE           AUTO           0008:6aa0       000004f2
guigetx_TEXT           CODE           AUTO           0008:6fa0       00000083
guiextnm_TEXT          CODE           AUTO           0008:7030       0000006e
wptoolbr_TEXT          CODE           AUTO           0008:70a0       0000197f
mem_TEXT               CODE           AUTO           0008:8a20       00000042
FAR_DATA               FAR_DATA       AUTO           0009:0000       00000000
_NULL                  BEGDATA        DGROUP         0009:0000       00000010
AFX_NULL               BEGDATA        DGROUP         0009:0010       00000000
CONST                  DATA           DGROUP         0009:0010       000001a8
CONST2                 DATA           DGROUP         0009:01b8       0000013a
_DATA                  DATA           DGROUP         0009:0300       00004272
XIB                    DATA           DGROUP         0009:4572       00000000
XI                     DATA           DGROUP         0009:4572       0000002a
XIE                    DATA           DGROUP         0009:459c       00000000
YIB                    DATA           DGROUP         0009:459c       00000000
YI                     DATA           DGROUP         0009:459c       0000001e
YIE                    DATA           DGROUP         0009:45ba       00000000
STRINGS                DATA           DGROUP         0009:45ba       00000000
DATA                   DATA           DGROUP         0009:45ba       00000000
BCSD                   DATA           DGROUP         0009:45ba       00000000
_BSS                   BSS            DGROUP         0009:45c0       0000415a
STACK                  STACK          DGROUP         0009:8720       00003000


                        +----------------+
                        |   Memory Map   |
                        +----------------+

* = unreferenced symbol
+ = symbol only referenced locally

Address        Symbol
=======        ======

Module: autoenv.obj(/mnt/sda5/.user/root/src/openwatcom-1.9/bld/watcom/c/autoenv.c)
0001:0156      watcom_setup_env_
Module: wininit.obj(/mnt/sda5/.user/root/src/openwatcom-1.9/bld/wv/win/c/wininit.c)
0001:02f0      TellWinHandle_
0001:0334      GUImain_
0001:0386      GUISysInit_
0001:038a      GUISysFini_
0001:0396      WndCleanUp_
0001:03b0      GetCmdArg_
0001:03b4      _fork_
0001:03c2      SetCmdArgStart_
0001:03cc      KillDebugger_
0001:03d8      GrabHandlers_
0001:03fa      RestoreHandlers_
0001:0408      TBreak_
0001:0412      PopErrBox_
0001:0432      SysSetMemLimit_
0009:0300+     _ToldWinHandle
0009:0302*     _MainHwnd
Module: winchk.obj(/mnt/sda5/.user/root/src/openwatcom-1.9/bld/wv/win/c/winchk.c)
0001:0440      CheckPointMem_
0001:0442      CheckPointRestore_
Module: wincmd.obj(/mnt/sda5/.user/root/src/openwatcom-1.9/bld/wv/win/c/wincmd.c)
0001:0466      OptDelim_
0001:0474      SetNumLines_
0001:04a0      SetNumColumns_
0001:04ba      ProcSysOption_
0001:052a      ProcSysOptInit_
Module: winfilio.obj(/mnt/sda5/.user/root/src/openwatcom-1.9/bld/wv/win/c/winfilio.c)
0001:0540      LocalErrMsg_
0001:054c      LocalOpen_
0001:05c2      LocalRead_
0001:05f8      LocalWrite_
0001:062e      LocalSeek_
0001:0680      LocalClose_
0001:06a6      LocalErase_
0001:06d8      LocalHandle_
0009:0358      _LclFile
0009:035e      _LclPathSep
Module: winlkup.obj(/mnt/sda5/.user/root/src/openwatcom-1.9/bld/wv/win/c/winlkup.c)
0001:06e0+     DOSEnvFind_
0001:0756      EnvLkup_
Module: wguiscrn.obj(/mnt/sda5/.user/root/src/openwatcom-1.9/bld/wv/win/c/wguiscrn.c)
0009:45c4*     _DebuggerHwnd
0009:45c6+     _ForceHardMode
0009:45c8      _BrkPending
0001:07b6      InitHookFunc_
0001:07b8      FiniHookFunc_
0001:07ca      ForceLines_
0001:07ce      RingBell_
0001:07e4      ConfigScreen_
0001:07ee      GetSystemDir_
0001:081c      InitScreen_
0001:0842      FiniScreen_
0001:086c      UsrScrnMode_
0001:086e*     DbgScrnMode_
0001:0870      UnknownScreen_
0001:0876      DebugScreen_
0001:08d2      SysGUI_
0001:08d2      DebugScreenRecover_
0001:08d6      UserScreen_
0001:090c      SaveMainWindowPos_
0001:0920*     uifaralloc_
0001:092c*     uifarfree_
0001:0938      GUIGetWindowClassName_
0009:0360      _ScrnLines
0009:0362+     _ScreenState
0009:45cc      _FlipMech
0009:45ce      _ScrnMode
0009:45d0      _WantFast
Module: fingmsg.obj(/mnt/sda5/.user/root/src/openwatcom-1.9/bld/wv/c/fingmsg.c)
0001:0a04      InitAboutMessage_
0001:0a74      FiniAboutMessage_
0009:0370      _AboutMessage
0009:0380      _FingMessageSize
0009:0382      _AboutSize
Module: dipman.obj(/mnt/sda5/.user/root/src/openwatcom-1.9/bld/dig/c/dipman.c)
0001:0aac      DCSymCreate_
0001:0ad6+     XDIPCliSymCreate_
0001:0aea      DIPInit_
0001:0b36      DIPLoad_
0001:0be6      DIPRegister_
0001:0c5c*     DIPFiniLatest_
0001:0cc6      DIPFini_
0001:0d26      DIPHandleSize_
0001:0d3e      DIPMoreMem_
0001:0d8c      DIPCancel_
0001:0e18+     FindImageMapSlot_
0001:1036      DIPCreateProcess_
0001:1230*     DIPSetProcess_
0001:1248      DIPDestroyProcess_
0001:127c      DIPPriority_
0001:12c6      DIPLoadInfo_
0001:144a      DIPMapInfo_
0001:14c0      DIPUnloadInfo_
0001:1522      DIPImagePriority_
0001:157e      WalkImageList_
0001:16ac      WalkModList_
0001:1750*     WalkTypeList_
0001:1a5c+     WalkSymListEx_
0001:1aa2      WalkSymList_
0001:1af4      WalkFileList_
0001:1bcc      ImageExtra_
0001:1c26      ImageDIP_
0001:1c84      ModName_
0001:1d02      ModSrcLang_
0001:1d72      ModHasInfo_
0001:1de6      ModDefault_
0001:1e64      ModAddr_
0001:1f0c      TypeMod_
0001:1f8a      TypeInfo_
0001:209e      TypeCreate_
0001:20b0      TypePointer_
0001:2148      TypeBase_
0001:224e*     TypeAddRef_
0001:22d8*     TypeRelease_
0001:2362*     TypeFreeAll_
0001:23cc      TypeArrayInfo_
0001:24a2      TypeProcInfo_
0001:2550      TypePtrAddrSpace_
0001:25e8      TypeThunkAdjust_
0001:26a0*     TypeCmp_
0001:2740      TypeName_
0001:27d2      SymMod_
0001:2848      SymName_
0001:28e0      SymType_
0001:2986      SymLocation_
0001:2a10      SymValue_
0001:2a9a      SymInfo_
0001:2b24      SymParmLocation_
0001:2bb0      SymObjType_
0001:2c52      SymObjLocation_
0001:2cdc*     SymCmp_
0001:2d7c*     SymAddRef_
0001:2e06*     SymRelease_
0001:2e90*     SymFreeAll_
0001:2efa      CueMod_
0001:2f72      CueFile_
0001:2ff8      CueFileId_
0001:3066      CueAdjust_
0001:3102      CueLine_
0001:3180      CueColumn_
0001:31fc      CueAddr_
0001:32a4      LineCue_
0001:3364      AddrCue_
0001:3436*     CueCmp_
0001:34d6      AddrMod_
0001:3604      AddrSym_
0001:36e0+     LookupSymEx_
0001:3a02      LookupSym_
0001:3a24      AddrScope_
0001:3ae0      ScopeOuter_
0009:0386      _DIPDefaults
0009:03ac+     _DIPClientInterface
Module: dipld.obj(/mnt/sda5/.user/root/src/openwatcom-1.9/bld/dig/c/win/dipld.c)
0001:3ba6      DIPSysUnload_
0001:3bd0      DIPSysLoad_
0009:46f4+     _DIPLastHandle
Module: madman.obj(/mnt/sda5/.user/root/src/openwatcom-1.9/bld/dig/c/madman.c)
0009:0400+     _MADClientInterface
0001:3f86      MADInit_
0001:3fd6      MADRegister_
0001:420c      MADLoad_
0001:4400+     MADUnload_
0001:447c      MADLoaded_
0001:44d2      MADActiveSet_
0001:4518*     MADStateCreate_
0001:45b8*     MADStateSet_
0001:4694*     MADStateCopy_
0001:46c4+     MADStateDestroy_
0001:473a      MADFini_
0001:4782      MADWalk_
0001:47d6      MADNameFile_
0001:486a      MADNameDescription_
0001:4916      MADAddrAdd_
0001:499a      MADAddrComp_
0001:49f0      MADAddrDiff_
0001:4a2c      MADAddrMap_
0001:4a6e      MADAddrFlat_
0001:4a98      MADAddrInterrupt_
0001:4af4      MADTypeWalk_
0001:4b42      MADTypeName_
0001:4b68      MADTypePreferredRadix_
0001:4b8e      MADTypeForDIPType_
0001:4bc2      MADTypeInfo_
0001:4be4      MADTypeInfoForHost_
0001:4cfc      MADTypeDefault_
0001:584c      MADTypeConvert_
0001:5e24      MADTypeToString_
0001:5ed8      MADTypeHandleToString_
0001:5f2a      MADRegistersSize_
0001:5f50      MADRegistersHost_
0001:5f7a      MADRegistersTarget_
0001:5fca      MADRegSetWalk_
0001:6018      MADRegSetName_
0001:605c      MADRegSetLevel_
0001:6092      MADRegSetDisplayGrouping_
0001:60bc      MADRegSetDisplayGetPiece_
0001:6128      MADRegSetDisplayModify_
0001:616c      MADRegSetDisplayToggleList_
0001:6196      MADRegSetDisplayToggle_
0001:61ca      MADRegModified_
0001:620c      MADRegInspectAddr_
0001:62ae      MADRegWalk_
0001:6544      MADRegFullName_
0001:65d2      MADRegSpecialGet_
0001:6606      MADRegSpecialSet_
0001:663c      MADRegSpecialName_
0001:6680      MADRegFromContextItem_
0001:66a4      MADRegUpdateStart_
0001:66dc      MADRegUpdateEnd_
0001:670c      MADCallStackGrowsUp_
0001:672e      MADCallTypeList_
0001:6752      MADCallBuildFrame_
0001:67aa      MADCallReturnReg_
0001:67e8      MADCallParmRegList_
0001:681a      MADCallUpStackSize_
0001:6840      MADCallUpStackInit_
0001:6874      MADCallUpStackLevel_
0001:68c8      MADDisasmDataSize_
0001:68e8      MADDisasmNameMax_
0001:691c      MADDisasm_
0001:69a0      MADDisasmFormat_
0001:69e2      MADDisasmInsSize_
0001:6a0c      MADDisasmInsUndoable_
0001:6a36      MADDisasmControl_
0001:6a6a      MADDisasmInsNext_
0001:6aa6      MADDisasmInspectAddr_
0001:6b20      MADDisasmMemRefWalk_
0001:6b74      MADDisasmToggleList_
0001:6b98      MADDisasmToggle_
0001:6bb8      MADTraceSize_
0001:6bdc      MADTraceInit_
0001:6c10      MADTraceOne_
0001:6c54      MADTraceHaveRecursed_
0001:6c96      MADTraceSimulate_
0001:6cd6      MADTraceFini_
0001:6d1e      MADUnexpectedBreak_
Module: madld.obj(/mnt/sda5/.user/root/src/openwatcom-1.9/bld/dig/c/win/madld.c)
0001:6d56      MADSysUnload_
0001:6d80      MADSysLoad_
0009:4708+     _MADLastHandle
Module: i64.obj(/mnt/sda5/.user/root/src/openwatcom-1.9/bld/watcom/c/i64.c)
0001:6f10      I32ToI64_
0001:6f38      U32ToU64_
0001:6f4e      U64Neg_
0001:6faa      U64Add_
0001:7024*     U64IncDec_
0001:707c      U64Sub_
0001:70b4      U64Mul_
0001:715c      U64Div_
0001:72fa      I64Div_
0001:73d8      U64Cmp_
0001:7454      U64Test_
0001:747a      I64Cmp_
0001:74fe      I64Test_
0001:7538      I64ShiftR_
0001:7604      U64ShiftR_
0001:76ca      U64ShiftL_
0001:7790+     U64Shift_
0001:77b8*     U64Cnv10_
0001:78c4*     U64Cnv8_
0001:792c*     U64Cnv16_
Module: trpsupp.obj(/mnt/sda5/.user/root/src/openwatcom-1.9/bld/dig/c/trpsupp.c)
0001:79a0      TrapSetFailCallBack_
0001:79a8*     TrapSetAccessCallBack_
0001:79b0*     TrapFailAllRequests_
0001:79ba      TrapSimpAccess_
0001:7a1e      TrapAccess_
0001:7d94+     ReqFuncProxy_
0009:4710      _ReqFunc
0009:4714      _TrapVer
Module: trpld.obj(/mnt/sda5/.user/root/src/openwatcom-1.9/bld/dig/c/win/trpld.c)
0009:4724+     _SetHardMode
0009:472c+     _HookFunc
0009:4734      _UnLockInput
0009:473c      _InfoFunction
0009:4740      _HardModeRequired
0009:4742+     _toolhelp
0001:7de2      KillTrap_
0001:7e4a      LoadTrap_
0001:8170      DoHardModeCheck_
Module: dumb.obj(/mnt/sda5/.user/root/src/openwatcom-1.9/bld/dig/c/dumb.c)
0001:822c+     ReqConnect_
0001:8240+     ReqSimpleStub_
0001:8244+     ReqGet_supplementary_service_
0001:826a+     ReqMap_addr_
0001:82a2+     ReqChecksum_mem_
0001:82bc+     ReqProg_load_
0001:82d6+     ReqProg_kill_
0001:82f0+     ReqSet_watch_
0001:8316+     ReqSet_break_
0001:8330+     ReqGet_next_alias_
0001:834a+     ReqRead_user_keyboard_
0001:835e+     ReqGet_lib_name_
0001:8378+     ReqRedirect_stdin_
0001:8392+     ReqRedirect_stdout_
0001:83ac+     ReqSplit_cmd_
0001:83c6+     DUMBREQUEST
0001:83fa      LoadDumbTrap_
0009:4750+     _Out_Mx_Ptr
Module: spawn.obj(/mnt/sda5/.user/root/src/openwatcom-1.9/bld/wv/c/spawn.c)
0001:843e      Spawn_
0001:8488      SpawnP_
0001:84d6      SpawnPP_
0001:853a      Suicide_
Module: dbgchain.obj(/mnt/sda5/.user/root/src/openwatcom-1.9/bld/wv/c/dbgchain.c)
0001:8578      FindNextIns_
0001:8b56      InitTraceBack_
0001:8b86      FiniTraceBack_
0001:8bf6      UpdateTraceBack_
0001:8cba      GetCallChain_
0001:8d0c      ShowCalls_
0001:8dcc      UnWindToFrame_
Module: dbgvar.obj(/mnt/sda5/.user/root/src/openwatcom-1.9/bld/wv/c/dbgvar.c)
0009:477c      _TypeDisplay
0001:8f2c      VarDisplayIsStruct_
0001:8f8e      VarDisplayIsHidden_
0001:8fb6      VarDisplaySetHidden_
0001:8fe8      VarDisplayFlipHide_
0001:9082      VarDisplayUpdate_
0001:90ea      VarDisplayShowMembers_
0001:90fe      VarDisplaySetMembers_
0001:911a+     VarDisplaySetBits_
0001:9142+     VarDisplayFindParent_
0001:91b0      VarDisplayDirty_
0001:91e8      VarDisplayInit_
0001:91f2      VarDisplayedOnTop_
0001:921e      VarDisplayOnTop_
0001:9372      VarDisplayFini_
0001:9504      VarDisplayAddStruct_
0001:960a      VarDisplayAddField_
0001:9746      VarDisplayAlias_
0001:9832      VarDisplayType_
0001:9988      VarErrState_
0001:99aa      VarOldErrState_
0001:9a44+     VarNodeInvalid_
0001:a122      VarKillExprSPCache_
0001:a430      VarExpand_
0001:a94e+     VarExpandNode_
0001:a980+     VarFirstExpandNode_
0001:aa76*     VarFirstNode_
0001:ab30+     VarNextRowNode_
0001:ab7e      VarNextVisibleSibling_
0001:afda      VarFindRowNode_
0001:b030      VarRowTotal_
0001:b0dc      VarFindRoot_
0001:b234      VarFindRow_
0001:b2be      VarDoneRow_
0001:b482+     VarBaseName_
0001:b526      VarBuildName_
0001:b858      VarDeExpand_
0001:b91e      VarAllNodesInvalid_
0001:b960      VarAdd1_
0001:ba74      VarExpandRow_
0001:bb4c      VarExpandRowNoCollapse_
0001:bc12      VarGetStackClass_
0001:bc50      VarExpandable_
0001:bc5e      VarIsPointer_
0001:bc6e      VarPrintText_
0001:bd38      VarDelete_
0001:bede*     VarDisplayIsHex_
0001:bef2      VarDisplaySetHex_
0001:bf12      VarDisplaySetArrayHex_
0001:bf6c*     VarDisplayIsDecimal_
0001:bf80      VarDisplaySetDecimal_
0001:bfa0      VarDisplaySetArrayDec_
0001:bffa*     VarDisplayIsChar_
0001:c00e      VarDisplaySetChar_
0001:c028*     VarDisplayIsString_
0001:c03c      VarDisplaySetString_
0001:c056*     VarDisplayIsPointer_
0001:c06a      VarDisplaySetPointer_
0001:c082      VarBreakOnWrite_
0001:c0bc      VarAddWatch_
0001:c0ea      VarAddNodeToScope_
0001:c1b8*     VarFindRootRow_
0001:c254+     VarNewDisplayRadix_
0001:c27e      VarNewCurrRadix_
0001:c296+     VarGetOnTop_
0001:c2c0+     VarGetGadget_
0001:c374*     VarSetGadget_
0001:c384*     VarSetOnTop_
0001:c62a+     VarGetValue_
0001:c91e+     VarSetValue_
0001:ce30      VarDeleteAllScopes_
0001:ce84      VarDeleteAScope_
0001:cf7c      VarUnMap_
0001:d062      VarReMap_
0001:d16c      VarInitInfo_
0001:d1aa      VarFiniInfo_
0001:d1f8      VarOkToCache_
0001:d21a      VarInfoRefresh_
0001:d44a      VarInspectPointer_
0001:d49c      VarInspectMemory_
0001:d4cc*     VarInspectCode_
0001:d4fc      VarIsLValue_
0001:d52e+     VarGetDepths_
0001:d594      VarRefreshVisible_
0001:d780      VarDoAssign_
0001:d83a      VarGetDisplayPiece_
0001:da5a      VarParentIsArray_
0009:4787      _VarError
Module: dbgvset.obj(/mnt/sda5/.user/root/src/openwatcom-1.9/bld/wv/c/dbgvset.c)
0001:db26+     Attributes_
0001:e166      TypeSet_
0001:e2c2      TypeConf_
Module: dbgass.obj(/mnt/sda5/.user/root/src/openwatcom-1.9/bld/wv/c/dbgass.c)
0001:e52c      InsMemRef_
Module: dbgimg.obj(/mnt/sda5/.user/root/src/openwatcom-1.9/bld/wv/c/dbgimg.c)
0001:e570      ImgSymName_
0001:e632      ImgSort_
Module: dbglist.obj(/mnt/sda5/.user/root/src/openwatcom-1.9/bld/wv/c/dbglist.c)
0001:e670      ConfigEvent_
0001:e682      ConfigCalls_
Module: dbgpend.obj(/mnt/sda5/.user/root/src/openwatcom-1.9/bld/wv/c/dbgpend.c)
0001:e792      DoProcPending_
0001:e7aa      ProcInput_
0001:e7d2      DoInput_
Module: ambigsym.obj(/mnt/sda5/.user/root/src/openwatcom-1.9/bld/wv/c/ambigsym.c)
0001:e806      SymPickText_
0001:e8da      Disambiguate_
Module: addarith.obj(/mnt/sda5/.user/root/src/openwatcom-1.9/bld/wv/c/addarith.c)
0001:eb30      AddAliasInfo_
0001:eba8      FreeAliasInfo_
0001:ebec      DeAlias_
0001:ec3c      AddrComp_
0001:ecec      AddrAdd_
0001:ed34      AddrAddWrap_
0001:ed7a      AddrDiff_
0001:edc0      SameAddrSpace_
Module: dbgbrk.obj(/mnt/sda5/.user/root/src/openwatcom-1.9/bld/wv/c/dbgbrk.c)
0002:0046      InitBPs_
0002:0122      InsertBPs_
0002:0310      RemoveBPs_
0002:0380      GetBPAddr_
0002:043a      GetBPText_
0002:051c      FindBreakByLine_
0002:05f6      FindBreak_
0002:07be      DispBPMsg_
0002:0e7c      ActPoint_
0002:0eac      BrkEnableAll_
0002:0ef6      BrkDisableAll_
0002:0f3e      RemovePoint_
0002:102e      RemoveBreak_
0002:1060      BrkClearAll_
0002:109e      BPsDeac_
0002:1112      BPsUnHit_
0002:1174      RecordNewPoint_
0002:1192      RecordPointStart_
0002:11da      RecordClearPoint_
0002:11f8      GetBreakOnImageCmd_
0002:1278+     ShowBPs_
0002:1360      ProcBreak_
0002:177e      CopySourceLine_
0002:17c2      GetBPSymAddr_
0002:185e      SetPointAddr_
0002:1b5e      BrkCheckWatchLimit_
0002:1e9c      AddBreak_
0002:1f4a      ToggleBreak_
0002:2014      BrkAddrRefresh_
0002:2094+     SetBPCountDown_
0002:20c6*     GetBPAutoDestruct_
0002:20da*     SetBPAutoDestruct_
0002:20f6*     SetBPCondition_
0002:2182*     SetBPPatch_
0002:2258*     SetBPResume_
0002:226e*     GetBPCountDown_
0002:227e*     GetBPCondition_
0002:229a*     GetBPPatch_
0002:22ec*     GetBPResume_
0002:2740      BreakWrite_
0002:2886*     BreakOnRawMemory_
0002:28da      BreakOnExprSP_
0002:296a      PointFini_
0002:2a5e      CheckBPErrors_
0002:2ab4      BrkCmdError_
0002:2af0      CheckBPs_
0002:2eaa      UpdateWPs_
0002:2f16      InsertWPs_
0002:2fb0      SaveBreaksToFile_
0002:2fe4      RestoreBreaksFromFile_
0002:3050      FindFirstCue_
0002:3090      BreakAllModEntries_
0002:31d4      ClearAllModBreaks_
0002:324a*     GetRowAddrDirectly_
0002:32de*     GetBPAt_
0002:3314*     GetBPsCount_
Module: dbgcall.obj(/mnt/sda5/.user/root/src/openwatcom-1.9/bld/wv/c/dbgcall.c)
0002:3346      FiniCall_
0002:3606      CallSet_
0002:3616      CallConf_
0002:36fc      ProcCall_
Module: dbgcall2.obj(/mnt/sda5/.user/root/src/openwatcom-1.9/bld/wv/c/dbgcall2.c)
0002:39a0      FreezeRegs_
0002:39f0      UnFreezeRegs_
0002:3ac0      PerformExplicitCall_
0002:3c54      PerformCall_
Module: dbgcmd.obj(/mnt/sda5/.user/root/src/openwatcom-1.9/bld/wv/c/dbgcmd.c)
0002:3d12      DoCmd_
Module: dbgcmdln.obj(/mnt/sda5/.user/root/src/openwatcom-1.9/bld/wv/c/dbgcmdln.c)
0009:48ba      _DownLoadTask
0002:3d38+     SetupChar_
0002:3d94*     NextChar_
0002:3da4+     OptError_
0002:3e2e+     SkipSpaces_
0002:3e4a      HasEquals_
0002:3e68+     WantEquals_
0002:3e98+     GetValueLong_
0002:3efa      GetValue_
0002:3f24+     GetMemory_
0002:3ffc*     GetItem_
0002:400c+     GetFileName_
0002:404c+     GetRawItem_
0002:449a      ProcCmd_
Module: dbgdot.obj(/mnt/sda5/.user/root/src/openwatcom-1.9/bld/wv/c/dbgdot.c)
0002:45d0      GetDotAddr_
0002:4610      SetCodeLoc_
0002:4638*     SetDataLoc_
0002:4652      SetCodeDot_
0002:468e      SetDataDot_
0002:46bc      GetCodeDot_
0002:46e6      GetDataDot_
Module: dbgexec.obj(/mnt/sda5/.user/root/src/openwatcom-1.9/bld/wv/c/dbgexec.c)
0002:47b4      SetProgState_
0002:491a      SetMsgText_
0002:4e48      ExecProg_
0002:5158      ReportTrap_
0002:52a2      Execute_
0002:53bc      Go_
Module: dbgexpr.obj(/mnt/sda5/.user/root/src/openwatcom-1.9/bld/wv/c/dbgexpr.c)
0002:5440      InitLC_
0002:5538      CreateLC_
0002:5598+     FreeLC_
0002:55fc      MoveLC_
0002:5648+     DupLC_
0002:566e      CreateEntry_
0002:5734      AllocatedString_
0002:5798      DeleteEntry_
0002:581e      StkEntry_
0002:58a4      MoveSP_
0002:58b8      SwapStack_
0002:59f0      FreezeStack_
0002:5a3a      UnFreezeStack_
0002:5ad0+     DupStringVal_
0002:5b62      DupStack_
0002:5cac      PushName_
0002:5cd4      PushNum_
0002:5d06      PushNum64_
0002:5d36      PushRealNum_
0002:5d6e      PushSymHandle_
0002:5d98      ExprSetAddrInfo_
0002:5e20      PushAddr_
0002:5e60      PushLocation_
0002:5eae      CombineEntries_
0002:5f5a      MoveTH_
0002:5fc6      PushType_
0002:602a      PushInt_
0002:609c      PushString_
0002:60ee      PopEntry_
0002:61d6      TstEQ_
0002:6358      TstLT_
0002:64ba      TstTrue_
0002:64e6      TstExist_
0002:653c      MakeAddr_
0002:6602      FreePgmStack_
0002:6694      ExprPurge_
0002:671a      MarkArrayOrder_
0002:672a      StartSubscript_
0002:6740      AddSubscript_
0002:683a      EndSubscript_
0009:08e4      _ExprSP
Module: dbgexpr2.obj(/mnt/sda5/.user/root/src/openwatcom-1.9/bld/wv/c/dbgexpr2.c)
0002:6964      ClassifyType_
0002:6992      ClassifyEntry_
0002:6abc      ExprGetSymList_
0002:6b72      ExprSymbol_
0002:6c24      NameResolve_
0002:6cc6      SymResolve_
0002:6e30      LValue_
0002:6e7e      ClassNum_
0002:702e      ExprResolve_
0002:7260      LRValue_
0002:7536      RValue_
0002:754a      ExprValue_
Module: dbgexpr3.obj(/mnt/sda5/.user/root/src/openwatcom-1.9/bld/wv/c/dbgexpr3.c)
0002:7618+     ConvIdx_
0002:773e      FromItem_
0002:79f8      ToItem_
0002:8412      ConvertTo_
0002:8870      BinOp_
0002:8894      AddOp_
0002:88d6      ToItemMAD_
Module: dbgexpr4.obj(/mnt/sda5/.user/root/src/openwatcom-1.9/bld/wv/c/dbgexpr4.c)
0002:89fa      DoPlus_
0002:8bd0      DoMinus_
0002:8d9e      DoMul_
0002:8f1c      DoDiv_
0002:91ba      DoMod_
0002:929a      DoAnd_
0002:9342      DoOr_
0002:93ea      DoXor_
0002:9492      DoShift_
0002:9560      DoAddr_
0002:9668      DoAPoints_
0002:97f8      DoPoints_
0002:99f2      DoConvert_
0002:9a42      DoLConvert_
0002:9b30      DoMakeComplex_
0002:9c48      DoStringConcat_
0002:9dc6      DoGivenField_
0002:9f00      DoField_
0002:a1dc      DoScope_
0002:a362      DoAssign_
0002:aa92      DoCall_
Module: dbgfile.obj(/mnt/sda5/.user/root/src/openwatcom-1.9/bld/wv/c/dbgfile.c)
0002:b23c      RealFName_
0002:b2c6      FileLoc_
0002:b376      ReadStream_
0002:b3b4      ReadText_
0002:b3c0      WriteStream_
0002:b3fe      WriteText_
0002:b442      SeekStream_
0002:b48a      FileOpen_
0002:b53c      FileClose_
0002:b57e      FileRemove_
0002:b5b0      WriteToPgmScreen_
0002:b5c8      FileHandleInfo_
0002:b5d4      SysErrMsg_
0002:b626      StashErrCode_
0002:b66c*     GetLastErr_
0002:b670*     GetSystemErrCode_
0002:b68c*     GetSystemHandle_
0002:b6a0      IsAbsolutePath_
0002:b71a      AppendPathDelim_
0002:b796      SkipPathInfo_
0002:b7e6      ExtPointer_
0002:b85a      MakeFileName_
0002:b9ac      LclStringToFullName_
0002:bc04      FullPathOpen_
0002:bc1e      LocalFullPathOpen_
0002:bcb0      FindWritable_
0002:be1c      PathOpen_
0002:be34      LocalPathOpen_
0002:be4c      SysFileInit_
0002:be9a      PathFini_
0002:bf6a      PathInit_
Module: dbghook.obj(/mnt/sda5/.user/root/src/openwatcom-1.9/bld/wv/c/dbghook.c)
0002:bfd2      InitHook_
0002:bfe0      FiniHook_
0002:c00c      ProcHook_
0002:c0a2      ConfigHook_
0002:c132      HookNotify_
0002:c1b0      HookPendingPush_
Module: dbginvk.obj(/mnt/sda5/.user/root/src/openwatcom-1.9/bld/wv/c/dbginvk.c)
0002:c278      ImplicitSet_
0002:c2a2      ImplicitConf_
0002:c7c8      Invoke_
0002:c884      ProfileInvoke_
0002:c91c      ProcInvoke_
0002:ca22      CreateInvokeFile_
0002:ca50      InvokeAFile_
Module: dbglkup.obj(/mnt/sda5/.user/root/src/openwatcom-1.9/bld/wv/c/dbglkup.c)
0002:cb74      InitLook_
0002:cbba      FiniLook_
0002:cbce      LookCaseSet_
0002:cc1a      LookSet_
0002:ce66      LookConf_
0002:cf4c      Lookup_
0002:d0a0      LookupModName_
0002:d1b0      LookupImageName_
0002:d276      LookupSymList_
0002:d4de      FreeSymHandle_
0002:d534      PurgeSymHandles_
0002:d650      FindNullSym_
0002:d666      SetWDPresent_
Module: dbgloc.obj(/mnt/sda5/.user/root/src/openwatcom-1.9/bld/wv/c/dbgloc.c)
0002:d6d0      LocationCreate_
0002:d740      LocationAppend_
0002:d7b6      LocationSet_
0002:d7d4      LocationAdd_
0002:dfee      LocationAssign_
Module: dbglog.obj(/mnt/sda5/.user/root/src/openwatcom-1.9/bld/wv/c/dbglog.c)
0002:e0ec      LogInit_
0002:e0f4      LogFini_
0002:e112      LogLine_
0002:e23c      LogStart_
0002:e24a      LogEnd_
0002:e2a2      ProcLog_
Module: dbgmain.obj(/mnt/sda5/.user/root/src/openwatcom-1.9/bld/wv/c/dbgmain.c)
0002:e3a8      GetCmdName_
0002:e3c8+     DebugInit_
0002:e4e6      ReportTask_
0002:e576      ChkBreak_
0002:e5ba      ProcACmd_
0002:e724      DebugMain_
0002:e7a2      DebugExit_
0002:e7ba      DebugFini_
0002:e868      InitCapabilities_
0002:e8c2+     CapabilitiesGet8ByteBreakpointSupport_
0002:e948+     CapabilitiesSet8ByteBreakpointSupport_
0002:e9e6+     CapabilitiesGetExactBreakpointSupport_
0002:ea76      CapabilitiesSetExactBreakpointSupport_
0009:0c94+     _SuppCapabilitiesId
Module: dbgmem.obj(/mnt/sda5/.user/root/src/openwatcom-1.9/bld/wv/c/dbgmem.c)
0002:eb3a      ChangeMemUndoable_
0002:ebf6      ProgPeekWrap_
0002:ec98      ItemSize_
0002:ef28      ItemGetMAD_
0002:ef5a      ItemPutMAD_
Module: memtypes.obj(/mnt/sda5/.user/root/src/openwatcom-1.9/bld/wv/c/memtypes.c)
0002:f0d2      MemInitTypes_
0002:f178      MemFiniTypes_
0002:f200      GetMADMaxFormatWidth_
Module: dbgmisc.obj(/mnt/sda5/.user/root/src/openwatcom-1.9/bld/wv/c/dbgmisc.c)
0003:0000      Flip_
0003:002c      ProcFlip_
0003:009a      ConfigFlip_
0003:00f2      ProcRemark_
0003:011a      ProcDo_
0003:0130      ProcAssign_
0003:01aa      GoToAddr_
0003:0204      StepIntoFunction_
0003:0242      SkipToAddr_
0003:028e      GoToReturn_
0003:02e2      ProcGo_
0003:0586      ProcSkip_
0003:05ba      ProcIf_
0003:06c4      ProcWhile_
0003:0760      ProcError_
0003:07d0      ProcQuit_
0003:0882      MakeThdCurr_
0003:09a0      IsThdCurr_
0003:0b10      GetNextTID_
0003:0b8c      NameThread_
0003:0cea      CheckForNewThreads_
0003:0d82      FindThread_
0003:0dc0      ProcThread_
0003:0f1c      FreeThreads_
Module: dbgovl.obj(/mnt/sda5/.user/root/src/openwatcom-1.9/bld/wv/c/dbgovl.c)
0003:0f60      InitOvlState_
0003:1044      FiniOvlState_
0003:107c      InvalidateTblCache_
0003:1082      SectIsLoaded_
0003:112a      SectLoad_
0003:11b8      SectTblRead_
0003:11de      SetStateOvlSect_
0003:1218      TransOvlRetAddr_
0003:123e      RemapSection_
0003:125a      AddrSection_
0003:12ee      AddrFix_
0003:133a      AddrFloat_
Module: dbgparse.obj(/mnt/sda5/.user/root/src/openwatcom-1.9/bld/wv/c/dbgparse.c)
0003:13ec      SetUpExpr_
0003:13f6      EvalLValExpr_
0003:140a      EvalExpr_
0003:142c      NormalExpr_
0003:1450      ChkExpr_
0003:1464      ReqU64Expr_
0003:14da      ReqLongExpr_
0003:14f6      ReqExpr_
0003:1510      OptExpr_
0003:1548      MakeMemoryAddr_
0003:1622      ReqMemAddr_
0003:1670      CallExpr_
0003:16b8      OptMemAddr_
0003:16e0      SetTokens_
0003:1704      LangInit_
0003:1722      LangFini_
0003:1810      LangLoad_
Module: dbgprint.obj(/mnt/sda5/.user/root/src/openwatcom-1.9/bld/wv/c/dbgprint.c)
0003:1846      StartPrintBuff_
0003:18e0      EndPrintBuff_
0003:1f3c      PrintChar_
0003:20b2      PrintString_
0003:20be      ForcePrintString_
0003:29a4      PrintValue_
0003:2b92      DoPrintList_
0003:2bfc      ChkPrintList_
0003:2c60      ProcPrint_
Module: dbgreg.obj(/mnt/sda5/.user/root/src/openwatcom-1.9/bld/wv/c/dbgreg.c)
0003:2d1e      DefAddr_
0003:2dbc      GetRegIP_
0003:2dee      SetRegIP_
0003:2e30      RecordSetRegIP_
0003:2e82      SetRegSP_
0003:2eb4+     SetRegBP_
0003:2ee6      GetRegSP_
0003:2f30      GetRegBP_
0003:30a4      SetMemBefore_
0003:30d4      SetMemAfter_
0003:32b0      ResizeRegData_
0003:3524      ClearMachState_
0003:35f8      InitMachState_
0003:3676      FiniMachState_
0003:36b2      SetupMachState_
0003:3774      CopyMachState_
0003:3806      AllocMachState_
0003:388a      FreeMachState_
0003:38b0      CollapseMachState_
0003:39ca      CheckStackPos_
0003:3a2e      AdvMachState_
0003:3bca      ChangeMem_
0003:3d02      UndoLevel_
0003:3d92      SetStackPos_
0003:3e46      MoveStackPos_
0003:3eb0      GetStackPos_
0003:3eb4      PosMachState_
0003:41b6      LastMachState_
0003:41f8      LastStackPos_
0003:4210      ProcRegister_
0003:424e      ProcUndo_
0003:4298+     GetActionString_
0003:42f4*     GetUndoString_
0003:431e*     GetRedoString_
0003:4362      ProcStackPos_
0003:4394      GoHome_
0003:43c4      ParseRegSet_
0003:4534      RegValue_
0003:459a      RegNewValue_
0009:0d16      _CurrRegSize
Module: dbgscan.obj(/mnt/sda5/.user/root/src/openwatcom-1.9/bld/wv/c/dbgscan.c)
0003:4832      InitScan_
0003:4882      FiniScan_
0003:48c6      ScanPos_
0003:48ce      ScanLen_
0003:48d6      ScanCmd_
0003:4aa0      ScanType_
0003:4b1e      ScanCall_
0003:4bc2      ScanEOC_
0003:4c40      TokenName_
0003:4d7a      Recog_
0003:4dca      ScanQuote_
0003:4e46      ScanItem_
0003:4f06      ReqEOC_
0003:4f30      FlushEOC_
0003:5290      NamePos_
0003:52a8      NameLen_
0003:53fa      ReScan_
0003:542e      ScanExpr_
0003:5448      AddActualChar_
0003:54e6      AddChar_
0003:54fc      AddCEscapeChar_
0003:55ae      Scan_
0003:5664      RawScanInit_
0003:567a      RawScanChar_
0003:5684      RawScanAdvance_
0003:5698      RawScanFini_
0003:56b4      IntNumVal_
0003:56de      RealNumVal_
0003:570a      NewCurrRadix_
0003:5718      SetCurrRadix_
0003:573a      RestoreRadix_
0003:5754      DefaultRadixSet_
0003:576e      RadixSet_
0003:5808      RadixConf_
0003:583e      FindRadixSpec_
0003:58be      AddHexSpec_
0003:592a      ForceSym2Num_
0009:0d32      _scan_string
0009:0d34      _StringStart
0009:0d38      _StringLength
0009:0d3a      _ScanCCharNum
Module: dbgshow.obj(/mnt/sda5/.user/root/src/openwatcom-1.9/bld/wv/c/dbgshow.c)
0003:59d6      GetCmdEntry_
0003:5a22      ConfigCmdList_
0003:5b52      ConfigLine_
0003:5bbc      DoConfig_
0003:5dae      ProcShow_
0003:5e06      SaveConfigToFile_
0003:5e1c      RestoreConfigFromFile_
Module: dbgsrc.obj(/mnt/sda5/.user/root/src/openwatcom-1.9/bld/wv/c/dbgsrc.c)
0003:5e36      FreeRing_
0003:5e70      InitSource_
0003:5e7a      FiniSource_
0003:5e96      DeleteRing_
0003:5f1c      InsertRing_
0003:5f88      RingEnd_
0003:5fb8      AddSourceSpec_
0003:5fea      SourceName_
0003:5fee      NextSourceSpec_
0003:600e      SourceSet_
0003:60d2      SourceConf_
0003:617e      OpenSrcFile_
Module: dbgstdio.obj(/mnt/sda5/.user/root/src/openwatcom-1.9/bld/wv/c/dbgstdio.c)
0003:6448      StdInNew_
0003:6456      StdOutNew_
Module: dbgsys.obj(/mnt/sda5/.user/root/src/openwatcom-1.9/bld/wv/c/dbgsys.c)
0003:6470+     DoSystem_
0003:6500      ProcSystem_
Module: dbgutil.obj(/mnt/sda5/.user/root/src/openwatcom-1.9/bld/wv/c/dbgutil.c)
0003:6580      DefaultSize_
0003:66cc      CnvULongHex_
0003:66ee      CnvLongDec_
0003:6710      CnvULongDec_
0003:6732      CnvLong_
0003:6758      CnvULong_
0003:677e      AddrTypeToString_
0003:6804      AddrToIOString_
0003:683c      AddrToString_
0003:687c      QualifiedSymName_
0003:69aa      CnvAddr_
0003:6b3a      CnvNearestAddr_
0003:6b88      StrAddr_
0003:6bde      UniqStrAddr_
0003:6c38      LineAddr_
0003:6d08      Ring_
0003:6d1e      Warn_
0003:6d78      AllocCmdList_
0003:6dc6      FreeCmdList_
0003:6dea      LockCmdList_
0003:6dfe      TypeInpStack_
0003:6e1e      ClearInpStack_
0003:6e40      SetInpStack_
0003:6e6a      PopInpStack_
0003:6f1a      PushInpStack_
0003:703e      CopyInpFlags_
0003:70aa      PushCmdList_
0003:70ce      PurgeInpStack_
0003:7120      FreezeInpStack_
0003:7148      UnAsm_
0003:71a4      ModImageName_
0003:71e8      DupStrLen_
0003:7240      DupStr_
0003:7274      RegFindData_
Module: dbg_dbg.obj(/mnt/sda5/.user/root/src/openwatcom-1.9/bld/wv/c/dbg_dbg.c)
0003:77e0      LookupRegName_
0003:7864      LookupInternalName_
0003:791a      LookupUserName_
0003:79bc      PurgeUserNames_
0003:7a2c      CreateSym_
0003:7b7e      InternalValue_
Module: dbgprog.obj(/mnt/sda5/.user/root/src/openwatcom-1.9/bld/wv/c/dbgprog.c)
0003:7e7c      InitCmd_
0003:8096      FindLocalDebugInfo_
0003:8290*     DownLoadCode_
0003:82b0      FiniCmd_
0003:82c6      InitLocalInfo_
0003:82d0      FiniLocalInfo_
0003:82ee      ImagePrimary_
0003:82f6      ImageEntry_
0003:8320      DefAddrSpaceForMod_
0003:8398      DefAddrSpaceForAddr_
0003:846a      MapAddrForImage_
0003:85d0      UnMapAddress_
0003:875c      UnMapPoints_
0003:87cc      FreeImage_
0003:8a32      GetLastImageName_
0003:8f9e      UnLoadSymInfo_
0003:9000      ReLoadSymInfo_
0003:9036      ReMapImageAddress_
0003:9132+     ReMapAddress_
0003:93c6      ReMapPoints_
0003:94fa*     LoadDeferredSymbols_
0003:957e      AddLibInfo_
0003:96d4      SetProgStartHook_
0003:98f0      LoadProg_
0003:998a      ReleaseProgOvlay_
0003:9a4a      InitMappableAddr_
0003:9a5e      FiniMappableAddr_
0003:9a84      GetProgName_
0003:9c56      GetProgArgs_
0003:9c66*     SetSymName_
0003:9d82      LoadNewProg_
0003:a14a      ReStart_
0003:a908      SymUserModLoad_
0003:aa52      SymUserModUnload_
0003:ab02      ProcNew_
0003:ab42      RecordNewProg_
0009:537c+     _LocalDebugInfo
Module: strutil.obj(/mnt/sda5/.user/root/src/openwatcom-1.9/bld/wv/c/strutil.c)
0003:ac20      StrCopy_
0003:ac56      StrTrim_
0003:ac92      FmtStr_
0003:b0a6      Format_
Module: stub.obj(/mnt/sda5/.user/root/src/openwatcom-1.9/bld/wv/c/stub.c)
0003:b0e0*     __RAISE
0003:b0e2*     _matherr_
Module: dbgwalk.obj(/mnt/sda5/.user/root/src/openwatcom-1.9/bld/wv/c/dbgwalk.c)
0003:b176      SSLWalk_
Module: dynmem.obj(/mnt/sda5/.user/root/src/openwatcom-1.9/bld/wv/c/dynmem.c)
0003:b41e      __fmemneed_
0003:b442      DbgAlloc_
0003:b44e      DbgMustAlloc_
0003:b48a      DbgRealloc_
0003:b496      DbgFree_
0003:b4ae      ChkAlloc_
0003:b4e6      MemFini_
0003:b5be+     MemExpand_
0003:b660      MemInit_
0003:b66c      ExtraAlloc_
0003:b678*     ExtraRealloc_
0003:b684      ExtraFree_
Module: dbgsem.obj(/mnt/sda5/.user/root/src/openwatcom-1.9/bld/wv/c/dbgsem.c)
0009:5bfe      _ScanSavePtr
0003:ce1a*     SemAllowClosestLine_
0003:d340      SSLSemantic_
0003:d3da      SSLError_
0003:d400      SSLOutToken_
0003:d4fe      SSLNextToken_
0003:d50e      SSLCurrToken_
Module: dbgtrace.obj(/mnt/sda5/.user/root/src/openwatcom-1.9/bld/wv/c/dbgtrace.c)
0003:d52e      ResizeTraceData_
0003:d644      TraceStart_
0003:d674      TraceHow_
0003:d75c      TraceSimulate_
0003:d7a4      TraceModifications_
0003:d7fa      TraceStop_
0003:d810      TraceKill_
0003:d846      SourceStep_
0003:dae4+     CheckForDLLThunk_
0003:db7c      TraceCheck_
0003:df70+     PerformTrace_
0003:e166      HasLineInfo_
0003:e1be      ExecTrace_
0003:e2d0      ProcTrace_
0003:e3c0      FiniTrace_
0003:e3f8      LevelSet_
0003:e43e      LevelConf_
Module: dbgexins.obj(/mnt/sda5/.user/root/src/openwatcom-1.9/bld/wv/c/dbgexins.c)
0003:e470      AsmExam_
0003:e4b0      SrcExam_
Module: dbgexdat.obj(/mnt/sda5/.user/root/src/openwatcom-1.9/bld/wv/c/dbgexdat.c)
0003:e63c      ProcExamine_
Module: dbgmodfy.obj(/mnt/sda5/.user/root/src/openwatcom-1.9/bld/wv/c/dbgmodfy.c)
0003:e7a6      ProcModify_
Module: dbgtback.obj(/mnt/sda5/.user/root/src/openwatcom-1.9/bld/wv/c/dbgtback.c)
0003:e850      FixOvlRetAddr_
0003:e888      WalkCallChain_
0003:ead6      ReturnAddress_
Module: dbgerr.obj(/mnt/sda5/.user/root/src/openwatcom-1.9/bld/wv/c/dbgerr.c)
0003:eb28      Error_
0003:edda      PrevError_
Module: namelist.obj(/mnt/sda5/.user/root/src/openwatcom-1.9/bld/wv/c/namelist.c)
0003:f2a4      NameListAddModules_
0003:f3e0      NameListInit_
0003:f404      NameListFree_
0003:f470      NameListNumRows_
0003:f48e      NameListName_
0003:f52a      NameListAddr_
0003:f582      NameListHandle_
Module: modlist.obj(/mnt/sda5/.user/root/src/openwatcom-1.9/bld/wv/c/modlist.c)
0003:f590      ModHasSourceInfo_
0003:f6ba      ModCompare_
0003:f7f0      ModListAddModules_
0003:f8dc      ModListInit_
0003:f946      ModListFree_
0003:f998      ModListNumRows_
0003:f9b6      ModListMod_
0003:f9ee      ModListName_
0003:fa4e      ModFirstAddr_
Module: sortlist.obj(/mnt/sda5/.user/root/src/openwatcom-1.9/bld/watcom/c/sortlist.c)
0003:fe00      SortLinkedList_
Module: remmisc.obj(/mnt/sda5/.user/root/src/openwatcom-1.9/bld/wv/c/remmisc.c)
0009:5c62      _MaxPacketLen
0004:0020      InitSuppServices_
0004:0052      FiniSuppServices_
0004:005e      InitTrap_
0004:01a8      GetSuppId_
0004:0224      RemoteSuspend_
0004:024e      RemoteResume_
0004:0278      RemoteErrMsg_
0004:02a0      FiniTrap_
Module: remcore.obj(/mnt/sda5/.user/root/src/openwatcom-1.9/bld/wv/c/remcore.c)
0004:03ec      FiniCache_
0004:040a      InitCache_
0004:047e*     HaveCache_
0004:0540      ProgPeek_
0004:0586      ProgPoke_
0004:0678*     ProgChkSum_
0004:06d6      PortPeek_
0004:0720      PortPoke_
0004:07de      ReadDbgRegs_
0004:0880      WriteDbgRegs_
0004:0894+     ArgsLen_
0004:08ac      ClearMachineDataCache_
0004:08cc      DoLoad_
0004:0a22      KillProgOvlay_
0004:0ab6      MakeProgRun_
0004:0b8a      Redirect_
0004:0c1c      RemoteMapAddr_
0004:0c9c      RemoteSetUserScreen_
0004:0cc6      RemoteSetDebugScreen_
0004:0cf0      RemoteReadUserKey_
0004:0d24      RemoteGetLibName_
0004:0d8e      RemoteGetMsgText_
0004:0de0      RemoteMachineData_
0004:0f7a      RemoteSetBreak_
0004:0fc8      RemoteRestoreBreak_
0004:101c      RemoteSetWatch_
0004:108a      RemoteRestoreWatch_
0004:10d8      RemoteSplitCmd_
0004:1158      CheckSegAlias_
0004:11a6      GetSysConfig_
0004:11d2      InitCoreSupp_
0004:1232      FiniCoreSupp_
0004:1258      TrapClientString_
Module: remfinfo.obj(/mnt/sda5/.user/root/src/openwatcom-1.9/bld/wv/c/remfinfo.c)
0004:12aa      InitFileInfoSupp_
0004:12d0      RemoteGetFileDate_
0004:1376      RemoteSetFileDate_
Module: remenv.obj(/mnt/sda5/.user/root/src/openwatcom-1.9/bld/wv/c/remenv.c)
0004:142c      InitEnvSupp_
0004:1452*     RemoteSetEnvironmentVariable_
0004:1512*     RemoteGetEnvironmentVariable_
Module: remfile.obj(/mnt/sda5/.user/root/src/openwatcom-1.9/bld/wv/c/remfile.c)
0004:15e6+     GetCachedHandle_
0004:161c+     InitHandleCache_
0004:163a+     AddCachedHandle_
0004:1672+     DelCachedHandle_
0004:16ac      InitFileSupp_
0004:170a      HaveRemoteFiles_
0004:171a      RemoteStringToFullName_
0004:182e      RemoteOpen_
0004:19d6      MaxRemoteWriteSize_
0004:1a44      RemoteWrite_
0004:1a70      RemoteWriteConsole_
0004:1b26*     MaxRemoteReadSize_
0004:1b2e      RemoteRead_
0004:1bc4      RemoteSeek_
0004:1c76      RemoteClose_
0004:1cf2      RemoteErase_
0004:1d82      RemoteFork_
0009:5d04      _RemFile
Module: remthrd.obj(/mnt/sda5/.user/root/src/openwatcom-1.9/bld/wv/c/remthrd.c)
0004:1e18      InitThreadSupp_
0004:1e3e      RemoteGetNextThread_
0004:1eba      RemoteSetThreadWithErr_
0004:1f46      RemoteSetThread_
0004:1f60      RemoteFreezeThread_
0004:1fbc      RemoteThawThread_
0004:2018      RemoteThdName_
0009:5d10+     _SuppThreadId
Module: removl.obj(/mnt/sda5/.user/root/src/openwatcom-1.9/bld/wv/c/removl.c)
0004:207a      InitOvlSupp_
0004:20a0      RemoteOvlSectSize_
0004:20f2      RemoteOvlSectPos_
0004:21ee      RemoteSectTblRead_
0004:222c      RemoteSectTblWrite_
0004:2288      RemoteOvlTransAddr_
0004:2354      RemoteOvlRetAddr_
Module: ldsupp.obj(/mnt/sda5/.user/root/src/openwatcom-1.9/bld/wv/c/ldsupp.c)
0004:2438      LDToD_
0004:246a      DToLD_
0004:2496      LDToS_
0004:24f4      SToLD_
0004:2516      LDCmp_
0004:255e      LDAdd_
0004:2596      LDSub_
0004:25ce      LDMul_
0004:2606      LDDiv_
Module: doserr.obj(/mnt/sda5/.user/root/src/openwatcom-1.9/bld/wv/c/doserr.c)
0004:264a      GetDOSErrMsg_
0009:0e50+     _DosErrMsgs
Module: diginter.obj(/mnt/sda5/.user/root/src/openwatcom-1.9/bld/wv/c/diginter.c)
0004:2690      DIGCliAlloc_
0004:26a6      DIGCliRealloc_
0004:26bc      DIGCliFree_
0004:26d2      DIGCliOpen_
0004:26ea      DIGCliSeek_
0004:2702      DIGCliRead_
0004:2718      DIGCliWrite_
0004:272e      DIGCliClose_
0004:2744      DIGCliRemove_
0004:275c      DIGCliMachineData_
Module: dipinter.obj(/mnt/sda5/.user/root/src/openwatcom-1.9/bld/wv/c/dipinter.c)
0004:27b2      DIPCliImageUnload_
0004:27e6      DIPCliMapAddr_
0004:280c      DIPCliSymCreate_
0004:2862      MadTypeToDipTypeInfo_
0004:28e6      RegLocation_
0004:2962      DIPCliItemLocation_
0004:2c82      DIPCliAssignLocation_
0004:2ca4      DIPCliSameAddrSpace_
0004:2ce0      DIPCliAddrSection_
0004:2cfa      DIPCliStatus_
0004:2d08      DIPCliCurrMAD_
0004:2d14      DeAliasAddrMod_
0004:2d40      DeAliasAddrSym_
0004:2d76      DeAliasAddrScope_
0004:2dac      DeAliasAddrCue_
0004:3494+     WVTYPEADDREF
0004:349e+     WVTYPERELEASE
0004:34a8+     WVTYPEFREEALL
0004:34b2+     WVSYMADDREF
0004:34bc+     WVSYMRELEASE
0004:34c6+     WVSYMFREEALL
0004:34d0      DIPMsgText_
0004:354a      InitDbgInfo_
0004:36c2      FiniDbgInfo_
0004:36d4      IsInternalMod_
0004:36f8      IsInternalModName_
Module: madinter.obj(/mnt/sda5/.user/root/src/openwatcom-1.9/bld/wv/c/madinter.c)
0004:372a      MADCliAddrSection_
0004:3744      MADCliAddrOvlReturn_
0004:3766      MADCliAddrToString_
0004:37e2      MADCliMemExpr_
0004:3860      MADCliReadMem_
0004:388a      MADCliWriteMem_
0004:38b4      MADCliString_
0004:392a      MADCliAddString_
0004:3938      MADCliRadixPrefix_
0004:39c6      MADCliNotify_
0004:3a48      MADCliSystemConfig_
0004:3a56      InitMADInfo_
0004:3a78      FiniMADInfo_
0004:3a84      GetMADTypeHandleDefaultAt_
0004:3ab0      GetMADTypeDefaultAt_
0004:3ade      GetMADTypeDefault_
0004:3b24      ReportMADFailure_
0004:3c42      CheckMADChange_
0004:3d48      GetMADNormalizedString_
0004:3d62      GetMADTypeNameForCmd_
0004:3dc0      FindMADTypeHandle_
0004:3e88      FindMAD_
Module: dbglit.obj(/mnt/sda5/.user/root/src/openwatcom-1.9/bld/wv/c/dbglit.c)
0004:3ec0      InitLiterals_
0004:3ed2      FiniLiterals_
Module: dbginsty.obj(/mnt/sda5/.user/root/src/openwatcom-1.9/bld/wv/c/dbginsty.c)
0004:3efe      BreakOnSelected_
0004:3f2e      ScanSelectedExpr_
0004:3f78      WndGetExprSPInspectType_
0004:4170      WndEvalInspectExpr_
Module: dbgdata.obj(/mnt/sda5/.user/root/src/openwatcom-1.9/bld/wv/c/dbgdata.c)
0009:5d30      _DbgTmpBrk
0009:5d90      _SysConfig
0009:5d98      _UserTmpBrk
0009:5df8      _NilAddr
0009:5e00      _DipFiles
0009:5e28      _NameBuff
0009:5e2c      _SrchHistory
0009:5e30      _InpStack
0009:5e34      _ContextMod
0009:5e38      _CodeAddrMod
0009:5e3c      _ExecThd
0009:5e40      _TxtBuff
0009:5e44      _CmdStart
0009:5e48      _CmdHistory
0009:5e4c      _DbgImageList
0009:5e50      _BrkList
0009:5e54      _HeadThd
0009:5e58      _MemSize
0009:5e5c      _InvokeFile
0009:5e60      _PgmStackUsage
0009:5e74      _DbgRegs
0009:5e78      _SrcSpec
0009:5e7c      _PrevRegs
0009:5e80      _TrpFile
0009:5e84      _InitCmdList
0009:5e88      _Context
0009:5f72      _DbgSwitches
0009:5f7c      _OvlSize
0009:1150      _Supports8ByteBreakpoints
0009:1152      _SupportsExactBreakpoints
0009:1154      _Language
0009:1158      _NestedCallLevel
0009:115c      _WndFlags
0009:1160      _DbgBuffers
0009:158a      _OnOffNameTab
0009:5f7e      _CheckSize
0009:5f80      _DIPStatus
0009:5f82      _TaskId
0009:5f84      _SkipCount
0009:5f86      _InvCount
0009:5f88      _ExprAddrDepth
0009:5f8a      _CurrRadix
0009:5f8b      _DbgLevel
0009:5f8c      _ActiveWindowLevel
0009:5f8d      _DefRadix
0009:5f8e      _CurrToken
0009:5f8f      _ScrnState
Module: dbgevent.obj(/mnt/sda5/.user/root/src/openwatcom-1.9/bld/wv/c/dbgevent.c)
0004:4318      RecordInit_
0004:4322      RecordFini_
0004:4358      ShowReplay_
0004:43ca      OkToSaveReplay_
0004:43e6      SaveReplayToFile_
0004:43fc      RestoreReplayFromFile_
0004:44ca      ProcRecord_
0004:454e      RecordStart_
0004:45a4      ReplayTo_
0004:46ac      CheckEventRecorded_
0004:46d6      RecordEvent_
0004:4802      RecordAsynchEvent_
0004:480e      RecordGo_
0004:482c      RecordCommand_
0004:489a      SetRecord_
0004:48ba      GetEventAddress_
0009:5f94      _EventList
Module: dbgdll.obj(/mnt/sda5/.user/root/src/openwatcom-1.9/bld/wv/c/dbgdll.c)
0004:4930      DLLMatch_
0004:49d2      DLLListName_
0004:49d6      NextDLLList_
0004:49f6      AddDLLList_
0004:4a2e      BreakOnImageLoad_
0004:4a98      InitDLLList_
0004:4aa2      FiniDLLList_
0004:4ac0      RecordClearDLLBreaks_
0004:4b1a      RecordSetDLLBreaks_
0009:5fa0      _DLLList
Module: dlgscan.obj(/mnt/sda5/.user/root/src/openwatcom-1.9/bld/wv/c/dlgscan.c)
0004:4cdc      DlgScanLong_
0004:4cf0*     DlgScanSyntax_
0004:4d12      DlgScanCodeAddr_
0004:4d26      DlgScanDataAddr_
0004:4d3a      DlgScanGivenAddr_
0004:4d4e      DlgScanAny_
0004:4d62      DlgScanString_
0004:4d96      DlgScanModName_
Module: dbgset.obj(/mnt/sda5/.user/root/src/openwatcom-1.9/bld/wv/c/dbgset.c)
0004:4e28      SwitchOnOff_
0004:4e68      ShowSwitch_
0004:4ec6      ProcSet_
0004:4ee6      ConfigSet_
0004:5098      LangSetInit_
0004:50f6      LangSetFini_
0004:5110      NewLang_
0004:57b2      PendingToggles_
0004:5f4a      SupportFini_
0004:611c      IsSupportRoutine_
Module: srcmgt.obj(/mnt/sda5/.user/root/src/openwatcom-1.9/bld/watcom/c/srcmgt.c)
0004:628c      FClearOpenSourceCache_
0004:62c0      FOpenSource_
0004:63b2      FSize_
0004:63ea      FLastOffset_
0004:6406      FileIsRemote_
0004:642a      FGetName_
0004:643a      FDoneSource_
0004:6748      FCurrLine_
0004:6754      FReadLine_
0009:17f0+     _FileList
Module: dbgupdt.obj(/mnt/sda5/.user/root/src/openwatcom-1.9/bld/wv/c/dbgupdt.c)
0004:68e0      DbgUpdate_
Module: symcomp.obj(/mnt/sda5/.user/root/src/openwatcom-1.9/bld/wv/c/symcomp.c)
0004:6a10      SymCompInit_
0004:6b60      SymCompFini_
0004:6bb4      SymCompMatches_
0009:1800+     _SortedNames
Module: litengin.obj(/mnt/sda5/.user/root/src/openwatcom-1.9/bld/wv/c/litengin.c)
0009:5fd0      __LITMSTR_SIGNED
0009:5fd4      __LITMSTR_HALF
0009:5fd8      __LITMSTR_HWORD
0009:5fdc      __LITMSTR_MMX
0009:5fe0      __LITMSTR_XMM
0009:5fe4      __LITMSTR_UNSIGNED
0009:5fe8      __LITMSTR_DBLW
0009:5fec      __LITMSTR_INT
0009:5ff0      __LITMSTR_MPSEUDOINS
0009:5ff4      __LITMSTR_REG_USER
0009:5ff8      __LITMSTR_REG_SYMBOLIC
0009:5ffc      __LITMSTR_MVAX
0009:6000      __LITMSTR_F_FLOAT
0009:6004      __LITMSTR_G_FLOAT
0009:6008      __LITMSTR_D_FLOAT
0009:600c      __LITMSTR_VAX
0009:6010      __LITMSTR_REG_NUMERIC
0009:6014      __LITMSTR_IEEE
0009:6018      __LITMSTR_PSEUDOINS
0009:601c      __LITMSTR_MSYMBOLIC
0009:6020      __LITMSTR_INT64
0009:6024      __LITMSTR_N64_PTR
0009:6028      __LITMSTR_AFFINE
0009:602c      __LITMSTR_RAWINS
0009:6030      __LITMSTR_MOS
0009:6034      __LITMSTR_REG_OS
0009:6038      __LITMSTR_UNSIGNED64
0009:603c      __LITMSTR_PCDOUBLE
0009:6040      __LITMSTR_DOWN
0009:6044      __LITMSTR_UP
0009:6048      __LITMSTR_CHOP
0009:604c      __LITMSTR_ZERO
0009:6050      __LITMSTR_PCEXTENDED
0009:6054      __LITMSTR_EMPTY
0009:6058      __LITMSTR_HEX
0009:605c      __LITMSTR_REG_NORMAL
0009:6060      __LITMSTR_REG_EXTENDED
0009:6064      __LITMSTR_PCZERO
0009:6068      __LITMSTR_VALID
0009:606c      __LITMSTR_PROJECTIVE
0009:6070      __LITMSTR_MHEX
0009:6074      __LITMSTR_SPECIAL
0009:6078      __LITMSTR_PCSINGLE
0009:607c      __LITMSTR_DECIMAL
0009:6080      __LITMSTR_MEXTENDED
0009:6084      __LITMSTR_NEAREST
0009:6088      __LITMSTR_UPPER
0009:608c      __LITMSTR_MINSIDE
0009:6090      __LITMSTR_OUTSIDE
0009:6094      __LITMSTR_MUPPER
0009:6098      __LITMSTR_INSIDE
0009:609c      __LITMSTR_FPU
0009:60a0      __LITMSTR_FAR
0009:60a4      __LITMSTR_LOWER
0009:60a8      __LITMSTR_INTERRUPT
0009:60ac      __LITMSTR_FLOAT
0009:60b0      __LITMSTR_N32_PTR
0009:60b4      __LITMSTR_CPU
0009:60b8      __LITMSTR_F32_PTR
0009:60bc      __LITMSTR_NONE
0009:60c0      __LITMSTR_F16_PTR
0009:60c4      __LITMSTR_EXTENDED
0009:60c8      __LITMSTR_EMULATOR
0009:60cc      __LITMSTR_DOUBLE
0009:60d0      __LITMSTR_NEAR
0009:60d4      __LITERR_CANT_RESTART
0009:60d8      __LITMSTR_CHAR
0009:60dc      __LITMSTR_UCHAR
0009:60e0      __LITMSTR_QWORD
0009:60e4      __LITERR_AMBIG_SRC_FILE
0009:60e8      __LITMSTR_NIL
0009:60ec      __LITMSTR_LWORD
0009:60f0      __LITERR_NO_SRC_FILE
0009:60f4      __LITMSTR_N16_PTR
0009:60f8      __LITMSTR_LONG
0009:60fc      __LITERR_BAD_PARSE_VERSION
0009:6100      __LITMSTR_ULONG
0009:6104      __LITERR_WANT_MODULE
0009:6108      __LITERR_REMOTE_LINK_BROKEN
0009:610c      __LITMSTR_WORD
0009:6110      __LITMSTR_DWORD
0009:6114      __LITMSTR_SHORT
0009:6118      __LITMSTR_BYTE
0009:611c      __LITMSTR_USHORT
0009:6120      __LITERR_NEAR_TOKEN
0009:6124      __LITERR_NO_RETURN_ADDRESS
0009:6128      __LITERR_CALL_NOT_ALLOWED
0009:612c      __LITERR_NO_ACCESS
0009:6130      __LITERR_NO_OBJECT_FOR_CALL
0009:6134      __LITERR_NO_IMAGE
0009:6138      __LITERR_EXECUTING_AT
0009:613c      __LITERR_NOT_PRINTABLE
0009:6140      __LITERR_STK_UNDERFL
0009:6144      __LITERR_TOO_MANY_SCANRESTORE
0009:6148      __LITERR_PARSE_FILE
0009:614c      __LITERR_INVALID_OPERATOR
0009:6150      __LITERR_NOT_WATCH_SIZE
0009:6154      __LITERR_CALLED_FROM
0009:6158      __LITERR_STK_OVERFL
0009:615c      __LITERR_NEAR_END_OF_LINE
0009:6160      __LITERR_BAD_HOOK
0009:6164      __LITERR_NEAR_END_OF_COMMAND
0009:6168      __LITERR_TOO_MANY_SCANSAVE
0009:616c      __LITERR_CHAR_STAR_STAR
0009:6170      __LITERR_BAD_SUBSTRING_INDEX
0009:6174      __LITERR_CANT_KILL_PROGRAM
0009:6178      __LITERR_WANT_END_STRING
0009:617c      __LITERR_EXPR_TOO_LONG
0009:6180      __LITERR_NO_OVL_STATE
0009:6184      __LITERR_NO_READ_PORT
0009:6188      __LITERR_ZERO_MOD
0009:618c      __LITERR_NO_LANG
0009:6190      __LITERR_NO_WRITE_MEM
0009:6194      __LITERR_ZERO_DIV
0009:6198      __LITERR_NO_WRITE_PORT
0009:619c      __LITERR_NO_MAKE_CURR_THREAD
0009:61a0      __LITERR_WANT_COMMAND_LIST
0009:61a4      __LITERR_NO_READ_MEM
0009:61a8      __LITERR_TOO_MANY_CALLS
0009:61ac      __LITERR_NO_SUCH_THREAD
0009:61b0      __LITERR_EXPR_STACK_OVER
0009:61b4      __LITERR_CANT_SET_ALL_THREADS
0009:61b8      __LITERR_UNKNOWN_SYMBOL
0009:61bc      __LITERR_NO_SUCH_POINT
0009:61c0      __LITERR_VOID_BASE
0009:61c4      __LITERR_SYS_FAIL
0009:61c8      __LITERR_CANNOT_RESTORE_STDOUT
0009:61cc      __LITERR_FILE_NOT_OPEN
0009:61d0      __LITERR_NEED_ADDRESS
0009:61d4      __LITERR_SYM_NOT_CREATED
0009:61d8      __LITERR_INCONSISTENT_GO
0009:61dc      __LITERR_NO_ROUTINE
0009:61e0      __LITERR_POINT_EXISTS
0009:61e4      __LITERR_TOO_MANY_PARMS
0009:61e8      __LITERR_DUPLICATE_TYPE_SPEC
0009:61ec      __LITERR_ILL_TYPE
0009:61f0      __LITERR_CANNOT_RESTORE_STDIN
0009:61f4      __LITERR_ILLEGAL_TYPE_SPEC
0009:61f8      __LITERR_NO_MODULE
0009:61fc      __LITERR_TYPE_CONVERSION
0009:6200      __LITERR_DBG_INTERRUPT
0009:6204      __LITERR_WANT_EOC
0009:6208      __LITERR_NO_MEMORY_FOR_EXPR
0009:620c      __LITERR_NO_MEMORY_FOR_DEBUG
0009:6210      __LITERR_LOG_NOT_STARTED
0009:6214      __LITERR_LOG_STARTED
0009:6218      __LITERR_NO_MEMORY
0009:621c      __LITERR_NO_SOURCE_INFO
0009:6220      __LITERR_WANT_ON_OFF
0009:6224      __LITERR_WANT_REG_NAME
0009:6228      __LITERR_NO_MEMORY_FOR_WINDOW
0009:622c      __LITERR_WANT_TOKEN
0009:6230      __LITERR_WANT_NAME
0009:6234      __LITERR_BAD_OPTION
0009:6238      __LITERR_NO_CODE
0009:623c      __LITERR_WANT_OPERAND
0009:6240+     __LITERR_BAD_TYPE_NAME
0009:6244      __LITERR_WANT_FILENAME
0009:6248      __LITERR_BAD_CALL_TYPE
0009:624c      __LITERR_WANT_LOOKUP_ITEM
0009:6250      __LITLDS_INFO_BAD_VERSION
0009:6254      __LITIO
0009:6258      __LITBAD_TRAP_FILE
0009:625c      __LITLDS_INFO_INVALID
0009:6260      __LITDIP_load_failed
0009:6264      __LITNo_DIPs_Found
0009:6268      __LITLMS_FREAD_FAILED
0009:626c      __LITSym_Info_Load_Failed
0009:6270      __LITERR_GENERIC
0009:6274      __LITLMS_INVALID_MAD_VERSION
0009:6278      __LITERR_BAD_SUBCOMMAND
0009:627c      __LITERR_BAD_COMMAND
0009:6280      __LITOUT_OF_DOS_MEMORY
0009:6284      __LITINCORRECT_TRAP_FILE_VERSION
0009:6288      __LITLMS_UNREGISTERED_MAD
0009:628c      __LITERR_BAD_RADIX
0009:6290      __LITLMS_INVALID_MAD
0009:6294      __LITCANT_LOAD_TRAP_FILE
0009:6298      __LITLMS_RECURSIVE_MAD_FAILURE
0009:629c      __LITStr_ACTION_MODIFY_REGISTER
0009:62a0      __LITUnknown_type
0009:62a4      __LITLDS_INVALID_DIP_VERSION
0009:62a8      __LITStr_ACTION_MODIFY_MEMORY
0009:62ac      __LITinherited_members
0009:62b0      __LITLDS_FSEEK_FAILED
0009:62b4      __LITLDS_FREAD_FAILED
0009:62b8      __LITLDS_FWRITE_FAILED
0009:62bc      __LITStr_ACTION_THREAD_CHANGE
0009:62c0      __LITLDS_TOO_MANY_DIPS
0009:62c4      __LITStr_ACTION_MODIFY_IP
0009:62c8      __LITLDS_NO_MEM
0009:62cc      __LITStr_ACTION_ASSIGNMENT
0009:62d0      __LITLDS_INVALID_DIP
0009:62d4      __LITStr_ACTION_MODIFY_VARIABLE
0009:62d8      __LITStr_ACTION_EXECUTE
0009:62dc      __LITImage_Not_Loaded
0009:62e0      __LITLDS_FOPEN_FAILED
0009:62e4      __LITStruct
0009:62e8      __LITfield
0009:62ec      __LITTask_Exception
0009:62f0      __LITUser_Interupt
0009:62f4      __LITDead
0009:62f8      __LITNo_Visible_Members
0009:62fc      __LITBottom_Of_Stack
0009:6300      __LITThread_Not_Exist
0009:6304      __LITRunnable
0009:6308      __LITTop_Of_Stack
0009:630c      __LITDLL_UnLoaded
0009:6310      __LITFrozen
0009:6314      __LITArray
0009:6318      __LITNew_Task
0009:631c      __LITNo_More_Undos
0009:6320      __LITCurrent
0009:6324      __LITNo_Task
0009:6328      __LITDLL_Loaded
0009:632c      __LITBreak_on_DLL_Load
0009:6330      __LITTask_Not_Loaded
0009:6334      __LITSTARTUP_No_Recog_Optn
0009:6338      __LITEnd_Of_Line
0009:633c      __LITDebugger_Startup_Error
0009:6340+     __LITMSG_Unexpected_Break
0009:6344      __LITMap_Selector
0009:6348      __LITSTARTUP_Expect_Eql
0009:634c      __LITInternal_Error
0009:6350      __LITNewVal
0009:6354      __LITSTARTUP_MAD_Not_Init
0009:6358      __LITSTARTUP_Num_Too_Big
0009:635c      __LITMap_Named_Selector
0009:6360      __LITBreak_on_execute
0009:6364      __LITNum_Name
0009:6368      __LITTask_Completed
0009:636c      __LITBreak_on_write
0009:6370      __LITOldVal
0009:6374      __LITNew_Expression
0009:6378      __LITSym_Name_Name
0009:637c      __LITSTARTUP_Invalid_Num
0009:6380      __LITWARN_ONLY_MAX_EXPAND_ARRAY_ELEMENTS
0009:6384      __LITQuest_Marks
0009:6388      __LITEmpty
0009:638c      __LITSTARTUP_Expect_Brace
0009:6390      __LITSTARTUP_Loading_PRS
0009:6394      __LITSTARTUP_Invalid_Option
0009:6398      __LITSTARTUP_Expect_End_Env_Str
0009:639c      __LITSTARTUP_DIP_Not_Init
0009:63a0      __LITSTARTUP_DIP_Not_Register
0004:6c90      InitEngineLiterals_
0004:7b12      FiniEngineLiterals_
0009:63a4+     __LITWARN_Unable_To_Remap_Tmp
0009:63a8      __LITWARN_No_Nxt_Src_Ln
Module: litwd.obj(/mnt/sda5/.user/root/src/openwatcom-1.9/bld/wv/c/litwd.c)
0009:63b0      __LITDOS_invalid_drive
0009:63b4+     __LITUnable_to_get_rm_sel
0009:63b8+     __LITUnable_to_alloc_DOS_mem
0009:63bc      __LITDOS_remove_cd
0009:63c0      __LITDOS_not_same_device
0009:63c4      __LITDOS_access_denied
0009:63c8      __LITDOS_too_many_open_files
0009:63cc      __LITDOS_invalid_format
0009:63d0      __LITDOS_memory_control
0009:63d4      __LITDOS_invalid_address
0009:63d8+     __LITERR_NOT_PROCEDURE
0009:63dc      __LITDOS_invalid_environment
0009:63e0      __LITDOS_path_not_found
0009:63e4+     __LITERR_CANT_GET_RV
0009:63e8      __LITDOS_invalid_handle
0009:63ec      __LITDOS_invalid_access_code
0009:63f0      __LITDOS_insufficient_memory
0009:63f4      __LITDOS_invalid_function
0009:63f8      __LITERR_RX_10
0009:63fc      __LITERR_RX_11
0009:6400      __LITERR_RX_12
0009:6404      __LITERR_RX_13
0009:6408      __LITDOS_file_not_found
0009:640c      __LITDOS_invalid_data
0009:6410      __LITERR_RX_7
0009:6414      __LITERR_RX_4
0009:6418      __LITERR_RX_5
0009:641c      __LITERR_RX_2
0009:6420      __LITERR_RX_3
0009:6424      __LITERR_RX_1
0009:6428      __LITERR_MACRO_NOT_VALID
0009:642c      __LITERR_WANT_MENU_ITEM
0009:6430+     __LITUnable_to_init_ui
0009:6434      __LITERR_BAD_TAB
0009:6438      __LITERR_BAD_DCLICK
0009:643c      __LITERR_BAD_ARRAY_INDEX
0009:6440      __LITERR_WIND_NOT_OPEN
0009:6444      __LITERR_BAD_COLOUR_ATTR
0009:6448      __LITERR_BAD_WIND_NAME
0009:644c      __LITERR_MATCH_NOT_SUPPORTED
0009:6450      __LITERR_RX_8
0009:6454      __LITERR_RX_9
0009:6458      __LITERR_RX_6
0009:645c      __LITWindowXMM
0009:6460      __LITID
0009:6464      __LITWindowReplay
0009:6468      __LITNo_Source_Line
0009:646c      __LITWindowFPU
0009:6470      __LITNo_text_to_complete
0009:6474      __LITWindowAccelerator
0009:6478      __LITWindowModules
0009:647c      __LITWindowSearch
0009:6480      __LITWindowMMX
0009:6484      __LITWindowGlobal_Functions
0009:6488      __LITWindowCalls
0009:648c      __LITExecutable_File
0009:6490      __LITWindowFunctions
0009:6494      __LITERR_BAD_WINDOW_ATTR
0009:6498      __LITDebug_Information_Type
0009:649c      __LITDebug_Information
0009:64a0      __LITNo_Match_Found
0009:64a4      __LITState
0009:64a8      __LITWindowLocals
0009:64ac      __LITWindowAssembly
0009:64b0      __LITWindowWatches
0009:64b4      __LITWindowStack
0009:64b8      __LITWindowRegisters
0009:64bc      __LITWindowGlobals
0009:64c0      __LITWindowCurrent
0009:64c4      __LITWindowLog
0009:64c8      __LITWindowImages
0009:64cc      __LITWindowFile_Variables
0009:64d0      __LITWindowFileView
0009:64d4      __LITWindowVariable
0009:64d8      __LITWindowThreads
0009:64dc      __LITWindowBinary
0009:64e0      __LITWindowMemory
0009:64e4      __LITWindowSource
0009:64e8      __LITWindowIO_Ports
0009:64ec      __LITWindowTmpFile
0009:64f0      __LITWindowBrk
0009:64f4      __LITBreakpoint_File_Name
0009:64f8      __LITDLL_Name
0009:64fc      __LITCancel
0009:6500      __LITSymbol_List
0009:6504      __LITConfiguration_File_Name
0009:6508      __LITSymbol_File
0009:650c      __LITThe_WATCOM_Debugger
0009:6510      __LITOK
0009:6514      __LITError
0009:6518      __LITAbout_The_WATCOM_Debugger
0009:651c      __LITModules
0009:6520      __LITDlgBreak
0009:6524      __LITReplay_File_Name
0009:6528      __LITWindowAll
0009:652c      __LITXModule_
0009:6530      __LITNew_Source
0009:6534      __LITProgram_Name
0009:6538      __LITGoWhere
0009:653c      __LITXSymbol_
0009:6540      __LITEnter_New_Command
0009:6544      __LITEnter_Window
0009:6548      __LITmac_main_menu
0009:654c+     __LITThe_WATCOM_Debugger_for_PowerBuilder
0009:6550      __LITMacro_Type
0009:6554      __LITmac_command_string
0009:6558      __LITMac_Window
0009:655c      __LITRedefine_Key
0009:6560      __LITmac_popup_menu
0009:6564      __LITNew_Offset
0009:6568      __LITDefinition
0009:656c      __LITNew_Port_Addr
0009:6570      __LITNew_Line
0009:6574      __LITPress_the_Key
0009:6578      __LITNew_Addr
0009:657c      __LITMem_Addr
0009:6580      __LITNew_Module
0009:6584      __LITEnter_File_Name
0009:6588      __LITKey_Name
0009:658c+     __LITPowerBuilder_Not_Running
0009:6590      __LITWARN_Asynch_Event
0009:6594      __LITWARN_Cycle_Detected
0009:6598      __LITWARN_Losing_Redo
0009:659c      __LITWARN_Incomplete_Undo
0004:86b0      DUIInitLiterals_
0004:8e58      DUIFiniLiterals_
0009:65a0+     __LITPowerBuilder_Debugger_Already_Running
0009:65a4      __LITWARN_Program_Will_Slow
0009:65a8+     __LITWARN_Unable_To_Remap
0009:65ac      __LITWARN_Kill_PowerBuilder
0009:65b0+     __LITFirst_UI_Message
0009:65b4      __LITWARN_Source_Not_Available
Module: dui.obj(/mnt/sda5/.user/root/src/openwatcom-1.9/bld/wv/c/dui.c)
0004:9488      DUIUpdate_
0004:94aa      DUIStatusText_
0004:94b6      DUIMsgBox_
0004:94c2      DUIDlgTxt_
0004:94ce      DUIInfoBox_
0004:94da      DUIStop_
0004:94e6      DUIClose_
0004:94f2      DUIInit_
0004:957a      DUIFini_
0004:95d2      DUIFreshAll_
0004:95de      DUIStopRefresh_
0004:95ec      DUIShow_
0004:9638      DUIWndUser_
0004:9644      DUIWndDebug_
0004:9650      DUIShowLogWindow_
0004:9662      ReqWndName_
0004:969c      DUIGetMonitorType_
0004:96d2      DUIScreenSizeY_
0004:96d6      DUIScreenSizeX_
0004:96da      DUIErrorBox_
0004:96f6      DUIArrowCursor_
0004:9704      DUILoadString_
0004:9710      DUIAskIfAsynchOk_
0004:9744      DUIFlushKeys_
0004:9750      DUIPlayDead_
0004:975e      DUISysEnd_
0004:976c      DUISysStart_
0004:9778      DUIRingBell_
0004:9784      DUIProcPendingPaint_
0004:9790      DUIInfoRelease_
0004:97ae      DUIHourGlass_
0004:97ba      WndDoInput_
0004:97ca      DUIExitCriticalSection_
0004:97ca      DUIEnterCriticalSection_
0004:97cc      DUIGetSourceLine_
0004:9832      DUIIsDBCS_
0004:983e      DUIEnvLkup_
0004:9850      DUIDirty_
0004:9862      DUISrcOrAsmInspect_
0004:987c      DUIAddrInspect_
0004:9896      DUIRemoveBreak_
0004:98a2      StartupErr_
0004:98b6      DUICopyCopied_
0004:98b6      DUICopySize_
0004:98b8*     DUISymbolsCancelled_
0004:98b8      DUICopyCancelled_
0004:98bc      DUIImageLoaded_
Module: dbgwset.obj(/mnt/sda5/.user/root/src/openwatcom-1.9/bld/wv/c/dbgwset.c)
0004:99b6      DClickSet_
0004:9a0a      DClickConf_
0004:9a36      InputSet_
0004:9aa8      InputConf_
0004:9af6      LookUpCtrlKey_
0004:9b6e      KeyName_
0004:9e40      MacAddDel_
0004:a028      MacroSet_
0004:a12a      MacroConf_
0004:a1f4      FiniMacros_
0004:a288      TabIntervalGet_
0004:a28c      TabIntervalSet_
0004:a2a6      TabSet_
0004:a304      TabConf_
0004:a338      SearchSet_
0004:a40a      SearchConf_
Module: dbginsp.obj(/mnt/sda5/.user/root/src/openwatcom-1.9/bld/wv/c/dbginsp.c)
0004:a4ce      WndTmpFileInspect_
0004:a628      WndFileInspect_
0004:a738      WndFuncInspect_
0004:a766      WndGblFuncInspect_
0004:a796      WndGblVarInspect_
0004:a7c6      WndMemInspect_
0004:a822      WndIOInspect_
0004:a856      WndAddrInspect_
0004:a878      WndAsmInspect_
0004:aa28      WndSrcInspect_
0004:aa70      WndSrcOrAsmInspect_
0004:aaaa      WndNewSrcInspect_
0004:aac6      WndModInspect_
0004:ab70      WndModListInspect_
0004:acac      WndInspectExprSP_
0004:ace0      WndInspect_
0004:ad2a      WndClassInspect_
0004:ad56      WndVarInspect_
Module: dbgicon.obj(/mnt/sda5/.user/root/src/openwatcom-1.9/bld/wv/c/dbgicon.c)
0009:1ab8      _MainIcon
0009:1ac0      _AsmIcon
0009:1ac8      _BrkIcon
0009:1ad0      _CallIcon
0009:1ad8      _FPUIcon
0009:1ae0      _MMXIcon
0009:1ae8      _XMMIcon
0009:1af0      _FuncIcon
0009:1af8      _GlobIcon
0009:1b00      _AclIcon
0009:1b08      _ImgIcon
0009:1b10      _IOIcon
0009:1b18      _LogIcon
0009:1b20      _MemIcon
0009:1b28      _ModIcon
0009:1b30      _RegIcon
0009:1b38      _RepIcon
0009:1b40      _SrcIcon
0009:1b48      _SrchIcon
0009:1b50      _StkIcon
0009:1b58      _TrdIcon
0009:1b60      _VarIcon
0009:1b68      _LocIcon
0009:1b70      _WatIcon
Module: dbgdisp.obj(/mnt/sda5/.user/root/src/openwatcom-1.9/bld/wv/c/dbgdisp.c)
0004:ae6e      ScanStatus_
0004:aeea      GetWndFont_
0004:af1a      WndFontHook_
0004:af70      WndMainClientSize_
0004:af84      WndMainResized_
0004:b02e      WndResizeHook_
0004:b0ae      InitFont_
0004:b0ca      FiniFont_
0004:b154      ProcFont_
0004:b2b0      ConfigFont_
0004:b2e2      FontChange_
0004:b744      ProcDisplay_
0004:b840      ConfigDisp_
0009:6648      _WndMainRect
0009:6650      _WndPosition
Module: dbgpaint.obj(/mnt/sda5/.user/root/src/openwatcom-1.9/bld/wv/c/dbgpaint.c)
0009:1bc2      _WndStatusColour
0009:1bc4      _WndPlainAttr
0009:1bc5      _WndSelectedAttr
0009:1bc6      _WndCursorAttr
0009:1bd9      _WndColours
0009:1c02      _WndNumColours
0004:bb50      WndMapTabAttr_
0004:bc24      ProcPaint_
0004:be0c      ProcPendingPaint_
0004:bed6      FiniPaint_
0004:bf0c      GetWndColours_
0004:c20c      ConfigPaint_
0004:c282      InitPaint_
0009:1d7c*     _WndTabStopAttr
Module: dbgcap.obj(/mnt/sda5/.user/root/src/openwatcom-1.9/bld/wv/c/dbgcap.c)
0004:c290      CaptureError_
0004:c2f0      ProcCapture_
Module: wndalloc.obj(/mnt/sda5/.user/root/src/openwatcom-1.9/bld/wv/c/wndalloc.c)
0004:c3d0      WndNoMemory_
0004:c3ea      WndAlloc_
0004:c3f6      WndRealloc_
0004:c402      WndFree_
0004:c40e*     WndMemFini_
0004:c41a      WndMemInit_
Module: dlgambig.obj(/mnt/sda5/.user/root/src/openwatcom-1.9/bld/wv/c/dlgambig.c)
0004:c432      DUIDisambiguate_
Module: dlgscomp.obj(/mnt/sda5/.user/root/src/openwatcom-1.9/bld/wv/c/dlgscomp.c)
0004:c4d8      DlgGetMatchString_
0004:c56c      SymComplete_
Module: modcomp.obj(/mnt/sda5/.user/root/src/openwatcom-1.9/bld/wv/c/modcomp.c)
0004:c71a      ModComplete_
Module: wndsys.obj(/mnt/sda5/.user/root/src/openwatcom-1.9/bld/wv/c/wndsys.c)
0009:1d90      _WndGadgetHint
0009:1ddc      _WndGadgetArray
0009:1f14      _WndGadgetArraySize
0009:1f16      _WndGadgetSecondary
0009:1f18      _WndGadgetAttr
0009:2090+     _WndNormal
0009:2098      _WndLong
0009:20a0+     _WndMemMetrics
0009:20a8+     _WndWide
0009:20b0+     _WndWideLong
0009:20b8+     _WndFileMetrics
0009:20c0      _WndMetrics
0009:213c*     _NoMetrics
0004:c90a      DbgWndSearch_
0004:c918+     ProcPUINYI_
0004:c936      ProcWndSearch_
0004:c964+     ProcWndTabLeft_
0004:c976+     ProcWndTabRight_
0004:c988      ProcSearchAll_
0004:c9c6+     ProcWndPopUp_
0004:c9da      ProcWndFindNext_
0004:c9f0      ProcWndFindPrev_
0004:ca2c      ProcWindow_
0004:ca72      WndSysStart_
0004:ca7e      WndSysEnd_
0004:ca8a      WndStop_
0004:ca8c      WndUser_
0004:cade      WndDebug_
0004:cb3c      WndRedraw_
0004:cc82      WndProcMacro_
0004:cd68      WndSysInit_
0004:cd8e      SetUnderLine_
0004:cdc8      SetGadgetLine_
0004:cdde      FiniGadget_
0004:ce18      InitGadget_
0004:ce88      OpenGadget_
0004:ceb8      CheckOpenGadget_
0004:cf08      WndStartFreshAll_
0004:cf14      WndEndFreshAll_
0004:cf20      WndFlushKeys_
0004:cf2c      WndMsgBox_
0004:cf54      WndInfoBox_
0004:cf86      WndSetOpenNoShow_
0004:cf8c      DbgTitleWndCreate_
0004:d160      DbgWndCreate_
0004:d19a      WndRXError_
0004:d21a      SaveMainScreen_
0004:d272      RestoreMainScreen_
0004:d2ca      WndSetWndMainSize_
0009:68b4      _MaxGadgetLength
Module: wnddump.obj(/mnt/sda5/.user/root/src/openwatcom-1.9/bld/wv/c/wnddump.c)
0004:d580      WndDumpPrompt_
0004:d5a4      WndDumpFile_
0004:d620      WndDumpLog_
Module: dlgabout.obj(/mnt/sda5/.user/root/src/openwatcom-1.9/bld/wv/c/dlgabout.c)
0004:d642      DlgAbout_
Module: dlgstk.obj(/mnt/sda5/.user/root/src/openwatcom-1.9/bld/wv/c/dlgstk.c)
0004:d7a2      DlgUpTheStack_
0004:d7b0      DlgBackInTime_
0004:d7f0      DlgIncompleteUndo_
Module: dlgayn.obj(/mnt/sda5/.user/root/src/openwatcom-1.9/bld/wv/c/dlgayn.c)
0004:d8d0      DlgAreYouNuts_
Module: dlgsrc.obj(/mnt/sda5/.user/root/src/openwatcom-1.9/bld/wv/c/dlgsrc.c)
0004:d910      DlgSource_
Module: dlgdll.obj(/mnt/sda5/.user/root/src/openwatcom-1.9/bld/wv/c/dlgdll.c)
0004:d960      DlgBreakDLL_
Module: dlglist.obj(/mnt/sda5/.user/root/src/openwatcom-1.9/bld/wv/c/dlglist.c)
0004:dd3e      DlgList_
Module: dlgfile.obj(/mnt/sda5/.user/root/src/openwatcom-1.9/bld/wv/c/dlgfile.c)
0004:df56      SetLastExe_
0004:df6e*     GetLastExe_
0004:df76*     SetLastCfg_
0004:dfd6      InitBrowse_
0004:e044      FiniBrowse_
0004:e170      ProcConfigFile_
0004:e1c4      WndShutDownHook_
0004:e25a      ConfigSave_
0004:e2d4      BreakSave_
0004:e344      ReplaySave_
0004:e3c2      FileBrowse_
0004:e404      ExeBrowse_
0004:e42e      SymBrowse_
0004:e450      AllBrowse_
0004:e47a      GetDmpName_
Module: dlgnewp.obj(/mnt/sda5/.user/root/src/openwatcom-1.9/bld/wv/c/dlgnewp.c)
0004:e682      DlgNewProg_
Module: dlgexpr.obj(/mnt/sda5/.user/root/src/openwatcom-1.9/bld/wv/c/dlgexpr.c)
0004:e712      DlgGetLong_
0004:e72e      DlgGetCodeAddr_
0004:e74a      DlgGetDataAddr_
0004:e766      DlgSetLong_
0004:e834      DlgLongExpr_
0004:e880      DlgAnyExpr_
0004:e8f0      DlgCodeAddr_
0004:e934      DlgDataAddr_
0004:e978      DlgGivenAddr_
0004:e9a6      DlgModName_
0004:ea0e      DlgString_
0004:ea36      DlgMadTypeExpr_
Module: dlgbreak.obj(/mnt/sda5/.user/root/src/openwatcom-1.9/bld/wv/c/dlgbreak.c)
0004:f4b4      DlgBreak_
Module: dlgvarx.obj(/mnt/sda5/.user/root/src/openwatcom-1.9/bld/wv/c/dlgvarx.c)
0004:f780      DlgVarExpand_
Module: dlgcmd.obj(/mnt/sda5/.user/root/src/openwatcom-1.9/bld/wv/c/dlgcmd.c)
0004:f96e      DlgCmd_
Module: dlgnewws.obj(/mnt/sda5/.user/root/src/openwatcom-1.9/bld/wv/c/dlgnewws.c)
0004:fa88      DlgNewWithMod_
0004:fa9e      DlgNewWithSym_
Module: wndhelp.obj(/mnt/sda5/.user/root/src/openwatcom-1.9/bld/wv/c/wndhelp.c)
0004:faea      InitHelp_
0004:fb1c      FiniHelp_
0004:fb62      DoProcHelp_
0004:fc1a      ProcHelp_
Module: wndmenu.obj(/mnt/sda5/.user/root/src/openwatcom-1.9/bld/wv/c/wndmenu.c)
0005:0002      PlayDead_
0005:0192      GetMenuLabel_
0005:02e0      AccelMenuItem_
0005:053e      ProcAccel_
0005:064a      SetBrkMenuItems_
0005:0694      SetLogMenuItems_
0005:06b4      SetMADMenuItems_
0005:0742      SetTargMenuItems_
0005:07b0      InitMenus_
0005:07f0      FiniMenus_
0005:0802      WndMenuSetHotKey_
0005:08f0      AddMenuAccel_
0005:0a76      WndMainMenuProc_
0009:27fa      _WndMainMenu
0009:28ae      _WndNumMenus
0009:28b0      _WndInfoTab
0009:292c      _MainTab
Module: dbgwfpu.obj(/mnt/sda5/.user/root/src/openwatcom-1.9/bld/wv/c/dbgwfpu.c)
0005:1360      FPUChangeOptions_
0005:137a      WndFPUOpen_
Module: dbgwmac.obj(/mnt/sda5/.user/root/src/openwatcom-1.9/bld/wv/c/dbgwmac.c)
0005:1612      MacKeyHit_
0005:2368      WndMacOpen_
0009:2a44      _MacInfo
Module: dbgwglob.obj(/mnt/sda5/.user/root/src/openwatcom-1.9/bld/wv/c/dbgwglob.c)
0005:240e+     GlobMenuItem_
0005:2542+     GlobNumRows_
0005:255c+     GlobGetLine_
0005:25bc      GlobNewMod_
0005:25f6+     GlobRefresh_
0005:2656+     GlobEventProc_
0005:26be      GlobChangeOptions_
0005:26d8      DoWndGlobOpen_
0005:271a      WndGlobOpen_
0009:2a7a+     _GlobMenu
0009:2ad4      _GlobInfo
Module: dbgwfunc.obj(/mnt/sda5/.user/root/src/openwatcom-1.9/bld/wv/c/dbgwfunc.c)
0005:2c00      FuncNewMod_
0005:2e14      FuncChangeOptions_
0005:2e2e      DoWndFuncOpen_
0005:2ea2      WndFuncOpen_
0005:2eb8      WndGblFuncOpen_
0009:2b76      _FuncInfo
Module: dbgwcall.obj(/mnt/sda5/.user/root/src/openwatcom-1.9/bld/wv/c/dbgwcall.c)
0005:33ea      WndCallOpen_
0009:2c18      _CallInfo
Module: dbgwmod.obj(/mnt/sda5/.user/root/src/openwatcom-1.9/bld/wv/c/dbgwmod.c)
0005:3a3a      ModNewHandle_
0005:3c40      ModChangeOptions_
0005:3c5a      DoWndModOpen_
0005:3c9c      WndModOpen_
0009:2ccc      _ModInfo
Module: dbgwsrch.obj(/mnt/sda5/.user/root/src/openwatcom-1.9/bld/wv/c/dbgwsrch.c)
0005:46e4      WndSrchOpen_
0009:2d14      _SrchInfo
Module: dbgwdlg.obj(/mnt/sda5/.user/root/src/openwatcom-1.9/bld/wv/c/dbgwdlg.c)
0005:4800      DlgInfoRelease_
0005:4988      WndDlgTxt_
0005:4a14      WndDlgFini_
0005:4ab8      WndDlgOpen_
0009:2d5c      _LogInfo
Module: dbgwfil.obj(/mnt/sda5/.user/root/src/openwatcom-1.9/bld/wv/c/dbgwfil.c)
0005:4b16      SrcJoinAsm_
0005:4b2c      SrcNewAsmNotify_
0005:4be2      SrcFreeAsm_
0005:54e6      FileOpenGadget_
0005:55a2      FileBreakGadget_
0005:5db2      SrcMoveDot_
0005:5f54      SrcWndFind_
0005:6004      SrcHasFileOpen_
0005:645a      DoWndFileOpen_
0005:6736      DoWndSrcOpen_
0005:676e      WndSrcOpen_
0005:681e      ProcView_
0009:2e8e      _FileInfo
Module: dbgwass.obj(/mnt/sda5/.user/root/src/openwatcom-1.9/bld/wv/c/dbgwass.c)
0005:6e00      AsmJoinSrc_
0005:6e16      AsmNewSrcNotify_
0005:70ce      AsmMoveDot_
0005:729c      AsmWndFind_
0005:72ee      AsmFreeSrc_
0005:7452      AsmOpenGadget_
0005:8e94      AsmChangeOptions_
0005:8eac      DoWndAsmOpen_
0005:8fd8      WndAsmOpen_
0009:2fc0      _AsmInfo
Module: dbgwimg.obj(/mnt/sda5/.user/root/src/openwatcom-1.9/bld/wv/c/dbgwimg.c)
0005:94ce      WndImgOpen_
0009:3062      _ImgInfo
Module: dbgwbrk.obj(/mnt/sda5/.user/root/src/openwatcom-1.9/bld/wv/c/dbgwbrk.c)
0005:9ad0      WndBrkOpen_
0009:3128      _BrkInfo
Module: dbgwio.obj(/mnt/sda5/.user/root/src/openwatcom-1.9/bld/wv/c/dbgwio.c)
0005:a160      SetIOMenuItems_
0005:a182      InitIOWindow_
0005:a278      FiniIOWindow_
0005:a2fa      IONewAddr_
0005:a332      DoWndIOOpen_
0005:a436      WndIOOpen_
0009:31d0      _IOInfo
Module: dbgwrep.obj(/mnt/sda5/.user/root/src/openwatcom-1.9/bld/wv/c/dbgwrep.c)
0005:a8c4      WndRepOpen_
0009:323c      _RepInfo
Module: dbgwmem.obj(/mnt/sda5/.user/root/src/openwatcom-1.9/bld/wv/c/dbgwmem.c)
0005:aff8      MemSetLength_
0005:b00a      MemSetFollow_
0005:c694      InitMemWindow_
0005:c7ba      FiniMemWindow_
0005:c9ba      DoWndMemOpen_
0005:ca50      WndMemOpen_
0005:ca70      WndStkOpen_
0005:cafa      DoWndBinOpen_
0009:33c0      _BinInfo
0009:33f6      _MemInfo
0009:342c+     _StkInfo
Module: dbgwregs.obj(/mnt/sda5/.user/root/src/openwatcom-1.9/bld/wv/c/dbgwregs.c)
0005:cb60      RegChangeOptions_
0005:cb7a      WndRegOpen_
Module: dbgwmmx.obj(/mnt/sda5/.user/root/src/openwatcom-1.9/bld/wv/c/dbgwmmx.c)
0005:cba0      MMXChangeOptions_
0005:cbba      WndMMXOpen_
Module: dbgwxmm.obj(/mnt/sda5/.user/root/src/openwatcom-1.9/bld/wv/c/dbgwxmm.c)
0005:cc00      XMMChangeOptions_
0005:cc1a      WndXMMOpen_
Module: dbgwmadr.obj(/mnt/sda5/.user/root/src/openwatcom-1.9/bld/wv/c/dbgwmadr.c)
0005:da7c      MadRegChangeOptions_
0005:da98      WndMadRegOpen_
0009:3498      _MadRegInfo
Module: dbgwtogl.obj(/mnt/sda5/.user/root/src/openwatcom-1.9/bld/wv/c/dbgwtogl.c)
0005:daf0      WndAppendToggles_
0005:dc2a      WndDeleteToggles_
Module: dbgwvar.obj(/mnt/sda5/.user/root/src/openwatcom-1.9/bld/wv/c/dbgwvar.c)
0005:dd44      WndVarAdd_
0005:f24a      VarSaveWndToScope_
0005:f2a2      VarRestoreWndFromScope_
0005:f5e0      VarInfoRelease_
0005:f5fa      VarUnMapScopes_
0005:f612      VarFreeScopes_
0005:f672      VarReMapScopes_
0005:f694      VarChangeOptions_
0005:f7c0      WndVarOpen_
0005:f7cc      WndWatOpen_
0005:f7da      WndLclOpen_
0005:f7e8      WndFSVOpen_
0005:f88a      GraphicDisplay_
0009:37a0      _VarInfo
Module: dbgwthrd.obj(/mnt/sda5/.user/root/src/openwatcom-1.9/bld/wv/c/dbgwthrd.c)
0005:fbd8      WndTrdOpen_
0009:3810      _TrdInfo
Module: dlgwind.obj(/mnt/sda5/.user/root/src/openwatcom-1.9/bld/wv/c/dlgwind.c)
0006:0476      DlgWndSet_
Module: dbgwdata.obj(/mnt/sda5/.user/root/src/openwatcom-1.9/bld/wv/c/dbgwdata.c)
0009:3850      _WndOpenTab
0009:38cc      _WndNameTab
0009:7160      _WndMacroList
Module: dlgoptn.obj(/mnt/sda5/.user/root/src/openwatcom-1.9/bld/wv/c/dlgoptn.c)
0006:085a      DlgOptSet_
Module: dbgtool.obj(/mnt/sda5/.user/root/src/openwatcom-1.9/bld/wv/c/dbgtool.c)
0006:08a2      InitToolBar_
0006:08da      FiniToolBar_
0006:08fe      WndToolOpen_
0006:092e      WndToolClose_
Module: dbgfing.obj(/mnt/sda5/.user/root/src/openwatcom-1.9/bld/wv/c/dbgfing.c)
0006:0952      FingClose_
0006:0b3a      FingOpen_
Module: /mnt/sda5/.user/root/src/openwatcom-1.9/bld/aui/wini86/aui.lib(/mnt/sda5/.user/root/src/openwatcom-1.9/bld/aui/c/guimain.c)
0009:7170+     _WndClickHook
0009:7174      _WndScale
0009:717c      _WndMain
0009:7180      _WndMax
0009:7184*     _WndSwitches
0009:7188      _WndScreen
0009:3a8a      _WndMaxDirtyRects
0009:3a8c+     _WndDClick
0009:3a8e      _WndIgnoreAllEvents
0006:0c72      WndGetDClick_
0006:0c76      WndSetDClick_
0006:0da4      WndInit_
0006:0db2*     WndInitWithMenuRes_
0006:0dbc      WndShowWndMain_
0006:0dd2      WndFini_
0006:0e10*     WndInitNumRows_
0006:1022      WndInstallClickHook_
0006:18d2+     WndHourCursor_
0006:1922      WndArrowCursor_
0006:194c+     WndSetCursor_
0006:197e      WndHourGlass_
0006:1998      WndMainEventProc_
Module: /mnt/sda5/.user/root/src/openwatcom-1.9/bld/gui/win/wini86/gui.lib(/mnt/sda5/.user/root/src/openwatcom-1.9/bld/gui/win/c/guigsysh.c)
0006:19e0      GUIGetSysHandle_
0006:19f6*     GUIGetHInst_
Module: /mnt/sda5/.user/root/src/openwatcom-1.9/bld/gui/win/wini86/gui.lib(/mnt/sda5/.user/root/src/openwatcom-1.9/bld/gui/c/guindlg.c)
0006:1a00      GUIDlgBuffGetText_
0006:1e06      GUISetModalDlgs_
0006:1e0a      GUIDlgOpen_
0006:1e3a      GUIModalDlgOpen_
0006:1e66*     GUISysModalDlgOpen_
Module: /mnt/sda5/.user/root/src/openwatcom-1.9/bld/aui/wini86/aui.lib(/mnt/sda5/.user/root/src/openwatcom-1.9/bld/aui/c/wndmem.c)
0006:1ea0      WndMustAlloc_
0006:1ece      WndMustRealloc_
Module: /mnt/sda5/.user/root/src/openwatcom-1.9/rel2/lib286/win/math87l.lib(ldcvt.c)
0006:201c      _LDScale10x_
0006:260a      __LDcvt_
Module: /mnt/sda5/.user/root/src/openwatcom-1.9/rel2/lib286/win/emu87.lib(initemuw.asm)
0000:8000*     FJSRQQ
0000:0632*     FISRQQ
0000:1632      FIERQQ
0000:5c32      FIDRQQ
0000:a23d      FIWRQQ
0000:c000      FJCRQQ
0000:4000*     FJARQQ
0000:0e32      FICRQQ
0000:fe32*     FIARQQ
0006:2b66      __init_87_emulator
0006:2ba5*     __fini_87_emulator
0006:2bb4*     _userfpe
Module: /mnt/sda5/.user/root/src/openwatcom-1.9/rel2/lib286/win/math87l.lib(fchop87)
0006:2bc4      __CHP
Module: /mnt/sda5/.user/root/src/openwatcom-1.9/rel2/lib286/win/math87l.lib(gcvt.c)
0006:2beb      gcvt_
Module: /mnt/sda5/.user/root/src/openwatcom-1.9/rel2/lib286/win/math87l.lib(strtod.c)
0006:3286+     __Strtold_
0006:344d      strtod_
Module: /mnt/sda5/.user/root/src/openwatcom-1.9/bld/aui/wini86/aui.lib(/mnt/sda5/.user/root/src/openwatcom-1.9/bld/aui/c/wndstat.c)
0006:b720      WndCreateStatusWindow_
0006:b74a      WndHaveStatusWindow_
0006:b77c      WndCloseStatusWindow_
0006:b7d0      WndStatusText_
0006:b842      GUIClearStatusText_
0006:b872      WndResetStatusText_
0006:b884      WndInternalStatusText_
0009:718e+     _WndStatusString
Module: /mnt/sda5/.user/root/src/openwatcom-1.9/bld/aui/wini86/aui.lib(/mnt/sda5/.user/root/src/openwatcom-1.9/bld/aui/c/wndhist.c)
0006:b8f0      WndInitHistory_
0006:b93a      WndFiniHistory_
0006:b9e6      WndSaveToHistory_
0006:bad4      WndPrevFromHistory_
0006:bbc0      WndNextFromHistory_
Module: /mnt/sda5/.user/root/src/openwatcom-1.9/bld/aui/wini86/aui.lib(/mnt/sda5/.user/root/src/openwatcom-1.9/bld/aui/c/wndcreat.c)
0009:71e0      _WndPopupMenuPtr
0006:bc82*     WndSetTitleSize_
0006:bc92      WndSetTitle_
0006:bcac      WndGetTitle_
0006:c06c      WndCreateWithStruct_
0006:c0ac      WndCreateWithStructAndMenuRes_
0006:c0e6      WndInitCreateStruct_
0006:c136*     WndCreate_
0006:c17e      WndDestroy_
0006:c220      WndClose_
0006:c248      WndSetMainMenuText_
0006:c288      WndSetIcon_
0009:3b70      _WndMainMenuPtr
Module: /mnt/sda5/.user/root/src/openwatcom-1.9/bld/aui/wini86/aui.lib(/mnt/sda5/.user/root/src/openwatcom-1.9/bld/aui/c/wnddirt.c)
0006:c3ee      WndDirtyScreenRange_
0006:c40a      WndDirtyScreenChar_
0006:c426      WndDirtyScreenPiece_
0006:c43e      WndAdjustDirt_
0006:c474      WndDirtyScreenRow_
0006:c494*     WndDirtyRect_
0006:c4e8      WndRowDirty_
0006:c528      WndRowDirtyImmed_
0006:c58a      WndPieceDirty_
0006:c5d4      WndStopRefresh_
0006:c5de+     WndPaintDirt_
0006:ca08      WndFreshAll_
0009:3b74      _WndDoingRefresh
Module: /mnt/sda5/.user/root/src/openwatcom-1.9/bld/aui/wini86/aui.lib(/mnt/sda5/.user/root/src/openwatcom-1.9/bld/aui/c/wndshrnk.c)
0006:caa0      WndShrinkToMouse_
0006:cc42      WndMinimizeWindow_
0006:cc5c      WndMaximizeWindow_
0006:cc76      WndIsMinimized_
0006:ccc8      WndIsMaximized_
0006:cce2      WndRestoreWindow_
0006:ccfc      WndGetRect_
0006:cd16      WndShowWindow_
0006:cd30      WndResizeWindow_
0006:cd4a      WndShowAll_
Module: /mnt/sda5/.user/root/src/openwatcom-1.9/bld/gui/win/wini86/gui.lib(/mnt/sda5/.user/root/src/openwatcom-1.9/bld/gui/c/guiisgui.c)
0006:ce10      GUIIsGUI_
Module: /mnt/sda5/.user/root/src/openwatcom-1.9/bld/gui/win/wini86/gui.lib(/mnt/sda5/.user/root/src/openwatcom-1.9/bld/gui/win/c/guismetr.c)
0006:ce20      GUIGetSystemMetrics_
Module: /mnt/sda5/.user/root/src/openwatcom-1.9/bld/aui/wini86/aui.lib(/mnt/sda5/.user/root/src/openwatcom-1.9/bld/aui/c/wndmsg.c)
0006:cfd0      WndDisplayMessage_
Module: /mnt/sda5/.user/root/src/openwatcom-1.9/bld/aui/wini86/aui.lib(/mnt/sda5/.user/root/src/openwatcom-1.9/bld/aui/c/wndldstr.c)
0006:d020      WndLoadString_
Module: /mnt/sda5/.user/root/src/openwatcom-1.9/bld/gui/win/wini86/gui.lib(/mnt/sda5/.user/root/src/openwatcom-1.9/bld/gui/win/c/guiclen.c)
0009:71e6+     ___CharLenTable
0006:d102      GUICharLen_
0006:d12c      GUIIsDBCS_
Module: /mnt/sda5/.user/root/src/openwatcom-1.9/bld/aui/wini86/aui.lib(/mnt/sda5/.user/root/src/openwatcom-1.9/bld/aui/c/wndutil.c)
0006:d150      WndCharCol_
0006:d182      WndLastCharCol_
0006:d1b0      WndPrevCharCol_
0006:d1c6*     WndPrevChar_
0006:d1de      WndCurrToGUIPoint_
0006:d1f2      WndCoordToGUIPoint_
0006:d286      WndPieceIsTab_
0006:d2b4*     WndPieceIsHot_
0006:d2e2      WndFindActive_
0006:d32a      WndValid_
0006:d36e      WndDirty_
0006:d39c      WndZapped_
0006:d3c0      WndExtentX_
0006:d3fa      WndFindClass_
0006:d43c      WndSetWndMax_
0006:d48e      WndNext_
0006:d4cc      WndForAllClass_
Module: /mnt/sda5/.user/root/src/openwatcom-1.9/bld/aui/wini86/aui.lib(/mnt/sda5/.user/root/src/openwatcom-1.9/bld/aui/c/wndfront.c)
0006:d530      WndToFront_
0006:d54a      WndRestoreToFront_
0006:d57e      WndNextNonIconToFront_
0006:d5d4      WndChooseNew_
Module: /mnt/sda5/.user/root/src/openwatcom-1.9/bld/aui/wini86/aui.lib(/mnt/sda5/.user/root/src/openwatcom-1.9/bld/aui/c/dlgsrch.c)
0006:d700+     RXEvent_
0006:d750      DlgClickHistory_
0006:d78c      DlgSetHistory_
0006:d8e6      DlgHistoryKey_
0006:da9e+     SrchEvent_
0006:dc76      DlgSearch_
0006:dc86      DlgSearchAll_
0009:3b76      _SrchIgnoreCase
0009:3b77      _SrchMagicChars
0009:3b8b      _SrchRX
0009:3b8c      _SrchIgnoreMagic
Module: /mnt/sda5/.user/root/src/openwatcom-1.9/bld/aui/wini86/aui.lib(/mnt/sda5/.user/root/src/openwatcom-1.9/bld/aui/c/wndcurr.c)
0006:dcd0      WndSetPoint_
0006:df24      WndGetCurrent_
0006:df62      WndNewCurrent_
0006:df9e      WndMoveCurrent_
0006:e004      WndHasCurrent_
0006:e01a      WndNoCurrent_
0006:e03c*     WndCurrRow_
0006:e058      WndNextCurrent_
0006:e162      WndPrevCurrent_
0006:e29e      WndFirstCurrent_
0006:e2be      WndLastCurrent_
0006:e302      WndCheckCurrentValid_
0006:e3c0      WndCurrVisible_
0006:e4a0      WndDirtyCurr_
0006:e510      WndDirtyCurrChar_
0006:e564      WndSetCurrCol_
Module: /mnt/sda5/.user/root/src/openwatcom-1.9/bld/aui/wini86/aui.lib(/mnt/sda5/.user/root/src/openwatcom-1.9/bld/aui/c/wndpaint.c)
0006:ead6+     WndPaintRows_
0006:ec50      WndProcPaint_
0006:ec68      WndForcePaint_
Module: /mnt/sda5/.user/root/src/openwatcom-1.9/bld/aui/wini86/aui.lib(/mnt/sda5/.user/root/src/openwatcom-1.9/bld/aui/c/wndcrsr.c)
0006:eca0+     WndAtTop_
0006:eef4      WndScrollUp_
0006:eefe      WndCursorUp_
0006:ef1a      WndScrollDown_
0006:ef24      WndCursorDown_
0006:ef62      WndPageUp_
0006:ef84      WndPageDown_
0006:efa4      WndTabLeft_
0006:f110      WndCursorLeft_
0006:f11a      WndTabRight_
0006:f258      WndCursorRight_
0006:f262      WndScrollTop_
0006:f292      WndScrollBottom_
0006:f2be      WndCursorStart_
0006:f2d8      WndCursorEnd_
Module: /mnt/sda5/.user/root/src/openwatcom-1.9/bld/aui/wini86/aui.lib(/mnt/sda5/.user/root/src/openwatcom-1.9/bld/aui/c/wndfont.c)
0006:f300      WndSetFontInfo_
0006:f334      WndSetSysFont_
0006:f35e      WndGetFontInfo_
Module: /mnt/sda5/.user/root/src/openwatcom-1.9/bld/gui/win/wini86/gui.lib(/mnt/sda5/.user/root/src/openwatcom-1.9/bld/gui/c/guimem.c)
0006:f390*     GUIMemPrtUsage_
0006:f390      GUIMemClose_
0006:f390      GUIMemOpen_
0006:f390*     GUIMemRedirect_
0006:f392      GUIMemAlloc_
0006:f39e      GUIMemFree_
0006:f3aa      GUIMemRealloc_
0006:f3b6*     GUIMemPrintLine_
Module: /mnt/sda5/.user/root/src/openwatcom-1.9/bld/aui/wini86/aui.lib(/mnt/sda5/.user/root/src/openwatcom-1.9/bld/aui/c/wndrect.c)
0006:f4e4      WndPosToRect_
0006:f568      WndRectToPos_
Module: /mnt/sda5/.user/root/src/openwatcom-1.9/bld/gui/win/wini86/gui.lib(/mnt/sda5/.user/root/src/openwatcom-1.9/bld/gui/win/c/guifont.c)
0006:f614+     GUIChooseFont_
0006:f6c8      GUIChangeFont_
0006:f780      GUIGetFontInfo_
0006:f7be      GUIGetFontFromUser_
0006:f836      GUISetFontInfo_
0006:f896      GUIFontsSupported_
0006:f89a      GUISetSystemFont_
Module: /mnt/sda5/.user/root/src/openwatcom-1.9/bld/gui/win/wini86/gui.lib(/mnt/sda5/.user/root/src/openwatcom-1.9/bld/gui/c/guimin.c)
0006:f8f0      GUIGetMinSize_
Module: /mnt/sda5/.user/root/src/openwatcom-1.9/bld/aui/wini86/aui.lib(/mnt/sda5/.user/root/src/openwatcom-1.9/bld/aui/c/wndtool.c)
0006:f920*     WndCreateToolBar_
0006:f9aa      WndCreateToolBarWithTips_
0006:fa34      WndHaveToolBar_
0006:fa50      WndCloseToolBar_
0006:fa84      WndToolHeight_
0006:fa88      WndToolFixed_
0006:fa96      WndSetToolBar_
0009:72e8+     _ToolHeight
Module: /mnt/sda5/.user/root/src/openwatcom-1.9/bld/gui/win/wini86/gui.lib(/mnt/sda5/.user/root/src/openwatcom-1.9/bld/gui/win/c/guistub.c)
0006:fab0      GUISetBetweenTitles_
0006:fab2      GUISetBackgroundChar_
0006:fab2*     GUISetCursorType_
0006:fab2*     GUIGetCursorType_
0006:fab2*     GUISetCursorPos_
0006:fab2*     GUIGetCursorPos_
0006:fab4*     GUISetCharacter_
0006:fab4      GUIGetDialogColours_
0006:fab4      GUISetDialogColours_
0006:fab4      GUISetBackgroundColour_
0006:fab4      GUIGMouseOff_
0006:fab4      GUIGMouseOn_
0006:fab6      GUIGetCharacter_
Module: /mnt/sda5/.user/root/src/openwatcom-1.9/bld/aui/wini86/aui.lib(/mnt/sda5/.user/root/src/openwatcom-1.9/bld/aui/c/wndcolor.c)
0006:fac0      WndSetColours_
0006:fb3e*     WndBackGround_
Module: /mnt/sda5/.user/root/src/openwatcom-1.9/bld/aui/wini86/aui.lib(/mnt/sda5/.user/root/src/openwatcom-1.9/bld/aui/c/dlgpick.c)
0006:fbce      DlgPickWithRtn2_
0006:fc06+     DoDlgPick_
0006:fc1c      DlgPickWithRtn_
0006:fc40+     DlgPickText_
0006:fc50*     DlgPick_
Module: /mnt/sda5/.user/root/src/openwatcom-1.9/bld/gui/win/wini86/gui.lib(/mnt/sda5/.user/root/src/openwatcom-1.9/bld/gui/c/guipick.c)
0006:fc70      GUIPickEvent_
0006:fd30      GUIDlgPickWithRtn_
0006:fdb6      GUIDlgPick_
Module: /mnt/sda5/.user/root/src/openwatcom-1.9/bld/aui/wini86/aui.lib(/mnt/sda5/.user/root/src/openwatcom-1.9/bld/aui/c/wnddlg.c)
0006:fe72      DlgGetParent_
0006:fea4      DlgOpen_
0006:ff02      ResDlgOpen_
Module: /mnt/sda5/.user/root/src/openwatcom-1.9/bld/gui/win/wini86/gui.lib(/mnt/sda5/.user/root/src/openwatcom-1.9/bld/gui/win/c/guifocus.c)
0007:0000      GUISetFocus_
0007:0088      GUIGetFocus_
Module: /mnt/sda5/.user/root/src/openwatcom-1.9/bld/gui/win/wini86/gui.lib(/mnt/sda5/.user/root/src/openwatcom-1.9/bld/gui/win/c/guixtext.c)
0007:0130+     GUIControlSetRedraw_
0007:0166      GUIAddText_
0007:019e      GUIAddTextList_
0007:0204*     GUIInsertText_
0007:023c*     GUISetTopIndex_
0007:0258*     GUIGetTopIndex_
0007:0274*     GUISetHorizontalExtent_
0007:02b0      GUIGetListSize_
0007:02cc      GUIDeleteItem_
0007:0312      GUIClearList_
0007:0330      GUISetText_
0007:0372      GUIGetText_
0007:041c      GUIGetCurrSelect_
0007:044a      GUISetCurrSelect_
0007:046c      GUIGetListItem_
0007:04e0*     GUISetListItemData_
0007:0520*     GUIGetListItemData_
Module: /mnt/sda5/.user/root/src/openwatcom-1.9/bld/aui/wini86/aui.lib(/mnt/sda5/.user/root/src/openwatcom-1.9/bld/aui/c/wndsrch.c)
0007:0542      WndSetSrchItem_
0007:05b8      WndCompileRX_
0007:05e0      WndFreeRX_
0007:05ec      WndSetMagicStr_
0007:065e      WndRXFind_
0007:0744      WndSearch_
0009:3c22      _WndDoingSearch
Module: /mnt/sda5/.user/root/src/openwatcom-1.9/bld/aui/wini86/aui.lib(/mnt/sda5/.user/root/src/openwatcom-1.9/bld/aui/c/wndpop.c)
0007:0ca0+     CalcMaxId_
0007:0d02      NullPopupMenu_
0007:0dc6      WndAddPopupMenu_
0007:0f4c      WndNullPopItem_
0007:10ea+     WndSelPopPiece_
0007:138c      WndSelPopItem_
0007:13e4+     WndKeyPopItem_
0007:1462*     WndPopUp_
0007:152a      WndChangeMenuAll_
0007:159e      WndMenuEnableAll_
0007:15ce      WndMenuGrayAll_
0007:15fe*     WndMenuIgnoreAll_
0007:162e*     WndMenuRespectAll_
0007:165e+     DoMenuBitOn_
0007:1702      WndMenuCheck_
0007:1714      WndMenuEnable_
0007:1738      WndMenuIgnore_
0007:174a      WndCreateFloatingPopup_
0007:17c4      WndInvokePopUp_
0007:1940      WndKeyPopUp_
0007:1980      WndRowPopUp_
0007:19dc*     WndSetMainMenu_
0007:1a18      WndClick_
0007:1b4c      WndSetPopup_
0007:1bf4      WndEnableMainMenu_
0007:1c6c      WndCheckMainMenu_
Module: /mnt/sda5/.user/root/src/openwatcom-1.9/bld/gui/win/wini86/gui.lib(/mnt/sda5/.user/root/src/openwatcom-1.9/bld/gui/win/c/guispawn.c)
0007:1ce0      GUISpawnEnd_
0007:1ce0      GUISpawnStart_
Module: /mnt/sda5/.user/root/src/openwatcom-1.9/bld/aui/wini86/aui.lib(/mnt/sda5/.user/root/src/openwatcom-1.9/bld/aui/c/wndgadgt.c)
0007:1cf0      WndGetGadgetSize_
0007:1cfe      WndSetGadgetLine_
0007:1d6c      WndGadgetInit_
Module: /mnt/sda5/.user/root/src/openwatcom-1.9/bld/gui/win/wini86/gui.lib(/mnt/sda5/.user/root/src/openwatcom-1.9/bld/gui/c/guihot.c)
0007:1db6      GUIInitHotSpots_
0007:1e2e*     GUIGetNumHotSpots_
0007:1e32      GUIGetHotSpotSize_
0009:7328      _GUINumHotSpots
Module: /mnt/sda5/.user/root/src/openwatcom-1.9/bld/gui/win/wini86/gui.lib(/mnt/sda5/.user/root/src/openwatcom-1.9/bld/gui/win/c/guiflush.c)
0007:1ea0      GUIFlushKeys_
Module: /mnt/sda5/.user/root/src/openwatcom-1.9/bld/aui/wini86/aui.lib(/mnt/sda5/.user/root/src/openwatcom-1.9/bld/aui/c/wndmeth.c)
0007:1f02      WndNoOpen_
0007:1f06      NoEndPaint_
0007:1f06      NoBegPaint_
0007:1f06      NoNotify_
0007:1f06      NoModify_
0007:1f08+     NoGetLine_
0007:1f12      NoRefresh_
0007:1f1e      NoMenuItem_
0007:1f26      NoScroll_
0007:1f2a      NoNumRows_
0007:1f2e      NoNextRow_
0007:1f34      NoEventProc_
0007:1f5a      WndMenuItem_
0007:1f9a      WndFiniCacheLines_
0007:1fc8      WndKillCacheEntries_
0007:201e      WndKillCacheLines_
0007:2214      WndSetCache_
0007:2238      WndGetLine_
0007:23cc      WndGetLineAbs_
0007:23fa      WndFirstMenuItem_
0007:2416*     WndNoRow_
0007:241a      WndModify_
0007:2456      WndNotify_
0007:2492      WndBegPaint_
0007:24ce      WndEndPaint_
0007:250a      WndRefresh_
0007:2536      WndEvent_
0007:2560      WndNumRows_
0007:2582      WndNextRow_
0009:3c26      _NoInfo
0009:732a+     _CacheLine
0009:7ee2+     _CacheCurr
Module: /mnt/sda5/.user/root/src/openwatcom-1.9/bld/gui/win/wini86/gui.lib(/mnt/sda5/.user/root/src/openwatcom-1.9/bld/gui/c/guiextra.c)
0007:25b0      GUISetExtra_
0007:25c0      GUIGetExtra_
Module: /mnt/sda5/.user/root/src/openwatcom-1.9/bld/gui/win/wini86/gui.lib(/mnt/sda5/.user/root/src/openwatcom-1.9/bld/gui/win/c/guixdlg.c)
0007:25d0*     GUISetJapanese_
0007:2618      GUIInitControl_
0007:27aa      GUIProcessControlNotification_
0007:29be      GUIProcessControlMsg_
0007:2a10      GUIDIALOGFUNC
0007:303e+     GUIDlgCalcLocation_
0007:3092      GUIXCreateDialog_
0007:335a      GUICloseDialog_
0007:3378+     GUIINITDIALOGFUNC
0007:340a      GUIFiniDialog_
0007:3434      GUIInitDialog_
0007:352a      GUIGetDlgTextMetrics_
Module: /mnt/sda5/.user/root/src/openwatcom-1.9/bld/gui/win/wini86/gui.lib(/mnt/sda5/.user/root/src/openwatcom-1.9/bld/gui/win/c/guiclear.c)
0007:3550      GUIClearText_
0007:3580      GUIEnableControl_
0007:35ba*     GUIIsControlEnabled_
Module: /mnt/sda5/.user/root/src/openwatcom-1.9/bld/gui/win/wini86/gui.lib(/mnt/sda5/.user/root/src/openwatcom-1.9/bld/gui/win/c/guistext.c)
0007:35f0      GUISetWindowText_
0007:3618      GUIGetWindowText_
0007:3632*     GUIGetWindowTextLength_
Module: /mnt/sda5/.user/root/src/openwatcom-1.9/bld/aui/wini86/aui.lib(/mnt/sda5/.user/root/src/openwatcom-1.9/bld/aui/c/wndfdlg.c)
0007:3652+     DlgGetFileName_
0007:3696      DlgFileBrowse_
Module: /mnt/sda5/.user/root/src/openwatcom-1.9/bld/gui/win/wini86/gui.lib(/mnt/sda5/.user/root/src/openwatcom-1.9/bld/gui/win/c/guicontr.c)
0009:3c70      _GUIControls
0007:37c0      GUIInsertCtrlWnd_
0007:380e      GUIGetCtrlWnd_
0007:3930      GUIGetControlByID_
0007:3974      GUIGetControlByHwnd_
0007:39b8      GUIControlInsert_
0007:3a94      GUIControlInsertByHWND_
0007:3b84+     GUIControlDelete_
0007:3c36      GUIControlDeleteAll_
0007:3c96+     GUIEDITFUNC
0007:3e5c+     GUIGROUPBOXFUNC
0007:3f1c      GUIDoSubClass_
0007:3f88      GUISetControlStyle_
0007:414e*     GUIAddControl_
0007:4268*     GUIEnumControls_
0007:42c6      GUICheckRadioButton_
0007:43fc*     GUIDeleteControl_
0007:4448      GUILimitEditText_
0007:44c8*     GUIHideControl_
0007:44d6*     GUIShowControl_
0007:44e6*     GUIIsControlVisible_
Module: /mnt/sda5/.user/root/src/openwatcom-1.9/bld/aui/wini86/aui.lib(/mnt/sda5/.user/root/src/openwatcom-1.9/bld/aui/c/dlgnew.c)
0007:4522      DlgNewEvent_
0007:45d8      DlgNewWithCtl_
0007:4656      DlgNew_
Module: /mnt/sda5/.user/root/src/openwatcom-1.9/bld/gui/win/wini86/gui.lib(/mnt/sda5/.user/root/src/openwatcom-1.9/bld/gui/win/c/guicheck.c)
0007:46d0      GUIIsChecked_
0007:46f6      GUISetChecked_
Module: /mnt/sda5/.user/root/src/openwatcom-1.9/bld/gui/win/wini86/gui.lib(/mnt/sda5/.user/root/src/openwatcom-1.9/bld/gui/win/c/guihelp.c)
0007:475e+     DisplayContents_
0007:477e+     DisplayContentsHH_
0007:479e+     DisplayHelpOnHelp_
0007:47be+     DisplayHelpSearch_
0007:47ee+     DisplayHelpSearchHH_
0007:481e+     DisplayHelpContext_
0007:4840+     DisplayHelpKey_
0007:4862+     DisplayHelpKeyHH_
0007:4884      GUIHelpInit_
0007:48a6      GUIHelpFini_
0007:48d0      GUIShowHelp_
0007:495a      GUIShowHtmlHelp_
0007:49c0*     GUIDisplayHelp_
0007:4a00*     GUIDisplayHelpWin4_
0007:4a40*     GUIDisplayHelpId_
Module: /mnt/sda5/.user/root/src/openwatcom-1.9/bld/aui/wini86/aui.lib(/mnt/sda5/.user/root/src/openwatcom-1.9/bld/aui/c/wndsel.c)
0007:4a60      WndSelectEvent_
0007:4af0      WndSelEnds_
0007:4b56      WndSelected_
0007:4cd4      WndSelSetStart_
0007:4d02      WndSelGetEndPiece_
0007:4d4a*     WndSelSetEnd_
0007:4d70      WndSelPieceChange_
0007:4e82      WndSelChange_
0007:4eb0      WndNoSelect_
0007:4f54*     WndSelRow_
0007:4f70      SetWndMenuRow_
0007:4fae      WndToSelectMode_
0007:5000      WndEndSelectEvent_
0009:7f06      _WndMenuRow
0009:7f08      _WndMenuPiece
Module: /mnt/sda5/.user/root/src/openwatcom-1.9/bld/aui/wini86/aui.lib(/mnt/sda5/.user/root/src/openwatcom-1.9/bld/aui/c/wndscrol.c)
0007:5010      WndFixedThumb_
0007:5042      WndSetThumbPercent_
0007:505c      WndSetThumbPos_
0007:5076      WndSetVScrollRange_
0007:509a      WndResetScroll_
0007:50ae      WndVScrollWidth_
0007:50c8*     WndHasNumRows_
0007:50f0      WndSetThumb_
0007:51f4      WndScroll_
0007:5352      WndScrollAbs_
0007:5382      WndSetHScroll_
0007:53d4+     WndCurrHScrollPos_
0007:548c      WndHScrollToCurr_
0007:54b8      WndHScrollNotify_
Module: /mnt/sda5/.user/root/src/openwatcom-1.9/bld/aui/wini86/aui.lib(/mnt/sda5/.user/root/src/openwatcom-1.9/bld/aui/c/wndchar.c)
0007:5514      WndSetIDChars_
0007:552c      WndIDChar_
0007:5588      WndKeyChar_
Module: /mnt/sda5/.user/root/src/openwatcom-1.9/bld/gui/win/wini86/gui.lib(/mnt/sda5/.user/root/src/openwatcom-1.9/bld/gui/c/guiwnclr.c)
0007:55a0      GUISetColours_
0007:55d4      GUIFreeColours_
0007:5606*     GUIGetNumWindowColours_
0007:5612      GUIGetWindowColours_
Module: /mnt/sda5/.user/root/src/openwatcom-1.9/bld/gui/win/wini86/gui.lib(/mnt/sda5/.user/root/src/openwatcom-1.9/bld/gui/win/c/guicolor.c)
0007:5660+     InitSystemRGB_
0007:56ae*     GUISetRGB_
0007:571c+     GUIGetRGB_
0007:574e+     GUIGetWndColour_
0007:57ac+     SetBKBrush_
0007:5868*     GUICheckBKBrush_
0007:58c0*     GUISetWndColour_
0007:5946*     GUIGetRGBFromUser_
0007:5a2c      GUIXSetColours_
0007:5aa8      GUIXGetWindowColours_
0007:5ade      GUIFreeBKBrush_
0007:5b2e      GUISetWindowColours_
0007:5b64      GUIGetFore_
0007:5b8c      GUIGetBack_
0009:3d84+     _GUIColours
Module: /mnt/sda5/.user/root/src/openwatcom-1.9/bld/gui/win/wini86/gui.lib(/mnt/sda5/.user/root/src/openwatcom-1.9/bld/gui/win/c/guidbclk.c)
0007:5bc0      GUISetDClickRate_
Module: /mnt/sda5/.user/root/src/openwatcom-1.9/bld/gui/win/wini86/gui.lib(/mnt/sda5/.user/root/src/openwatcom-1.9/bld/gui/c/guirscal.c)
0007:5be0      GUIGetRoundScale_
Module: /mnt/sda5/.user/root/src/openwatcom-1.9/bld/gui/win/wini86/gui.lib(/mnt/sda5/.user/root/src/openwatcom-1.9/bld/gui/c/guiscale.c)
0007:5c50      GUISetScale_
0007:5c72      GUIGetScale_
0007:5c94      GUISetScreen_
0007:5ca4      GUIGetScreen_
0007:5cc6+     GUIConvert_
0007:5d96      GUIConvertRect_
0007:5dee+     GUIConvertPoint_
0007:5e84      GUIScaleToScreen_
0007:5ea0      GUIScaleToScreenR_
0007:5ebc      GUIScreenToScale_
0007:5ed8      GUIScreenToScaleR_
0007:5ef4      GUIScaleToScreenRPt_
0007:5f0c      GUIScreenToScaleRPt_
Module: /mnt/sda5/.user/root/src/openwatcom-1.9/bld/aui/wini86/aui.lib(/mnt/sda5/.user/root/src/openwatcom-1.9/bld/aui/c/wndstyle.c)
0009:3dd4      _WndStyle
Module: /mnt/sda5/.user/root/src/openwatcom-1.9/bld/gui/win/wini86/gui.lib(/mnt/sda5/.user/root/src/openwatcom-1.9/bld/gui/win/c/guixwind.c)
0009:7f1a      _GUIClass
0009:7f5a      _GUIMainHInst
0009:3de0      _EditControlHasFocus
0009:3de8      _GUICurrWnd
0009:3dec+     _GUIDialogClass
0009:3e2c+     _GUIDefaultClassName
0007:5f30      GUIXSetupWnd_
0007:5f84*     GUIWantPartialRows_
0007:5f9c*     GUISetCheckResizeAreaForChildren_
0007:5fa6      GUIDestroyWnd_
0007:6140+     GUICleanup_
0007:6170      GUIXMain_
0007:62a2      GUIShowWindow_
0007:62dc      GUIShowWindowNA_
0007:6334      GUIWndInit_
0007:6488      GUIXCreateWindow_
0007:672c      SendPointEvent_
0007:67a0      GUIResizeBackground_
0007:6900+     SetFocusToParent_
0007:6930*     GUISetF10Menus_
0007:6970      GUIDoResize_
0007:6adc+     GUIWINDOWPROC
0007:7630*     GUIIsFirstInstance_
Module: /mnt/sda5/.user/root/src/openwatcom-1.9/bld/gui/win/wini86/gui.lib(/mnt/sda5/.user/root/src/openwatcom-1.9/bld/gui/c/guiimmdi.c)
0007:7640      GUIMDIInitMenuOnly_
Module: /mnt/sda5/.user/root/src/openwatcom-1.9/bld/gui/win/wini86/gui.lib(/mnt/sda5/.user/root/src/openwatcom-1.9/bld/gui/win/c/gui3ddlg.c)
0007:76a0      GUI3DDialogInit_
Module: /mnt/sda5/.user/root/src/openwatcom-1.9/bld/aui/wini86/aui.lib(/mnt/sda5/.user/root/src/openwatcom-1.9/bld/aui/c/wndimain.c)
0007:7850      WndInitWndMain_
Module: /mnt/sda5/.user/root/src/openwatcom-1.9/bld/aui/wini86/aui.lib(/mnt/sda5/.user/root/src/openwatcom-1.9/bld/aui/c/wndbgch.c)
0009:3e3c      _WndBackgroundChar
Module: /mnt/sda5/.user/root/src/openwatcom-1.9/bld/gui/win/wini86/gui.lib(/mnt/sda5/.user/root/src/openwatcom-1.9/bld/gui/win/c/guigetnr.c)
0007:7860      GUIGetNumRows_
Module: /mnt/sda5/.user/root/src/openwatcom-1.9/bld/gui/win/wini86/gui.lib(/mnt/sda5/.user/root/src/openwatcom-1.9/bld/gui/win/c/guitextm.c)
0007:7870      GUISetMetrics_
0007:78d0      GUIGetTextMetrics_
Module: /mnt/sda5/.user/root/src/openwatcom-1.9/bld/gui/win/wini86/gui.lib(/mnt/sda5/.user/root/src/openwatcom-1.9/bld/gui/win/c/guicrect.c)
0007:7900      GUIGetClientRect_
0007:799c*     GUIGetPaintRect_
Module: /mnt/sda5/.user/root/src/openwatcom-1.9/bld/gui/win/wini86/gui.lib(/mnt/sda5/.user/root/src/openwatcom-1.9/bld/gui/win/c/guirange.c)
0007:7ae4*     GUISetHScrollRangeCols_
0007:7b06      GUISetVScrollRangeRows_
0007:7b28      GUISetHScrollRange_
0007:7b62*     GUISetVScrollRange_
0007:7b9e*     GUIGetHScrollRange_
0007:7bc4*     GUIGetVScrollRange_
0007:7bec*     GUIGetVScrollRangeRows_
0007:7c1a*     GUIGetHScrollRangeCols_
Module: /mnt/sda5/.user/root/src/openwatcom-1.9/bld/gui/win/wini86/gui.lib(/mnt/sda5/.user/root/src/openwatcom-1.9/bld/gui/win/c/guicursr.c)
0007:7c50      GUISetMouseCursor_
0007:7c9c      GUIResetMouseCursor_
Module: /mnt/sda5/.user/root/src/openwatcom-1.9/bld/aui/wini86/aui.lib(/mnt/sda5/.user/root/src/openwatcom-1.9/bld/aui/c/wndchoos.c)
0007:7cc0      WndChooseEvent_
0007:7d28*     WndDoneChoose_
0007:7d3a      WndKeyEscape_
0007:7d68*     WndStartChoose_
0007:7d74      WndSayMatchMode_
0007:8150      WndKeyChoose_
0007:815a      WndKeyRubOut_
Module: /mnt/sda5/.user/root/src/openwatcom-1.9/bld/aui/wini86/aui.lib(/mnt/sda5/.user/root/src/openwatcom-1.9/bld/aui/c/wndmouse.c)
0007:8220*     WndGetMouseRow_
0007:8316      WndLButtonDown_
0007:83f8      WndLButtonUp_
0007:84d0      WndLDblClk_
0007:854e      WndRButtonDown_
0007:8642      WndRButtonUp_
0007:86da      WndMouseButtonIsDown_
0007:86ec      WndIgnoreMouseMove_
0007:870e      WndMouseMove_
Module: /mnt/sda5/.user/root/src/openwatcom-1.9/bld/gui/win/wini86/gui.lib(/mnt/sda5/.user/root/src/openwatcom-1.9/bld/gui/win/c/guistat.c)
0007:8942      GUICreateStatusWindow_
0007:89ea      GUIDrawStatusText_
0007:8a96      GUIHasStatus_
0007:8aaa      GUICloseStatusWindow_
0007:8aea      GUIResizeStatusWindow_
Module: /mnt/sda5/.user/root/src/openwatcom-1.9/bld/aui/wini86/aui.lib(/mnt/sda5/.user/root/src/openwatcom-1.9/bld/aui/c/wndqryhk.c)
0007:8b80      WndQueryEndSessionHook_
Module: /mnt/sda5/.user/root/src/openwatcom-1.9/bld/aui/wini86/aui.lib(/mnt/sda5/.user/root/src/openwatcom-1.9/bld/aui/c/wndendhk.c)
0007:8b90      WndEndSessionHook_
Module: /mnt/sda5/.user/root/src/openwatcom-1.9/bld/gui/win/wini86/gui.lib(/mnt/sda5/.user/root/src/openwatcom-1.9/bld/gui/win/c/guixutil.c)
0007:8bf4      GUIMaximizeZoomedChildren_
0007:8c0e      GUIIsOpen_
0007:8c32+     GUIIsParentADialog_
0007:8c72      GUIIsRectInUpdateRect_
0007:8cea      GUICalcLocation_
0007:8da0      GUISetupStruct_
0007:8e90      GUIError_
0007:8ec4*     GUIFindWindowFromHWND_
0007:8f1c*     GUIIsGUIChild_
0007:8f52      GUISetRedraw_
0007:8f7a      GUIBringNewToFront_
0007:8ffe      GUIXGetRootWindow_
0007:9040+     GUIFindFirstChild_
0007:909c+     GUIFindFirstPopupWithNoParent_
0007:9142      GUIDestroyAllChildren_
0007:9190      GUIDestroyAllPopupsWithNoParent_
0007:91b6      GUIFreeWindowMemory_
0007:9314      GUIScrollOn_
0007:9338      GUISetRowCol_
0007:93aa      GUIInvalidateResize_
0007:9468      GUISendMessage_
0007:948e      GUISendDlgItemMessage_
0007:94c2      GUIMakeRelative_
0007:95d4      GUIGetScrollHWND_
0007:95f4      GUISetScrollPos_
0007:9636      GUIGetScrollPos_
0007:964c      GUISetScrollRange_
0007:96de      GUIGetScrollRange_
0007:96f4*     GUISetRangePos_
0007:9750      GUIRedrawScroll_
0007:984c      GUIGetParentHWND_
0007:986c      GUIGetParentFrameHWND_
0007:988e      GUIGetTopParentHWND_
0007:98ac      GUIGetTopGUIWindow_
0007:98b8      GUIGetWindow_
0007:98dc      GUIGetParentWindow_
0007:98fa      GUIParentHasFlags_
0007:992e      GUIGetFirstSibling_
0007:996e      GUIGetSystemFont_
Module: /mnt/sda5/.user/root/src/openwatcom-1.9/bld/gui/win/wini86/gui.lib(/mnt/sda5/.user/root/src/openwatcom-1.9/bld/gui/c/guipixel.c)
0007:9990      GUITruncToPixel_
Module: /mnt/sda5/.user/root/src/openwatcom-1.9/bld/gui/win/wini86/gui.lib(/mnt/sda5/.user/root/src/openwatcom-1.9/bld/gui/c/guidlg.c)
0007:9a32      GUICreateDialog_
0007:9a4e      GUICreateResDialog_
0007:9a60      GUICreateSysModalDialog_
Module: /mnt/sda5/.user/root/src/openwatcom-1.9/rel2/lib286/win/math87l.lib(ldclass.c)
0006:35da      __LDClass_
0006:3632*     _FLClass_
Module: /mnt/sda5/.user/root/src/openwatcom-1.9/rel2/lib286/win/math87l.lib(bufld086)
0006:3646      __ZBuf2LD
Module: /mnt/sda5/.user/root/src/openwatcom-1.9/rel2/lib286/win/math87l.lib(inf_nan.c)
0009:01b8*     ___f_infinity
0009:01bc*     ___f_posqnan
0009:01c0      ___d_infinity
0009:01c8      ___d_posqnan
0009:01d0*     ___ld_infinity
0009:01d8*     ___ld_posqnan
Module: /mnt/sda5/.user/root/src/openwatcom-1.9/bld/aui/wini86/aui.lib(/mnt/sda5/.user/root/src/openwatcom-1.9/bld/aui/c/wndfref.c)
0007:9a80      WndForceRefresh_
Module: /mnt/sda5/.user/root/src/openwatcom-1.9/bld/gui/win/wini86/gui.lib(/mnt/sda5/.user/root/src/openwatcom-1.9/bld/gui/c/guicreat.c)
0007:9aa0      GUICreateWindow_
0009:3e3e      _GUIMDI
Module: /mnt/sda5/.user/root/src/openwatcom-1.9/bld/gui/win/wini86/gui.lib(/mnt/sda5/.user/root/src/openwatcom-1.9/bld/gui/win/c/guimenus.c)
0007:9b30      GUIInitGUIMenuHint_
0007:9d18+     GetStateForMenu_
0007:9d98*     GUIIsMenuItemChecked_
0007:9db6*     GUIIsMenuItemEnabled_
0007:9de0      GUISetMenu_
0007:a030      GUIDeleteFloatingPopups_
0007:a0dc      GUIFreePopupList_
0007:a134      GUISetGUIHint_
0007:a14e+     GUIGetHMENU_
0007:a1d4      GUIGetMenuPopupCount_
0007:a28e      GUIDeleteMenuItem_
0007:a32e+     CheckItem_
0007:a352+     CheckPopup_
0007:a372      GUICheckMenuItem_
0007:a402+     EnableItem_
0007:a426+     EnablePopup_
0007:a446      GUIEnableSysMenuItem_
0007:a482      GUIEnableMenuItem_
0007:a512      GUISetMenuText_
0007:a5a8+     GUICreateMenuFlags_
0007:a5ec      GUICreateSubMenu_
0007:a754      GUICreateMenus_
0007:a7ca      GUIAddToSystemMenu_
0007:a9f2      GUIProcessMenuSelect_
0007:aa62      GUIProcessInitMenuPopup_
0007:ac2e*     GUIInsertMenu_
0007:ac9c*     GUIInsertMenuByID_
0007:ad56*     GUIAppendMenu_
0007:adcc*     GUIAppendMenuByOffset_
0007:af7a      GUIInsertMenuToPopup_
0007:afa8      GUIAppendMenuToPopup_
0009:3e40      _GUIHint
0009:3e64      _GUIHFloatingPopup
Module: /mnt/sda5/.user/root/src/openwatcom-1.9/bld/gui/win/wini86/gui.lib(/mnt/sda5/.user/root/src/openwatcom-1.9/bld/gui/win/c/guisicon.c)
0007:afe0      GUISetIcon_
Module: /mnt/sda5/.user/root/src/openwatcom-1.9/bld/gui/win/wini86/gui.lib(/mnt/sda5/.user/root/src/openwatcom-1.9/bld/gui/win/c/guidrect.c)
0007:b080      GUIWndDirtyRect_
Module: /mnt/sda5/.user/root/src/openwatcom-1.9/bld/gui/win/wini86/gui.lib(/mnt/sda5/.user/root/src/openwatcom-1.9/bld/gui/win/c/guidrow.c)
0007:b140      GUIWndDirtyRow_
Module: /mnt/sda5/.user/root/src/openwatcom-1.9/bld/gui/win/wini86/gui.lib(/mnt/sda5/.user/root/src/openwatcom-1.9/bld/gui/win/c/guiiscrl.c)
0007:b288      GUIInitVScrollRow_
0007:b2aa*     GUIInitHScrollCol_
0007:b2cc*     GUIInitVScroll_
0007:b30a      GUIInitHScroll_
Module: /mnt/sda5/.user/root/src/openwatcom-1.9/bld/gui/win/wini86/gui.lib(/mnt/sda5/.user/root/src/openwatcom-1.9/bld/gui/c/guidraw.c)
0007:b350      GUIDrawText_
0007:b3aa*     GUIDrawTextPos_
0007:b3d4      GUIDrawTextExtent_
0007:b42e*     GUIDrawTextExtentPos_
0007:b458*     GUIDrawTextRGB_
0007:b4b8*     GUIDrawTextPosRGB_
0007:b4e4*     GUIDrawTextExtentRGB_
0007:b544*     GUIDrawTextExtentPosRGB_
Module: /mnt/sda5/.user/root/src/openwatcom-1.9/bld/gui/win/wini86/gui.lib(/mnt/sda5/.user/root/src/openwatcom-1.9/bld/gui/win/c/guidoscr.c)
0007:b6e2*     GUIDoVScroll_
0007:b6fa*     GUIDoHScroll_
0007:b714      GUIDoVScrollClip_
0007:b72c*     GUIDoHScrollClip_
0007:b746      GUIDoScroll_
Module: /mnt/sda5/.user/root/src/openwatcom-1.9/bld/gui/win/wini86/gui.lib(/mnt/sda5/.user/root/src/openwatcom-1.9/bld/gui/win/c/guidirty.c)
0007:b780      GUIWndDirty_
0007:b7fe      GUIControlDirty_
Module: /mnt/sda5/.user/root/src/openwatcom-1.9/bld/gui/win/wini86/gui.lib(/mnt/sda5/.user/root/src/openwatcom-1.9/bld/gui/win/c/guiscrol.c)
0007:b840      GUIGetScrollScreenSize_
0007:b8ca+     GUIGetScrollInc_
0007:b90e+     GUIScroll_
0007:ba3e*     GUISetVScrollRow_
0007:ba60*     GUISetHScrollCol_
0007:ba82*     GUISetVScroll_
0007:bac0      GUISetHScroll_
0007:bc1c      GUIProcessScrollMsg_
0007:bfaa      GUISetScroll_
Module: /mnt/sda5/.user/root/src/openwatcom-1.9/bld/gui/win/wini86/gui.lib(/mnt/sda5/.user/root/src/openwatcom-1.9/bld/gui/win/c/guixtent.c)
0007:c040+     GetExtent_
0007:c0dc      GUIGetExtentX_
0007:c10c*     GUIGetExtentY_
0007:c13c+     GetControlInfo_
0007:c18e+     GetControlExtent_
0007:c252*     GUIGetControlExtentX_
0007:c288*     GUIGetControlExtentY_
Module: /mnt/sda5/.user/root/src/openwatcom-1.9/bld/gui/win/wini86/gui.lib(/mnt/sda5/.user/root/src/openwatcom-1.9/bld/gui/win/c/guirect.c)
0007:c2d0      DoGetRelRect_
0007:c3d4+     GUIGetRelRect_
0007:c410      GUIGetRect_
Module: /mnt/sda5/.user/root/src/openwatcom-1.9/bld/gui/win/wini86/gui.lib(/mnt/sda5/.user/root/src/openwatcom-1.9/bld/gui/win/c/guimouse.c)
0007:c450      GUIGetMousePosn_
Module: /mnt/sda5/.user/root/src/openwatcom-1.9/bld/gui/win/wini86/gui.lib(/mnt/sda5/.user/root/src/openwatcom-1.9/bld/gui/win/c/guisize.c)
0007:c4b0+     GUIResizeWindow_
0007:c58e      GUISetRestoredSize_
0007:c670*     GUIGetRestoredSize_
0007:c6ec      GUIMinimizeWindow_
0007:c716      GUIMaximizeWindow_
0007:c766*     GUIHideWindow_
0007:c780*     GUIIsWindowVisible_
0007:c7a8      GUIRestoreWindow_
0007:c7f6      GUIIsMaximized_
0007:c81e      GUIIsMinimized_
Module: /mnt/sda5/.user/root/src/openwatcom-1.9/bld/gui/win/wini86/gui.lib(/mnt/sda5/.user/root/src/openwatcom-1.9/bld/gui/c/guizlist.c)
0007:c880      GUIDeleteFromList_
0007:c910      GUIFrontOfList_
0007:c93c      GUIGetFront_
0007:c944      GUIGetNextWindow_
0007:c96e      GUIIsValidWindow_
Module: /mnt/sda5/.user/root/src/openwatcom-1.9/bld/gui/win/wini86/gui.lib(/mnt/sda5/.user/root/src/openwatcom-1.9/bld/gui/win/c/guixdisp.c)
0007:c9ce      GUIDisplayMessage_
Module: /mnt/sda5/.user/root/src/openwatcom-1.9/bld/gui/win/wini86/gui.lib(/mnt/sda5/.user/root/src/openwatcom-1.9/bld/gui/win/c/guildstr.c)
0007:ca90      GUIIsLoadStrInitialized_
0007:ca94      GUILoadStrInit_
0007:cb0e      GUILoadStrFini_
0007:cb3c      GUILoadString_
Module: /mnt/sda5/.user/root/src/openwatcom-1.9/bld/gui/win/wini86/gui.lib(/mnt/sda5/.user/root/src/openwatcom-1.9/bld/gui/win/c/guifront.c)
0007:cb80      ActivateNC_
0007:cbde      GUIBringToFront_
0007:cd32*     GUIActivateNC_
Module: /mnt/sda5/.user/root/src/openwatcom-1.9/bld/gui/win/wini86/gui.lib(/mnt/sda5/.user/root/src/openwatcom-1.9/bld/gui/win/c/guissel.c)
0007:cdb6      GUISelectAll_
0007:cdde*     GUISetEditSelect_
0007:cdf8*     GUIGetEditSelect_
0007:ce54*     GUIScrollCaret_
Module: /mnt/sda5/.user/root/src/openwatcom-1.9/bld/gui/win/wini86/gui.lib(/mnt/sda5/.user/root/src/openwatcom-1.9/bld/gui/win/c/guigetrc.c)
0007:ceb0      GUIGetRow_
0007:cef0*     GUIGetCol_
Module: /mnt/sda5/.user/root/src/openwatcom-1.9/bld/gui/win/wini86/gui.lib(/mnt/sda5/.user/root/src/openwatcom-1.9/bld/gui/win/c/guistrin.c)
0007:cfa8      GUIGetStringPos_
Module: /mnt/sda5/.user/root/src/openwatcom-1.9/bld/gui/win/wini86/gui.lib(/mnt/sda5/.user/root/src/openwatcom-1.9/bld/gui/win/c/guixbar.c)
0007:d120+     DrawSimpleBar_
0007:d280+     DrawShadowBar_
0007:d45a      GUIDrawBar_
0007:d588      GUIDrawBarGroup_
Module: /mnt/sda5/.user/root/src/openwatcom-1.9/bld/gui/win/wini86/gui.lib(/mnt/sda5/.user/root/src/openwatcom-1.9/bld/gui/win/c/guidrawr.c)
0007:d7ae*     GUIFillRect_
0007:d7ec*     GUIDrawRect_
0007:d82a*     GUIFillRectRGB_
0007:d876*     GUIDrawRectRGB_
0007:da60      GUIDrawLine_
0007:daa2*     GUIDrawLineRGB_
Module: /mnt/sda5/.user/root/src/openwatcom-1.9/bld/gui/win/wini86/gui.lib(/mnt/sda5/.user/root/src/openwatcom-1.9/bld/gui/win/c/guixhot.c)
0007:db00      GUIXInitHotSpots_
0007:db76      GUIXCleanupHotSpots_
0007:dbaa      GUIDrawHotSpot_
0007:dc36      GUIDrawBitmap_
0009:7f90      _GUIHotSpots
Module: /mnt/sda5/.user/root/src/openwatcom-1.9/bld/gui/win/wini86/gui.lib(/mnt/sda5/.user/root/src/openwatcom-1.9/bld/sdk/misc/fontstr.c)
0007:dd10      GetLogFontFromString_
0007:de18      GetFontFormatString_
Module: /mnt/sda5/.user/root/src/openwatcom-1.9/bld/gui/win/wini86/gui.lib(/mnt/sda5/.user/root/src/openwatcom-1.9/bld/gui/c/guiutil.c)
0007:de80*     GUIStripTrailingBlanks_
0007:df4e      GUIStrDup_
0007:e010      GUIStoreArgs_
0007:e022*     GUIGetArgs_
0007:e062*     GUIIsRootWindow_
0007:e086      GUIGetRootWindow_
Module: /mnt/sda5/.user/root/src/openwatcom-1.9/bld/gui/win/wini86/gui.lib(/mnt/sda5/.user/root/src/openwatcom-1.9/bld/gui/win/c/guitool.c)
0007:e0a0      GUIXCloseToolBar_
0007:e1a0+     GUIToolBarHelp_
0007:e1d8+     GUIToolBarProc_
0007:e3be      GUIXCreateToolBarWithTips_
0007:e8d4      GUIXCreateToolBar_
0007:e916      GUIResizeToolBar_
0007:ea42      GUIHasToolBar_
0007:ea60+     GUIChangeToolBar_
0007:ebc8*     GUIToolBarFixed_
Module: /mnt/sda5/.user/root/src/openwatcom-1.9/bld/gui/win/wini86/gui.lib(/mnt/sda5/.user/root/src/openwatcom-1.9/bld/gui/c/guihtool.c)
0007:ebf0*     GUICreateFloatToolBar_
0007:ec60      GUICreateToolBar_
0007:ecce      GUICreateToolBarWithTips_
0007:ed40      GUICloseToolBar_
Module: /mnt/sda5/.user/root/src/openwatcom-1.9/bld/gui/win/wini86/gui.lib(/mnt/sda5/.user/root/src/openwatcom-1.9/bld/gui/c/guisdef.c)
0009:7fa0      ___LITApplIcon
0009:7fa4      ___LITEmpty
0009:7fa8      ___LITOS2_Dialog_Font
0009:7fac      ___LITBlank
0009:7fb0      ___LITTable_of_Contents
0009:7fb4      ___LITInternal_Last_Message
0009:7fb8      ___LITWindows_Dialog_Font
0009:7fbc      ___LITBrightGreen
0009:7fc0      ___LITBlack
0009:7fc4      ___LITBrightCyan
0009:7fc8      ___LITCyan
0009:7fcc      ___LITBrightBlue
0009:7fd0      ___LITBrown
0009:7fd4      ___LITBlue
0009:7fd8      ___LITBrightRed
0009:7fdc      ___LITGreen
0009:7fe0      ___LITBrightYellow
0009:7fe4      ___LITExclamation
0009:7fe8      ___LITBrightWhite
0009:7fec      ___LITColour
0009:7ff0      ___LITStop_Bang
0009:7ff4      ___LITBrightMagenta
0009:7ff8      ___LITWhite
0009:7ffc      ___LITMagenta
0009:8000      ___LITRed
0009:8004      ___LITGrey
0009:8008      ___LITArrange_Icons_Hint
0009:800c      ___LITXNo
0009:8010      ___LITXIgnore
0009:8014      ___LITFix_Toolbar_Hint
0009:8018      ___LITTile_Horz_Hint
0009:801c      ___LITCascade_Hint
0009:8020      ___LITXAbort
0009:8024      ___LITTile_XVert
0009:8028      ___LITWindow_Name_Hint
0009:802c      ___LITTile_Vert_Hint
0009:8030      ___LITTile_XHorz
0009:8034      ___LITMore_Windows_Hint
0009:8038      ___LITXMore_Windows
0009:803c      ___LITXFix_Toolbar
0009:8040      ___LITXCascade
0009:8044      ___LITXArrange_Icons
0009:8048      ___LITXRetry
0009:804c      ___LITSelect_Window
0009:8050      ___LITXYes
0009:8054      ___LITFile_Exists_Replace
0009:8058      ___LITNexXt
0009:805c      ___LITClose
0009:8060      ___LITCancel
0009:8064      ___LITFDlg_Open_Text
0009:8068      ___LITOpen_Failed
0009:806c      ___LITDrives_Colon
0009:8070      ___LITFDlg_Save_Text
0009:8074      ___LITList_Files_of_Type_Colon
0009:8078      ___LITPen_Failed
0009:807c      ___LITFile_Name_Colon
0009:8080      ___LITRestore
0009:8084      ___LITMove
0009:8088      ___LITXClose
0009:808c      ___LITSize
0009:8090      ___LITMinimize
0009:8094      ___LITDirectories_Colon
0009:8098      ___LITMaximize
0009:809c      ___LITOK
0009:80a0      ___LITXFix_Tool_Bar
0009:80a4      ___LITChange_XFont_
0009:80a8      ___LITChange_Font_for_this_window
0009:80ac      ___LITMake_Tool_Bar_Fixed
0009:80b0      ___LITFloating_Toolbar
0009:80b4      ___LITInternal_First_Message
Module: /mnt/sda5/.user/root/src/openwatcom-1.9/bld/gui/win/wini86/gui.lib(/mnt/sda5/.user/root/src/openwatcom-1.9/bld/gui/win/c/guicutil.c)
0007:ed80      GUIToControl_
0007:edec      GUIToComboList_
0007:ee6a      GUIGetControlClass_
Module: /mnt/sda5/.user/root/src/openwatcom-1.9/bld/aui/wini86/aui.lib(/mnt/sda5/.user/root/src/openwatcom-1.9/bld/aui/c/rxwrap.c)
0009:80de      _RegExpError
0008:005a      RegComp_
0008:0d10      RegExec_
0008:1324*     RegAnchor_
0009:3ec8      _SrchMetaChars
0009:3ed6+     _RealTabs
Module: /mnt/sda5/.user/root/src/openwatcom-1.9/bld/gui/win/wini86/gui.lib(/mnt/sda5/.user/root/src/openwatcom-1.9/bld/gui/c/guihflt.c)
0008:1340      GUICreateFloatingPopup_
Module: /mnt/sda5/.user/root/src/openwatcom-1.9/bld/gui/win/wini86/gui.lib(/mnt/sda5/.user/root/src/openwatcom-1.9/bld/gui/win/c/guireset.c)
0008:143a      GUIResetMenus_
Module: /mnt/sda5/.user/root/src/openwatcom-1.9/bld/gui/win/wini86/gui.lib(/mnt/sda5/.user/root/src/openwatcom-1.9/bld/gui/c/guihook.c)
0008:1550      GUISetHotSpotCleanup_
0008:1558      GUICleanupHotSpots_
0008:1578*     GUISetXChangeTitle_
0008:1580      GUIXChangeTitle_
0008:15a4      GUISetXInitMDI_
0008:15ac      GUIXInitMDI_
0008:15d2      GUISetInitMDI_
0008:15da      GUIInitMDI_
0008:15fe      GUIChangeMDITitle_
0008:1622      GUISetMDIChangeTitle_
0008:162a      GUISetMDIBroughtToFront_
0008:1632      GUIMDIBroughtToFront_
0008:1656      GUISetMDIDelete_
0008:165e      GUIMDIDelete_
0008:1682      GUISetMDIResetMenus_
0008:168a      GUIMDIResetMenus_
0008:16bc      GUISetMDIDeleteMenuItem_
0008:16c4      GUIMDIDeleteMenuItem_
0008:16e8*     GUISetEnableMDIActions_
0008:16f0      GUIEnableMDIActions_
0008:1716*     GUISetAddMDIActions_
0008:171e      GUIAddMDIActions_
Module: /mnt/sda5/.user/root/src/openwatcom-1.9/bld/gui/win/wini86/gui.lib(/mnt/sda5/.user/root/src/openwatcom-1.9/bld/gui/win/c/guixhook.c)
0008:1750      GUISetMDIProcessMessage_
0008:1758      GUIMDIProcessMessage_
0008:1792      GUIMDIMaximized_
0008:17c2*     GUISetMDIMaximized_
0008:17ca      GUIMDIUpdatedMenu_
0008:17ec*     GUISetMDIUpdatedMenu_
0008:17f4*     GUISetIsMDIChildWindow_
0008:17fc      GUIIsMDIChildWindow_
0008:1822      GUIResizeStatus_
0008:1846      GUISetResizeStatus_
0008:184e      GUIFreeStatus_
0008:186e      GUISetFreeStatus_
0008:1876*     GUISetMDINewWindow_
0008:187e      GUIMDINewWindow_
0008:18a4*     GUISetMDIMaximize_
0008:18ac      GUIMDIMaximize_
0008:18d2*     GUISetSetMDIRestoredSize_
0008:18da      GUISetMDIRestoredSize_
0008:18fe      GUISetCtl3dUnregister_
0008:1906      GUICtl3dUnregister_
0008:1932      GUISetCtl3dSubclassDlg_
0008:193a      GUICtl3dSubclassDlg_
0008:1962      GUISetCtl3dColorChange_
0008:196a      GUISetCtl3dSubclassCtl_
0008:1972      GUISetCtl3dCtlColorEx_
0008:197a      GUICtl3dSubclassCtl_
0008:19a4      GUICtl3dColorChange_
0008:19cc      GUICtl3dCtlColorEx_
Module: /mnt/sda5/.user/root/src/openwatcom-1.9/bld/gui/win/wini86/gui.lib(/mnt/sda5/.user/root/src/openwatcom-1.9/bld/gui/win/c/guirdlg.c)
0008:1a00      GUIGetControlClassFromHWND_
0008:1ac4      GUIGetControlStylesFromHWND_
0008:1b8a+     INSERTRESDLGCNTLFUNC
0008:1bac      GUIInsertResDialogControls_
0008:1bf6      GUIDoCreateResDialog_
0008:1c66*     GUICreateDialogFromRes_
0009:80e2      _GUIResHInst
Module: /mnt/sda5/.user/root/src/openwatcom-1.9/bld/gui/win/wini86/gui.lib(/mnt/sda5/.user/root/src/openwatcom-1.9/bld/gui/c/guimkey.c)
0008:1c70      GUIMapKey_
0008:1f7a      GUIGetKeyState_
0009:3ffe      _KeyState
Module: /mnt/sda5/.user/root/src/openwatcom-1.9/bld/gui/win/wini86/gui.lib(/mnt/sda5/.user/root/src/openwatcom-1.9/bld/gui/win/c/guimapky.c)
0008:2532      GUISetKeyState_
0008:25ce      GUIWindowsMapKey_
0008:2602      GUIProcesskey_
Module: /mnt/sda5/.user/root/src/openwatcom-1.9/bld/gui/win/wini86/gui.lib(/mnt/sda5/.user/root/src/openwatcom-1.9/bld/gui/win/c/guipaint.c)
0008:27b0      GUIPaint_
0008:28a8      GUIInvalidatePaintHandles_
0008:28b2*     GUIFreeWndPaintHandles_
0008:28b4*     GUIFreePaintHandles_
Module: /mnt/sda5/.user/root/src/openwatcom-1.9/bld/gui/win/wini86/gui.lib(/mnt/sda5/.user/root/src/openwatcom-1.9/bld/gui/win/c/windlg.c)
0008:290e      DialogTemplate_
0008:2a34      AddControl_
0008:2b8c      DoneAddingControls_
0008:2bd2      DynamicDialogBox_
Module: /mnt/sda5/.user/root/src/openwatcom-1.9/bld/gui/win/wini86/gui.lib(/mnt/sda5/.user/root/src/openwatcom-1.9/bld/gui/win/c/guifdlg.c)
0008:2c20*     GUIHookFileDlg_
0008:2c24+     OPENHOOK
0008:2c54      GUIGetFileName_
Module: /mnt/sda5/.user/root/src/openwatcom-1.9/bld/gui/win/wini86/gui.lib(/mnt/sda5/.user/root/src/openwatcom-1.9/bld/wpi/c/wpi_win.c)
0008:2ef0      _wpi_getbitmapdim_
0008:2f2a      _wpi_getpaintrect_
0008:2f5e*     _wpi_preparemono_
0008:2f90      _wpi_setpoint_
0008:2f9e      _wpi_subclasswindow_
0008:2fdc      _wpi_insertmenu_
0008:301a      _wpi_appendmenu_
0008:3044      _wpi_getmenustate_
0008:308a      _wpi_getmenuflagsfromstate_
0008:30a8      _wpi_modifymenu_
0008:30e6      _wpi_setmenutext_
0008:315c      _wpi_getmenutext_
0008:317c      _wpi_setmenu_
0008:318e      _wpi_createcompatiblepres_
0008:319c*     _wpi_getbitmapparms_
0008:323a*     _wpi_setqmsgvalues_
0008:3280      _wpi_getqmsgvalues_
0008:3338      _wpi_setrectvalues_
0008:335a      _wpi_setwrectvalues_
0008:337c      _wpi_getrectvalues_
0008:33e2      _wpi_getwrectvalues_
0008:3448*     _wpi_setintrectvalues_
0008:346a*     _wpi_setintwrectvalues_
0008:348c*     _wpi_getintwrectvalues_
0008:34f2*     _wpi_getintrectvalues_
0008:3558*     _wpi_getcurrpos_
0008:358a*     _wpi_suspendthread_
0008:35b0      _wpi_setmaxtracksize_
0008:35c0      _wpi_setmintracksize_
0008:35d0*     _wpi_getbmphdrvalues_
0008:36d6*     _wpi_setbmphdrvalues_
0008:3758      _wpi_gettextextent_
0008:3786      _wpi_getrestoredrect_
0008:37ba      _wpi_setrestoredrect_
0008:37ee*     _wpi_setrgbquadvalues_
0008:3810*     _wpi_dlg_command_
0008:3840*     _wpi_getmetricpointsize_
Module: /mnt/sda5/.user/root/src/openwatcom-1.9/bld/gui/win/wini86/gui.lib(/mnt/sda5/.user/root/src/openwatcom-1.9/bld/gui/win/c/guicombo.c)
0008:38b0+     GUIENUMFUNC
0008:3950      GUISubClassEditCombobox_
Module: /mnt/sda5/.user/root/src/openwatcom-1.9/bld/gui/win/wini86/gui.lib(/mnt/sda5/.user/root/src/openwatcom-1.9/bld/sdk/misc/wwinhelp.c)
0008:39b0      WWinHelp_
0008:3b1a      WHtmlHelp_
Module: /mnt/sda5/.user/root/src/openwatcom-1.9/bld/gui/win/wini86/gui.lib(/mnt/sda5/.user/root/src/openwatcom-1.9/bld/gui/win/c/guithumb.c)
0008:3c1a      GUISetVScrollThumb_
0008:3c2a*     GUISetHScrollThumb_
Module: /mnt/sda5/.user/root/src/openwatcom-1.9/bld/gui/win/wini86/gui.lib(/mnt/sda5/.user/root/src/openwatcom-1.9/bld/gui/win/c/guigscrl.c)
0008:3c68*     GUIGetHScrollCol_
0008:3c88      GUIGetVScrollRow_
0008:3cdc      GUIGetHScroll_
0008:3cea*     GUIGetVScroll_
Module: /mnt/sda5/.user/root/src/openwatcom-1.9/bld/gui/win/wini86/gui.lib(/mnt/sda5/.user/root/src/openwatcom-1.9/bld/gui/c/guideath.c)
0008:3d00      GUIDeath_
Module: /mnt/sda5/.user/root/src/openwatcom-1.9/bld/gui/win/wini86/gui.lib(/mnt/sda5/.user/root/src/openwatcom-1.9/bld/gui/c/guistr.c)
0008:3d66      GUIInitInternalStringTable_
0008:4100      GUIFiniInternalStringTable_
Module: /mnt/sda5/.user/root/src/openwatcom-1.9/bld/gui/win/wini86/gui.lib(/mnt/sda5/.user/root/src/openwatcom-1.9/bld/gui/win/c/guixmain.c)
0008:4460      WINMAIN
0009:40d4      _GUIMainTouched
Module: /mnt/sda5/.user/root/src/openwatcom-1.9/bld/gui/win/wini86/gui.lib(/mnt/sda5/.user/root/src/openwatcom-1.9/bld/gui/c/guifcrck.c)
0008:4490      GUIFirstCrack_
Module: /mnt/sda5/.user/root/src/openwatcom-1.9/bld/gui/win/wini86/gui.lib(/mnt/sda5/.user/root/src/openwatcom-1.9/bld/gui/c/guidead.c)
0008:44a0      GUIDead_
Module: /mnt/sda5/.user/root/src/openwatcom-1.9/bld/gui/win/wini86/gui.lib(/mnt/sda5/.user/root/src/openwatcom-1.9/bld/gui/win/c/guiwinlp.c)
0008:44b0      GUIWinMessageLoop_
Module: /mnt/sda5/.user/root/src/openwatcom-1.9/bld/gui/win/wini86/gui.lib(/mnt/sda5/.user/root/src/openwatcom-1.9/bld/gui/c/guihint.c)
0008:4708+     GUIHasHintType_
0008:4748      GUIDisplayHintText_
0008:47d8*     GUISetHintText_
0008:47f2*     GUIHasHintText_
0008:481a      GUIDeleteHintText_
0008:4966+     CountMenus_
0008:49ca+     InsertHint_
0008:4a74      GUIAppendHintText_
0008:4b24      GUIInitHint_
0008:4c24      GUIInitToolbarHint_
0008:4d06      GUIFreeHint_
Module: /mnt/sda5/.user/root/src/openwatcom-1.9/bld/gui/win/wini86/gui.lib(/mnt/sda5/.user/root/src/openwatcom-1.9/bld/gui/win/c/guisystr.c)
0008:4d40      WndSizeChange_
0008:4d40      TrayCallBack_
Module: /mnt/sda5/.user/root/src/openwatcom-1.9/bld/gui/win/wini86/gui.lib(/mnt/sda5/.user/root/src/openwatcom-1.9/bld/gui/win/c/guiximdi.c)
0008:4dce      XFakeInitMDI_
Module: /mnt/sda5/.user/root/src/openwatcom-1.9/bld/gui/win/wini86/gui.lib(/mnt/sda5/.user/root/src/openwatcom-1.9/bld/gui/c/guimdi.c)
0009:4104+     _GUIMDIMenuID
0009:4108+     _Root
0008:4e00*     GUIGetRoot_
0008:50da      MDIDeleteMenu_
0008:50e8      MDIResetMenus_
0008:5184*     GUIEnableMDIMenus_
0008:5214      InitMDI_
0008:53a0      ChangeTitle_
0008:53e0      BroughtToFront_
0008:5470+     FindNextMDIMenuWindowNotInArray_
0008:5508      MDIDelete_
0008:57e8+     GUIGetNumChildWindows_
0008:5810*     GUIGetNumIconicWindows_
0008:5890      GUIMDIMoreWindows_
0008:5904      GUIMDIGetWindow_
Module: /mnt/sda5/.user/root/src/openwatcom-1.9/bld/gui/win/wini86/gui.lib(/mnt/sda5/.user/root/src/openwatcom-1.9/bld/gui/win/c/guixscal.c)
0008:5930      GUIScaleToScreenRect_
0008:594c*     GUIScreenToScaleRect_
0008:5968      GUIClientToScaleRect_
0008:5984      GUIToText_
0008:59d0      GUIToTextX_
0008:59fa      GUIToTextY_
0008:5a24*     GUIFromText_
0008:5a60      GUIFromTextX_
0008:5a82      GUIFromTextY_
0008:5aa4      GUIGetTheDC_
0008:5af2      GUIReleaseTheDC_
0008:5b36      GUIGetMetrics_
0008:5b7e      GUIGetUpdateRows_
0009:8474      _GUItm
Module: /mnt/sda5/.user/root/src/openwatcom-1.9/rel2/lib286/win/clibl.lib(stack086.c)
0006:370e      stackavail_
Module: /mnt/sda5/.user/root/src/openwatcom-1.9/bld/gui/win/wini86/gui.lib(/mnt/sda5/.user/root/src/openwatcom-1.9/bld/sdk/misc/wstatus.c)
0008:5f60+     STATUSWNDCALLBACK
0008:60c4      StatusWndInit_
0008:61c0      StatusWndCreate_
0008:624a+     StatusWndDraw3DBox_
0008:629e+     outputText_
0008:64d0      StatusWndDrawLine_
0008:65e6*     StatusWndSetSeparators_
0008:663e      StatusWndFini_
Module: /mnt/sda5/.user/root/src/openwatcom-1.9/bld/gui/win/wini86/gui.lib(/mnt/sda5/.user/root/src/openwatcom-1.9/bld/gui/win/c/guienum.c)
0008:66d0+     ENUMFUNC
0008:6766      GUIEnumChildWindows_
Module: /mnt/sda5/.user/root/src/openwatcom-1.9/bld/gui/win/wini86/gui.lib(/mnt/sda5/.user/root/src/openwatcom-1.9/bld/gui/c/guisetup.c)
0008:67e0      GUISetupWnd_
Module: /mnt/sda5/.user/root/src/openwatcom-1.9/bld/gui/win/wini86/gui.lib(/mnt/sda5/.user/root/src/openwatcom-1.9/bld/gui/win/c/guifloat.c)
0009:4128+     _CurrItem
0008:6870+     GUITrackFloatingPopup_
0008:69de      GUIXCreateFloatingPopup_
0008:6a5c      GUIPopupMenuSelect_
Module: /mnt/sda5/.user/root/src/openwatcom-1.9/bld/gui/win/wini86/gui.lib(/mnt/sda5/.user/root/src/openwatcom-1.9/bld/gui/win/c/guixdraw.c)
0008:6ae4+     GUIDrawTextBitmapRGB_
0008:6e6e      GUIDrawTextBitmapAttr_
0008:6eda      GUIXDrawText_
0008:6f18      GUIXDrawTextRGB_
Module: /mnt/sda5/.user/root/src/openwatcom-1.9/bld/gui/win/wini86/gui.lib(/mnt/sda5/.user/root/src/openwatcom-1.9/bld/gui/win/c/guigetx.c)
0008:6fa0      GUIGetTextExtentX_
0008:6fce*     GUIGetTextExtentY_
0008:6ffc      GUIGetTextExtent_
Module: /mnt/sda5/.user/root/src/openwatcom-1.9/bld/gui/win/wini86/gui.lib(/mnt/sda5/.user/root/src/openwatcom-1.9/bld/gui/c/guiextnm.c)
0008:7030      GUIGetExtName_
0008:7042*     GUISetExtName_
Module: /mnt/sda5/.user/root/src/openwatcom-1.9/rel2/lib286/win/clibl.lib(sscanf.c)
0006:375d+     vsscanf_
0006:3795      sscanf_
Module: /mnt/sda5/.user/root/src/openwatcom-1.9/bld/gui/win/wini86/gui.lib(/mnt/sda5/.user/root/src/openwatcom-1.9/bld/sdk/misc/wptoolbr.c)
0008:7322      ToolBarRedrawButtons_
0008:734e      ToolBarInit_
0008:74e0+     ToolBarDestroy_
0008:7562      ToolBarFini_
0008:75b8      ToolBarAddItem_
0008:7664*     ToolBarSetState_
0008:769a*     ToolBarGetState_
0008:76ba*     ToolBarDeleteItem_
0008:7722      ToolBarDisplay_
0008:78c4      ToolBarWindow_
0008:78da*     UpdateToolBar_
0008:80e4*     isPointInToolbar_
0008:818e      HasToolAtPoint_
0008:81b2+     TOOLBARWNDPROC
0008:882e*     ChangeToolButtonBitmap_
0008:887c+     WPTB_TransparentBlt_
Module: /mnt/sda5/.user/root/src/openwatcom-1.9/rel2/lib286/win/clibl.lib(strcspn.c)
0006:37c6      strcspn_
Module: /mnt/sda5/.user/root/src/openwatcom-1.9/rel2/lib286/win/clibl.lib(strncmp.c)
0006:3818      strncmp_
Module: /mnt/sda5/.user/root/src/openwatcom-1.9/rel2/lib286/win/clibl.lib(dosdrive)
0006:385a      _dos_getdrive_
0006:386e      _dos_setdrive_
Module: /mnt/sda5/.user/root/src/openwatcom-1.9/rel2/lib286/win/clibl.lib(mbisdbcs.c)
0009:85da      ___IsDBCS
Module: /mnt/sda5/.user/root/src/openwatcom-1.9/rel2/lib286/win/clibl.lib(searchen.c)
0006:3884      _searchenv_
Module: /mnt/sda5/.user/root/src/openwatcom-1.9/rel2/lib286/win/clibl.lib(splitpat.c)
0006:3a6d      _splitpath_
Module: /mnt/sda5/.user/root/src/openwatcom-1.9/rel2/lib286/win/clibl.lib(argcv.c)
0009:85dc      __argv
0009:85e0      ___argv
0009:85e4      __argc
0009:85e6      ___argc
Module: /mnt/sda5/.user/root/src/openwatcom-1.9/rel2/lib286/win/clibl.lib(wstart)
0000:0006*     pLocalHeap
0000:0008*     pAtomTable
0000:000a*     pStackTop
0000:000c*     pStackMin
0000:000e*     pStackBot
0009:0000*     __nullarea
0009:41ce      __curbrk
0009:41d0      __psp
0009:41d2      __osmajor
0009:41d3*     __osminor
0009:41d4      __osmode
0009:000a      __STACKLOW
0009:000c*     __STACKTOP
0009:41d6*     __cbyte
0009:41d8*     __child
0009:41da      __no87
0009:41d5*     __HShift
0009:41dc*     __get_ovl_stack
0009:41e0*     __restore_ovl_stack
0009:41e4*     ___FPE_handler
0009:41e8      __LpCmdLine
0009:41ec      __LpPgmName
0006:3b7c      _wstart_
0006:3b7c*     _cstart_
0006:3c5d      __exit_
0006:3c6e      __GETDS
Module: /mnt/sda5/.user/root/src/openwatcom-1.9/rel2/lib286/win/clibl.lib(itoa.c)
0006:3c70      utoa_
0006:3cd3      itoa_
Module: /mnt/sda5/.user/root/src/openwatcom-1.9/bld/gui/win/wini86/gui.lib(/mnt/sda5/.user/root/src/openwatcom-1.9/bld/gui/win/c/mem.c)
0008:8a20      MemFree_
0008:8a2c      MemAlloc_
0008:8a56*     MemReAlloc_
Module: /mnt/sda5/.user/root/src/openwatcom-1.9/rel2/lib286/win/clibl.lib(scnf.c)
0006:4c46      __scnf_
Module: /mnt/sda5/.user/root/src/openwatcom-1.9/rel2/lib286/win/clibl.lib(setbits.c)
0006:4ee3      __setbits_
Module: /mnt/sda5/.user/root/src/openwatcom-1.9/rel2/lib286/win/clibl.lib(bits.c)
0009:01e0      __Bits
Module: /mnt/sda5/.user/root/src/openwatcom-1.9/rel2/lib286/win/clibl.lib(errno.c)
0006:4f37      __get_errno_ptr_
0006:4f3d      __get_doserrno_ptr_
0009:85e8+     _errno
0009:85ea+     __doserrno
Module: /mnt/sda5/.user/root/src/openwatcom-1.9/rel2/lib286/win/clibl.lib(accss.c)
0006:4f43      access_
Module: /mnt/sda5/.user/root/src/openwatcom-1.9/rel2/lib286/win/clibl.lib(gtcwd.c)
0006:4f80      getcwd_
Module: /mnt/sda5/.user/root/src/openwatcom-1.9/rel2/lib286/win/clibl.lib(strlen.c)
0006:5034      strlen_
Module: /mnt/sda5/.user/root/src/openwatcom-1.9/rel2/lib286/win/clibl.lib(strncat.c)
0006:504f      strncat_
Module: /mnt/sda5/.user/root/src/openwatcom-1.9/rel2/lib286/win/clibl.lib(strcat.c)
0006:5090      strcat_
Module: /mnt/sda5/.user/root/src/openwatcom-1.9/rel2/lib286/win/clibl.lib(seterrno.c)
0006:50c6      __set_errno_
0006:50e1*     __set_EDOM_
0006:50f8      __set_ERANGE_
0006:510e*     __set_EINVAL_
0006:5127      __set_doserrno_
Module: /mnt/sda5/.user/root/src/openwatcom-1.9/rel2/lib286/win/clibl.lib(mbsnccnt.c)
0006:5137      _mbsnccnt_
Module: /mnt/sda5/.user/root/src/openwatcom-1.9/rel2/lib286/win/clibl.lib(mbsncpy.c)
0006:5171      _mbsncpy_
Module: /mnt/sda5/.user/root/src/openwatcom-1.9/rel2/lib286/win/clibl.lib(mbsnbcnt.c)
0006:51aa      _mbsnbcnt_
Module: /mnt/sda5/.user/root/src/openwatcom-1.9/rel2/lib286/win/clibl.lib(mbsnextc.c)
0006:521c      _mbsnextc_
Module: /mnt/sda5/.user/root/src/openwatcom-1.9/rel2/lib286/win/clibl.lib(mbsinc.c)
0006:5248      _mbsinc_
Module: /mnt/sda5/.user/root/src/openwatcom-1.9/rel2/lib286/win/clibl.lib(initargv.c)
0006:527d      __Init_Argv_
0006:52d3+     _getargv_
0006:54fa      __Fini_Argv_
Module: /mnt/sda5/.user/root/src/openwatcom-1.9/rel2/lib286/win/clibl.lib(exit.c)
0006:5519+     __null_int23_exit_
0006:551a      exit_
0006:5553      _exit_
0009:4280+     ___int23_exit
0009:4284+     ___FPE_handler_exit
Module: /mnt/sda5/.user/root/src/openwatcom-1.9/rel2/lib286/win/clibl.lib(initrtns.c)
0006:55a3      __FInitRtns
0006:55ae+     __InitRtns
0006:560c      __FFiniRtns
0006:5617      __FiniRtns
Module: /mnt/sda5/.user/root/src/openwatcom-1.9/rel2/lib286/win/clibl.lib(dosseg)
0006:567c      __DOSseg__
Module: /mnt/sda5/.user/root/src/openwatcom-1.9/rel2/lib286/win/clibl.lib(alphabet.c)
0009:0132      ___Alphabet
Module: /mnt/sda5/.user/root/src/openwatcom-1.9/rel2/lib286/win/clibl.lib(mbislead.c)
0006:567d*     _ismbblead_
0009:85f0      ___MBCSIsTable
Module: /mnt/sda5/.user/root/src/openwatcom-1.9/rel2/lib286/win/clibl.lib(mbtowc.c)
0006:569b      mbtowc_
Module: /mnt/sda5/.user/root/src/openwatcom-1.9/rel2/lib286/win/clibl.lib(fdfs086)
0006:5784      __FDFS
Module: /mnt/sda5/.user/root/src/openwatcom-1.9/rel2/lib286/win/clibl.lib(noefgfmt.c)
0009:4288      ___EFG_printf
0009:428c      ___EFG_scanf
Module: /mnt/sda5/.user/root/src/openwatcom-1.9/rel2/lib286/win/clibl.lib(i8m086)
0006:57ff*     __I8M
0006:57ff      __U8M
0006:57e4*     __I8ME
0006:57e4*     __U8ME
Module: /mnt/sda5/.user/root/src/openwatcom-1.9/rel2/lib286/win/clibl.lib(gfattdos.c)
0006:5949      _dos_getfileattr_
Module: /mnt/sda5/.user/root/src/openwatcom-1.9/rel2/lib286/win/clibl.lib(dosret.c)
0006:5966*     _dosretax_
0006:5978*     _dosret0_
0006:598c      __set_errno_dos_
0006:59e6*     __set_errno_dos_reterr_
Module: /mnt/sda5/.user/root/src/openwatcom-1.9/rel2/lib286/win/clibl.lib(doserror)
0006:59f8      __doserror_
Module: /mnt/sda5/.user/root/src/openwatcom-1.9/rel2/lib286/win/clibl.lib(mbterm.c)
0006:5a06      _mbterm_
Module: /mnt/sda5/.user/root/src/openwatcom-1.9/rel2/lib286/win/clibl.lib(mbclen.c)
0006:5a42      _mbclen_
Module: /mnt/sda5/.user/root/src/openwatcom-1.9/rel2/lib286/win/clibl.lib(mbsnbcpy.c)
0006:5a69      _mbsnbcpy_
Module: /mnt/sda5/.user/root/src/openwatcom-1.9/rel2/lib286/win/clibl.lib(histsplt.c)
0009:86f2      ___historical_splitparms
Module: /mnt/sda5/.user/root/src/openwatcom-1.9/rel2/lib286/win/clibl.lib(___argc.c)
0009:86f4      ____Argv
0009:86f8      ____Argc
Module: /mnt/sda5/.user/root/src/openwatcom-1.9/rel2/lib286/win/clibl.lib(winrtns.c)
0009:42a4      __WindowsIsWindowedHandle
0009:42a8      __WindowsRemoveWindowedHandle
0009:42ac      __WindowsNewWindow
0009:42b0      __WindowsCloseWindow
0009:42b4*     __WindowsSetAbout
0009:42b8*     __WindowsSetAppTitle
0009:42bc*     __WindowsSetConTitle
0009:42c0*     __WindowsDestroyOnClose
0009:42c4*     __WindowsYieldControl
0009:42c8*     __WindowsShutDown
0009:42cc      __WindowsStdin
0009:42d0      __WindowsStdout
0009:42d4*     __WindowsKbhit
0009:42d8*     __WindowsGetch
0009:42dc*     __WindowsGetche
0009:42e0*     __WindowsPutch
0009:42e4      __WindowsExitRtn
Module: /mnt/sda5/.user/root/src/openwatcom-1.9/rel2/lib286/win/clibl.lib(sgdef086)
0009:4572      __Start_XI
0009:459c      __End_XI
0009:459c      __Start_YI
0009:45ba      __End_YI
Module: /mnt/sda5/.user/root/src/openwatcom-1.9/rel2/lib286/win/clibl.lib(mbinit.c)
0006:5b1c      __mbinit_
0009:42e8      ___MBCodePage
Module: /mnt/sda5/.user/root/src/openwatcom-1.9/rel2/lib286/win/clibl.lib(xmsgwin.c)
0006:5bba+     __exit_with_msg_
0006:5c1b      __fatal_runtime_error_
Module: /mnt/sda5/.user/root/src/openwatcom-1.9/rel2/lib286/win/clibl.lib(enterdb.c)
0006:5c38      __EnterWVIDEO_
0009:42ea+     ___WD_Present
Module: /mnt/sda5/.user/root/src/openwatcom-1.9/rel2/lib286/win/clibl.lib(getenv.c)
0006:5c5c      getenv_
Module: /mnt/sda5/.user/root/src/openwatcom-1.9/rel2/lib286/win/clibl.lib(setenv.c)
0006:5d23      setenv_
0006:6016      _setenv_
Module: /mnt/sda5/.user/root/src/openwatcom-1.9/rel2/lib286/win/clibl.lib(strstr.c)
0006:62ac      strstr_
Module: /mnt/sda5/.user/root/src/openwatcom-1.9/rel2/lib286/win/clibl.lib(fmalloc.c)
0006:636b      malloc_
0006:6376      _fmalloc_
0009:42ec      ___fheap
0009:42ee      ___fheapRover
0009:42f0      ___LargestSizeB4Rover
Module: /mnt/sda5/.user/root/src/openwatcom-1.9/rel2/lib286/win/clibl.lib(ffree.c)
0006:646e      free_
0006:6479      _ffree_
Module: /mnt/sda5/.user/root/src/openwatcom-1.9/rel2/lib286/win/clibl.lib(cmdname.c)
0006:64b7      _cmdname_
Module: /mnt/sda5/.user/root/src/openwatcom-1.9/rel2/lib286/win/clibl.lib(cmodel)
0006:64f6      _big_code_
0006:64f6*     CodeModelMismatch
Module: /mnt/sda5/.user/root/src/openwatcom-1.9/rel2/lib286/win/clibl.lib(_8087)
0009:42f2      __8087
0009:42f3      __real87
Module: /mnt/sda5/.user/root/src/openwatcom-1.9/rel2/lib286/win/clibl.lib(gtcmddos.c)
0006:64f6+     _bgetcmd_
0006:6582      getcmd_
Module: /mnt/sda5/.user/root/src/openwatcom-1.9/rel2/lib286/win/clibl.lib(memmove.c)
0006:659e      memmove_
Module: /mnt/sda5/.user/root/src/openwatcom-1.9/rel2/lib286/win/clibl.lib(istable.c)
0009:01e8      __IsTable
Module: /mnt/sda5/.user/root/src/openwatcom-1.9/rel2/lib286/win/clibl.lib(i4m)
0006:6618      __I4M
0006:6618      __U4M
Module: /mnt/sda5/.user/root/src/openwatcom-1.9/rel2/lib286/win/clibl.lib(i4d)
0006:6630      __I4D
0006:667f      __U4D
Module: /mnt/sda5/.user/root/src/openwatcom-1.9/rel2/lib286/win/clibl.lib(sprintf.c)
0006:6703      sprintf_
Module: /mnt/sda5/.user/root/src/openwatcom-1.9/rel2/lib286/win/clibl.lib(setjmp)
0006:6736      _setjmp_
0006:676c      longjmp_
Module: /mnt/sda5/.user/root/src/openwatcom-1.9/rel2/lib286/win/clibl.lib(stricmp.c)
0006:67af      stricmp_
Module: /mnt/sda5/.user/root/src/openwatcom-1.9/rel2/lib286/win/clibl.lib(tolower.c)
0006:67ed      tolower_
Module: /mnt/sda5/.user/root/src/openwatcom-1.9/rel2/lib286/win/clibl.lib(strtol.c)
0006:6a41      strtoul_
0006:6a55*     strtol_
Module: /mnt/sda5/.user/root/src/openwatcom-1.9/rel2/lib286/win/clibl.lib(fltused.c)
0009:4380      _fltused_
Module: /mnt/sda5/.user/root/src/openwatcom-1.9/rel2/lib286/win/clibl.lib(strlwr.c)
0006:6a5f      strlwr_
Module: /mnt/sda5/.user/root/src/openwatcom-1.9/rel2/lib286/win/clibl.lib(toupper.c)
0006:6a83      toupper_
Module: /mnt/sda5/.user/root/src/openwatcom-1.9/rel2/lib286/win/clibl.lib(memicmp.c)
0006:6a91      memicmp_
Module: /mnt/sda5/.user/root/src/openwatcom-1.9/rel2/lib286/win/clibl.lib(strnicmp.c)
0006:6ae1      strnicmp_
Module: /mnt/sda5/.user/root/src/openwatcom-1.9/rel2/lib286/win/clibl.lib(memcmp.c)
0006:6b35      memcmp_
Module: /mnt/sda5/.user/root/src/openwatcom-1.9/rel2/lib286/win/clibl.lib(frealloc.c)
0006:6b5f      realloc_
0006:6b6a+     _frealloc_
Module: /mnt/sda5/.user/root/src/openwatcom-1.9/rel2/lib286/win/clibl.lib(fheapwal.c)
0006:6c3f      _heapwalk_
0006:6c3f*     _fheapwalk_
Module: /mnt/sda5/.user/root/src/openwatcom-1.9/rel2/lib286/win/clibl.lib(qsort.c)
0006:6cce      qsort_
Module: /mnt/sda5/.user/root/src/openwatcom-1.9/rel2/lib286/win/clibl.lib(open.c)
0006:7485      open_
0006:74c0+     sopen_
Module: /mnt/sda5/.user/root/src/openwatcom-1.9/rel2/lib286/win/clibl.lib(close.c)
0006:74ee      close_
Module: /mnt/sda5/.user/root/src/openwatcom-1.9/rel2/lib286/win/clibl.lib(read.c)
0006:74fa      read_
Module: /mnt/sda5/.user/root/src/openwatcom-1.9/rel2/lib286/win/clibl.lib(lseek.c)
0006:767b      lseek_
Module: /mnt/sda5/.user/root/src/openwatcom-1.9/rel2/lib286/win/clibl.lib(strupr.c)
0006:76b2      strupr_
Module: /mnt/sda5/.user/root/src/openwatcom-1.9/rel2/lib286/win/clibl.lib(strncpy.c)
0006:76d6      strncpy_
Module: /mnt/sda5/.user/root/src/openwatcom-1.9/rel2/lib286/win/clibl.lib(init8087)
0006:7714      __init_8087_emu
0006:771a      __x87id
Module: /mnt/sda5/.user/root/src/openwatcom-1.9/rel2/lib286/win/clibl.lib(sigfpe.c)
0006:7759      __raise_fpe_
0006:7761+     __sigfpe_handler_
Module: /mnt/sda5/.user/root/src/openwatcom-1.9/rel2/lib286/win/clibl.lib(hugeval.c)
0009:02ea      __HugeValue
Module: /mnt/sda5/.user/root/src/openwatcom-1.9/rel2/lib286/win/clibl.lib(strrchr.c)
0006:77ed      strrchr_
Module: /mnt/sda5/.user/root/src/openwatcom-1.9/rel2/lib286/win/clibl.lib(atoi.c)
0006:7818      atoi_
Module: /mnt/sda5/.user/root/src/openwatcom-1.9/rel2/lib286/win/clibl.lib(split2.c)
0006:78f2      _splitpath2_
Module: /mnt/sda5/.user/root/src/openwatcom-1.9/rel2/lib286/win/clibl.lib(makepath.c)
0006:7acd      _makepath_
Module: /mnt/sda5/.user/root/src/openwatcom-1.9/rel2/lib286/win/clibl.lib(environ.c)
0009:86fa      ___env_mask
0009:86fe      _environ
0009:8702      __wenviron
Module: /mnt/sda5/.user/root/src/openwatcom-1.9/rel2/lib286/win/clibl.lib(mbcupper.c)
0006:7d38      _mbctoupper_
Module: /mnt/sda5/.user/root/src/openwatcom-1.9/rel2/lib286/win/clibl.lib(mbslen.c)
0006:7d5c      _mbslen_
Module: /mnt/sda5/.user/root/src/openwatcom-1.9/rel2/lib286/win/clibl.lib(mbstowcs.c)
0006:7d8e      mbstowcs_
Module: /mnt/sda5/.user/root/src/openwatcom-1.9/rel2/lib286/win/clibl.lib(usetenv.c)
0006:7e3b*     _wsetenv_
0006:809d      __wsetenv_
Module: /mnt/sda5/.user/root/src/openwatcom-1.9/rel2/lib286/win/clibl.lib(mem.c)
0006:82a0      __MemAllocator
0006:836e      __MemFree
Module: /mnt/sda5/.user/root/src/openwatcom-1.9/rel2/lib286/win/clibl.lib(growseg.c)
0006:84cd      __GrowSeg_
Module: /mnt/sda5/.user/root/src/openwatcom-1.9/rel2/lib286/win/clibl.lib(allocseg.c)
0006:8607      __AllocSeg_
Module: /mnt/sda5/.user/root/src/openwatcom-1.9/rel2/lib286/win/clibl.lib(nmalloc.c)
0006:86e1      _nmalloc_
0009:4382      ___nheapbeg
0009:4384      ___MiniHeapRover
0009:4386      ___LargestSizeB4MiniHeapRover
Module: /mnt/sda5/.user/root/src/openwatcom-1.9/rel2/lib286/win/clibl.lib(nfree.c)
0006:87a5      _nfree_
0009:8706      ___MiniHeapFreeRover
Module: /mnt/sda5/.user/root/src/openwatcom-1.9/rel2/lib286/win/clibl.lib(chk8087.c)
0006:8898*     _fpreset_
0006:88b2      __init_8087_
0006:88ed      __chk8087_
Module: /mnt/sda5/.user/root/src/openwatcom-1.9/rel2/lib286/win/clibl.lib(vsprintf.c)
0006:8950      vsprintf_
Module: /mnt/sda5/.user/root/src/openwatcom-1.9/rel2/lib286/win/clibl.lib(ljmphdl.c)
0009:4388      ___longjmp_handler
Module: /mnt/sda5/.user/root/src/openwatcom-1.9/rel2/lib286/win/clibl.lib(setefg.c)
0006:897f      __setEFGfmt_
Module: /mnt/sda5/.user/root/src/openwatcom-1.9/rel2/lib286/win/clibl.lib(fmsize.c)
0006:8998*     _msize_
0006:8998      _fmsize_
Module: /mnt/sda5/.user/root/src/openwatcom-1.9/rel2/lib286/win/clibl.lib(nexpand.c)
0006:89aa      __HeapManager_expand_
0006:8b47      _nexpand_
Module: /mnt/sda5/.user/root/src/openwatcom-1.9/rel2/lib286/win/clibl.lib(fexpand.c)
0006:8b73*     _expand_
0006:8b7e      _fexpand_
Module: /mnt/sda5/.user/root/src/openwatcom-1.9/rel2/lib286/win/clibl.lib(heapwalk.c)
0006:8c06      __HeapWalk_
Module: /mnt/sda5/.user/root/src/openwatcom-1.9/rel2/lib286/win/clibl.lib(opendos.c)
0006:8d5c      _dos_open_
Module: /mnt/sda5/.user/root/src/openwatcom-1.9/rel2/lib286/win/clibl.lib(iomode.c)
0006:8d84      __GetIOMode_
0006:8da0      __SetIOMode_nogrow_
0009:438c      ___NFiles
0009:438e      ___init_mode
0009:43b6      ___io_mode
Module: /mnt/sda5/.user/root/src/openwatcom-1.9/rel2/lib286/win/clibl.lib(isatt.c)
0006:8dba      isatty_
Module: /mnt/sda5/.user/root/src/openwatcom-1.9/rel2/lib286/win/clibl.lib(umaskval.c)
0009:43ba      ___umaskval
Module: /mnt/sda5/.user/root/src/openwatcom-1.9/rel2/lib286/win/clibl.lib(creatdos.c)
0006:8dfb      _dos_creat_
0006:8e21*     _dos_creatnew_
Module: /mnt/sda5/.user/root/src/openwatcom-1.9/rel2/lib286/win/clibl.lib(stiomode.c)
0006:8e44+     __grow_iomode_
0006:8eff+     __shrink_iomode_
0006:8f32      __SetIOMode_
Module: /mnt/sda5/.user/root/src/openwatcom-1.9/rel2/lib286/win/clibl.lib(iob.c)
0009:43bc      ___iob
0009:4524      __fmode
0009:870a      ___OpenStreams
0009:870e      ___ClosedStreams
Module: /mnt/sda5/.user/root/src/openwatcom-1.9/rel2/lib286/win/clibl.lib(_clse.c)
0006:8f8b      __close_
Module: /mnt/sda5/.user/root/src/openwatcom-1.9/rel2/lib286/win/clibl.lib(iomodtty.c)
0006:8ff1      __ChkTTYIOMode_
0006:9031*     __IOMode_
Module: /mnt/sda5/.user/root/src/openwatcom-1.9/rel2/lib286/win/clibl.lib(__lseek.c)
0006:9047      __lseek_
Module: /mnt/sda5/.user/root/src/openwatcom-1.9/rel2/lib286/win/clibl.lib(8087cw.c)
0009:4526      __8087cw
Module: /mnt/sda5/.user/root/src/openwatcom-1.9/rel2/lib286/win/clibl.lib(sigtab.c)
0009:4528      __SignalTable
Module: /mnt/sda5/.user/root/src/openwatcom-1.9/rel2/lib286/win/clibl.lib(mbconv.c)
0006:9084      _mbvtop_
Module: /mnt/sda5/.user/root/src/openwatcom-1.9/rel2/lib286/win/clibl.lib(mbsdec.c)
0006:909c      _mbsdec_
Module: /mnt/sda5/.user/root/src/openwatcom-1.9/rel2/lib286/win/clibl.lib(setenvp.c)
0006:9122      __setenvp_
0006:9222      __freeenvp_
Module: /mnt/sda5/.user/root/src/openwatcom-1.9/rel2/lib286/win/clibl.lib(mbdtoupp.c)
0006:926c      _mbdtoupper_
Module: /mnt/sda5/.user/root/src/openwatcom-1.9/rel2/lib286/win/clibl.lib(crtwenv.c)
0006:927a      __create_wide_environment_
Module: /mnt/sda5/.user/root/src/openwatcom-1.9/rel2/lib286/win/clibl.lib(ugetenv.c)
0006:9305      _wgetenv_
Module: /mnt/sda5/.user/root/src/openwatcom-1.9/rel2/lib286/win/clibl.lib(ustrlen.c)
0006:93b7      wcslen_
Module: /mnt/sda5/.user/root/src/openwatcom-1.9/rel2/lib286/win/clibl.lib(wcstombs.c)
0006:93ce      wcstombs_
Module: /mnt/sda5/.user/root/src/openwatcom-1.9/rel2/lib286/win/clibl.lib(utoupper.c)
0006:947c      towupper_
Module: /mnt/sda5/.user/root/src/openwatcom-1.9/rel2/lib286/win/clibl.lib(memcpy.c)
0006:948a      memcpy_
Module: /mnt/sda5/.user/root/src/openwatcom-1.9/rel2/lib286/win/clibl.lib(ustrcpy.c)
0006:94b1      wcscpy_
Module: /mnt/sda5/.user/root/src/openwatcom-1.9/rel2/lib286/win/clibl.lib(heapen.c)
0006:94d9*     _heapenable_
0009:455c      ___heap_enabled
Module: /mnt/sda5/.user/root/src/openwatcom-1.9/rel2/lib286/win/clibl.lib(amblksiz.c)
0009:455e      __amblksiz
Module: /mnt/sda5/.user/root/src/openwatcom-1.9/rel2/lib286/win/clibl.lib(wallflgs.c)
0009:4560      ___win_alloc_flags
0009:4564      ___win_realloc_flags
Module: /mnt/sda5/.user/root/src/openwatcom-1.9/rel2/lib286/win/clibl.lib(nmemneed.c)
0006:94e5      __nmemneed_
Module: /mnt/sda5/.user/root/src/openwatcom-1.9/rel2/lib286/win/clibl.lib(grownear.c)
0006:9605      __ExpandDGROUP_
Module: /mnt/sda5/.user/root/src/openwatcom-1.9/rel2/lib286/win/clibl.lib(save8087.c)
0009:4568      ___Save8087
0009:456c      ___Rest8087
Module: /mnt/sda5/.user/root/src/openwatcom-1.9/rel2/lib286/win/clibl.lib(prtf.c)
0006:961b      __prtf_
Module: /mnt/sda5/.user/root/src/openwatcom-1.9/rel2/lib286/win/math87l.lib(efgfmt.c)
0006:a4f8      _EFG_Format_
Module: /mnt/sda5/.user/root/src/openwatcom-1.9/rel2/lib286/win/math87l.lib(cnvs2d.c)
0006:a6b1      __cnvs2d_
Module: /mnt/sda5/.user/root/src/openwatcom-1.9/rel2/lib286/win/clibl.lib(bfree.c)
0006:a6d1      _bfree_
Module: /mnt/sda5/.user/root/src/openwatcom-1.9/rel2/lib286/win/clibl.lib(bexpand.c)
0006:a6fb      _bexpand_
Module: /mnt/sda5/.user/root/src/openwatcom-1.9/rel2/lib286/win/clibl.lib(initfile.c)
0006:a757      __InitFiles_
Module: /mnt/sda5/.user/root/src/openwatcom-1.9/rel2/lib286/win/clibl.lib(ioexit.c)
0006:a89f*     fcloseall_
0006:a8ac      __full_io_exit_
Module: /mnt/sda5/.user/root/src/openwatcom-1.9/rel2/lib286/win/clibl.lib(clearenv.c)
0006:a8bd      clearenv_
Module: /mnt/sda5/.user/root/src/openwatcom-1.9/rel2/lib286/win/clibl.lib(uputenv.c)
0006:a98f*     _wputenv_
0006:aafc      __wputenv_
Module: /mnt/sda5/.user/root/src/openwatcom-1.9/rel2/lib286/win/clibl.lib(ustrnicm.c)
0006:ac37      _wcsnicmp_
Module: /mnt/sda5/.user/root/src/openwatcom-1.9/rel2/lib286/win/clibl.lib(wctomb.c)
0006:ac90      wctomb_
Module: /mnt/sda5/.user/root/src/openwatcom-1.9/rel2/lib286/win/clibl.lib(nheapmin.c)
0006:acbc*     _nheapmin_
0006:ad44      _nheapshrink_
Module: /mnt/sda5/.user/root/src/openwatcom-1.9/rel2/lib286/win/clibl.lib(lltoa.c)
0006:ad75      ulltoa_
0006:ae5e*     lltoa_
Module: /mnt/sda5/.user/root/src/openwatcom-1.9/rel2/lib286/win/clibl.lib(ltoa.c)
0006:aec2      ultoa_
0006:af35*     ltoa_
Module: /mnt/sda5/.user/root/src/openwatcom-1.9/rel2/lib286/win/clibl.lib(rtcntrl.c)
0006:af66*     _SetLD64bit_
0006:af6c*     _SetLD80bit_
0006:af72      _LDisDouble_
Module: /mnt/sda5/.user/root/src/openwatcom-1.9/rel2/lib286/win/clibl.lib(fclose.c)
0006:af80+     __doclose_
0006:b03c      __shutdown_stream_
0006:b059*     fclose_
0009:8716+     ___RmTmpFileFn
Module: /mnt/sda5/.user/root/src/openwatcom-1.9/rel2/lib286/win/clibl.lib(freefp.c)
0006:b0a9      __freefp_
0006:b125      __purgefp_
Module: /mnt/sda5/.user/root/src/openwatcom-1.9/rel2/lib286/win/clibl.lib(putenv.c)
0006:b15e*     putenv_
0006:b322      __putenv_
Module: /mnt/sda5/.user/root/src/openwatcom-1.9/rel2/lib286/win/clibl.lib(flush.c)
0006:b4ff      __flush_
Module: /mnt/sda5/.user/root/src/openwatcom-1.9/rel2/lib286/win/clibl.lib(fsync.c)
0006:b652      fsync_
Module: /mnt/sda5/.user/root/src/openwatcom-1.9/rel2/lib286/win/clibl.lib(qwrit.c)
0006:b65e      __qwrite_
Module: /mnt/sda5/.user/root/src/openwatcom-1.9/rel2/lib286/win/clibl.lib(filedos.c)
0006:b6f3*     _dos_close_
0006:b707      _dos_commit_


                        +---------------------+
                        |   Module Segments   |
                        +---------------------+

! = 32-bit segment
c = initialized communal data

Module          Segment               Class           Address         Size
======          =======               =====           =======         ====

/mnt/sda5/.user/root/src/openwatcom-1.9/bld/watcom/c/autoenv.c
                autoenv_TEXT          CODE           0001:0000        000002ee
                CONST                 DATA           0009:0010        00000000
                CONST2                DATA           0009:01b8        00000000
                _DATA                 DATA           0009:0300        00000000
/mnt/sda5/.user/root/src/openwatcom-1.9/bld/wv/win/c/wininit.c
                wininit_TEXT          CODE           0001:02f0        00000143
                CONST                 DATA           0009:0010        00000000
                CONST2                DATA           0009:01b8        00000000
                _DATA                 DATA           0009:0300        00000004
                _BSS                  BSS            0009:45c0        00000004
/mnt/sda5/.user/root/src/openwatcom-1.9/bld/wv/win/c/winchk.c
                winchk_TEXT           CODE           0001:0440        00000003
                CONST                 DATA           0009:0010        00000000
                CONST2                DATA           0009:01b8        00000000
                _DATA                 DATA           0009:0304        00000000
/mnt/sda5/.user/root/src/openwatcom-1.9/bld/wv/win/c/wincmd.c
                wincmd_TEXT           CODE           0001:0450        000000e5
                CONST                 DATA           0009:0010        00000000
                CONST2                DATA           0009:01b8        00000000
                _DATA                 DATA           0009:0304        00000054
/mnt/sda5/.user/root/src/openwatcom-1.9/bld/wv/win/c/winfilio.c
                winfilio_TEXT         CODE           0001:0540        0000019b
                CONST                 DATA           0009:0010        00000000
                CONST2                DATA           0009:01b8        00000000
                _DATA                 DATA           0009:0358        00000007
/mnt/sda5/.user/root/src/openwatcom-1.9/bld/wv/win/c/winlkup.c
                winlkup_TEXT          CODE           0001:06e0        000000b1
                CONST                 DATA           0009:0010        00000000
                CONST2                DATA           0009:01b8        00000000
                _DATA                 DATA           0009:0360        00000000
/mnt/sda5/.user/root/src/openwatcom-1.9/bld/wv/win/c/wguiscrn.c
                wguiscrn_TEXT         CODE           0001:07a0        0000019e
                CONST                 DATA           0009:0010        00000000
                CONST2                DATA           0009:01b8        00000000
                _DATA                 DATA           0009:0360        00000003
                _BSS                  BSS            0009:45c4        0000000d
/mnt/sda5/.user/root/src/openwatcom-1.9/bld/wv/c/fingmsg.c
                fingmsg_TEXT          CODE           0001:0940        00000153
                CONST                 DATA           0009:0010        00000000
                CONST2                DATA           0009:01b8        00000000
                _DATA                 DATA           0009:0370        00000014
/mnt/sda5/.user/root/src/openwatcom-1.9/bld/dig/c/dipman.c
                dipman_TEXT           CODE           0001:0aa0        000030f4
                CONST                 DATA           0009:0010        00000000
                CONST2                DATA           0009:01b8        00000000
                _DATA                 DATA           0009:0384        00000074
                _BSS                  BSS            0009:45e0        00000114
/mnt/sda5/.user/root/src/openwatcom-1.9/bld/dig/c/win/dipld.c
                dipld_TEXT            CODE           0001:3ba0        000001bf
                CONST                 DATA           0009:0010        00000000
                CONST2                DATA           0009:01b8        00000000
                _DATA                 DATA           0009:03f8        00000000
                _BSS                  BSS            0009:46f4        00000002
/mnt/sda5/.user/root/src/openwatcom-1.9/bld/dig/c/madman.c
                madman_TEXT           CODE           0001:3d60        00002ff0
                CONST                 DATA           0009:0010        00000000
                CONST2                DATA           0009:01b8        00000000
                _DATA                 DATA           0009:0400        00000190
                _BSS                  BSS            0009:4700        00000008
/mnt/sda5/.user/root/src/openwatcom-1.9/bld/dig/c/win/madld.c
                madld_TEXT            CODE           0001:6d50        000001bf
                CONST                 DATA           0009:0010        00000000
                CONST2                DATA           0009:01b8        00000000
                _DATA                 DATA           0009:0590        00000000
                _BSS                  BSS            0009:4708        00000002
/mnt/sda5/.user/root/src/openwatcom-1.9/bld/watcom/c/i64.c
                i64_TEXT              CODE           0001:6f10        00000a83
                CONST                 DATA           0009:0010        00000000
                CONST2                DATA           0009:01b8        00000000
                _DATA                 DATA           0009:0590        00000000
/mnt/sda5/.user/root/src/openwatcom-1.9/bld/dig/c/trpsupp.c
                trpsupp_TEXT          CODE           0001:79a0        00000429
                CONST                 DATA           0009:0010        00000000
                CONST2                DATA           0009:01b8        00000000
                _DATA                 DATA           0009:0590        00000008
                _BSS                  BSS            0009:4710        00000008
/mnt/sda5/.user/root/src/openwatcom-1.9/bld/dig/c/win/trpld.c
                trpld_TEXT            CODE           0001:7dd0        000003b4
                CONST                 DATA           0009:0010        00000000
                CONST2                DATA           0009:01b8        00000000
                _DATA                 DATA           0009:0598        00000000
                _BSS                  BSS            0009:4720        00000026
/mnt/sda5/.user/root/src/openwatcom-1.9/bld/dig/c/dumb.c
                dumb_TEXT             CODE           0001:8190        0000028f
                CONST                 DATA           0009:0010        00000000
                CONST2                DATA           0009:01b8        00000000
                _DATA                 DATA           0009:0598        00000000
                _BSS                  BSS            0009:4750        00000004
/mnt/sda5/.user/root/src/openwatcom-1.9/bld/wv/c/spawn.c
                spawn_TEXT            CODE           0001:8420        00000146
                CONST                 DATA           0009:0010        00000000
                CONST2                DATA           0009:01b8        00000000
                _DATA                 DATA           0009:0598        00000000
                _BSS                  BSS            0009:4760        00000004
/mnt/sda5/.user/root/src/openwatcom-1.9/bld/wv/c/dbgchain.c
                dbgchain_TEXT         CODE           0001:8570        000008d2
                CONST                 DATA           0009:0010        00000000
                CONST2                DATA           0009:01b8        00000000
                _DATA                 DATA           0009:0598        00000000
/mnt/sda5/.user/root/src/openwatcom-1.9/bld/wv/c/dbgvar.c
                dbgvar_TEXT           CODE           0001:8e50        00004cb9
                CONST                 DATA           0009:0010        00000000
                CONST2                DATA           0009:01b8        00000000
                _DATA                 DATA           0009:05a0        00000004
                _BSS                  BSS            0009:4770        00000018
/mnt/sda5/.user/root/src/openwatcom-1.9/bld/wv/c/dbgvset.c
                dbgvset_TEXT          CODE           0001:db10        00000967
                CONST                 DATA           0009:0010        00000000
                CONST2                DATA           0009:01b8        00000000
                _DATA                 DATA           0009:05a4        000000c3
/mnt/sda5/.user/root/src/openwatcom-1.9/bld/wv/c/dbgass.c
                dbgass_TEXT           CODE           0001:e480        000000e8
                CONST                 DATA           0009:0010        00000000
                CONST2                DATA           0009:01b8        00000000
                _DATA                 DATA           0009:0668        00000000
/mnt/sda5/.user/root/src/openwatcom-1.9/bld/wv/c/dbgimg.c
                dbgimg_TEXT           CODE           0001:e570        000000fa
                CONST                 DATA           0009:0010        00000000
                CONST2                DATA           0009:01b8        00000000
                _DATA                 DATA           0009:0668        00000000
/mnt/sda5/.user/root/src/openwatcom-1.9/bld/wv/c/dbglist.c
                dbglist_TEXT          CODE           0001:e670        00000023
                CONST                 DATA           0009:0010        00000000
                CONST2                DATA           0009:01b8        00000000
                _DATA                 DATA           0009:0668        00000000
/mnt/sda5/.user/root/src/openwatcom-1.9/bld/wv/c/dbgpend.c
                dbgpend_TEXT          CODE           0001:e6a0        00000153
                CONST                 DATA           0009:0010        00000000
                CONST2                DATA           0009:01b8        00000000
                _DATA                 DATA           0009:0668        00000000
/mnt/sda5/.user/root/src/openwatcom-1.9/bld/wv/c/ambigsym.c
                ambigsym_TEXT         CODE           0001:e800        00000321
                CONST                 DATA           0009:0010        00000000
                CONST2                DATA           0009:01b8        00000000
                _DATA                 DATA           0009:0668        00000000
/mnt/sda5/.user/root/src/openwatcom-1.9/bld/wv/c/addarith.c
                addarith_TEXT         CODE           0001:eb30        00000315
                CONST                 DATA           0009:0010        00000000
                CONST2                DATA           0009:01b8        00000000
                _DATA                 DATA           0009:0670        00000004
/mnt/sda5/.user/root/src/openwatcom-1.9/bld/wv/c/dbgbrk.c
                dbgbrk_TEXT           CODE           0002:0000        0000331f
                CONST                 DATA           0009:0010        00000000
                CONST2                DATA           0009:01b8        00000000
                _DATA                 DATA           0009:0674        000000aa
/mnt/sda5/.user/root/src/openwatcom-1.9/bld/wv/c/dbgcall.c
                dbgcall_TEXT          CODE           0002:3320        00000672
                CONST                 DATA           0009:0010        00000000
                CONST2                DATA           0009:01b8        00000000
                _DATA                 DATA           0009:071e        00000000
                _BSS                  BSS            0009:4790        0000002e
/mnt/sda5/.user/root/src/openwatcom-1.9/bld/wv/c/dbgcall2.c
                dbgcall2_TEXT         CODE           0002:39a0        000002f7
                CONST                 DATA           0009:0010        00000000
                CONST2                DATA           0009:01b8        00000000
                _DATA                 DATA           0009:0720        00000004
                _BSS                  BSS            0009:47c0        000000ee
/mnt/sda5/.user/root/src/openwatcom-1.9/bld/wv/c/dbgcmd.c
                dbgcmd_TEXT           CODE           0002:3ca0        0000008c
                CONST                 DATA           0009:0010        00000000
                CONST2                DATA           0009:01b8        00000000
                _DATA                 DATA           0009:0724        00000000
/mnt/sda5/.user/root/src/openwatcom-1.9/bld/wv/c/dbgcmdln.c
                dbgcmdln_TEXT         CODE           0002:3d30        0000089d
                CONST                 DATA           0009:0010        00000000
                CONST2                DATA           0009:01b8        00000000
                _DATA                 DATA           0009:0724        000000d1
                _BSS                  BSS            0009:48b0        0000000c
/mnt/sda5/.user/root/src/openwatcom-1.9/bld/wv/c/dbgdot.c
                dbgdot_TEXT           CODE           0002:45d0        0000013f
                CONST                 DATA           0009:0010        00000000
                CONST2                DATA           0009:01b8        00000000
                _DATA                 DATA           0009:07f6        00000000
                _BSS                  BSS            0009:48bc        00000010
/mnt/sda5/.user/root/src/openwatcom-1.9/bld/wv/c/dbgexec.c
                dbgexec_TEXT          CODE           0002:4710        00000d2b
                CONST                 DATA           0009:0010        00000000
                CONST2                DATA           0009:01b8        00000000
                _DATA                 DATA           0009:07f6        00000004
                _BSS                  BSS            0009:48d0        00000004
/mnt/sda5/.user/root/src/openwatcom-1.9/bld/wv/c/dbgexpr.c
                dbgexpr_TEXT          CODE           0002:5440        00001448
                CONST                 DATA           0009:0010        00000000
                CONST2                DATA           0009:01b8        00000000
                _DATA                 DATA           0009:0800        000000e8
/mnt/sda5/.user/root/src/openwatcom-1.9/bld/wv/c/dbgexpr2.c
                dbgexpr2_TEXT         CODE           0002:6890        00000cf7
                CONST                 DATA           0009:0010        00000000
                CONST2                DATA           0009:01b8        00000000
                _DATA                 DATA           0009:08e8        00000000
/mnt/sda5/.user/root/src/openwatcom-1.9/bld/wv/c/dbgexpr3.c
                dbgexpr3_TEXT         CODE           0002:7590        00001436
                CONST                 DATA           0009:0010        00000000
                CONST2                DATA           0009:01b8        00000000
                _DATA                 DATA           0009:08e8        00000231
/mnt/sda5/.user/root/src/openwatcom-1.9/bld/wv/c/dbgexpr4.c
                dbgexpr4_TEXT         CODE           0002:89d0        00002855
                CONST                 DATA           0009:0010        00000000
                CONST2                DATA           0009:01b8        00000000
                _DATA                 DATA           0009:0b1a        00000000
                _BSS                  BSS            0009:48d4        00000400
/mnt/sda5/.user/root/src/openwatcom-1.9/bld/wv/c/dbgfile.c
                dbgfile_TEXT          CODE           0002:b230        00000d98
                CONST                 DATA           0009:0010        00000000
                CONST2                DATA           0009:01b8        00000000
                _DATA                 DATA           0009:0b1a        00000000
                _BSS                  BSS            0009:4ce0        000001c0
/mnt/sda5/.user/root/src/openwatcom-1.9/bld/wv/c/dbghook.c
                dbghook_TEXT          CODE           0002:bfd0        000002a0
                CONST                 DATA           0009:0010        00000000
                CONST2                DATA           0009:01b8        00000000
                _DATA                 DATA           0009:0b1a        0000005f
                _BSS                  BSS            0009:4ea0        0000002d
/mnt/sda5/.user/root/src/openwatcom-1.9/bld/wv/c/dbginvk.c
                dbginvk_TEXT          CODE           0002:c270        000007f0
                CONST                 DATA           0009:0010        00000000
                CONST2                DATA           0009:01b8        00000000
                _DATA                 DATA           0009:0b7a        00000000
                _BSS                  BSS            0009:4ece        00000005
/mnt/sda5/.user/root/src/openwatcom-1.9/bld/wv/c/dbglkup.c
                dbglkup_TEXT          CODE           0002:ca60        00000c6f
                CONST                 DATA           0009:0010        00000000
                CONST2                DATA           0009:01b8        00000000
                _DATA                 DATA           0009:0b80        0000001c
                _BSS                  BSS            0009:4ee0        00000008
/mnt/sda5/.user/root/src/openwatcom-1.9/bld/wv/c/dbgloc.c
                dbgloc_TEXT           CODE           0002:d6d0        00000a0b
                CONST                 DATA           0009:0010        00000000
                CONST2                DATA           0009:01b8        00000000
                _DATA                 DATA           0009:0b9c        00000000
/mnt/sda5/.user/root/src/openwatcom-1.9/bld/wv/c/dbglog.c
                dbglog_TEXT           CODE           0002:e0e0        00000219
                CONST                 DATA           0009:0010        00000000
                CONST2                DATA           0009:01b8        00000000
                _DATA                 DATA           0009:0b9c        0000000e
                _BSS                  BSS            0009:4ee8        00000002
/mnt/sda5/.user/root/src/openwatcom-1.9/bld/wv/c/dbgmain.c
                dbgmain_TEXT          CODE           0002:e300        00000824
                CONST                 DATA           0009:0010        00000000
                CONST2                DATA           0009:01b8        00000000
                _DATA                 DATA           0009:0bb0        000000e8
                _BSS                  BSS            0009:4eea        0000000d
/mnt/sda5/.user/root/src/openwatcom-1.9/bld/wv/c/dbgmem.c
                dbgmem_TEXT           CODE           0002:eb30        0000045b
                CONST                 DATA           0009:0010        00000000
                CONST2                DATA           0009:01b8        00000000
                _DATA                 DATA           0009:0c98        00000032
/mnt/sda5/.user/root/src/openwatcom-1.9/bld/wv/c/memtypes.c
                memtypes_TEXT         CODE           0002:ef90        00000358
                CONST                 DATA           0009:0010        00000000
                CONST2                DATA           0009:01b8        00000000
                _DATA                 DATA           0009:0cca        00000000
/mnt/sda5/.user/root/src/openwatcom-1.9/bld/wv/c/dbgmisc.c
                dbgmisc_TEXT          CODE           0003:0000        00000f5f
                CONST                 DATA           0009:0010        00000000
                CONST2                DATA           0009:01b8        00000000
                _DATA                 DATA           0009:0cca        0000003a
/mnt/sda5/.user/root/src/openwatcom-1.9/bld/wv/c/dbgovl.c
                dbgovl_TEXT           CODE           0003:0f60        00000435
                CONST                 DATA           0009:0010        00000000
                CONST2                DATA           0009:01b8        00000000
                _DATA                 DATA           0009:0d04        00000000
                _BSS                  BSS            0009:4f00        0000000b
/mnt/sda5/.user/root/src/openwatcom-1.9/bld/wv/c/dbgparse.c
                dbgparse_TEXT         CODE           0003:13a0        0000049e
                CONST                 DATA           0009:0010        00000000
                CONST2                DATA           0009:01b8        00000000
                _DATA                 DATA           0009:0d04        00000000
                _BSS                  BSS            0009:4f10        0000000e
/mnt/sda5/.user/root/src/openwatcom-1.9/bld/wv/c/dbgprint.c
                dbgprint_TEXT         CODE           0003:1840        000014c2
                CONST                 DATA           0009:0010        00000000
                CONST2                DATA           0009:01b8        00000000
                _DATA                 DATA           0009:0d04        00000010
                _BSS                  BSS            0009:4f20        0000040c
/mnt/sda5/.user/root/src/openwatcom-1.9/bld/wv/c/dbgreg.c
                dbgreg_TEXT           CODE           0003:2d10        000019ba
                CONST                 DATA           0009:0010        00000000
                CONST2                DATA           0009:01b8        00000000
                _DATA                 DATA           0009:0d14        00000004
                _BSS                  BSS            0009:5330        0000000b
/mnt/sda5/.user/root/src/openwatcom-1.9/bld/wv/c/dbgscan.c
                dbgscan_TEXT          CODE           0003:46d0        000012fb
                CONST                 DATA           0009:0010        00000000
                CONST2                DATA           0009:01b8        00000000
                _DATA                 DATA           0009:0d20        00000029
                _BSS                  BSS            0009:5340        0000001a
/mnt/sda5/.user/root/src/openwatcom-1.9/bld/wv/c/dbgshow.c
                dbgshow_TEXT          CODE           0003:59d0        00000458
                CONST                 DATA           0009:0010        00000000
                CONST2                DATA           0009:01b8        00000000
                _DATA                 DATA           0009:0d4a        0000006a
/mnt/sda5/.user/root/src/openwatcom-1.9/bld/wv/c/dbgsrc.c
                dbgsrc_TEXT           CODE           0003:5e30        0000055c
                CONST                 DATA           0009:0010        00000000
                CONST2                DATA           0009:01b8        00000000
                _DATA                 DATA           0009:0db4        00000005
/mnt/sda5/.user/root/src/openwatcom-1.9/bld/wv/c/dbgstdio.c
                dbgstdio_TEXT         CODE           0003:6390        000000d2
                CONST                 DATA           0009:0010        00000000
                CONST2                DATA           0009:01b8        00000000
                _DATA                 DATA           0009:0dba        00000000
/mnt/sda5/.user/root/src/openwatcom-1.9/bld/wv/c/dbgsys.c
                dbgsys_TEXT           CODE           0003:6470        00000110
                CONST                 DATA           0009:0010        00000000
                CONST2                DATA           0009:01b8        00000000
                _DATA                 DATA           0009:0dba        0000000e
/mnt/sda5/.user/root/src/openwatcom-1.9/bld/wv/c/dbgutil.c
                dbgutil_TEXT          CODE           0003:6580        00000d17
                CONST                 DATA           0009:0010        00000000
                CONST2                DATA           0009:01b8        00000000
                _DATA                 DATA           0009:0dc8        00000000
/mnt/sda5/.user/root/src/openwatcom-1.9/bld/wv/c/dbg_dbg.c
                dbg_dbg_TEXT          CODE           0003:72a0        00000b82
                CONST                 DATA           0009:0010        00000000
                CONST2                DATA           0009:01b8        00000000
                _DATA                 DATA           0009:0dc8        00000000
                _BSS                  BSS            0009:5360        00000004
/mnt/sda5/.user/root/src/openwatcom-1.9/bld/wv/c/dbgprog.c
                dbgprog_TEXT          CODE           0003:7e30        00002de3
                CONST                 DATA           0009:0010        00000000
                CONST2                DATA           0009:01b8        00000000
                _DATA                 DATA           0009:0dc8        0000002f
                _BSS                  BSS            0009:5370        00000810
/mnt/sda5/.user/root/src/openwatcom-1.9/bld/wv/c/strutil.c
                strutil_TEXT          CODE           0003:ac20        000004b5
                CONST                 DATA           0009:0010        00000000
                CONST2                DATA           0009:01b8        00000000
                _DATA                 DATA           0009:0df8        00000000
/mnt/sda5/.user/root/src/openwatcom-1.9/bld/wv/c/stub.c
                stub_TEXT             CODE           0003:b0e0        0000000f
                CONST                 DATA           0009:0010        00000000
                CONST2                DATA           0009:01b8        00000000
                _DATA                 DATA           0009:0df8        00000000
/mnt/sda5/.user/root/src/openwatcom-1.9/bld/wv/c/dbgwalk.c
                dbgwalk_TEXT          CODE           0003:b0f0        000002dd
                CONST                 DATA           0009:0010        00000000
                CONST2                DATA           0009:01b8        00000000
                _DATA                 DATA           0009:0df8        00000000
                _BSS                  BSS            0009:5b80        00000004
/mnt/sda5/.user/root/src/openwatcom-1.9/bld/wv/c/dynmem.c
                dynmem_TEXT           CODE           0003:b3d0        000002cb
                CONST                 DATA           0009:0010        00000000
                CONST2                DATA           0009:01b8        00000000
                _DATA                 DATA           0009:0df8        00000000
/mnt/sda5/.user/root/src/openwatcom-1.9/bld/wv/c/dbgsem.c
                dbgsem_TEXT           CODE           0003:b6a0        00001e73
                CONST                 DATA           0009:0010        00000000
                CONST2                DATA           0009:01b8        00000000
                _DATA                 DATA           0009:0df8        00000001
                _BSS                  BSS            0009:5b90        00000074
/mnt/sda5/.user/root/src/openwatcom-1.9/bld/wv/c/dbgtrace.c
                dbgtrace_TEXT         CODE           0003:d520        00000f4f
                CONST                 DATA           0009:0010        00000000
                CONST2                DATA           0009:01b8        00000000
                _DATA                 DATA           0009:0dfa        00000028
                _BSS                  BSS            0009:5c10        00000050
/mnt/sda5/.user/root/src/openwatcom-1.9/bld/wv/c/dbgexins.c
                dbgexins_TEXT         CODE           0003:e470        0000007f
                CONST                 DATA           0009:0010        00000000
                CONST2                DATA           0009:01b8        00000000
                _DATA                 DATA           0009:0e22        00000000
/mnt/sda5/.user/root/src/openwatcom-1.9/bld/wv/c/dbgexdat.c
                dbgexdat_TEXT         CODE           0003:e4f0        00000198
                CONST                 DATA           0009:0010        00000000
                CONST2                DATA           0009:01b8        00000000
                _DATA                 DATA           0009:0e22        00000011
/mnt/sda5/.user/root/src/openwatcom-1.9/bld/wv/c/dbgmodfy.c
                dbgmodfy_TEXT         CODE           0003:e690        000001ba
                CONST                 DATA           0009:0010        00000000
                CONST2                DATA           0009:01b8        00000000
                _DATA                 DATA           0009:0e34        00000000
/mnt/sda5/.user/root/src/openwatcom-1.9/bld/wv/c/dbgtback.c
                dbgtback_TEXT         CODE           0003:e850        000002ce
                CONST                 DATA           0009:0010        00000000
                CONST2                DATA           0009:01b8        00000000
                _DATA                 DATA           0009:0e34        00000000
                _BSS                  BSS            0009:5c60        00000002
/mnt/sda5/.user/root/src/openwatcom-1.9/bld/wv/c/dbgerr.c
                dbgerr_TEXT           CODE           0003:eb20        000002d6
                CONST                 DATA           0009:0010        00000000
                CONST2                DATA           0009:01b8        00000000
                _DATA                 DATA           0009:0e34        00000000
/mnt/sda5/.user/root/src/openwatcom-1.9/bld/wv/c/namelist.c
                namelist_TEXT         CODE           0003:ee00        0000078f
                CONST                 DATA           0009:0010        00000000
                CONST2                DATA           0009:01b8        00000000
                _DATA                 DATA           0009:0e34        00000000
/mnt/sda5/.user/root/src/openwatcom-1.9/bld/wv/c/modlist.c
                modlist_TEXT          CODE           0003:f590        0000054d
                CONST                 DATA           0009:0010        00000000
                CONST2                DATA           0009:01b8        00000000
                _DATA                 DATA           0009:0e34        00000000
/mnt/sda5/.user/root/src/openwatcom-1.9/bld/watcom/c/sortlist.c
                sortlist_TEXT         CODE           0003:fae0        0000037c
                CONST                 DATA           0009:0010        00000000
                CONST2                DATA           0009:01b8        00000000
                _DATA                 DATA           0009:0e34        00000000
/mnt/sda5/.user/root/src/openwatcom-1.9/bld/wv/c/remmisc.c
                remmisc_TEXT          CODE           0004:0000        000002de
                CONST                 DATA           0009:0010        00000000
                CONST2                DATA           0009:01b8        00000000
                _DATA                 DATA           0009:0e34        00000000
                _BSS                  BSS            0009:5c62        00000003
/mnt/sda5/.user/root/src/openwatcom-1.9/bld/wv/c/remcore.c
                remcore_TEXT          CODE           0004:02e0        00000fb1
                CONST                 DATA           0009:0010        00000000
                CONST2                DATA           0009:01b8        00000000
                _DATA                 DATA           0009:0e40        00000004
                _BSS                  BSS            0009:5c66        0000000e
/mnt/sda5/.user/root/src/openwatcom-1.9/bld/wv/c/remfinfo.c
                remfinfo_TEXT         CODE           0004:12a0        0000017b
                CONST                 DATA           0009:0010        00000000
                CONST2                DATA           0009:01b8        00000000
                _DATA                 DATA           0009:0e44        00000000
                _BSS                  BSS            0009:5c80        00000004
/mnt/sda5/.user/root/src/openwatcom-1.9/bld/wv/c/remenv.c
                remenv_TEXT           CODE           0004:1420        000001b8
                CONST                 DATA           0009:0010        00000000
                CONST2                DATA           0009:01b8        00000000
                _DATA                 DATA           0009:0e44        00000000
                _BSS                  BSS            0009:5c90        00000004
/mnt/sda5/.user/root/src/openwatcom-1.9/bld/wv/c/remfile.c
                remfile_TEXT          CODE           0004:15e0        0000082c
                CONST                 DATA           0009:0010        00000000
                CONST2                DATA           0009:01b8        00000000
                _DATA                 DATA           0009:0e44        00000000
                _BSS                  BSS            0009:5ca0        0000006a
/mnt/sda5/.user/root/src/openwatcom-1.9/bld/wv/c/remthrd.c
                remthrd_TEXT          CODE           0004:1e10        0000025b
                CONST                 DATA           0009:0010        00000000
                CONST2                DATA           0009:01b8        00000000
                _DATA                 DATA           0009:0e44        00000000
                _BSS                  BSS            0009:5d10        00000004
/mnt/sda5/.user/root/src/openwatcom-1.9/bld/wv/c/removl.c
                removl_TEXT           CODE           0004:2070        000003a0
                CONST                 DATA           0009:0010        00000000
                CONST2                DATA           0009:01b8        00000000
                _DATA                 DATA           0009:0e44        00000000
                _BSS                  BSS            0009:5d20        00000004
/mnt/sda5/.user/root/src/openwatcom-1.9/bld/wv/c/ldsupp.c
                ldsupp_TEXT           CODE           0004:2410        0000022e
                CONST                 DATA           0009:0010        00000000
                CONST2                DATA           0009:01b8        00000000
                _DATA                 DATA           0009:0e44        00000000
/mnt/sda5/.user/root/src/openwatcom-1.9/bld/wv/c/doserr.c
                doserr_TEXT           CODE           0004:2640        0000004a
                CONST                 DATA           0009:0010        00000000
                CONST2                DATA           0009:01b8        00000000
                _DATA                 DATA           0009:0e50        00000048
/mnt/sda5/.user/root/src/openwatcom-1.9/bld/wv/c/diginter.c
                diginter_TEXT         CODE           0004:2690        00000102
                CONST                 DATA           0009:0010        00000000
                CONST2                DATA           0009:01b8        00000000
                _DATA                 DATA           0009:0e98        00000000
/mnt/sda5/.user/root/src/openwatcom-1.9/bld/wv/c/dipinter.c
                dipinter_TEXT         CODE           0004:27a0        00000f7d
                CONST                 DATA           0009:0010        00000000
                CONST2                DATA           0009:01b8        00000000
                _DATA                 DATA           0009:0ea0        0000016c
/mnt/sda5/.user/root/src/openwatcom-1.9/bld/wv/c/madinter.c
                madinter_TEXT         CODE           0004:3720        00000798
                CONST                 DATA           0009:0010        00000000
                CONST2                DATA           0009:01b8        00000000
                _DATA                 DATA           0009:1010        00000138
                _BSS                  BSS            0009:5d24        00000002
/mnt/sda5/.user/root/src/openwatcom-1.9/bld/wv/c/dbglit.c
                dbglit_TEXT           CODE           0004:3ec0        00000023
                CONST                 DATA           0009:0010        00000000
                CONST2                DATA           0009:01b8        00000000
                _DATA                 DATA           0009:1148        00000000
/mnt/sda5/.user/root/src/openwatcom-1.9/bld/wv/c/dbginsty.c
                dbginsty_TEXT         CODE           0004:3ef0        0000037c
                CONST                 DATA           0009:0010        00000000
                CONST2                DATA           0009:01b8        00000000
                _DATA                 DATA           0009:1148        00000000
/mnt/sda5/.user/root/src/openwatcom-1.9/bld/wv/c/dbgdata.c
                dbgdata_TEXT          CODE           0004:4270        00000000
                CONST                 DATA           0009:0010        00000000
                CONST2                DATA           0009:01b8        00000000
                _DATA                 DATA           0009:1150        00000442
                _BSS                  BSS            0009:5d30        00000260
/mnt/sda5/.user/root/src/openwatcom-1.9/bld/wv/c/dbgevent.c
                dbgevent_TEXT         CODE           0004:4270        000006b7
                CONST                 DATA           0009:0010        00000000
                CONST2                DATA           0009:01b8        00000000
                _DATA                 DATA           0009:1592        00000000
                _BSS                  BSS            0009:5f90        00000008
/mnt/sda5/.user/root/src/openwatcom-1.9/bld/wv/c/dbgdll.c
                dbgdll_TEXT           CODE           0004:4930        00000243
                CONST                 DATA           0009:0010        00000000
                CONST2                DATA           0009:01b8        00000000
                _DATA                 DATA           0009:1592        00000000
                _BSS                  BSS            0009:5fa0        00000004
/mnt/sda5/.user/root/src/openwatcom-1.9/bld/wv/c/dlgscan.c
                dlgscan_TEXT          CODE           0004:4b80        0000022a
                CONST                 DATA           0009:0010        00000000
                CONST2                DATA           0009:01b8        00000000
                _DATA                 DATA           0009:1592        00000000
/mnt/sda5/.user/root/src/openwatcom-1.9/bld/wv/c/dbgset.c
                dbgset_TEXT           CODE           0004:4db0        000013dc
                CONST                 DATA           0009:0010        00000000
                CONST2                DATA           0009:01b8        00000000
                _DATA                 DATA           0009:15a0        0000024b
                _BSS                  BSS            0009:5fb0        00000018
/mnt/sda5/.user/root/src/openwatcom-1.9/bld/watcom/c/srcmgt.c
                srcmgt_TEXT           CODE           0004:6190        0000074a
                CONST                 DATA           0009:0010        00000000
                CONST2                DATA           0009:01b8        00000000
                _DATA                 DATA           0009:17f0        00000004
/mnt/sda5/.user/root/src/openwatcom-1.9/bld/wv/c/dbgupdt.c
                dbgupdt_TEXT          CODE           0004:68e0        00000121
                CONST                 DATA           0009:0010        00000000
                CONST2                DATA           0009:01b8        00000000
                _DATA                 DATA           0009:17f4        00000000
/mnt/sda5/.user/root/src/openwatcom-1.9/bld/wv/c/symcomp.c
                symcomp_TEXT          CODE           0004:6a10        00000273
                CONST                 DATA           0009:0010        00000000
                CONST2                DATA           0009:01b8        00000000
                _DATA                 DATA           0009:1800        00000004
/mnt/sda5/.user/root/src/openwatcom-1.9/bld/wv/c/litengin.c
                litengin_TEXT         CODE           0004:6c90        00001a1f
                CONST                 DATA           0009:0010        00000000
                CONST2                DATA           0009:01b8        00000000
                _DATA                 DATA           0009:1804        00000000
                _BSS                  BSS            0009:5fd0        000003dc
/mnt/sda5/.user/root/src/openwatcom-1.9/bld/wv/c/litwd.c
                litwd_TEXT            CODE           0004:86b0        00000dc9
                CONST                 DATA           0009:0010        00000000
                CONST2                DATA           0009:01b8        00000000
                _DATA                 DATA           0009:1804        00000000
                _BSS                  BSS            0009:63b0        00000208
/mnt/sda5/.user/root/src/openwatcom-1.9/bld/wv/c/dui.c
                dui_TEXT              CODE           0004:9480        00000485
                CONST                 DATA           0009:0010        00000000
                CONST2                DATA           0009:01b8        00000000
                _DATA                 DATA           0009:1804        00000000
/mnt/sda5/.user/root/src/openwatcom-1.9/bld/wv/c/dbgwset.c
                dbgwset_TEXT          CODE           0004:9910        00000b86
                CONST                 DATA           0009:0010        00000000
                CONST2                DATA           0009:01b8        00000000
                _DATA                 DATA           0009:1810        000002a8
                _BSS                  BSS            0009:65b8        00000014
/mnt/sda5/.user/root/src/openwatcom-1.9/bld/wv/c/dbginsp.c
                dbginsp_TEXT          CODE           0004:a4a0        00000915
                CONST                 DATA           0009:0010        00000000
                CONST2                DATA           0009:01b8        00000000
                _DATA                 DATA           0009:1ab8        00000000
/mnt/sda5/.user/root/src/openwatcom-1.9/bld/wv/c/dbgicon.c
                dbgicon_TEXT          CODE           0004:adc0        00000064
                CONST                 DATA           0009:0010        00000000
                CONST2                DATA           0009:01b8        00000000
                _DATA                 DATA           0009:1ab8        000000c0
/mnt/sda5/.user/root/src/openwatcom-1.9/bld/wv/c/dbgdisp.c
                dbgdisp_TEXT          CODE           0004:ae30        00000cc9
                CONST                 DATA           0009:0010        00000000
                CONST2                DATA           0009:01b8        00000000
                _DATA                 DATA           0009:1b78        00000049
                _BSS                  BSS            0009:65d0        00000260
/mnt/sda5/.user/root/src/openwatcom-1.9/bld/wv/c/dbgpaint.c
                dbgpaint_TEXT         CODE           0004:bb00        00000783
                CONST                 DATA           0009:0010        00000000
                CONST2                DATA           0009:01b8        00000000
                _DATA                 DATA           0009:1bc2        000001bb
                _BSS                  BSS            0009:6830        00000078
/mnt/sda5/.user/root/src/openwatcom-1.9/bld/wv/c/dbgcap.c
                dbgcap_TEXT           CODE           0004:c290        00000136
                CONST                 DATA           0009:0010        00000000
                CONST2                DATA           0009:01b8        00000000
                _DATA                 DATA           0009:1d7e        00000012
                _BSS                  BSS            0009:68a8        00000001
/mnt/sda5/.user/root/src/openwatcom-1.9/bld/wv/c/wndalloc.c
                wndalloc_TEXT         CODE           0004:c3d0        00000056
                CONST                 DATA           0009:0010        00000000
                CONST2                DATA           0009:01b8        00000000
                _DATA                 DATA           0009:1d90        00000000
/mnt/sda5/.user/root/src/openwatcom-1.9/bld/wv/c/dlgambig.c
                dlgambig_TEXT         CODE           0004:c430        0000005c
                CONST                 DATA           0009:0010        00000000
                CONST2                DATA           0009:01b8        00000000
                _DATA                 DATA           0009:1d90        00000000
/mnt/sda5/.user/root/src/openwatcom-1.9/bld/wv/c/dlgscomp.c
                dlgscomp_TEXT         CODE           0004:c490        00000246
                CONST                 DATA           0009:0010        00000000
                CONST2                DATA           0009:01b8        00000000
                _DATA                 DATA           0009:1d90        00000000
                _BSS                  BSS            0009:68b0        00000004
/mnt/sda5/.user/root/src/openwatcom-1.9/bld/wv/c/modcomp.c
                modcomp_TEXT          CODE           0004:c6e0        0000017f
                CONST                 DATA           0009:0010        00000000
                CONST2                DATA           0009:01b8        00000000
                _DATA                 DATA           0009:1d90        00000000
/mnt/sda5/.user/root/src/openwatcom-1.9/bld/wv/c/wndsys.c
                wndsys_TEXT           CODE           0004:c860        00000a7d
                CONST                 DATA           0009:0010        00000000
                CONST2                DATA           0009:01b8        00000000
                _DATA                 DATA           0009:1d90        000003e8
                _BSS                  BSS            0009:68b4        00000002
/mnt/sda5/.user/root/src/openwatcom-1.9/bld/wv/c/wnddump.c
                wnddump_TEXT          CODE           0004:d2e0        00000357
                CONST                 DATA           0009:0010        00000000
                CONST2                DATA           0009:01b8        00000000
                _DATA                 DATA           0009:2178        00000000
/mnt/sda5/.user/root/src/openwatcom-1.9/bld/wv/c/dbgintrn.c
                dbgintrn_TEXT         CODE           0004:d640        00000000
                CONST                 DATA           0009:0010        00000000
                CONST2                DATA           0009:01b8        00000000
                _DATA                 DATA           0009:2178        00000000
/mnt/sda5/.user/root/src/openwatcom-1.9/bld/wv/c/dlgabout.c
                dlgabout_TEXT         CODE           0004:d640        00000098
                CONST                 DATA           0009:0010        00000000
                CONST2                DATA           0009:01b8        00000000
                _DATA                 DATA           0009:2178        00000000
/mnt/sda5/.user/root/src/openwatcom-1.9/bld/wv/c/dlgstk.c
                dlgstk_TEXT           CODE           0004:d6e0        00000143
                CONST                 DATA           0009:0010        00000000
                CONST2                DATA           0009:01b8        00000000
                _DATA                 DATA           0009:2178        00000000
/mnt/sda5/.user/root/src/openwatcom-1.9/bld/wv/c/dlgayn.c
                dlgayn_TEXT           CODE           0004:d830        000000d2
                CONST                 DATA           0009:0010        00000000
                CONST2                DATA           0009:01b8        00000000
                _DATA                 DATA           0009:2178        00000000
/mnt/sda5/.user/root/src/openwatcom-1.9/bld/wv/c/dlgsrc.c
                dlgsrc_TEXT           CODE           0004:d910        00000041
                CONST                 DATA           0009:0010        00000000
                CONST2                DATA           0009:01b8        00000000
                _DATA                 DATA           0009:2178        00000000
/mnt/sda5/.user/root/src/openwatcom-1.9/bld/wv/c/dlgdll.c
                dlgdll_TEXT           CODE           0004:d960        00000041
                CONST                 DATA           0009:0010        00000000
                CONST2                DATA           0009:01b8        00000000
                _DATA                 DATA           0009:2178        00000000
/mnt/sda5/.user/root/src/openwatcom-1.9/bld/wv/c/dlglist.c
                dlglist_TEXT          CODE           0004:d9b0        000003e5
                CONST                 DATA           0009:0010        00000000
                CONST2                DATA           0009:01b8        00000000
                _DATA                 DATA           0009:2178        00000000
/mnt/sda5/.user/root/src/openwatcom-1.9/bld/wv/c/dlgfile.c
                dlgfile_TEXT          CODE           0004:dda0        00000719
                CONST                 DATA           0009:0010        00000000
                CONST2                DATA           0009:01b8        00000000
                _DATA                 DATA           0009:2180        00000015
                _BSS                  BSS            0009:68c0        00000018
/mnt/sda5/.user/root/src/openwatcom-1.9/bld/wv/c/dlgnewp.c
                dlgnewp_TEXT          CODE           0004:e4c0        00000200
                CONST                 DATA           0009:0010        00000000
                CONST2                DATA           0009:01b8        00000000
                _DATA                 DATA           0009:2196        00000000
                _BSS                  BSS            0009:68d8        00000800
/mnt/sda5/.user/root/src/openwatcom-1.9/bld/wv/c/dlgexpr.c
                dlgexpr_TEXT          CODE           0004:e6c0        00000404
                CONST                 DATA           0009:0010        00000000
                CONST2                DATA           0009:01b8        00000000
                _DATA                 DATA           0009:2196        00000000
/mnt/sda5/.user/root/src/openwatcom-1.9/bld/wv/c/dlgbreak.c
                dlgbreak_TEXT         CODE           0004:ead0        00000b23
                CONST                 DATA           0009:0010        00000000
                CONST2                DATA           0009:01b8        00000000
                _DATA                 DATA           0009:2196        00000000
/mnt/sda5/.user/root/src/openwatcom-1.9/bld/wv/c/dlgvarx.c
                dlgvarx_TEXT          CODE           0004:f600        000001ff
                CONST                 DATA           0009:0010        00000000
                CONST2                DATA           0009:01b8        00000000
                _DATA                 DATA           0009:2196        00000000
/mnt/sda5/.user/root/src/openwatcom-1.9/bld/wv/c/dlgcmd.c
                dlgcmd_TEXT           CODE           0004:f800        00000196
                CONST                 DATA           0009:0010        00000000
                CONST2                DATA           0009:01b8        00000000
                _DATA                 DATA           0009:2196        00000000
/mnt/sda5/.user/root/src/openwatcom-1.9/bld/wv/c/dlgnewws.c
                dlgnewws_TEXT         CODE           0004:f9a0        00000112
                CONST                 DATA           0009:0010        00000000
                CONST2                DATA           0009:01b8        00000000
                _DATA                 DATA           0009:2196        00000068
                _BSS                  BSS            0009:70e0        00000004
/mnt/sda5/.user/root/src/openwatcom-1.9/bld/wv/c/wndhelp.c
                wndhelp_TEXT          CODE           0004:fac0        00000167
                CONST                 DATA           0009:0010        00000000
                CONST2                DATA           0009:01b8        00000000
                _DATA                 DATA           0009:21fe        00000000
                _BSS                  BSS            0009:70f0        00000004
/mnt/sda5/.user/root/src/openwatcom-1.9/bld/wv/c/wndmenu.c
                wndmenu_TEXT          CODE           0005:0000        00001355
                CONST                 DATA           0009:0010        00000000
                CONST2                DATA           0009:01b8        00000000
                _DATA                 DATA           0009:2200        00000732
                _BSS                  BSS            0009:70f4        00000012
/mnt/sda5/.user/root/src/openwatcom-1.9/bld/wv/c/dbgwfpu.c
                dbgwfpu_TEXT          CODE           0005:1360        00000060
                CONST                 DATA           0009:0010        00000000
                CONST2                DATA           0009:01b8        00000000
                _DATA                 DATA           0009:2932        00000000
/mnt/sda5/.user/root/src/openwatcom-1.9/bld/wv/c/dbgwmac.c
                dbgwmac_TEXT          CODE           0005:13c0        00000fdf
                CONST                 DATA           0009:0010        00000000
                CONST2                DATA           0009:01b8        00000000
                _DATA                 DATA           0009:2940        0000013a
                _BSS                  BSS            0009:7106        00000008
/mnt/sda5/.user/root/src/openwatcom-1.9/bld/wv/c/dbgwglob.c
                dbgwglob_TEXT         CODE           0005:23a0        00000389
                CONST                 DATA           0009:0010        00000000
                CONST2                DATA           0009:01b8        00000000
                _DATA                 DATA           0009:2a7a        00000090
/mnt/sda5/.user/root/src/openwatcom-1.9/bld/wv/c/dbgwfunc.c
                dbgwfunc_TEXT         CODE           0005:2730        0000079e
                CONST                 DATA           0009:0010        00000000
                CONST2                DATA           0009:01b8        00000000
                _DATA                 DATA           0009:2b0a        000000a2
/mnt/sda5/.user/root/src/openwatcom-1.9/bld/wv/c/dbgwcall.c
                dbgwcall_TEXT         CODE           0005:2ed0        00000549
                CONST                 DATA           0009:0010        00000000
                CONST2                DATA           0009:01b8        00000000
                _DATA                 DATA           0009:2bac        000000a2
/mnt/sda5/.user/root/src/openwatcom-1.9/bld/wv/c/dbgwmod.c
                dbgwmod_TEXT          CODE           0005:3420        0000088b
                CONST                 DATA           0009:0010        00000000
                CONST2                DATA           0009:01b8        00000000
                _DATA                 DATA           0009:2c4e        000000b4
/mnt/sda5/.user/root/src/openwatcom-1.9/bld/wv/c/dbgwsrch.c
                dbgwsrch_TEXT         CODE           0005:3cb0        00000a4c
                CONST                 DATA           0009:0010        00000000
                CONST2                DATA           0009:01b8        00000000
                _DATA                 DATA           0009:2d02        00000048
/mnt/sda5/.user/root/src/openwatcom-1.9/bld/wv/c/dbgwdlg.c
                dbgwdlg_TEXT          CODE           0005:4700        000003fe
                CONST                 DATA           0009:0010        00000000
                CONST2                DATA           0009:01b8        00000000
                _DATA                 DATA           0009:2d50        00000042
                _BSS                  BSS            0009:7110        00000004
/mnt/sda5/.user/root/src/openwatcom-1.9/bld/wv/c/dbgwfil.c
                dbgwfil_TEXT          CODE           0005:4b00        00001de8
                CONST                 DATA           0009:0010        00000000
                CONST2                DATA           0009:01b8        00000000
                _DATA                 DATA           0009:2d92        00000132
/mnt/sda5/.user/root/src/openwatcom-1.9/bld/wv/c/dbgwass.c
                dbgwass_TEXT          CODE           0005:68f0        00002737
                CONST                 DATA           0009:0010        00000000
                CONST2                DATA           0009:01b8        00000000
                _DATA                 DATA           0009:2ec4        00000132
/mnt/sda5/.user/root/src/openwatcom-1.9/bld/wv/c/dbgwimg.c
                dbgwimg_TEXT          CODE           0005:9030        000004cf
                CONST                 DATA           0009:0010        00000000
                CONST2                DATA           0009:01b8        00000000
                _DATA                 DATA           0009:2ff6        000000a2
                _BSS                  BSS            0009:7114        00000006
/mnt/sda5/.user/root/src/openwatcom-1.9/bld/wv/c/dbgwbrk.c
                dbgwbrk_TEXT          CODE           0005:9500        00000617
                CONST                 DATA           0009:0010        00000000
                CONST2                DATA           0009:01b8        00000000
                _DATA                 DATA           0009:3098        000000c6
/mnt/sda5/.user/root/src/openwatcom-1.9/bld/wv/c/dbgwio.c
                dbgwio_TEXT           CODE           0005:9b20        00000972
                CONST                 DATA           0009:0010        00000000
                CONST2                DATA           0009:01b8        00000000
                _DATA                 DATA           0009:3160        000000a6
                _BSS                  BSS            0009:711a        0000001e
/mnt/sda5/.user/root/src/openwatcom-1.9/bld/wv/c/dbgwrep.c
                dbgwrep_TEXT          CODE           0005:a4a0        0000044d
                CONST                 DATA           0009:0010        00000000
                CONST2                DATA           0009:01b8        00000000
                _DATA                 DATA           0009:3206        0000006c
                _BSS                  BSS            0009:7138        00000008
/mnt/sda5/.user/root/src/openwatcom-1.9/bld/wv/c/dbgwmem.c
                dbgwmem_TEXT          CODE           0005:a8f0        00002263
                CONST                 DATA           0009:0010        00000000
                CONST2                DATA           0009:01b8        00000000
                _DATA                 DATA           0009:3280        000001e2
                _BSS                  BSS            0009:7140        00000020
/mnt/sda5/.user/root/src/openwatcom-1.9/bld/wv/c/dbgwregs.c
                dbgwregs_TEXT         CODE           0005:cb60        00000035
                CONST                 DATA           0009:0010        00000000
                CONST2                DATA           0009:01b8        00000000
                _DATA                 DATA           0009:3462        00000000
/mnt/sda5/.user/root/src/openwatcom-1.9/bld/wv/c/dbgwmmx.c
                dbgwmmx_TEXT          CODE           0005:cba0        00000060
                CONST                 DATA           0009:0010        00000000
                CONST2                DATA           0009:01b8        00000000
                _DATA                 DATA           0009:3462        00000000
/mnt/sda5/.user/root/src/openwatcom-1.9/bld/wv/c/dbgwxmm.c
                dbgwxmm_TEXT          CODE           0005:cc00        00000060
                CONST                 DATA           0009:0010        00000000
                CONST2                DATA           0009:01b8        00000000
                _DATA                 DATA           0009:3462        00000000
/mnt/sda5/.user/root/src/openwatcom-1.9/bld/wv/c/dbgwmadr.c
                dbgwmadr_TEXT         CODE           0005:cc60        00000e89
                CONST                 DATA           0009:0010        00000000
                CONST2                DATA           0009:01b8        00000000
                _DATA                 DATA           0009:3462        0000006c
/mnt/sda5/.user/root/src/openwatcom-1.9/bld/wv/c/dbgwtogl.c
                dbgwtogl_TEXT         CODE           0005:daf0        0000018f
                CONST                 DATA           0009:0010        00000000
                CONST2                DATA           0009:01b8        00000000
                _DATA                 DATA           0009:34ce        00000000
/mnt/sda5/.user/root/src/openwatcom-1.9/bld/wv/c/dbgwvar.c
                dbgwvar_TEXT          CODE           0005:dc80        00001c1e
                CONST                 DATA           0009:0010        00000000
                CONST2                DATA           0009:01b8        00000000
                _DATA                 DATA           0009:34d0        00000306
/mnt/sda5/.user/root/src/openwatcom-1.9/bld/wv/c/dbgwthrd.c
                dbgwthrd_TEXT         CODE           0005:f8a0        00000369
                CONST                 DATA           0009:0010        00000000
                CONST2                DATA           0009:01b8        00000000
                _DATA                 DATA           0009:37d6        00000070
/mnt/sda5/.user/root/src/openwatcom-1.9/bld/wv/c/dlgwind.c
                dlgwind_TEXT          CODE           0006:0000        000004b4
                CONST                 DATA           0009:0010        00000000
                CONST2                DATA           0009:01b8        00000000
                _DATA                 DATA           0009:3846        00000000
/mnt/sda5/.user/root/src/openwatcom-1.9/bld/wv/c/dbgwdata.c
                dbgwdata_TEXT         CODE           0006:04c0        00000000
                CONST                 DATA           0009:0010        00000000
                CONST2                DATA           0009:01b8        00000000
                _DATA                 DATA           0009:3850        00000154
                _BSS                  BSS            0009:7160        00000004
/mnt/sda5/.user/root/src/openwatcom-1.9/bld/wv/c/dlgoptn.c
                dlgoptn_TEXT          CODE           0006:04c0        000003d8
                CONST                 DATA           0009:0010        00000000
                CONST2                DATA           0009:01b8        00000000
                _DATA                 DATA           0009:39a4        00000000
/mnt/sda5/.user/root/src/openwatcom-1.9/bld/wv/c/dbgtool.c
                dbgtool_TEXT          CODE           0006:08a0        000000a6
                CONST                 DATA           0009:0010        00000000
                CONST2                DATA           0009:01b8        00000000
                _DATA                 DATA           0009:39a4        000000a2
/mnt/sda5/.user/root/src/openwatcom-1.9/bld/wv/c/dbgfing.c
                dbgfing_TEXT          CODE           0006:0950        0000031c
                CONST                 DATA           0009:0010        00000000
                CONST2                DATA           0009:01b8        00000000
                _DATA                 DATA           0009:3a50        0000003a
                _BSS                  BSS            0009:7164        00000008
/mnt/sda5/.user/root/src/openwatcom-1.9/bld/aui/c/guimain.c
                guimain_TEXT          CODE           0006:0c70        00000d69
                CONST                 DATA           0009:0010        00000000
                CONST2                DATA           0009:01b8        00000000
                _DATA                 DATA           0009:3a8a        0000000a
                _BSS                  BSS            0009:7170        0000001d
/mnt/sda5/.user/root/src/openwatcom-1.9/bld/gui/win/c/guigsysh.c
                guigsysh_TEXT         CODE           0006:19e0        0000001a
                CONST                 DATA           0009:0010        00000000
                CONST2                DATA           0009:01b8        00000000
                _DATA                 DATA           0009:3a94        00000000
/mnt/sda5/.user/root/src/openwatcom-1.9/bld/gui/c/guindlg.c
                guindlg_TEXT          CODE           0006:1a00        00000497
                CONST                 DATA           0009:0010        00000000
                CONST2                DATA           0009:01b8        00000000
                _DATA                 DATA           0009:3a94        0000004f
/mnt/sda5/.user/root/src/openwatcom-1.9/bld/aui/c/wndmem.c
                wndmem_TEXT           CODE           0006:1ea0        00000055
                CONST                 DATA           0009:0010        00000000
                CONST2                DATA           0009:01b8        00000000
                _DATA                 DATA           0009:3ae4        00000000
ldcvt.c         _TEXT                 CODE           0006:1f00        00000c66
                CONST                 DATA           0009:0010        00000000
                CONST2                DATA           0009:01b8        00000000
                _DATA                 DATA           0009:3ae4        0000008c
initemuw.asm    _TEXT                 CODE           0006:2b66        0000005d
                _DATA                 DATA           0009:3b70        00000000
                XIB                   DATA           0009:4572        00000000
                XI                    DATA           0009:4572        00000006
                XIE                   DATA           0009:459c        00000000
                YIB                   DATA           0009:459c        00000000
                YI                    DATA           0009:459c        00000006
                YIE                   DATA           0009:45ba        00000000
fchop87         _TEXT                 CODE           0006:2bc4        00000027
                _DATA                 DATA           0009:3b70        00000000
gcvt.c          _TEXT                 CODE           0006:2beb        000000fd
                CONST                 DATA           0009:0010        00000000
                CONST2                DATA           0009:01b8        00000000
                _DATA                 DATA           0009:3b70        00000000
strtod.c        _TEXT                 CODE           0006:2ce8        000008f2
                CONST                 DATA           0009:0010        00000000
                CONST2                DATA           0009:01b8        00000000
                _DATA                 DATA           0009:3b70        00000000
/mnt/sda5/.user/root/src/openwatcom-1.9/bld/aui/c/wndstat.c
                wndstat_TEXT          CODE           0006:b720        000001cf
                CONST                 DATA           0009:0010        00000000
                CONST2                DATA           0009:01b8        00000000
                _DATA                 DATA           0009:3b70        00000000
                _BSS                  BSS            0009:718e        00000051
/mnt/sda5/.user/root/src/openwatcom-1.9/bld/aui/c/wndhist.c
                wndhist_TEXT          CODE           0006:b8f0        00000387
                CONST                 DATA           0009:0010        00000000
                CONST2                DATA           0009:01b8        00000000
                _DATA                 DATA           0009:3b70        00000000
/mnt/sda5/.user/root/src/openwatcom-1.9/bld/aui/c/wndcreat.c
                wndcreat_TEXT         CODE           0006:bc80        00000621
                CONST                 DATA           0009:0010        00000000
                CONST2                DATA           0009:01b8        00000000
                _DATA                 DATA           0009:3b70        00000004
                _BSS                  BSS            0009:71e0        00000006
/mnt/sda5/.user/root/src/openwatcom-1.9/bld/aui/c/wnddirt.c
                wnddirt_TEXT          CODE           0006:c2b0        000007e6
                CONST                 DATA           0009:0010        00000000
                CONST2                DATA           0009:01b8        00000000
                _DATA                 DATA           0009:3b74        00000001
/mnt/sda5/.user/root/src/openwatcom-1.9/bld/aui/c/wndshrnk.c
                wndshrnk_TEXT         CODE           0006:caa0        00000363
                CONST                 DATA           0009:0010        00000000
                CONST2                DATA           0009:01b8        00000000
                _DATA                 DATA           0009:3b76        00000000
/mnt/sda5/.user/root/src/openwatcom-1.9/bld/gui/c/guiisgui.c
                guiisgui_TEXT         CODE           0006:ce10        00000003
                CONST                 DATA           0009:0010        00000000
                CONST2                DATA           0009:01b8        00000000
                _DATA                 DATA           0009:3b76        00000000
/mnt/sda5/.user/root/src/openwatcom-1.9/bld/gui/win/c/guismetr.c
                guismetr_TEXT         CODE           0006:ce20        000001ab
                CONST                 DATA           0009:0010        00000000
                CONST2                DATA           0009:01b8        00000000
                _DATA                 DATA           0009:3b76        00000000
/mnt/sda5/.user/root/src/openwatcom-1.9/bld/aui/c/wndmsg.c
                wndmsg_TEXT           CODE           0006:cfd0        00000045
                CONST                 DATA           0009:0010        00000000
                CONST2                DATA           0009:01b8        00000000
                _DATA                 DATA           0009:3b76        00000000
/mnt/sda5/.user/root/src/openwatcom-1.9/bld/aui/c/wndldstr.c
                wndldstr_TEXT         CODE           0006:d020        00000075
                CONST                 DATA           0009:0010        00000000
                CONST2                DATA           0009:01b8        00000000
                _DATA                 DATA           0009:3b76        00000000
/mnt/sda5/.user/root/src/openwatcom-1.9/bld/gui/win/c/guiclen.c
                guiclen_TEXT          CODE           0006:d0a0        000000ab
                CONST                 DATA           0009:0010        00000000
                CONST2                DATA           0009:01b8        00000000
                _DATA                 DATA           0009:3b76        00000000
                _BSS                  BSS            0009:71e6        00000102
/mnt/sda5/.user/root/src/openwatcom-1.9/bld/aui/c/wndutil.c
                wndutil_TEXT          CODE           0006:d150        000003d4
                CONST                 DATA           0009:0010        00000000
                CONST2                DATA           0009:01b8        00000000
                _DATA                 DATA           0009:3b76        00000000
/mnt/sda5/.user/root/src/openwatcom-1.9/bld/aui/c/wndfront.c
                wndfront_TEXT         CODE           0006:d530        0000011f
                CONST                 DATA           0009:0010        00000000
                CONST2                DATA           0009:01b8        00000000
                _DATA                 DATA           0009:3b76        00000000
/mnt/sda5/.user/root/src/openwatcom-1.9/bld/aui/c/dlgsrch.c
                dlgsrch_TEXT          CODE           0006:d650        00000674
                CONST                 DATA           0009:0010        00000000
                CONST2                DATA           0009:01b8        00000000
                _DATA                 DATA           0009:3b76        0000002a
/mnt/sda5/.user/root/src/openwatcom-1.9/bld/aui/c/wndcurr.c
                wndcurr_TEXT          CODE           0006:dcd0        000008a3
                CONST                 DATA           0009:0010        00000000
                CONST2                DATA           0009:01b8        00000000
                _DATA                 DATA           0009:3ba0        00000000
/mnt/sda5/.user/root/src/openwatcom-1.9/bld/aui/c/wndpaint.c
                wndpaint_TEXT         CODE           0006:e580        0000071c
                CONST                 DATA           0009:0010        00000000
                CONST2                DATA           0009:01b8        00000000
                _DATA                 DATA           0009:3ba0        00000000
/mnt/sda5/.user/root/src/openwatcom-1.9/bld/aui/c/wndcrsr.c
                wndcrsr_TEXT          CODE           0006:eca0        00000652
                CONST                 DATA           0009:0010        00000000
                CONST2                DATA           0009:01b8        00000000
                _DATA                 DATA           0009:3ba0        00000000
/mnt/sda5/.user/root/src/openwatcom-1.9/bld/aui/c/wndfont.c
                wndfont_TEXT          CODE           0006:f300        00000088
                CONST                 DATA           0009:0010        00000000
                CONST2                DATA           0009:01b8        00000000
                _DATA                 DATA           0009:3ba0        00000000
/mnt/sda5/.user/root/src/openwatcom-1.9/bld/gui/c/guimem.c
                guimem_TEXT           CODE           0006:f390        0000002d
                CONST                 DATA           0009:0010        00000000
                CONST2                DATA           0009:01b8        00000000
                _DATA                 DATA           0009:3ba0        00000000
/mnt/sda5/.user/root/src/openwatcom-1.9/bld/aui/c/wndrect.c
                wndrect_TEXT          CODE           0006:f3c0        00000219
                CONST                 DATA           0009:0010        00000000
                CONST2                DATA           0009:01b8        00000000
                _DATA                 DATA           0009:3ba0        00000000
/mnt/sda5/.user/root/src/openwatcom-1.9/bld/gui/win/c/guifont.c
                guifont_TEXT          CODE           0006:f5e0        00000305
                CONST                 DATA           0009:0010        00000017
                CONST2                DATA           0009:01b8        00000000
                _DATA                 DATA           0009:3ba0        00000000
/mnt/sda5/.user/root/src/openwatcom-1.9/bld/gui/c/guimin.c
                guimin_TEXT           CODE           0006:f8f0        0000002d
                CONST                 DATA           0009:0028        00000000
                CONST2                DATA           0009:01b8        00000000
                _DATA                 DATA           0009:3ba0        00000000
/mnt/sda5/.user/root/src/openwatcom-1.9/bld/aui/c/wndtool.c
                wndtool_TEXT          CODE           0006:f920        00000190
                CONST                 DATA           0009:0028        00000000
                CONST2                DATA           0009:01b8        00000000
                _DATA                 DATA           0009:3ba0        00000001
                _BSS                  BSS            0009:72e8        00000002
/mnt/sda5/.user/root/src/openwatcom-1.9/bld/gui/win/c/guistub.c
                guistub_TEXT          CODE           0006:fab0        0000000a
                CONST                 DATA           0009:0028        00000000
                CONST2                DATA           0009:01b8        00000000
                _DATA                 DATA           0009:3ba2        00000000
/mnt/sda5/.user/root/src/openwatcom-1.9/bld/aui/c/wndcolor.c
                wndcolor_TEXT         CODE           0006:fac0        000000cb
                CONST                 DATA           0009:0028        00000000
                CONST2                DATA           0009:01b8        00000000
                _DATA                 DATA           0009:3ba2        00000000
/mnt/sda5/.user/root/src/openwatcom-1.9/bld/aui/c/dlgpick.c
                dlgpick_TEXT          CODE           0006:fb90        000000dd
                CONST                 DATA           0009:0028        00000000
                CONST2                DATA           0009:01b8        00000000
                _DATA                 DATA           0009:3ba2        00000000
                _BSS                  BSS            0009:72f0        0000000c
/mnt/sda5/.user/root/src/openwatcom-1.9/bld/gui/c/guipick.c
                guipick_TEXT          CODE           0006:fc70        0000015b
                CONST                 DATA           0009:0028        00000000
                CONST2                DATA           0009:01b8        00000000
                _DATA                 DATA           0009:3ba2        0000004e
/mnt/sda5/.user/root/src/openwatcom-1.9/bld/aui/c/wnddlg.c
                wnddlg_TEXT           CODE           0006:fdd0        00000184
                CONST                 DATA           0009:0028        00000000
                CONST2                DATA           0009:01b8        00000000
                _DATA                 DATA           0009:3bf0        00000032
                _BSS                  BSS            0009:7300        00000028
/mnt/sda5/.user/root/src/openwatcom-1.9/bld/gui/win/c/guifocus.c
                guifocus_TEXT         CODE           0007:0000        0000012c
                CONST                 DATA           0009:0028        00000000
                CONST2                DATA           0009:01b8        00000000
                _DATA                 DATA           0009:3c22        00000000
/mnt/sda5/.user/root/src/openwatcom-1.9/bld/gui/win/c/guixtext.c
                guixtext_TEXT         CODE           0007:0130        0000040c
                CONST                 DATA           0009:0028        00000000
                CONST2                DATA           0009:01b8        00000000
                _DATA                 DATA           0009:3c22        00000000
/mnt/sda5/.user/root/src/openwatcom-1.9/bld/aui/c/wndsrch.c
                wndsrch_TEXT          CODE           0007:0540        00000751
                CONST                 DATA           0009:0028        00000000
                CONST2                DATA           0009:01b8        00000000
                _DATA                 DATA           0009:3c22        00000001
/mnt/sda5/.user/root/src/openwatcom-1.9/bld/aui/c/wndpop.c
                wndpop_TEXT           CODE           0007:0ca0        0000103e
                CONST                 DATA           0009:0028        00000000
                CONST2                DATA           0009:01b8        00000000
                _DATA                 DATA           0009:3c24        00000000
/mnt/sda5/.user/root/src/openwatcom-1.9/bld/gui/win/c/guispawn.c
                guispawn_TEXT         CODE           0007:1ce0        00000001
                CONST                 DATA           0009:0028        00000000
                CONST2                DATA           0009:01b8        00000000
                _DATA                 DATA           0009:3c24        00000000
/mnt/sda5/.user/root/src/openwatcom-1.9/bld/aui/c/wndgadgt.c
                wndgadgt_TEXT         CODE           0007:1cf0        00000095
                CONST                 DATA           0009:0028        00000000
                CONST2                DATA           0009:01b8        00000000
                _DATA                 DATA           0009:3c24        00000002
/mnt/sda5/.user/root/src/openwatcom-1.9/bld/gui/c/guihot.c
                guihot_TEXT           CODE           0007:1d90        00000101
                CONST                 DATA           0009:0028        00000000
                CONST2                DATA           0009:01b8        00000000
                _DATA                 DATA           0009:3c26        00000000
                _BSS                  BSS            0009:7328        00000002
/mnt/sda5/.user/root/src/openwatcom-1.9/bld/gui/win/c/guiflush.c
                guiflush_TEXT         CODE           0007:1ea0        00000055
                CONST                 DATA           0009:0028        00000000
                CONST2                DATA           0009:01b8        00000000
                _DATA                 DATA           0009:3c26        00000000
/mnt/sda5/.user/root/src/openwatcom-1.9/bld/aui/c/wndmeth.c
                wndmeth_TEXT          CODE           0007:1f00        000006ab
                CONST                 DATA           0009:0028        00000000
                CONST2                DATA           0009:01b8        00000000
                _DATA                 DATA           0009:3c26        00000036
                _BSS                  BSS            0009:732a        00000bba
/mnt/sda5/.user/root/src/openwatcom-1.9/bld/gui/c/guiextra.c
                guiextra_TEXT         CODE           0007:25b0        0000001f
                CONST                 DATA           0009:0028        00000000
                CONST2                DATA           0009:01b8        00000000
                _DATA                 DATA           0009:3c5c        00000000
/mnt/sda5/.user/root/src/openwatcom-1.9/bld/gui/win/c/guixdlg.c
                guixdlg_TEXT          CODE           0007:25d0        00000f7c
                CONST                 DATA           0009:0028        0000000b
                CONST2                DATA           0009:01b8        00000000
                _DATA                 DATA           0009:3c60        0000000e
                _BSS                  BSS            0009:7ee4        00000021
/mnt/sda5/.user/root/src/openwatcom-1.9/bld/gui/win/c/guiclear.c
                guiclear_TEXT         CODE           0007:3550        00000099
                CONST                 DATA           0009:0034        00000000
                CONST2                DATA           0009:01b8        00000000
                _DATA                 DATA           0009:3c6e        00000000
/mnt/sda5/.user/root/src/openwatcom-1.9/bld/gui/win/c/guistext.c
                guistext_TEXT         CODE           0007:35f0        00000058
                CONST                 DATA           0009:0034        00000000
                CONST2                DATA           0009:01b8        00000000
                _DATA                 DATA           0009:3c6e        00000000
/mnt/sda5/.user/root/src/openwatcom-1.9/bld/aui/c/wndfdlg.c
                wndfdlg_TEXT          CODE           0007:3650        00000166
                CONST                 DATA           0009:0034        00000000
                CONST2                DATA           0009:01b8        00000000
                _DATA                 DATA           0009:3c6e        00000000
/mnt/sda5/.user/root/src/openwatcom-1.9/bld/gui/win/c/guicontr.c
                guicontr_TEXT         CODE           0007:37c0        00000d54
                CONST                 DATA           0009:0034        0000002e
                CONST2                DATA           0009:01b8        00000000
                _DATA                 DATA           0009:3c70        00000094
/mnt/sda5/.user/root/src/openwatcom-1.9/bld/aui/c/dlgnew.c
                dlgnew_TEXT           CODE           0007:4520        000001a9
                CONST                 DATA           0009:0062        00000000
                CONST2                DATA           0009:01b8        00000000
                _DATA                 DATA           0009:3d04        0000004e
/mnt/sda5/.user/root/src/openwatcom-1.9/bld/gui/win/c/guicheck.c
                guicheck_TEXT         CODE           0007:46d0        00000080
                CONST                 DATA           0009:0062        00000000
                CONST2                DATA           0009:01b8        00000000
                _DATA                 DATA           0009:3d52        00000000
/mnt/sda5/.user/root/src/openwatcom-1.9/bld/gui/win/c/guihelp.c
                guihelp_TEXT          CODE           0007:4750        00000310
                CONST                 DATA           0009:0062        00000001
                CONST2                DATA           0009:01b8        00000000
                _DATA                 DATA           0009:3d52        00000000
/mnt/sda5/.user/root/src/openwatcom-1.9/bld/aui/c/wndsel.c
                wndsel_TEXT           CODE           0007:4a60        000005ac
                CONST                 DATA           0009:0064        00000000
                CONST2                DATA           0009:01b8        00000000
                _DATA                 DATA           0009:3d52        00000000
                _BSS                  BSS            0009:7f06        00000004
/mnt/sda5/.user/root/src/openwatcom-1.9/bld/aui/c/wndscrol.c
                wndscrol_TEXT         CODE           0007:5010        000004fc
                CONST                 DATA           0009:0064        00000000
                CONST2                DATA           0009:01b8        00000000
                _DATA                 DATA           0009:3d52        00000000
/mnt/sda5/.user/root/src/openwatcom-1.9/bld/aui/c/wndchar.c
                wndchar_TEXT          CODE           0007:5510        00000085
                CONST                 DATA           0009:0064        00000000
                CONST2                DATA           0009:01b8        00000000
                _DATA                 DATA           0009:3d60        00000004
/mnt/sda5/.user/root/src/openwatcom-1.9/bld/gui/c/guiwnclr.c
                guiwnclr_TEXT         CODE           0007:55a0        000000bb
                CONST                 DATA           0009:0064        00000000
                CONST2                DATA           0009:01b8        00000000
                _DATA                 DATA           0009:3d64        0000001c
/mnt/sda5/.user/root/src/openwatcom-1.9/bld/gui/win/c/guicolor.c
                guicolor_TEXT         CODE           0007:5660        00000555
                CONST                 DATA           0009:0064        00000018
                CONST2                DATA           0009:01b8        00000000
                _DATA                 DATA           0009:3d80        00000054
/mnt/sda5/.user/root/src/openwatcom-1.9/bld/gui/win/c/guidbclk.c
                guidbclk_TEXT         CODE           0007:5bc0        00000013
                CONST                 DATA           0009:007c        00000000
                CONST2                DATA           0009:01b8        00000000
                _DATA                 DATA           0009:3dd4        00000000
/mnt/sda5/.user/root/src/openwatcom-1.9/bld/gui/c/guirscal.c
                guirscal_TEXT         CODE           0007:5be0        00000065
                CONST                 DATA           0009:007c        00000000
                CONST2                DATA           0009:01b8        00000000
                _DATA                 DATA           0009:3dd4        00000000
/mnt/sda5/.user/root/src/openwatcom-1.9/bld/gui/c/guiscale.c
                guiscale_TEXT         CODE           0007:5c50        000002d4
                CONST                 DATA           0009:007c        00000000
                CONST2                DATA           0009:01b8        00000000
                _DATA                 DATA           0009:3dd4        00000000
                _BSS                  BSS            0009:7f0a        00000010
/mnt/sda5/.user/root/src/openwatcom-1.9/bld/aui/c/wndstyle.c
                wndstyle_TEXT         CODE           0007:5f30        00000000
                CONST                 DATA           0009:007c        00000000
                CONST2                DATA           0009:01b8        00000000
                _DATA                 DATA           0009:3dd4        00000001
/mnt/sda5/.user/root/src/openwatcom-1.9/bld/gui/win/c/guixwind.c
                guixwind_TEXT         CODE           0007:5f30        00001704
                CONST                 DATA           0009:007c        00000000
                CONST2                DATA           0009:01b8        00000000
                _DATA                 DATA           0009:3de0        00000059
                _BSS                  BSS            0009:7f1a        00000043
/mnt/sda5/.user/root/src/openwatcom-1.9/bld/gui/c/guiimmdi.c
                guiimmdi_TEXT         CODE           0007:7640        0000005b
                CONST                 DATA           0009:007c        00000000
                CONST2                DATA           0009:01b8        00000000
                _DATA                 DATA           0009:3e3a        00000000
/mnt/sda5/.user/root/src/openwatcom-1.9/bld/gui/win/c/gui3ddlg.c
                gui3ddlg_TEXT         CODE           0007:76a0        000001a9
                CONST                 DATA           0009:007c        0000000c
                CONST2                DATA           0009:01b8        00000000
                _DATA                 DATA           0009:3e3a        00000002
/mnt/sda5/.user/root/src/openwatcom-1.9/bld/aui/c/wndimain.c
                wndimain_TEXT         CODE           0007:7850        0000000c
                CONST                 DATA           0009:0088        00000000
                CONST2                DATA           0009:01b8        00000000
                _DATA                 DATA           0009:3e3c        00000000
/mnt/sda5/.user/root/src/openwatcom-1.9/bld/aui/c/wndbgch.c
                wndbgch_TEXT          CODE           0007:7860        00000000
                CONST                 DATA           0009:0088        00000000
                CONST2                DATA           0009:01b8        00000000
                _DATA                 DATA           0009:3e3c        00000001
/mnt/sda5/.user/root/src/openwatcom-1.9/bld/gui/win/c/guigetnr.c
                guigetnr_TEXT         CODE           0007:7860        0000000b
                CONST                 DATA           0009:0088        00000000
                CONST2                DATA           0009:01b8        00000000
                _DATA                 DATA           0009:3e3e        00000000
/mnt/sda5/.user/root/src/openwatcom-1.9/bld/gui/win/c/guitextm.c
                guitextm_TEXT         CODE           0007:7870        0000008e
                CONST                 DATA           0009:0088        00000000
                CONST2                DATA           0009:01b8        00000000
                _DATA                 DATA           0009:3e3e        00000000
/mnt/sda5/.user/root/src/openwatcom-1.9/bld/gui/win/c/guicrect.c
                guicrect_TEXT         CODE           0007:7900        0000013a
                CONST                 DATA           0009:0088        00000000
                CONST2                DATA           0009:01b8        00000000
                _DATA                 DATA           0009:3e3e        00000000
/mnt/sda5/.user/root/src/openwatcom-1.9/bld/gui/win/c/guirange.c
                guirange_TEXT         CODE           0007:7a40        00000206
                CONST                 DATA           0009:0088        00000000
                CONST2                DATA           0009:01b8        00000000
                _DATA                 DATA           0009:3e3e        00000000
/mnt/sda5/.user/root/src/openwatcom-1.9/bld/gui/win/c/guicursr.c
                guicursr_TEXT         CODE           0007:7c50        0000006a
                CONST                 DATA           0009:0088        00000000
                CONST2                DATA           0009:01b8        00000000
                _DATA                 DATA           0009:3e3e        00000000
/mnt/sda5/.user/root/src/openwatcom-1.9/bld/aui/c/wndchoos.c
                wndchoos_TEXT         CODE           0007:7cc0        00000554
                CONST                 DATA           0009:0088        00000000
                CONST2                DATA           0009:01b8        00000000
                _DATA                 DATA           0009:3e3e        00000000
/mnt/sda5/.user/root/src/openwatcom-1.9/bld/aui/c/wndmouse.c
                wndmouse_TEXT         CODE           0007:8220        00000568
                CONST                 DATA           0009:0088        00000000
                CONST2                DATA           0009:01b8        00000000
                _DATA                 DATA           0009:3e3e        00000000
                _BSS                  BSS            0009:7f5e        00000023
/mnt/sda5/.user/root/src/openwatcom-1.9/bld/gui/win/c/guistat.c
                guistat_TEXT          CODE           0007:8790        000003e2
                CONST                 DATA           0009:0088        00000000
                CONST2                DATA           0009:01b8        00000000
                _DATA                 DATA           0009:3e3e        00000000
/mnt/sda5/.user/root/src/openwatcom-1.9/bld/aui/c/wndqryhk.c
                wndqryhk_TEXT         CODE           0007:8b80        00000003
                CONST                 DATA           0009:0088        00000000
                CONST2                DATA           0009:01b8        00000000
                _DATA                 DATA           0009:3e3e        00000000
/mnt/sda5/.user/root/src/openwatcom-1.9/bld/aui/c/wndendhk.c
                wndendhk_TEXT         CODE           0007:8b90        00000001
                CONST                 DATA           0009:0088        00000000
                CONST2                DATA           0009:01b8        00000000
                _DATA                 DATA           0009:3e3e        00000000
/mnt/sda5/.user/root/src/openwatcom-1.9/bld/gui/win/c/guixutil.c
                guixutil_TEXT         CODE           0007:8ba0        00000de4
                CONST                 DATA           0009:0088        00000000
                CONST2                DATA           0009:01b8        00000000
                _DATA                 DATA           0009:3e3e        00000000
/mnt/sda5/.user/root/src/openwatcom-1.9/bld/gui/c/guipixel.c
                guipixel_TEXT         CODE           0007:9990        0000002a
                CONST                 DATA           0009:0088        00000000
                CONST2                DATA           0009:01b8        00000000
                _DATA                 DATA           0009:3e3e        00000000
/mnt/sda5/.user/root/src/openwatcom-1.9/bld/gui/c/guidlg.c
                guidlg_TEXT           CODE           0007:99c0        000000bd
                CONST                 DATA           0009:0088        00000000
                CONST2                DATA           0009:01b8        00000000
                _DATA                 DATA           0009:3e3e        00000000
ldclass.c       _TEXT                 CODE           0006:35da        0000006c
                CONST                 DATA           0009:0088        00000000
                CONST2                DATA           0009:01b8        00000000
                _DATA                 DATA           0009:3e3e        00000000
bufld086        _TEXT                 CODE           0006:3646        000000c8
                _DATA                 DATA           0009:3e3e        00000000
inf_nan.c       _TEXT                 CODE           0006:370e        00000000
                CONST                 DATA           0009:0088        00000000
                CONST2                DATA           0009:01b8        00000028
                _DATA                 DATA           0009:3e3e        00000000
/mnt/sda5/.user/root/src/openwatcom-1.9/bld/aui/c/wndfref.c
                wndfref_TEXT          CODE           0007:9a80        0000001b
                CONST                 DATA           0009:0088        00000000
                CONST2                DATA           0009:01e0        00000000
                _DATA                 DATA           0009:3e3e        00000000
/mnt/sda5/.user/root/src/openwatcom-1.9/bld/gui/c/guicreat.c
                guicreat_TEXT         CODE           0007:9aa0        00000081
                CONST                 DATA           0009:0088        00000000
                CONST2                DATA           0009:01e0        00000000
                _DATA                 DATA           0009:3e3e        00000001
/mnt/sda5/.user/root/src/openwatcom-1.9/bld/gui/win/c/guimenus.c
                guimenus_TEXT         CODE           0007:9b30        000014a3
                CONST                 DATA           0009:0088        00000000
                CONST2                DATA           0009:01e0        00000000
                _DATA                 DATA           0009:3e40        00000026
/mnt/sda5/.user/root/src/openwatcom-1.9/bld/gui/win/c/guisicon.c
                guisicon_TEXT         CODE           0007:afe0        0000009e
                CONST                 DATA           0009:0088        00000000
                CONST2                DATA           0009:01e0        00000000
                _DATA                 DATA           0009:3e66        00000000
/mnt/sda5/.user/root/src/openwatcom-1.9/bld/gui/win/c/guidrect.c
                guidrect_TEXT         CODE           0007:b080        000000b6
                CONST                 DATA           0009:0088        00000000
                CONST2                DATA           0009:01e0        00000000
                _DATA                 DATA           0009:3e66        00000000
/mnt/sda5/.user/root/src/openwatcom-1.9/bld/gui/win/c/guidrow.c
                guidrow_TEXT          CODE           0007:b140        000000db
                CONST                 DATA           0009:0088        00000000
                CONST2                DATA           0009:01e0        00000000
                _DATA                 DATA           0009:3e66        00000000
/mnt/sda5/.user/root/src/openwatcom-1.9/bld/gui/win/c/guiiscrl.c
                guiiscrl_TEXT         CODE           0007:b220        00000127
                CONST                 DATA           0009:0088        00000000
                CONST2                DATA           0009:01e0        00000000
                _DATA                 DATA           0009:3e66        00000000
/mnt/sda5/.user/root/src/openwatcom-1.9/bld/gui/c/guidraw.c
                guidraw_TEXT          CODE           0007:b350        00000220
                CONST                 DATA           0009:0088        00000000
                CONST2                DATA           0009:01e0        00000000
                _DATA                 DATA           0009:3e66        00000000
/mnt/sda5/.user/root/src/openwatcom-1.9/bld/gui/win/c/guidoscr.c
                guidoscr_TEXT         CODE           0007:b570        00000202
                CONST                 DATA           0009:0088        00000000
                CONST2                DATA           0009:01e0        00000000
                _DATA                 DATA           0009:3e66        00000000
/mnt/sda5/.user/root/src/openwatcom-1.9/bld/gui/win/c/guidirty.c
                guidirty_TEXT         CODE           0007:b780        000000b5
                CONST                 DATA           0009:0088        00000000
                CONST2                DATA           0009:01e0        00000000
                _DATA                 DATA           0009:3e66        00000000
/mnt/sda5/.user/root/src/openwatcom-1.9/bld/gui/win/c/guiscrol.c
                guiscrol_TEXT         CODE           0007:b840        000007fa
                CONST                 DATA           0009:0088        00000000
                CONST2                DATA           0009:01e0        00000000
                _DATA                 DATA           0009:3e66        00000000
/mnt/sda5/.user/root/src/openwatcom-1.9/bld/gui/win/c/guixtent.c
                guixtent_TEXT         CODE           0007:c040        00000281
                CONST                 DATA           0009:0088        00000000
                CONST2                DATA           0009:01e0        00000000
                _DATA                 DATA           0009:3e66        00000000
/mnt/sda5/.user/root/src/openwatcom-1.9/bld/gui/win/c/guirect.c
                guirect_TEXT          CODE           0007:c2d0        00000171
                CONST                 DATA           0009:0088        00000000
                CONST2                DATA           0009:01e0        00000000
                _DATA                 DATA           0009:3e66        00000000
/mnt/sda5/.user/root/src/openwatcom-1.9/bld/gui/win/c/guimouse.c
                guimouse_TEXT         CODE           0007:c450        00000052
                CONST                 DATA           0009:0088        00000000
                CONST2                DATA           0009:01e0        00000000
                _DATA                 DATA           0009:3e66        00000000
/mnt/sda5/.user/root/src/openwatcom-1.9/bld/gui/win/c/guisize.c
                guisize_TEXT          CODE           0007:c4b0        00000384
                CONST                 DATA           0009:0088        00000000
                CONST2                DATA           0009:01e0        00000000
                _DATA                 DATA           0009:3e66        00000000
/mnt/sda5/.user/root/src/openwatcom-1.9/bld/gui/c/guizlist.c
                guizlist_TEXT         CODE           0007:c840        0000017c
                CONST                 DATA           0009:0088        00000000
                CONST2                DATA           0009:01e0        00000000
                _DATA                 DATA           0009:3e70        00000004
/mnt/sda5/.user/root/src/openwatcom-1.9/bld/gui/win/c/guixdisp.c
                guixdisp_TEXT         CODE           0007:c9c0        000000c7
                CONST                 DATA           0009:0088        00000000
                CONST2                DATA           0009:01e0        00000000
                _DATA                 DATA           0009:3e74        0000002c
/mnt/sda5/.user/root/src/openwatcom-1.9/bld/gui/win/c/guildstr.c
                guildstr_TEXT         CODE           0007:ca90        000000ee
                CONST                 DATA           0009:0088        00000000
                CONST2                DATA           0009:01e0        00000000
                _DATA                 DATA           0009:3ea0        00000002
/mnt/sda5/.user/root/src/openwatcom-1.9/bld/gui/win/c/guifront.c
                guifront_TEXT         CODE           0007:cb80        000001bf
                CONST                 DATA           0009:0088        00000000
                CONST2                DATA           0009:01e0        00000000
                _DATA                 DATA           0009:3ea2        00000000
/mnt/sda5/.user/root/src/openwatcom-1.9/bld/gui/win/c/guissel.c
                guissel_TEXT          CODE           0007:cd40        00000162
                CONST                 DATA           0009:0088        00000000
                CONST2                DATA           0009:01e0        00000000
                _DATA                 DATA           0009:3ea2        00000000
/mnt/sda5/.user/root/src/openwatcom-1.9/bld/gui/win/c/guigetrc.c
                guigetrc_TEXT         CODE           0007:ceb0        000000dc
                CONST                 DATA           0009:0088        00000000
                CONST2                DATA           0009:01e0        00000000
                _DATA                 DATA           0009:3ea2        00000000
/mnt/sda5/.user/root/src/openwatcom-1.9/bld/gui/win/c/guistrin.c
                guistrin_TEXT         CODE           0007:cf90        00000186
                CONST                 DATA           0009:0088        00000000
                CONST2                DATA           0009:01e0        00000000
                _DATA                 DATA           0009:3ea2        00000000
/mnt/sda5/.user/root/src/openwatcom-1.9/bld/gui/win/c/guixbar.c
                guixbar_TEXT          CODE           0007:d120        00000514
                CONST                 DATA           0009:0088        00000000
                CONST2                DATA           0009:01e0        00000000
                _DATA                 DATA           0009:3ea2        00000000
/mnt/sda5/.user/root/src/openwatcom-1.9/bld/gui/win/c/guidrawr.c
                guidrawr_TEXT         CODE           0007:d640        000004b5
                CONST                 DATA           0009:0088        00000000
                CONST2                DATA           0009:01e0        00000000
                _DATA                 DATA           0009:3ea2        00000000
/mnt/sda5/.user/root/src/openwatcom-1.9/bld/gui/win/c/guixhot.c
                guixhot_TEXT          CODE           0007:db00        0000020b
                CONST                 DATA           0009:0088        00000000
                CONST2                DATA           0009:01e0        00000000
                _DATA                 DATA           0009:3ea2        00000000
                _BSS                  BSS            0009:7f90        00000004
/mnt/sda5/.user/root/src/openwatcom-1.9/bld/sdk/misc/fontstr.c
                fontstr_TEXT          CODE           0007:dd10        00000169
                CONST                 DATA           0009:0088        00000059
                CONST2                DATA           0009:01e0        00000000
                _DATA                 DATA           0009:3eb0        00000008
/mnt/sda5/.user/root/src/openwatcom-1.9/bld/gui/c/guiutil.c
                guiutil_TEXT          CODE           0007:de80        00000212
                CONST                 DATA           0009:00e2        00000000
                CONST2                DATA           0009:01e0        00000000
                _DATA                 DATA           0009:3ec0        00000008
/mnt/sda5/.user/root/src/openwatcom-1.9/bld/gui/win/c/guitool.c
                guitool_TEXT          CODE           0007:e0a0        00000b4e
                CONST                 DATA           0009:00e2        00000000
                CONST2                DATA           0009:01e0        00000000
                _DATA                 DATA           0009:3ec8        00000000
/mnt/sda5/.user/root/src/openwatcom-1.9/bld/gui/c/guihtool.c
                guihtool_TEXT         CODE           0007:ebf0        00000181
                CONST                 DATA           0009:00e2        00000000
                CONST2                DATA           0009:01e0        00000000
                _DATA                 DATA           0009:3ec8        00000000
/mnt/sda5/.user/root/src/openwatcom-1.9/bld/gui/c/guisdef.c
                guisdef_TEXT          CODE           0007:ed80        00000000
                CONST                 DATA           0009:00e2        00000000
                CONST2                DATA           0009:01e0        00000000
                _DATA                 DATA           0009:3ec8        00000000
                _BSS                  BSS            0009:7fa0        00000118
/mnt/sda5/.user/root/src/openwatcom-1.9/bld/gui/win/c/guicutil.c
                guicutil_TEXT         CODE           0007:ed80        00000123
                CONST                 DATA           0009:00e2        00000000
                CONST2                DATA           0009:01e0        00000000
                _DATA                 DATA           0009:3ec8        00000000
/mnt/sda5/.user/root/src/openwatcom-1.9/bld/aui/c/rxwrap.c
                rxwrap_TEXT           CODE           0008:0000        0000133b
                CONST                 DATA           0009:00e2        00000000
                CONST2                DATA           0009:01e0        00000000
                _DATA                 DATA           0009:3ec8        0000000f
                _BSS                  BSS            0009:80c0        00000021
/mnt/sda5/.user/root/src/openwatcom-1.9/bld/gui/c/guihflt.c
                guihflt_TEXT          CODE           0008:1340        00000083
                CONST                 DATA           0009:00e2        00000000
                CONST2                DATA           0009:01e0        00000000
                _DATA                 DATA           0009:3ed8        00000000
/mnt/sda5/.user/root/src/openwatcom-1.9/bld/gui/win/c/guireset.c
                guireset_TEXT         CODE           0008:13d0        0000017b
                CONST                 DATA           0009:00e2        00000000
                CONST2                DATA           0009:01e0        00000000
                _DATA                 DATA           0009:3ed8        00000000
/mnt/sda5/.user/root/src/openwatcom-1.9/bld/gui/c/guihook.c
                guihook_TEXT          CODE           0008:1550        000001f4
                CONST                 DATA           0009:00e2        00000000
                CONST2                DATA           0009:01e0        00000000
                _DATA                 DATA           0009:3ee0        0000002c
/mnt/sda5/.user/root/src/openwatcom-1.9/bld/gui/win/c/guixhook.c
                guixhook_TEXT         CODE           0008:1750        000002a6
                CONST                 DATA           0009:00e2        00000000
                CONST2                DATA           0009:01e0        00000000
                _DATA                 DATA           0009:3f10        00000038
/mnt/sda5/.user/root/src/openwatcom-1.9/bld/gui/win/c/guirdlg.c
                guirdlg_TEXT          CODE           0008:1a00        0000026f
                CONST                 DATA           0009:00e2        0000002e
                CONST2                DATA           0009:01e0        00000000
                _DATA                 DATA           0009:3f48        000000b6
                _BSS                  BSS            0009:80e2        00000002
/mnt/sda5/.user/root/src/openwatcom-1.9/bld/gui/c/guimkey.c
                guimkey_TEXT          CODE           0008:1c70        0000032e
                CONST                 DATA           0009:0110        00000000
                CONST2                DATA           0009:01e0        00000000
                _DATA                 DATA           0009:3ffe        00000001
/mnt/sda5/.user/root/src/openwatcom-1.9/bld/gui/win/c/guimapky.c
                guimapky_TEXT         CODE           0008:1fa0        00000810
                CONST                 DATA           0009:0110        00000000
                CONST2                DATA           0009:01e0        00000000
                _DATA                 DATA           0009:4000        000000d0
/mnt/sda5/.user/root/src/openwatcom-1.9/bld/gui/win/c/guipaint.c
                guipaint_TEXT         CODE           0008:27b0        00000126
                CONST                 DATA           0009:0110        00000000
                CONST2                DATA           0009:01e0        00000000
                _DATA                 DATA           0009:40d0        00000000
/mnt/sda5/.user/root/src/openwatcom-1.9/bld/gui/win/c/windlg.c
                windlg_TEXT           CODE           0008:28e0        0000033e
                CONST                 DATA           0009:0110        00000000
                CONST2                DATA           0009:01e0        00000000
                _DATA                 DATA           0009:40d0        00000000
/mnt/sda5/.user/root/src/openwatcom-1.9/bld/gui/win/c/guifdlg.c
                guifdlg_TEXT          CODE           0008:2c20        000002cd
                CONST                 DATA           0009:0110        00000000
                CONST2                DATA           0009:01e0        00000000
                _DATA                 DATA           0009:40d0        00000001
                _BSS                  BSS            0009:80f0        00000004
/mnt/sda5/.user/root/src/openwatcom-1.9/bld/wpi/c/wpi_win.c
                wpi_win_TEXT          CODE           0008:2ef0        000009b2
                CONST                 DATA           0009:0110        00000000
                CONST2                DATA           0009:01e0        00000000
                _DATA                 DATA           0009:40d2        00000000
/mnt/sda5/.user/root/src/openwatcom-1.9/bld/gui/win/c/guicombo.c
                guicombo_TEXT         CODE           0008:38b0        000000f1
                CONST                 DATA           0009:0110        00000000
                CONST2                DATA           0009:01e0        00000000
                _DATA                 DATA           0009:40d2        00000000
/mnt/sda5/.user/root/src/openwatcom-1.9/bld/sdk/misc/wwinhelp.c
                wwinhelp_TEXT         CODE           0008:39b0        00000173
                CONST                 DATA           0009:0110        00000010
                CONST2                DATA           0009:01e0        00000000
                _DATA                 DATA           0009:40d2        00000001
/mnt/sda5/.user/root/src/openwatcom-1.9/bld/gui/win/c/guithumb.c
                guithumb_TEXT         CODE           0008:3b30        00000108
                CONST                 DATA           0009:0120        00000000
                CONST2                DATA           0009:01e0        00000000
                _DATA                 DATA           0009:40d4        00000000
/mnt/sda5/.user/root/src/openwatcom-1.9/bld/gui/win/c/guigscrl.c
                guigscrl_TEXT         CODE           0008:3c40        000000b9
                CONST                 DATA           0009:0120        00000000
                CONST2                DATA           0009:01e0        00000000
                _DATA                 DATA           0009:40d4        00000000
/mnt/sda5/.user/root/src/openwatcom-1.9/bld/gui/c/guideath.c
                guideath_TEXT         CODE           0008:3d00        00000004
                CONST                 DATA           0009:0120        00000000
                CONST2                DATA           0009:01e0        00000000
                _DATA                 DATA           0009:40d4        00000000
/mnt/sda5/.user/root/src/openwatcom-1.9/bld/gui/c/guistr.c
                guistr_TEXT           CODE           0008:3d10        00000743
                CONST                 DATA           0009:0120        00000000
                CONST2                DATA           0009:01e0        00000000
                _DATA                 DATA           0009:40d4        00000000
                _BSS                  BSS            0009:80f4        00000080
/mnt/sda5/.user/root/src/openwatcom-1.9/bld/gui/win/c/guixmain.c
                guixmain_TEXT         CODE           0008:4460        00000028
                CONST                 DATA           0009:0120        00000000
                CONST2                DATA           0009:01e0        00000000
                _DATA                 DATA           0009:40d4        00000001
/mnt/sda5/.user/root/src/openwatcom-1.9/bld/gui/c/guifcrck.c
                guifcrck_TEXT         CODE           0008:4490        00000003
                CONST                 DATA           0009:0120        00000000
                CONST2                DATA           0009:01e0        00000000
                _DATA                 DATA           0009:40d6        00000000
/mnt/sda5/.user/root/src/openwatcom-1.9/bld/gui/c/guidead.c
                guidead_TEXT          CODE           0008:44a0        00000004
                CONST                 DATA           0009:0120        00000000
                CONST2                DATA           0009:01e0        00000000
                _DATA                 DATA           0009:40d6        00000000
/mnt/sda5/.user/root/src/openwatcom-1.9/bld/gui/win/c/guiwinlp.c
                guiwinlp_TEXT         CODE           0008:44b0        00000070
                CONST                 DATA           0009:0120        00000000
                CONST2                DATA           0009:01e0        00000000
                _DATA                 DATA           0009:40d6        00000000
/mnt/sda5/.user/root/src/openwatcom-1.9/bld/gui/c/guihint.c
                guihint_TEXT          CODE           0008:4520        00000814
                CONST                 DATA           0009:0120        00000000
                CONST2                DATA           0009:01e0        00000000
                _DATA                 DATA           0009:40d6        00000000
/mnt/sda5/.user/root/src/openwatcom-1.9/bld/gui/win/c/guisystr.c
                guisystr_TEXT         CODE           0008:4d40        00000001
                CONST                 DATA           0009:0120        00000000
                CONST2                DATA           0009:01e0        00000000
                _DATA                 DATA           0009:40d6        00000000
/mnt/sda5/.user/root/src/openwatcom-1.9/bld/gui/win/c/guiximdi.c
                guiximdi_TEXT         CODE           0008:4d50        000000aa
                CONST                 DATA           0009:0120        00000000
                CONST2                DATA           0009:01e0        00000000
                _DATA                 DATA           0009:40d6        00000000
/mnt/sda5/.user/root/src/openwatcom-1.9/bld/gui/c/guimdi.c
                guimdi_TEXT           CODE           0008:4e00        00000b23
                CONST                 DATA           0009:0120        00000001
                CONST2                DATA           0009:01e0        00000000
                _DATA                 DATA           0009:40e0        00000038
                _BSS                  BSS            0009:8180        000002f4
/mnt/sda5/.user/root/src/openwatcom-1.9/bld/gui/win/c/guixscal.c
                guixscal_TEXT         CODE           0008:5930        00000356
                CONST                 DATA           0009:0122        00000000
                CONST2                DATA           0009:01e0        00000000
                _DATA                 DATA           0009:4118        00000000
                _BSS                  BSS            0009:8474        0000001f
stack086.c      _TEXT                 CODE           0006:370e        0000000d
                CONST                 DATA           0009:0122        00000000
                CONST2                DATA           0009:01e0        00000000
                _DATA                 DATA           0009:4118        00000000
/mnt/sda5/.user/root/src/openwatcom-1.9/bld/sdk/misc/wstatus.c
                wstatus_TEXT          CODE           0008:5c90        00000a38
                CONST                 DATA           0009:0122        0000000a
                CONST2                DATA           0009:01e0        00000000
                _DATA                 DATA           0009:4120        00000008
                _BSS                  BSS            0009:84a0        0000011e
/mnt/sda5/.user/root/src/openwatcom-1.9/bld/gui/win/c/guienum.c
                guienum_TEXT          CODE           0008:66d0        00000108
                CONST                 DATA           0009:012c        00000000
                CONST2                DATA           0009:01e0        00000000
                _DATA                 DATA           0009:4128        00000000
/mnt/sda5/.user/root/src/openwatcom-1.9/bld/gui/c/guisetup.c
                guisetup_TEXT         CODE           0008:67e0        00000087
                CONST                 DATA           0009:012c        00000000
                CONST2                DATA           0009:01e0        00000000
                _DATA                 DATA           0009:4128        00000000
/mnt/sda5/.user/root/src/openwatcom-1.9/bld/gui/win/c/guifloat.c
                guifloat_TEXT         CODE           0008:6870        0000022a
                CONST                 DATA           0009:012c        00000000
                CONST2                DATA           0009:01e0        00000000
                _DATA                 DATA           0009:4128        00000003
/mnt/sda5/.user/root/src/openwatcom-1.9/bld/gui/win/c/guixdraw.c
                guixdraw_TEXT         CODE           0008:6aa0        000004f2
                CONST                 DATA           0009:012c        00000000
                CONST2                DATA           0009:01e0        00000000
                _DATA                 DATA           0009:412c        00000000
/mnt/sda5/.user/root/src/openwatcom-1.9/bld/gui/win/c/guigetx.c
                guigetx_TEXT          CODE           0008:6fa0        00000083
                CONST                 DATA           0009:012c        00000000
                CONST2                DATA           0009:01e0        00000000
                _DATA                 DATA           0009:412c        00000000
/mnt/sda5/.user/root/src/openwatcom-1.9/bld/gui/c/guiextnm.c
                guiextnm_TEXT         CODE           0008:7030        0000006e
                CONST                 DATA           0009:012c        00000000
                CONST2                DATA           0009:01e0        00000000
                _DATA                 DATA           0009:412c        00000090
sscanf.c        _TEXT                 CODE           0006:371b        000000ab
                CONST                 DATA           0009:012c        00000000
                CONST2                DATA           0009:01e0        00000000
                _DATA                 DATA           0009:41bc        00000000
/mnt/sda5/.user/root/src/openwatcom-1.9/bld/sdk/misc/wptoolbr.c
                wptoolbr_TEXT         CODE           0008:70a0        0000197f
                CONST                 DATA           0009:012c        00000006
                CONST2                DATA           0009:01e0        00000000
                _DATA                 DATA           0009:41c0        0000000c
                _BSS                  BSS            0009:85c0        00000019
strcspn.c       _TEXT                 CODE           0006:37c6        00000052
                CONST                 DATA           0009:0132        00000000
                CONST2                DATA           0009:01e0        00000000
                _DATA                 DATA           0009:41cc        00000000
strncmp.c       _TEXT                 CODE           0006:3818        00000042
                CONST                 DATA           0009:0132        00000000
                CONST2                DATA           0009:01e0        00000000
                _DATA                 DATA           0009:41cc        00000000
dosdrive        _TEXT                 CODE           0006:385a        0000002a
                _DATA                 DATA           0009:41cc        00000000
mbisdbcs.c      _TEXT                 CODE           0006:3884        00000000
                CONST                 DATA           0009:0132        00000000
                CONST2                DATA           0009:01e0        00000000
                _DATA                 DATA           0009:41cc        00000000
                _BSS                  BSS            0009:85da        00000002
searchen.c      _TEXT                 CODE           0006:3884        0000018f
                CONST                 DATA           0009:0132        00000000
                CONST2                DATA           0009:01e0        00000000
                _DATA                 DATA           0009:41cc        00000000
splitpat.c      _TEXT                 CODE           0006:3a13        00000168
                CONST                 DATA           0009:0132        00000000
                CONST2                DATA           0009:01e0        00000000
                _DATA                 DATA           0009:41cc        00000000
argcv.c         _TEXT                 CODE           0006:3b7b        00000000
                CONST                 DATA           0009:0132        00000000
                CONST2                DATA           0009:01e0        00000000
                _DATA                 DATA           0009:41cc        00000000
                _BSS                  BSS            0009:85dc        0000000c
                XIB                   DATA           0009:4572        00000000
                XI                    DATA           0009:4578        00000006
                XIE                   DATA           0009:459c        00000000
                YIB                   DATA           0009:459c        00000000
                YI                    DATA           0009:45a2        00000006
                YIE                   DATA           0009:45ba        00000000
wstart          _TEXT                 CODE           0006:3b7c        000000f4
                _DATA                 DATA           0009:41cc        000000b4
                XIB                   DATA           0009:4572        00000000
                XI                    DATA           0009:457e        00000000
                XIE                   DATA           0009:459c        00000000
                YIB                   DATA           0009:459c        00000000
                YI                    DATA           0009:45a8        00000000
                YIE                   DATA           0009:45ba        00000000
                FAR_DATA              FAR_DATA       0009:0000        00000000
                _NULL                 BEGDATA        0009:0000        00000010
                AFX_NULL              BEGDATA        0009:0010        00000000
                CONST                 DATA           0009:0132        00000000
                STRINGS               DATA           0009:45ba        00000000
                DATA                  DATA           0009:45ba        00000000
                BCSD                  DATA           0009:45ba        00000000
                _BSS                  BSS            0009:85e8        00000000
                STACK                 STACK          0009:8720        00000000
itoa.c          _TEXT                 CODE           0006:3c70        0000008b
                CONST                 DATA           0009:0132        00000000
                CONST2                DATA           0009:01e0        00000000
                _DATA                 DATA           0009:4280        00000000
/mnt/sda5/.user/root/src/openwatcom-1.9/bld/gui/win/c/mem.c
                mem_TEXT              CODE           0008:8a20        00000042
                CONST                 DATA           0009:0132        00000000
                CONST2                DATA           0009:01e0        00000000
                _DATA                 DATA           0009:4280        00000000
scnf.c          _TEXT                 CODE           0006:3cfb        000011e8
                CONST                 DATA           0009:0132        00000000
                CONST2                DATA           0009:01e0        00000000
                _DATA                 DATA           0009:4280        00000000
setbits.c       _TEXT                 CODE           0006:4ee3        00000054
                CONST                 DATA           0009:0132        00000000
                CONST2                DATA           0009:01e0        00000000
                _DATA                 DATA           0009:4280        00000000
bits.c          _TEXT                 CODE           0006:4f37        00000000
                CONST                 DATA           0009:0132        00000000
                CONST2                DATA           0009:01e0        00000008
                _DATA                 DATA           0009:4280        00000000
errno.c         _TEXT                 CODE           0006:4f37        0000000c
                CONST                 DATA           0009:0132        00000000
                CONST2                DATA           0009:01e8        00000000
                _DATA                 DATA           0009:4280        00000000
                _BSS                  BSS            0009:85e8        00000004
accss.c         _TEXT                 CODE           0006:4f43        0000003d
                CONST                 DATA           0009:0132        00000000
                CONST2                DATA           0009:01e8        00000000
                _DATA                 DATA           0009:4280        00000000
gtcwd.c         _TEXT                 CODE           0006:4f80        000000b4
                CONST                 DATA           0009:0132        00000000
                CONST2                DATA           0009:01e8        00000000
                _DATA                 DATA           0009:4280        00000000
strlen.c        _TEXT                 CODE           0006:5034        0000001b
                CONST                 DATA           0009:0132        00000000
                CONST2                DATA           0009:01e8        00000000
                _DATA                 DATA           0009:4280        00000000
strncat.c       _TEXT                 CODE           0006:504f        00000041
                CONST                 DATA           0009:0132        00000000
                CONST2                DATA           0009:01e8        00000000
                _DATA                 DATA           0009:4280        00000000
strcat.c        _TEXT                 CODE           0006:5090        00000036
                CONST                 DATA           0009:0132        00000000
                CONST2                DATA           0009:01e8        00000000
                _DATA                 DATA           0009:4280        00000000
seterrno.c      _TEXT                 CODE           0006:50c6        00000071
                CONST                 DATA           0009:0132        00000000
                CONST2                DATA           0009:01e8        00000000
                _DATA                 DATA           0009:4280        00000000
mbsnccnt.c      _TEXT                 CODE           0006:5137        0000003a
                CONST                 DATA           0009:0132        00000000
                CONST2                DATA           0009:01e8        00000000
                _DATA                 DATA           0009:4280        00000000
mbsncpy.c       _TEXT                 CODE           0006:5171        00000039
                CONST                 DATA           0009:0132        00000000
                CONST2                DATA           0009:01e8        00000000
                _DATA                 DATA           0009:4280        00000000
mbsnbcnt.c      _TEXT                 CODE           0006:51aa        00000072
                CONST                 DATA           0009:0132        00000000
                CONST2                DATA           0009:01e8        00000000
                _DATA                 DATA           0009:4280        00000000
mbsnextc.c      _TEXT                 CODE           0006:521c        0000002c
                CONST                 DATA           0009:0132        00000000
                CONST2                DATA           0009:01e8        00000000
                _DATA                 DATA           0009:4280        00000000
mbsinc.c        _TEXT                 CODE           0006:5248        00000035
                CONST                 DATA           0009:0132        00000000
                CONST2                DATA           0009:01e8        00000000
                _DATA                 DATA           0009:4280        00000000
initargv.c      _TEXT                 CODE           0006:527d        0000029c
                CONST                 DATA           0009:0132        00000000
                CONST2                DATA           0009:01e8        00000000
                _DATA                 DATA           0009:4280        00000000
                _BSS                  BSS            0009:85ec        00000004
exit.c          _TEXT                 CODE           0006:5519        0000004d
                CONST                 DATA           0009:0132        00000000
                CONST2                DATA           0009:01e8        00000000
                _DATA                 DATA           0009:4280        00000008
initrtns.c      _TEXT                 CODE           0006:5566        00000115
                CONST                 DATA           0009:0132        00000000
                CONST2                DATA           0009:01e8        00000000
                _DATA                 DATA           0009:4288        00000000
dosseg          _TEXT                 CODE           0006:567c        00000001
                _DATA                 DATA           0009:4288        00000000
alphabet.c      _TEXT                 CODE           0006:567d        00000000
                CONST                 DATA           0009:0132        00000025
                CONST2                DATA           0009:01e8        00000000
                _DATA                 DATA           0009:4288        00000000
mbislead.c      _TEXT                 CODE           0006:567d        0000001e
                CONST                 DATA           0009:0158        00000000
                CONST2                DATA           0009:01e8        00000000
                _DATA                 DATA           0009:4288        00000000
                _BSS                  BSS            0009:85f0        00000101
                XIB                   DATA           0009:4572        00000000
                XI                    DATA           0009:457e        00000006
                XIE                   DATA           0009:459c        00000000
mbtowc.c        _TEXT                 CODE           0006:569b        000000e9
                CONST                 DATA           0009:0158        00000000
                CONST2                DATA           0009:01e8        00000000
                _DATA                 DATA           0009:4288        00000000
fdfs086         _TEXT                 CODE           0006:5784        00000047
                _DATA                 DATA           0009:4288        00000000
noefgfmt.c      _TEXT                 CODE           0006:57cb        00000018
                CONST                 DATA           0009:0158        00000022
                CONST2                DATA           0009:01e8        00000000
                _DATA                 DATA           0009:4288        00000008
i8m086          _TEXT                 CODE           0006:57e4        00000165
                _DATA                 DATA           0009:4290        00000000
gfattdos.c      _TEXT                 CODE           0006:5949        0000001d
                CONST                 DATA           0009:017a        00000000
                CONST2                DATA           0009:01e8        00000000
                _DATA                 DATA           0009:4290        00000000
dosret.c        _TEXT                 CODE           0006:5966        00000091
                CONST                 DATA           0009:017a        00000000
                CONST2                DATA           0009:01e8        00000000
                _DATA                 DATA           0009:4290        00000014
doserror        _TEXT                 CODE           0006:59f8        0000000e
                _DATA                 DATA           0009:42a4        00000000
mbterm.c        _TEXT                 CODE           0006:5a06        0000003c
                CONST                 DATA           0009:017a        00000000
                CONST2                DATA           0009:01e8        00000000
                _DATA                 DATA           0009:42a4        00000000
mbclen.c        _TEXT                 CODE           0006:5a42        00000027
                CONST                 DATA           0009:017a        00000000
                CONST2                DATA           0009:01e8        00000000
                _DATA                 DATA           0009:42a4        00000000
mbsnbcpy.c      _TEXT                 CODE           0006:5a69        0000007e
                CONST                 DATA           0009:017a        00000000
                CONST2                DATA           0009:01e8        00000000
                _DATA                 DATA           0009:42a4        00000000
histsplt.c      _TEXT                 CODE           0006:5ae7        00000000
                CONST                 DATA           0009:017a        00000000
                CONST2                DATA           0009:01e8        00000000
                _DATA                 DATA           0009:42a4        00000000
                _BSS                  BSS            0009:86f2        00000002
___argc.c       _TEXT                 CODE           0006:5ae7        00000000
                CONST                 DATA           0009:017a        00000000
                CONST2                DATA           0009:01e8        00000000
                _DATA                 DATA           0009:42a4        00000000
                _BSS                  BSS            0009:86f4        00000006
winrtns.c       _TEXT                 CODE           0006:5ae7        00000000
                CONST                 DATA           0009:017a        00000000
                CONST2                DATA           0009:01e8        00000000
                _DATA                 DATA           0009:42a4        00000044
sgdef086        _TEXT                 CODE           0006:5ae8        00000000
                _DATA                 DATA           0009:42e8        00000000
                XIB                   DATA           0009:4572        00000000
                XI                    DATA           0009:4584        00000000
                XIE                   DATA           0009:459c        00000000
                YIB                   DATA           0009:459c        00000000
                YI                    DATA           0009:45a8        00000000
                YIE                   DATA           0009:45ba        00000000
mbinit.c        _TEXT                 CODE           0006:5ae8        000000d2
                CONST                 DATA           0009:017a        00000000
                CONST2                DATA           0009:01e8        00000000
                _DATA                 DATA           0009:42e8        00000002
xmsgwin.c       _TEXT                 CODE           0006:5bba        0000007e
                CONST                 DATA           0009:017a        0000000c
                CONST2                DATA           0009:01e8        00000000
                _DATA                 DATA           0009:42ea        00000000
enterdb.c       _TEXT                 CODE           0006:5c38        00000024
                CONST                 DATA           0009:0186        00000000
                CONST2                DATA           0009:01e8        00000000
                _DATA                 DATA           0009:42ea        00000001
getenv.c        _TEXT                 CODE           0006:5c5c        000000c7
                CONST                 DATA           0009:0186        00000000
                CONST2                DATA           0009:01e8        00000000
                _DATA                 DATA           0009:42ec        00000000
setenv.c        _TEXT                 CODE           0006:5d23        00000589
                CONST                 DATA           0009:0186        00000000
                CONST2                DATA           0009:01e8        00000000
                _DATA                 DATA           0009:42ec        00000000
strstr.c        _TEXT                 CODE           0006:62ac        000000bf
                CONST                 DATA           0009:0186        00000000
                CONST2                DATA           0009:01e8        00000000
                _DATA                 DATA           0009:42ec        00000000
fmalloc.c       _TEXT                 CODE           0006:636b        00000103
                CONST                 DATA           0009:0186        00000000
                CONST2                DATA           0009:01e8        00000000
                _DATA                 DATA           0009:42ec        00000006
ffree.c         _TEXT                 CODE           0006:646e        00000049
                CONST                 DATA           0009:0186        00000000
                CONST2                DATA           0009:01e8        00000000
                _DATA                 DATA           0009:42f2        00000000
cmdname.c       _TEXT                 CODE           0006:64b7        0000003f
                CONST                 DATA           0009:0186        00000000
                CONST2                DATA           0009:01e8        00000000
                _DATA                 DATA           0009:42f2        00000000
cmodel          _TEXT                 CODE           0006:64f6        00000000
                _DATA                 DATA           0009:42f2        00000000
_8087           _TEXT                 CODE           0006:64f6        00000000
                _DATA                 DATA           0009:42f2        00000002
                XIB                   DATA           0009:4572        00000000
                XI                    DATA           0009:4584        00000006
                XIE                   DATA           0009:459c        00000000
                YIB                   DATA           0009:459c        00000000
                YI                    DATA           0009:45a8        00000000
                YIE                   DATA           0009:45ba        00000000
gtcmddos.c      _TEXT                 CODE           0006:64f6        000000a8
                CONST                 DATA           0009:0186        00000000
                CONST2                DATA           0009:01e8        00000000
                _DATA                 DATA           0009:42f4        00000000
memmove.c       _TEXT                 CODE           0006:659e        00000079
                CONST                 DATA           0009:0186        00000000
                CONST2                DATA           0009:01e8        00000000
                _DATA                 DATA           0009:42f4        00000000
istable.c       _TEXT                 CODE           0006:6617        00000000
                CONST                 DATA           0009:0186        00000000
                CONST2                DATA           0009:01e8        00000101
                _DATA                 DATA           0009:42f4        00000000
i4m             _TEXT                 CODE           0006:6618        00000018
                _DATA                 DATA           0009:42f4        00000000
i4d             _TEXT                 CODE           0006:6630        000000d3
                _DATA                 DATA           0009:42f4        00000000
sprintf.c       _TEXT                 CODE           0006:6703        00000032
                CONST                 DATA           0009:0186        00000000
                CONST2                DATA           0009:02ea        00000000
                _DATA                 DATA           0009:42f4        00000000
setjmp          _TEXT                 CODE           0006:6736        00000079
                _DATA                 DATA           0009:42f4        00000000
stricmp.c       _TEXT                 CODE           0006:67af        0000003e
                CONST                 DATA           0009:0186        00000000
                CONST2                DATA           0009:02ea        00000000
                _DATA                 DATA           0009:42f4        00000000
tolower.c       _TEXT                 CODE           0006:67ed        0000000e
                CONST                 DATA           0009:0186        00000000
                CONST2                DATA           0009:02ea        00000000
                _DATA                 DATA           0009:42f4        00000000
strtol.c        _TEXT                 CODE           0006:67fb        00000264
                CONST                 DATA           0009:0186        00000000
                CONST2                DATA           0009:02ea        00000000
                _DATA                 DATA           0009:42f4        0000008c
fltused.c       _TEXT                 CODE           0006:6a5f        00000000
                CONST                 DATA           0009:0186        00000000
                CONST2                DATA           0009:02ea        00000000
                _DATA                 DATA           0009:4380        00000002
                XIB                   DATA           0009:4572        00000000
                XI                    DATA           0009:458a        00000006
                XIE                   DATA           0009:459c        00000000
strlwr.c        _TEXT                 CODE           0006:6a5f        00000024
                CONST                 DATA           0009:0186        00000000
                CONST2                DATA           0009:02ea        00000000
                _DATA                 DATA           0009:4382        00000000
toupper.c       _TEXT                 CODE           0006:6a83        0000000e
                CONST                 DATA           0009:0186        00000000
                CONST2                DATA           0009:02ea        00000000
                _DATA                 DATA           0009:4382        00000000
memicmp.c       _TEXT                 CODE           0006:6a91        00000050
                CONST                 DATA           0009:0186        00000000
                CONST2                DATA           0009:02ea        00000000
                _DATA                 DATA           0009:4382        00000000
strnicmp.c      _TEXT                 CODE           0006:6ae1        00000054
                CONST                 DATA           0009:0186        00000000
                CONST2                DATA           0009:02ea        00000000
                _DATA                 DATA           0009:4382        00000000
memcmp.c        _TEXT                 CODE           0006:6b35        0000002a
                CONST                 DATA           0009:0186        00000000
                CONST2                DATA           0009:02ea        00000000
                _DATA                 DATA           0009:4382        00000000
frealloc.c      _TEXT                 CODE           0006:6b5f        000000e0
                CONST                 DATA           0009:0186        00000000
                CONST2                DATA           0009:02ea        00000000
                _DATA                 DATA           0009:4382        00000000
fheapwal.c      _TEXT                 CODE           0006:6c3f        00000016
                CONST                 DATA           0009:0186        00000000
                CONST2                DATA           0009:02ea        00000000
                _DATA                 DATA           0009:4382        00000000
qsort.c         _TEXT                 CODE           0006:6c55        00000603
                CONST                 DATA           0009:0186        00000000
                CONST2                DATA           0009:02ea        00000000
                _DATA                 DATA           0009:4382        00000000
open.c          _TEXT                 CODE           0006:7258        00000296
                CONST                 DATA           0009:0186        00000004
                CONST2                DATA           0009:02ea        00000000
                _DATA                 DATA           0009:4382        00000000
close.c         _TEXT                 CODE           0006:74ee        0000000c
                CONST                 DATA           0009:018a        00000000
                CONST2                DATA           0009:02ea        00000000
                _DATA                 DATA           0009:4382        00000000
read.c          _TEXT                 CODE           0006:74fa        00000181
                CONST                 DATA           0009:018a        00000000
                CONST2                DATA           0009:02ea        00000000
                _DATA                 DATA           0009:4382        00000000
lseek.c         _TEXT                 CODE           0006:767b        00000037
                CONST                 DATA           0009:018a        00000000
                CONST2                DATA           0009:02ea        00000000
                _DATA                 DATA           0009:4382        00000000
strupr.c        _TEXT                 CODE           0006:76b2        00000024
                CONST                 DATA           0009:018a        00000000
                CONST2                DATA           0009:02ea        00000000
                _DATA                 DATA           0009:4382        00000000
strncpy.c       _TEXT                 CODE           0006:76d6        0000003e
                CONST                 DATA           0009:018a        00000000
                CONST2                DATA           0009:02ea        00000000
                _DATA                 DATA           0009:4382        00000000
init8087        _TEXT                 CODE           0006:7714        00000045
                _DATA                 DATA           0009:4382        00000000
sigfpe.c        _TEXT                 CODE           0006:7759        00000094
                CONST                 DATA           0009:018a        00000000
                CONST2                DATA           0009:02ea        00000000
                _DATA                 DATA           0009:4382        00000000
hugeval.c       _TEXT                 CODE           0006:77ed        00000000
                CONST                 DATA           0009:018a        00000000
                CONST2                DATA           0009:02ea        00000008
                _DATA                 DATA           0009:4382        00000000
strrchr.c       _TEXT                 CODE           0006:77ed        0000002b
                CONST                 DATA           0009:018a        00000000
                CONST2                DATA           0009:02f2        00000000
                _DATA                 DATA           0009:4382        00000000
atoi.c          _TEXT                 CODE           0006:7818        0000005c
                CONST                 DATA           0009:018a        00000000
                CONST2                DATA           0009:02f2        00000000
                _DATA                 DATA           0009:4382        00000000
split2.c        _TEXT                 CODE           0006:7874        0000023f
                CONST                 DATA           0009:018a        00000000
                CONST2                DATA           0009:02f2        00000000
                _DATA                 DATA           0009:4382        00000000
makepath.c      _TEXT                 CODE           0006:7ab3        00000285
                CONST                 DATA           0009:018a        00000000
                CONST2                DATA           0009:02f2        00000000
                _DATA                 DATA           0009:4382        00000000
environ.c       _TEXT                 CODE           0006:7d38        00000000
                CONST                 DATA           0009:018a        00000000
                CONST2                DATA           0009:02f2        00000000
                _DATA                 DATA           0009:4382        00000000
                _BSS                  BSS            0009:86fa        0000000c
                XIB                   DATA           0009:4572        00000000
                XI                    DATA           0009:4590        00000006
                XIE                   DATA           0009:459c        00000000
                YIB                   DATA           0009:459c        00000000
                YI                    DATA           0009:45a8        00000006
                YIE                   DATA           0009:45ba        00000000
mbcupper.c      _TEXT                 CODE           0006:7d38        00000024
                CONST                 DATA           0009:018a        00000000
                CONST2                DATA           0009:02f2        00000000
                _DATA                 DATA           0009:4382        00000000
mbslen.c        _TEXT                 CODE           0006:7d5c        00000032
                CONST                 DATA           0009:018a        00000000
                CONST2                DATA           0009:02f2        00000000
                _DATA                 DATA           0009:4382        00000000
mbstowcs.c      _TEXT                 CODE           0006:7d8e        000000ad
                CONST                 DATA           0009:018a        00000000
                CONST2                DATA           0009:02f2        00000000
                _DATA                 DATA           0009:4382        00000000
usetenv.c       _TEXT                 CODE           0006:7e3b        0000045b
                CONST                 DATA           0009:018a        00000000
                CONST2                DATA           0009:02f2        00000000
                _DATA                 DATA           0009:4382        00000000
mem.c           _TEXT                 CODE           0006:82a0        0000022d
                CONST                 DATA           0009:018a        00000000
                CONST2                DATA           0009:02f2        00000000
                _DATA                 DATA           0009:4382        00000000
growseg.c       _TEXT                 CODE           0006:84cd        0000013a
                CONST                 DATA           0009:018a        00000000
                CONST2                DATA           0009:02f2        00000000
                _DATA                 DATA           0009:4382        00000000
allocseg.c      _TEXT                 CODE           0006:8607        000000da
                CONST                 DATA           0009:018a        00000000
                CONST2                DATA           0009:02f2        00000000
                _DATA                 DATA           0009:4382        00000000
nmalloc.c       _TEXT                 CODE           0006:86e1        000000c4
                CONST                 DATA           0009:018a        00000000
                CONST2                DATA           0009:02f2        00000000
                _DATA                 DATA           0009:4382        00000006
nfree.c         _TEXT                 CODE           0006:87a5        000000cb
                CONST                 DATA           0009:018a        00000000
                CONST2                DATA           0009:02f2        00000000
                _DATA                 DATA           0009:4388        00000000
                _BSS                  BSS            0009:8706        00000002
chk8087.c       _TEXT                 CODE           0006:8870        000000b9
                CONST                 DATA           0009:018a        00000000
                CONST2                DATA           0009:02f2        00000000
                _DATA                 DATA           0009:4388        00000000
vsprintf.c      _TEXT                 CODE           0006:8929        00000055
                CONST                 DATA           0009:018a        00000000
                CONST2                DATA           0009:02f2        00000000
                _DATA                 DATA           0009:4388        00000000
ljmphdl.c       _TEXT                 CODE           0006:897e        00000001
                CONST                 DATA           0009:018a        00000000
                CONST2                DATA           0009:02f2        00000000
                _DATA                 DATA           0009:4388        00000004
setefg.c        _TEXT                 CODE           0006:897f        00000019
                CONST                 DATA           0009:018a        00000000
                CONST2                DATA           0009:02f2        00000000
                _DATA                 DATA           0009:438c        00000000
fmsize.c        _TEXT                 CODE           0006:8998        00000012
                CONST                 DATA           0009:018a        00000000
                CONST2                DATA           0009:02f2        00000000
                _DATA                 DATA           0009:438c        00000000
nexpand.c       _TEXT                 CODE           0006:89aa        000001c9
                CONST                 DATA           0009:018a        00000000
                CONST2                DATA           0009:02f2        00000000
                _DATA                 DATA           0009:438c        00000000
fexpand.c       _TEXT                 CODE           0006:8b73        00000047
                CONST                 DATA           0009:018a        00000000
                CONST2                DATA           0009:02f2        00000000
                _DATA                 DATA           0009:438c        00000000
heapwalk.c      _TEXT                 CODE           0006:8bba        000001a2
                CONST                 DATA           0009:018a        00000000
                CONST2                DATA           0009:02f2        00000000
                _DATA                 DATA           0009:438c        00000000
opendos.c       _TEXT                 CODE           0006:8d5c        00000028
                CONST                 DATA           0009:018a        00000000
                CONST2                DATA           0009:02f2        00000000
                _DATA                 DATA           0009:438c        00000000
iomode.c        _TEXT                 CODE           0006:8d84        00000036
                CONST                 DATA           0009:018a        00000000
                CONST2                DATA           0009:02f2        00000000
                _DATA                 DATA           0009:438c        0000002e
isatt.c         _TEXT                 CODE           0006:8dba        00000041
                CONST                 DATA           0009:018a        00000000
                CONST2                DATA           0009:02f2        00000000
                _DATA                 DATA           0009:43ba        00000000
umaskval.c      _TEXT                 CODE           0006:8dfb        00000000
                CONST                 DATA           0009:018a        00000000
                CONST2                DATA           0009:02f2        00000000
                _DATA                 DATA           0009:43ba        00000002
creatdos.c      _TEXT                 CODE           0006:8dfb        00000049
                CONST                 DATA           0009:018a        00000000
                CONST2                DATA           0009:02f2        00000000
                _DATA                 DATA           0009:43bc        00000000
stiomode.c      _TEXT                 CODE           0006:8e44        00000147
                CONST                 DATA           0009:018a        00000000
                CONST2                DATA           0009:02f2        00000000
                _DATA                 DATA           0009:43bc        00000000
                _BSS                  BSS            0009:8708        00000002
                YIB                   DATA           0009:459c        00000000
                YI                    DATA           0009:45ae        00000006
                YIE                   DATA           0009:45ba        00000000
iob.c           _TEXT                 CODE           0006:8f8b        00000000
                CONST                 DATA           0009:018a        00000000
                CONST2                DATA           0009:02f2        00000000
                _DATA                 DATA           0009:43bc        0000016a
                _BSS                  BSS            0009:870a        00000008
                XIB                   DATA           0009:4572        00000000
                XI                    DATA           0009:4596        00000006
                XIE                   DATA           0009:459c        00000000
                YIB                   DATA           0009:459c        00000000
                YI                    DATA           0009:45b4        00000006
                YIE                   DATA           0009:45ba        00000000
_clse.c         _TEXT                 CODE           0006:8f8b        00000066
                CONST                 DATA           0009:018a        00000000
                CONST2                DATA           0009:02f2        00000000
                _DATA                 DATA           0009:4526        00000000
iomodtty.c      _TEXT                 CODE           0006:8ff1        00000056
                CONST                 DATA           0009:018a        00000000
                CONST2                DATA           0009:02f2        00000000
                _DATA                 DATA           0009:4526        00000000
__lseek.c       _TEXT                 CODE           0006:9047        0000003d
                CONST                 DATA           0009:018a        00000000
                CONST2                DATA           0009:02f2        00000000
                _DATA                 DATA           0009:4526        00000000
8087cw.c        _TEXT                 CODE           0006:9084        00000000
                CONST                 DATA           0009:018a        00000000
                CONST2                DATA           0009:02f2        00000000
                _DATA                 DATA           0009:4526        00000002
sigtab.c        _TEXT                 CODE           0006:9084        00000000
                CONST                 DATA           0009:018a        00000000
                CONST2                DATA           0009:02f2        00000000
                _DATA                 DATA           0009:4528        00000034
mbconv.c        _TEXT                 CODE           0006:9084        00000018
                CONST                 DATA           0009:018a        00000000
                CONST2                DATA           0009:02f2        00000000
                _DATA                 DATA           0009:455c        00000000
mbsdec.c        _TEXT                 CODE           0006:909c        00000086
                CONST                 DATA           0009:018a        00000000
                CONST2                DATA           0009:02f2        00000000
                _DATA                 DATA           0009:455c        00000000
setenvp.c       _TEXT                 CODE           0006:9122        0000014a
                CONST                 DATA           0009:018a        00000000
                CONST2                DATA           0009:02f2        00000000
                _DATA                 DATA           0009:455c        00000000
                _BSS                  BSS            0009:8712        00000004
mbdtoupp.c      _TEXT                 CODE           0006:926c        0000000e
                CONST                 DATA           0009:018a        00000000
                CONST2                DATA           0009:02f2        00000000
                _DATA                 DATA           0009:455c        00000000
crtwenv.c       _TEXT                 CODE           0006:927a        0000008b
                CONST                 DATA           0009:018a        00000000
                CONST2                DATA           0009:02f2        00000000
                _DATA                 DATA           0009:455c        00000000
ugetenv.c       _TEXT                 CODE           0006:9305        000000b2
                CONST                 DATA           0009:018a        00000000
                CONST2                DATA           0009:02f2        00000000
                _DATA                 DATA           0009:455c        00000000
ustrlen.c       _TEXT                 CODE           0006:93b7        00000017
                CONST                 DATA           0009:018a        00000000
                CONST2                DATA           0009:02f2        00000000
                _DATA                 DATA           0009:455c        00000000
wcstombs.c      _TEXT                 CODE           0006:93ce        000000ae
                CONST                 DATA           0009:018a        00000000
                CONST2                DATA           0009:02f2        00000000
                _DATA                 DATA           0009:455c        00000000
utoupper.c      _TEXT                 CODE           0006:947c        0000000e
                CONST                 DATA           0009:018a        00000000
                CONST2                DATA           0009:02f2        00000000
                _DATA                 DATA           0009:455c        00000000
memcpy.c        _TEXT                 CODE           0006:948a        00000027
                CONST                 DATA           0009:018a        00000000
                CONST2                DATA           0009:02f2        00000000
                _DATA                 DATA           0009:455c        00000000
ustrcpy.c       _TEXT                 CODE           0006:94b1        00000028
                CONST                 DATA           0009:018a        00000000
                CONST2                DATA           0009:02f2        00000000
                _DATA                 DATA           0009:455c        00000000
heapen.c        _TEXT                 CODE           0006:94d9        0000000c
                CONST                 DATA           0009:018a        00000000
                CONST2                DATA           0009:02f2        00000000
                _DATA                 DATA           0009:455c        00000002
amblksiz.c      _TEXT                 CODE           0006:94e5        00000000
                CONST                 DATA           0009:018a        00000000
                CONST2                DATA           0009:02f2        00000000
                _DATA                 DATA           0009:455e        00000002
wallflgs.c      _TEXT                 CODE           0006:94e5        00000000
                CONST                 DATA           0009:018a        00000000
                CONST2                DATA           0009:02f2        00000000
                _DATA                 DATA           0009:4560        00000008
nmemneed.c      _TEXT                 CODE           0006:94e5        00000003
                CONST                 DATA           0009:018a        00000000
                CONST2                DATA           0009:02f2        00000000
                _DATA                 DATA           0009:4568        00000000
grownear.c      _TEXT                 CODE           0006:94e8        00000132
                CONST                 DATA           0009:018a        00000000
                CONST2                DATA           0009:02f2        00000000
                _DATA                 DATA           0009:4568        00000000
save8087.c      _TEXT                 CODE           0006:961a        00000001
                CONST                 DATA           0009:018a        00000000
                CONST2                DATA           0009:02f2        00000000
                _DATA                 DATA           0009:4568        00000008
prtf.c          _TEXT                 CODE           0006:961b        00000edd
                CONST                 DATA           0009:018a        00000000
                CONST2                DATA           0009:02f2        00000000
                _DATA                 DATA           0009:4570        00000000
efgfmt.c        _TEXT                 CODE           0006:a4f8        000001b9
                CONST                 DATA           0009:018a        00000000
                CONST2                DATA           0009:02f2        00000000
                _DATA                 DATA           0009:4570        00000000
cnvs2d.c        _TEXT                 CODE           0006:a6b1        00000020
                CONST                 DATA           0009:018a        00000000
                CONST2                DATA           0009:02f2        00000000
                _DATA                 DATA           0009:4570        00000000
bfree.c         _TEXT                 CODE           0006:a6d1        0000002a
                CONST                 DATA           0009:018a        00000000
                CONST2                DATA           0009:02f2        00000000
                _DATA                 DATA           0009:4570        00000000
bexpand.c       _TEXT                 CODE           0006:a6fb        0000005c
                CONST                 DATA           0009:018a        00000000
                CONST2                DATA           0009:02f2        00000000
                _DATA                 DATA           0009:4570        00000000
initfile.c      _TEXT                 CODE           0006:a757        000000cb
                CONST                 DATA           0009:018a        0000002e
                CONST2                DATA           0009:02f2        00000000
                _DATA                 DATA           0009:4570        00000000
ioexit.c        _TEXT                 CODE           0006:a822        0000009b
                CONST                 DATA           0009:01b8        00000000
                CONST2                DATA           0009:02f2        00000000
                _DATA                 DATA           0009:4570        00000000
clearenv.c      _TEXT                 CODE           0006:a8bd        000000d2
                CONST                 DATA           0009:01b8        00000000
                CONST2                DATA           0009:02f2        00000000
                _DATA                 DATA           0009:4570        00000000
uputenv.c       _TEXT                 CODE           0006:a98f        000002a8
                CONST                 DATA           0009:01b8        00000000
                CONST2                DATA           0009:02f2        00000000
                _DATA                 DATA           0009:4570        00000000
ustrnicm.c      _TEXT                 CODE           0006:ac37        00000059
                CONST                 DATA           0009:01b8        00000000
                CONST2                DATA           0009:02f2        00000000
                _DATA                 DATA           0009:4570        00000000
wctomb.c        _TEXT                 CODE           0006:ac90        0000002c
                CONST                 DATA           0009:01b8        00000000
                CONST2                DATA           0009:02f2        00000000
                _DATA                 DATA           0009:4570        00000000
nheapmin.c      _TEXT                 CODE           0006:acbc        000000b9
                CONST                 DATA           0009:01b8        00000000
                CONST2                DATA           0009:02f2        00000000
                _DATA                 DATA           0009:4570        00000000
lltoa.c         _TEXT                 CODE           0006:ad75        0000014d
                CONST                 DATA           0009:01b8        00000000
                CONST2                DATA           0009:02f2        00000000
                _DATA                 DATA           0009:4570        00000000
ltoa.c          _TEXT                 CODE           0006:aec2        000000a4
                CONST                 DATA           0009:01b8        00000000
                CONST2                DATA           0009:02f2        00000000
                _DATA                 DATA           0009:4570        00000000
rtcntrl.c       _TEXT                 CODE           0006:af66        0000001a
                CONST                 DATA           0009:01b8        00000000
                CONST2                DATA           0009:02f2        00000000
                _DATA                 DATA           0009:4570        00000001
fclose.c        _TEXT                 CODE           0006:af80        00000129
                CONST                 DATA           0009:01b8        00000000
                CONST2                DATA           0009:02f2        00000000
                _DATA                 DATA           0009:4572        00000000
                _BSS                  BSS            0009:8716        00000004
freefp.c        _TEXT                 CODE           0006:b0a9        000000b5
                CONST                 DATA           0009:01b8        00000000
                CONST2                DATA           0009:02f2        00000000
                _DATA                 DATA           0009:4572        00000000
putenv.c        _TEXT                 CODE           0006:b15e        000003a1
                CONST                 DATA           0009:01b8        00000000
                CONST2                DATA           0009:02f2        00000000
                _DATA                 DATA           0009:4572        00000000
flush.c         _TEXT                 CODE           0006:b4ff        00000153
                CONST                 DATA           0009:01b8        00000000
                CONST2                DATA           0009:02f2        00000000
                _DATA                 DATA           0009:4572        00000000
fsync.c         _TEXT                 CODE           0006:b652        0000000c
                CONST                 DATA           0009:01b8        00000000
                CONST2                DATA           0009:02f2        00000000
                _DATA                 DATA           0009:4572        00000000
qwrit.c         _TEXT                 CODE           0006:b65e        00000095
                CONST                 DATA           0009:01b8        00000000
                CONST2                DATA           0009:02f2        00000000
                _DATA                 DATA           0009:4572        00000000
filedos.c       _TEXT                 CODE           0006:b6f3        00000028
                CONST                 DATA           0009:01b8        00000000
                CONST2                DATA           0009:02f2        00000000
                _DATA                 DATA           0009:4572        00000000


                        +----------------------+
                        |   Imported Symbols   |
                        +----------------------+

Symbol                              Module
======                              ======

DEATH                               GDI
RESURRECTION                        GDI
SETERRORMODE                        KERNEL
SETHANDLECOUNT                      KERNEL
MESSAGEBOX                          USER
GETDOSENVIRONMENT                   KERNEL
MESSAGEBEEP                         USER
GETWINDOWSDIRECTORY                 KERNEL
GETFOCUS                            USER
ISWINDOW                            USER
SETFOCUS                            USER
LOADMODULE                          KERNEL
FREELIBRARY                         KERNEL
LOADLIBRARY                         KERNEL
GETPROCADDRESS                      KERNEL
__FPMATH                            WIN87EM
GETWINFLAGS                         KERNEL
GETSYSTEMMETRICS                    USER
GETDC                               USER
GETDEVICECAPS                       GDI
RELEASEDC                           USER
GETVERSION                          KERNEL
ISDBCSLEADBYTE                      KERNEL
GETOBJECT                           GDI
CREATEFONTINDIRECT                  GDI
DELETEOBJECT                        GDI
GETSTOCKOBJECT                      GDI
GETDLGITEM                          USER
GETPARENT                           USER
GETDLGCTRLID                        USER
SENDMESSAGE                         USER
SETDLGITEMTEXT                      USER
GETWINDOWTEXTLENGTH                 USER
GETWINDOWTEXT                       USER
PEEKMESSAGE                         USER
GETCLIENTRECT                       USER
MAPWINDOWPOINTS                     USER
WINDOWFROMPOINT                     USER
ISICONIC                            USER
ENDDIALOG                           USER
GLOBALFREE                          KERNEL
SELECTOBJECT                        GDI
GETTEXTMETRICS                      GDI
SETWINDOWTEXT                       USER
ENABLEWINDOW                        USER
ISWINDOWENABLED                     USER
CALLWINDOWPROC                      USER
GETUPDATERECT                       USER
FILLRECT                            USER
MAKEPROCINSTANCE                    KERNEL
CREATEWINDOW                        USER
SHOWWINDOW                          USER
DESTROYWINDOW                       USER
ISWINDOWVISIBLE                     USER
GETSYSCOLOR                         USER
CREATESOLIDBRUSH                    GDI
SETCLASSWORD                        USER
SETDOUBLECLICKTIME                  USER
LOADICON                            USER
LOADCURSOR                          USER
REGISTERCLASS                       USER
POSTQUITMESSAGE                     USER
UPDATEWINDOW                        USER
SETWINDOWLONG                       USER
CREATEWINDOWEX                      USER
CLIENTTOSCREEN                      USER
GETWINDOWRECT                       USER
MOVEWINDOW                          USER
SETACTIVEWINDOW                     USER
GETNEXTWINDOW                       USER
DEFWINDOWPROC                       USER
RELEASECAPTURE                      USER
GETNEARESTCOLOR                     GDI
SETBKCOLOR                          GDI
SETCAPTURE                          USER
SETCURSOR                           USER
ISZOOMED                            USER
INTERSECTRECT                       USER
ISRECTEMPTY                         USER
LOADMENU                            USER
ISCHILD                             USER
GETCAPTURE                          USER
DESTROYICON                         USER
INVALIDATERECT                      USER
SETSCROLLPOS                        USER
SETSCROLLRANGE                      USER
GETWINDOWLONG                       USER
GETMENUITEMCOUNT                    USER
GETSUBMENU                          USER
DESTROYMENU                         USER
GETSYSTEMMENU                       USER
GETMENU                             USER
DRAWMENUBAR                         USER
CREATEPOPUPMENU                     USER
CREATEMENU                          USER
DELETEMENU                          USER
CHECKMENUITEM                       USER
ENABLEMENUITEM                      USER
MODIFYMENU                          USER
SHOWOWNEDPOPUPS                     USER
SCROLLWINDOW                        USER
GETCURSORPOS                        USER
SETWINDOWPOS                        USER
LOADSTRING                          USER
BRINGWINDOWTOTOP                    USER
FRAMERECT                           USER
CREATEPEN                           GDI
MOVETOEX                            GDI
LINETO                              GDI
LOADBITMAP                          USER
DPTOLP                              GDI
BITBLT                              GDI
DELETEDC                            GDI
_wsprintf                           USER
GETCLASSNAME                        USER
ENUMCHILDWINDOWS                    USER
FREEPROCINSTANCE                    KERNEL
DIALOGBOXPARAM                      USER
GETKEYSTATE                         USER
POSTMESSAGE                         USER
BEGINPAINT                          USER
ENDPAINT                            USER
GLOBALALLOC                         KERNEL
GLOBALLOCK                          KERNEL
GLOBALUNLOCK                        KERNEL
GLOBALREALLOC                       KERNEL
DIALOGBOXINDIRECTPARAM              USER
GETSAVEFILENAME                     COMMDLG
GETOPENFILENAME                     COMMDLG
COMMDLGEXTENDEDERROR                COMMDLG
SETTEXTCOLOR                        GDI
INSERTMENU                          USER
APPENDMENU                          USER
GETMENUSTATE                        USER
GETMENUSTRING                       USER
SETMENU                             USER
CREATECOMPATIBLEDC                  GDI
GETCURRENTPOSITIONEX                GDI
GETMESSAGE                          USER
GETTEXTEXTENTPOINT                  GDI
GETWINDOWPLACEMENT                  USER
COPYRECT                            USER
SETWINDOWPLACEMENT                  USER
WINHELP                             USER
TRANSLATEMESSAGE                    USER
DISPATCHMESSAGE                     USER
GETBKCOLOR                          GDI
DRAWTEXT                            USER
INFLATERECT                         USER
UNREALIZEOBJECT                     GDI
UNREGISTERCLASS                     USER
TRACKPOPUPMENU                      USER
RECTANGLE                           GDI
SETROP2                             GDI
TEXTOUT                             GDI
GETWINDOWWORD                       USER
CREATEPATTERNBRUSH                  GDI
SETSTRETCHBLTMODE                   GDI
STRETCHBLT                          GDI
CREATECOMPATIBLEBITMAP              GDI
GETPIXEL                            GDI
PTINRECT                            USER
INITTASK                            KERNEL
GETMODULEFILENAME                   KERNEL
INITAPP                             USER
WAITEVENT                           KERNEL
__AHSHIFT                           KERNEL
GETKBCODEPAGE                       KEYBOARD
_LREAD                              KERNEL
GLOBALHANDLE                        KERNEL
LOCALALLOC                          KERNEL
LOCALFREE                           KERNEL


                        +--------------------+
                        |   Libraries Used   |
                        +--------------------+

/mnt/sda5/.user/root/src/openwatcom-1.9/rel2/lib286/win/windows.lib
/mnt/sda5/.user/root/src/openwatcom-1.9/bld/aui/wini86/aui.lib
/mnt/sda5/.user/root/src/openwatcom-1.9/bld/gui/win/wini86/gui.lib
/mnt/sda5/.user/root/src/openwatcom-1.9/rel2/lib286/win/math87l.lib
/mnt/sda5/.user/root/src/openwatcom-1.9/rel2/lib286/win/emu87.lib
/mnt/sda5/.user/root/src/openwatcom-1.9/rel2/lib286/win/commdlg.lib
/mnt/sda5/.user/root/src/openwatcom-1.9/rel2/lib286/win/clibl.lib


                        +-----------------------+
                        |   Linker Statistics   |
                        +-----------------------+

Stack size:  3000 (12288.)
Memory size:  0008076a (526186.)
Entry point address: 0006:3b7c
Link time: 00:00.00
