Open Watcom Linker Version 1.9
Portions Copyright (c) 1985-2002 Sybase, Inc. All Rights Reserved.
Created on:       12/12/16 02:39:37
Executable Image: techinfo.exe
creating a DOS executable


                        +------------+
                        |   Groups   |
                        +------------+

Group                           Address              Size
=====                           =======              ====

DGROUP                          0966:0000            00002510



                        +--------------+
                        |   Segments   |
                        +--------------+

Segment                Class          Group          Address         Size
=======                =====          =====          =======         ====

techinfo_TEXT          CODE           AUTO           0000:0000       00000912
_TEXT                  CODE           AUTO           0000:0920       00006957
monint_TEXT            CODE           AUTO           0000:7277       000023e2
FAR_DATA               FAR_DATA       AUTO           0965:0009       00000000
_NULL                  BEGDATA        DGROUP         0966:0000       00000020
_AFTERNULL             BEGDATA        DGROUP         0968:0000       00000002
CONST                  DATA           DGROUP         0968:0002       00000e22
CONST2                 DATA           DGROUP         0a4a:0004       0000013c
_DATA                  DATA           DGROUP         0a5e:0000       000008a2
XIB                    DATA           DGROUP         0ae8:0002       00000000
XI                     DATA           DGROUP         0ae8:0002       00000024
XIE                    DATA           DGROUP         0aea:0006       00000000
YIB                    DATA           DGROUP         0aea:0006       00000000
YI                     DATA           DGROUP         0aea:0006       00000018
YIE                    DATA           DGROUP         0aeb:000e       00000000
STRINGS                DATA           DGROUP         0aeb:000e       00000000
DATA                   DATA           DGROUP         0aeb:000e       00000000
_BSS                   BSS            DGROUP         0aeb:000e       000004aa
STACK                  STACK          DGROUP         0b37:0000       00000800


                        +----------------+
                        |   Memory Map   |
                        +----------------+

* = unreferenced symbol
+ = symbol only referenced locally

Address        Symbol
=======        ======

Module: techinfo.obj(/mnt/sda5/.user/root/src/openwatcom-1.9/bld/techinfo/techinfo.c)
0000:0000*     Usage_
0000:001b      techoutput_
0000:00ff+     do_company_header_
0000:0155+     print_env_var_
0000:01c2+     GetLevel_
0000:0246+     patch_tool_
0000:034a+     get_compiler_patch_
0000:03d6+     get_wsql_patch_
0000:0477+     get_mem_info_
0000:0509+     dump_files_
0000:0669+     get_config_files_
0000:06ef+     NDPEquip_
0000:0717+     machine_type_
0000:084b+     check_dos_comm_
0000:088e      main_
0966:0f80+     _WATCOMC_EnvVars
0966:1020+     _WSQL_EnvVars
0966:103c+     _WATCOMC_Tools
0966:1084+     _WSQL_Tools
0966:10d4+     _WATCOMC_Dirs
0966:10ec+     _WSQL_Dirs
0966:1110+     _ProcessorType
0966:1190+     _CoProcessorType
0966:11b0+     _IsNotIs
0966:11b8      _LineCount
0966:1876+     _WATCOMPATH
0966:1976+     _TechOutFile
Module: ptype.obj(/mnt/sda5/.user/root/src/openwatcom-1.9/bld/techinfo/ptype.asm)
0000:0920      PType_
Module: pbus.obj(/mnt/sda5/.user/root/src/openwatcom-1.9/bld/techinfo/pbus.asm)
0000:09a7      PBus_
Module: pprefix.obj(/mnt/sda5/.user/root/src/openwatcom-1.9/bld/techinfo/pprefix.asm)
0000:09ce      PPrefix_
Module: ndptype.obj(/mnt/sda5/.user/root/src/openwatcom-1.9/bld/techinfo/ndptype.asm)
0000:09df      NDPType_
Module: monint.obj(/mnt/sda5/.user/root/src/openwatcom-1.9/bld/techinfo/monint.c)
0000:7277+     int_rtn_0x00_
0000:72c2+     int_rtn_0x01_
0000:72fd+     int_rtn_0x02_
0000:733e+     int_rtn_0x03_
0000:737d+     int_rtn_0x04_
0000:73b9+     int_rtn_0x05_
0000:73f5+     int_rtn_0x06_
0000:7434+     int_rtn_0x07_
0000:7470+     int_rtn_0x08_
0000:74ac+     int_rtn_0x09_
0000:74eb+     int_rtn_0x0A_
0000:7527+     int_rtn_0x0B_
0000:7563+     int_rtn_0x0C_
0000:75a2+     int_rtn_0x0D_
0000:75de+     int_rtn_0x0E_
0000:761a+     int_rtn_0x0F_
0000:7659+     int_rtn_0x10_
0000:7695+     int_rtn_0x11_
0000:76d1+     int_rtn_0x12_
0000:7710+     int_rtn_0x13_
0000:774c+     int_rtn_0x14_
0000:7788+     int_rtn_0x15_
0000:77c7+     int_rtn_0x16_
0000:7803+     int_rtn_0x17_
0000:783f+     int_rtn_0x18_
0000:787e+     int_rtn_0x19_
0000:78ba+     int_rtn_0x1A_
0000:78f6+     int_rtn_0x1B_
0000:7935+     int_rtn_0x1C_
0000:7971+     int_rtn_0x1D_
0000:79ad+     int_rtn_0x1E_
0000:79ec+     int_rtn_0x1F_
0000:7a28+     int_rtn_0x20_
0000:7a64+     int_rtn_0x21_
0000:7aa3+     int_rtn_0x22_
0000:7adf+     int_rtn_0x23_
0000:7b1b+     int_rtn_0x24_
0000:7b5a+     int_rtn_0x25_
0000:7b96+     int_rtn_0x26_
0000:7bd2+     int_rtn_0x27_
0000:7c11+     int_rtn_0x28_
0000:7c4d+     int_rtn_0x29_
0000:7c89+     int_rtn_0x2A_
0000:7cc8+     int_rtn_0x2B_
0000:7d04+     int_rtn_0x2C_
0000:7d40+     int_rtn_0x2D_
0000:7d7f+     int_rtn_0x2E_
0000:7dbb+     int_rtn_0x2F_
0000:7df7+     int_rtn_0x30_
0000:7e36+     int_rtn_0x31_
0000:7e72+     int_rtn_0x32_
0000:7eae+     int_rtn_0x33_
0000:7eed+     int_rtn_0x34_
0000:7f29+     int_rtn_0x35_
0000:7f65+     int_rtn_0x36_
0000:7fa4+     int_rtn_0x37_
0000:7fe0+     int_rtn_0x38_
0000:801c+     int_rtn_0x39_
0000:805b+     int_rtn_0x3A_
0000:8097+     int_rtn_0x3B_
0000:80d3+     int_rtn_0x3C_
0000:8112+     int_rtn_0x3D_
0000:814e+     int_rtn_0x3E_
0000:818a+     int_rtn_0x3F_
0000:81c9+     int_rtn_0x40_
0000:8205+     int_rtn_0x41_
0000:8241+     int_rtn_0x42_
0000:8280+     int_rtn_0x43_
0000:82bc+     int_rtn_0x44_
0000:82f8+     int_rtn_0x45_
0000:8337+     int_rtn_0x46_
0000:8373+     int_rtn_0x47_
0000:83af+     int_rtn_0x48_
0000:83ee+     int_rtn_0x49_
0000:842a+     int_rtn_0x4A_
0000:8466+     int_rtn_0x4B_
0000:84a5+     int_rtn_0x4C_
0000:84e1+     int_rtn_0x4D_
0000:851d+     int_rtn_0x4E_
0000:855c+     int_rtn_0x4F_
0000:8598+     int_rtn_0x50_
0000:85d4+     int_rtn_0x51_
0000:8613+     int_rtn_0x52_
0000:864f+     int_rtn_0x53_
0000:868b+     int_rtn_0x54_
0000:86ca+     int_rtn_0x55_
0000:8706+     int_rtn_0x56_
0000:8742+     int_rtn_0x57_
0000:8781+     int_rtn_0x58_
0000:87bd+     int_rtn_0x59_
0000:87f9+     int_rtn_0x5A_
0000:8838+     int_rtn_0x5B_
0000:8874+     int_rtn_0x5C_
0000:88b0+     int_rtn_0x5D_
0000:88ef+     int_rtn_0x5E_
0000:892b+     int_rtn_0x5F_
0000:8967+     int_rtn_0x60_
0000:89a6+     int_rtn_0x61_
0000:89e2+     int_rtn_0x62_
0000:8a1e+     int_rtn_0x63_
0000:8a5d+     int_rtn_0x64_
0000:8a99+     int_rtn_0x65_
0000:8ad5+     int_rtn_0x66_
0000:8b14+     int_rtn_0x67_
0000:8b50+     int_rtn_0x68_
0000:8b8c+     int_rtn_0x69_
0000:8bcb+     int_rtn_0x6A_
0000:8c07+     int_rtn_0x6B_
0000:8c43+     int_rtn_0x6C_
0000:8c82+     int_rtn_0x6D_
0000:8cbe+     int_rtn_0x6E_
0000:8cfa+     int_rtn_0x6F_
0000:8d39+     int_rtn_0x70_
0000:8d75+     int_rtn_0x71_
0000:8db1+     int_rtn_0x72_
0000:8df0+     int_rtn_0x73_
0000:8e2c+     int_rtn_0x74_
0000:8e68+     int_rtn_0x75_
0000:8ea7+     int_rtn_0x76_
0000:8ee3+     int_rtn_0x77_
0000:8f1f+     int_rtn_0x78_
0000:8f5e+     int_rtn_0x79_
0000:8f9a+     int_rtn_0x7A_
0000:8fd6+     int_rtn_0x7B_
0000:9015+     int_rtn_0x7C_
0000:9051+     int_rtn_0x7D_
0000:908d+     int_rtn_0x7E_
0000:90cc+     int_rtn_0x7F_
0000:9445      monint_
0966:11ba+     _Control
0966:11bc+     _Sample_On
0966:11be+     _int_tick
0966:12be+     _new_int
0966:197a+     _prev_int
0966:1b7a+     _NDP_Env
0966:1b88+     _NDP_Status
Module: /mnt/sda5/.user/root/src/openwatcom-1.9/rel2/lib286/dos/clibl.lib(printf.c)
0000:0a35      printf_
Module: /mnt/sda5/.user/root/src/openwatcom-1.9/rel2/lib286/dos/clibl.lib(vprintf.c)
0000:0a64      vprintf_
Module: /mnt/sda5/.user/root/src/openwatcom-1.9/rel2/lib286/dos/clibl.lib(vfprintf.c)
0000:0a76      vfprintf_
Module: /mnt/sda5/.user/root/src/openwatcom-1.9/rel2/lib286/dos/clibl.lib(iob.c)
0966:14be      ___iob
0966:1626      __fmode
0966:1b8a      ___OpenStreams
0966:1b8e      ___ClosedStreams
Module: /mnt/sda5/.user/root/src/openwatcom-1.9/rel2/lib286/dos/clibl.lib(fflush.c)
0000:0a88      fflush_
Module: /mnt/sda5/.user/root/src/openwatcom-1.9/rel2/lib286/dos/clibl.lib(getch.c)
0000:0a9d      getch_
Module: /mnt/sda5/.user/root/src/openwatcom-1.9/rel2/lib286/dos/clibl.lib(fputc.c)
0000:0ab7      fputc_
Module: /mnt/sda5/.user/root/src/openwatcom-1.9/rel2/lib286/dos/clibl.lib(time.c)
0000:0b87      time_
Module: /mnt/sda5/.user/root/src/openwatcom-1.9/rel2/lib286/dos/clibl.lib(asctime.c)
0000:0bec+     _asctime_
0000:0d08*     asctime_
0000:0d17*     _ctime_
0000:0d37      ctime_
Module: /mnt/sda5/.user/root/src/openwatcom-1.9/rel2/lib286/dos/clibl.lib(getenv.c)
0000:0d46      getenv_
Module: /mnt/sda5/.user/root/src/openwatcom-1.9/rel2/lib286/dos/clibl.lib(open.c)
0000:1007      open_
0000:103e      sopen_
Module: /mnt/sda5/.user/root/src/openwatcom-1.9/rel2/lib286/dos/clibl.lib(lseek.c)
0000:106b      lseek_
Module: /mnt/sda5/.user/root/src/openwatcom-1.9/rel2/lib286/dos/clibl.lib(read.c)
0000:109c      read_
Module: /mnt/sda5/.user/root/src/openwatcom-1.9/rel2/lib286/dos/clibl.lib(close.c)
0000:1180      close_
Module: /mnt/sda5/.user/root/src/openwatcom-1.9/rel2/lib286/dos/clibl.lib(stat.c)
0000:1206      stat_
Module: /mnt/sda5/.user/root/src/openwatcom-1.9/rel2/lib286/dos/clibl.lib(intx086.c)
0000:14e2+     int86x_
0000:157b      int86_
Module: /mnt/sda5/.user/root/src/openwatcom-1.9/rel2/lib286/dos/clibl.lib(fopen.c)
0000:15a8+     __open_flags_
0000:17a8+     _fsopen_
0000:180f      fopen_
0000:18ea*     freopen_
Module: /mnt/sda5/.user/root/src/openwatcom-1.9/rel2/lib286/dos/clibl.lib(fgets.c)
0000:1960      fgets_
Module: /mnt/sda5/.user/root/src/openwatcom-1.9/rel2/lib286/dos/clibl.lib(fclose.c)
0000:19ef      __doclose_
0000:1aa0      __shutdown_stream_
0000:1aba      fclose_
0966:1bac+     ___RmTmpFileFn
Module: /mnt/sda5/.user/root/src/openwatcom-1.9/rel2/lib286/dos/clibl.lib(intd086.c)
0000:1b05      intdos_
Module: /mnt/sda5/.user/root/src/openwatcom-1.9/rel2/lib286/dos/clibl.lib(toupper.c)
0000:1b67      toupper_
Module: /mnt/sda5/.user/root/src/openwatcom-1.9/rel2/lib286/dos/clibl.lib(exit.c)
0000:1b75+     __null_int23_exit_
0000:1b76      exit_
0000:1ba7*     _exit_
0966:1628+     ___int23_exit
0966:162c+     ___FPE_handler_exit
Module: /mnt/sda5/.user/root/src/openwatcom-1.9/rel2/lib286/dos/clibl.lib(cstart)
0966:0000*     __nullarea
0966:1630*     __ovlflag
0966:1631*     __intno
0966:1632*     __ovlvec
0000:1bc0      _cstart_
0000:1c93*     _Not_Enough_Memory_
0000:1dc7      __exit_
0000:1de6      __do_exit_with_msg__
0000:1e44      __GETDS
Module: /mnt/sda5/.user/root/src/openwatcom-1.9/rel2/lib286/dos/clibl.lib(cmodel)
0000:1e4e      _big_code_
0000:1e4e*     CodeModelMismatch
Module: /mnt/sda5/.user/root/src/openwatcom-1.9/rel2/lib286/dos/clibl.lib(argcv.c)
0966:1bb0      __argv
0966:1bb4      ___argv
0966:1bb8      __argc
0966:1bba      ___argc
Module: /mnt/sda5/.user/root/src/openwatcom-1.9/rel2/lib286/dos/clibl.lib(chainint)
0000:1e4e      _chain_intr_
Module: /mnt/sda5/.user/root/src/openwatcom-1.9/rel2/lib286/dos/clibl.lib(d_getvec.c)
0000:1e6e      _dos_getvect_
Module: /mnt/sda5/.user/root/src/openwatcom-1.9/rel2/lib286/dos/clibl.lib(d_setvec.c)
0000:1e79      _dos_setvect_
Module: /mnt/sda5/.user/root/src/openwatcom-1.9/rel2/lib286/dos/clibl.lib(fprtf.c)
0000:1ea0      __fprtf_
Module: /mnt/sda5/.user/root/src/openwatcom-1.9/rel2/lib286/dos/clibl.lib(initfile.c)
0000:1f6b      __InitFiles_
Module: /mnt/sda5/.user/root/src/openwatcom-1.9/rel2/lib286/dos/clibl.lib(ioexit.c)
0000:20b9*     fcloseall_
0000:20c0      __full_io_exit_
Module: /mnt/sda5/.user/root/src/openwatcom-1.9/rel2/lib286/dos/clibl.lib(flushall.c)
0000:20ca      __flushall_
0000:2127      flushall_
Module: /mnt/sda5/.user/root/src/openwatcom-1.9/rel2/lib286/dos/clibl.lib(flush.c)
0000:212c      __flush_
Module: /mnt/sda5/.user/root/src/openwatcom-1.9/rel2/lib286/dos/clibl.lib(crwdata)
0966:1636      __curbrk
0966:163e      __STACKLOW
0966:1640      __STACKTOP
0966:1642      __cbyte
0966:1644      __child
0966:1646      __no87
0966:1654      ___FPE_handler
0966:1638      __psp
0966:1648      __get_ovl_stack
0966:164c      __restore_ovl_stack
0966:1650      __close_ovl_file
0966:1658      __LpCmdLine
0966:165c      __LpPgmName
0966:163a      __osmajor
0966:163b      __osminor
0966:163c      __osmode
0966:163d      __HShift
Module: /mnt/sda5/.user/root/src/openwatcom-1.9/rel2/lib286/dos/clibl.lib(ioalloc.c)
0000:2260      __ioalloc_
Module: /mnt/sda5/.user/root/src/openwatcom-1.9/rel2/lib286/dos/clibl.lib(seterrno.c)
0000:22fa      __set_errno_
0000:230e*     __set_EDOM_
0000:2320*     __set_ERANGE_
0000:2332*     __set_EINVAL_
0000:2347      __set_doserrno_
Module: /mnt/sda5/.user/root/src/openwatcom-1.9/rel2/lib286/dos/clibl.lib(gtctm.c)
0000:2353      __getctime_
Module: /mnt/sda5/.user/root/src/openwatcom-1.9/rel2/lib286/dos/clibl.lib(mktime.c)
0000:23dc      mktime_
Module: /mnt/sda5/.user/root/src/openwatcom-1.9/rel2/lib286/dos/clibl.lib(localtim.c)
0000:2496      _localtime_
0000:2525      localtime_
Module: /mnt/sda5/.user/root/src/openwatcom-1.9/rel2/lib286/dos/clibl.lib(environ.c)
0966:1bce      ___env_mask
0966:1bd2      _environ
0966:1bd6*     __wenviron
Module: /mnt/sda5/.user/root/src/openwatcom-1.9/rel2/lib286/dos/clibl.lib(mbterm.c)
0000:2534      _mbterm_
Module: /mnt/sda5/.user/root/src/openwatcom-1.9/rel2/lib286/dos/clibl.lib(mbsnextc.c)
0000:2576      _mbsnextc_
Module: /mnt/sda5/.user/root/src/openwatcom-1.9/rel2/lib286/dos/clibl.lib(mbcupper.c)
0000:25a7      _mbctoupper_
Module: /mnt/sda5/.user/root/src/openwatcom-1.9/rel2/lib286/dos/clibl.lib(mbsinc.c)
0000:25ca      _mbsinc_
Module: /mnt/sda5/.user/root/src/openwatcom-1.9/rel2/lib286/dos/clibl.lib(opendos.c)
0000:2606      _dos_open_
Module: /mnt/sda5/.user/root/src/openwatcom-1.9/rel2/lib286/dos/clibl.lib(iomode.c)
0000:262c      __GetIOMode_
0000:2651      __SetIOMode_nogrow_
0966:1660      ___NFiles
0966:1662      ___init_mode
0966:168a      ___io_mode
Module: /mnt/sda5/.user/root/src/openwatcom-1.9/rel2/lib286/dos/clibl.lib(isatt.c)
0000:2674      isatty_
Module: /mnt/sda5/.user/root/src/openwatcom-1.9/rel2/lib286/dos/clibl.lib(dosret.c)
0000:2690      _dosretax_
0000:2695*     _dosret0_
0000:269c      __set_errno_dos_
0000:26fa*     __set_errno_dos_reterr_
Module: /mnt/sda5/.user/root/src/openwatcom-1.9/rel2/lib286/dos/clibl.lib(errno.c)
0000:2705      __get_errno_ptr_
0000:270c      __get_doserrno_ptr_
0966:1bda+     _errno
0966:1bdc+     __doserrno
Module: /mnt/sda5/.user/root/src/openwatcom-1.9/rel2/lib286/dos/clibl.lib(umaskval.c)
0966:16a2      ___umaskval
Module: /mnt/sda5/.user/root/src/openwatcom-1.9/rel2/lib286/dos/clibl.lib(creatdos.c)
0000:2713      _dos_creat_
0000:2737*     _dos_creatnew_
Module: /mnt/sda5/.user/root/src/openwatcom-1.9/rel2/lib286/dos/clibl.lib(stiomode.c)
0000:2759+     __grow_iomode_
0000:281c+     __shrink_iomode_
0000:2857      __SetIOMode_
Module: /mnt/sda5/.user/root/src/openwatcom-1.9/rel2/lib286/dos/clibl.lib(__lseek.c)
0000:28ba      __lseek_
Module: /mnt/sda5/.user/root/src/openwatcom-1.9/rel2/lib286/dos/clibl.lib(iomodtty.c)
0000:28f4      __ChkTTYIOMode_
0000:2932*     __IOMode_
Module: /mnt/sda5/.user/root/src/openwatcom-1.9/rel2/lib286/dos/clibl.lib(_clse.c)
0000:2942      __close_
Module: /mnt/sda5/.user/root/src/openwatcom-1.9/rel2/lib286/dos/clibl.lib(mbschr.c)
0000:2975      _mbschr_
Module: /mnt/sda5/.user/root/src/openwatcom-1.9/rel2/lib286/dos/clibl.lib(mbscmp.c)
0000:29fb      _mbscmp_
Module: /mnt/sda5/.user/root/src/openwatcom-1.9/rel2/lib286/dos/clibl.lib(mbspbrk.c)
0000:2a94      _mbspbrk_
Module: /mnt/sda5/.user/root/src/openwatcom-1.9/rel2/lib286/dos/clibl.lib(fullpath.c)
0000:2aec+     _sys_fullpath_
0000:2d80      _fullpath_
Module: /mnt/sda5/.user/root/src/openwatcom-1.9/rel2/lib286/dos/clibl.lib(istable.c)
0966:0e7e      __IsTable
Module: /mnt/sda5/.user/root/src/openwatcom-1.9/rel2/lib286/dos/clibl.lib(gtcwd.c)
0000:2e3e      getcwd_
Module: /mnt/sda5/.user/root/src/openwatcom-1.9/rel2/lib286/dos/clibl.lib(chdir.c)
0000:2ee9      chdir_
Module: /mnt/sda5/.user/root/src/openwatcom-1.9/rel2/lib286/dos/clibl.lib(finddos.c)
0000:2eff      _dos_findfirst_
0000:2f32*     _dos_findnext_
0000:2f45      _dos_findclose_
Module: /mnt/sda5/.user/root/src/openwatcom-1.9/rel2/lib286/dos/clibl.lib(fstat.c)
0000:2f48      fstat_
Module: /mnt/sda5/.user/root/src/openwatcom-1.9/rel2/lib286/dos/clibl.lib(tolower.c)
0000:308f      tolower_
Module: /mnt/sda5/.user/root/src/openwatcom-1.9/rel2/lib286/dos/clibl.lib(d2ttime.c)
0000:309d      _d2ttime_
Module: /mnt/sda5/.user/root/src/openwatcom-1.9/rel2/lib286/dos/clibl.lib(intr.c)
0000:310a      intr_
Module: /mnt/sda5/.user/root/src/openwatcom-1.9/rel2/lib286/dos/clibl.lib(segread.c)
0000:311e      segread_
Module: /mnt/sda5/.user/root/src/openwatcom-1.9/rel2/lib286/dos/clibl.lib(comtflag.c)
0000:313e*     __set_commode_
0966:16a4      __commode
Module: /mnt/sda5/.user/root/src/openwatcom-1.9/rel2/lib286/dos/clibl.lib(fseek.c)
0000:31b5      fseek_
Module: /mnt/sda5/.user/root/src/openwatcom-1.9/rel2/lib286/dos/clibl.lib(chktty.c)
0000:3303      __chktty_
Module: /mnt/sda5/.user/root/src/openwatcom-1.9/rel2/lib286/dos/clibl.lib(freefp.c)
0000:332e      __freefp_
0000:33a9      __purgefp_
Module: /mnt/sda5/.user/root/src/openwatcom-1.9/rel2/lib286/dos/clibl.lib(allocfp.c)
0000:33ea      __allocfp_
Module: /mnt/sda5/.user/root/src/openwatcom-1.9/rel2/lib286/dos/clibl.lib(fgetc.c)
0000:350c+     __fill_buffer_
0000:3601      fgetc_
Module: /mnt/sda5/.user/root/src/openwatcom-1.9/rel2/lib286/dos/clibl.lib(ffree.c)
0000:36a6      _ffree_
0000:36a6      free_
Module: /mnt/sda5/.user/root/src/openwatcom-1.9/rel2/lib286/dos/clibl.lib(initrtns.c)
0000:3727      __InitRtns
0000:3727*     __FInitRtns
0000:3782      __FiniRtns
0000:3782*     __FFiniRtns
Module: /mnt/sda5/.user/root/src/openwatcom-1.9/rel2/lib286/dos/clibl.lib(xmsg.c)
0000:37e6*     __exit_with_msg_
0000:37eb      __fatal_runtime_error_
Module: /mnt/sda5/.user/root/src/openwatcom-1.9/rel2/lib286/dos/clibl.lib(cmain086.c)
0000:3809      __CMain
Module: /mnt/sda5/.user/root/src/openwatcom-1.9/rel2/lib286/dos/clibl.lib(uselfn.c)
0966:16a6      ___uselfn
Module: /mnt/sda5/.user/root/src/openwatcom-1.9/rel2/lib286/dos/clibl.lib(dosseg)
0000:3834      __DOSseg__
Module: /mnt/sda5/.user/root/src/openwatcom-1.9/rel2/lib286/dos/clibl.lib(initargv.c)
0000:3835      __Init_Argv_
0000:3898+     _getargv_
0000:3a97      __Fini_Argv_
Module: /mnt/sda5/.user/root/src/openwatcom-1.9/rel2/lib286/dos/clibl.lib(prtf.c)
0000:3ac1      __prtf_
Module: /mnt/sda5/.user/root/src/openwatcom-1.9/rel2/lib286/dos/clibl.lib(nmalloc.c)
0000:488f      _nmalloc_
0966:16a8      ___nheapbeg
0966:16aa      ___MiniHeapRover
0966:16ac      ___LargestSizeB4MiniHeapRover
Module: /mnt/sda5/.user/root/src/openwatcom-1.9/rel2/lib286/dos/clibl.lib(fmalloc.c)
0000:4969      _fmalloc_
0000:4969      malloc_
0966:16ae+     ___fheap
0966:16b0      ___fheapRover
0966:16b2      ___LargestSizeB4Rover
Module: /mnt/sda5/.user/root/src/openwatcom-1.9/rel2/lib286/dos/clibl.lib(qwrit.c)
0000:4a76      __qwrite_
Module: /mnt/sda5/.user/root/src/openwatcom-1.9/rel2/lib286/dos/clibl.lib(fsync.c)
0000:4ad3      fsync_
Module: /mnt/sda5/.user/root/src/openwatcom-1.9/rel2/lib286/dos/clibl.lib(locmktim.c)
0000:4ad8      __local_mktime_
Module: /mnt/sda5/.user/root/src/openwatcom-1.9/rel2/lib286/dos/clibl.lib(gmtime.c)
0000:4ce4      __brktime_
0000:4e47+     _gmtime_
0000:4e6b*     gmtime_
Module: /mnt/sda5/.user/root/src/openwatcom-1.9/rel2/lib286/dos/clibl.lib(tzset.c)
0966:16b4      ___start_dst
0966:16c6      ___end_dst
0966:17da*     _tzname
0966:17e2      _timezone
0966:17e6      _daylight
0966:17e8      ___dst_adjust
0000:4e7a*     __DontCacheOSTZ_
0000:4e93*     __CacheOSTZ_
0000:541b+     __parse_tz_
0000:55ec      tzset_
Module: /mnt/sda5/.user/root/src/openwatcom-1.9/rel2/lib286/dos/clibl.lib(timeutil.c)
0000:574a      __isindst_
Module: /mnt/sda5/.user/root/src/openwatcom-1.9/rel2/lib286/dos/clibl.lib(setenvp.c)
0000:5a5b      __setenvp_
0000:5b5e      __freeenvp_
Module: /mnt/sda5/.user/root/src/openwatcom-1.9/rel2/lib286/dos/clibl.lib(mbisdbcs.c)
0966:1bfa      ___IsDBCS
Module: /mnt/sda5/.user/root/src/openwatcom-1.9/rel2/lib286/dos/clibl.lib(mbislead.c)
0000:5bbc*     _ismbblead_
0966:1bfc      ___MBCSIsTable
Module: /mnt/sda5/.user/root/src/openwatcom-1.9/rel2/lib286/dos/clibl.lib(mbinit.c)
0000:5c16      __mbinit_
0966:1810      ___MBCodePage
Module: /mnt/sda5/.user/root/src/openwatcom-1.9/rel2/lib286/dos/clibl.lib(mbdtoupp.c)
0000:5cf1      _mbdtoupper_
Module: /mnt/sda5/.user/root/src/openwatcom-1.9/rel2/lib286/dos/clibl.lib(doserror)
0000:5d00      __doserror_
Module: /mnt/sda5/.user/root/src/openwatcom-1.9/rel2/lib286/dos/clibl.lib(frealloc.c)
0000:5d0e*     _frealloc_
0000:5d0e      realloc_
Module: /mnt/sda5/.user/root/src/openwatcom-1.9/rel2/lib286/dos/clibl.lib(mbconv.c)
0000:5dea      _mbvtop_
Module: /mnt/sda5/.user/root/src/openwatcom-1.9/rel2/lib286/dos/clibl.lib(mbclen.c)
0000:5dff      _mbclen_
Module: /mnt/sda5/.user/root/src/openwatcom-1.9/rel2/lib286/dos/clibl.lib(mbccmp.c)
0000:5e2d      _mbccmp_
Module: /mnt/sda5/.user/root/src/openwatcom-1.9/rel2/lib286/dos/clibl.lib(stk)
0000:5e85      __STK
0000:5ea5*     __STKOVERFLOW_
Module: /mnt/sda5/.user/root/src/openwatcom-1.9/rel2/lib286/dos/clibl.lib(strncpy.c)
0000:5ec2      strncpy_
Module: /mnt/sda5/.user/root/src/openwatcom-1.9/rel2/lib286/dos/clibl.lib(filelen.c)
0000:5efe      filelength_
Module: /mnt/sda5/.user/root/src/openwatcom-1.9/rel2/lib286/dos/clibl.lib(dointr)
0000:5f5c      _DoINTR_
Module: /mnt/sda5/.user/root/src/openwatcom-1.9/rel2/lib286/dos/clibl.lib(tell.c)
0000:62d5      tell_
Module: /mnt/sda5/.user/root/src/openwatcom-1.9/rel2/lib286/dos/clibl.lib(gtche.c)
0000:62e6      getche_
Module: /mnt/sda5/.user/root/src/openwatcom-1.9/rel2/lib286/dos/clibl.lib(qread.c)
0000:6300      __qread_
Module: /mnt/sda5/.user/root/src/openwatcom-1.9/rel2/lib286/dos/clibl.lib(mem.c)
0000:6320      __MemAllocator
0000:63ea      __MemFree
Module: /mnt/sda5/.user/root/src/openwatcom-1.9/rel2/lib286/dos/clibl.lib(nfree.c)
0000:6547      _nfree_
0966:1cfe+     ___MiniHeapFreeRover
Module: /mnt/sda5/.user/root/src/openwatcom-1.9/rel2/lib286/dos/clibl.lib(sgdef086)
0966:1822      __Start_XI
0966:1846      __End_XI
0966:1846      __Start_YI
0966:185e      __End_YI
Module: /mnt/sda5/.user/root/src/openwatcom-1.9/rel2/lib286/dos/clibl.lib(enterdb.c)
0000:6642      __EnterWVIDEO_
0966:1814+     ___WD_Present
Module: /mnt/sda5/.user/root/src/openwatcom-1.9/rel2/lib286/dos/clibl.lib(___argc.c)
0966:1d00      ____Argv
0966:1d04      ____Argc
Module: /mnt/sda5/.user/root/src/openwatcom-1.9/rel2/lib286/dos/clibl.lib(amblksiz.c)
0966:1816      __amblksiz
Module: /mnt/sda5/.user/root/src/openwatcom-1.9/rel2/lib286/dos/clibl.lib(histsplt.c)
0966:1d06      ___historical_splitparms
Module: /mnt/sda5/.user/root/src/openwatcom-1.9/rel2/lib286/dos/clibl.lib(wctomb.c)
0000:6666      wctomb_
Module: /mnt/sda5/.user/root/src/openwatcom-1.9/rel2/lib286/dos/clibl.lib(itoa.c)
0000:668f+     utoa_
0000:66ec      itoa_
Module: /mnt/sda5/.user/root/src/openwatcom-1.9/rel2/lib286/dos/clibl.lib(i4m)
0000:6710      __I4M
0000:6710      __U4M
Module: /mnt/sda5/.user/root/src/openwatcom-1.9/rel2/lib286/dos/clibl.lib(strupr.c)
0000:6728      strupr_
Module: /mnt/sda5/.user/root/src/openwatcom-1.9/rel2/lib286/dos/clibl.lib(noefgfmt.c)
0966:1818      ___EFG_printf
0966:181c*     ___EFG_scanf
Module: /mnt/sda5/.user/root/src/openwatcom-1.9/rel2/lib286/dos/clibl.lib(lltoa.c)
0000:675d      ulltoa_
0000:6842*     lltoa_
Module: /mnt/sda5/.user/root/src/openwatcom-1.9/rel2/lib286/dos/clibl.lib(ltoa.c)
0000:68a4      ultoa_
0000:6913*     ltoa_
Module: /mnt/sda5/.user/root/src/openwatcom-1.9/rel2/lib286/dos/clibl.lib(nmemneed.c)
0000:6942      __nmemneed_
Module: /mnt/sda5/.user/root/src/openwatcom-1.9/rel2/lib286/dos/clibl.lib(grownear.c)
0000:69ca      __LastFree_
0000:6a44      __ExpandDGROUP_
Module: /mnt/sda5/.user/root/src/openwatcom-1.9/rel2/lib286/dos/clibl.lib(hpgrw086.c)
0000:6b55      __CMain_nheapgrow_
Module: /mnt/sda5/.user/root/src/openwatcom-1.9/rel2/lib286/dos/clibl.lib(growseg.c)
0000:6b5a      __GrowSeg_
Module: /mnt/sda5/.user/root/src/openwatcom-1.9/rel2/lib286/dos/clibl.lib(allocseg.c)
0000:6c4c      __AllocSeg_
Module: /mnt/sda5/.user/root/src/openwatcom-1.9/rel2/lib286/dos/clibl.lib(fmemneed.c)
0000:6ce3      __fmemneed_
Module: /mnt/sda5/.user/root/src/openwatcom-1.9/rel2/lib286/dos/clibl.lib(filedos.c)
0000:6ce6*     _dos_close_
0000:6cf4      _dos_commit_
Module: /mnt/sda5/.user/root/src/openwatcom-1.9/rel2/lib286/dos/clibl.lib(leapyear.c)
0000:6d04      __leapyear_
0966:0dea      ___diyr
0966:0e04      ___dilyr
Module: /mnt/sda5/.user/root/src/openwatcom-1.9/rel2/lib286/dos/clibl.lib(i4d)
0000:6d2e*     __I4D
0000:6d7d      __U4D
Module: /mnt/sda5/.user/root/src/openwatcom-1.9/rel2/lib286/dos/clibl.lib(clearenv.c)
0000:6e01      clearenv_
Module: /mnt/sda5/.user/root/src/openwatcom-1.9/rel2/lib286/dos/clibl.lib(fmsize.c)
0000:6ee3*     _msize_
0000:6ee3      _fmsize_
Module: /mnt/sda5/.user/root/src/openwatcom-1.9/rel2/lib286/dos/clibl.lib(nexpand.c)
0000:6ef4      __HeapManager_expand_
0000:706b      _nexpand_
Module: /mnt/sda5/.user/root/src/openwatcom-1.9/rel2/lib286/dos/clibl.lib(fexpand.c)
0000:70be      _fexpand_
0000:70be*     _expand_
Module: /mnt/sda5/.user/root/src/openwatcom-1.9/rel2/lib286/dos/clibl.lib(alphabet.c)
0966:0e1e      ___Alphabet
Module: /mnt/sda5/.user/root/src/openwatcom-1.9/rel2/lib286/dos/clibl.lib(heapen.c)
0000:70f3*     _heapenable_
0966:1820      ___heap_enabled
Module: /mnt/sda5/.user/root/src/openwatcom-1.9/rel2/lib286/dos/clibl.lib(sbrk.c)
0000:7104*     sbrk_
0000:7114      __brk_
Module: /mnt/sda5/.user/root/src/openwatcom-1.9/rel2/lib286/dos/clibl.lib(heapgrow.c)
0000:717e*     _heapgrow_
0000:717e*     _fheapgrow_
0000:717f      _nheapgrow_
Module: /mnt/sda5/.user/root/src/openwatcom-1.9/rel2/lib286/dos/clibl.lib(bfree.c)
0000:71f9      _bfree_
Module: /mnt/sda5/.user/root/src/openwatcom-1.9/rel2/lib286/dos/clibl.lib(bexpand.c)
0000:721e      _bexpand_


                        +--------------------+
                        |   Libraries Used   |
                        +--------------------+

/mnt/sda5/.user/root/src/openwatcom-1.9/rel2/lib286/dos/clibl.lib


                        +-----------------------+
                        |   Linker Statistics   |
                        +-----------------------+

Stack size:  0800 (2048.)
Memory size:  bb70 (47984.)
Entry point address: 0000:1bc0
Link time: 00:00.00
