Open Watcom Linker Version 1.9
Portions Copyright (c) 1985-2002 Sybase, Inc. All Rights Reserved.
Created on:       12/12/16 02:39:40
Executable Image: os2edit.dll
creating an OS/2 16-bit dynamic link library


                        +------------+
                        |   Groups   |
                        +------------+

Group                           Address              Size
=====                           =======              ====

dgroup                          0002:0000            00003228



                        +--------------+
                        |   Segments   |
                        +--------------+

Segment                Class          Group          Address         Size
=======                =====          =====          =======         ====

_TEXT                  code           AUTO           0001:0000       00002263
fard                   far_data       AUTO           0002:0000       00000000
last                   last           AUTO           0002:0000       00000000
_data                  data           dgroup         0002:0000       00000042
const                  data           dgroup         0002:0050       000000e6
CONST2                 data           dgroup         0002:0136       00000000
_BSS                   BSS            dgroup         0002:0136       000030f2


                        +----------------+
                        |   Memory Map   |
                        +----------------+

* = unreferenced symbol
+ = symbol only referenced locally

Address        Symbol
=======        ======

Module: cmdstart.obj(/mnt/sda5/.user/root/src/openwatcom-1.9/bld/cmdedit/cmdstart.asm)
0002:0019      _AliasList
0001:0000*     CMDStart_
0001:0033      OS2EDIT_
Module: cmdalias.ubj(/mnt/sda5/.user/root/src/openwatcom-1.9/bld/cmdedit/cmdalias.c)
0001:00b8      ListAliases_
0001:0121      InitAlias_
0001:0259+     FindAlias_
0001:0320+     LocateParm_
0001:0354+     SubstParms_
0001:0510      ReplaceAlias_
0001:05fc*     EndOfWord_
0001:0610      LookForAlias_
0001:0683+     FormName_
0001:06eb      PFKey_
Module: cmddata.ubj(/mnt/sda5/.user/root/src/openwatcom-1.9/bld/cmdedit/cmddata.c)
0002:0194      _PathBuff
0002:0394      _AliasArea
0002:0b94      _Line
0002:0d94      _Cur
0002:0d9c      _OldLine
0002:0f9c      _PathCurr
0002:0fa0      _PFChars
0002:0fa4      _KbdChar
0002:0fae      _Kbd
0002:0fb8      _NextFileCalls
0002:0fba      _AppendSlash
0002:0fbc      _FileUnique
0002:0fbe      _FileLower
0002:0fc0      _WantAlias
0002:0fc2      _AlwaysSave
0002:0fc4      _AliasSize
0002:0fc6      _HideDirCmds
0002:0fc8      _AlwaysAlias
0002:0fca      _StickyInsert
0002:0fcc      _KbdHandle
0002:0fce      _StartInInsert
0002:0fd0      _HaveDirent
0002:0fd2      _PrintAllFiles
0002:0fd4      _RowOffset
0002:0fd6      _CursorDiff
0002:0fd8      _StartDraw
0002:0fda      _Draw
0002:0fdc      _ColOffset
0002:0fde      _MaxCursor
0002:0fe0      _Base
0002:0fe2      _Edited
0002:0fe4      _Cursor
0002:0fe6      _FirstNextOrPrev
0002:0fe8      _Insert
0002:0fea      _StartCol
0002:0fec      _Overflow
0002:0fee      _ImmedCommand
0002:0ff0      _Row
0002:0ff2      _Col
0002:0ff4      _OldMaxCursor
0002:0ff6      _More
0002:0ff8      _LineSaved
0002:0ffa      _BuffOne
0002:0ffc      _OldCursor
0002:0ffe      _CmdSeparator
Module: cmddir.ubj(/mnt/sda5/.user/root/src/openwatcom-1.9/bld/cmdedit/cmddir.c)
0001:0740      ExpandDirCommand_
0001:0890+     DirCmds_
0001:0976      DoDirCommand_
Module: cmdedit.ubj(/mnt/sda5/.user/root/src/openwatcom-1.9/bld/cmdedit/cmdedit.c)
0001:0997      ToFirstCmd_
0001:09a5      ToLastCmd_
0001:09b3      WordSep_
0001:09d0      Left_
0001:09dc+     LocateLeftWord_
0001:0a11      LeftWord_
0001:0a25      BackSpace_
0001:0a32      Delete_
0001:0a65      DeleteBOW_
0001:0a78      Right_
0001:0a9b+     LocateRightWord_
0001:0acf      RightWord_
0001:0ad5      DeleteEOW_
0001:0ae7      BOL_
0001:0aec      EraseBOL_
0001:0afe      EOL_
0001:0b04      EraseEOL_
0001:0b12      FlipInsertMode_
0001:0b38      ScreenCursorOff_
0001:0b48      EraseLine_
0001:0b6d      InsertChar_
0001:0bab      OverlayChar_
Module: cmdfile.ubj(/mnt/sda5/.user/root/src/openwatcom-1.9/bld/cmdedit/cmdfile.c)
0001:0bd1      SaveLine_
0001:0bf9      RestoreLine_
0001:0c1e      MatchACommand_
0001:0c86      FiniFile_
0001:0c95      NonFileChar_
0001:0cc5+     FileIgnore_
0001:0dd2+     FindNext_
0001:0e0d      NextFile_
0001:11eb      PrevFile_
Module: cmdmain.ubj(/mnt/sda5/.user/root/src/openwatcom-1.9/bld/cmdedit/cmdmain.c)
0001:121c      InitRetrieve_
0001:146e+     CopyCmd_
0001:16c6      StringIn_
Module: cmdsave.ubj(/mnt/sda5/.user/root/src/openwatcom-1.9/bld/cmdedit/cmdsave.c)
0001:1afa*     SaveSave_
0001:1afb*     RestSave_
0001:1afe      InitSave_
0001:1b16+     SaveByte_
0001:1b7a      DelCmd_
0001:1c1d      SaveCmd_
0001:1ca3      PrevCmd_
0001:1d3c      NextCmd_
0001:1dab      ListCommands_
0001:1e2a      RetrieveACommand_
0002:121e+     _SaveArea
0002:321e+     _FirstFree
0002:3220+     _FirstCmd
0002:3222+     _LastWasNext
0002:3224+     _CurrCmd
Module: cmdscrn.ubj(/mnt/sda5/.user/root/src/openwatcom-1.9/bld/cmdedit/cmdscrn.c)
0001:1e4e      FlipScreenCursor_
0001:1ee1      RightScreen_
0001:1f00      ReadScreen_
0001:1f6b      LeftScreen_
0001:1f88      UpScreen_
0001:1fbe      DownScreen_
Module: cmdstub.ubj(/mnt/sda5/.user/root/src/openwatcom-1.9/bld/cmdedit/cmdstub.c)
0002:3226      _small_code_
Module: cmdutil.ubj(/mnt/sda5/.user/root/src/openwatcom-1.9/bld/cmdedit/cmdutil.c)
0001:1ffd      Equal_
0001:205a      ZapLower_
0001:2079      PutChar_
0001:209f      PutPad_
0001:20c3      PutString_
0001:20cc      PutNL_
0001:20dc      PutMore_
0001:2117      EatWhite_
0001:2126      SavePrompt_
0001:214e      RestorePrompt_
0001:2187      SetCursorType_
0001:219a      GetEnv_
Module: /mnt/sda5/.user/root/src/openwatcom-1.9/rel2/lib286/os2/clibs.lib(tolower.c)
0001:220a      tolower_
Module: /mnt/sda5/.user/root/src/openwatcom-1.9/rel2/lib286/os2/clibs.lib(memmove.c)
0001:2218      memmove_


                        +----------------------+
                        |   Imported Symbols   |
                        +----------------------+

Symbol                              Module
======                              ======

DosGetInfoSeg                       DOSCALLS
DosOpen                             DOSCALLS
DosChgFilePtr                       DOSCALLS
DosRead                             DOSCALLS
DosClose                            DOSCALLS
DosQCurDisk                         DOSCALLS
DosSelectDisk                       DOSCALLS
DosChDir                            DOSCALLS
DosFindNext                         DOSCALLS
DosFindFirst                        DOSCALLS
VioGetCurType                       VIOCALLS
VioWrtCharStr                       VIOCALLS
VioWrtNChar                         VIOCALLS
KbdGetStatus                        KBDCALLS
VioGetCurPos                        VIOCALLS
KbdCharIn                           KBDCALLS
VioSetCurPos                        VIOCALLS
VioReadCellStr                      VIOCALLS
VioWrtCellStr                       VIOCALLS
VioReadCharStr                      VIOCALLS
DosWrite                            DOSCALLS
VioSetCurType                       VIOCALLS
DosGetEnv                           DOSCALLS


                        +--------------------+
                        |   Libraries Used   |
                        +--------------------+

/mnt/sda5/.user/root/src/openwatcom-1.9/rel2/lib286/os2/os2.lib
/mnt/sda5/.user/root/src/openwatcom-1.9/rel2/lib286/os2/clibs.lib


                        +-----------------------+
                        |   Linker Statistics   |
                        +-----------------------+

Stack size:  0000 (0.)
Memory size:  548b (21643.)
Link time: 00:00.00
