Open Watcom Linker Version 1.9
Portions Copyright (c) 1985-2002 Sybase, Inc. All Rights Reserved.
Created on:       12/12/16 02:40:34
Executable Image: dwarf.dip
creating a Phar Lap relocatable executable


                        +------------+
                        |   Groups   |
                        +------------+

Group                           Address              Size
=====                           =======              ====

DGROUP                          000161c0             000004cc



                        +--------------+
                        |   Segments   |
                        +--------------+

Segment                Class          Group          Address         Size
=======                =====          =====          =======         ====

_TEXT                  CODE           AUTO           00000000        000161c0
CONST                  DATA           DGROUP         000161c0        00000028
CONST2                 DATA           DGROUP         000161e8        00000104
_DATA                  DATA           DGROUP         000162ec        0000030c
_BSS                   BSS            DGROUP         000165f8        00000094


                        +----------------+
                        |   Memory Map   |
                        +----------------+

* = unreferenced symbol
+ = symbol only referenced locally

Address        Symbol
=======        ======

Module: dipimp.obj(/mnt/sda5/.user/root/src/openwatcom-1.9/bld/dip/c/dipimp.c)
00000000*      _Signature
00000010*      DIPLOAD
00000040       DCAlloc_
00000050*      DCAllocZ_
00000080       DCRealloc_
00000090       DCFree_
000000a0       DCMapAddr_
000000b0       DCSymCreate_
000000c0       DCItemLocation_
000000d0       DCAssignLocation_
000000e0       DCSameAddrSpace_
00000110*      DCAddrSection_
00000120*      DCOpen_
00000130       DCSeek_
00000140       DCRead_
00000150*      DCReadAt_
000001b0*      DCWrite_
000001c0       DCClose_
000001d0*      DCRemove_
000001e0       DCStatus_
000001f0       DCCurrMAD_
00000210*      DCMachineData_
00000260+      DIPImpOldTypeBase_
000162ec+      _ImpInterface
000165f8       _NilAddr
00016600+      _Client
Module: dfmisc.obj(/mnt/sda5/.user/root/src/openwatcom-1.9/bld/dip/dwarf/c/dfmisc.c)
00000270       _DIPImpName
00000280       DIPImpCancel_
000002a0       DIPImpQueryHandleSize_
000002b0       DFAddImage_
000002c0       DFFreeImage_
000002f0       DIPImpMoreMem_
00000340       DIPImpStartup_
00000360       DIPImpShutdown_
00016608       _Cleaners
Module: dfld.obj(/mnt/sda5/.user/root/src/openwatcom-1.9/bld/dip/dwarf/c/dfld.c)
00000420+      Lookup_section_name_
00000d60       DIPImpLoadInfo_
00000eb0       DIPImpMapInfo_
00000f20       DIPImpUnloadInfo_
000163e4       _DWRRtns
Module: dfmod.obj(/mnt/sda5/.user/root/src/openwatcom-1.9/bld/dip/dwarf/c/dfmod.c)
000011a0       InitModMap_
00001250       ClearMods_
000012a0       FiniModMap_
00001300       Dwarf2ModIdx_
00001330       DwarfModIdx_
00001370       CuTag2ModIdx_
00001390       DFWalkModList_
000013e0       DFWalkModListSrc_
00001440       DIPImpWalkModList_
00001490       DIPImpModName_
000014e0       DIPImpModSrcLang_
00001530       DFAddrMod_
000015d0       DIPImpAddrMod_
000016a0       DIPImpModAddr_
00001760       DIPImpModInfo_
00001820       DIPImpModDefault_
000018a0       NameCopy_
000018e0       SetModPubNames_
Module: dfmodbld.obj(/mnt/sda5/.user/root/src/openwatcom-1.9/bld/dip/dwarf/c/dfmodbld.c)
00001900       InitModList_
00001920       NextModInfo_
00001990       FiniModInfo_
Module: dftype.obj(/mnt/sda5/.user/root/src/openwatcom-1.9/bld/dip/dwarf/c/dftype.c)
00001f90       DIPImpWalkTypeList_
00001fe0       DIPImpTypeMod_
00002050       MapImpTypeInfo_
00002140       DIPImpTypeInfo_
000021b0       DIPImpTypeBase_
000024c0       DIPImpTypeArrayInfo_
00002590       DIPImpTypeFreeAll_
00002590       DIPImpTypeRelease_
00002590       DIPImpTypeAddRef_
000025a0       GetParmN_
000025f0       GetParmCount_
00002630       DIPImpTypeProcInfo_
000026a0       DIPImpTypePtrAddrSpace_
000026b0       DIPImpTypeCmp_
00002ae0       WalkTypeSymList_
00002c10       SearchMbr_
00002dd0       DFBaseAdjust_
00002e30       DIPImpTypeThunkAdjust_
00002e50       DIPImpTypeName_
Module: dfsym.obj(/mnt/sda5/.user/root/src/openwatcom-1.9/bld/dip/dwarf/c/dfsym.c)
00002f20       DIPImpSymMod_
00002f40       DIPImpSymName_
00003080       DIPImpSymType_
000031a0       DFLoadAddrSym_
00003330       DIPImpSymLocation_
00003620       DIPImpSymValue_
000036b0       DIPImpSymInfo_
00003940+      GetRet_
00003980       DIPImpSymParmLocation_
00003a90       DIPImpSymObjType_
00003b30       DIPImpSymObjLocation_
00003ce0       DIPImpAddrSym_
00003f20       DIPImpAddrScope_
000040d0       DIPImpScopeOuter_
00004850       DIPImpWalkSymList_
00004870       DIPImpWalkSymListEx_
00004b10+      DoLookupSym_
00004d20       DIPImpLookupSym_
00004d40       DIPImpLookupSymEx_
00004d60       DIPImpSymCmp_
00004d70       DIPImpSymFreeAll_
00004d70       DIPImpSymRelease_
00004d70       DIPImpSymAddRef_
Module: dfaddr.obj(/mnt/sda5/.user/root/src/openwatcom-1.9/bld/dip/dwarf/c/dfaddr.c)
00004fe0       AddMapAddr_
00005110       FindMapAddr_
00005150       SortMapAddr_
00005160       Real2Map_
000051a0       InitAddrInfo_
000051d0       FiniAddrInfo_
Module: dfsegs.obj(/mnt/sda5/.user/root/src/openwatcom-1.9/bld/dip/dwarf/c/dfsegs.c)
000051f0       InitSegList_
00005210       FiniSegList_
00005240       AddMapSeg_
000052f0*      FindMapSeg_
000053c0       FindRealSeg_
00005440       SegWalk_
000054d0       SortSegReal_
Module: dfloc.obj(/mnt/sda5/.user/root/src/openwatcom-1.9/bld/dip/dwarf/c/dfloc.c)
00005940       SafeDCItemLocation_
00005980       LocationCreate_
000059f0       LocationAdd_
00005ae0       LocationTrunc_
00006220       EvalLocation_
00006400       EvalParmLocation_
00006480       EvalRetLocation_
00006520       EvalLocAdj_
00006630       EvalBasedPtr_
000067d0       EvalOffset_
00006810       EvalSeg_
00006850       EvalSymOffset_
Module: dfcue.obj(/mnt/sda5/.user/root/src/openwatcom-1.9/bld/dip/dwarf/c/dfcue.c)
000068b0       InitImpCueInfo_
00006900       FiniImpCueInfo_
00006920       DIPImpCueMod_
00006b50       DIPImpCueFile_
00006de0       DIPImpWalkFileList_
00006e60       DIPImpCueFileId_
00006ef0       DIPImpCueAdjust_
00007070       DIPImpCueLine_
00007080       DIPImpCueColumn_
00007090       DIPImpCueAddr_
000070c0       DIPImpAddrCue_
00007220       DIPImpLineCue_
00007360       DIPImpCueCmp_
Module: dfline.obj(/mnt/sda5/.user/root/src/openwatcom-1.9/bld/dip/dwarf/c/dfline.c)
000073a0       InitCueList_
000073b0       InitSegCue_
00007400       AddCue_
00007520       FindCueOffset_
000076b0       FindCue_
00007980       FiniCueInfo_
Module: dfaddsym.obj(/mnt/sda5/.user/root/src/openwatcom-1.9/bld/dip/dwarf/c/dfaddsym.c)
00007a40       AddAddrSym_
00007ad0       FindAddrSym_
00007c40       SortAddrSym_
00007ce0       WlkAddrSyms_
00007d00       InitAddrSym_
00007d30       FiniAddrSym_
Module: dfscope.obj(/mnt/sda5/.user/root/src/openwatcom-1.9/bld/dip/dwarf/c/dfscope.c)
00007d50       FindScope_
00007de0       AddScope_
00007e40       InitScope_
00007e60       FiniScope_
Module: dfhash.obj(/mnt/sda5/.user/root/src/openwatcom-1.9/bld/dip/dwarf/c/dfhash.c)
00007f60       InitHashName_
00007fb0       FiniHashName_
00008020       AddHashName_
000080e0       FindHashWalk_
0001660c*      _name_defs
Module: demangle.obj(/mnt/sda5/.user/root/src/openwatcom-1.9/bld/lib_misc/c/demangle.c)
0000a550*      __demangle_t_
0000a5b0       __demangle_l_
0000a620*      __demangle_r_
0000a6b0*      __scope_name_
0000a750       __is_mangled_
0000a830*      __is_mangled_internal_
0000a870*      __unmangled_name_
0000a8e0       __demangled_basename_
0000a950*      __parse_mangled_name_
0000a9b0*      __mangle_operator_
Module: stub.obj(/mnt/sda5/.user/root/src/openwatcom-1.9/bld/dip/dwarf/c/stub.c)
0000aaf0*      _matherr_
0000ab00       __FPE_exception_
0000ab00       __set_ERANGE_
00016668       _fltused_
0001666c*      __nullarea
00016670*      __8087
00016674*      __real87
Module: /mnt/sda5/.user/root/src/openwatcom-1.9/rel2/lib386/dos/clib3r.lib(memset.c)
0000ab10       memset_
Module: dwarfr.lib(/mnt/sda5/.user/root/src/openwatcom-1.9/bld/dwarf/dr/c/drinit.c)
0000ad10       DRDbgClear_
0000ad40       DRDbgDone_
0000ad70       DRDbgOldVersion_
0000ae70       DRDbgInitNFT_
0000ae90*      DRDbgInit_
0000aeb0       DRDbgFini_
0000af20       DRSetDebug_
0000af30       DRGetDebug_
0000af40       DRInit_
0000af60       DRFini_
00016464       _DWRCurrNode
Module: /mnt/sda5/.user/root/src/openwatcom-1.9/rel2/lib386/dos/clib3r.lib(stricmp.c)
0000af90       stricmp_
Module: dwarfr.lib(/mnt/sda5/.user/root/src/openwatcom-1.9/bld/dwarf/dr/c/drinfo.c)
0000b100       DRGetLanguageAT_
0000b120       DRGetMemModelAT_
0000b170       DRGetProducer_
0000b1c0*      DRGetLanguage_
0000b290       DRGetCompDirBuff_
0000b2a0       DRGetName_
0000b2c0       DRGetNameBuff_
0000b2d0       DRGetScopedNameBuff_
0000b3d0*      DRGetColumn_
0000b420*      DRGetLine_
0000b470*      DRGetFileName_
0000b4d0*      DRGetFileNameList_
0000b520*      DRIndexFileName_
0000b550       DRGetAccess_
0000b5a0       DRIsStatic_
0000b5f0       DRIsArtificial_
0000b640       DRIsSymDefined_
0000b680*      DRIsMemberStatic_
0000b6c0       DRIsFunc_
0000b700       DRIsParm_
0000b740       DRGetVirtuality_
0000b790*      DRGetByteSize_
0000b7e0       DRGetLowPc_
0000b830       DRGetHighPc_
0000b880       DRGetContaining_
0000b8d0*      DRWalkParent_
0000b930       DRWalkModFunc_
0000b980       DRWalkModTypes_
0000b9b0       DRWalkScope_
0000b9d0       DRWalkBlock_
0000ba20       DRStartScopeAT_
0000ba70       DRGetAddrSize_
0000ba80       DRDebugPCHDef_
0000bad0       DRGetTagType_
Module: dwarfr.lib(/mnt/sda5/.user/root/src/openwatcom-1.9/bld/dwarf/dr/c/drpubnam.c)
0000bb40       DRWalkPubName_
Module: dwarfr.lib(/mnt/sda5/.user/root/src/openwatcom-1.9/bld/dwarf/dr/c/drarange.c)
0000be60       DRWalkARange_
Module: dwarfr.lib(/mnt/sda5/.user/root/src/openwatcom-1.9/bld/dwarf/dr/c/drutils.c)
0000c0c0       _FunctionTags
0000c0c4       _ClassTags
0000c0cc       _TypedefTags
0000c0d0       _EnumTags
0000c0d4       _LabelTags
0000c0d8       _VariableTags
0000c0e2+      _MacroTags
0000c0e4       _SearchTags
0000c100+      _SearchSymbolTags
0000c116+      _SearchFunctionTags
0000c11a+      _SearchClassTags
0000c122+      _SearchTypeTags
0000c128+      _SearchVariableTags
0000c130+      _SearchFriendTags
0000c134+      _SearchBaseTags
0000c138*      _ScanKidsTags
0000c13e*      _DeclarationTags
0000c154       _SearchTypes
0000c170*      DWRInfoLength_
0000c190       DWRScanCompileUnit_
0000c380       DWRSkipChildren_
0000c3f0       DWRSkipAttribs_
0000c420       DWRSkipRest_
0000c460       DWRAllChildren_
0000c4c0       DWRSearchArray_
0000c4e0       DWRGetAddrSize_
0000c550       DWRSkipForm_
0000c670       DWRFormClass_
0000c6d0       ReadConst_
0000c790       DWRReadConstant_
0000c7b0       DWRReadReference_
0000c800       DWRReadAddr_
0000c890       DWRReadString_
0000c8f0       DWRReadFlag_
0000c930       DWRGetAbbrev_
0000c970       DWRLookupAbbrev_
0000c990*      DWRReadAbbrev_
0000c9b0       DWRCopyString_
0000c9d0+      DWRCopyDbgSecString_
0000ca00       DWRScanForAttrib_
0000ca40       DWRGetCompileUnitHdr_
0000caa0       DRGetCompileUnitTag_
0000cab0       DWRGetName_
0000cb60       DRIterateCompileUnits_
0000cb90*      DWRScanAllCompileUnits_
0000cc90       DWRWalkCompileUnit_
0000cd00       DWRWalkChildren_
0000ce40       DWRWalkContaining_
0000cf60       DWRWalkSiblings_
0000d040       DWRWalkScope_
0000d1c0       DWRFindCompileInfo_
0000d1f0       DWRFindCompileUnit_
0000d200+      DWRContextPush_
0000d270+      DWRContextPop_
0000d2b0       DWRContext_
0000d2d0       DWRFreeContextStack_
Module: dwarfr.lib(/mnt/sda5/.user/root/src/openwatcom-1.9/bld/dwarf/dr/c/drline.c)
0000d740       DRGetStmtList_
0000d7a0       DRWalkLines_
0000d820       DRWalkLFiles_
Module: /mnt/sda5/.user/root/src/openwatcom-1.9/rel2/lib386/dos/clib3r.lib(_strcmp)
0000d940       strcmp_
Module: dwarfr.lib(/mnt/sda5/.user/root/src/openwatcom-1.9/bld/dwarf/dr/c/drtype.c)
0000dc10       DRGetSubrangeInfo_
0000dc80       DRGetBitFieldInfo_
0000dd30       DRGetTypeInfo_
0000e0f0       DRGetAddrClass_
0000e180       DRGetTypeAT_
0000e1d0       DRGetArrayInfo_
0000e2e0       DRSkipTypeChain_
0000e370       DRWalkStruct_
0000e390       DRWalkArraySibs_
0000e3b0       DRWalkEnum_
0000e3d0       DRConstValAT_
Module: dwarfr.lib(/mnt/sda5/.user/root/src/openwatcom-1.9/bld/dwarf/dr/c/drloc.c)
0000f140       DRLocBasedAT_
0000f210       DRLocationAT_
0000f2b0       DRParmEntryAT_
0000f320       DRStringLengthAT_
0000f360       DRRetAddrLocation_
0000f3b0       DRSegLocation_
Module: /mnt/sda5/.user/root/src/openwatcom-1.9/rel2/lib386/dos/clib3r.lib(memcmp.c)
0000f400       memcmp_
Module: /mnt/sda5/.user/root/src/openwatcom-1.9/rel2/lib386/dos/clib3r.lib(memicmp.c)
0000f420       memicmp_
Module: dwarfr.lib(/mnt/sda5/.user/root/src/openwatcom-1.9/bld/dwarf/dr/c/drdecnam.c)
0000f790*      DRDecorateLabel_
0000f910       DRDecoratedName_
0000f940*      DRDecoratedNameList_
Module: /mnt/sda5/.user/root/src/openwatcom-1.9/rel2/lib386/dos/clib3r.lib(strncpy.c)
00012b90       strncpy_
Module: /mnt/sda5/.user/root/src/openwatcom-1.9/rel2/lib386/dos/clib3r.lib(memmove.c)
00012bd0       memmove_
Module: /mnt/sda5/.user/root/src/openwatcom-1.9/rel2/lib386/dos/clib3r.lib(qsort.c)
00012c90       qsort_
Module: /mnt/sda5/.user/root/src/openwatcom-1.9/rel2/lib386/dos/clib3r.lib(istable.c)
000161e8       __IsTable
Module: /mnt/sda5/.user/root/src/openwatcom-1.9/rel2/lib386/dos/clib3r.lib(tolower.c)
00013350       tolower_
Module: /mnt/sda5/.user/root/src/openwatcom-1.9/rel2/lib386/dos/clib3r.lib(itoa.c)
00013360+      utoa_
000133b0       itoa_
Module: /mnt/sda5/.user/root/src/openwatcom-1.9/rel2/lib386/dos/clib3r.lib(toupper.c)
000133e0       toupper_
Module: /mnt/sda5/.user/root/src/openwatcom-1.9/rel2/lib386/dos/clib3r.lib(strncmp.c)
000133f0       strncmp_
Module: /mnt/sda5/.user/root/src/openwatcom-1.9/rel2/lib386/dos/clib3r.lib(__stos)
00013420       __STOSB
00013457*      __STOSD
Module: dwarfr.lib(/mnt/sda5/.user/root/src/openwatcom-1.9/bld/dwarf/dr/c/virtmem.c)
000134d0       DWRVMInit_
00013530*      DWRVMReset_
000136b0       DWRVMAlloc_
000136c0*      DWRVMFree_
000136f0*      DRSwap_
000137d0       DWRVMDestroy_
000138e0       DWRVMSwap_
00013960       DWRVMSectDone_
00013980       DWRVMRead_
00013a20       DWRVMReadByte_
00013ba0       DWRVMReadSLEB128_
00013bb0       DWRVMReadULEB128_
00013c70       DWRVMSkipLEB128_
00013d60       DWRVMReadWord_
00013e30       DWRVMReadDWord_
00013f60       DWRStrLen_
00013ff0       DWRGetString_
00014080       DWRGetStrBuff_
Module: dwarfr.lib(/mnt/sda5/.user/root/src/openwatcom-1.9/bld/dwarf/dr/c/drgettab.c)
00014160       DWRInitFileTable_
00014180       DWRFiniFileTable_
000141f0+      DWRAddFileName_
00014260*      DWRAddIndex_
00014280*      DWRIndexPath_
00014290       DWRIndexFile_
000142a0       DWRIndexFileName_
00014330       DWRScanFileTable_
00014520       DWRFindFileName_
0001667c       _FileNameTable
Module: dwarfr.lib(/mnt/sda5/.user/root/src/openwatcom-1.9/bld/dwarf/dr/c/drscope.c)
00014620       DRGetScopeList_
00014660       DREndScopeList_
Module: /mnt/sda5/.user/root/src/openwatcom-1.9/rel2/lib386/dos/clib3r.lib(strrev.c)
00014690       strrev_
Module: dwarfr.lib(/mnt/sda5/.user/root/src/openwatcom-1.9/bld/dwarf/dr/c/drfdkids.c)
000146e0+      DRKidsSearch_
00014930       DRBaseSearch_
00014a40*      DRDerivedSearch_
00014b50*      DRFriendsSearch_
00014b80+      DRGetSymType_
Module: /mnt/sda5/.user/root/src/openwatcom-1.9/rel2/lib386/dos/clib3r.lib(strncat.c)
00014bf0       strncat_
Module: /mnt/sda5/.user/root/src/openwatcom-1.9/rel2/lib386/dos/clib3r.lib(ltoa.c)
00014c30       ultoa_
00014c80       ltoa_
Module: /mnt/sda5/.user/root/src/openwatcom-1.9/rel2/lib386/dos/clib3r.lib(fsfd386)
00014ca4       __FSFD
Module: /mnt/sda5/.user/root/src/openwatcom-1.9/rel2/lib386/dos/math3r.lib(gcvt.c)
00014d1f       gcvt_
Module: /mnt/sda5/.user/root/src/openwatcom-1.9/rel2/lib386/dos/clib3r.lib(alphabet.c)
000161c0       ___Alphabet
Module: /mnt/sda5/.user/root/src/openwatcom-1.9/rel2/lib386/dos/math3r.lib(fdld386)
00014e30       __iFDLD
Module: /mnt/sda5/.user/root/src/openwatcom-1.9/rel2/lib386/dos/math3r.lib(ldcvt.c)
00014f6c+      _LDScale10x_
00015536       __LDcvt_
Module: /mnt/sda5/.user/root/src/openwatcom-1.9/rel2/lib386/dos/clib3r.lib(fstat386)
0001591c*      F8UnderFlow
0001591e*      F4UnderFlow
00015921       F8InvalidOp
0001592d       F8DivZero
00015959*      F4DivZero
00015939*      F8OverFlow
00015965*      F4OverFlow
00015939*      F8RetInf_
00015939*      _F8RetInf_
Module: /mnt/sda5/.user/root/src/openwatcom-1.9/rel2/lib386/dos/math3r.lib(fldm386)
00015984       __FLDM
00015a4a*      ___LDM
Module: /mnt/sda5/.user/root/src/openwatcom-1.9/rel2/lib386/dos/math3r.lib(fldd386)
00015b60       __FLDD
00015c00*      ___LDD
Module: /mnt/sda5/.user/root/src/openwatcom-1.9/rel2/lib386/dos/math3r.lib(ldclass.c)
00015dbb       __LDClass_
00015e0b*      _FLClass_
Module: /mnt/sda5/.user/root/src/openwatcom-1.9/rel2/lib386/dos/math3r.lib(ldi4386)
00015e79       __LDI4
00015e7e*      __LDU4
00015e24*      __RLDU4
Module: /mnt/sda5/.user/root/src/openwatcom-1.9/rel2/lib386/dos/math3r.lib(i4ld386)
00015ee8       __I4LD
00015ef9*      __U4LD
Module: /mnt/sda5/.user/root/src/openwatcom-1.9/rel2/lib386/dos/math3r.lib(flda386)
00015f5a*      __FLDA
00015f84*      __FLDAC
00015f30       __FLDS
00016036*      ___LDA


                        +--------------------+
                        |   Libraries Used   |
                        +--------------------+

dwarfr.lib
/mnt/sda5/.user/root/src/openwatcom-1.9/rel2/lib386/dos/clib3r.lib
/mnt/sda5/.user/root/src/openwatcom-1.9/rel2/lib386/dos/math3r.lib


                        +-----------------------+
                        |   Linker Statistics   |
                        +-----------------------+

Stack size:  1000 (4096.)
Memory size:  0001668c (91788.)
Entry point address: 00000000
Link time: 00:00.00
