Open Watcom Linker Version 1.9
Portions Copyright (c) 1985-2002 Sybase, Inc. All Rights Reserved.
Created on:       12/12/16 02:38:54
Executable Image: vi.exe
creating a Windows NT character-mode executable


                        +------------+
                        |   Groups   |
                        +------------+

Group                           Address              Size
=====                           =======              ====

.idata                          00442000             0000090a
DGROUP                          00443000             0000c1a0



                        +--------------+
                        |   Segments   |
                        +--------------+

Segment                Class          Group          Address         Size
=======                =====          =====          =======         ====

BEGTEXT                CODE           AUTO           00401000        00000007
_TEXT                  CODE           AUTO           00401010        000405d0
TRANSFER CODE          CODE           AUTO           004415e0        000001ec
.idata                 .idata         .idata         00442000        0000090a
_NULL                  BEGDATA        DGROUP         00443000        00000004
_AFTERNULL             BEGDATA        DGROUP         00443004        00000000
CONST                  DATA           DGROUP         00443004        0000005c
CONST2                 DATA           DGROUP         00443060        00000000
_DATA                  DATA           DGROUP         00443060        00003968
XIB                    DATA           DGROUP         004469c8        00000000
XI                     DATA           DGROUP         004469c8        0000002a
XIE                    DATA           DGROUP         004469f2        00000000
YIB                    DATA           DGROUP         004469f2        00000000
YI                     DATA           DGROUP         004469f2        0000001e
YIE                    DATA           DGROUP         00446a10        00000000
TIB                    DATA           DGROUP         00446a10        00000000
TI                     DATA           DGROUP         00446a10        00000000
TIE                    DATA           DGROUP         00446a10        00000000
DATA                   DATA           DGROUP         00446a10        00000000
_BSS                   BSS            DGROUP         00447000        00003194
STACK                  STACK          DGROUP         0044a1a0        00005000


                        +----------------+
                        |   Memory Map   |
                        +----------------+

* = unreferenced symbol
+ = symbol only referenced locally

Address        Symbol
=======        ======

Module: version.obj(/mnt/sda5/.user/root/src/openwatcom-1.9/bld/vi/c/version.c)
00443060       _DATESTAMP_T
00443069       _DATESTAMP_D
00443075       _AUTHOR
004430b8       _VERSIONT
Module: name.obj(/mnt/sda5/.user/root/src/openwatcom-1.9/bld/vi/c/name.c)
004430bc       _TITLE
Module: key.obj(/mnt/sda5/.user/root/src/openwatcom-1.9/bld/vi/c/key.c)
00401110       GetVIKey_
00401160       GetKey_
00401240       NonKeyboardEventsPending_
00401270       GetNextEvent_
00401430       ClearBreak_
00401450       KeyAddString_
00401490       AddCurrentMouseEvent_
004014d0       KeyAdd_
Module: globals.obj(/mnt/sda5/.user/root/src/openwatcom-1.9/bld/vi/c/globals.c)
00447408       _SpawnPrompt
00447508       _DirFiles
00447f08       _SelRgn
00447f20       _MatchData
00447f68       _CurrentRegularExpression
00447f6c       _CurrentDirectory
00447f70       _SwapBlockArraySize
00447f74       _ReadBuffer
00447f78       _TileColors
00447f7c       _WriteBuffer
00447f80       _SwapBlocks
00447f84       _TmpDir
00447f88       _HomeDirectory
00447f8c       _DotCmd
00447f90       _DotBuffer
00447f94       _SwapBlocksInUse
00447f98       _SourceErrCount
00447f9c       _AltDotBuffer
00447fa0       _AltDotCount
00447fa4       _AltDotDigits
00447fa8       _DotCmdCount
00447fac       _ClockTicks
00447fb0       _RepeatDigits
00447fb4       _DotDigits
00447fb8       _DotCount
00447fbc*      _SystemRC
00447fc0       _MaxMemFree
00447fc4       _MaxMemFreeAfterInit
00447fc8       _RegExpError
00447fcc       _NumStatusSections
00447fd0       _WrapMargin
00447fd4       _StatusSections
00447fd8       _Savebufs
00448044       _UndoStack
00448048       _UndoUndoStack
0044804c       _DirFileCount
00448050       _SpecialSavebufs
00448194       _InputKeyMaps
00448198       _CurrentLine
0044819c       _Comspec
004481a0       _KeyMaps
004481a4       _CurrentKeyMap
004481a8       _CurrentKeyMapCount
004481ac       _FcbThreadHead
004481b0       _InfoHead
004481b4       _CurrentFile
004481b8       _EXEName
004481bc       _TagFileName
004481c0       _MarkList
004481c4       _CurrFIgnore
004481c8       _WorkLine
004481cc       _InfoTail
004481d0       _StaticBuffer
004481d4       _CurrentInfo
004481d8       _BndMemory
004481dc       _FIgnore
004481e0       _FcbThreadTail
004481e4       _HistoryFile
004481e8       _FcbBlocksInUse
004481ec       _CurrentFcb
004481f0       _HalfPageLines
004481f4       _Majick
004481f8       _WordAltDefn
004481fc       _NextAutoSave
00448200       _GrepDefault
00448204       _WordDefn
00448208       _SpinCount
0044820c       _MouseCol
00448210       _MouseRow
00448214       _MouseRepeatDelay
00448218       _MouseStatus
0044821c       _RepeatString
00448226       _LastError
00448228       _LastRetCode
0044822a       _LastRC
0044822c       _LastEvent
0044822e       _NoRepeatInfo
0044822f       _LastSavebuf
004430c4       _MSG_CHARACTERS
004430cf       _MSG_LINES
004430d5       _MSG_PRESSANYKEY
004430e3       _MSG_DELETEDINTOBUFFER
004430f9       _MEMORIZE_MODE
00443108       _CONFIG_FILE
0044310f       _SingleBlank
00443111       _SingleSlash
00443114       _BoolStr
0044311c       _EditOpts
00443128       _NumEditOpts
0044312c       _EventList
00444f2c       _MouseSpeed
00444f30       _MouseDoubleClickSpeed
00444f34       _MouseRepeatStartDelay
00444f38       _LastMouseEvent
00444f3c       _FileEndString
00444f40       _StatusString
00444f44       _MaxPush
00444f48       _Radix
00444f4c       _AutoSaveInterval
00444f50       _PageLinesExposed
00444f54       _StackK
00444f58       _SpinData
00444f5c       _ExitAttr
00444f60       _CurrentPos
00444f68       _LeftTopPos
00444f70       _VirtualColumnDesired
00444f74       _CurrentWindow
00444f78       _MessageWindow
00444f7c       _StatusWindow
00444f80       _MenuWindow
00444f84       _CurrNumWindow
00444f88       _CursorBlinkRate
00444f8c       _FilterHist
00444f98       _CLHist
00444fa4       _FindHist
00444fb0       _LastFilesHist
00444fbc       _SavebufBound
00444fd0       _CurrentSavebuf
00444fd4       _WorkSavebuf
00444fd8       _SavebufNumber
00444fdc       _cmdlinew_info
00444fee       _statusw_info
00445000       _repcntw_info
00445012       _editw_info
00445024       _extraw_info
00445036       _filecw_info
00445048       _linenumw_info
0044505a       _dirw_info
0044506c       _filelistw_info
0044507e       _setw_info
00445090       _setvalw_info
004450a2       _messagew_info
004450b4       _menuw_info
004450c6       _menubarw_info
004450d8       _defaultw_info
004450ea       _activemenu_info
004450fc       _greyedmenu_info
0044510e       _activegreyedmenu_info
00445120       _CommandBuffer
00445124       _SwapFileHandle
00445128       _MaxSwapBlocks
0044512c       _MaxLine
00445130       _MaxLinem1
00445134       _crlf
00445136       _OverstrikeCursorType
00445138       _InsertCursorType
0044513a       _NormalCursorType
0044513c       _MatchCount
00445140       _LineNumWinWidth
00445144       _TabAmount
00445148       _ShiftWidth
0044514c       _HardTab
00445150       _maxdotbuffer
00445154       _CurrentStatusColumn
00445158       _ClockX
0044515c       _ClockY
00445160       _SpinX
00445164       _SpinY
00445168       _MaxTileColors
0044516c       _MaxWindowTileX
00445170       _MaxWindowTileY
00445174       _MoveColor
00445175       _ResizeColor
00445176       _InactiveWindowColor
00445178       _WindMaxWidth
0044517a       _WindMaxHeight
0044517c       _ToolBarButtonHeight
00445180       _ToolBarButtonWidth
00445184       _ToolBarColor
00445185       _EndOfLineChar
00445186       _EditFlags
00448230       _VideoPage
Module: pdata.obj(/mnt/sda5/.user/root/src/openwatcom-1.9/bld/vi/c/pdata.c)
00445208       _ParseClTokens
00445600       _SetTokens1
004458a3       _SetTokens2
00445b5f       _SetTokens2a
Module: exdata.obj(/mnt/sda5/.user/root/src/openwatcom-1.9/bld/vi/c/exdata.c)
00445c18       _ExTokens
Module: srcdata.obj(/mnt/sda5/.user/root/src/openwatcom-1.9/bld/vi/c/srcdata.c)
00445c60       _SourceTokens
00445d05       _StrTokens
00448234       _VarHead
00448238       _ErrorValues
0044823c       _CurrentSrcLine
00448240       _CurrentSrcLabel
00448244       _VarTail
00448248       _ErrorTokens
0044824c       _CurrentSrcData
Module: rxwrap.obj(/mnt/sda5/.user/root/src/openwatcom-1.9/bld/vi/c/rxwrap.c)
00401580       RegComp_
004021c0       RegExec_
00402770*      RegAnchor_
00445d1c       _META
Module: rxsupp.obj(/mnt/sda5/.user/root/src/openwatcom-1.9/bld/vi/c/rxsupp.c)
00402780       IsMagicCharRegular_
004027c0       CurrentRegComp_
004027e0       GetCurrRegExpColumn_
004027f0       GetCurrRegExpLength_
00402800       MakeExpressionNonRegular_
004028d0       RegExpAttrSave_
00402930       RegExpAttrRestore_
Module: tab_hell.obj(/mnt/sda5/.user/root/src/openwatcom-1.9/bld/vi/c/tab_hell.c)
004029d0       InsertTabSpace_
00402a80       ExpandTabsInABufferUpToColumn_
00402b00       ExpandTabsInABuffer_
00402bf0       WinVirtualCursorPosition_
00402c40*      WinRealCursorPosition_
00402ca0       GetVirtualCursorPosition_
00402d20       VirtualColumnOnCurrentLine_
00402db0       RealColumnOnCurrentLine_
00402de0*      CursorPositionOffRight_
00402e50*      RealCursorPositionInString_
00402e80*      RealCursorPositionOnLine_
00402ed0       VirtualLineLen_
00402f20       AddLeadingTabSpace_
00403070       ConvertSpacesToTabsUpToColumn_
00448274       _TabCnt
Module: regsub.obj(/mnt/sda5/.user/root/src/openwatcom-1.9/bld/vi/c/regsub.c)
004032c0       RegSub_
Module: findrx.obj(/mnt/sda5/.user/root/src/openwatcom-1.9/bld/vi/c/findrx.c)
00403740       FindRegularExpression_
00403900       FindRegularExpressionBackwards_
Module: mem.obj(/mnt/sda5/.user/root/src/openwatcom-1.9/bld/vi/c/mem.c)
00403d40+      doMemAllocUnsafe_
00403da0       MemAlloc_
00403dc0       MemAllocUnsafe_
00403dd0       MemFree_
00403de0+      doMemReAllocUnsafe_
00403e80       MemReAllocUnsafe_
00403e90       MemReAlloc_
00403eb0       StaticAlloc_
00403f10       StaticFree_
00403f40       StaticStart_
00403fa0       StaticFini_
00403fb0       MemStrDup_
00445d50       _maxStatic
Module: addstr.obj(/mnt/sda5/.user/root/src/openwatcom-1.9/bld/vi/c/addstr.c)
00404000       AddString2_
00404020       AddString_
00404070       DeleteString_
Module: llrtns.obj(/mnt/sda5/.user/root/src/openwatcom-1.9/bld/vi/c/llrtns.c)
00404090       AddLLItemAtEnd_
004040c0       InsertLLItemAfter_
004040e0       InsertLLItemBefore_
00404100       DeleteLLItem_
00404140       ReplaceLLItem_
00404170*      ValidateLL_
Module: parse.obj(/mnt/sda5/.user/root/src/openwatcom-1.9/bld/vi/c/parse.c)
004041b0       RemoveLeadingSpaces_
004041e0*      TranslateTabs_
00404230       GetStringWithPossibleQuote2_
00404290       GetStringWithPossibleQuote_
004042a0       NextWord1_
00404310       NextWordSlash_
00404320       NextWord_
00404460       EliminateFirstN_
00404480       Tokenize_
00404570       GetNumberOfTokens_
004045b0       GetLongestTokenLength_
00404600       GetTokenString_
00404640       ReplaceSubString_
Module: int.obj(/mnt/sda5/.user/root/src/openwatcom-1.9/bld/vi/nt/int.c)
004046e0+      TimerThread_
00404820+      _BreakHandler
00404850       SetInterrupts_
00404890       RestoreInterrupts_
Module: biosnt.obj(/mnt/sda5/.user/root/src/openwatcom-1.9/bld/vi/nt/biosnt.c)
00404ad0*      BIOSGetColorPalette_
00404ae0       BIOSGetColorRegister_
00404af0       BIOSSetColorRegister_
00404af0       BIOSSetBlinkAttr_
00404af0       BIOSSetNoBlinkAttr_
00404b10       BIOSSetCursor_
00404b40       BIOSGetCursor_
00404d40       BIOSGetKeyboard_
00404e60       BIOSKeyboardHit_
00404ec0       BIOSUpdateScreen_
Module: uiglob.obj(/mnt/sda5/.user/root/src/openwatcom-1.9/bld/vi/ui/uiglob.c)
00445d54       _WindowNormalAttribute
00445d58       _WindowBordersNG
00445d64       _WindowBordersG
004482a0       _MinSlots
004482c8       _Windows
004486b0       _ClockStart
004486b4       _SpinLoc
004486b8       _Scrn
004486bc       _ScreenImage
004486c0       _GadgetString
Module: ui8086.obj(/mnt/sda5/.user/root/src/openwatcom-1.9/bld/vi/ui/ui8086.c)
00445d70       _PageCnt
00404f80       KillCursor_
00404fc0       RestoreCursor_
00404ff0       SetFont_
00405000       ClearScreen_
00405090       GetClockStart_
004050c0       GetSpinStart_
004050f0       SetPosToMessageLine_
00405120       SetGenericWindowCursor_
00405160       HideCursor_
00405200       InitColors_
00405220       ResetColors_
00405270       FiniColors_
004052c0       SetAColor_
004053c0       GetNumColors_
004053d0       GetColorSetting_
Module: winbrdr.obj(/mnt/sda5/.user/root/src/openwatcom-1.9/bld/vi/ui/winbrdr.c)
00405400       DrawBorder_
004059b0       SetBorderGadgets_
004059d0       WindowBorderData_
004059f0       SetGadgetString_
Module: winthumb.obj(/mnt/sda5/.user/root/src/openwatcom-1.9/bld/vi/ui/winthumb.c)
00405a60       DrawVerticalThumb_
00405b10       PositionVerticalScrollThumb_
00405b90       PositionToNewThumbPosition_
00405bf0       PositionHorizontalScrollThumb_
Module: winover.obj(/mnt/sda5/.user/root/src/openwatcom-1.9/bld/vi/ui/winover.c)
00405c00       ResetOverlap_
00405c70       MarkOverlap_
00405d70       RestoreOverlap_
00406000       TestOverlap_
00406040       WindowIsVisible_
00406050       TestVisible_
00406080       WhoIsUnder_
Module: winshow.obj(/mnt/sda5/.user/root/src/openwatcom-1.9/bld/vi/ui/winshow.c)
00406190       MoveWindowToFront_
004061b0       MoveWindowToFrontDammit_
004061f0       InactiveWindow_
00406210       ActiveWindow_
00406230       WindowTitleAOI_
00406280       WindowTitle_
00406290*      WindowTitleInactive_
004062a0       ClearWindow_
004063f0       InsideWindow_
Module: winswap.obj(/mnt/sda5/.user/root/src/openwatcom-1.9/bld/vi/ui/winswap.c)
00406560       SwapAllWindows_
00406660       AccessWindow_
004066a0       ReleaseWindow_
004066c0       WindowSwapFileClose_
Module: mouse.obj(/mnt/sda5/.user/root/src/openwatcom-1.9/bld/vi/ui/mouse.c)
004067a0       GetMouseEvent_
00406a50       RedrawMouse_
00406a80       DisplayMouse_
Module: windisp.obj(/mnt/sda5/.user/root/src/openwatcom-1.9/bld/vi/ui/windisp.c)
00406b60+      displayLineInWindowGeneric_
00406f90       DisplayLineInWindowWithColor_
00406fd0       DisplayLineInWindowWithSyntaxStyle_
004070a0       DisplayCrossLineInWindow_
00407410       HiliteAColumnRange_
00407460*      ColorAColumnRange_
004074b0       SetCharInWindowWithColor_
00407620       DisplayLineInWindow_
Module: winscrl.obj(/mnt/sda5/.user/root/src/openwatcom-1.9/bld/vi/ui/winscrl.c)
00407660       ShiftWindowUpDown_
Module: winnew.obj(/mnt/sda5/.user/root/src/openwatcom-1.9/bld/vi/ui/winnew.c)
004077b0       ResetWindow_
00407890       ValidDimension_
004078f0+      GimmeWindow_
00407920       AllocWindow_
00407a00       NewWindow_
00407ae0       FreeWindow_
00407b20       CloseAWindow_
Module: init.obj(/mnt/sda5/.user/root/src/openwatcom-1.9/bld/vi/c/init.c)
00407c20       FiniCFName_
00408830       InitializeEditor_
00445da8+      _WordDefnDefault
Module: getopt.obj(/mnt/sda5/.user/root/src/openwatcom-1.9/bld/posix/misc/getopt.c)
00445dac+      _OptInd
00445db0+      _AltOptChar
004088f0       GetOpt_
00448c28       _OptArg
00448c2c+      _OptChar
Module: autoenv.obj(/mnt/sda5/.user/root/src/openwatcom-1.9/bld/watcom/c/autoenv.c)
00408cc0       watcom_setup_env_
Module: xmem.obj(/mnt/sda5/.user/root/src/openwatcom-1.9/bld/vi/c/xmem.c)
00408eb0       ExtendedMemoryFini_
00408eb0       ExtendedMemoryInit_
Module: fcbswap.obj(/mnt/sda5/.user/root/src/openwatcom-1.9/bld/vi/c/fcbswap.c)
00408ec0       FetchFcb_
00408f00       SwapFcb_
00408f40       RestoreToNormalMemory_
Module: clset.obj(/mnt/sda5/.user/root/src/openwatcom-1.9/bld/vi/c/clset.c)
004097f0+      GetNewValueDialog_
0040ac20+      SettingSelected_
0040ae90       Set_
0040b190       GetASetVal_
Module: hist.obj(/mnt/sda5/.user/root/src/openwatcom-1.9/bld/vi/c/hist.c)
0040b260       LoadHistory_
0040b490       SaveHistory_
0040b500       FilterHistInit_
0040b530       CLHistInit_
0040b560       FindHistInit_
0040b590       LastFilesHistInit_
0040b5c0       HistFini_
Module: samefile.obj(/mnt/sda5/.user/root/src/openwatcom-1.9/bld/vi/c/samefile.c)
0040b600       SameFile_
Module: dirdisp.obj(/mnt/sda5/.user/root/src/openwatcom-1.9/bld/vi/c/dirdisp.c)
0040b6a0+      FileCompleteMouseHandler_
0040bd60       StartFileComplete_
0040be40       ContinueFileComplete_
0040be80       FinishFileComplete_
0040beb0       PauseFileComplete_
Module: expandfn.obj(/mnt/sda5/.user/root/src/openwatcom-1.9/bld/vi/c/expandfn.c)
0040bee0       ExpandFileNames_
Module: getdir.obj(/mnt/sda5/.user/root/src/openwatcom-1.9/bld/vi/c/getdir.c)
0040c330       GetSortDir_
0040c370       DirFini_
Module: mapkey.obj(/mnt/sda5/.user/root/src/openwatcom-1.9/bld/vi/c/mapkey.c)
00448d54+      _currUndoStack
0040c450       MapKey_
0040c650       DoKeyMap_
0040c860       RunKeyMap_
0040c8b0       StartInputKeyMap_
0040c920       DoneInputKeyMap_
0040c940+      extractViKeyToken_
0040c9c0       AddKeyMap_
0040caa0       InitKeyMaps_
0040cac0       FiniKeyMaps_
0040cb30       ExecuteBuffer_
0040cb80       LookUpCharToken_
Module: editmv.obj(/mnt/sda5/.user/root/src/openwatcom-1.9/bld/vi/c/editmv.c)
0040cc40+      MoveScreenML_
0040cc90       MoveScreenDown_
0040ccf0       MoveScreenUp_
0040cd60*      MoveScreenDownPageML_
0040cd80*      MoveScreenUpPageML_
0040cdb0*      MoveScreenLeftPageML_
0040cde0*      MoveScreenRightPageML_
0040ce00       MovePage_
0040cef0       MovePageDown_
0040cf10       MovePageUp_
0040cf30       MovePosition_
0040d040       MoveHalfPageDown_
0040d050       MoveHalfPageUp_
0040d0a0+      MoveScreenLeftRightML_
Module: linenum.obj(/mnt/sda5/.user/root/src/openwatcom-1.9/bld/vi/c/linenum.c)
0040d0d0       LineNumbersSetup_
Module: linework.obj(/mnt/sda5/.user/root/src/openwatcom-1.9/bld/vi/c/linework.c)
0040d280       GetCurrentLine_
0040d2d0       ReplaceCurrentLine_
0040d370       DisplayWorkLine_
Module: undoclne.obj(/mnt/sda5/.user/root/src/openwatcom-1.9/bld/vi/c/undoclne.c)
0040d390       CurrentLineReplaceUndoStart_
0040d430       CurrentLineReplaceUndoCancel_
0040d450       CurrentLineReplaceUndoEnd_
0040d5f0       ConditionalCurrentLineReplaceUndoEnd_
Module: fcbdmp.obj(/mnt/sda5/.user/root/src/openwatcom-1.9/bld/vi/c/fcbdmp.c)
0040d6c0       WalkUndo_
0040d6c0       LineInfo_
0040d6c0       SanityCheck_
0040d6c0       FcbThreadDump_
0040d6c0       FcbDump_
0040d6c0       HeapCheck_
0040d6d0       DumpMemory_
Module: file.obj(/mnt/sda5/.user/root/src/openwatcom-1.9/bld/vi/c/file.c)
0040d930       SaveInfo_
0040da10       SaveCurrentInfo_
0040da80       RestoreInfo_
0040e150       DisplayFileStatus_
0040e340       CTurnOffFileDisplayBits_
0040e380       CFileReadOnly_
0040e440       FileIOMessage_
0040e460       IsTextFile_
0040e4c0       GimmeFileCount_
Module: filemove.obj(/mnt/sda5/.user/root/src/openwatcom-1.9/bld/vi/c/filemove.c)
0040e4e0       NextFileDammit_
0040e6c0       NextFile_
0040e6f0       RotateFileForward_
0040e710       RotateFileBackwards_
0040e750*      GotoFile_
0040e780       BringUpFile_
Module: filelast.obj(/mnt/sda5/.user/root/src/openwatcom-1.9/bld/vi/c/filelast.c)
0040e890       UpdateLastFileList_
Module: fini.obj(/mnt/sda5/.user/root/src/openwatcom-1.9/bld/vi/c/fini.c)
0040ed10       Quit_
0040ee40       ExitEditor_
0040ef10       QuitEditor_
00445e00+      _UsageMsg
00445e44       _OptEnvVar
Module: autosave.obj(/mnt/sda5/.user/root/src/openwatcom-1.9/bld/vi/c/autosave.c)
0040f010+      GetCurrentFilePath_
0040f1c0       DoAutoSave_
0040f3b0       LostFileCheck_
0040f4e0       AutoSaveInit_
0040f830       AutoSaveFini_
0040f8c0       SetNextAutoSaveTime_
0040f8e0       RemoveFromAutoSaveList_
Module: srchook.obj(/mnt/sda5/.user/root/src/openwatcom-1.9/bld/vi/c/srchook.c)
0040fb90       GetHookVar_
0040fcc0       SourceHook_
0040fce0*      SourceHookData_
0040fd20       HookScriptCheck_
0040fd40       InvokeColSelHook_
0040fe70       InvokeLineSelHook_
0040ff20       InvokeMenuHook_
Module: srcgoto.obj(/mnt/sda5/.user/root/src/openwatcom-1.9/bld/vi/c/srcgoto.c)
0040ff50       SrcGoTo_
0040ffc0       AddLabel_
Module: srcif.obj(/mnt/sda5/.user/root/src/openwatcom-1.9/bld/vi/c/srcif.c)
004100b0       SrcIf_
00410130       GetErrorTokenValue_
004101b0       ReadErrorTokens_
Module: srcfile.obj(/mnt/sda5/.user/root/src/openwatcom-1.9/bld/vi/c/srcfile.c)
00410210       SrcOpen_
004103e0       SrcRead_
00410560       SrcWrite_
00410620       SrcClose_
Module: srccs.obj(/mnt/sda5/.user/root/src/openwatcom-1.9/bld/vi/c/srccs.c)
004107b0       CSInit_
004107d0       CSFini_
00410850       CSIf_
00410870       CSElseIf_
004108e0       CSElse_
00410930       CSEndif_
00410980       CSWhile_
004109b0       CSLoop_
004109d0       CSEndLoop_
00410a10       CSUntil_
00410a90       CSContinue_
00410aa0       CSBreak_
00410ab0       CSQuif_
Module: srcexpr.obj(/mnt/sda5/.user/root/src/openwatcom-1.9/bld/vi/c/srcexpr.c)
00410ae0       SrcExpr_
Module: srcvar.obj(/mnt/sda5/.user/root/src/openwatcom-1.9/bld/vi/c/srcvar.c)
00410c40       VarAddGlobalStr_
00410c50       VarAddRandC_
00410ca0       SetModifiedVar_
00410cb0       VarAddGlobalLong_
00410ce0       VarAddStr_
00410df0       VarListDelete_
00410e20       VarName_
00410ea0       VarFind_
00410f00       VarFini_
00410f30*      VarDump_
00410f80*      VarSC_
Module: srcinp.obj(/mnt/sda5/.user/root/src/openwatcom-1.9/bld/vi/c/srcinp.c)
004110c0       SrcInput_
004110d0       SrcGet_
Module: srcassgn.obj(/mnt/sda5/.user/root/src/openwatcom-1.9/bld/vi/c/srcassgn.c)
004110f0       SrcAssign_
Module: srcexpnd.obj(/mnt/sda5/.user/root/src/openwatcom-1.9/bld/vi/c/srcexpnd.c)
00411700       Expand_
Module: srcnextw.obj(/mnt/sda5/.user/root/src/openwatcom-1.9/bld/vi/c/srcnextw.c)
00411930       SrcNextWord_
Module: filestk.obj(/mnt/sda5/.user/root/src/openwatcom-1.9/bld/vi/c/filestk.c)
00411a40       InitFileStack_
00411a70       FiniFileStack_
00411a80       PushFileStack_
00411b50       PushFileStackAndMsg_
00411b80       PopFileStack_
Module: dotmode.obj(/mnt/sda5/.user/root/src/openwatcom-1.9/bld/vi/c/dotmode.c)
00411c20       SaveDotCmd_
00411c60       DoDotMode_
00411d60       DoAltDotMode_
Module: source.obj(/mnt/sda5/.user/root/src/openwatcom-1.9/bld/vi/c/source.c)
00411ef0       Source_
004127a0       FileSPVAR_
004129f0       SourceError_
00412e80       DeleteResidentScripts_
Module: mark.obj(/mnt/sda5/.user/root/src/openwatcom-1.9/bld/vi/c/mark.c)
00412fa0       SetMark_
00413050+      MarkOnLine_
004130b0+      RemoveMarkFromLine_
004131a0       SetGenericMark_
004132c0       GoMark_
004132f0       GoMarkLine_
00413300*      GetMarkLine_
00413320*      GetMark_
004133f0       VerifyMark_
00413560       AllocateMarkList_
00413590       SetMarkContext_
004135b0       FreeMarkList_
00413630       MemorizeCurrentContext_
Module: move.obj(/mnt/sda5/.user/root/src/openwatcom-1.9/bld/vi/c/move.c)
00413840       GoToLineRelCurs_
00413850       GoToLineNoRelCurs_
00413860       SetCurrentLineNumber_
004138d0       GoToColumnOK_
004138e0       GoToColumnOnCurrentLine_
00413930       GoToColumn_
004139d0       SetCurrentLine_
00413a70       CheckLeftColumn_
00413ae0       ValidateCurrentColumn_
00413b60       CheckCurrentColumn_
00413c10       ShiftTab_
00413c40       SetCurrentColumn_
00413cd0       LocateCmd_
Module: change.obj(/mnt/sda5/.user/root/src/openwatcom-1.9/bld/vi/c/change.c)
00413d90       DoLineSubstitute_
00413da0       DoSubstitute_
00413db0       DoChangeLineEnd_
Module: delete.obj(/mnt/sda5/.user/root/src/openwatcom-1.9/bld/vi/c/delete.c)
00413dc0       DoDeleteRegion_
00413de0       DoDeleteLineEnd_
00413e00       DoDeleteCharAtCursor_
00413e50       DoDeleteCharBeforeCursor_
00413e90       DeleteSelectedRegion_
00413ec0       YankSelectedRegion_
Module: linefind.obj(/mnt/sda5/.user/root/src/openwatcom-1.9/bld/vi/c/linefind.c)
00413f70*      FindFirstCharNotInListForward_
00413fc0*      FindFirstCharNotInListBackwards_
00414010*      FindFirstCharInRangeForward_
00414050*      FindFirstCharNotInRangeForward_
00414090*      FindFirstCharInRangeBackwards_
004140d0*      FindFirstCharNotInRangeBackward_
00414110       TestIfCharInRange_
00414170       FindCharOnCurrentLine_
00414240       FancyGotoLine_
Module: dat.obj(/mnt/sda5/.user/root/src/openwatcom-1.9/bld/vi/c/dat.c)
00414250       ReadDataFile_
Module: parsecl.obj(/mnt/sda5/.user/root/src/openwatcom-1.9/bld/vi/c/parsecl.c)
00414430       ParseCommandLine_
004147b0       GetAddress_
Module: findcmd.obj(/mnt/sda5/.user/root/src/openwatcom-1.9/bld/vi/c/findcmd.c)
00414bc0       FindCmdFini_
00414be0       HilightSearchString_
00414c30       ResetLastFind_
00414c60+      GetFindForward_
00414c90+      GetFindBackwards_
00414d50       DoFindForward_
00414d70       DoFindBackwards_
00414da0+      JumpTo_
00414df0       FancyDoFindMisc_
00414e30+      FancyDoFind_
00414e60       DoNextFindForward_
00414ea0       DoNextFindBackwards_
00414ee0       DoNextFindForwardMisc_
00414f30       DoNextFindBackwardsMisc_
00415020       GetFind_
00415310*      SaveFindRowColumn_
00415330       ColorFind_
004153d0       SetLastFind_
004153e0       FancyDoReplace_
Module: savebuf.obj(/mnt/sda5/.user/root/src/openwatcom-1.9/bld/vi/c/savebuf.c)
00415730       InsertSavebufBefore_
00415750       InsertSavebufBefore2_
00415770       InsertSavebufAfter_
004157a0*      InsertSavebufAfter2_
004157d0       GetSavebufString_
00415970       InitSavebufs_
004159a0       FiniSavebufs_
004159d0       AddLineToSavebuf_
00415a80       AddSelRgnToSavebuf_
00415ac0       AddSelRgnToSavebufAndDelete_
00415ad0       AddFcbsToSavebuf_
00415b70       SwitchSavebuf_
00415c60       DoSavebufNumber_
00415ca0       SetSavebufNumber_
00415d30       IsEmptySavebuf_
Module: error.obj(/mnt/sda5/.user/root/src/openwatcom-1.9/bld/vi/c/error.c)
00415dc0       FatalError_
00415e00*      Die_
00415e50       GetErrorMsg_
00415ef0       Error_
00416000       ErrorBox_
00416160       ErrorFini_
Module: cmdline.obj(/mnt/sda5/.user/root/src/openwatcom-1.9/bld/vi/c/cmdline.c)
00416220       InitCommandLine_
00416230       FiniCommandLine_
004162b0       ProcessCommandLine_
004162c0       FancyProcessCommandLine_
00416300       TryCompileableToken_
004166c0       RunCommandLine_
004178e0       ProcessWindow_
00418240+      _Batcher@8
Module: editdc.obj(/mnt/sda5/.user/root/src/openwatcom-1.9/bld/vi/c/editdc.c)
00418270       DeleteRangeOnCurrentLine_
004182f0       DeleteBlockFromCurrentLine_
Module: word.obj(/mnt/sda5/.user/root/src/openwatcom-1.9/bld/vi/c/word.c)
00418390       InitWordSearch_
00418580       MarkStartOfNextWordForward_
00418630       MarkEndOfNextWordForward_
00418710       MarkStartOfNextWordBackward_
004187c0       GimmeCurrentWord_
00418860       GimmeCurrentEntireWordDim_
Module: hide.obj(/mnt/sda5/.user/root/src/openwatcom-1.9/bld/vi/c/hide.c)
00418990       HideLineRange_
Module: editins.obj(/mnt/sda5/.user/root/src/openwatcom-1.9/bld/vi/c/editins.c)
00418b00       DoneCurrentInsert_
00418b80       UpdateEditStatus_
00418df0       IMChar_
00418e90       IMEsc_
00418ea0       IMEnter_
00419050       IMBackSpace_
004191d0       IMDelete_
00419280       IMDeleteML_
00419290       IMBackSpaceML_
004192a0       IMMouseEvent_
004192d0       IMCursorKey_
00419450       IMMenuKey_
00419490       IMSpace_
004194c0       IMTabs_
00419820       IMEscapeNextChar_
00419850       IMInsert_
004198a0       IMCloseBracket_
00419a00       IMCloseBrace_
00419c00       DeleteAndInsertText_
00419ce0       InsertTextOnNextLine_
00419cf0       InsertTextOnPreviousLine_
00419df0       InsertTextAtCursor_
00419e00       InsertTextAfterCursor_
00419e10       InsertTextAtLineStart_
00419e30       InsertTextAtLineEnd_
00419e60       DoReplaceText_
00419e80       InsertLikeLast_
00419ea0*      PushMode_
00419f00*      PopMode_
Module: getautoi.obj(/mnt/sda5/.user/root/src/openwatcom-1.9/bld/vi/c/getautoi.c)
00419fe0       GetAutoIndentAmount_
Module: replace.obj(/mnt/sda5/.user/root/src/openwatcom-1.9/bld/vi/c/replace.c)
0041a170       ReplaceChar_
Module: dir.obj(/mnt/sda5/.user/root/src/openwatcom-1.9/bld/vi/c/dir.c)
0041a3f0       GetCWD1_
0041a420       GetCWD2_
0041a440       ChangeDirectory_
0041a490       ConditionalChangeDirectory_
0041a4c0       SetCWD_
0041a5a0       FormatDirToFile_
Module: select.obj(/mnt/sda5/.user/root/src/openwatcom-1.9/bld/vi/c/select.c)
0041a9d0       SelectItem_
0041ab00       SelectItemAndValue_
Module: io.obj(/mnt/sda5/.user/root/src/openwatcom-1.9/bld/vi/c/io.c)
0041abd0       FileExists_
0041aca0       FileOpen_
0041ad30       FileSeek_
0041add0       GetFromEnvAndOpen_
0041ae10       GetFromEnv_
0041ae40       VerifyTmpDir_
0041af40       MakeTmpPath_
0041af90       TmpFileOpen_
0041afd0       TmpFileClose_
0041b000       FileLower_
0041b010       FileTemplateMatch_
0041b090       StripPath_
Module: clread.obj(/mnt/sda5/.user/root/src/openwatcom-1.9/bld/vi/c/clread.c)
0041b0f0       ReadAFile_
Module: cledit.obj(/mnt/sda5/.user/root/src/openwatcom-1.9/bld/vi/c/cledit.c)
0041b330       EditFile_
0041ba00       EditFileFromList_
0041bc50       OpenWindowOnFile_
Module: misc.obj(/mnt/sda5/.user/root/src/openwatcom-1.9/bld/vi/c/misc.c)
0041bf30*      doExec_
0041bf30       ExecCmd_
0041c070       GetResponse_
0041c090*      PromptThisFileForSave_
0041c090*      PromptFilesForSave_
0041c0a0*      QueryFile_
0041c0e0       ExitWithPrompt_
0041c140       ExitWithVerify_
0041c1f0       PrintHexValue_
0041c230       EnterHexKey_
0041c390       DoVersion_
0041c3d0       StrMerge_
0041c430       ModificationTest_
0041c4a0       CurFileExitOptionSaveChanges_
0041c4b0       FancySetGen_
0041c4b0       FancySetScr_
0041c4b0       FancySetFS_
0041c4b0       DoAboutBox_
0041c4c0*      UpdateCurrentDirectory_
0041c4e0       NextBiggestPrime_
0041c530*      ToggleToolbar_
0041c570*      ToggleStatusbar_
0041c5b0*      ToggleColorbar_
0041c5f0*      ToggleSSbar_
0041c630*      ToggleFontbar_
0041c670       GenericQueryBool_
Module: tags.obj(/mnt/sda5/.user/root/src/openwatcom-1.9/bld/vi/c/tags.c)
0041c6d0       GetCurrentTag_
0041c710       TagHunt_
0041c800       FindTag_
0041c830+      PickATag_
0041cbb0+      SearchForTags_
0041cc90       LocateTag_
Module: alias.obj(/mnt/sda5/.user/root/src/openwatcom-1.9/bld/vi/c/alias.c)
0041cec0       SetAlias_
0041cee0       UnAlias_
0041cf00       CheckAlias_
0041cf40       Abbrev_
0041cf60       UnAbbrev_
0041cf80       CheckAbbrev_
Module: bnddata.obj(/mnt/sda5/.user/root/src/openwatcom-1.9/bld/vi/c/bnddata.c)
0041d030       CheckForBoundData_
0041d1a0       SpecialOpen_
0041d300       SpecialFclose_
0041d330       SpecialFgets_
Module: abandon.obj(/mnt/sda5/.user/root/src/openwatcom-1.9/bld/vi/c/abandon.c)
0041d4a0       AbandonHopeAllYeWhoEnterHere_
Module: filter.obj(/mnt/sda5/.user/root/src/openwatcom-1.9/bld/vi/c/filter.c)
0041d520       DoGenericFilter_
Module: ex.obj(/mnt/sda5/.user/root/src/openwatcom-1.9/bld/vi/c/ex.c)
0041d720       EnterExMode_
0041d890       ProcessEx_
Module: exappend.obj(/mnt/sda5/.user/root/src/openwatcom-1.9/bld/vi/c/exappend.c)
0041dde0       Append_
0041de40       AppendAnother_
Module: wingen.obj(/mnt/sda5/.user/root/src/openwatcom-1.9/bld/vi/c/wingen.c)
0041df20       NewMessageWindow_
0041df60       NewWindow2_
0041dfa0       Message1_
0041e040       Message1Box_
0041e0e0       Message2_
0041e180       WPrintfLine_
0041e1e0       SetWindowCursor_
0041e1f0+      SetWindowCursorForReal_
0041e250       DisplayExtraInfo_
0041e2b0       ColumnInWindow_
0041e2f0       SetWindowSizes_
0041e440       CurrentWindowResize_
0041e520       SetFileWindowTitle_
0041e590       ResetAllWindows_
Module: printf.obj(/mnt/sda5/.user/root/src/openwatcom-1.9/bld/vi/c/printf.c)
0041e5e0       Lead_
0041e8e0       MyPrintf_
0041e920       MySprintf_
0041e960       MyVSprintf_
0041e980       MyVPrintf_
0041ea30       MyFprintf_
Module: getspcmd.obj(/mnt/sda5/.user/root/src/openwatcom-1.9/bld/vi/c/getspcmd.c)
0041ea70       GetSpawnCommandLine_
Module: selrgn.obj(/mnt/sda5/.user/root/src/openwatcom-1.9/bld/vi/c/selrgn.c)
0041edc0*      GetFixedSelectedRegion_
0041ee70       InitSelectedRegion_
0041eeb0       SelRgnFini_
0041eeb0       SelRgnInit_
0041eec0       UnselectRegion_
0041eef0       UpdateDrag_
0041f070       UpdateCursorDrag_
0041f140       SetSelRegionCols_
0041f1d0       ReselectRegion_
0041f210+      startSelectedRegion_
0041f290       SelectLeft_
0041f2c0       SelectRight_
0041f2f0       SelectUp_
0041f320       SelectDown_
0041f350       SelectHome_
0041f380       SelectEnd_
0041f3b0       SelectPageUp_
0041f3f0       SelectPageDown_
0041f430*      SelectBackwardsWord_
0041f460*      SelectForwardWord_
0041f490*      SelectStartOfFile_
0041f4c0*      SelectEndOfFile_
0041f4f0*      SelectTopOfPage_
0041f520*      SelectBottomOfPage_
0041f640       DoSelectSelectionPopMenu_
0041f650       DoSelectSelection_
0041f720       GetSelectedRegion_
0041f7d0       SetSelectedRegion_
0041f8a0       SetSelectedRegionFromLine_
0041f8f0       NormalizeRange_
0041f970       SelectAll_
Module: cstatus.obj(/mnt/sda5/.user/root/src/openwatcom-1.9/bld/vi/c/cstatus.c)
0041fa30       GetModeString_
0041fa60       UpdateCurrentStatus_
Module: help.obj(/mnt/sda5/.user/root/src/openwatcom-1.9/bld/vi/c/help.c)
0041fc00       DoHelpOnContext_
0041fc10       DoHelp_
00445f54       _helpFiles
00445f6c       _nHelpFiles
Module: readstr.obj(/mnt/sda5/.user/root/src/openwatcom-1.9/bld/vi/c/readstr.c)
00445f70+      _ReadingAString
004205b0+      GetTextForSpecialKey_
004206c0+      InsertTextForSpecialKey_
00420dd0       ReadStringInWindow_
00420e00       PromptForString_
Module: tab_e_c.obj(/mnt/sda5/.user/root/src/openwatcom-1.9/bld/vi/c/tab_e_c.c)
00421110       ExpandWhiteSpace_
00421120       CompressWhiteSpace_
Module: gencfg.obj(/mnt/sda5/.user/root/src/openwatcom-1.9/bld/vi/c/gencfg.c)
00421aa0       GenerateConfiguration_
Module: fts.obj(/mnt/sda5/.user/root/src/openwatcom-1.9/bld/vi/c/fts.c)
00422250       FTSStart_
00422340       FTSAddCmd_
00422410*      FTSAddBoolean_
00422490*      FTSAddInt_
004224c0*      FTSAddChar_
004224f0*      FTSAddStr_
00422520       FTSEnd_
00422580*      FTSSearchFTIndex_
00422670       FTSRunCmds_
00422690*      FTSGetFirst_
004226a0*      FTSGetNext_
004226b0*      FTSGetFirstTemplate_
004226c0*      FTSGetNextTemplate_
004226d0       FTSBarfData_
00422760+      FTSMatchTemplate_
004227c0+      deleteTemplateList_
004227e0*      FTSMatchTemplateData_
00422880+      FTSKill_
004228c0       FTSInit_
004228d0       FTSFini_
Module: fcbdisk.obj(/mnt/sda5/.user/root/src/openwatcom-1.9/bld/vi/c/fcbdisk.c)
004228f0       SwapToDisk_
00422930       SwapToMemoryFromDisk_
004229c0       SwapFileClose_
004229e0       GiveBackSwapBlock_
00422a90       SwapBlockInit_
00422b00       SwapBlockFini_
Module: fcbblock.obj(/mnt/sda5/.user/root/src/openwatcom-1.9/bld/vi/c/fcbblock.c)
00422b10       GiveBackBlock_
00422b60       GetNewBlock_
00422bb0       MakeWriteBlock_
Module: fcb.obj(/mnt/sda5/.user/root/src/openwatcom-1.9/bld/vi/c/fcb.c)
00422c70       ReadFcbData_
00422f40       FindFcbWithLine_
00422fe0       CreateFcbData_
00423050       FcbSize_
Module: fcbmem.obj(/mnt/sda5/.user/root/src/openwatcom-1.9/bld/vi/c/fcbmem.c)
00423070       FcbAlloc_
004230d0       FcbFree_
00423140       FreeEntireFcb_
00423170       FreeFcbList_
Module: fcbsplit.obj(/mnt/sda5/.user/root/src/openwatcom-1.9/bld/vi/c/fcbsplit.c)
00423190       SplitFcbAtLine_
004232c0       CheckCurrentFcbCapacity_
Module: fcbdup.obj(/mnt/sda5/.user/root/src/openwatcom-1.9/bld/vi/c/fcbdup.c)
004233f0       CreateDuplicateFcbList_
Module: fcbmerge.obj(/mnt/sda5/.user/root/src/openwatcom-1.9/bld/vi/c/fcbmerge.c)
004234a0       MergeFcbs_
004234e0       MergeAllFcbs_
Module: linenew.obj(/mnt/sda5/.user/root/src/openwatcom-1.9/bld/vi/c/linenew.c)
00423530       AddNewLineAroundCurrent_
00423610       InsertNewLine_
00423670       LineAlloc_
004236c0       CreateNullLine_
Module: dc.obj(/mnt/sda5/.user/root/src/openwatcom-1.9/bld/vi/c/dc.c)
00423780       DCCreate_
004237e0       DCResize_
00423880*      DCScroll_
00423990       DCDestroy_
004239e0       DCUpdate_
00423bb0       DCUpdateAll_
00423c10+      shaveRange_
00423c70       DCDisplaySomeLines_
00423d20       DCDisplayAllLines_
00423d40+      DCInvalidateSomeLines_
00423db0       DCInvalidateAllLines_
00423de0*      DCFindLine_
00423e00*      DCValidateLine_
Module: lineptr.obj(/mnt/sda5/.user/root/src/openwatcom-1.9/bld/vi/c/lineptr.c)
00423e80       CGimmeLinePtr_
00423ea0       GimmeLinePtr_
00423ee0       CGimmeNextLinePtr_
00423f00       CAdvanceToLine_
00423f20       GimmeNextLinePtr_
00423fa0       GimmePrevLinePtr_
00423fe0       GimmeLinePtrFromFcb_
00424010       CFindLastLine_
00424070       IsPastLastLine_
004240b0       ValidateCurrentLine_
Module: linecfb.obj(/mnt/sda5/.user/root/src/openwatcom-1.9/bld/vi/c/linecfb.c)
00424210       CreateLinesFromBuffer_
Module: linedisp.obj(/mnt/sda5/.user/root/src/openwatcom-1.9/bld/vi/c/linedisp.c)
00424340       ReDisplayScreen_
004243b0+      ReDisplayBuffers_
Module: linemisc.obj(/mnt/sda5/.user/root/src/openwatcom-1.9/bld/vi/c/linemisc.c)
00424410       FindStartOfALine_
00424440       FindStartOfCurrentLine_
00424450       GenericJoinCurrentLineToNext_
00424620       JoinCurrentLineToNext_
00424680       SaveCurrentFilePos_
004246d0       RestoreCurrentFilePos_
00424770       SaveAndResetFilePos_
Module: linedel.obj(/mnt/sda5/.user/root/src/openwatcom-1.9/bld/vi/c/linedel.c)
004247c0       UpdateLineNumbers_
004247e0       DeleteLineRange_
00424ae0       LineDeleteMessage_
Module: lineins.obj(/mnt/sda5/.user/root/src/openwatcom-1.9/bld/vi/c/lineins.c)
00424b10       InsertLinesAtCursor_
00424ce0       InsertLines_
Module: lineyank.obj(/mnt/sda5/.user/root/src/openwatcom-1.9/bld/vi/c/lineyank.c)
00424ef0       YankLineRange_
00424f30       GetCopyOfLineRange_
00425120       LineYankMessage_
Module: grep.obj(/mnt/sda5/.user/root/src/openwatcom-1.9/bld/vi/c/grep.c)
004251a0       DoFGREP_
00425230       DoEGREP_
Module: editmain.obj(/mnt/sda5/.user/root/src/openwatcom-1.9/bld/vi/c/editmain.c)
00426020       DoMove_
00426170       DoLastEvent_
00426380       DoneLastEvent_
004263e0       EditMain_
00426560       AbsoluteNullResponse_
00426570       NullResponse_
004265b0*      DoneRepeat_
004265d0*      KillRepeatWindow_
004265e0       SetRepeatCount_
00426630       GetRepeatCount_
00426670       DoDigit_
00426750       InvalidKey_
00426780       Modified_
004267f0       ResetDisplayLine_
Module: filesave.obj(/mnt/sda5/.user/root/src/openwatcom-1.9/bld/vi/c/filesave.c)
00426a40       SaveFile_
00426d30       StartSaveExit_
00426d60       SaveAndExit_
00426db0       FilePromptForSaveChanges_
00426e60       FileExitOptionSaveChanges_
00426ee0*      FancyFileSave_
00426ee0       DoKeyboardSave_
Module: filenew.obj(/mnt/sda5/.user/root/src/openwatcom-1.9/bld/vi/c/filenew.c)
00427280       NewFile_
004273d0       FileAlloc_
00427440       FileFree_
00427460       FreeEntireFile_
Module: undo.obj(/mnt/sda5/.user/root/src/openwatcom-1.9/bld/vi/c/undo.c)
00427480       StartUndoGroupWithPosition_
00427530       UndoReplaceLines_
004275d0       UndoDeleteFcbs_
00427620       UndoInsert_
00427680       PatchDeleteUndo_
00427740       StartUndoGroup_
00427760       EndUndoGroup_
00427810       TryEndUndoGroup_
Module: undostks.obj(/mnt/sda5/.user/root/src/openwatcom-1.9/bld/vi/c/undostks.c)
004278e0       UndoAlloc_
00427980       UndoFree_
004279b0       PushUndoStack_
004279f0       PopUndoStack_
00427a10       AddUndoToCurrent_
00427a30       AllocateUndoStacks_
00427a80       FreeUndoStacks_
00427b10       TossUndos_
00427ba0       FreeAllUndos_
00427bb0       PurgeUndoStack_
Module: undo_do.obj(/mnt/sda5/.user/root/src/openwatcom-1.9/bld/vi/c/undo_do.c)
00427ed0       DoUndo_
00427ef0       DoUndoUndo_
Module: clglob.obj(/mnt/sda5/.user/root/src/openwatcom-1.9/bld/vi/c/clglob.c)
00427f60       Global_
004283e0       ProcessingMessage_
Module: clsubs.obj(/mnt/sda5/.user/root/src/openwatcom-1.9/bld/vi/c/clsubs.c)
004284c0*      TwoPartSubstitute_
00428600       Substitute_
00428b10       SplitUpLine_
00448fd4+      _LastSubstituteCancelled
00448fd8+      _LastLineCount
00448fdc+      _LastChangeCount
Module: shove.obj(/mnt/sda5/.user/root/src/openwatcom-1.9/bld/vi/c/shove.c)
00428c20       Shift_
Module: match.obj(/mnt/sda5/.user/root/src/openwatcom-1.9/bld/vi/c/match.c)
00428d80       DoMatching_
00428da0       FindMatch_
00429020       AddMatchString_
004290e0       MatchInit_
00429120       MatchFini_
Module: cut.obj(/mnt/sda5/.user/root/src/openwatcom-1.9/bld/vi/c/cut.c)
00429150       Cut_
Module: opmove.obj(/mnt/sda5/.user/root/src/openwatcom-1.9/bld/vi/c/opmove.c)
004294a0       MovePageMiddle_
00429500       MovePageTop_
00429530       MovePageBottom_
004295c0       MoveUp_
004295e0       MoveDown_
00429640       MoveLineEnd_
00429680*      LineEndRange_
004296c0       MoveStartOfLine_
004296f0       MoveLineBegin_
00429710       MoveLeft_
00429730       MoveRight_
00429790       MoveToColumn_
004297b0       MoveTab_
00429880       MoveShiftTab_
00429980       MoveStartNextLine_
00429990       MoveStartPrevLine_
00429a30       MoveForwardWord_
00429a40       MoveForwardBigWord_
00429a60       MoveForwardWordEnd_
00429a80       MoveForwardBigWordEnd_
00429b10       MoveBackwardsWord_
00429b20       MoveBackwardsBigWord_
00429ba0       MoveUpToChar_
00429bc0       MoveUpToBeforeChar_
00429be0       MoveBackToChar_
00429bf0       MoveBackToAfterChar_
00429c10       DoGo_
00429d30       MoveToLastCharFind_
00429d40       MoveToLastCharFindRev_
00429d50       MoveStartOfFile_
00429d80       MoveEndOfFile_
00429de0       MoveTopOfPage_
00429e00       MoveBottomOfPage_
Module: srcgen.obj(/mnt/sda5/.user/root/src/openwatcom-1.9/bld/vi/c/srcgen.c)
00429e40       AbortGen_
00429eb0       GenJmpIf_
00429ee0       GenJmp_
00429f00       GenLabel_
00429f70       GenTestCond_
0042a180       NewLabel_
0042a1f0       PreProcess_
Module: fmatch.obj(/mnt/sda5/.user/root/src/openwatcom-1.9/bld/vi/c/fmatch.c)
0042a7c0       FileMatch_
0042a7e0       FileMatchInit_
0042a910       FileMatchFini_
Module: status.obj(/mnt/sda5/.user/root/src/openwatcom-1.9/bld/vi/c/status.c)
0042a920       NewStatusWindow_
0042a970+      StatusLine_
0042aa80       UpdateStatusWindow_
Module: expr.obj(/mnt/sda5/.user/root/src/openwatcom-1.9/bld/vi/c/expr.c)
0042adf0       StartExprParse_
0042b530       GetConstExpr_
Module: op.obj(/mnt/sda5/.user/root/src/openwatcom-1.9/bld/vi/c/op.c)
0042baa0       LineLength_
0042bad0       GetLineRange_
0042bb00       Delete_
0042bbc0       DeleteLines_
0042bbf0       Yank_
0042bc70       YankLines_
0042bca0       Change_
0042bef0       StartShove_
0042bf10       StartSuck_
0042bfc0       ChangeCase_
0042c060       Filter_
Module: lang.obj(/mnt/sda5/.user/root/src/openwatcom-1.9/bld/vi/c/lang.c)
0042c1f0       IsKeyword_
0042c280       IsPragma_
0042c2d0       IsDeclspec_
0042c420       LangInit_
0042c650       LangFini_
0042c6f0       LangFiniAll_
Module: sstyle.obj(/mnt/sda5/.user/root/src/openwatcom-1.9/bld/vi/c/sstyle.c)
0042c860+      addSelection_
0042cb30+      fixSelection_
0042cb70       SSDifBlock_
0042cd50       SSNewBlock_
0042cd60       SSKillBlock_
0042cd70       SSKillsFlags_
0042cdf0       SSInitLanguageFlags_
0042ce60       SSInitLanguageFlagsGivenValues_
0042ced0*      SSGetLanguageFlags_
0042cf40       SSInitBeforeConfig_
0042cf80       SSInitAfterConfig_
0042cfd0       SSFini_
00449270       _SEType
Module: sstyle_f.obj(/mnt/sda5/.user/root/src/openwatcom-1.9/bld/vi/c/sstyle_f.c)
0042d200       InitFORTRANLine_
0042d650       InitFORTRANFlagsGivenValues_
0042d660       GetFORTRANFlags_
0042d670       InitFORTRANFlags_
0042d710       GetFORTRANBlock_
Module: sstyle_c.obj(/mnt/sda5/.user/root/src/openwatcom-1.9/bld/vi/c/sstyle_c.c)
0042d970       InitCLine_
0042e240       InitCFlagsGivenValues_
0042e260       GetCFlags_
0042e270       InitCFlags_
0042e590       GetCBlock_
Module: sstyle_h.obj(/mnt/sda5/.user/root/src/openwatcom-1.9/bld/vi/c/sstyle_h.c)
0042e790       InitHTMLLine_
0042e850+      getHTMLComment_
0042e8e0       InitHTMLFlagsGivenValues_
0042e8f0       GetHTMLFlags_
0042e900       InitHTMLFlags_
0042e910       GetHTMLBlock_
Module: sstyle_g.obj(/mnt/sda5/.user/root/src/openwatcom-1.9/bld/vi/c/sstyle_g.c)
0042ea40       InitGMLLine_
0042eba0       InitGMLFlagsGivenValues_
0042ebb0       GetGMLFlags_
0042ebc0       InitGMLFlags_
0042ebd0       GetGMLBlock_
Module: sstyle_m.obj(/mnt/sda5/.user/root/src/openwatcom-1.9/bld/vi/c/sstyle_m.c)
0042ec90       InitMkLine_
0042ef80       InitMkFlagsGivenValues_
0042ef90       GetMkFlags_
0042efa0       InitMkFlags_
0042efb0       GetMkBlock_
Module: sstyle_p.obj(/mnt/sda5/.user/root/src/openwatcom-1.9/bld/vi/c/sstyle_p.c)
0042f1a0       InitPerlLine_
0042f870       InitPerlFlagsGivenValues_
0042f880       GetPerlFlags_
0042f890       InitPerlFlags_
0042f9b0       GetPerlBlock_
Module: rcs.obj(/mnt/sda5/.user/root/src/openwatcom-1.9/bld/vi/c/rcs.c)
00446154+      _RCSGetVersion
00446158       _RCSInit
0044615c       _RCSCheckout
00446160       _RCSCheckin
00446164+      _RCSHasShell
00446168+      _RCSRunShell
0044616c+      _RCSSetSystem
00446170       _RCSQuerySystem
00446174       _RCSRegisterBatchCallback
00446178+      _RCSRegisterMessageBoxCallback
0042fc50       ViRCSInit_
0042fca0       ViRCSFini_
0044617c       _RCSSetPause
00446180       _RCSFini
Module: ntcmds.obj(/mnt/sda5/.user/root/src/openwatcom-1.9/bld/vi/nt/ntcmds.c)
00446184       _ExeExtensions
0044618c       _ExeExtensionCount
00446190       _InternalCommands
0044620c       _InternalCommandCount
Module: ntsys.obj(/mnt/sda5/.user/root/src/openwatcom-1.9/bld/vi/nt/ntsys.c)
004497a0       _OutputHandle
004497a4       _InputHandle
004497a8       _BSize
0042feb0       PushDirectory_
0042fed0       PopDirectory_
0042ff00       NewCursor_
0042ff40       MyBeep_
0042ff60       ScreenInit_
00430070       ScreenFini_
004300a0       ChkExtendedKbd_
004300b0       MemSize_
004300c0       ScreenPage_
004300d0       ChangeDrive_
00430110       ShiftDown_
00430120       TurnOffCapsLock_
00430130       DoGetDriveType_
00430170       MyDelay_
00430180       SetCursorBlinkRate_
00430190       GetKeyboard_
004301b0       KeyboardHit_
004301c0       MyVioShowBuf_
Module: ntmain.obj(/mnt/sda5/.user/root/src/openwatcom-1.9/bld/vi/nt/ntmain.c)
004301e0       main_
Module: ntmouse.obj(/mnt/sda5/.user/root/src/openwatcom-1.9/bld/vi/nt/ntmouse.c)
00430220       SetMouseSpeed_
00430230*      SetMousePosition_
00430240       PollMouse_
00430260       InitMouse_
00430270       FiniMouse_
004498b4       _CurrMouseRow
004498b8       _CurrMouseCol
004498bc       _CurrMouseStatus
Module: dosdir.obj(/mnt/sda5/.user/root/src/openwatcom-1.9/bld/vi/c/dosdir.c)
00430300       MyGetFileSize_
00430320       IsDirectory_
00430390       GetFileInfo_
004303b0       FormatFileEntry_
Module: time.obj(/mnt/sda5/.user/root/src/openwatcom-1.9/bld/vi/c/time.c)
00430500       GetTimeString_
004305d0       GetDateTimeString_
00430650*      GetDateString_
Module: spawn.obj(/mnt/sda5/.user/root/src/openwatcom-1.9/bld/vi/nt/spawn.c)
004306a0       ResetSpawnScreen_
004306c0       MySpawn_
Module: adjwin.obj(/mnt/sda5/.user/root/src/openwatcom-1.9/bld/vi/ui/adjwin.c)
00430fe0       ResizeCurrentWindowWithKeys_
00430ff0       MoveCurrentWindowWithKeys_
00431010       ResizeCurrentWindowWithMouse_
00431030       MoveCurrentWindowWithMouse_
Module: hdlmouse.obj(/mnt/sda5/.user/root/src/openwatcom-1.9/bld/vi/ui/hdlmouse.c)
00431050       HandleMouseEvent_
Module: mouseev.obj(/mnt/sda5/.user/root/src/openwatcom-1.9/bld/vi/ui/mouseev.c)
004314e0       GetMousePosInfo_
00431500       TestMouseEvent_
00431550       PushMouseEventHandler_
00431570       PopMouseEventHandler_
Module: winaux.obj(/mnt/sda5/.user/root/src/openwatcom-1.9/bld/vi/ui/winaux.c)
004315d0       WindowAuxInfo_
004316a0       WindowAuxUpdate_
Module: wininit.obj(/mnt/sda5/.user/root/src/openwatcom-1.9/bld/vi/ui/wininit.c)
00431740       StartWindows_
00431760       FinishWindows_
Module: winsize.obj(/mnt/sda5/.user/root/src/openwatcom-1.9/bld/vi/ui/winsize.c)
00431820       ResizeWindow_
00431930       ResizeWindowRelative_
004319a0       MinimizeCurrentWindow_
00431a30       MaximizeCurrentWindow_
Module: wintica.obj(/mnt/sda5/.user/root/src/openwatcom-1.9/bld/vi/ui/wintica.c)
00431ad0       WindowTile_
00431e50       WindowCascade_
Module: filesel.obj(/mnt/sda5/.user/root/src/openwatcom-1.9/bld/vi/ui/filesel.c)
00431f50       SelectFileOpen_
00432700+      SelectLineMouseHandler_
00432a40       SelectLineInFile_
Module: menu.obj(/mnt/sda5/.user/root/src/openwatcom-1.9/bld/vi/ui/menu.c)
004498f4       _CurrentMenuNumber
004336a0       BarfMenuData_
004338c0       StartMenu_
00433ac0       ViEndMenu_
00433b40       MenuItem_
00433c70       DoItemDelete_
00433d50       AddMenuItem_
00433dc0       DoMenuDelete_
00433f80       InitMenu_
00434120       FiniMenu_
00434650+      DoMenu_
004346c0       DoWindowGadgetMenu_
00434710+      DoFloatMenu_
00434740       ActivateFloatMenu_
004347d0       GetCurrentMenuId_
004347e0       SetToMenuId_
00434810       GetMenuIdFromCoord_
00434860       IsMenuHotKey_
00434890       MenuItemFileList_
004348b0       MenuItemLastFiles_
Module: /mnt/sda5/.user/root/src/openwatcom-1.9/rel2/lib386/nt/clib3r.lib(tolower.c)
004348d0       tolower_
Module: /mnt/sda5/.user/root/src/openwatcom-1.9/rel2/lib386/nt/clib3r.lib(strcspn.c)
004348e0       strcspn_
Module: /mnt/sda5/.user/root/src/openwatcom-1.9/rel2/lib386/nt/clib3r.lib(strnicmp.c)
00434930       strnicmp_
Module: /mnt/sda5/.user/root/src/openwatcom-1.9/rel2/lib386/nt/clib3r.lib(strncmp.c)
00434980       strncmp_
Module: /mnt/sda5/.user/root/src/openwatcom-1.9/rel2/lib386/nt/clib3r.lib(istable.c)
004349b0       __IsTable
Module: /mnt/sda5/.user/root/src/openwatcom-1.9/rel2/lib386/nt/clib3r.lib(strupr.c)
00434ac0       strupr_
Module: /mnt/sda5/.user/root/src/openwatcom-1.9/rel2/lib386/nt/clib3r.lib(strncpy.c)
00434ae0       strncpy_
Module: /mnt/sda5/.user/root/src/openwatcom-1.9/rel2/lib386/nt/clib3r.lib(ltoa.c)
00434b20       ultoa_
00434b70       ltoa_
Module: /mnt/sda5/.user/root/src/openwatcom-1.9/rel2/lib386/nt/clib3r.lib(atoi.c)
00434ba0       atoi_
Module: /mnt/sda5/.user/root/src/openwatcom-1.9/rel2/lib386/nt/clib3r.lib(toupper.c)
00434bf0       toupper_
Module: /mnt/sda5/.user/root/src/openwatcom-1.9/rel2/lib386/nt/clib3r.lib(strlwr.c)
00434c00       strlwr_
Module: /mnt/sda5/.user/root/src/openwatcom-1.9/rel2/lib386/nt/clib3r.lib(nmalloc.c)
00434c20       _nmalloc_
00434c20       malloc_
00446224       ___nheapbeg
00446228       ___MiniHeapRover
0044622c       ___LargestSizeB4MiniHeapRover
Module: /mnt/sda5/.user/root/src/openwatcom-1.9/rel2/lib386/nt/clib3r.lib(nmsize.c)
00434d20       _nmsize_
00434d20       _msize_
Module: /mnt/sda5/.user/root/src/openwatcom-1.9/rel2/lib386/nt/clib3r.lib(memset.c)
00434d30       memset_
Module: /mnt/sda5/.user/root/src/openwatcom-1.9/rel2/lib386/nt/clib3r.lib(nfree.c)
00434d50       _nfree_
00434d50       free_
004498fc       ___MiniHeapFreeRover
Module: /mnt/sda5/.user/root/src/openwatcom-1.9/rel2/lib386/nt/clib3r.lib(nrealloc.c)
00434e60*      _nrealloc_
00434e60       realloc_
Module: /mnt/sda5/.user/root/src/openwatcom-1.9/rel2/lib386/nt/clib3r.lib(bsearch.c)
00434ee0       bsearch_
Module: /mnt/sda5/.user/root/src/openwatcom-1.9/rel2/lib386/nt/clib3r.lib(write.c)
004351b0       write_
Module: /mnt/sda5/.user/root/src/openwatcom-1.9/rel2/lib386/nt/clib3r.lib(read.c)
00435410       read_
Module: /mnt/sda5/.user/root/src/openwatcom-1.9/rel2/lib386/nt/clib3r.lib(stackwnt.c)
004355a0       stackavail_
Module: /mnt/sda5/.user/root/src/openwatcom-1.9/rel2/lib386/nt/clib3r.lib(stk)
004355b1       __CHK
004355c1*      __STK
004355e0       __STKOVERFLOW_
004355f0       __GRO
00435610*      __alloca_probe
Module: /mnt/sda5/.user/root/src/openwatcom-1.9/rel2/lib386/nt/clib3r.lib(getenv.c)
00435630       getenv_
Module: /mnt/sda5/.user/root/src/openwatcom-1.9/rel2/lib386/nt/clib3r.lib(setenv.c)
004356c0       setenv_
00435970       _setenv_
Module: /mnt/sda5/.user/root/src/openwatcom-1.9/rel2/lib386/nt/clib3r.lib(openwnt.c)
00435d80       open_
00435da0       sopen_
Module: /mnt/sda5/.user/root/src/openwatcom-1.9/rel2/lib386/nt/clib3r.lib(close.c)
00435dd0       close_
Module: /mnt/sda5/.user/root/src/openwatcom-1.9/rel2/lib386/nt/clib3r.lib(argcv.c)
00449900       __argc
00449904       __argv
00449908       ___argv
0044990c       ___argc
Module: /mnt/sda5/.user/root/src/openwatcom-1.9/rel2/lib386/nt/clib3r.lib(strstr.c)
00435df0       strstr_
Module: /mnt/sda5/.user/root/src/openwatcom-1.9/rel2/lib386/nt/clib3r.lib(cmdname.c)
00435ea0       _cmdname_
Module: /mnt/sda5/.user/root/src/openwatcom-1.9/rel2/lib386/nt/clib3r.lib(itoa.c)
00435ed0       utoa_
00435f20       itoa_
Module: /mnt/sda5/.user/root/src/openwatcom-1.9/rel2/lib386/nt/clib3r.lib(setjmp)
00435f44       _setjmp_
00435f7d       longjmp_
Module: /mnt/sda5/.user/root/src/openwatcom-1.9/rel2/lib386/nt/clib3r.lib(stricmp.c)
00436010       stricmp_
Module: /mnt/sda5/.user/root/src/openwatcom-1.9/rel2/lib386/nt/clib3r.lib(qsort.c)
004360a0       qsort_
Module: /mnt/sda5/.user/root/src/openwatcom-1.9/rel2/lib386/nt/clib3r.lib(fopen.c)
00436750       __open_flags_
00436960+      _fsopen_
004369b0       fopen_
00436a40*      freopen_
Module: /mnt/sda5/.user/root/src/openwatcom-1.9/rel2/lib386/nt/clib3r.lib(fgets.c)
00436ab0       fgets_
Module: /mnt/sda5/.user/root/src/openwatcom-1.9/rel2/lib386/nt/clib3r.lib(fclose.c)
00436b20       __doclose_
00436bc0       __shutdown_stream_
00436be0       fclose_
00449910+      ___RmTmpFileFn
Module: /mnt/sda5/.user/root/src/openwatcom-1.9/rel2/lib386/nt/clib3r.lib(fullpath.c)
00436c40+      _sys_fullpath_
00436cc0       _fullpath_
Module: /mnt/sda5/.user/root/src/openwatcom-1.9/rel2/lib386/nt/clib3r.lib(splitpat.c)
00436d70       _splitpath_
Module: /mnt/sda5/.user/root/src/openwatcom-1.9/rel2/lib386/nt/clib3r.lib(makepath.c)
00436e60       _makepath_
Module: /mnt/sda5/.user/root/src/openwatcom-1.9/rel2/lib386/nt/clib3r.lib(_strcmp)
00437010       strcmp_
Module: /mnt/sda5/.user/root/src/openwatcom-1.9/rel2/lib386/nt/clib3r.lib(dirwnt.c)
004371d0+      __opendir_
00437250+      _opendir_
004373e0       opendir_
00437400       readdir_
004374b0       closedir_
00437500*      rewinddir_
Module: /mnt/sda5/.user/root/src/openwatcom-1.9/rel2/lib386/nt/clib3r.lib(strncat.c)
00437540       strncat_
Module: /mnt/sda5/.user/root/src/openwatcom-1.9/rel2/lib386/nt/clib3r.lib(accsswnt.c)
00437580       access_
Module: /mnt/sda5/.user/root/src/openwatcom-1.9/rel2/lib386/nt/clib3r.lib(errno.c)
004375b0       __get_errno_ptr_
004375c0*      __get_doserrno_ptr_
Module: /mnt/sda5/.user/root/src/openwatcom-1.9/rel2/lib386/nt/clib3r.lib(exit.c)
004375ca+      __null_int23_exit_
004375cb       exit_
0043761b*      _exit_
00446240       ___int23_exit
00446244+      ___FPE_handler_exit
Module: /mnt/sda5/.user/root/src/openwatcom-1.9/rel2/lib386/nt/clib3r.lib(clockwin.c)
00437640       clock_
Module: /mnt/sda5/.user/root/src/openwatcom-1.9/rel2/lib386/nt/clib3r.lib(remove.c)
00437670       remove_
Module: /mnt/sda5/.user/root/src/openwatcom-1.9/rel2/lib386/nt/clib3r.lib(gtpidwnt.c)
00437680       getpid_
Module: /mnt/sda5/.user/root/src/openwatcom-1.9/rel2/lib386/nt/clib3r.lib(fdopen.c)
004376e0       fdopen_
Module: /mnt/sda5/.user/root/src/openwatcom-1.9/rel2/lib386/nt/clib3r.lib(strerror.c)
00437ae0       strerror_
00437b00*      _strerror_
00437bd0*      _doserror_
00446248+      __sys_errlist
004462ec+      __sys_nerr
Module: /mnt/sda5/.user/root/src/openwatcom-1.9/rel2/lib386/nt/clib3r.lib(renamwnt.c)
00437c00       rename_
Module: /mnt/sda5/.user/root/src/openwatcom-1.9/rel2/lib386/nt/clib3r.lib(strtol.c)
00437e40       strtoul_
00437e50       strtol_
Module: /mnt/sda5/.user/root/src/openwatcom-1.9/rel2/lib386/nt/clib3r.lib(fprintf.c)
00437e60       fprintf_
Module: /mnt/sda5/.user/root/src/openwatcom-1.9/rel2/lib386/nt/clib3r.lib(printf.c)
00437e90       printf_
Module: /mnt/sda5/.user/root/src/openwatcom-1.9/rel2/lib386/nt/clib3r.lib(time.c)
00437ec0       time_
Module: /mnt/sda5/.user/root/src/openwatcom-1.9/rel2/lib386/nt/clib3r.lib(localtim.c)
00437f00       _localtime_
00437f60       localtime_
Module: /mnt/sda5/.user/root/src/openwatcom-1.9/rel2/lib386/nt/clib3r.lib(strftime.c)
004381dd       strftime_
Module: /mnt/sda5/.user/root/src/openwatcom-1.9/rel2/lib386/nt/clib3r.lib(atol.c)
00438720       atol_
Module: /mnt/sda5/.user/root/src/openwatcom-1.9/rel2/lib386/nt/clib3r.lib(gtcwdwnt.c)
00438770       getcwd_
Module: /mnt/sda5/.user/root/src/openwatcom-1.9/rel2/lib386/nt/clib3r.lib(chdirwnt.c)
00438800       chdir_
Module: /mnt/sda5/.user/root/src/openwatcom-1.9/rel2/lib386/nt/clib3r.lib(isattwnt.c)
00438820       isatty_
Module: /mnt/sda5/.user/root/src/openwatcom-1.9/rel2/lib386/nt/clib3r.lib(tell.c)
00438840       tell_
Module: /mnt/sda5/.user/root/src/openwatcom-1.9/rel2/lib386/nt/clib3r.lib(lseek.c)
00438860       lseek_
Module: /mnt/sda5/.user/root/src/openwatcom-1.9/rel2/lib386/nt/clib3r.lib(searchen.c)
004388b0       _searchenv_
Module: /mnt/sda5/.user/root/src/openwatcom-1.9/rel2/lib386/nt/clib3r.lib(tmpnm.c)
00438a60       tmpnam_
Module: /mnt/sda5/.user/root/src/openwatcom-1.9/rel2/lib386/nt/clib3r.lib(dup2wnt.c)
00438b30       dup2_
Module: /mnt/sda5/.user/root/src/openwatcom-1.9/rel2/lib386/nt/clib3r.lib(dupwnt.c)
00438c00       dup_
Module: /mnt/sda5/.user/root/src/openwatcom-1.9/rel2/lib386/nt/clib3r.lib(system.c)
00438cd0       system_
Module: /mnt/sda5/.user/root/src/openwatcom-1.9/rel2/lib386/nt/clib3r.lib(sprintf.c)
00438d50       sprintf_
Module: /mnt/sda5/.user/root/src/openwatcom-1.9/rel2/lib386/nt/clib3r.lib(strrchr.c)
00438d80       strrchr_
Module: /mnt/sda5/.user/root/src/openwatcom-1.9/rel2/lib386/nt/clib3r.lib(fputc.c)
00438da0       fputc_
Module: /mnt/sda5/.user/root/src/openwatcom-1.9/rel2/lib386/nt/clib3r.lib(iob.c)
0044637c       ___iob
00446584       __fmode
00449a28       ___OpenStreams
00449a2c       ___ClosedStreams
Module: /mnt/sda5/.user/root/src/openwatcom-1.9/rel2/lib386/nt/clib3r.lib(memmove.c)
00438e80       memmove_
Module: /mnt/sda5/.user/root/src/openwatcom-1.9/rel2/lib386/nt/clib3r.lib(setvbuf.c)
00438ee0       setvbuf_
Module: /mnt/sda5/.user/root/src/openwatcom-1.9/rel2/lib386/nt/clib3r.lib(fread.c)
00438f60       fread_
Module: /mnt/sda5/.user/root/src/openwatcom-1.9/rel2/lib386/nt/clib3r.lib(fwrite.c)
00439140       fwrite_
Module: /mnt/sda5/.user/root/src/openwatcom-1.9/rel2/lib386/nt/clib3r.lib(chmodwnt.c)
00439350       chmod_
Module: /mnt/sda5/.user/root/src/openwatcom-1.9/rel2/lib386/nt/clib3r.lib(setmd.c)
00439380       setmode_
Module: /mnt/sda5/.user/root/src/openwatcom-1.9/rel2/lib386/nt/clib3r.lib(cstrtwnt)
0043946e       _cstart_
0043946e*      mainCRTStartup
Module: /mnt/sda5/.user/root/src/openwatcom-1.9/rel2/lib386/nt/clib3r.lib(strpbrk.c)
004394d0       strpbrk_
Module: /mnt/sda5/.user/root/src/openwatcom-1.9/rel2/lib386/nt/clib3r.lib(findwnt.c)
00439520       _dos_findfirst_
004395a0*      _dos_findnext_
00439600*      _dos_findclose_
Module: /mnt/sda5/.user/root/src/openwatcom-1.9/rel2/lib386/nt/clib3r.lib(asctime.c)
0043968c+      _asctime_
00439774*      asctime_
0043978b*      _ctime_
004397a4       ctime_
Module: /mnt/sda5/.user/root/src/openwatcom-1.9/rel2/lib386/nt/clib3r.lib(setbits.c)
004397b0       __setbits_
Module: /mnt/sda5/.user/root/src/openwatcom-1.9/rel2/lib386/nt/clib3r.lib(bits.c)
004397f0       __Bits
Module: /mnt/sda5/.user/root/src/openwatcom-1.9/rel2/lib386/nt/clib3r.lib(alphabet.c)
00443004       ___Alphabet
Module: /mnt/sda5/.user/root/src/openwatcom-1.9/rel2/lib386/nt/clib3r.lib(mainwnt.c)
00446588*      ___TlsIndex
0044658c+      ___FirstThreadData
00446590       ___GetThreadPtr
00446594       __AccessFileH
00446598       __ReleaseFileH
0044659c       __AccessIOB
004465a0       __ReleaseIOB
004465a4       __AccessNHeap
004465a8*      __AccessFHeap
004465ac       __ReleaseNHeap
00439810*      __threadid_
00439830+      __sig_null_rtn_
00439840+      __NTInit_
00439a20+      __NTFini_
00439a80       __NTMainInit_
00439ae0       __exit_
004465b0*      __ReleaseFHeap
004465b4*      __AccessTDList
004465b8*      __ReleaseTDList
004465bc       __AccessFList
004465c0       __ReleaseFList
004465c4+      __ThreadExitRtn
004465c8       ___sig_init_rtn
004465cc       ___sig_fini_rtn
004465d0       ___process_fini
00449a38       ___Is_DLL
Module: /mnt/sda5/.user/root/src/openwatcom-1.9/rel2/lib386/nt/clib3r.lib(nmemneed.c)
00439b30       __nmemneed_
Module: /mnt/sda5/.user/root/src/openwatcom-1.9/rel2/lib386/nt/clib3r.lib(mem.c)
00439b40       __MemAllocator
00439bf0       __MemFree
Module: /mnt/sda5/.user/root/src/openwatcom-1.9/rel2/lib386/nt/clib3r.lib(grownear.c)
00439e90       __ExpandDGROUP_
Module: /mnt/sda5/.user/root/src/openwatcom-1.9/rel2/lib386/nt/clib3r.lib(__stos)
00439eb0       __STOSB
00439ee7*      __STOSD
Module: /mnt/sda5/.user/root/src/openwatcom-1.9/rel2/lib386/nt/clib3r.lib(nexpand.c)
00439f60       _nexpand_
00439f60*      _expand_
00439fa0+      __HeapManager_expand_
Module: /mnt/sda5/.user/root/src/openwatcom-1.9/rel2/lib386/nt/clib3r.lib(hdlman.c)
004465d4       ___NHandles
004465d8+      ___OSHandles
004465dc+      ___FakeHandles
0043a160       __growPOSIXHandles_
0043a200       __allocPOSIXHandle_
0043a2c0       __freePOSIXHandle_
0043a2e0       __getOSHandle_
0043a2f0       __setOSHandle_
0043a340+      __NTGetFakeHandle_
0043a3b0       __initPOSIXHandles_
0043a490*      __set_handles_
0043a4a0*      _grow_handles_
Module: /mnt/sda5/.user/root/src/openwatcom-1.9/rel2/lib386/nt/clib3r.lib(dosret.c)
0043a4e0*      _dosretax_
0043a4f0*      _dosret0_
0043a500       __set_errno_dos_
0043a530       __set_errno_dos_reterr_
0043a540       __set_errno_nt_
0043a550       __set_errno_nt_reterr_
Module: /mnt/sda5/.user/root/src/openwatcom-1.9/rel2/lib386/nt/clib3r.lib(seterrno.c)
0043a564       __set_errno_
0043a572*      __set_EDOM_
0043a580*      __set_ERANGE_
0043a58e*      __set_EINVAL_
0043a5a1       __set_doserrno_
Module: /mnt/sda5/.user/root/src/openwatcom-1.9/rel2/lib386/nt/clib3r.lib(iomode.c)
0043a5b0       __GetIOMode_
0043a5d0       __SetIOMode_nogrow_
004466ec       ___NFiles
004466f0       ___init_mode
00446740       ___io_mode
Module: /mnt/sda5/.user/root/src/openwatcom-1.9/rel2/lib386/nt/clib3r.lib(iomodtty.c)
0043a5f0       __ChkTTYIOMode_
0043a630*      __IOMode_
Module: /mnt/sda5/.user/root/src/openwatcom-1.9/rel2/lib386/nt/clib3r.lib(__lseek.c)
0043a650       __lseek_
Module: /mnt/sda5/.user/root/src/openwatcom-1.9/rel2/lib386/nt/clib3r.lib(xmsgwnt.c)
0043a690+      __exit_with_msg_
0043a6f0       __fatal_runtime_error_
Module: /mnt/sda5/.user/root/src/openwatcom-1.9/rel2/lib386/nt/clib3r.lib(environ.c)
0044a054       ___env_mask
0044a058       _environ
0044a05c       __wenviron
Module: /mnt/sda5/.user/root/src/openwatcom-1.9/rel2/lib386/nt/clib3r.lib(mbterm.c)
0043a710       _mbterm_
Module: /mnt/sda5/.user/root/src/openwatcom-1.9/rel2/lib386/nt/clib3r.lib(mbsnextc.c)
0043a750       _mbsnextc_
Module: /mnt/sda5/.user/root/src/openwatcom-1.9/rel2/lib386/nt/clib3r.lib(mbcupper.c)
0043a790       _mbctoupper_
Module: /mnt/sda5/.user/root/src/openwatcom-1.9/rel2/lib386/nt/clib3r.lib(mbsinc.c)
0043a7c0       _mbsinc_
Module: /mnt/sda5/.user/root/src/openwatcom-1.9/rel2/lib386/nt/clib3r.lib(mbslen.c)
0043a7f0       _mbslen_
Module: /mnt/sda5/.user/root/src/openwatcom-1.9/rel2/lib386/nt/clib3r.lib(mbstowcs.c)
0043a820       mbstowcs_
Module: /mnt/sda5/.user/root/src/openwatcom-1.9/rel2/lib386/nt/clib3r.lib(usetenv.c)
0043a8a0*      _wsetenv_
0043aaf0       __wsetenv_
Module: /mnt/sda5/.user/root/src/openwatcom-1.9/rel2/lib386/nt/clib3r.lib(ntfio.c)
0043ac70*      __GetNTCreateAttr_
0043acb0       __GetNTAccessAttr_
0043ace0       __GetNTShareAttr_
Module: /mnt/sda5/.user/root/src/openwatcom-1.9/rel2/lib386/nt/clib3r.lib(umaskval.c)
00446744       ___umaskval
Module: /mnt/sda5/.user/root/src/openwatcom-1.9/rel2/lib386/nt/clib3r.lib(stiomode.c)
0043ad40       __grow_iomode_
0043ae10+      __shrink_iomode_
0043ae50       __SetIOMode_
Module: /mnt/sda5/.user/root/src/openwatcom-1.9/rel2/lib386/nt/clib3r.lib(_clsewnt.c)
0043aec0       __close_
Module: /mnt/sda5/.user/root/src/openwatcom-1.9/rel2/lib386/nt/clib3r.lib(initargv.c)
0043af20       __Init_Argv_
0043af70+      _getargv_
0043b110       __Fini_Argv_
Module: /mnt/sda5/.user/root/src/openwatcom-1.9/rel2/lib386/nt/clib3r.lib(ljmphdl.c)
00446748       ___longjmp_handler
Module: /mnt/sda5/.user/root/src/openwatcom-1.9/rel2/lib386/nt/clib3r.lib(comtflag.c)
0043b130*      __set_commode_
0044674c       __commode
Module: /mnt/sda5/.user/root/src/openwatcom-1.9/rel2/lib386/nt/clib3r.lib(fseek.c)
0043b190       fseek_
Module: /mnt/sda5/.user/root/src/openwatcom-1.9/rel2/lib386/nt/clib3r.lib(chktty.c)
0043b2a0       __chktty_
Module: /mnt/sda5/.user/root/src/openwatcom-1.9/rel2/lib386/nt/clib3r.lib(freefp.c)
0043b2e0       __freefp_
0043b330       __purgefp_
Module: /mnt/sda5/.user/root/src/openwatcom-1.9/rel2/lib386/nt/clib3r.lib(allocfp.c)
0043b360       __allocfp_
Module: /mnt/sda5/.user/root/src/openwatcom-1.9/rel2/lib386/nt/clib3r.lib(fgetc.c)
0043b430       __fill_buffer_
0043b530       fgetc_
Module: /mnt/sda5/.user/root/src/openwatcom-1.9/rel2/lib386/nt/clib3r.lib(flush.c)
0043b5f0       __flush_
Module: /mnt/sda5/.user/root/src/openwatcom-1.9/rel2/lib386/nt/clib3r.lib(mbsnccnt.c)
0043b6f0       _mbsnccnt_
Module: /mnt/sda5/.user/root/src/openwatcom-1.9/rel2/lib386/nt/clib3r.lib(mbsncpy.c)
0043b720       _mbsncpy_
Module: /mnt/sda5/.user/root/src/openwatcom-1.9/rel2/lib386/nt/clib3r.lib(mbsnbcnt.c)
0043b740       _mbsnbcnt_
Module: /mnt/sda5/.user/root/src/openwatcom-1.9/rel2/lib386/nt/clib3r.lib(mbconv.c)
0043b7b0       _mbvtop_
Module: /mnt/sda5/.user/root/src/openwatcom-1.9/rel2/lib386/nt/clib3r.lib(mbclen.c)
0043b7d0       _mbclen_
Module: /mnt/sda5/.user/root/src/openwatcom-1.9/rel2/lib386/nt/clib3r.lib(mbsdec.c)
0043b800       _mbsdec_
Module: /mnt/sda5/.user/root/src/openwatcom-1.9/rel2/lib386/nt/clib3r.lib(ntdirinf.c)
0043b880+      __MakeDOSDT_
0043b8b0*      __FromDOSDT_
0043b8e0       __GetNTDirInfo_
0043b920       __NTFindNextFileWithAttr_
Module: /mnt/sda5/.user/root/src/openwatcom-1.9/rel2/lib386/nt/clib3r.lib(strdup.c)
0043b980       __clib_strdup_
Module: /mnt/sda5/.user/root/src/openwatcom-1.9/rel2/lib386/nt/clib3r.lib(fgtattr.c)
0043b9c0       __fixed_GetFileAttributesA_
Module: /mnt/sda5/.user/root/src/openwatcom-1.9/rel2/lib386/nt/clib3r.lib(initrtns.c)
0043ba70       __InitRtns
0043bac0       __FiniRtns
Module: /mnt/sda5/.user/root/src/openwatcom-1.9/rel2/lib386/nt/clib3r.lib(unlnkwnt.c)
0043bb20       unlink_
Module: /mnt/sda5/.user/root/src/openwatcom-1.9/rel2/lib386/nt/clib3r.lib(fprtf.c)
0043bb60       __fprtf_
Module: /mnt/sda5/.user/root/src/openwatcom-1.9/rel2/lib386/nt/clib3r.lib(gtctmwnt.c)
0043bc20       __getctime_
Module: /mnt/sda5/.user/root/src/openwatcom-1.9/rel2/lib386/nt/clib3r.lib(mktime.c)
0043bc90       mktime_
Module: /mnt/sda5/.user/root/src/openwatcom-1.9/rel2/lib386/nt/clib3r.lib(tzset.c)
00446750       ___start_dst
00446774       ___end_dst
0044689c       _tzname
004468a4       _timezone
004468a8       _daylight
004468ac       ___dst_adjust
0043bd70*      __DontCacheOSTZ_
0043bd80*      __CacheOSTZ_
0043c260+      __parse_tz_
0043c650       tzset_
Module: /mnt/sda5/.user/root/src/openwatcom-1.9/rel2/lib386/nt/clib3r.lib(gmtime.c)
0043c6c0       __brktime_
0043c7c0+      _gmtime_
0043c7e0*      gmtime_
Module: /mnt/sda5/.user/root/src/openwatcom-1.9/rel2/lib386/nt/clib3r.lib(timeutil.c)
0043c940       __isindst_
Module: /mnt/sda5/.user/root/src/openwatcom-1.9/rel2/lib386/nt/clib3r.lib(leapyear.c)
0043cc70       __leapyear_
0044302c       ___diyr
00443046       ___dilyr
Module: /mnt/sda5/.user/root/src/openwatcom-1.9/rel2/lib386/nt/clib3r.lib(strlen.c)
0043ccb0       strlen_
Module: /mnt/sda5/.user/root/src/openwatcom-1.9/rel2/lib386/nt/clib3r.lib(strcat.c)
0043ccd0       strcat_
Module: /mnt/sda5/.user/root/src/openwatcom-1.9/rel2/lib386/nt/clib3r.lib(fileinfo.c)
004468b4       __fileinfo
Module: /mnt/sda5/.user/root/src/openwatcom-1.9/rel2/lib386/nt/clib3r.lib(_slashc.c)
0043cd00       __Slash_C_
Module: /mnt/sda5/.user/root/src/openwatcom-1.9/rel2/lib386/nt/clib3r.lib(splp.c)
0043cd10       spawnlp_
Module: /mnt/sda5/.user/root/src/openwatcom-1.9/rel2/lib386/nt/clib3r.lib(vsprintf.c)
0043cd50       vsprintf_
Module: /mnt/sda5/.user/root/src/openwatcom-1.9/rel2/lib386/nt/clib3r.lib(ioalloc.c)
0043cd70       __ioalloc_
Module: /mnt/sda5/.user/root/src/openwatcom-1.9/rel2/lib386/nt/clib3r.lib(initfile.c)
0043ce40       __InitFiles_
Module: /mnt/sda5/.user/root/src/openwatcom-1.9/rel2/lib386/nt/clib3r.lib(ioexit.c)
0043cf40*      fcloseall_
0043cf50       __full_io_exit_
Module: /mnt/sda5/.user/root/src/openwatcom-1.9/rel2/lib386/nt/clib3r.lib(qread.c)
0043cf60       __qread_
Module: /mnt/sda5/.user/root/src/openwatcom-1.9/rel2/lib386/nt/clib3r.lib(qwrit.c)
0043cfd0       __qwrite_
Module: /mnt/sda5/.user/root/src/openwatcom-1.9/rel2/lib386/nt/clib3r.lib(main2wnt.c)
0043d0b0       __NTMain
Module: /mnt/sda5/.user/root/src/openwatcom-1.9/rel2/lib386/nt/clib3r.lib(segdefns)
00401003       ___begtext
00443000*      __nullarea
004469c8       __Start_XI
004469f2       __End_XI
004469f2       __Start_YI
00446a10       __End_YI
Module: /mnt/sda5/.user/root/src/openwatcom-1.9/rel2/lib386/nt/clib3r.lib(crwdata)
004468fc       __osmajor
004468fd       __osminor
004468fe       __osbuild
00446900       __osver
00446904       __winmajor
00446908       __winminor
0044690c       __winver
004468c8       __LpDllName
004468cc       __LpwCmdLine
004468d0       __LpwPgmName
004468d4       __LpwDllName
004468c0       __LpCmdLine
004468c4       __LpPgmName
004468b8*      __dynend
004468bc       __curbrk
004468d8*      __STACKLOW
004468dc       __STACKTOP
004468e0       __ASTACKSIZ
004468e4       __ASTACKPTR
004468e8       __cbyte
004468ec*      __cbyte2
004468f0*      __child
004468f6       __Envptr
004468fa*      __Envseg
004468f4*      __no87
00446910       ___FPE_handler
Module: /mnt/sda5/.user/root/src/openwatcom-1.9/rel2/lib386/nt/clib3r.lib(getmodfn.c)
0043d110       __lib_GetModuleFileNameW_
Module: /mnt/sda5/.user/root/src/openwatcom-1.9/rel2/lib386/nt/clib3r.lib(ustrdup.c)
0043d1a1       __clib_wcsdup_
Module: /mnt/sda5/.user/root/src/openwatcom-1.9/rel2/lib386/nt/clib3r.lib(excptwnt.c)
0043d830+      ___ReportException@4
0043dc80       __DefaultExceptionHandler_
0043dcc0+      ___ExceptionFilter
0043ded0       __NewExceptionFilter_
0043df00       __DoneExceptionFilter_
00446914       ___oscode_check_func
00446918       ___raise_func
0044a068*      _sw
0044a06c+      ___ExceptionHandled
0044a06d+      ___ReportInvoked
Module: /mnt/sda5/.user/root/src/openwatcom-1.9/rel2/lib386/nt/clib3r.lib(stklmwnt.c)
0043df40       __init_stack_limits_
Module: /mnt/sda5/.user/root/src/openwatcom-1.9/rel2/lib386/nt/clib3r.lib(amblksiz.c)
00446930       __amblksiz
Module: /mnt/sda5/.user/root/src/openwatcom-1.9/rel2/lib386/nt/clib3r.lib(heapen.c)
0043dfb0*      _heapenable_
00446934       ___heap_enabled
Module: /mnt/sda5/.user/root/src/openwatcom-1.9/rel2/lib386/nt/clib3r.lib(nheapmin.c)
0043dfe0       _nheapshrink_
0043dfe0*      _nheapmin_
0043dfe0*      _heapmin_
0043dfe0*      _heapshrink_
Module: /mnt/sda5/.user/root/src/openwatcom-1.9/rel2/lib386/nt/clib3r.lib(enterdb.c)
0043e0d0       __EnterWVIDEO_
00446938+      ___WD_Present
Module: /mnt/sda5/.user/root/src/openwatcom-1.9/rel2/lib386/nt/clib3r.lib(setenvp.c)
0043e100       __setenvp_
0043e1c0       __freeenvp_
Module: /mnt/sda5/.user/root/src/openwatcom-1.9/rel2/lib386/nt/clib3r.lib(mbisdbcs.c)
0044a074       ___IsDBCS
Module: /mnt/sda5/.user/root/src/openwatcom-1.9/rel2/lib386/nt/clib3r.lib(mbislead.c)
0043e210*      _ismbblead_
0044a078       ___MBCSIsTable
Module: /mnt/sda5/.user/root/src/openwatcom-1.9/rel2/lib386/nt/clib3r.lib(mbtowc.c)
0043e230       mbtowc_
Module: /mnt/sda5/.user/root/src/openwatcom-1.9/rel2/lib386/nt/clib3r.lib(ugetenv.c)
0043e2c0       _wgetenv_
Module: /mnt/sda5/.user/root/src/openwatcom-1.9/rel2/lib386/nt/clib3r.lib(setenvar.c)
0043e340       __lib_SetEnvironmentVariableW_
Module: /mnt/sda5/.user/root/src/openwatcom-1.9/rel2/lib386/nt/clib3r.lib(crtwenv.c)
0043e430       __create_wide_environment_
Module: /mnt/sda5/.user/root/src/openwatcom-1.9/rel2/lib386/nt/clib3r.lib(ustrlen.c)
0043e498       wcslen_
Module: /mnt/sda5/.user/root/src/openwatcom-1.9/rel2/lib386/nt/clib3r.lib(wcstombs.c)
0043e4b0       wcstombs_
Module: /mnt/sda5/.user/root/src/openwatcom-1.9/rel2/lib386/nt/clib3r.lib(utoupper.c)
0043e54f       towupper_
Module: /mnt/sda5/.user/root/src/openwatcom-1.9/rel2/lib386/nt/clib3r.lib(memcpy.c)
0043e560       memcpy_
Module: /mnt/sda5/.user/root/src/openwatcom-1.9/rel2/lib386/nt/clib3r.lib(ustrcpy.c)
0043e57f       wcscpy_
Module: /mnt/sda5/.user/root/src/openwatcom-1.9/rel2/lib386/nt/clib3r.lib(histsplt.c)
0044a17c       ___historical_splitparms
Module: /mnt/sda5/.user/root/src/openwatcom-1.9/rel2/lib386/nt/clib3r.lib(___argc.c)
0044a180       ____Argc
0044a184       ____Argv
Module: /mnt/sda5/.user/root/src/openwatcom-1.9/rel2/lib386/nt/clib3r.lib(flushall.c)
0043e5a0       __flushall_
0043e5e0*      flushall_
Module: /mnt/sda5/.user/root/src/openwatcom-1.9/rel2/lib386/nt/clib3r.lib(gtchewnt.c)
0043e5f0       getche_
Module: /mnt/sda5/.user/root/src/openwatcom-1.9/rel2/lib386/nt/clib3r.lib(fsync.c)
0043e620       fsync_
Module: /mnt/sda5/.user/root/src/openwatcom-1.9/rel2/lib386/nt/clib3r.lib(mbsnbcpy.c)
0043e670       _mbsnbcpy_
Module: /mnt/sda5/.user/root/src/openwatcom-1.9/rel2/lib386/nt/clib3r.lib(prtf.c)
0043e6d0       __prtf_
Module: /mnt/sda5/.user/root/src/openwatcom-1.9/rel2/lib386/nt/clib3r.lib(locmktim.c)
0043f3a0       __local_mktime_
Module: /mnt/sda5/.user/root/src/openwatcom-1.9/rel2/lib386/nt/clib3r.lib(spvp.c)
0043f4e0       spawnvp_
Module: /mnt/sda5/.user/root/src/openwatcom-1.9/rel2/lib386/nt/clib3r.lib(mthrdini.c)
0043f4f0       __InitThreadData_
0044693c       ___ThreadDataSize
Module: /mnt/sda5/.user/root/src/openwatcom-1.9/rel2/lib386/nt/clib3r.lib(cmain386.c)
0043f520       __CMain
Module: /mnt/sda5/.user/root/src/openwatcom-1.9/rel2/lib386/nt/clib3r.lib(dosseg)
00001234       __DOSseg__
Module: /mnt/sda5/.user/root/src/openwatcom-1.9/rel2/lib386/nt/clib3r.lib(conutwnt.c)
0043f570       __NTRealKey_
0043f620       __NTConsoleInput_
0043f630       __NTConsoleOutput_
Module: /mnt/sda5/.user/root/src/openwatcom-1.9/rel2/lib386/nt/clib3r.lib(fclex387.c)
0043f640       _ClearFPE_
Module: /mnt/sda5/.user/root/src/openwatcom-1.9/rel2/lib386/nt/clib3r.lib(signlwnt.c)
00446948+      __SignalTable
0043f650+      __SetSignalFunc_
0043f6a0+      __GetSignalFunc_
0043f6d0+      __GetSignalOSCode_
0043f700+      __CheckSignalExCode_
0043f840+      __sigabort_
0043f850       __sigfpe_handler_
0043f8a0*      signal_
0043f930+      raise_
0043f9a0+      __SigInit_
0043f9f0+      __SigFini_
0043fa30+      __sig_init_
Module: /mnt/sda5/.user/root/src/openwatcom-1.9/rel2/lib386/nt/clib3r.lib(dofilstr.c)
0043fa70       __ParsePosixHandleStr_
Module: /mnt/sda5/.user/root/src/openwatcom-1.9/rel2/lib386/nt/clib3r.lib(clearenv.c)
0043fb90       clearenv_
Module: /mnt/sda5/.user/root/src/openwatcom-1.9/rel2/lib386/nt/clib3r.lib(mbinit.c)
0043fc5a       __mbinit_
004469b4       ___MBCodePage
Module: /mnt/sda5/.user/root/src/openwatcom-1.9/rel2/lib386/nt/clib3r.lib(ustrnicm.c)
0043fd48       _wcsnicmp_
Module: /mnt/sda5/.user/root/src/openwatcom-1.9/rel2/lib386/nt/clib3r.lib(uputenv.c)
0043fdb0*      _wputenv_
0043ffd0       __wputenv_
Module: /mnt/sda5/.user/root/src/openwatcom-1.9/rel2/lib386/nt/clib3r.lib(wctomb.c)
004400d0       wctomb_
Module: /mnt/sda5/.user/root/src/openwatcom-1.9/rel2/lib386/nt/clib3r.lib(getchwnt.c)
00440210       getch_
Module: /mnt/sda5/.user/root/src/openwatcom-1.9/rel2/lib386/nt/clib3r.lib(putchwnt.c)
00440280       putch_
Module: /mnt/sda5/.user/root/src/openwatcom-1.9/rel2/lib386/nt/clib3r.lib(noefgfmt.c)
004469bc       ___EFG_printf
004469c0*      ___EFG_scanf
Module: /mnt/sda5/.user/root/src/openwatcom-1.9/rel2/lib386/nt/clib3r.lib(lltoa.c)
00440320       ulltoa_
00440390*      lltoa_
Module: /mnt/sda5/.user/root/src/openwatcom-1.9/rel2/lib386/nt/clib3r.lib(spvpe.c)
004403be       spawnvpe_
Module: /mnt/sda5/.user/root/src/openwatcom-1.9/rel2/lib386/nt/clib3r.lib(cinit.c)
00440510       __CommonInit_
Module: /mnt/sda5/.user/root/src/openwatcom-1.9/rel2/lib386/nt/clib3r.lib(abort.c)
00440526*      abort_
00440538       __terminate_
004469c4       ___abort
Module: /mnt/sda5/.user/root/src/openwatcom-1.9/rel2/lib386/nt/clib3r.lib(putenv.c)
00440550       putenv_
004407e0       __putenv_
Module: /mnt/sda5/.user/root/src/openwatcom-1.9/rel2/lib386/nt/clib3r.lib(ustrchr.c)
00440949       wcschr_
Module: /mnt/sda5/.user/root/src/openwatcom-1.9/rel2/lib386/nt/clib3r.lib(spve.c)
004409b0       spawnve_
Module: /mnt/sda5/.user/root/src/openwatcom-1.9/rel2/lib386/nt/clib3r.lib(strchr.c)
00440de0       strchr_
Module: /mnt/sda5/.user/root/src/openwatcom-1.9/rel2/lib386/nt/clib3r.lib(mbschr.c)
00440e00       _mbschr_
Module: /mnt/sda5/.user/root/src/openwatcom-1.9/rel2/lib386/nt/clib3r.lib(exvewnt.c)
00440e5f       execve_
Module: /mnt/sda5/.user/root/src/openwatcom-1.9/rel2/lib386/nt/clib3r.lib(mkfilstr.c)
00440ec0       __FormPosixHandleStr_
Module: /mnt/sda5/.user/root/src/openwatcom-1.9/rel2/lib386/nt/clib3r.lib(cenvarg.c)
004410cf       __cenvarg_
004411e3       __ccmdline_
Module: /mnt/sda5/.user/root/src/openwatcom-1.9/rel2/lib386/nt/clib3r.lib(split2.c)
00441290       _splitpath2_
Module: /mnt/sda5/.user/root/src/openwatcom-1.9/rel2/lib386/nt/clib3r.lib(spl.c)
004413e0       spawnl_
Module: /mnt/sda5/.user/root/src/openwatcom-1.9/rel2/lib386/nt/clib3r.lib(dospnwnt.c)
00441400       _dospawn_
Module: /mnt/sda5/.user/root/src/openwatcom-1.9/rel2/lib386/nt/clib3r.lib(strcpy.c)
00441550       strcpy_
Module: /mnt/sda5/.user/root/src/openwatcom-1.9/rel2/lib386/nt/clib3r.lib(mbccmp.c)
00441580       _mbccmp_
Module: /mnt/sda5/.user/root/src/openwatcom-1.9/rel2/lib386/nt/clib3r.lib(oshdl.c)
004415c0*      _get_osfhandle_
004415c0       _os_handle_


                        +----------------------+
                        |   Imported Symbols   |
                        +----------------------+

Symbol                              Module
======                              ======

_Sleep@4                            KERNEL32.DLL
_ExitThread@4                       KERNEL32.DLL
_CreateThread@24                    KERNEL32.DLL
_SetConsoleCtrlHandler@8            KERNEL32.DLL
_SetConsoleCursorPosition@8         KERNEL32.DLL
_ReadConsoleInputA@16               KERNEL32.DLL
_PeekConsoleInputA@16               KERNEL32.DLL
_WriteConsoleOutputA@20             KERNEL32.DLL
_SetConsoleActiveScreenBuffer@4     KERNEL32.DLL
_RtlUnwind@16                       KERNEL32.DLL
_GetStdHandle@4                     KERNEL32.DLL
_SetErrorMode@4                     KERNEL32.DLL
_LoadLibraryA@4                     KERNEL32.DLL
_FreeLibrary@4                      KERNEL32.DLL
_GetProcAddress@8                   KERNEL32.DLL
_SetConsoleCursorInfo@8             KERNEL32.DLL
_Beep@8                             KERNEL32.DLL
_CreateFileA@28                     KERNEL32.DLL
_SetConsoleMode@8                   KERNEL32.DLL
_CreateConsoleScreenBuffer@20       KERNEL32.DLL
_GetConsoleScreenBufferInfo@8       KERNEL32.DLL
_GetConsoleTitleA@8                 KERNEL32.DLL
_SetConsoleTitleA@4                 KERNEL32.DLL
_CloseHandle@4                      KERNEL32.DLL
_SetCurrentDirectoryA@4             KERNEL32.DLL
_GetDriveTypeA@4                    KERNEL32.DLL
_GetConsoleMode@8                   KERNEL32.DLL
_CreateProcessA@40                  KERNEL32.DLL
_WaitForSingleObject@8              KERNEL32.DLL
_GetExitCodeProcess@8               KERNEL32.DLL
_SetFilePointer@16                  KERNEL32.DLL
_GetLastError@0                     KERNEL32.DLL
_WriteFile@20                       KERNEL32.DLL
_GetFileType@4                      KERNEL32.DLL
_ReadFile@20                        KERNEL32.DLL
_SetEnvironmentVariableA@8          KERNEL32.DLL
_GetFullPathNameA@16                KERNEL32.DLL
_FindClose@4                        KERNEL32.DLL
_FindFirstFileA@8                   KERNEL32.DLL
_FindNextFileA@8                    KERNEL32.DLL
_GetTickCount@0                     KERNEL32.DLL
_GetCurrentProcessId@0              KERNEL32.DLL
_FormatMessageA@28                  KERNEL32.DLL
_MoveFileA@8                        KERNEL32.DLL
_GetCurrentDirectoryA@8             KERNEL32.DLL
_GetCurrentProcess@0                KERNEL32.DLL
_DuplicateHandle@28                 KERNEL32.DLL
_SetFileAttributesA@8               KERNEL32.DLL
_GetEnvironmentStringsA@0           KERNEL32.DLL
_GetVersion@0                       KERNEL32.DLL
_GetModuleFileNameA@12              KERNEL32.DLL
_GetCommandLineA@0                  KERNEL32.DLL
_GetCommandLineW@0                  KERNEL32.DLL
_FreeEnvironmentStringsA@4          KERNEL32.DLL
_GetModuleHandleA@4                 KERNEL32.DLL
_ExitProcess@4                      KERNEL32.DLL
_VirtualAlloc@16                    KERNEL32.DLL
_SetStdHandle@8                     KERNEL32.DLL
_CreateEventA@16                    KERNEL32.DLL
_CharUpperA@4                       USER32.DLL
_FileTimeToLocalFileTime@8          KERNEL32.DLL
_FileTimeToDosDateTime@12           KERNEL32.DLL
_DosDateTimeToFileTime@12           KERNEL32.DLL
_LocalFileTimeToFileTime@8          KERNEL32.DLL
_GetFileAttributesA@4               KERNEL32.DLL
_DeleteFileA@4                      KERNEL32.DLL
_GetLocalTime@4                     KERNEL32.DLL
_GetTimeZoneInformation@4           KERNEL32.DLL
_GetModuleFileNameW@12              KERNEL32.DLL
_MultiByteToWideChar@24             KERNEL32.DLL
_SetUnhandledExceptionFilter@4      KERNEL32.DLL
_UnhandledExceptionFilter@4         KERNEL32.DLL
_VirtualQuery@12                    KERNEL32.DLL
_VirtualFree@12                     KERNEL32.DLL
_SetEnvironmentVariableW@8          KERNEL32.DLL
_FlushFileBuffers@4                 KERNEL32.DLL
_GetCurrentThreadId@0               KERNEL32.DLL
_GetACP@0                           KERNEL32.DLL
_GetOEMCP@0                         KERNEL32.DLL
_GetCPInfo@8                        KERNEL32.DLL
_WideCharToMultiByte@32             KERNEL32.DLL
_WriteConsoleA@20                   KERNEL32.DLL


                        +--------------------+
                        |   Libraries Used   |
                        +--------------------+

/mnt/sda5/.user/root/src/openwatcom-1.9/rel2/lib386/nt/kernel32.lib
/mnt/sda5/.user/root/src/openwatcom-1.9/rel2/lib386/nt/user32.lib
/mnt/sda5/.user/root/src/openwatcom-1.9/rel2/lib386/nt/clib3r.lib


                        +-----------------------+
                        |   Linker Statistics   |
                        +-----------------------+

Stack size:  5000 (20480.)
Memory size:  0004d276 (316022.)
Entry point address: 0043946e
Link time: 00:00.00
