Open Watcom Linker Version 1.9
Portions Copyright (c) 1985-2002 Sybase, Inc. All Rights Reserved.
Created on:       12/12/16 02:40:52
Executable Image: madaxp.dll
creating a Windows 16-bit executable


                        +------------+
                        |   Groups   |
                        +------------+

Group                           Address              Size
=====                           =======              ====

DGROUP                          0002:0000            00002450



                        +--------------+
                        |   Segments   |
                        +--------------+

Segment                Class          Group          Address         Size
=======                =====          =====          =======         ====

madimp_TEXT            CODE           AUTO           0001:0000       000003a8
disentry_TEXT          CODE           AUTO           0001:03b0       00001d07
disaxp_TEXT            CODE           AUTO           0001:20c0       00000c9f
axpaddr_TEXT           CODE           AUTO           0001:2d60       000000e9
axpctrl_TEXT           CODE           AUTO           0001:2e50       000000e0
axptypes_TEXT          CODE           AUTO           0001:2f30       0000069b
axpreg_TEXT            CODE           AUTO           0001:35d0       00001758
axpcall_TEXT           CODE           AUTO           0001:4d30       00000446
axpdisas_TEXT          CODE           AUTO           0001:5180       00000c86
axptrace_TEXT          CODE           AUTO           0001:5e10       000003e5
_TEXT                  CODE           AUTO           0001:61f6       00000592
FAR_DATA               FAR_DATA       AUTO           0002:0000       00000000
_NULL                  BEGDATA        DGROUP         0002:0000       00000010
AFX_NULL               BEGDATA        DGROUP         0002:0010       00000000
CONST                  DATA           DGROUP         0002:0010       00000000
CONST2                 DATA           DGROUP         0002:0010       00000102
_DATA                  DATA           DGROUP         0002:0120       000002e8
XIB                    DATA           DGROUP         0002:0408       00000000
XI                     DATA           DGROUP         0002:0408       00000000
XIE                    DATA           DGROUP         0002:0408       00000000
YIB                    DATA           DGROUP         0002:0408       00000000
YI                     DATA           DGROUP         0002:0408       00000000
YIE                    DATA           DGROUP         0002:0408       00000000
STRINGS                DATA           DGROUP         0002:0408       00000000
DATA                   DATA           DGROUP         0002:0408       00000000
BCSD                   DATA           DGROUP         0002:0408       00000000
_BSS                   BSS            DGROUP         0002:0410       0000003c
STACK                  STACK          DGROUP         0002:0450       00002000


                        +----------------+
                        |   Memory Map   |
                        +----------------+

* = unreferenced symbol
+ = symbol only referenced locally

Address        Symbol
=======        ======

Module: madimp.obj(/mnt/sda5/.user/root/src/openwatcom-1.9/bld/mad/c/madimp.c)
0002:0410+     _MadClient
0001:0000+     MADUNLOAD
0001:0020      WINMAIN
0001:010e+     MADLOAD
0001:013a      MCAlloc_
0001:014c*     MCRealloc_
0001:015e      MCFree_
0001:0170*     MCOpen_
0001:0184*     MCSeek_
0001:0198*     MCRead_
0001:01aa*     MCClose_
0001:01bc      MCReadMem_
0001:01e8*     MCWriteMem_
0001:0214*     MCString_
0001:0226*     MCAddString_
0001:0238*     MCRadixPrefix_
0001:024a      MCNotify_
0001:025e      MCMachineData_
0001:0296      MCAddrToString_
0001:02cc      MCMemExpr_
0001:02ea*     MCAddrSection_
0001:02fc*     MCAddrOvlReturn_
0001:030e      MCSystemConfig_
0001:0320      MCTypeInfoForHost_
0001:0334      MCTypeConvert_
0001:035a      MCTypeToString_
0001:0384*     MCStatus_
0002:0120+     _MadImpInterface
Module: disentry.obj(/mnt/sda5/.user/root/src/openwatcom-1.9/bld/ndisasm/core/c/disentry.c)
0001:03b0      _AXPMaxInsName
0001:03b1+     _DisStringTable
0001:08fc+     _DisInstructionTable
0001:11ae+     _DisRegisterTable
0001:1330*     _DisRefTypeTable
0001:1344      _AXPRangeTable
0001:1374      _AXPRangeTablePos
0001:1378+     _DisSelectorTable
0001:1830      SEX_
0001:1866+     DisGetString_
0001:18c4*     DisDummyHandler_
0001:18ce      DisInit_
0001:1900      DisFini_
0001:190c      DisDecodeInit_
0001:19a4      DisDecode_
0001:1bc2+     DisAddReg_
0001:1c0a+     DisOpFormat_
0001:1e82      DisFormat_
0001:208e      DisInsNameMax_
0001:20a4*     DisInsSizeInc_
Module: disaxp.obj(/mnt/sda5/.user/root/src/openwatcom-1.9/bld/ndisasm/core/c/disaxp.c)
0001:2104      _AXPData
0001:212a      AXPPal_
0001:216a      AXPMemory_
0001:222a      AXPFPMemory_
0001:224a      AXPMemoryLA_
0001:2272      AXPMemoryFC_
0001:22bc      AXPJump_
0001:231a      AXPBranch_
0001:2384      AXPFPBranch_
0001:23a4      AXPOperate_
0001:2424      AXPOperateV_
0001:2456      AXPFPOperate_
0001:24a6      AXPFPConvert_
0001:2602      AXPIEEEOperate_
0001:2622      AXPIEEECompare_
0001:2644      AXPIEEEConvert_
0001:2684      AXPVAXOperate_
0001:26d4      AXPVAXConvert_
Module: axpaddr.obj(/mnt/sda5/.user/root/src/openwatcom-1.9/bld/mad/axp/c/axpaddr.c)
0001:2d60      MIADDRADD
0001:2d80      MIADDRCOMP
0001:2de0      MIADDRDIFF
0001:2e0e      MIADDRMAP
0001:2e22      MIADDRFLAT
0001:2e36      MIADDRINTERRUPT
Module: axpctrl.obj(/mnt/sda5/.user/root/src/openwatcom-1.9/bld/mad/axp/c/axpctrl.c)
0001:2e50      MIINIT
0001:2e7e      MIFINI
0001:2e96      MISTATESIZE
0001:2ea8      MISTATEINIT
0001:2ee0      MISTATESET
0001:2efc      MISTATECOPY
0002:0420      _MADState
Module: axptypes.obj(/mnt/sda5/.user/root/src/openwatcom-1.9/bld/mad/axp/c/axptypes.c)
0001:301a      _TypeArray
0001:30ca      MITYPEWALK
0001:3120      MITYPENAME
0001:313c      MITYPEPREFERREDRADIX
0001:3168      MITYPEINFO
0001:31b2      MITYPEDEFAULT
0001:33c8      MITYPETOSTRING
0001:3480      MITYPEFORDIPTYPE
0001:35a0      MITYPECONVERT
Module: axpreg.obj(/mnt/sda5/.user/root/src/openwatcom-1.9/bld/mad/axp/c/axpreg.c)
0001:365e+     _NAME_invd
0001:3663+     _NAME_dzed
0001:3668+     _NAME_ovfd
0001:366d+     _NAME_inv
0001:3671+     _NAME_dze
0001:3675+     _NAME_ovf
0001:3679+     _NAME_unf
0001:367d+     _NAME_ine
0001:3681+     _NAME_iov
0001:3685+     _NAME_dyn
0001:3689+     _NAME_sum
0001:371e+     _NAME_mode
0001:3723+     _NAME_ie
0001:3726+     _NAME_irql
0001:375c+     _NAME_f0
0001:375f+     _NAME_f1
0001:3762+     _NAME_f2
0001:3765+     _NAME_f3
0001:3768+     _NAME_f4
0001:376b+     _NAME_f5
0001:376e+     _NAME_f6
0001:3771+     _NAME_f7
0001:3774+     _NAME_f8
0001:3777+     _NAME_f9
0001:377a+     _NAME_f10
0001:377e+     _NAME_f11
0001:3782+     _NAME_f12
0001:3786+     _NAME_f13
0001:378a+     _NAME_f14
0001:378e+     _NAME_f15
0001:3792+     _NAME_f16
0001:3796+     _NAME_f17
0001:379a+     _NAME_f18
0001:379e+     _NAME_f19
0001:37a2+     _NAME_f20
0001:37a6+     _NAME_f21
0001:37aa+     _NAME_f22
0001:37ae+     _NAME_f23
0001:37b2+     _NAME_f24
0001:37b6+     _NAME_f25
0001:37ba+     _NAME_f26
0001:37be+     _NAME_f27
0001:37c2+     _NAME_f28
0001:37c6+     _NAME_f29
0001:37ca+     _NAME_f30
0001:37ce+     _NAME_f31
0001:37d2+     _NAME_r0
0001:37d5+     _NAME_r1
0001:37d8+     _NAME_r2
0001:37db+     _NAME_r3
0001:37de+     _NAME_r4
0001:37e1+     _NAME_r5
0001:37e4+     _NAME_r6
0001:37e7+     _NAME_r7
0001:37ea+     _NAME_r8
0001:37ed+     _NAME_r9
0001:37f0+     _NAME_r10
0001:37f4+     _NAME_r11
0001:37f8+     _NAME_r12
0001:37fc+     _NAME_r13
0001:3800+     _NAME_r14
0001:3804+     _NAME_r15
0001:3808+     _NAME_r16
0001:380c+     _NAME_r17
0001:3810+     _NAME_r18
0001:3814+     _NAME_r19
0001:3818+     _NAME_r20
0001:381c+     _NAME_r21
0001:3820+     _NAME_r22
0001:3824+     _NAME_r23
0001:3828+     _NAME_r24
0001:382c+     _NAME_r25
0001:3830+     _NAME_r26
0001:3834+     _NAME_r27
0001:3838+     _NAME_r28
0001:383c+     _NAME_r29
0001:3840+     _NAME_r30
0001:3844+     _NAME_r31
0001:3848+     _NAME_fpcr
0001:384d+     _NAME_v0
0001:3850+     _NAME_t0
0001:3853+     _NAME_t1
0001:3856+     _NAME_t2
0001:3859+     _NAME_t3
0001:385c+     _NAME_t4
0001:385f+     _NAME_t5
0001:3862+     _NAME_t6
0001:3865+     _NAME_t7
0001:3868+     _NAME_s0
0001:386b+     _NAME_s1
0001:386e+     _NAME_s2
0001:3871+     _NAME_s3
0001:3874+     _NAME_s4
0001:3877+     _NAME_s5
0001:387a+     _NAME_fp
0001:387d+     _NAME_a0
0001:3880+     _NAME_a1
0001:3883+     _NAME_a2
0001:3886+     _NAME_a3
0001:3889+     _NAME_a4
0001:388c+     _NAME_a5
0001:388f+     _NAME_t8
0001:3892+     _NAME_t9
0001:3895+     _NAME_t10
0001:3899+     _NAME_t11
0001:389d+     _NAME_ra
0001:38a0+     _NAME_t12
0001:38a4+     _NAME_at
0001:38a7+     _NAME_gp
0001:38aa+     _NAME_sp
0001:38be      _RegList
0001:3de0      GetPData_
0001:3e92      VariableFrame_
0001:3f22      MIREGISTERSSIZE
0001:3f34      MIREGISTERSHOST
0001:3f52      MIREGISTERSTARGET
0001:3f64      MIREGSETWALK
0001:3fb6      MIREGSETNAME
0001:3fce      MIREGSETLEVEL
0001:4058      MIREGSETDISPLAYGROUPING
0001:42e8      MIREGSETDISPLAYGETPIECE
0001:4324      MIREGSETDISPLAYMODIFY
0001:4396      MIREGMODIFIED
0001:44a8      MIREGINSPECTADDR
0001:453a      MIREGSETDISPLAYTOGGLELIST
0001:4556      MIREGSETDISPLAYTOGGLE
0001:45ca      MIREGWALK
0001:46e8      MIREGSPECIALGET
0001:477e      MIREGSPECIALSET
0001:480c      MIREGSPECIALNAME
0001:48c2      MIREGFROMCONTEXTITEM
0001:4910      MIREGUPDATESTART
0001:4920      MIREGUPDATEEND
0001:4bf4      RegInit_
0001:4cb6      RegFini_
0002:043e+     _CurrPAL
Module: axpcall.obj(/mnt/sda5/.user/root/src/openwatcom-1.9/bld/mad/axp/c/axpcall.c)
0001:4d32      MICALLSTACKGROWSUP
0001:4d44      MICALLTYPELIST
0001:4d58      MICALLBUILDFRAME
0001:4da8      MICALLRETURNREG
0001:4dbe      MICALLPARMREGLIST
0001:4e2a      MICALLUPSTACKSIZE
0001:4e3c      MICALLUPSTACKINIT
0001:4ea0      MICALLUPSTACKLEVEL
Module: axpdisas.obj(/mnt/sda5/.user/root/src/openwatcom-1.9/bld/mad/axp/c/axpdisas.c)
0001:5180      _RegTrans
0001:5204      DisasmInit_
0001:5230      DisasmFini_
0001:5244      DisCliGetData_
0001:529a      DisCliValueString_
0001:5392      MIDISASMDATASIZE
0001:53a4      MIDISASMNAMEMAX
0001:53bc      DisasmOne_
0001:5498      MIDISASM
0001:54bc      MIDISASMFORMAT
0001:5620      MIDISASMINSSIZE
0001:565a      MIDISASMINSUNDOABLE
0001:5886      DisasmControl_
0001:5b3e      MIDISASMCONTROL
0001:5b5e      MIDISASMINSNEXT
0001:5c28      MIDISASMMEMREFWALK
0001:5d46      MIDISASMTOGGLELIST
0001:5d5a      MIDISASMTOGGLE
0001:5d98      MIDISASMINSPECTADDR
Module: axptrace.obj(/mnt/sda5/.user/root/src/openwatcom-1.9/bld/mad/axp/c/axptrace.c)
0001:5e1a      MITRACESIZE
0001:5e2c      MITRACEINIT
0001:5e3c      MITRACEHAVERECURSED
0001:5e70      MITRACEONE
0001:5f62      MITRACESIMULATE
0001:6086      MITRACEFINI
0001:6096      MIUNEXPECTEDBREAK
Module: /mnt/sda5/.user/root/src/openwatcom-1.9/rel2/lib286/win/clibl.lib(strtol.c)
0001:643c      strtoul_
0001:6450*     strtol_
Module: /mnt/sda5/.user/root/src/openwatcom-1.9/rel2/lib286/win/clibl.lib(wstart)
0000:0006*     pLocalHeap
0000:0008*     pAtomTable
0000:000a*     pStackTop
0000:000c*     pStackMin
0000:000e*     pStackBot
0002:0000*     __nullarea
0002:030a*     __curbrk
0002:030c*     __psp
0002:030e*     __osmajor
0002:030f*     __osminor
0002:0310*     __osmode
0002:000a*     __STACKLOW
0002:000c*     __STACKTOP
0002:0312*     __cbyte
0002:0314*     __child
0002:0316*     __no87
0002:0311*     __HShift
0002:0318*     __get_ovl_stack
0002:031c*     __restore_ovl_stack
0002:0320*     ___FPE_handler
0002:0324*     __LpCmdLine
0002:0328*     __LpPgmName
0001:645a      _wstart_
0001:645a*     _cstart_
0001:653b      __exit_
0001:654c      __GETDS
Module: /mnt/sda5/.user/root/src/openwatcom-1.9/rel2/lib286/win/clibl.lib(cmodel)
0001:654e      _big_code_
0001:654e*     CodeModelMismatch
Module: /mnt/sda5/.user/root/src/openwatcom-1.9/rel2/lib286/win/clibl.lib(toupper.c)
0001:654e      toupper_
Module: /mnt/sda5/.user/root/src/openwatcom-1.9/rel2/lib286/win/clibl.lib(strupr.c)
0001:655c      strupr_
Module: /mnt/sda5/.user/root/src/openwatcom-1.9/rel2/lib286/win/clibl.lib(tolower.c)
0001:6580      tolower_
Module: /mnt/sda5/.user/root/src/openwatcom-1.9/rel2/lib286/win/clibl.lib(istable.c)
0002:0010      __IsTable
Module: /mnt/sda5/.user/root/src/openwatcom-1.9/rel2/lib286/win/clibl.lib(seterrno.c)
0001:658e      __set_errno_
0001:65a9*     __set_EDOM_
0001:65c0*     __set_ERANGE_
0001:65d6*     __set_EINVAL_
0001:65ef*     __set_doserrno_
Module: /mnt/sda5/.user/root/src/openwatcom-1.9/rel2/lib286/win/clibl.lib(i4m)
0001:6600*     __I4M
0001:6600      __U4M
Module: /mnt/sda5/.user/root/src/openwatcom-1.9/rel2/lib286/win/clibl.lib(exit.c)
0001:6618+     __null_int23_exit_
0001:6619      exit_
0001:6652*     _exit_
0002:03bc+     ___int23_exit
0002:03c0+     ___FPE_handler_exit
Module: /mnt/sda5/.user/root/src/openwatcom-1.9/rel2/lib286/win/clibl.lib(initrtns.c)
0001:66a2      __FInitRtns
0001:66ad+     __InitRtns
0001:670b      __FFiniRtns
0001:6716      __FiniRtns
Module: /mnt/sda5/.user/root/src/openwatcom-1.9/rel2/lib286/win/clibl.lib(dosseg)
0001:677a      __DOSseg__
Module: /mnt/sda5/.user/root/src/openwatcom-1.9/rel2/lib286/win/clibl.lib(errno.c)
0001:677b      __get_errno_ptr_
0001:6781      __get_doserrno_ptr_
0002:0448+     _errno
0002:044a+     __doserrno
Module: /mnt/sda5/.user/root/src/openwatcom-1.9/rel2/lib286/win/clibl.lib(winrtns.c)
0002:03c4*     __WindowsIsWindowedHandle
0002:03c8*     __WindowsRemoveWindowedHandle
0002:03cc*     __WindowsNewWindow
0002:03d0*     __WindowsCloseWindow
0002:03d4*     __WindowsSetAbout
0002:03d8*     __WindowsSetAppTitle
0002:03dc*     __WindowsSetConTitle
0002:03e0*     __WindowsDestroyOnClose
0002:03e4*     __WindowsYieldControl
0002:03e8*     __WindowsShutDown
0002:03ec*     __WindowsStdin
0002:03f0*     __WindowsStdout
0002:03f4*     __WindowsKbhit
0002:03f8*     __WindowsGetch
0002:03fc*     __WindowsGetche
0002:0400*     __WindowsPutch
0002:0404      __WindowsExitRtn
Module: /mnt/sda5/.user/root/src/openwatcom-1.9/rel2/lib286/win/clibl.lib(sgdef086)
0002:0408      __Start_XI
0002:0408      __End_XI
0002:0408      __Start_YI
0002:0408      __End_YI


                        +----------------------+
                        |   Imported Symbols   |
                        +----------------------+

Symbol                              Module
======                              ======

POSTAPPMESSAGE                      USER
GETCURRENTTASK                      KERNEL
MAKEPROCINSTANCE                    KERNEL
GETMESSAGE                          USER
TRANSLATEMESSAGE                    USER
DISPATCHMESSAGE                     USER
INITTASK                            KERNEL
GETMODULEFILENAME                   KERNEL
INITAPP                             USER
WAITEVENT                           KERNEL
__AHSHIFT                           KERNEL


                        +--------------------+
                        |   Libraries Used   |
                        +--------------------+

/mnt/sda5/.user/root/src/openwatcom-1.9/rel2/lib286/win/windows.lib
/mnt/sda5/.user/root/src/openwatcom-1.9/rel2/lib286/win/clibl.lib


                        +-----------------------+
                        |   Linker Statistics   |
                        +-----------------------+

Stack size:  2000 (8192.)
Memory size:  8bd8 (35800.)
Entry point address: 0001:645a
Link time: 00:00.00
