Open Watcom Linker Version 1.9
Portions Copyright (c) 1985-2002 Sybase, Inc. All Rights Reserved.
Created on:       12/12/16 02:21:34
Executable Image: clbr19d.dll
creating a Windows NT character-mode dynamic link library


                        +------------+
                        |   Groups   |
                        +------------+

Group                           Address              Size
=====                           =======              ====

.idata                          6fe4c000             00000d0e
DGROUP                          6fe4d000             000039f0



                        +--------------+
                        |   Segments   |
                        +--------------+

Segment                Class          Group          Address         Size
=======                =====          =====          =======         ====

BEGTEXT                CODE           AUTO           6fe01000        00000007
_TEXT                  CODE           AUTO           6fe01010        0004a663
CODE32                 CODE           AUTO           6fe4b674        00000575
TRANSFER CODE          CODE           AUTO           6fe4bbec        000002dc
.idata                 .idata         .idata         6fe4c000        00000d0e
_NULL                  BEGDATA        DGROUP         6fe4d000        00000004
_AFTERNULL             BEGDATA        DGROUP         6fe4d004        00000000
CONST                  DATA           DGROUP         6fe4d004        00000064
CONST2                 DATA           DGROUP         6fe4d068        00000000
_DATA                  DATA           DGROUP         6fe4d070        00000c68
XIB                    DATA           DGROUP         6fe4dcd8        00000000
XI                     DATA           DGROUP         6fe4dcd8        0000005a
XIE                    DATA           DGROUP         6fe4dd32        00000000
YIB                    DATA           DGROUP         6fe4dd32        00000000
YI                     DATA           DGROUP         6fe4dd32        00000036
YIE                    DATA           DGROUP         6fe4dd68        00000000
DATA32                 DATA           DGROUP         6fe4dd68        0000030e
TIB                    DATA           DGROUP         6fe4e076        00000000
TI                     DATA           DGROUP         6fe4e076        00000000
TIE                    DATA           DGROUP         6fe4e076        00000000
DATA                   DATA           DGROUP         6fe4e076        00000000
CONST32                CONST          DGROUP         6fe4f000        00000000
_BSS                   BSS            DGROUP         6fe4f000        000019ed
BSS32                  BSS            DGROUP         6fe509f0        00000000
STACK                  STACK          DGROUP         6fe509f0        00000000


                        +----------------+
                        |   Memory Map   |
                        +----------------+

* = unreferenced symbol
+ = symbol only referenced locally

Address        Symbol
=======        ======

Module: /mnt/sda5/.user/root/src/openwatcom-1.9/bld/clib/startup/library/winnt.386/mf_rd/clibdwnt.obj(/mnt/sda5/.user/root/src/openwatcom-1.9/bld/clib/startup/c/clibdwnt.c)
6fe01010       _LibMain@12
Module: /mnt/sda5/.user/root/src/openwatcom-1.9/bld/clib/library/winnt.386/mf_rd/clib3r.lib(dstrt386)
6fe01030       __DLLstart_
6fe01030*      __DLLstartw_
6fe01030*      _DllMainCRTStartup@12
6fe01030*      _wDllMainCRTStartup@12
Module: /mnt/sda5/.user/root/src/openwatcom-1.9/bld/clib/library/winnt.386/mf_rd/clib3r.lib(/mnt/sda5/.user/root/src/openwatcom-1.9/bld/clib/alias/a/_iaccess.asm)
6fe0108c       _access_
Module: /mnt/sda5/.user/root/src/openwatcom-1.9/bld/clib/library/winnt.386/mf_rd/clib3r.lib(/mnt/sda5/.user/root/src/openwatcom-1.9/bld/clib/alias/a/_iatoi64.asm)
6fe01094       _atoi64_
Module: /mnt/sda5/.user/root/src/openwatcom-1.9/bld/clib/library/winnt.386/mf_rd/clib3r.lib(/mnt/sda5/.user/root/src/openwatcom-1.9/bld/clib/alias/a/_iclose_.asm)
6fe0109c       _close_
Module: /mnt/sda5/.user/root/src/openwatcom-1.9/bld/clib/library/winnt.386/mf_rd/clib3r.lib(/mnt/sda5/.user/root/src/openwatcom-1.9/bld/clib/alias/a/_ichdir_.asm)
6fe010a4       _chdir_
Module: /mnt/sda5/.user/root/src/openwatcom-1.9/bld/clib/library/winnt.386/mf_rd/clib3r.lib(/mnt/sda5/.user/root/src/openwatcom-1.9/bld/clib/alias/a/_ichmod_.asm)
6fe010ac       _chmod_
Module: /mnt/sda5/.user/root/src/openwatcom-1.9/bld/clib/library/winnt.386/mf_rd/clib3r.lib(/mnt/sda5/.user/root/src/openwatcom-1.9/bld/clib/alias/a/_ichsize.asm)
6fe010b4       _chsize_
Module: /mnt/sda5/.user/root/src/openwatcom-1.9/bld/clib/library/winnt.386/mf_rd/clib3r.lib(/mnt/sda5/.user/root/src/openwatcom-1.9/bld/clib/alias/a/_icreat_.asm)
6fe010bc       _creat_
Module: /mnt/sda5/.user/root/src/openwatcom-1.9/bld/clib/library/winnt.386/mf_rd/clib3r.lib(/mnt/sda5/.user/root/src/openwatcom-1.9/bld/clib/alias/a/_icwait_.asm)
6fe010c4       _cwait_
Module: /mnt/sda5/.user/root/src/openwatcom-1.9/bld/clib/library/winnt.386/mf_rd/clib3r.lib(/mnt/sda5/.user/root/src/openwatcom-1.9/bld/clib/alias/a/_idup___.asm)
6fe010cc       _dup_
Module: /mnt/sda5/.user/root/src/openwatcom-1.9/bld/clib/library/winnt.386/mf_rd/clib3r.lib(/mnt/sda5/.user/root/src/openwatcom-1.9/bld/clib/alias/a/_idup2__.asm)
6fe010d4       _dup2_
Module: /mnt/sda5/.user/root/src/openwatcom-1.9/bld/clib/library/winnt.386/mf_rd/clib3r.lib(/mnt/sda5/.user/root/src/openwatcom-1.9/bld/clib/alias/a/_ieof___.asm)
6fe010dc       _eof_
Module: /mnt/sda5/.user/root/src/openwatcom-1.9/bld/clib/library/winnt.386/mf_rd/clib3r.lib(/mnt/sda5/.user/root/src/openwatcom-1.9/bld/clib/alias/a/_ifdopen.asm)
6fe010e4       _fdopen_
Module: /mnt/sda5/.user/root/src/openwatcom-1.9/bld/clib/library/winnt.386/mf_rd/clib3r.lib(/mnt/sda5/.user/root/src/openwatcom-1.9/bld/clib/alias/a/_ifgetch.asm)
6fe010ec       _fgetchar_
Module: /mnt/sda5/.user/root/src/openwatcom-1.9/bld/clib/library/winnt.386/mf_rd/clib3r.lib(/mnt/sda5/.user/root/src/openwatcom-1.9/bld/clib/alias/a/_ifgetwc.asm)
6fe010f4       _fgetwchar_
Module: /mnt/sda5/.user/root/src/openwatcom-1.9/bld/clib/library/winnt.386/mf_rd/clib3r.lib(/mnt/sda5/.user/root/src/openwatcom-1.9/bld/clib/alias/a/_iflelen.asm)
6fe010fc       _filelength_
Module: /mnt/sda5/.user/root/src/openwatcom-1.9/bld/clib/library/winnt.386/mf_rd/clib3r.lib(/mnt/sda5/.user/root/src/openwatcom-1.9/bld/clib/alias/a/_ifileno.asm)
6fe01104       _fileno_
Module: /mnt/sda5/.user/root/src/openwatcom-1.9/bld/clib/library/winnt.386/mf_rd/clib3r.lib(/mnt/sda5/.user/root/src/openwatcom-1.9/bld/clib/alias/a/_ifputch.asm)
6fe0110c       _fputchar_
Module: /mnt/sda5/.user/root/src/openwatcom-1.9/bld/clib/library/winnt.386/mf_rd/clib3r.lib(/mnt/sda5/.user/root/src/openwatcom-1.9/bld/clib/alias/a/_ifputwc.asm)
6fe01114       _fputwchar_
Module: /mnt/sda5/.user/root/src/openwatcom-1.9/bld/clib/library/winnt.386/mf_rd/clib3r.lib(/mnt/sda5/.user/root/src/openwatcom-1.9/bld/clib/alias/a/_ifstat_.asm)
6fe0111c       _fstat_
Module: /mnt/sda5/.user/root/src/openwatcom-1.9/bld/clib/library/winnt.386/mf_rd/clib3r.lib(/mnt/sda5/.user/root/src/openwatcom-1.9/bld/clib/alias/a/_iftime_.asm)
6fe01124       _ftime_
Module: /mnt/sda5/.user/root/src/openwatcom-1.9/bld/clib/library/winnt.386/mf_rd/clib3r.lib(/mnt/sda5/.user/root/src/openwatcom-1.9/bld/clib/alias/a/_igetch_.asm)
6fe0112c       _getch_
Module: /mnt/sda5/.user/root/src/openwatcom-1.9/bld/clib/library/winnt.386/mf_rd/clib3r.lib(/mnt/sda5/.user/root/src/openwatcom-1.9/bld/clib/alias/a/_igetche.asm)
6fe01134       _getche_
Module: /mnt/sda5/.user/root/src/openwatcom-1.9/bld/clib/library/winnt.386/mf_rd/clib3r.lib(/mnt/sda5/.user/root/src/openwatcom-1.9/bld/clib/alias/a/_igetcwd.asm)
6fe0113c       _getcwd_
Module: /mnt/sda5/.user/root/src/openwatcom-1.9/bld/clib/library/winnt.386/mf_rd/clib3r.lib(/mnt/sda5/.user/root/src/openwatcom-1.9/bld/clib/alias/a/_igetws_.asm)
6fe01144       _getws_
Module: /mnt/sda5/.user/root/src/openwatcom-1.9/bld/clib/library/winnt.386/mf_rd/clib3r.lib(/mnt/sda5/.user/root/src/openwatcom-1.9/bld/clib/alias/a/_idopen_.asm)
6fe0114c       _dopen_
Module: /mnt/sda5/.user/root/src/openwatcom-1.9/bld/clib/library/winnt.386/mf_rd/clib3r.lib(/mnt/sda5/.user/root/src/openwatcom-1.9/bld/clib/alias/a/_iisatty.asm)
6fe01154       _isatty_
Module: /mnt/sda5/.user/root/src/openwatcom-1.9/bld/clib/library/winnt.386/mf_rd/clib3r.lib(/mnt/sda5/.user/root/src/openwatcom-1.9/bld/clib/alias/a/_i_isasc.asm)
6fe0115c       __isascii_
Module: /mnt/sda5/.user/root/src/openwatcom-1.9/bld/clib/library/winnt.386/mf_rd/clib3r.lib(/mnt/sda5/.user/root/src/openwatcom-1.9/bld/clib/alias/a/_iiscsym.asm)
6fe01164       iscsym_
Module: /mnt/sda5/.user/root/src/openwatcom-1.9/bld/clib/library/winnt.386/mf_rd/clib3r.lib(/mnt/sda5/.user/root/src/openwatcom-1.9/bld/clib/alias/a/_iiscsyf.asm)
6fe0116c       iscsymf_
Module: /mnt/sda5/.user/root/src/openwatcom-1.9/bld/clib/library/winnt.386/mf_rd/clib3r.lib(/mnt/sda5/.user/root/src/openwatcom-1.9/bld/clib/alias/a/_iismbbk.asm)
6fe01174       _ismbbkalnum_
Module: /mnt/sda5/.user/root/src/openwatcom-1.9/bld/clib/library/winnt.386/mf_rd/clib3r.lib(/mnt/sda5/.user/root/src/openwatcom-1.9/bld/clib/alias/a/_iislead.asm)
6fe0117c       isleadbyte_
Module: /mnt/sda5/.user/root/src/openwatcom-1.9/bld/clib/library/winnt.386/mf_rd/clib3r.lib(/mnt/sda5/.user/root/src/openwatcom-1.9/bld/clib/alias/a/_iitoa__.asm)
6fe01184       _itoa_
Module: /mnt/sda5/.user/root/src/openwatcom-1.9/bld/clib/library/winnt.386/mf_rd/clib3r.lib(/mnt/sda5/.user/root/src/openwatcom-1.9/bld/clib/alias/a/_iutoa__.asm)
6fe0118c       _utoa_
Module: /mnt/sda5/.user/root/src/openwatcom-1.9/bld/clib/library/winnt.386/mf_rd/clib3r.lib(/mnt/sda5/.user/root/src/openwatcom-1.9/bld/clib/alias/a/_ikbhit_.asm)
6fe01194       _kbhit_
Module: /mnt/sda5/.user/root/src/openwatcom-1.9/bld/clib/library/winnt.386/mf_rd/clib3r.lib(/mnt/sda5/.user/root/src/openwatcom-1.9/bld/clib/alias/a/_ilockin.asm)
6fe0119c       _locking_
Module: /mnt/sda5/.user/root/src/openwatcom-1.9/bld/clib/library/winnt.386/mf_rd/clib3r.lib(/mnt/sda5/.user/root/src/openwatcom-1.9/bld/clib/alias/a/_ilseek_.asm)
6fe011a4       _lseek_
Module: /mnt/sda5/.user/root/src/openwatcom-1.9/bld/clib/library/winnt.386/mf_rd/clib3r.lib(/mnt/sda5/.user/root/src/openwatcom-1.9/bld/clib/alias/a/_iltoa__.asm)
6fe011ac       _ltoa_
Module: /mnt/sda5/.user/root/src/openwatcom-1.9/bld/clib/library/winnt.386/mf_rd/clib3r.lib(/mnt/sda5/.user/root/src/openwatcom-1.9/bld/clib/alias/a/_ii64toa.asm)
6fe011b4       _i64toa_
Module: /mnt/sda5/.user/root/src/openwatcom-1.9/bld/clib/library/winnt.386/mf_rd/clib3r.lib(/mnt/sda5/.user/root/src/openwatcom-1.9/bld/clib/alias/a/_illtoa_.asm)
6fe011bc       _lltoa_
Module: /mnt/sda5/.user/root/src/openwatcom-1.9/bld/clib/library/winnt.386/mf_rd/clib3r.lib(/mnt/sda5/.user/root/src/openwatcom-1.9/bld/clib/alias/a/_iultoa_.asm)
6fe011c4       _ultoa_
Module: /mnt/sda5/.user/root/src/openwatcom-1.9/bld/clib/library/winnt.386/mf_rd/clib3r.lib(/mnt/sda5/.user/root/src/openwatcom-1.9/bld/clib/alias/a/_iulltoa.asm)
6fe011cc       _ulltoa_
Module: /mnt/sda5/.user/root/src/openwatcom-1.9/bld/clib/library/winnt.386/mf_rd/clib3r.lib(/mnt/sda5/.user/root/src/openwatcom-1.9/bld/clib/alias/a/_iu64toa.asm)
6fe011d4       _ui64toa_
Module: /mnt/sda5/.user/root/src/openwatcom-1.9/bld/clib/library/winnt.386/mf_rd/clib3r.lib(/mnt/sda5/.user/root/src/openwatcom-1.9/bld/clib/alias/a/_istti64.asm)
6fe011dc       _strtoi64_
Module: /mnt/sda5/.user/root/src/openwatcom-1.9/bld/clib/library/winnt.386/mf_rd/clib3r.lib(/mnt/sda5/.user/root/src/openwatcom-1.9/bld/clib/alias/a/_isttu64.asm)
6fe011e4       _strtoui64_
Module: /mnt/sda5/.user/root/src/openwatcom-1.9/bld/clib/library/winnt.386/mf_rd/clib3r.lib(/mnt/sda5/.user/root/src/openwatcom-1.9/bld/clib/alias/a/_itccmp_.asm)
6fe011ec       _tccmp_
Module: /mnt/sda5/.user/root/src/openwatcom-1.9/bld/clib/library/winnt.386/mf_rd/clib3r.lib(/mnt/sda5/.user/root/src/openwatcom-1.9/bld/clib/alias/a/_itccpy_.asm)
6fe011f4       _tccpy_
Module: /mnt/sda5/.user/root/src/openwatcom-1.9/bld/clib/library/winnt.386/mf_rd/clib3r.lib(/mnt/sda5/.user/root/src/openwatcom-1.9/bld/clib/alias/a/_itclen_.asm)
6fe011fc       _tclen_
Module: /mnt/sda5/.user/root/src/openwatcom-1.9/bld/clib/library/winnt.386/mf_rd/clib3r.lib(/mnt/sda5/.user/root/src/openwatcom-1.9/bld/clib/alias/a/_itcschr.asm)
6fe01204       _tcschr_
Module: /mnt/sda5/.user/root/src/openwatcom-1.9/bld/clib/library/winnt.386/mf_rd/clib3r.lib(/mnt/sda5/.user/root/src/openwatcom-1.9/bld/clib/alias/a/_imbscol.asm)
6fe0120c       _mbscoll_
Module: /mnt/sda5/.user/root/src/openwatcom-1.9/bld/clib/library/winnt.386/mf_rd/clib3r.lib(/mnt/sda5/.user/root/src/openwatcom-1.9/bld/clib/alias/a/_itcscmp.asm)
6fe01214       _tcscmp_
Module: /mnt/sda5/.user/root/src/openwatcom-1.9/bld/clib/library/winnt.386/mf_rd/clib3r.lib(/mnt/sda5/.user/root/src/openwatcom-1.9/bld/clib/alias/a/_itcscol.asm)
6fe0121c       _tcscoll_
Module: /mnt/sda5/.user/root/src/openwatcom-1.9/bld/clib/library/winnt.386/mf_rd/clib3r.lib(/mnt/sda5/.user/root/src/openwatcom-1.9/bld/clib/alias/a/_itcscsp.asm)
6fe01224       _tcscspn_
Module: /mnt/sda5/.user/root/src/openwatcom-1.9/bld/clib/library/winnt.386/mf_rd/clib3r.lib(/mnt/sda5/.user/root/src/openwatcom-1.9/bld/clib/alias/a/_itcsdec.asm)
6fe0122c       _tcsdec_
Module: /mnt/sda5/.user/root/src/openwatcom-1.9/bld/clib/library/winnt.386/mf_rd/clib3r.lib(/mnt/sda5/.user/root/src/openwatcom-1.9/bld/clib/alias/a/_imbsico.asm)
6fe01234       _mbsicoll_
Module: /mnt/sda5/.user/root/src/openwatcom-1.9/bld/clib/library/winnt.386/mf_rd/clib3r.lib(/mnt/sda5/.user/root/src/openwatcom-1.9/bld/clib/alias/a/_itcsicm.asm)
6fe0123c       _tcsicmp_
Module: /mnt/sda5/.user/root/src/openwatcom-1.9/bld/clib/library/winnt.386/mf_rd/clib3r.lib(/mnt/sda5/.user/root/src/openwatcom-1.9/bld/clib/alias/a/_itcsico.asm)
6fe01244       _tcsicoll_
Module: /mnt/sda5/.user/root/src/openwatcom-1.9/bld/clib/library/winnt.386/mf_rd/clib3r.lib(/mnt/sda5/.user/root/src/openwatcom-1.9/bld/clib/alias/a/_itcsinc.asm)
6fe0124c       _tcsinc_
Module: /mnt/sda5/.user/root/src/openwatcom-1.9/bld/clib/library/winnt.386/mf_rd/clib3r.lib(/mnt/sda5/.user/root/src/openwatcom-1.9/bld/clib/alias/a/_itcscle.asm)
6fe01254       _tcsclen_
Module: /mnt/sda5/.user/root/src/openwatcom-1.9/bld/clib/library/winnt.386/mf_rd/clib3r.lib(/mnt/sda5/.user/root/src/openwatcom-1.9/bld/clib/alias/a/_itcslwr.asm)
6fe0125c       _tcslwr_
Module: /mnt/sda5/.user/root/src/openwatcom-1.9/bld/clib/library/winnt.386/mf_rd/clib3r.lib(/mnt/sda5/.user/root/src/openwatcom-1.9/bld/clib/alias/a/_itcsnbc.asm)
6fe01264       _tcsnbcnt_
Module: /mnt/sda5/.user/root/src/openwatcom-1.9/bld/clib/library/winnt.386/mf_rd/clib3r.lib(/mnt/sda5/.user/root/src/openwatcom-1.9/bld/clib/alias/a/_itcsnca.asm)
6fe0126c       _tcsncat_
Module: /mnt/sda5/.user/root/src/openwatcom-1.9/bld/clib/library/winnt.386/mf_rd/clib3r.lib(/mnt/sda5/.user/root/src/openwatcom-1.9/bld/clib/alias/a/_imbsnbc.asm)
6fe01274       _mbsnbcoll_
Module: /mnt/sda5/.user/root/src/openwatcom-1.9/bld/clib/library/winnt.386/mf_rd/clib3r.lib(/mnt/sda5/.user/root/src/openwatcom-1.9/bld/clib/alias/a/_itcsncm.asm)
6fe0127c       _tcsncmp_
Module: /mnt/sda5/.user/root/src/openwatcom-1.9/bld/clib/library/winnt.386/mf_rd/clib3r.lib(/mnt/sda5/.user/root/src/openwatcom-1.9/bld/clib/alias/a/_itcsnco.asm)
6fe01284       _tcsncoll_
Module: /mnt/sda5/.user/root/src/openwatcom-1.9/bld/clib/library/winnt.386/mf_rd/clib3r.lib(/mnt/sda5/.user/root/src/openwatcom-1.9/bld/clib/alias/a/_itcsncp.asm)
6fe0128c       _tcsncpy_
Module: /mnt/sda5/.user/root/src/openwatcom-1.9/bld/clib/library/winnt.386/mf_rd/clib3r.lib(/mnt/sda5/.user/root/src/openwatcom-1.9/bld/clib/alias/a/_itcsncc.asm)
6fe01294       _tcsnccat_
Module: /mnt/sda5/.user/root/src/openwatcom-1.9/bld/clib/library/winnt.386/mf_rd/clib3r.lib(/mnt/sda5/.user/root/src/openwatcom-1.9/bld/clib/alias/a/_itcnccm.asm)
6fe0129c       _tcsnccmp_
Module: /mnt/sda5/.user/root/src/openwatcom-1.9/bld/clib/library/winnt.386/mf_rd/clib3r.lib(/mnt/sda5/.user/root/src/openwatcom-1.9/bld/clib/alias/a/_itcnccn.asm)
6fe012a4       _tcsnccnt_
Module: /mnt/sda5/.user/root/src/openwatcom-1.9/bld/clib/library/winnt.386/mf_rd/clib3r.lib(/mnt/sda5/.user/root/src/openwatcom-1.9/bld/clib/alias/a/_imbsnco.asm)
6fe012ac       _mbsncoll_
Module: /mnt/sda5/.user/root/src/openwatcom-1.9/bld/clib/library/winnt.386/mf_rd/clib3r.lib(/mnt/sda5/.user/root/src/openwatcom-1.9/bld/clib/alias/a/_itcncco.asm)
6fe012b4       _tcsnccoll_
Module: /mnt/sda5/.user/root/src/openwatcom-1.9/bld/clib/library/winnt.386/mf_rd/clib3r.lib(/mnt/sda5/.user/root/src/openwatcom-1.9/bld/clib/alias/a/_itcnccp.asm)
6fe012bc       _tcsnccpy_
Module: /mnt/sda5/.user/root/src/openwatcom-1.9/bld/clib/library/winnt.386/mf_rd/clib3r.lib(/mnt/sda5/.user/root/src/openwatcom-1.9/bld/clib/alias/a/_imbsnic.asm)
6fe012c4       _mbsnicoll_
Module: /mnt/sda5/.user/root/src/openwatcom-1.9/bld/clib/library/winnt.386/mf_rd/clib3r.lib(/mnt/sda5/.user/root/src/openwatcom-1.9/bld/clib/alias/a/_itcsnci.asm)
6fe012cc       _tcsncicmp_
Module: /mnt/sda5/.user/root/src/openwatcom-1.9/bld/clib/library/winnt.386/mf_rd/clib3r.lib(/mnt/sda5/.user/root/src/openwatcom-1.9/bld/clib/alias/a/_itcncic.asm)
6fe012d4       _tcsncicoll_
Module: /mnt/sda5/.user/root/src/openwatcom-1.9/bld/clib/library/winnt.386/mf_rd/clib3r.lib(/mnt/sda5/.user/root/src/openwatcom-1.9/bld/clib/alias/a/_itcsncs.asm)
6fe012dc       _tcsncset_
Module: /mnt/sda5/.user/root/src/openwatcom-1.9/bld/clib/library/winnt.386/mf_rd/clib3r.lib(/mnt/sda5/.user/root/src/openwatcom-1.9/bld/clib/alias/a/_itcsnex.asm)
6fe012e4       _tcsnextc_
Module: /mnt/sda5/.user/root/src/openwatcom-1.9/bld/clib/library/winnt.386/mf_rd/clib3r.lib(/mnt/sda5/.user/root/src/openwatcom-1.9/bld/clib/alias/a/_imbsnbi.asm)
6fe012ec       _mbsnbicoll_
Module: /mnt/sda5/.user/root/src/openwatcom-1.9/bld/clib/library/winnt.386/mf_rd/clib3r.lib(/mnt/sda5/.user/root/src/openwatcom-1.9/bld/clib/alias/a/_itcsnic.asm)
6fe012f4       _tcsnicmp_
Module: /mnt/sda5/.user/root/src/openwatcom-1.9/bld/clib/library/winnt.386/mf_rd/clib3r.lib(/mnt/sda5/.user/root/src/openwatcom-1.9/bld/clib/alias/a/_itcnico.asm)
6fe012fc       _tcsnicoll_
Module: /mnt/sda5/.user/root/src/openwatcom-1.9/bld/clib/library/winnt.386/mf_rd/clib3r.lib(/mnt/sda5/.user/root/src/openwatcom-1.9/bld/clib/alias/a/_itcsnin.asm)
6fe01304       _tcsninc_
Module: /mnt/sda5/.user/root/src/openwatcom-1.9/bld/clib/library/winnt.386/mf_rd/clib3r.lib(/mnt/sda5/.user/root/src/openwatcom-1.9/bld/clib/alias/a/_itcsnse.asm)
6fe0130c       _tcsnset_
Module: /mnt/sda5/.user/root/src/openwatcom-1.9/bld/clib/library/winnt.386/mf_rd/clib3r.lib(/mnt/sda5/.user/root/src/openwatcom-1.9/bld/clib/alias/a/_itcspbr.asm)
6fe01314       _tcspbrk_
Module: /mnt/sda5/.user/root/src/openwatcom-1.9/bld/clib/library/winnt.386/mf_rd/clib3r.lib(/mnt/sda5/.user/root/src/openwatcom-1.9/bld/clib/alias/a/_itcsrch.asm)
6fe0131c       _tcsrchr_
Module: /mnt/sda5/.user/root/src/openwatcom-1.9/bld/clib/library/winnt.386/mf_rd/clib3r.lib(/mnt/sda5/.user/root/src/openwatcom-1.9/bld/clib/alias/a/_itcsrev.asm)
6fe01324       _tcsrev_
Module: /mnt/sda5/.user/root/src/openwatcom-1.9/bld/clib/library/winnt.386/mf_rd/clib3r.lib(/mnt/sda5/.user/root/src/openwatcom-1.9/bld/clib/alias/a/_itcsset.asm)
6fe0132c       _tcsset_
Module: /mnt/sda5/.user/root/src/openwatcom-1.9/bld/clib/library/winnt.386/mf_rd/clib3r.lib(/mnt/sda5/.user/root/src/openwatcom-1.9/bld/clib/alias/a/_itcsspn.asm)
6fe01334       _tcsspn_
Module: /mnt/sda5/.user/root/src/openwatcom-1.9/bld/clib/library/winnt.386/mf_rd/clib3r.lib(/mnt/sda5/.user/root/src/openwatcom-1.9/bld/clib/alias/a/_itcspnp.asm)
6fe0133c       _tcsspnp_
Module: /mnt/sda5/.user/root/src/openwatcom-1.9/bld/clib/library/winnt.386/mf_rd/clib3r.lib(/mnt/sda5/.user/root/src/openwatcom-1.9/bld/clib/alias/a/_itcsstr.asm)
6fe01344       _tcsstr_
Module: /mnt/sda5/.user/root/src/openwatcom-1.9/bld/clib/library/winnt.386/mf_rd/clib3r.lib(/mnt/sda5/.user/root/src/openwatcom-1.9/bld/clib/alias/a/_itcstok.asm)
6fe0134c       _tcstok_
Module: /mnt/sda5/.user/root/src/openwatcom-1.9/bld/clib/library/winnt.386/mf_rd/clib3r.lib(/mnt/sda5/.user/root/src/openwatcom-1.9/bld/clib/alias/a/_itcsupr.asm)
6fe01354       _tcsupr_
Module: /mnt/sda5/.user/root/src/openwatcom-1.9/bld/clib/library/winnt.386/mf_rd/clib3r.lib(/mnt/sda5/.user/root/src/openwatcom-1.9/bld/clib/alias/a/_imemicm.asm)
6fe0135c       _memicmp_
Module: /mnt/sda5/.user/root/src/openwatcom-1.9/bld/clib/library/winnt.386/mf_rd/clib3r.lib(/mnt/sda5/.user/root/src/openwatcom-1.9/bld/clib/alias/a/_imkdir_.asm)
6fe01364       _mkdir_
Module: /mnt/sda5/.user/root/src/openwatcom-1.9/bld/clib/library/winnt.386/mf_rd/clib3r.lib(/mnt/sda5/.user/root/src/openwatcom-1.9/bld/clib/alias/a/_iopen__.asm)
6fe0136c       _open_
Module: /mnt/sda5/.user/root/src/openwatcom-1.9/bld/clib/library/winnt.386/mf_rd/clib3r.lib(/mnt/sda5/.user/root/src/openwatcom-1.9/bld/clib/alias/a/_iputenv.asm)
6fe01374       _putenv_
Module: /mnt/sda5/.user/root/src/openwatcom-1.9/bld/clib/library/winnt.386/mf_rd/clib3r.lib(/mnt/sda5/.user/root/src/openwatcom-1.9/bld/clib/alias/a/_iputws_.asm)
6fe0137c       _putws_
Module: /mnt/sda5/.user/root/src/openwatcom-1.9/bld/clib/library/winnt.386/mf_rd/clib3r.lib(/mnt/sda5/.user/root/src/openwatcom-1.9/bld/clib/alias/a/_iread__.asm)
6fe01384       _read_
Module: /mnt/sda5/.user/root/src/openwatcom-1.9/bld/clib/library/winnt.386/mf_rd/clib3r.lib(/mnt/sda5/.user/root/src/openwatcom-1.9/bld/clib/alias/a/_irmdir_.asm)
6fe0138c       _rmdir_
Module: /mnt/sda5/.user/root/src/openwatcom-1.9/bld/clib/library/winnt.386/mf_rd/clib3r.lib(/mnt/sda5/.user/root/src/openwatcom-1.9/bld/clib/alias/a/_isetmod.asm)
6fe01394       _setmode_
Module: /mnt/sda5/.user/root/src/openwatcom-1.9/bld/clib/library/winnt.386/mf_rd/clib3r.lib(/mnt/sda5/.user/root/src/openwatcom-1.9/bld/clib/alias/a/_isopen_.asm)
6fe0139c       _sopen_
Module: /mnt/sda5/.user/root/src/openwatcom-1.9/bld/clib/library/winnt.386/mf_rd/clib3r.lib(/mnt/sda5/.user/root/src/openwatcom-1.9/bld/clib/alias/a/_istkavl.asm)
6fe013a4       _stackavail_
Module: /mnt/sda5/.user/root/src/openwatcom-1.9/bld/clib/library/winnt.386/mf_rd/clib3r.lib(/mnt/sda5/.user/root/src/openwatcom-1.9/bld/clib/alias/a/_istat__.asm)
6fe013ac       _stat_
Module: /mnt/sda5/.user/root/src/openwatcom-1.9/bld/clib/library/winnt.386/mf_rd/clib3r.lib(/mnt/sda5/.user/root/src/openwatcom-1.9/bld/clib/alias/a/_ilstat_.asm)
6fe013b4       lstat_
Module: /mnt/sda5/.user/root/src/openwatcom-1.9/bld/clib/library/winnt.386/mf_rd/clib3r.lib(/mnt/sda5/.user/root/src/openwatcom-1.9/bld/clib/alias/a/_istrdup.asm)
6fe013bc       _strdup_
Module: /mnt/sda5/.user/root/src/openwatcom-1.9/bld/clib/library/winnt.386/mf_rd/clib3r.lib(/mnt/sda5/.user/root/src/openwatcom-1.9/bld/clib/alias/a/_icstrdu.asm)
6fe013c4       strdup_
Module: /mnt/sda5/.user/root/src/openwatcom-1.9/bld/clib/library/winnt.386/mf_rd/clib3r.lib(/mnt/sda5/.user/root/src/openwatcom-1.9/bld/clib/alias/a/_icwcsdu.asm)
6fe013cc       _wcsdup_
Module: /mnt/sda5/.user/root/src/openwatcom-1.9/bld/clib/library/winnt.386/mf_rd/clib3r.lib(/mnt/sda5/.user/root/src/openwatcom-1.9/bld/clib/alias/a/_istrcmp.asm)
6fe013d4       strcmpi_
Module: /mnt/sda5/.user/root/src/openwatcom-1.9/bld/clib/library/winnt.386/mf_rd/clib3r.lib(/mnt/sda5/.user/root/src/openwatcom-1.9/bld/clib/alias/a/_istricm.asm)
6fe013dc       _stricmp_
Module: /mnt/sda5/.user/root/src/openwatcom-1.9/bld/clib/library/winnt.386/mf_rd/clib3r.lib(/mnt/sda5/.user/root/src/openwatcom-1.9/bld/clib/alias/a/_istrico.asm)
6fe013e4       _stricoll_
Module: /mnt/sda5/.user/root/src/openwatcom-1.9/bld/clib/library/winnt.386/mf_rd/clib3r.lib(/mnt/sda5/.user/root/src/openwatcom-1.9/bld/clib/alias/a/_istrlwr.asm)
6fe013ec       _strlwr_
Module: /mnt/sda5/.user/root/src/openwatcom-1.9/bld/clib/library/winnt.386/mf_rd/clib3r.lib(/mnt/sda5/.user/root/src/openwatcom-1.9/bld/clib/alias/a/_istrnco.asm)
6fe013f4       _strncoll_
Module: /mnt/sda5/.user/root/src/openwatcom-1.9/bld/clib/library/winnt.386/mf_rd/clib3r.lib(/mnt/sda5/.user/root/src/openwatcom-1.9/bld/clib/alias/a/_istrnic.asm)
6fe013fc       _strnicmp_
Module: /mnt/sda5/.user/root/src/openwatcom-1.9/bld/clib/library/winnt.386/mf_rd/clib3r.lib(/mnt/sda5/.user/root/src/openwatcom-1.9/bld/clib/alias/a/_istnico.asm)
6fe01404       _strnicoll_
Module: /mnt/sda5/.user/root/src/openwatcom-1.9/bld/clib/library/winnt.386/mf_rd/clib3r.lib(/mnt/sda5/.user/root/src/openwatcom-1.9/bld/clib/alias/a/_istrnse.asm)
6fe0140c       _strnset_
Module: /mnt/sda5/.user/root/src/openwatcom-1.9/bld/clib/library/winnt.386/mf_rd/clib3r.lib(/mnt/sda5/.user/root/src/openwatcom-1.9/bld/clib/alias/a/_istrrev.asm)
6fe01414       _strrev_
Module: /mnt/sda5/.user/root/src/openwatcom-1.9/bld/clib/library/winnt.386/mf_rd/clib3r.lib(/mnt/sda5/.user/root/src/openwatcom-1.9/bld/clib/alias/a/_istrset.asm)
6fe0141c       _strset_
Module: /mnt/sda5/.user/root/src/openwatcom-1.9/bld/clib/library/winnt.386/mf_rd/clib3r.lib(/mnt/sda5/.user/root/src/openwatcom-1.9/bld/clib/alias/a/_istrspn.asm)
6fe01424       _strspnp_
Module: /mnt/sda5/.user/root/src/openwatcom-1.9/bld/clib/library/winnt.386/mf_rd/clib3r.lib(/mnt/sda5/.user/root/src/openwatcom-1.9/bld/clib/alias/a/_istrupr.asm)
6fe0142c       _strupr_
Module: /mnt/sda5/.user/root/src/openwatcom-1.9/bld/clib/library/winnt.386/mf_rd/clib3r.lib(/mnt/sda5/.user/root/src/openwatcom-1.9/bld/clib/alias/a/_istrcc_.asm)
6fe01434       strcasecmp_
Module: /mnt/sda5/.user/root/src/openwatcom-1.9/bld/clib/library/winnt.386/mf_rd/clib3r.lib(/mnt/sda5/.user/root/src/openwatcom-1.9/bld/clib/alias/a/_istrncc.asm)
6fe0143c       strncasecmp_
Module: /mnt/sda5/.user/root/src/openwatcom-1.9/bld/clib/library/winnt.386/mf_rd/clib3r.lib(/mnt/sda5/.user/root/src/openwatcom-1.9/bld/clib/alias/a/_itell__.asm)
6fe01444       _tell_
Module: /mnt/sda5/.user/root/src/openwatcom-1.9/bld/clib/library/winnt.386/mf_rd/clib3r.lib(/mnt/sda5/.user/root/src/openwatcom-1.9/bld/clib/alias/a/_itolowe.asm)
6fe0144c       _tolower_
Module: /mnt/sda5/.user/root/src/openwatcom-1.9/bld/clib/library/winnt.386/mf_rd/clib3r.lib(/mnt/sda5/.user/root/src/openwatcom-1.9/bld/clib/alias/a/_itouppe.asm)
6fe01454       _toupper_
Module: /mnt/sda5/.user/root/src/openwatcom-1.9/bld/clib/library/winnt.386/mf_rd/clib3r.lib(/mnt/sda5/.user/root/src/openwatcom-1.9/bld/clib/alias/a/_itzset_.asm)
6fe0145c       _tzset_
Module: /mnt/sda5/.user/root/src/openwatcom-1.9/bld/clib/library/winnt.386/mf_rd/clib3r.lib(/mnt/sda5/.user/root/src/openwatcom-1.9/bld/clib/alias/a/_iufst64.asm)
6fe01464       _wfstati64_
Module: /mnt/sda5/.user/root/src/openwatcom-1.9/bld/clib/library/winnt.386/mf_rd/clib3r.lib(/mnt/sda5/.user/root/src/openwatcom-1.9/bld/clib/alias/a/_iufstat.asm)
6fe0146c       _wfstat_
Module: /mnt/sda5/.user/root/src/openwatcom-1.9/bld/clib/library/winnt.386/mf_rd/clib3r.lib(/mnt/sda5/.user/root/src/openwatcom-1.9/bld/clib/alias/a/_iumask_.asm)
6fe01474       _umask_
Module: /mnt/sda5/.user/root/src/openwatcom-1.9/bld/clib/library/winnt.386/mf_rd/clib3r.lib(/mnt/sda5/.user/root/src/openwatcom-1.9/bld/clib/alias/a/_iunlink.asm)
6fe0147c       _unlink_
Module: /mnt/sda5/.user/root/src/openwatcom-1.9/bld/clib/library/winnt.386/mf_rd/clib3r.lib(/mnt/sda5/.user/root/src/openwatcom-1.9/bld/clib/alias/a/_iutime_.asm)
6fe01484       _utime_
Module: /mnt/sda5/.user/root/src/openwatcom-1.9/bld/clib/library/winnt.386/mf_rd/clib3r.lib(/mnt/sda5/.user/root/src/openwatcom-1.9/bld/clib/alias/a/_iwrite_.asm)
6fe0148c       _write_
Module: /mnt/sda5/.user/root/src/openwatcom-1.9/bld/clib/library/winnt.386/mf_rd/clib3r.lib(/mnt/sda5/.user/root/src/openwatcom-1.9/bld/clib/alias/a/_iw_acce.asm)
6fe01494       _w_access_
Module: /mnt/sda5/.user/root/src/openwatcom-1.9/bld/clib/library/winnt.386/mf_rd/clib3r.lib(/mnt/sda5/.user/root/src/openwatcom-1.9/bld/clib/alias/a/_iwcscmp.asm)
6fe0149c       wcscmpi_
Module: /mnt/sda5/.user/root/src/openwatcom-1.9/bld/clib/library/winnt.386/mf_rd/clib3r.lib(/mnt/sda5/.user/root/src/openwatcom-1.9/bld/clib/alias/a/_iwcsico.asm)
6fe014a4       _wcsicoll_
Module: /mnt/sda5/.user/root/src/openwatcom-1.9/bld/clib/library/winnt.386/mf_rd/clib3r.lib(/mnt/sda5/.user/root/src/openwatcom-1.9/bld/clib/alias/a/_iwcsnco.asm)
6fe014ac       _wcsncoll_
Module: /mnt/sda5/.user/root/src/openwatcom-1.9/bld/clib/library/winnt.386/mf_rd/clib3r.lib(/mnt/sda5/.user/root/src/openwatcom-1.9/bld/clib/alias/a/_iwcnico.asm)
6fe014b4       _wcsnicoll_
Module: /mnt/sda5/.user/root/src/openwatcom-1.9/bld/clib/library/winnt.386/mf_rd/clib3r.lib(/mnt/sda5/.user/root/src/openwatcom-1.9/bld/clib/alias/a/_iw_fsop.asm)
6fe014bc       _w_fsopen_
Module: /mnt/sda5/.user/root/src/openwatcom-1.9/bld/clib/library/winnt.386/mf_rd/clib3r.lib(/mnt/sda5/.user/root/src/openwatcom-1.9/bld/clib/alias/a/_iw_full.asm)
6fe014c4       _w_fullpath_
Module: /mnt/sda5/.user/root/src/openwatcom-1.9/bld/clib/library/winnt.386/mf_rd/clib3r.lib(/mnt/sda5/.user/root/src/openwatcom-1.9/bld/clib/alias/a/_iitow__.asm)
6fe014cc       _witoa_
Module: /mnt/sda5/.user/root/src/openwatcom-1.9/bld/clib/library/winnt.386/mf_rd/clib3r.lib(/mnt/sda5/.user/root/src/openwatcom-1.9/bld/clib/alias/a/_iltow__.asm)
6fe014d4       _wltoa_
Module: /mnt/sda5/.user/root/src/openwatcom-1.9/bld/clib/library/winnt.386/mf_rd/clib3r.lib(/mnt/sda5/.user/root/src/openwatcom-1.9/bld/clib/alias/a/_iw_make.asm)
6fe014dc       _w_makepath_
Module: /mnt/sda5/.user/root/src/openwatcom-1.9/bld/clib/library/winnt.386/mf_rd/clib3r.lib(/mnt/sda5/.user/root/src/openwatcom-1.9/bld/clib/alias/a/_iw_spli.asm)
6fe014e4       _w_splitpath_
Module: /mnt/sda5/.user/root/src/openwatcom-1.9/bld/clib/library/winnt.386/mf_rd/clib3r.lib(/mnt/sda5/.user/root/src/openwatcom-1.9/bld/clib/alias/a/_iw_spl2.asm)
6fe014ec       _w_splitpath2_
Module: /mnt/sda5/.user/root/src/openwatcom-1.9/bld/clib/library/winnt.386/mf_rd/clib3r.lib(/mnt/sda5/.user/root/src/openwatcom-1.9/bld/clib/alias/a/_iwtoi__.asm)
6fe014f4       _watoi_
Module: /mnt/sda5/.user/root/src/openwatcom-1.9/bld/clib/library/winnt.386/mf_rd/clib3r.lib(/mnt/sda5/.user/root/src/openwatcom-1.9/bld/clib/alias/a/_iwtol__.asm)
6fe014fc       _watol_
Module: /mnt/sda5/.user/root/src/openwatcom-1.9/bld/clib/library/winnt.386/mf_rd/clib3r.lib(/mnt/sda5/.user/root/src/openwatcom-1.9/bld/clib/alias/a/_iultow_.asm)
6fe01504       _wultoa_
Module: /mnt/sda5/.user/root/src/openwatcom-1.9/bld/clib/library/winnt.386/mf_rd/clib3r.lib(/mnt/sda5/.user/root/src/openwatcom-1.9/bld/clib/alias/a/_iutow__.asm)
6fe0150c       _wutoa_
Module: /mnt/sda5/.user/root/src/openwatcom-1.9/bld/clib/library/winnt.386/mf_rd/clib3r.lib(/mnt/sda5/.user/root/src/openwatcom-1.9/bld/clib/char/c/isalnum.c)
6fe01520       isalnum_
Module: /mnt/sda5/.user/root/src/openwatcom-1.9/bld/clib/library/winnt.386/mf_rd/clib3r.lib(/mnt/sda5/.user/root/src/openwatcom-1.9/bld/clib/char/c/isalpha.c)
6fe01560       isalpha_
Module: /mnt/sda5/.user/root/src/openwatcom-1.9/bld/clib/library/winnt.386/mf_rd/clib3r.lib(/mnt/sda5/.user/root/src/openwatcom-1.9/bld/clib/char/c/isascii.c)
6fe015a0       isascii_
Module: /mnt/sda5/.user/root/src/openwatcom-1.9/bld/clib/library/winnt.386/mf_rd/clib3r.lib(/mnt/sda5/.user/root/src/openwatcom-1.9/bld/clib/char/c/isblank.c)
6fe015e0       isblank_
Module: /mnt/sda5/.user/root/src/openwatcom-1.9/bld/clib/library/winnt.386/mf_rd/clib3r.lib(/mnt/sda5/.user/root/src/openwatcom-1.9/bld/clib/char/c/iscntrl.c)
6fe01630       iscntrl_
Module: /mnt/sda5/.user/root/src/openwatcom-1.9/bld/clib/library/winnt.386/mf_rd/clib3r.lib(/mnt/sda5/.user/root/src/openwatcom-1.9/bld/clib/char/c/iscsym.c)
6fe01670       __iscsym_
Module: /mnt/sda5/.user/root/src/openwatcom-1.9/bld/clib/library/winnt.386/mf_rd/clib3r.lib(/mnt/sda5/.user/root/src/openwatcom-1.9/bld/clib/char/c/iscsymf.c)
6fe016d0       __iscsymf_
Module: /mnt/sda5/.user/root/src/openwatcom-1.9/bld/clib/library/winnt.386/mf_rd/clib3r.lib(/mnt/sda5/.user/root/src/openwatcom-1.9/bld/clib/char/c/isdigit.c)
6fe01730       isdigit_
Module: /mnt/sda5/.user/root/src/openwatcom-1.9/bld/clib/library/winnt.386/mf_rd/clib3r.lib(/mnt/sda5/.user/root/src/openwatcom-1.9/bld/clib/char/c/isgraph.c)
6fe01770       isgraph_
Module: /mnt/sda5/.user/root/src/openwatcom-1.9/bld/clib/library/winnt.386/mf_rd/clib3r.lib(/mnt/sda5/.user/root/src/openwatcom-1.9/bld/clib/char/c/islower.c)
6fe017d0       islower_
Module: /mnt/sda5/.user/root/src/openwatcom-1.9/bld/clib/library/winnt.386/mf_rd/clib3r.lib(/mnt/sda5/.user/root/src/openwatcom-1.9/bld/clib/char/c/isprint.c)
6fe01810       isprint_
Module: /mnt/sda5/.user/root/src/openwatcom-1.9/bld/clib/library/winnt.386/mf_rd/clib3r.lib(/mnt/sda5/.user/root/src/openwatcom-1.9/bld/clib/char/c/ispunct.c)
6fe01850       ispunct_
Module: /mnt/sda5/.user/root/src/openwatcom-1.9/bld/clib/library/winnt.386/mf_rd/clib3r.lib(/mnt/sda5/.user/root/src/openwatcom-1.9/bld/clib/char/c/isspace.c)
6fe01890       isspace_
Module: /mnt/sda5/.user/root/src/openwatcom-1.9/bld/clib/library/winnt.386/mf_rd/clib3r.lib(/mnt/sda5/.user/root/src/openwatcom-1.9/bld/clib/char/c/istable.c)
6fe018d0       __IsTable
Module: /mnt/sda5/.user/root/src/openwatcom-1.9/bld/clib/library/winnt.386/mf_rd/clib3r.lib(/mnt/sda5/.user/root/src/openwatcom-1.9/bld/clib/char/c/isupper.c)
6fe019e0       isupper_
Module: /mnt/sda5/.user/root/src/openwatcom-1.9/bld/clib/library/winnt.386/mf_rd/clib3r.lib(/mnt/sda5/.user/root/src/openwatcom-1.9/bld/clib/char/c/iswctype.c)
6fe01a50       iswctype_
Module: /mnt/sda5/.user/root/src/openwatcom-1.9/bld/clib/library/winnt.386/mf_rd/clib3r.lib(/mnt/sda5/.user/root/src/openwatcom-1.9/bld/clib/char/c/isxdigit.c)
6fe01b70       isxdigit_
Module: /mnt/sda5/.user/root/src/openwatcom-1.9/bld/clib/library/winnt.386/mf_rd/clib3r.lib(/mnt/sda5/.user/root/src/openwatcom-1.9/bld/clib/char/c/tolower.c)
6fe01bb0       tolower_
Module: /mnt/sda5/.user/root/src/openwatcom-1.9/bld/clib/library/winnt.386/mf_rd/clib3r.lib(/mnt/sda5/.user/root/src/openwatcom-1.9/bld/clib/char/c/toupper.c)
6fe01bf0       toupper_
Module: /mnt/sda5/.user/root/src/openwatcom-1.9/bld/clib/library/winnt.386/mf_rd/clib3r.lib(/mnt/sda5/.user/root/src/openwatcom-1.9/bld/clib/char/c/towctrns.c)
6fe01c30       towctrans_
Module: /mnt/sda5/.user/root/src/openwatcom-1.9/bld/clib/library/winnt.386/mf_rd/clib3r.lib(/mnt/sda5/.user/root/src/openwatcom-1.9/bld/clib/char/c/wctrans.c)
6fe01ca0       wctrans_
Module: /mnt/sda5/.user/root/src/openwatcom-1.9/bld/clib/library/winnt.386/mf_rd/clib3r.lib(/mnt/sda5/.user/root/src/openwatcom-1.9/bld/clib/char/c/uisalnum.c)
6fe01cf8       iswalnum_
Module: /mnt/sda5/.user/root/src/openwatcom-1.9/bld/clib/library/winnt.386/mf_rd/clib3r.lib(/mnt/sda5/.user/root/src/openwatcom-1.9/bld/clib/char/c/uisalpha.c)
6fe01d36       iswalpha_
Module: /mnt/sda5/.user/root/src/openwatcom-1.9/bld/clib/library/winnt.386/mf_rd/clib3r.lib(/mnt/sda5/.user/root/src/openwatcom-1.9/bld/clib/char/c/uisascii.c)
6fe01d74       iswascii_
Module: /mnt/sda5/.user/root/src/openwatcom-1.9/bld/clib/library/winnt.386/mf_rd/clib3r.lib(/mnt/sda5/.user/root/src/openwatcom-1.9/bld/clib/char/c/uisblank.c)
6fe01db0       iswblank_
Module: /mnt/sda5/.user/root/src/openwatcom-1.9/bld/clib/library/winnt.386/mf_rd/clib3r.lib(/mnt/sda5/.user/root/src/openwatcom-1.9/bld/clib/char/c/uiscntrl.c)
6fe01e02       iswcntrl_
Module: /mnt/sda5/.user/root/src/openwatcom-1.9/bld/clib/library/winnt.386/mf_rd/clib3r.lib(/mnt/sda5/.user/root/src/openwatcom-1.9/bld/clib/char/c/uiscsym.c)
6fe01e3e       __iswcsym_
Module: /mnt/sda5/.user/root/src/openwatcom-1.9/bld/clib/library/winnt.386/mf_rd/clib3r.lib(/mnt/sda5/.user/root/src/openwatcom-1.9/bld/clib/char/c/uiscsymf.c)
6fe01e95       __iswcsymf_
Module: /mnt/sda5/.user/root/src/openwatcom-1.9/bld/clib/library/winnt.386/mf_rd/clib3r.lib(/mnt/sda5/.user/root/src/openwatcom-1.9/bld/clib/char/c/uisdigit.c)
6fe01eec       iswdigit_
Module: /mnt/sda5/.user/root/src/openwatcom-1.9/bld/clib/library/winnt.386/mf_rd/clib3r.lib(/mnt/sda5/.user/root/src/openwatcom-1.9/bld/clib/char/c/uisgraph.c)
6fe01f28       iswgraph_
Module: /mnt/sda5/.user/root/src/openwatcom-1.9/bld/clib/library/winnt.386/mf_rd/clib3r.lib(/mnt/sda5/.user/root/src/openwatcom-1.9/bld/clib/char/c/uislower.c)
6fe01f7c       iswlower_
Module: /mnt/sda5/.user/root/src/openwatcom-1.9/bld/clib/library/winnt.386/mf_rd/clib3r.lib(/mnt/sda5/.user/root/src/openwatcom-1.9/bld/clib/char/c/uisprint.c)
6fe01fba       iswprint_
Module: /mnt/sda5/.user/root/src/openwatcom-1.9/bld/clib/library/winnt.386/mf_rd/clib3r.lib(/mnt/sda5/.user/root/src/openwatcom-1.9/bld/clib/char/c/uispunct.c)
6fe01ff6       iswpunct_
Module: /mnt/sda5/.user/root/src/openwatcom-1.9/bld/clib/library/winnt.386/mf_rd/clib3r.lib(/mnt/sda5/.user/root/src/openwatcom-1.9/bld/clib/char/c/uisspace.c)
6fe02032       iswspace_
Module: /mnt/sda5/.user/root/src/openwatcom-1.9/bld/clib/library/winnt.386/mf_rd/clib3r.lib(/mnt/sda5/.user/root/src/openwatcom-1.9/bld/clib/char/c/uisupper.c)
6fe0206e       iswupper_
Module: /mnt/sda5/.user/root/src/openwatcom-1.9/bld/clib/library/winnt.386/mf_rd/clib3r.lib(/mnt/sda5/.user/root/src/openwatcom-1.9/bld/clib/char/c/uisxdig.c)
6fe020aa       iswxdigit_
Module: /mnt/sda5/.user/root/src/openwatcom-1.9/bld/clib/library/winnt.386/mf_rd/clib3r.lib(/mnt/sda5/.user/root/src/openwatcom-1.9/bld/clib/char/c/utolower.c)
6fe020e6       towlower_
Module: /mnt/sda5/.user/root/src/openwatcom-1.9/bld/clib/library/winnt.386/mf_rd/clib3r.lib(/mnt/sda5/.user/root/src/openwatcom-1.9/bld/clib/char/c/utoupper.c)
6fe02116       towupper_
Module: /mnt/sda5/.user/root/src/openwatcom-1.9/bld/clib/library/winnt.386/mf_rd/clib3r.lib(/mnt/sda5/.user/root/src/openwatcom-1.9/bld/clib/char/c/wctype.c)
6fe021a0       wctype_
Module: /mnt/sda5/.user/root/src/openwatcom-1.9/bld/clib/library/winnt.386/mf_rd/clib3r.lib(/mnt/sda5/.user/root/src/openwatcom-1.9/bld/clib/conio/c/cgetswnt.c)
6fe02320       cgets_
Module: /mnt/sda5/.user/root/src/openwatcom-1.9/bld/clib/library/winnt.386/mf_rd/clib3r.lib(/mnt/sda5/.user/root/src/openwatcom-1.9/bld/clib/conio/c/cprintf.c)
6fe02450       vcprintf_
6fe02490       cprintf_
Module: /mnt/sda5/.user/root/src/openwatcom-1.9/bld/clib/library/winnt.386/mf_rd/clib3r.lib(/mnt/sda5/.user/root/src/openwatcom-1.9/bld/clib/conio/c/cputs.c)
6fe024d0       cputs_
Module: /mnt/sda5/.user/root/src/openwatcom-1.9/bld/clib/library/winnt.386/mf_rd/clib3r.lib(/mnt/sda5/.user/root/src/openwatcom-1.9/bld/clib/conio/c/cscanf.c)
6fe02590       vcscanf_
6fe025d0       cscanf_
Module: /mnt/sda5/.user/root/src/openwatcom-1.9/bld/clib/library/winnt.386/mf_rd/clib3r.lib(/mnt/sda5/.user/root/src/openwatcom-1.9/bld/clib/conio/c/getchwnt.c)
6fe02740       getch_
Module: /mnt/sda5/.user/root/src/openwatcom-1.9/bld/clib/library/winnt.386/mf_rd/clib3r.lib(/mnt/sda5/.user/root/src/openwatcom-1.9/bld/clib/conio/c/gtchewnt.c)
6fe027d0       getche_
Module: /mnt/sda5/.user/root/src/openwatcom-1.9/bld/clib/library/winnt.386/mf_rd/clib3r.lib(/mnt/sda5/.user/root/src/openwatcom-1.9/bld/clib/conio/c/kbhitwnt.c)
6fe02820       kbhit_
Module: /mnt/sda5/.user/root/src/openwatcom-1.9/bld/clib/library/winnt.386/mf_rd/clib3r.lib(/mnt/sda5/.user/root/src/openwatcom-1.9/bld/clib/conio/c/putchwnt.c)
6fe028b0       putch_
Module: /mnt/sda5/.user/root/src/openwatcom-1.9/bld/clib/library/winnt.386/mf_rd/clib3r.lib(/mnt/sda5/.user/root/src/openwatcom-1.9/bld/clib/conio/c/ungetch.c)
6fe02920       ungetch_
Module: /mnt/sda5/.user/root/src/openwatcom-1.9/bld/clib/library/winnt.386/mf_rd/clib3r.lib(/mnt/sda5/.user/root/src/openwatcom-1.9/bld/clib/convert/c/atoi.c)
6fe02960       atoi_
Module: /mnt/sda5/.user/root/src/openwatcom-1.9/bld/clib/library/winnt.386/mf_rd/clib3r.lib(/mnt/sda5/.user/root/src/openwatcom-1.9/bld/clib/convert/c/atol.c)
6fe029f0       atol_
Module: /mnt/sda5/.user/root/src/openwatcom-1.9/bld/clib/library/winnt.386/mf_rd/clib3r.lib(/mnt/sda5/.user/root/src/openwatcom-1.9/bld/clib/convert/c/atoll.c)
6fe02a80       atoll_
Module: /mnt/sda5/.user/root/src/openwatcom-1.9/bld/clib/library/winnt.386/mf_rd/clib3r.lib(/mnt/sda5/.user/root/src/openwatcom-1.9/bld/clib/convert/c/atouni.c)
6fe02b50       _atouni_
Module: /mnt/sda5/.user/root/src/openwatcom-1.9/bld/clib/library/winnt.386/mf_rd/clib3r.lib(/mnt/sda5/.user/root/src/openwatcom-1.9/bld/clib/convert/c/itoa.c)
6fe02bb0       utoa_
6fe02c30       itoa_
Module: /mnt/sda5/.user/root/src/openwatcom-1.9/bld/clib/library/winnt.386/mf_rd/clib3r.lib(/mnt/sda5/.user/root/src/openwatcom-1.9/bld/clib/convert/c/lltoa.c)
6fe02c90       ulltoa_
6fe02d30       lltoa_
Module: /mnt/sda5/.user/root/src/openwatcom-1.9/bld/clib/library/winnt.386/mf_rd/clib3r.lib(/mnt/sda5/.user/root/src/openwatcom-1.9/bld/clib/convert/c/ltoa.c)
6fe02da0       ultoa_
6fe02e20       ltoa_
Module: /mnt/sda5/.user/root/src/openwatcom-1.9/bld/clib/library/winnt.386/mf_rd/clib3r.lib(/mnt/sda5/.user/root/src/openwatcom-1.9/bld/clib/convert/c/strtol.c)
6fe03110       strtoul_
6fe03150       strtol_
Module: /mnt/sda5/.user/root/src/openwatcom-1.9/bld/clib/library/winnt.386/mf_rd/clib3r.lib(/mnt/sda5/.user/root/src/openwatcom-1.9/bld/clib/convert/c/strtoll.c)
6fe034b0       strtoull_
6fe034f0       strtoll_
6fe03530       strtoumax_
6fe03570       strtoimax_
Module: /mnt/sda5/.user/root/src/openwatcom-1.9/bld/clib/library/winnt.386/mf_rd/clib3r.lib(/mnt/sda5/.user/root/src/openwatcom-1.9/bld/clib/convert/c/uatoi.c)
6fe035b0       _wtoi_
Module: /mnt/sda5/.user/root/src/openwatcom-1.9/bld/clib/library/winnt.386/mf_rd/clib3r.lib(/mnt/sda5/.user/root/src/openwatcom-1.9/bld/clib/convert/c/uatol.c)
6fe03650       _wtol_
Module: /mnt/sda5/.user/root/src/openwatcom-1.9/bld/clib/library/winnt.386/mf_rd/clib3r.lib(/mnt/sda5/.user/root/src/openwatcom-1.9/bld/clib/convert/c/uatoll.c)
6fe036f0       _wtoll_
Module: /mnt/sda5/.user/root/src/openwatcom-1.9/bld/clib/library/winnt.386/mf_rd/clib3r.lib(/mnt/sda5/.user/root/src/openwatcom-1.9/bld/clib/convert/c/uitoa.c)
6fe037c0       _utow_
6fe03850       _itow_
Module: /mnt/sda5/.user/root/src/openwatcom-1.9/bld/clib/library/winnt.386/mf_rd/clib3r.lib(/mnt/sda5/.user/root/src/openwatcom-1.9/bld/clib/convert/c/ulltoa.c)
6fe038b0       _ulltow_
6fe03960       _lltow_
Module: /mnt/sda5/.user/root/src/openwatcom-1.9/bld/clib/library/winnt.386/mf_rd/clib3r.lib(/mnt/sda5/.user/root/src/openwatcom-1.9/bld/clib/convert/c/ultoa.c)
6fe039d0       _ultow_
6fe03a50       _ltow_
Module: /mnt/sda5/.user/root/src/openwatcom-1.9/bld/clib/library/winnt.386/mf_rd/clib3r.lib(/mnt/sda5/.user/root/src/openwatcom-1.9/bld/clib/convert/c/ustrtol.c)
6fe03d60       wcstoul_
6fe03da0       wcstol_
Module: /mnt/sda5/.user/root/src/openwatcom-1.9/bld/clib/library/winnt.386/mf_rd/clib3r.lib(/mnt/sda5/.user/root/src/openwatcom-1.9/bld/clib/convert/c/ustrtoll.c)
6fe04120       wcstoull_
6fe04160       wcstoll_
6fe041a0       wcstoumax_
6fe041e0       wcstoimax_
Module: /mnt/sda5/.user/root/src/openwatcom-1.9/bld/clib/library/winnt.386/mf_rd/clib3r.lib(/mnt/sda5/.user/root/src/openwatcom-1.9/bld/clib/convert/a/fdmd386.asm)
6fe04220       _dieeetomsbin_
Module: /mnt/sda5/.user/root/src/openwatcom-1.9/bld/clib/library/winnt.386/mf_rd/clib3r.lib(/mnt/sda5/.user/root/src/openwatcom-1.9/bld/clib/convert/a/fsms386.asm)
6fe0427c       _fieeetomsbin_
Module: /mnt/sda5/.user/root/src/openwatcom-1.9/bld/clib/library/winnt.386/mf_rd/clib3r.lib(/mnt/sda5/.user/root/src/openwatcom-1.9/bld/clib/convert/a/mdfd386.asm)
6fe042cc       _dmsbintoieee_
Module: /mnt/sda5/.user/root/src/openwatcom-1.9/bld/clib/library/winnt.386/mf_rd/clib3r.lib(/mnt/sda5/.user/root/src/openwatcom-1.9/bld/clib/convert/a/msfs386.asm)
6fe04320       _fmsbintoieee_
Module: /mnt/sda5/.user/root/src/openwatcom-1.9/bld/clib/library/winnt.386/mf_rd/clib3r.lib(/mnt/sda5/.user/root/src/openwatcom-1.9/bld/clib/defwin/c/nodefwin.c)
6fe4d3c8+      __WindowsIsWindowedHandle
6fe4d3cc+      __WindowsRemoveWindowedHandle
6fe4d3d0+      __WindowsNewWindow
6fe4d3d4+      __WindowsCloseWindow
6fe4d3d8+      __WindowsSetAbout
6fe4d3dc+      __WindowsSetAppTitle
6fe4d3e0+      __WindowsSetConTitle
6fe4d3e4+      __WindowsDestroyOnClose
6fe4d3e8+      __WindowsYieldControl
6fe4d3ec+      __WindowsShutDown
6fe4d3f0+      __WindowsStdin
6fe4d3f4+      __WindowsStdout
6fe4d3f8+      __WindowsKbhit
6fe4d3fc+      __WindowsGetch
6fe4d400+      __WindowsGetche
6fe4d404+      __WindowsPutch
6fe04370       _dwDeleteOnClose_
6fe043a0       _dwSetAboutDlg_
6fe043d0       _dwSetAppTitle_
6fe04400       _dwSetConTitle_
6fe04430       _dwYield_
6fe04460       _dwShutDown_
6fe4d408+      __WindowsExitRtn
6fe4f00c+      __init_default_win
Module: /mnt/sda5/.user/root/src/openwatcom-1.9/bld/clib/library/winnt.386/mf_rd/clib3r.lib(/mnt/sda5/.user/root/src/openwatcom-1.9/bld/clib/direct/c/chdirwnt.c)
6fe04490       chdir_
Module: /mnt/sda5/.user/root/src/openwatcom-1.9/bld/clib/library/winnt.386/mf_rd/clib3r.lib(/mnt/sda5/.user/root/src/openwatcom-1.9/bld/clib/direct/c/chdrive.c)
6fe044e0       _chdrive_
Module: /mnt/sda5/.user/root/src/openwatcom-1.9/bld/clib/library/winnt.386/mf_rd/clib3r.lib(/mnt/sda5/.user/root/src/openwatcom-1.9/bld/clib/direct/c/dirwnt.c)
6fe04610       __opendir_
6fe046c0       _opendir_
6fe048a0       opendir_
6fe048d0       readdir_
6fe049a0       closedir_
6fe04a30       rewinddir_
Module: /mnt/sda5/.user/root/src/openwatcom-1.9/bld/clib/library/winnt.386/mf_rd/clib3r.lib(/mnt/sda5/.user/root/src/openwatcom-1.9/bld/clib/direct/c/diskfree.c)
6fe04a90       _getdiskfree_
Module: /mnt/sda5/.user/root/src/openwatcom-1.9/bld/clib/library/winnt.386/mf_rd/clib3r.lib(/mnt/sda5/.user/root/src/openwatcom-1.9/bld/clib/direct/c/getdrive.c)
6fe04ac0       _getdrive_
Module: /mnt/sda5/.user/root/src/openwatcom-1.9/bld/clib/library/winnt.386/mf_rd/clib3r.lib(/mnt/sda5/.user/root/src/openwatcom-1.9/bld/clib/direct/c/gtcwdwnt.c)
6fe04af0       getcwd_
Module: /mnt/sda5/.user/root/src/openwatcom-1.9/bld/clib/library/winnt.386/mf_rd/clib3r.lib(/mnt/sda5/.user/root/src/openwatcom-1.9/bld/clib/direct/c/getdcwd.c)
6fe04bc0       _getdcwd_
Module: /mnt/sda5/.user/root/src/openwatcom-1.9/bld/clib/library/winnt.386/mf_rd/clib3r.lib(/mnt/sda5/.user/root/src/openwatcom-1.9/bld/clib/direct/c/mkdirwnt.c)
6fe04c40       mkdir_
Module: /mnt/sda5/.user/root/src/openwatcom-1.9/bld/clib/library/winnt.386/mf_rd/clib3r.lib(/mnt/sda5/.user/root/src/openwatcom-1.9/bld/clib/direct/c/rmdirwnt.c)
6fe04c90       rmdir_
Module: /mnt/sda5/.user/root/src/openwatcom-1.9/bld/clib/library/winnt.386/mf_rd/clib3r.lib(/mnt/sda5/.user/root/src/openwatcom-1.9/bld/clib/direct/c/uchdrwnt.c)
6fe04ce0       _wchdir_
Module: /mnt/sda5/.user/root/src/openwatcom-1.9/bld/clib/library/winnt.386/mf_rd/clib3r.lib(/mnt/sda5/.user/root/src/openwatcom-1.9/bld/clib/direct/c/udirwnt.c)
6fe04e00       _w__opendir_
6fe04eb0       _w_opendir_
6fe05090       _wopendir_
6fe050c0       _wreaddir_
6fe05190       _wclosedir_
6fe05220       _wrewinddir_
Module: /mnt/sda5/.user/root/src/openwatcom-1.9/bld/clib/library/winnt.386/mf_rd/clib3r.lib(/mnt/sda5/.user/root/src/openwatcom-1.9/bld/clib/direct/c/ugetdcwd.c)
6fe05280       _wgetdcwd_
Module: /mnt/sda5/.user/root/src/openwatcom-1.9/bld/clib/library/winnt.386/mf_rd/clib3r.lib(/mnt/sda5/.user/root/src/openwatcom-1.9/bld/clib/direct/c/ugtcdwnt.c)
6fe05300       _wgetcwd_
Module: /mnt/sda5/.user/root/src/openwatcom-1.9/bld/clib/library/winnt.386/mf_rd/clib3r.lib(/mnt/sda5/.user/root/src/openwatcom-1.9/bld/clib/direct/c/umkdrwnt.c)
6fe053d0       _wmkdir_
Module: /mnt/sda5/.user/root/src/openwatcom-1.9/bld/clib/library/winnt.386/mf_rd/clib3r.lib(/mnt/sda5/.user/root/src/openwatcom-1.9/bld/clib/direct/c/urmdrwnt.c)
6fe05420       _wrmdir_
Module: /mnt/sda5/.user/root/src/openwatcom-1.9/bld/clib/library/winnt.386/mf_rd/clib3r.lib(/mnt/sda5/.user/root/src/openwatcom-1.9/bld/clib/environ/c/clearenv.c)
6fe05460       clearenv_
Module: /mnt/sda5/.user/root/src/openwatcom-1.9/bld/clib/library/winnt.386/mf_rd/clib3r.lib(/mnt/sda5/.user/root/src/openwatcom-1.9/bld/clib/environ/c/environ.c)
6fe4f010       ___env_mask
6fe4f014       _environ
6fe4f018       __wenviron
Module: /mnt/sda5/.user/root/src/openwatcom-1.9/bld/clib/library/winnt.386/mf_rd/clib3r.lib(/mnt/sda5/.user/root/src/openwatcom-1.9/bld/clib/environ/c/envptr.c)
6fe05540       __get_environ_ptr_
Module: /mnt/sda5/.user/root/src/openwatcom-1.9/bld/clib/library/winnt.386/mf_rd/clib3r.lib(/mnt/sda5/.user/root/src/openwatcom-1.9/bld/clib/environ/c/getenv.c)
6fe05570       getenv_
Module: /mnt/sda5/.user/root/src/openwatcom-1.9/bld/clib/library/winnt.386/mf_rd/clib3r.lib(/mnt/sda5/.user/root/src/openwatcom-1.9/bld/clib/environ/c/getenv_s.c)
6fe05670       getenv_s_
Module: /mnt/sda5/.user/root/src/openwatcom-1.9/bld/clib/library/winnt.386/mf_rd/clib3r.lib(/mnt/sda5/.user/root/src/openwatcom-1.9/bld/clib/environ/c/gtcmd.c)
6fe05830       _bgetcmd_
6fe05910       getcmd_
Module: /mnt/sda5/.user/root/src/openwatcom-1.9/bld/clib/library/winnt.386/mf_rd/clib3r.lib(/mnt/sda5/.user/root/src/openwatcom-1.9/bld/clib/environ/c/gtpidwnt.c)
6fe05940       getpid_
Module: /mnt/sda5/.user/root/src/openwatcom-1.9/bld/clib/library/winnt.386/mf_rd/clib3r.lib(/mnt/sda5/.user/root/src/openwatcom-1.9/bld/clib/environ/c/isattwnt.c)
6fe05970       isatty_
Module: /mnt/sda5/.user/root/src/openwatcom-1.9/bld/clib/library/winnt.386/mf_rd/clib3r.lib(/mnt/sda5/.user/root/src/openwatcom-1.9/bld/clib/environ/c/putenv.c)
6fe059c0       putenv_
6fe05d10       __putenv_
Module: /mnt/sda5/.user/root/src/openwatcom-1.9/bld/clib/library/winnt.386/mf_rd/clib3r.lib(/mnt/sda5/.user/root/src/openwatcom-1.9/bld/clib/environ/c/searchen.c)
6fe05f40       _searchenv_
Module: /mnt/sda5/.user/root/src/openwatcom-1.9/bld/clib/library/winnt.386/mf_rd/clib3r.lib(/mnt/sda5/.user/root/src/openwatcom-1.9/bld/clib/environ/c/setenv.c)
6fe06130       setenv_
6fe06470       _setenv_
Module: /mnt/sda5/.user/root/src/openwatcom-1.9/bld/clib/library/winnt.386/mf_rd/clib3r.lib(/mnt/sda5/.user/root/src/openwatcom-1.9/bld/clib/environ/c/ugetenv.c)
6fe06700       _wgetenv_
Module: /mnt/sda5/.user/root/src/openwatcom-1.9/bld/clib/library/winnt.386/mf_rd/clib3r.lib(/mnt/sda5/.user/root/src/openwatcom-1.9/bld/clib/environ/c/uputenv.c)
6fe067a0       _wputenv_
6fe06aa0       __wputenv_
Module: /mnt/sda5/.user/root/src/openwatcom-1.9/bld/clib/library/winnt.386/mf_rd/clib3r.lib(/mnt/sda5/.user/root/src/openwatcom-1.9/bld/clib/environ/c/usrchen.c)
6fe06c30       _wsearchenv_
Module: /mnt/sda5/.user/root/src/openwatcom-1.9/bld/clib/library/winnt.386/mf_rd/clib3r.lib(/mnt/sda5/.user/root/src/openwatcom-1.9/bld/clib/environ/c/usetenv.c)
6fe06e50       _wsetenv_
6fe07120       __wsetenv_
Module: /mnt/sda5/.user/root/src/openwatcom-1.9/bld/clib/library/winnt.386/mf_rd/clib3r.lib(/mnt/sda5/.user/root/src/openwatcom-1.9/bld/clib/environ/c/wenvptr.c)
6fe07320       __get_wenviron_ptr_
Module: /mnt/sda5/.user/root/src/openwatcom-1.9/bld/clib/library/winnt.386/mf_rd/clib3r.lib(/mnt/sda5/.user/root/src/openwatcom-1.9/bld/clib/file/c/64findfi.c)
6fe07350       _findfirsti64_
6fe073e0       __nt_finddatai64_cvt_
Module: /mnt/sda5/.user/root/src/openwatcom-1.9/bld/clib/library/winnt.386/mf_rd/clib3r.lib(/mnt/sda5/.user/root/src/openwatcom-1.9/bld/clib/file/c/64findne.c)
6fe07500       _findnexti64_
Module: /mnt/sda5/.user/root/src/openwatcom-1.9/bld/clib/library/winnt.386/mf_rd/clib3r.lib(/mnt/sda5/.user/root/src/openwatcom-1.9/bld/clib/file/c/64stawnt.c)
6fe07710       _stati64_
Module: /mnt/sda5/.user/root/src/openwatcom-1.9/bld/clib/library/winnt.386/mf_rd/clib3r.lib(/mnt/sda5/.user/root/src/openwatcom-1.9/bld/clib/file/c/accsswnt.c)
6fe07a60       access_
Module: /mnt/sda5/.user/root/src/openwatcom-1.9/bld/clib/library/winnt.386/mf_rd/clib3r.lib(/mnt/sda5/.user/root/src/openwatcom-1.9/bld/clib/file/c/chmodwnt.c)
6fe07ad0       chmod_
Module: /mnt/sda5/.user/root/src/openwatcom-1.9/bld/clib/library/winnt.386/mf_rd/clib3r.lib(/mnt/sda5/.user/root/src/openwatcom-1.9/bld/clib/file/c/findclos.c)
6fe07b50       _findclose_
Module: /mnt/sda5/.user/root/src/openwatcom-1.9/bld/clib/library/winnt.386/mf_rd/clib3r.lib(/mnt/sda5/.user/root/src/openwatcom-1.9/bld/clib/file/c/findfirs.c)
6fe07b90       _findfirst_
6fe07c20       __nt_finddata_cvt_
Module: /mnt/sda5/.user/root/src/openwatcom-1.9/bld/clib/library/winnt.386/mf_rd/clib3r.lib(/mnt/sda5/.user/root/src/openwatcom-1.9/bld/clib/file/c/findnext.c)
6fe07d30       _findnext_
Module: /mnt/sda5/.user/root/src/openwatcom-1.9/bld/clib/library/winnt.386/mf_rd/clib3r.lib(/mnt/sda5/.user/root/src/openwatcom-1.9/bld/clib/file/c/mkstemp.c)
6fe07e30       mkstemp_
Module: /mnt/sda5/.user/root/src/openwatcom-1.9/bld/clib/library/winnt.386/mf_rd/clib3r.lib(/mnt/sda5/.user/root/src/openwatcom-1.9/bld/clib/file/c/mktemp.c)
6fe07fa0       _mktemp_
Module: /mnt/sda5/.user/root/src/openwatcom-1.9/bld/clib/library/winnt.386/mf_rd/clib3r.lib(/mnt/sda5/.user/root/src/openwatcom-1.9/bld/clib/file/c/remove.c)
6fe08050       remove_
Module: /mnt/sda5/.user/root/src/openwatcom-1.9/bld/clib/library/winnt.386/mf_rd/clib3r.lib(/mnt/sda5/.user/root/src/openwatcom-1.9/bld/clib/file/c/renamwnt.c)
6fe08080       rename_
Module: /mnt/sda5/.user/root/src/openwatcom-1.9/bld/clib/library/winnt.386/mf_rd/clib3r.lib(/mnt/sda5/.user/root/src/openwatcom-1.9/bld/clib/file/c/statwnt.c)
6fe08232       stat_
Module: /mnt/sda5/.user/root/src/openwatcom-1.9/bld/clib/library/winnt.386/mf_rd/clib3r.lib(/mnt/sda5/.user/root/src/openwatcom-1.9/bld/clib/file/c/tempnam.c)
6fe086b0       _tempnam_
Module: /mnt/sda5/.user/root/src/openwatcom-1.9/bld/clib/library/winnt.386/mf_rd/clib3r.lib(/mnt/sda5/.user/root/src/openwatcom-1.9/bld/clib/file/c/tmpnm.c)
6fe08850       tmpnam_
Module: /mnt/sda5/.user/root/src/openwatcom-1.9/bld/clib/library/winnt.386/mf_rd/clib3r.lib(/mnt/sda5/.user/root/src/openwatcom-1.9/bld/clib/file/c/tmpnm_s.c)
6fe089a0       tmpnam_s_
Module: /mnt/sda5/.user/root/src/openwatcom-1.9/bld/clib/library/winnt.386/mf_rd/clib3r.lib(/mnt/sda5/.user/root/src/openwatcom-1.9/bld/clib/file/c/u64findf.c)
6fe08ac0       _wfindfirsti64_
6fe08b50       __nt_wfinddatai64_cvt_
Module: /mnt/sda5/.user/root/src/openwatcom-1.9/bld/clib/library/winnt.386/mf_rd/clib3r.lib(/mnt/sda5/.user/root/src/openwatcom-1.9/bld/clib/file/c/u64findn.c)
6fe08c70       _wfindnexti64_
Module: /mnt/sda5/.user/root/src/openwatcom-1.9/bld/clib/library/winnt.386/mf_rd/clib3r.lib(/mnt/sda5/.user/root/src/openwatcom-1.9/bld/clib/file/c/u64stwnt.c)
6fe08e90       _wstati64_
Module: /mnt/sda5/.user/root/src/openwatcom-1.9/bld/clib/library/winnt.386/mf_rd/clib3r.lib(/mnt/sda5/.user/root/src/openwatcom-1.9/bld/clib/file/c/uaccswnt.c)
6fe091f0       _waccess_
Module: /mnt/sda5/.user/root/src/openwatcom-1.9/bld/clib/library/winnt.386/mf_rd/clib3r.lib(/mnt/sda5/.user/root/src/openwatcom-1.9/bld/clib/file/c/uchmdwnt.c)
6fe09260       _wchmod_
Module: /mnt/sda5/.user/root/src/openwatcom-1.9/bld/clib/library/winnt.386/mf_rd/clib3r.lib(/mnt/sda5/.user/root/src/openwatcom-1.9/bld/clib/file/c/ufindfir.c)
6fe092d0       _wfindfirst_
6fe09360       __nt_wfinddata_cvt_
Module: /mnt/sda5/.user/root/src/openwatcom-1.9/bld/clib/library/winnt.386/mf_rd/clib3r.lib(/mnt/sda5/.user/root/src/openwatcom-1.9/bld/clib/file/c/ufindnex.c)
6fe09470       _wfindnext_
Module: /mnt/sda5/.user/root/src/openwatcom-1.9/bld/clib/library/winnt.386/mf_rd/clib3r.lib(/mnt/sda5/.user/root/src/openwatcom-1.9/bld/clib/file/c/umktemp.c)
6fe09580       _wmktemp_
Module: /mnt/sda5/.user/root/src/openwatcom-1.9/bld/clib/library/winnt.386/mf_rd/clib3r.lib(/mnt/sda5/.user/root/src/openwatcom-1.9/bld/clib/file/c/uremove.c)
6fe0962a       _wremove_
Module: /mnt/sda5/.user/root/src/openwatcom-1.9/bld/clib/library/winnt.386/mf_rd/clib3r.lib(/mnt/sda5/.user/root/src/openwatcom-1.9/bld/clib/file/c/urenmwnt.c)
6fe09650       _wrename_
Module: /mnt/sda5/.user/root/src/openwatcom-1.9/bld/clib/library/winnt.386/mf_rd/clib3r.lib(/mnt/sda5/.user/root/src/openwatcom-1.9/bld/clib/file/c/ustatwnt.c)
6fe09830       _wstat_
Module: /mnt/sda5/.user/root/src/openwatcom-1.9/bld/clib/library/winnt.386/mf_rd/clib3r.lib(/mnt/sda5/.user/root/src/openwatcom-1.9/bld/clib/file/c/utimewnt.c)
6fe09b50       utime_
Module: /mnt/sda5/.user/root/src/openwatcom-1.9/bld/clib/library/winnt.386/mf_rd/clib3r.lib(/mnt/sda5/.user/root/src/openwatcom-1.9/bld/clib/file/c/utempnam.c)
6fe09e60       _wtempnam_
Module: /mnt/sda5/.user/root/src/openwatcom-1.9/bld/clib/library/winnt.386/mf_rd/clib3r.lib(/mnt/sda5/.user/root/src/openwatcom-1.9/bld/clib/file/c/utmpnm.c)
6fe09ff4       _wtmpnam_
Module: /mnt/sda5/.user/root/src/openwatcom-1.9/bld/clib/library/winnt.386/mf_rd/clib3r.lib(/mnt/sda5/.user/root/src/openwatcom-1.9/bld/clib/file/c/utmpnm_s.c)
6fe0a150       _wtmpnam_s_
Module: /mnt/sda5/.user/root/src/openwatcom-1.9/bld/clib/library/winnt.386/mf_rd/clib3r.lib(/mnt/sda5/.user/root/src/openwatcom-1.9/bld/clib/file/c/uutimwnt.c)
6fe0a280       _wutime_
Module: /mnt/sda5/.user/root/src/openwatcom-1.9/bld/clib/library/winnt.386/mf_rd/clib3r.lib(/mnt/sda5/.user/root/src/openwatcom-1.9/bld/clib/fpu/a/chipd32.asm)
6fe0a53b       __fdiv_fpr
6fe0a9fd       __fdiv_chk
6fe0aa10       __fdiv_m32
6fe0aa5d       __fdiv_m64
6fe0aaaa       __fdiv_m32r
6fe0aaf7       __fdiv_m64r
Module: /mnt/sda5/.user/root/src/openwatcom-1.9/bld/clib/library/winnt.386/mf_rd/clib3r.lib(/mnt/sda5/.user/root/src/openwatcom-1.9/bld/clib/fpu/a/chipa32.asm)
6fe0ab50       __fpatan_chk
Module: /mnt/sda5/.user/root/src/openwatcom-1.9/bld/clib/library/winnt.386/mf_rd/clib3r.lib(/mnt/sda5/.user/root/src/openwatcom-1.9/bld/clib/fpu/a/chipw32.asm)
6fe0ad54       __fpatan_wrap
Module: /mnt/sda5/.user/root/src/openwatcom-1.9/bld/clib/library/winnt.386/mf_rd/clib3r.lib(/mnt/sda5/.user/root/src/openwatcom-1.9/bld/clib/fpu/a/chipt32.asm)
6fe0ad8c       __fptan_chk
Module: /mnt/sda5/.user/root/src/openwatcom-1.9/bld/clib/library/winnt.386/mf_rd/clib3r.lib(/mnt/sda5/.user/root/src/openwatcom-1.9/bld/clib/fpu/a/chipr32.asm)
6fe4b87b       __fprem_chk
6fe4bb34       __fprem1_chk
Module: /mnt/sda5/.user/root/src/openwatcom-1.9/bld/clib/library/winnt.386/mf_rd/clib3r.lib(/mnt/sda5/.user/root/src/openwatcom-1.9/bld/clib/fpu/c/cntrl87.c)
6fe0ae40       _control87_
Module: /mnt/sda5/.user/root/src/openwatcom-1.9/bld/clib/library/winnt.386/mf_rd/clib3r.lib(/mnt/sda5/.user/root/src/openwatcom-1.9/bld/clib/fpu/c/cntrlfp.c)
6fe0aea0       _controlfp_
Module: /mnt/sda5/.user/root/src/openwatcom-1.9/bld/clib/library/winnt.386/mf_rd/clib3r.lib(/mnt/sda5/.user/root/src/openwatcom-1.9/bld/clib/fpu/c/fenv.c)
6fe0aed0       ___fenv_h_default_environment
6fe0aef0       feclearexcept_
6fe0af30       fegetexceptflag_
6fe0af70       feraiseexcept_
6fe0afb0       __feenableexcept_
6fe0afe0       __fedisableexcept_
6fe0b010       fesetexceptflag_
6fe0b060       fetestexcept_
6fe0b0a0       fegetround_
6fe0b0d0       fesetround_
6fe0b150       fegetenv_
6fe0b180       feholdexcept_
6fe0b1c0       fesetenv_
6fe0b1f0       feupdateenv_
Module: /mnt/sda5/.user/root/src/openwatcom-1.9/bld/clib/library/winnt.386/mf_rd/clib3r.lib(/mnt/sda5/.user/root/src/openwatcom-1.9/bld/clib/handleio/c/64lseek.c)
6fe0b230       _lseeki64_
Module: /mnt/sda5/.user/root/src/openwatcom-1.9/bld/clib/library/winnt.386/mf_rd/clib3r.lib(/mnt/sda5/.user/root/src/openwatcom-1.9/bld/clib/handleio/c/64_lseek.c)
6fe0b2e0       __lseeki64_
Module: /mnt/sda5/.user/root/src/openwatcom-1.9/bld/clib/library/winnt.386/mf_rd/clib3r.lib(/mnt/sda5/.user/root/src/openwatcom-1.9/bld/clib/handleio/c/64fillen.c)
6fe0b3a0       _filelengthi64_
Module: /mnt/sda5/.user/root/src/openwatcom-1.9/bld/clib/library/winnt.386/mf_rd/clib3r.lib(/mnt/sda5/.user/root/src/openwatcom-1.9/bld/clib/handleio/c/64fstwnt.c)
6fe0b490       _fstati64_
Module: /mnt/sda5/.user/root/src/openwatcom-1.9/bld/clib/library/winnt.386/mf_rd/clib3r.lib(/mnt/sda5/.user/root/src/openwatcom-1.9/bld/clib/handleio/c/64tell.c)
6fe0b880       _telli64_
Module: /mnt/sda5/.user/root/src/openwatcom-1.9/bld/clib/library/winnt.386/mf_rd/clib3r.lib(/mnt/sda5/.user/root/src/openwatcom-1.9/bld/clib/handleio/c/chsizwnt.c)
6fe0b950       chsize_
Module: /mnt/sda5/.user/root/src/openwatcom-1.9/bld/clib/library/winnt.386/mf_rd/clib3r.lib(/mnt/sda5/.user/root/src/openwatcom-1.9/bld/clib/handleio/c/close.c)
6fe0bac0       close_
Module: /mnt/sda5/.user/root/src/openwatcom-1.9/bld/clib/library/winnt.386/mf_rd/clib3r.lib(/mnt/sda5/.user/root/src/openwatcom-1.9/bld/clib/handleio/c/creat.c)
6fe0bb20       creat_
Module: /mnt/sda5/.user/root/src/openwatcom-1.9/bld/clib/library/winnt.386/mf_rd/clib3r.lib(/mnt/sda5/.user/root/src/openwatcom-1.9/bld/clib/handleio/c/dofilstr.c)
6fe0bb80       __ParsePosixHandleStr_
Module: /mnt/sda5/.user/root/src/openwatcom-1.9/bld/clib/library/winnt.386/mf_rd/clib3r.lib(/mnt/sda5/.user/root/src/openwatcom-1.9/bld/clib/handleio/c/dup2wnt.c)
6fe0bcd0       dup2_
Module: /mnt/sda5/.user/root/src/openwatcom-1.9/bld/clib/library/winnt.386/mf_rd/clib3r.lib(/mnt/sda5/.user/root/src/openwatcom-1.9/bld/clib/handleio/c/dupwnt.c)
6fe0bde0       dup_
Module: /mnt/sda5/.user/root/src/openwatcom-1.9/bld/clib/library/winnt.386/mf_rd/clib3r.lib(/mnt/sda5/.user/root/src/openwatcom-1.9/bld/clib/handleio/c/eof.c)
6fe0beb0       eof_
Module: /mnt/sda5/.user/root/src/openwatcom-1.9/bld/clib/library/winnt.386/mf_rd/clib3r.lib(/mnt/sda5/.user/root/src/openwatcom-1.9/bld/clib/handleio/c/finfoptr.c)
6fe0bf40       __get_fileinfo_ptr_
Module: /mnt/sda5/.user/root/src/openwatcom-1.9/bld/clib/library/winnt.386/mf_rd/clib3r.lib(/mnt/sda5/.user/root/src/openwatcom-1.9/bld/clib/handleio/c/fileinfo.c)
6fe4d40c       __fileinfo
Module: /mnt/sda5/.user/root/src/openwatcom-1.9/bld/clib/library/winnt.386/mf_rd/clib3r.lib(/mnt/sda5/.user/root/src/openwatcom-1.9/bld/clib/handleio/c/filelen.c)
6fe0bf70       filelength_
Module: /mnt/sda5/.user/root/src/openwatcom-1.9/bld/clib/library/winnt.386/mf_rd/clib3r.lib(/mnt/sda5/.user/root/src/openwatcom-1.9/bld/clib/handleio/c/fileno.c)
6fe0c020       fileno_
Module: /mnt/sda5/.user/root/src/openwatcom-1.9/bld/clib/library/winnt.386/mf_rd/clib3r.lib(/mnt/sda5/.user/root/src/openwatcom-1.9/bld/clib/handleio/c/fstatwnt.c)
6fe0c050       fstat_
Module: /mnt/sda5/.user/root/src/openwatcom-1.9/bld/clib/library/winnt.386/mf_rd/clib3r.lib(/mnt/sda5/.user/root/src/openwatcom-1.9/bld/clib/handleio/c/fsync.c)
6fe0c3c0       fsync_
Module: /mnt/sda5/.user/root/src/openwatcom-1.9/bld/clib/library/winnt.386/mf_rd/clib3r.lib(/mnt/sda5/.user/root/src/openwatcom-1.9/bld/clib/handleio/c/hdlman.c)
6fe4d410       ___NHandles
6fe4d414+      ___OSHandles
6fe4d418+      ___FakeHandles
6fe0c430       __growPOSIXHandles_
6fe0c4f0       __allocPOSIXHandle_
6fe0c5d0       __freePOSIXHandle_
6fe0c600       __getOSHandle_
6fe0c630       __setOSHandle_
6fe0c6c0+      __NTGetFakeHandle_
6fe0c750       __initPOSIXHandles_
6fe0c880*      __set_handles_
6fe0c8b0       _grow_handles_
Module: /mnt/sda5/.user/root/src/openwatcom-1.9/bld/clib/library/winnt.386/mf_rd/clib3r.lib(/mnt/sda5/.user/root/src/openwatcom-1.9/bld/clib/handleio/c/hdopen.c)
6fe0c960       _open_osfhandle_
6fe0ca20       _hdopen_
Module: /mnt/sda5/.user/root/src/openwatcom-1.9/bld/clib/library/winnt.386/mf_rd/clib3r.lib(/mnt/sda5/.user/root/src/openwatcom-1.9/bld/clib/handleio/c/locking.c)
6fe0ca50       locking_
Module: /mnt/sda5/.user/root/src/openwatcom-1.9/bld/clib/library/winnt.386/mf_rd/clib3r.lib(/mnt/sda5/.user/root/src/openwatcom-1.9/bld/clib/handleio/c/lockwnt.c)
6fe0cb30       lock_
Module: /mnt/sda5/.user/root/src/openwatcom-1.9/bld/clib/library/winnt.386/mf_rd/clib3r.lib(/mnt/sda5/.user/root/src/openwatcom-1.9/bld/clib/handleio/c/__lseek.c)
6fe0cbb0       __lseek_
Module: /mnt/sda5/.user/root/src/openwatcom-1.9/bld/clib/library/winnt.386/mf_rd/clib3r.lib(/mnt/sda5/.user/root/src/openwatcom-1.9/bld/clib/handleio/c/lseek.c)
6fe0cc30       lseek_
Module: /mnt/sda5/.user/root/src/openwatcom-1.9/bld/clib/library/winnt.386/mf_rd/clib3r.lib(/mnt/sda5/.user/root/src/openwatcom-1.9/bld/clib/handleio/c/mkfilstr.c)
6fe0ccd0       __FormPosixHandleStr_
Module: /mnt/sda5/.user/root/src/openwatcom-1.9/bld/clib/library/winnt.386/mf_rd/clib3r.lib(/mnt/sda5/.user/root/src/openwatcom-1.9/bld/clib/handleio/c/openwnt.c)
6fe0d050       open_
6fe0d0a0       sopen_
Module: /mnt/sda5/.user/root/src/openwatcom-1.9/bld/clib/library/winnt.386/mf_rd/clib3r.lib(/mnt/sda5/.user/root/src/openwatcom-1.9/bld/clib/handleio/c/oshdl.c)
6fe0d0e0       _get_osfhandle_
6fe0d140       _os_handle_
Module: /mnt/sda5/.user/root/src/openwatcom-1.9/bld/clib/library/winnt.386/mf_rd/clib3r.lib(/mnt/sda5/.user/root/src/openwatcom-1.9/bld/clib/handleio/c/pipe.c)
6fe0d170       _pipe_
Module: /mnt/sda5/.user/root/src/openwatcom-1.9/bld/clib/library/winnt.386/mf_rd/clib3r.lib(/mnt/sda5/.user/root/src/openwatcom-1.9/bld/clib/handleio/c/plusfsta.c)
6fe0d270       __plusplus_fstat_
Module: /mnt/sda5/.user/root/src/openwatcom-1.9/bld/clib/library/winnt.386/mf_rd/clib3r.lib(/mnt/sda5/.user/root/src/openwatcom-1.9/bld/clib/handleio/c/plusopen.c)
6fe0d2f0       __plusplus_open_
Module: /mnt/sda5/.user/root/src/openwatcom-1.9/bld/clib/library/winnt.386/mf_rd/clib3r.lib(/mnt/sda5/.user/root/src/openwatcom-1.9/bld/clib/handleio/c/read.c)
6fe0d460       read_
Module: /mnt/sda5/.user/root/src/openwatcom-1.9/bld/clib/library/winnt.386/mf_rd/clib3r.lib(/mnt/sda5/.user/root/src/openwatcom-1.9/bld/clib/handleio/c/setmd.c)
6fe0d680       setmode_
Module: /mnt/sda5/.user/root/src/openwatcom-1.9/bld/clib/library/winnt.386/mf_rd/clib3r.lib(/mnt/sda5/.user/root/src/openwatcom-1.9/bld/clib/handleio/c/tell.c)
6fe0d7d0       tell_
Module: /mnt/sda5/.user/root/src/openwatcom-1.9/bld/clib/library/winnt.386/mf_rd/clib3r.lib(/mnt/sda5/.user/root/src/openwatcom-1.9/bld/clib/handleio/c/ucreat.c)
6fe0d800       _wcreat_
Module: /mnt/sda5/.user/root/src/openwatcom-1.9/bld/clib/library/winnt.386/mf_rd/clib3r.lib(/mnt/sda5/.user/root/src/openwatcom-1.9/bld/clib/handleio/c/umask.c)
6fe0d840       umask_
Module: /mnt/sda5/.user/root/src/openwatcom-1.9/bld/clib/library/winnt.386/mf_rd/clib3r.lib(/mnt/sda5/.user/root/src/openwatcom-1.9/bld/clib/handleio/c/umkfilst.c)
6fe0d8b0       __wFormPosixHandleStr_
Module: /mnt/sda5/.user/root/src/openwatcom-1.9/bld/clib/library/winnt.386/mf_rd/clib3r.lib(/mnt/sda5/.user/root/src/openwatcom-1.9/bld/clib/handleio/c/unlckwnt.c)
6fe0d9f0       unlock_
Module: /mnt/sda5/.user/root/src/openwatcom-1.9/bld/clib/library/winnt.386/mf_rd/clib3r.lib(/mnt/sda5/.user/root/src/openwatcom-1.9/bld/clib/handleio/c/unlnkwnt.c)
6fe0da70       unlink_
Module: /mnt/sda5/.user/root/src/openwatcom-1.9/bld/clib/library/winnt.386/mf_rd/clib3r.lib(/mnt/sda5/.user/root/src/openwatcom-1.9/bld/clib/handleio/c/uopenwnt.c)
6fe0dcf0       _wopen_
6fe0dd40       _wsopen_
Module: /mnt/sda5/.user/root/src/openwatcom-1.9/bld/clib/library/winnt.386/mf_rd/clib3r.lib(/mnt/sda5/.user/root/src/openwatcom-1.9/bld/clib/handleio/c/uunlnwnt.c)
6fe0dd80       _wunlink_
Module: /mnt/sda5/.user/root/src/openwatcom-1.9/bld/clib/library/winnt.386/mf_rd/clib3r.lib(/mnt/sda5/.user/root/src/openwatcom-1.9/bld/clib/handleio/c/write.c)
6fe0e010       write_
Module: /mnt/sda5/.user/root/src/openwatcom-1.9/bld/clib/library/winnt.386/mf_rd/clib3r.lib(/mnt/sda5/.user/root/src/openwatcom-1.9/bld/clib/heap/c/ambsptr.c)
6fe0e2d0       __get_amblksiz_ptr_
Module: /mnt/sda5/.user/root/src/openwatcom-1.9/bld/clib/library/winnt.386/mf_rd/clib3r.lib(/mnt/sda5/.user/root/src/openwatcom-1.9/bld/clib/heap/c/amblksiz.c)
6fe4d424       __amblksiz
Module: /mnt/sda5/.user/root/src/openwatcom-1.9/bld/clib/library/winnt.386/mf_rd/clib3r.lib(/mnt/sda5/.user/root/src/openwatcom-1.9/bld/clib/heap/c/calloc.c)
6fe0e300       calloc_
Module: /mnt/sda5/.user/root/src/openwatcom-1.9/bld/clib/library/winnt.386/mf_rd/clib3r.lib(/mnt/sda5/.user/root/src/openwatcom-1.9/bld/clib/heap/c/freect.c)
6fe0e360       _freect_
Module: /mnt/sda5/.user/root/src/openwatcom-1.9/bld/clib/library/winnt.386/mf_rd/clib3r.lib(/mnt/sda5/.user/root/src/openwatcom-1.9/bld/clib/heap/c/heapen.c)
6fe0e410       _heapenable_
6fe4d428       ___heap_enabled
Module: /mnt/sda5/.user/root/src/openwatcom-1.9/bld/clib/library/winnt.386/mf_rd/clib3r.lib(/mnt/sda5/.user/root/src/openwatcom-1.9/bld/clib/heap/c/heapgrow.c)
6fe0e450       _heapgrow_
6fe0e480       _nheapgrow_
Module: /mnt/sda5/.user/root/src/openwatcom-1.9/bld/clib/library/winnt.386/mf_rd/clib3r.lib(/mnt/sda5/.user/root/src/openwatcom-1.9/bld/clib/heap/c/memavl.c)
6fe0e4b0       _memavl_
Module: /mnt/sda5/.user/root/src/openwatcom-1.9/bld/clib/library/winnt.386/mf_rd/clib3r.lib(/mnt/sda5/.user/root/src/openwatcom-1.9/bld/clib/heap/c/memmax.c)
6fe0e530       _memmax_
Module: /mnt/sda5/.user/root/src/openwatcom-1.9/bld/clib/library/winnt.386/mf_rd/clib3r.lib(/mnt/sda5/.user/root/src/openwatcom-1.9/bld/clib/heap/c/ncalloc.c)
6fe0e5c0       _ncalloc_
Module: /mnt/sda5/.user/root/src/openwatcom-1.9/bld/clib/library/winnt.386/mf_rd/clib3r.lib(/mnt/sda5/.user/root/src/openwatcom-1.9/bld/clib/heap/c/nexpand.c)
6fe0e620       _expand_
6fe0e650+      __HeapManager_expand_
6fe0e8c0       _nexpand_
Module: /mnt/sda5/.user/root/src/openwatcom-1.9/bld/clib/library/winnt.386/mf_rd/clib3r.lib(/mnt/sda5/.user/root/src/openwatcom-1.9/bld/clib/heap/c/nfree.c)
6fe0e960       free_
6fe0e990       _nfree_
6fe4f048       ___MiniHeapFreeRover
Module: /mnt/sda5/.user/root/src/openwatcom-1.9/bld/clib/library/winnt.386/mf_rd/clib3r.lib(/mnt/sda5/.user/root/src/openwatcom-1.9/bld/clib/heap/c/nheapchk.c)
6fe0edd0       _heapchk_
6fe0ee00       _nheapchk_
6fe4f04c+      ___nheapchk_current
Module: /mnt/sda5/.user/root/src/openwatcom-1.9/bld/clib/library/winnt.386/mf_rd/clib3r.lib(/mnt/sda5/.user/root/src/openwatcom-1.9/bld/clib/heap/c/nheapmin.c)
6fe0eec0       _heapshrink_
6fe0eef0       _heapmin_
6fe0ef20       _nheapmin_
6fe0f060       _nheapshrink_
Module: /mnt/sda5/.user/root/src/openwatcom-1.9/bld/clib/library/winnt.386/mf_rd/clib3r.lib(/mnt/sda5/.user/root/src/openwatcom-1.9/bld/clib/heap/c/nheapset.c)
6fe0f0d0       _heapset_
6fe0f100       _nheapset_
Module: /mnt/sda5/.user/root/src/openwatcom-1.9/bld/clib/library/winnt.386/mf_rd/clib3r.lib(/mnt/sda5/.user/root/src/openwatcom-1.9/bld/clib/heap/c/nheapwal.c)
6fe0f1c0       _heapwalk_
6fe0f1f0       __NHeapWalk_
6fe0f340       _nheapwalk_
Module: /mnt/sda5/.user/root/src/openwatcom-1.9/bld/clib/library/winnt.386/mf_rd/clib3r.lib(/mnt/sda5/.user/root/src/openwatcom-1.9/bld/clib/heap/c/nmalloc.c)
6fe0f380       malloc_
6fe0f3b0       _nmalloc_
6fe4d42c       ___nheapbeg
6fe4d430       ___MiniHeapRover
6fe4d434       ___LargestSizeB4MiniHeapRover
Module: /mnt/sda5/.user/root/src/openwatcom-1.9/bld/clib/library/winnt.386/mf_rd/clib3r.lib(/mnt/sda5/.user/root/src/openwatcom-1.9/bld/clib/heap/c/nmemneed.c)
6fe0f500       __nmemneed_
Module: /mnt/sda5/.user/root/src/openwatcom-1.9/bld/clib/library/winnt.386/mf_rd/clib3r.lib(/mnt/sda5/.user/root/src/openwatcom-1.9/bld/clib/heap/c/nmsize.c)
6fe0f530       _msize_
6fe0f570       _nmsize_
Module: /mnt/sda5/.user/root/src/openwatcom-1.9/bld/clib/library/winnt.386/mf_rd/clib3r.lib(/mnt/sda5/.user/root/src/openwatcom-1.9/bld/clib/heap/c/nrealloc.c)
6fe0f5b0       realloc_
6fe0f5e0       _nrealloc_
Module: /mnt/sda5/.user/root/src/openwatcom-1.9/bld/clib/library/winnt.386/mf_rd/clib3r.lib(/mnt/sda5/.user/root/src/openwatcom-1.9/bld/clib/heap/c/sbrkwnt.c)
6fe0f690       sbrk_
Module: /mnt/sda5/.user/root/src/openwatcom-1.9/bld/clib/library/winnt.386/mf_rd/clib3r.lib(/mnt/sda5/.user/root/src/openwatcom-1.9/bld/clib/intel/c/chipbug.c)
6fe0f710       __verify_pentium_fdiv_bug_
Module: /mnt/sda5/.user/root/src/openwatcom-1.9/bld/clib/library/winnt.386/mf_rd/clib3r.lib(/mnt/sda5/.user/root/src/openwatcom-1.9/bld/clib/intel/c/disable.c)
6fe0f770       _disable_
Module: /mnt/sda5/.user/root/src/openwatcom-1.9/bld/clib/library/winnt.386/mf_rd/clib3r.lib(/mnt/sda5/.user/root/src/openwatcom-1.9/bld/clib/intel/c/enable.c)
6fe0f790       _enable_
Module: /mnt/sda5/.user/root/src/openwatcom-1.9/bld/clib/library/winnt.386/mf_rd/clib3r.lib(/mnt/sda5/.user/root/src/openwatcom-1.9/bld/clib/intel/a/i64ts386.asm)
6fe0f7a8       __CmpBigInt
6fe0f7e2       __Rnd2Int
6fe0f84d       __Bin2String
Module: /mnt/sda5/.user/root/src/openwatcom-1.9/bld/clib/library/winnt.386/mf_rd/clib3r.lib(/mnt/sda5/.user/root/src/openwatcom-1.9/bld/clib/intel/c/inp.c)
6fe0f970       inp_
Module: /mnt/sda5/.user/root/src/openwatcom-1.9/bld/clib/library/winnt.386/mf_rd/clib3r.lib(/mnt/sda5/.user/root/src/openwatcom-1.9/bld/clib/intel/c/inpw.c)
6fe0f9a0       inpw_
Module: /mnt/sda5/.user/root/src/openwatcom-1.9/bld/clib/library/winnt.386/mf_rd/clib3r.lib(/mnt/sda5/.user/root/src/openwatcom-1.9/bld/clib/intel/c/inpd.c)
6fe0f9d0       inpd_
Module: /mnt/sda5/.user/root/src/openwatcom-1.9/bld/clib/library/winnt.386/mf_rd/clib3r.lib(/mnt/sda5/.user/root/src/openwatcom-1.9/bld/clib/intel/c/outp.c)
6fe0fa00       outp_
Module: /mnt/sda5/.user/root/src/openwatcom-1.9/bld/clib/library/winnt.386/mf_rd/clib3r.lib(/mnt/sda5/.user/root/src/openwatcom-1.9/bld/clib/intel/c/outpw.c)
6fe0fa30       outpw_
Module: /mnt/sda5/.user/root/src/openwatcom-1.9/bld/clib/library/winnt.386/mf_rd/clib3r.lib(/mnt/sda5/.user/root/src/openwatcom-1.9/bld/clib/intel/c/outpd.c)
6fe0fa60       outpd_
Module: /mnt/sda5/.user/root/src/openwatcom-1.9/bld/clib/library/winnt.386/mf_rd/clib3r.lib(/mnt/sda5/.user/root/src/openwatcom-1.9/bld/clib/intel/c/profilog.c)
6fe0fb10       __ProfEnterCriticalSection_
6fe0fb40       __ProfExitCriticalSection_
6fe0fb70       __ProfEnable_
6fe0fbb0       __ProfDisable_
6fe0fbf0       __P5_overhead_
6fe0fd60+      __ProfUnwind_
6fe0ff40       __PON
6fe100d0       __POFF
6fe4f050+      ___ProfCriticalSection
6fe4f068+      __data_P5_overhead
6fe4f070+      ___prof_old_longjmp_handler
6fe4f074+      __data_ProfEnable
6fe4dce4+      ___new_p5_profilog_init
6fe4dd3e+      ___new_p5_profilog_fini
Module: /mnt/sda5/.user/root/src/openwatcom-1.9/bld/clib/library/winnt.386/mf_rd/clib3r.lib(/mnt/sda5/.user/root/src/openwatcom-1.9/bld/clib/intel/c/segread.c)
6fe10260       segread_
Module: /mnt/sda5/.user/root/src/openwatcom-1.9/bld/clib/library/winnt.386/mf_rd/clib3r.lib(/mnt/sda5/.user/root/src/openwatcom-1.9/bld/clib/kanji/c/btom.c)
6fe102b0       btom_
Module: /mnt/sda5/.user/root/src/openwatcom-1.9/bld/clib/library/winnt.386/mf_rd/clib3r.lib(/mnt/sda5/.user/root/src/openwatcom-1.9/bld/clib/kanji/c/chkctype.c)
6fe10310       chkctype_
Module: /mnt/sda5/.user/root/src/openwatcom-1.9/bld/clib/library/winnt.386/mf_rd/clib3r.lib(/mnt/sda5/.user/root/src/openwatcom-1.9/bld/clib/kanji/c/fbtom.c)
6fe10390       _fbtom_
Module: /mnt/sda5/.user/root/src/openwatcom-1.9/bld/clib/library/winnt.386/mf_rd/clib3r.lib(/mnt/sda5/.user/root/src/openwatcom-1.9/bld/clib/kanji/c/fjgetmoj.c)
6fe10410       _fjgetmoji_
Module: /mnt/sda5/.user/root/src/openwatcom-1.9/bld/clib/library/winnt.386/mf_rd/clib3r.lib(/mnt/sda5/.user/root/src/openwatcom-1.9/bld/clib/kanji/c/fjputmoj.c)
6fe104e0       _fjputmoji_
Module: /mnt/sda5/.user/root/src/openwatcom-1.9/bld/clib/library/winnt.386/mf_rd/clib3r.lib(/mnt/sda5/.user/root/src/openwatcom-1.9/bld/clib/kanji/c/fjstradv.c)
6fe10560       _fjstradv_
Module: /mnt/sda5/.user/root/src/openwatcom-1.9/bld/clib/library/winnt.386/mf_rd/clib3r.lib(/mnt/sda5/.user/root/src/openwatcom-1.9/bld/clib/kanji/c/fjstrcat.c)
6fe105b0       _fjstrncat_
6fe10680       _fjstrcat_
Module: /mnt/sda5/.user/root/src/openwatcom-1.9/bld/clib/library/winnt.386/mf_rd/clib3r.lib(/mnt/sda5/.user/root/src/openwatcom-1.9/bld/clib/kanji/c/fjstrchr.c)
6fe106e0       _fjstrchr_
Module: /mnt/sda5/.user/root/src/openwatcom-1.9/bld/clib/library/winnt.386/mf_rd/clib3r.lib(/mnt/sda5/.user/root/src/openwatcom-1.9/bld/clib/kanji/c/fjstrcmp.c)
6fe10770       _fjstrcmp_
Module: /mnt/sda5/.user/root/src/openwatcom-1.9/bld/clib/library/winnt.386/mf_rd/clib3r.lib(/mnt/sda5/.user/root/src/openwatcom-1.9/bld/clib/kanji/c/fjstrcsp.c)
6fe10820       _fjstrcspn_
Module: /mnt/sda5/.user/root/src/openwatcom-1.9/bld/clib/library/winnt.386/mf_rd/clib3r.lib(/mnt/sda5/.user/root/src/openwatcom-1.9/bld/clib/kanji/c/fjstricm.c)
6fe108d0       _fjstricmp_
Module: /mnt/sda5/.user/root/src/openwatcom-1.9/bld/clib/library/winnt.386/mf_rd/clib3r.lib(/mnt/sda5/.user/root/src/openwatcom-1.9/bld/clib/kanji/c/fjstrlen.c)
6fe109d0       _fjstrlen_
Module: /mnt/sda5/.user/root/src/openwatcom-1.9/bld/clib/library/winnt.386/mf_rd/clib3r.lib(/mnt/sda5/.user/root/src/openwatcom-1.9/bld/clib/kanji/c/fjstrlwr.c)
6fe10a30       _fjstrlwr_
Module: /mnt/sda5/.user/root/src/openwatcom-1.9/bld/clib/library/winnt.386/mf_rd/clib3r.lib(/mnt/sda5/.user/root/src/openwatcom-1.9/bld/clib/kanji/c/fjstrmat.c)
6fe10ae0       _fjstrmatch_
Module: /mnt/sda5/.user/root/src/openwatcom-1.9/bld/clib/library/winnt.386/mf_rd/clib3r.lib(/mnt/sda5/.user/root/src/openwatcom-1.9/bld/clib/kanji/c/fjstrncm.c)
6fe10bb0       _fjstrncmp_
Module: /mnt/sda5/.user/root/src/openwatcom-1.9/bld/clib/library/winnt.386/mf_rd/clib3r.lib(/mnt/sda5/.user/root/src/openwatcom-1.9/bld/clib/kanji/c/fjstrncp.c)
6fe10c70       _fjstrncpy_
Module: /mnt/sda5/.user/root/src/openwatcom-1.9/bld/clib/library/winnt.386/mf_rd/clib3r.lib(/mnt/sda5/.user/root/src/openwatcom-1.9/bld/clib/kanji/c/fjstrnic.c)
6fe10dd0       _fjstrnicmp_
Module: /mnt/sda5/.user/root/src/openwatcom-1.9/bld/clib/library/winnt.386/mf_rd/clib3r.lib(/mnt/sda5/.user/root/src/openwatcom-1.9/bld/clib/kanji/c/fjstrnse.c)
6fe10f60       _fjstrnset_
Module: /mnt/sda5/.user/root/src/openwatcom-1.9/bld/clib/library/winnt.386/mf_rd/clib3r.lib(/mnt/sda5/.user/root/src/openwatcom-1.9/bld/clib/kanji/c/fjstrrch.c)
6fe11160       _fjstrrchr_
Module: /mnt/sda5/.user/root/src/openwatcom-1.9/bld/clib/library/winnt.386/mf_rd/clib3r.lib(/mnt/sda5/.user/root/src/openwatcom-1.9/bld/clib/kanji/c/fjstrrev.c)
6fe111f0       _fjstrrev_
Module: /mnt/sda5/.user/root/src/openwatcom-1.9/bld/clib/library/winnt.386/mf_rd/clib3r.lib(/mnt/sda5/.user/root/src/openwatcom-1.9/bld/clib/kanji/c/fjstrset.c)
6fe11350       _fjstrset_
Module: /mnt/sda5/.user/root/src/openwatcom-1.9/bld/clib/library/winnt.386/mf_rd/clib3r.lib(/mnt/sda5/.user/root/src/openwatcom-1.9/bld/clib/kanji/c/fjstrski.c)
6fe11420       _fjstrskip_
Module: /mnt/sda5/.user/root/src/openwatcom-1.9/bld/clib/library/winnt.386/mf_rd/clib3r.lib(/mnt/sda5/.user/root/src/openwatcom-1.9/bld/clib/kanji/c/fjstrspn.c)
6fe114f0       _fjstrspn_
Module: /mnt/sda5/.user/root/src/openwatcom-1.9/bld/clib/library/winnt.386/mf_rd/clib3r.lib(/mnt/sda5/.user/root/src/openwatcom-1.9/bld/clib/kanji/c/fjstrstr.c)
6fe115a0       _fjstrstr_
Module: /mnt/sda5/.user/root/src/openwatcom-1.9/bld/clib/library/winnt.386/mf_rd/clib3r.lib(/mnt/sda5/.user/root/src/openwatcom-1.9/bld/clib/kanji/c/fjstrtok.c)
6fe11750       _fjstrtok_
Module: /mnt/sda5/.user/root/src/openwatcom-1.9/bld/clib/library/winnt.386/mf_rd/clib3r.lib(/mnt/sda5/.user/root/src/openwatcom-1.9/bld/clib/kanji/c/fjstrupr.c)
6fe11920       _fjstrupr_
Module: /mnt/sda5/.user/root/src/openwatcom-1.9/bld/clib/library/winnt.386/mf_rd/clib3r.lib(/mnt/sda5/.user/root/src/openwatcom-1.9/bld/clib/kanji/c/fmtob.c)
6fe119d0       _fmtob_
Module: /mnt/sda5/.user/root/src/openwatcom-1.9/bld/clib/library/winnt.386/mf_rd/clib3r.lib(/mnt/sda5/.user/root/src/openwatcom-1.9/bld/clib/kanji/c/fnthctyp.c)
6fe11a40       _fnthctype_
Module: /mnt/sda5/.user/root/src/openwatcom-1.9/bld/clib/library/winnt.386/mf_rd/clib3r.lib(/mnt/sda5/.user/root/src/openwatcom-1.9/bld/clib/kanji/c/hantozen.c)
6fe11ab0       hantozen_
6fe11b00       zentohan_
Module: /mnt/sda5/.user/root/src/openwatcom-1.9/bld/clib/library/winnt.386/mf_rd/clib3r.lib(/mnt/sda5/.user/root/src/openwatcom-1.9/bld/clib/kanji/c/isktable.c)
6fe11b60       __IsKTable
Module: /mnt/sda5/.user/root/src/openwatcom-1.9/bld/clib/library/winnt.386/mf_rd/clib3r.lib(/mnt/sda5/.user/root/src/openwatcom-1.9/bld/clib/kanji/c/ismbdaln.c)
6fe11c70       _ismbdalnum_
Module: /mnt/sda5/.user/root/src/openwatcom-1.9/bld/clib/library/winnt.386/mf_rd/clib3r.lib(/mnt/sda5/.user/root/src/openwatcom-1.9/bld/clib/kanji/c/ismbdalp.c)
6fe11cc0       _ismbdalpha_
Module: /mnt/sda5/.user/root/src/openwatcom-1.9/bld/clib/library/winnt.386/mf_rd/clib3r.lib(/mnt/sda5/.user/root/src/openwatcom-1.9/bld/clib/kanji/c/ismbddig.c)
6fe11d40       _ismbddigit_
Module: /mnt/sda5/.user/root/src/openwatcom-1.9/bld/clib/library/winnt.386/mf_rd/clib3r.lib(/mnt/sda5/.user/root/src/openwatcom-1.9/bld/clib/kanji/c/ismbdgra.c)
6fe11db0       _ismbdgraph_
Module: /mnt/sda5/.user/root/src/openwatcom-1.9/bld/clib/library/winnt.386/mf_rd/clib3r.lib(/mnt/sda5/.user/root/src/openwatcom-1.9/bld/clib/kanji/c/ismbdhir.c)
6fe11e00       _ismbdhira_
Module: /mnt/sda5/.user/root/src/openwatcom-1.9/bld/clib/library/winnt.386/mf_rd/clib3r.lib(/mnt/sda5/.user/root/src/openwatcom-1.9/bld/clib/kanji/c/ismbdkan.c)
6fe11e50       _ismbdkana_
Module: /mnt/sda5/.user/root/src/openwatcom-1.9/bld/clib/library/winnt.386/mf_rd/clib3r.lib(/mnt/sda5/.user/root/src/openwatcom-1.9/bld/clib/kanji/c/ismbdlow.c)
6fe11eb0       _ismbdlower_
Module: /mnt/sda5/.user/root/src/openwatcom-1.9/bld/clib/library/winnt.386/mf_rd/clib3r.lib(/mnt/sda5/.user/root/src/openwatcom-1.9/bld/clib/kanji/c/ismbdpri.c)
6fe11f20       _ismbdprint_
Module: /mnt/sda5/.user/root/src/openwatcom-1.9/bld/clib/library/winnt.386/mf_rd/clib3r.lib(/mnt/sda5/.user/root/src/openwatcom-1.9/bld/clib/kanji/c/ismbdpun.c)
6fe11f70       _ismbdpunct_
Module: /mnt/sda5/.user/root/src/openwatcom-1.9/bld/clib/library/winnt.386/mf_rd/clib3r.lib(/mnt/sda5/.user/root/src/openwatcom-1.9/bld/clib/kanji/c/ismbdspa.c)
6fe11fc0       _ismbdspace_
Module: /mnt/sda5/.user/root/src/openwatcom-1.9/bld/clib/library/winnt.386/mf_rd/clib3r.lib(/mnt/sda5/.user/root/src/openwatcom-1.9/bld/clib/kanji/c/ismbdupp.c)
6fe12030       _ismbdupper_
Module: /mnt/sda5/.user/root/src/openwatcom-1.9/bld/clib/library/winnt.386/mf_rd/clib3r.lib(/mnt/sda5/.user/root/src/openwatcom-1.9/bld/clib/kanji/c/ismbdxdi.c)
6fe120a0       _ismbdxdigit_
Module: /mnt/sda5/.user/root/src/openwatcom-1.9/bld/clib/library/winnt.386/mf_rd/clib3r.lib(/mnt/sda5/.user/root/src/openwatcom-1.9/bld/clib/kanji/c/jasctime.c)
6fe12170       jasctime_
Module: /mnt/sda5/.user/root/src/openwatcom-1.9/bld/clib/library/winnt.386/mf_rd/clib3r.lib(/mnt/sda5/.user/root/src/openwatcom-1.9/bld/clib/kanji/c/jctime.c)
6fe121f0       jctime_
Module: /mnt/sda5/.user/root/src/openwatcom-1.9/bld/clib/library/winnt.386/mf_rd/clib3r.lib(/mnt/sda5/.user/root/src/openwatcom-1.9/bld/clib/kanji/c/jgetmoji.c)
6fe12220       jgetmoji_
Module: /mnt/sda5/.user/root/src/openwatcom-1.9/bld/clib/library/winnt.386/mf_rd/clib3r.lib(/mnt/sda5/.user/root/src/openwatcom-1.9/bld/clib/kanji/c/jisalpha.c)
6fe122a0       jisalpha_
Module: /mnt/sda5/.user/root/src/openwatcom-1.9/bld/clib/library/winnt.386/mf_rd/clib3r.lib(/mnt/sda5/.user/root/src/openwatcom-1.9/bld/clib/kanji/c/jisdigit.c)
6fe12300       jisdigit_
Module: /mnt/sda5/.user/root/src/openwatcom-1.9/bld/clib/library/winnt.386/mf_rd/clib3r.lib(/mnt/sda5/.user/root/src/openwatcom-1.9/bld/clib/kanji/c/jishira.c)
6fe12350       jishira_
Module: /mnt/sda5/.user/root/src/openwatcom-1.9/bld/clib/library/winnt.386/mf_rd/clib3r.lib(/mnt/sda5/.user/root/src/openwatcom-1.9/bld/clib/kanji/c/jiskana.c)
6fe123a0       jiskana_
Module: /mnt/sda5/.user/root/src/openwatcom-1.9/bld/clib/library/winnt.386/mf_rd/clib3r.lib(/mnt/sda5/.user/root/src/openwatcom-1.9/bld/clib/kanji/c/jiskigou.c)
6fe123f0       jiskigou_
Module: /mnt/sda5/.user/root/src/openwatcom-1.9/bld/clib/library/winnt.386/mf_rd/clib3r.lib(/mnt/sda5/.user/root/src/openwatcom-1.9/bld/clib/kanji/c/jisl0.c)
6fe12440       jisl0_
Module: /mnt/sda5/.user/root/src/openwatcom-1.9/bld/clib/library/winnt.386/mf_rd/clib3r.lib(/mnt/sda5/.user/root/src/openwatcom-1.9/bld/clib/kanji/c/jisl1.c)
6fe12490       jisl1_
Module: /mnt/sda5/.user/root/src/openwatcom-1.9/bld/clib/library/winnt.386/mf_rd/clib3r.lib(/mnt/sda5/.user/root/src/openwatcom-1.9/bld/clib/kanji/c/jisl2.c)
6fe124f0       jisl2_
Module: /mnt/sda5/.user/root/src/openwatcom-1.9/bld/clib/library/winnt.386/mf_rd/clib3r.lib(/mnt/sda5/.user/root/src/openwatcom-1.9/bld/clib/kanji/c/jislower.c)
6fe12550       jislower_
Module: /mnt/sda5/.user/root/src/openwatcom-1.9/bld/clib/library/winnt.386/mf_rd/clib3r.lib(/mnt/sda5/.user/root/src/openwatcom-1.9/bld/clib/kanji/c/jisprint.c)
6fe125a0       jisprint_
Module: /mnt/sda5/.user/root/src/openwatcom-1.9/bld/clib/library/winnt.386/mf_rd/clib3r.lib(/mnt/sda5/.user/root/src/openwatcom-1.9/bld/clib/kanji/c/jisspace.c)
6fe12610       jisspace_
Module: /mnt/sda5/.user/root/src/openwatcom-1.9/bld/clib/library/winnt.386/mf_rd/clib3r.lib(/mnt/sda5/.user/root/src/openwatcom-1.9/bld/clib/kanji/c/jistojms.c)
6fe12650       _mbcjistojms_
6fe12680       jistojms_
Module: /mnt/sda5/.user/root/src/openwatcom-1.9/bld/clib/library/winnt.386/mf_rd/clib3r.lib(/mnt/sda5/.user/root/src/openwatcom-1.9/bld/clib/kanji/c/jisupper.c)
6fe12760       jisupper_
Module: /mnt/sda5/.user/root/src/openwatcom-1.9/bld/clib/library/winnt.386/mf_rd/clib3r.lib(/mnt/sda5/.user/root/src/openwatcom-1.9/bld/clib/kanji/c/jiszen.c)
6fe127b0       jiszen_
Module: /mnt/sda5/.user/root/src/openwatcom-1.9/bld/clib/library/winnt.386/mf_rd/clib3r.lib(/mnt/sda5/.user/root/src/openwatcom-1.9/bld/clib/kanji/c/jmstojis.c)
6fe12810       _mbcjmstojis_
6fe12840       jmstojis_
Module: /mnt/sda5/.user/root/src/openwatcom-1.9/bld/clib/library/winnt.386/mf_rd/clib3r.lib(/mnt/sda5/.user/root/src/openwatcom-1.9/bld/clib/kanji/c/jperror.c)
6fe12930       jperror_
Module: /mnt/sda5/.user/root/src/openwatcom-1.9/bld/clib/library/winnt.386/mf_rd/clib3r.lib(/mnt/sda5/.user/root/src/openwatcom-1.9/bld/clib/kanji/c/jputmoji.c)
6fe129a0       jputmoji_
Module: /mnt/sda5/.user/root/src/openwatcom-1.9/bld/clib/library/winnt.386/mf_rd/clib3r.lib(/mnt/sda5/.user/root/src/openwatcom-1.9/bld/clib/kanji/c/jstradv.c)
6fe129f0       jstradv_
Module: /mnt/sda5/.user/root/src/openwatcom-1.9/bld/clib/library/winnt.386/mf_rd/clib3r.lib(/mnt/sda5/.user/root/src/openwatcom-1.9/bld/clib/kanji/c/jstrcat.c)
6fe12a30       jstrncat_
6fe12ab0       jstrcat_
Module: /mnt/sda5/.user/root/src/openwatcom-1.9/bld/clib/library/winnt.386/mf_rd/clib3r.lib(/mnt/sda5/.user/root/src/openwatcom-1.9/bld/clib/kanji/c/jstrchr.c)
6fe12af0       jstrchr_
Module: /mnt/sda5/.user/root/src/openwatcom-1.9/bld/clib/library/winnt.386/mf_rd/clib3r.lib(/mnt/sda5/.user/root/src/openwatcom-1.9/bld/clib/kanji/c/jstrcmp.c)
6fe12b50       jstrcmp_
Module: /mnt/sda5/.user/root/src/openwatcom-1.9/bld/clib/library/winnt.386/mf_rd/clib3r.lib(/mnt/sda5/.user/root/src/openwatcom-1.9/bld/clib/kanji/c/jstrcspn.c)
6fe12bd0       jstrcspn_
Module: /mnt/sda5/.user/root/src/openwatcom-1.9/bld/clib/library/winnt.386/mf_rd/clib3r.lib(/mnt/sda5/.user/root/src/openwatcom-1.9/bld/clib/kanji/c/jstrerro.c)
6fe13020       jstrerror_
6fe4d454+      _jsys_errlist
6fe4d4f8+      _jsys_nerr
Module: /mnt/sda5/.user/root/src/openwatcom-1.9/bld/clib/library/winnt.386/mf_rd/clib3r.lib(/mnt/sda5/.user/root/src/openwatcom-1.9/bld/clib/kanji/c/jstricmp.c)
6fe13070       jstricmp_
Module: /mnt/sda5/.user/root/src/openwatcom-1.9/bld/clib/library/winnt.386/mf_rd/clib3r.lib(/mnt/sda5/.user/root/src/openwatcom-1.9/bld/clib/kanji/c/jstrlen.c)
6fe13140       jstrlen_
Module: /mnt/sda5/.user/root/src/openwatcom-1.9/bld/clib/library/winnt.386/mf_rd/clib3r.lib(/mnt/sda5/.user/root/src/openwatcom-1.9/bld/clib/kanji/c/jstrlwr.c)
6fe13190       jstrlwr_
Module: /mnt/sda5/.user/root/src/openwatcom-1.9/bld/clib/library/winnt.386/mf_rd/clib3r.lib(/mnt/sda5/.user/root/src/openwatcom-1.9/bld/clib/kanji/c/jstrmatc.c)
6fe13200       jstrmatch_
Module: /mnt/sda5/.user/root/src/openwatcom-1.9/bld/clib/library/winnt.386/mf_rd/clib3r.lib(/mnt/sda5/.user/root/src/openwatcom-1.9/bld/clib/kanji/c/jstrncmp.c)
6fe13270       jstrncmp_
Module: /mnt/sda5/.user/root/src/openwatcom-1.9/bld/clib/library/winnt.386/mf_rd/clib3r.lib(/mnt/sda5/.user/root/src/openwatcom-1.9/bld/clib/kanji/c/jstrncpy.c)
6fe13300       jstrncpy_
Module: /mnt/sda5/.user/root/src/openwatcom-1.9/bld/clib/library/winnt.386/mf_rd/clib3r.lib(/mnt/sda5/.user/root/src/openwatcom-1.9/bld/clib/kanji/c/jstrnicm.c)
6fe133d0       jstrnicmp_
Module: /mnt/sda5/.user/root/src/openwatcom-1.9/bld/clib/library/winnt.386/mf_rd/clib3r.lib(/mnt/sda5/.user/root/src/openwatcom-1.9/bld/clib/kanji/c/jstrnset.c)
6fe134c0       jstrnset_
Module: /mnt/sda5/.user/root/src/openwatcom-1.9/bld/clib/library/winnt.386/mf_rd/clib3r.lib(/mnt/sda5/.user/root/src/openwatcom-1.9/bld/clib/kanji/c/jstrrchr.c)
6fe13640       jstrrchr_
Module: /mnt/sda5/.user/root/src/openwatcom-1.9/bld/clib/library/winnt.386/mf_rd/clib3r.lib(/mnt/sda5/.user/root/src/openwatcom-1.9/bld/clib/kanji/c/jstrrev.c)
6fe136a0       jstrrev_
Module: /mnt/sda5/.user/root/src/openwatcom-1.9/bld/clib/library/winnt.386/mf_rd/clib3r.lib(/mnt/sda5/.user/root/src/openwatcom-1.9/bld/clib/kanji/c/jstrset.c)
6fe13770       jstrset_
Module: /mnt/sda5/.user/root/src/openwatcom-1.9/bld/clib/library/winnt.386/mf_rd/clib3r.lib(/mnt/sda5/.user/root/src/openwatcom-1.9/bld/clib/kanji/c/jstrskip.c)
6fe13800       jstrskip_
Module: /mnt/sda5/.user/root/src/openwatcom-1.9/bld/clib/library/winnt.386/mf_rd/clib3r.lib(/mnt/sda5/.user/root/src/openwatcom-1.9/bld/clib/kanji/c/jstrspn.c)
6fe13880       jstrspn_
Module: /mnt/sda5/.user/root/src/openwatcom-1.9/bld/clib/library/winnt.386/mf_rd/clib3r.lib(/mnt/sda5/.user/root/src/openwatcom-1.9/bld/clib/kanji/c/jstrstr.c)
6fe13900       jstrstr_
Module: /mnt/sda5/.user/root/src/openwatcom-1.9/bld/clib/library/winnt.386/mf_rd/clib3r.lib(/mnt/sda5/.user/root/src/openwatcom-1.9/bld/clib/kanji/c/jstrtok.c)
6fe139e0       jstrtok_
Module: /mnt/sda5/.user/root/src/openwatcom-1.9/bld/clib/library/winnt.386/mf_rd/clib3r.lib(/mnt/sda5/.user/root/src/openwatcom-1.9/bld/clib/kanji/c/jstrupr.c)
6fe13ae0       jstrupr_
Module: /mnt/sda5/.user/root/src/openwatcom-1.9/bld/clib/library/winnt.386/mf_rd/clib3r.lib(/mnt/sda5/.user/root/src/openwatcom-1.9/bld/clib/kanji/c/jtohira.c)
6fe13b50       _mbctohira_
6fe13b80       jtohira_
Module: /mnt/sda5/.user/root/src/openwatcom-1.9/bld/clib/library/winnt.386/mf_rd/clib3r.lib(/mnt/sda5/.user/root/src/openwatcom-1.9/bld/clib/kanji/c/jtokata.c)
6fe13be0       _mbctokata_
6fe13c10       jtokata_
Module: /mnt/sda5/.user/root/src/openwatcom-1.9/bld/clib/library/winnt.386/mf_rd/clib3r.lib(/mnt/sda5/.user/root/src/openwatcom-1.9/bld/clib/kanji/c/jtolower.c)
6fe13c70       jtolower_
Module: /mnt/sda5/.user/root/src/openwatcom-1.9/bld/clib/library/winnt.386/mf_rd/clib3r.lib(/mnt/sda5/.user/root/src/openwatcom-1.9/bld/clib/kanji/c/jtoupper.c)
6fe13cc0       jtoupper_
Module: /mnt/sda5/.user/root/src/openwatcom-1.9/bld/clib/library/winnt.386/mf_rd/clib3r.lib(/mnt/sda5/.user/root/src/openwatcom-1.9/bld/clib/kanji/c/mbdhanto.c)
6fe13d10       _mbdhantozen_
Module: /mnt/sda5/.user/root/src/openwatcom-1.9/bld/clib/library/winnt.386/mf_rd/clib3r.lib(/mnt/sda5/.user/root/src/openwatcom-1.9/bld/clib/kanji/c/mbdtolow.c)
6fe13d80       _mbdtolower_
Module: /mnt/sda5/.user/root/src/openwatcom-1.9/bld/clib/library/winnt.386/mf_rd/clib3r.lib(/mnt/sda5/.user/root/src/openwatcom-1.9/bld/clib/kanji/c/mbdtoupp.c)
6fe13dc0       _mbdtoupper_
Module: /mnt/sda5/.user/root/src/openwatcom-1.9/bld/clib/library/winnt.386/mf_rd/clib3r.lib(/mnt/sda5/.user/root/src/openwatcom-1.9/bld/clib/kanji/c/mbdzento.c)
6fe13e10       _mbdzentohan_
Module: /mnt/sda5/.user/root/src/openwatcom-1.9/bld/clib/library/winnt.386/mf_rd/clib3r.lib(/mnt/sda5/.user/root/src/openwatcom-1.9/bld/clib/kanji/c/mbisl0.c)
6fe13e80       _ismbcl0_
Module: /mnt/sda5/.user/root/src/openwatcom-1.9/bld/clib/library/winnt.386/mf_rd/clib3r.lib(/mnt/sda5/.user/root/src/openwatcom-1.9/bld/clib/kanji/c/mbisl1.c)
6fe13ed0       _ismbcl1_
Module: /mnt/sda5/.user/root/src/openwatcom-1.9/bld/clib/library/winnt.386/mf_rd/clib3r.lib(/mnt/sda5/.user/root/src/openwatcom-1.9/bld/clib/kanji/c/mbisl2.c)
6fe13f30       _ismbcl2_
Module: /mnt/sda5/.user/root/src/openwatcom-1.9/bld/clib/library/winnt.386/mf_rd/clib3r.lib(/mnt/sda5/.user/root/src/openwatcom-1.9/bld/clib/kanji/c/mtob.c)
6fe13f90       mtob_
Module: /mnt/sda5/.user/root/src/openwatcom-1.9/bld/clib/library/winnt.386/mf_rd/clib3r.lib(/mnt/sda5/.user/root/src/openwatcom-1.9/bld/clib/kanji/c/nthctype.c)
6fe13fe0       nthctype_
Module: /mnt/sda5/.user/root/src/openwatcom-1.9/bld/clib/library/winnt.386/mf_rd/clib3r.lib(/mnt/sda5/.user/root/src/openwatcom-1.9/bld/clib/libwin32/c/getmodfn.c)
6fe14040       __lib_GetModuleFileNameW_
Module: /mnt/sda5/.user/root/src/openwatcom-1.9/bld/clib/library/winnt.386/mf_rd/clib3r.lib(/mnt/sda5/.user/root/src/openwatcom-1.9/bld/clib/math/c/abs.c)
6fe14120       abs_
Module: /mnt/sda5/.user/root/src/openwatcom-1.9/bld/clib/library/winnt.386/mf_rd/clib3r.lib(/mnt/sda5/.user/root/src/openwatcom-1.9/bld/clib/math/c/hvalptr.c)
6fe14150       __get_HugeValue_ptr_
Module: /mnt/sda5/.user/root/src/openwatcom-1.9/bld/clib/library/winnt.386/mf_rd/clib3r.lib(/mnt/sda5/.user/root/src/openwatcom-1.9/bld/clib/math/c/hugeval.c)
6fe14180       __HugeValue
Module: /mnt/sda5/.user/root/src/openwatcom-1.9/bld/clib/library/winnt.386/mf_rd/clib3r.lib(/mnt/sda5/.user/root/src/openwatcom-1.9/bld/clib/math/c/imaxabs.c)
6fe14190       imaxabs_
Module: /mnt/sda5/.user/root/src/openwatcom-1.9/bld/clib/library/winnt.386/mf_rd/clib3r.lib(/mnt/sda5/.user/root/src/openwatcom-1.9/bld/clib/math/c/imaxdiv.c)
6fe141e0       imaxdiv_
Module: /mnt/sda5/.user/root/src/openwatcom-1.9/bld/clib/library/winnt.386/mf_rd/clib3r.lib(/mnt/sda5/.user/root/src/openwatcom-1.9/bld/clib/math/c/labs.c)
6fe14250       labs_
Module: /mnt/sda5/.user/root/src/openwatcom-1.9/bld/clib/library/winnt.386/mf_rd/clib3r.lib(/mnt/sda5/.user/root/src/openwatcom-1.9/bld/clib/math/c/llabs.c)
6fe14280       llabs_
Module: /mnt/sda5/.user/root/src/openwatcom-1.9/bld/clib/library/winnt.386/mf_rd/clib3r.lib(/mnt/sda5/.user/root/src/openwatcom-1.9/bld/clib/math/c/max.c)
6fe142d0       max_
Module: /mnt/sda5/.user/root/src/openwatcom-1.9/bld/clib/library/winnt.386/mf_rd/clib3r.lib(/mnt/sda5/.user/root/src/openwatcom-1.9/bld/clib/math/c/min.c)
6fe14310       min_
Module: /mnt/sda5/.user/root/src/openwatcom-1.9/bld/clib/library/winnt.386/mf_rd/clib3r.lib(/mnt/sda5/.user/root/src/openwatcom-1.9/bld/clib/math/c/rand.c)
6fe14350       rand_
6fe143b0       srand_
Module: /mnt/sda5/.user/root/src/openwatcom-1.9/bld/clib/library/winnt.386/mf_rd/clib3r.lib(/mnt/sda5/.user/root/src/openwatcom-1.9/bld/clib/mbyte/c/btowc.c)
6fe143f0       btowc_
Module: /mnt/sda5/.user/root/src/openwatcom-1.9/bld/clib/library/winnt.386/mf_rd/clib3r.lib(/mnt/sda5/.user/root/src/openwatcom-1.9/bld/clib/mbyte/c/fmbccmp.c)
6fe14450       _fmbccmp_
Module: /mnt/sda5/.user/root/src/openwatcom-1.9/bld/clib/library/winnt.386/mf_rd/clib3r.lib(/mnt/sda5/.user/root/src/openwatcom-1.9/bld/clib/mbyte/c/fmbccpy.c)
6fe14500       _fmbccpy_
Module: /mnt/sda5/.user/root/src/openwatcom-1.9/bld/clib/library/winnt.386/mf_rd/clib3r.lib(/mnt/sda5/.user/root/src/openwatcom-1.9/bld/clib/mbyte/c/fmbcicmp.c)
6fe14590       _fmbcicmp_
Module: /mnt/sda5/.user/root/src/openwatcom-1.9/bld/clib/library/winnt.386/mf_rd/clib3r.lib(/mnt/sda5/.user/root/src/openwatcom-1.9/bld/clib/mbyte/c/fmbclen.c)
6fe14620       _fmbclen_
Module: /mnt/sda5/.user/root/src/openwatcom-1.9/bld/clib/library/winnt.386/mf_rd/clib3r.lib(/mnt/sda5/.user/root/src/openwatcom-1.9/bld/clib/mbyte/c/fmbconv.c)
6fe14690       _fmbvtop_
Module: /mnt/sda5/.user/root/src/openwatcom-1.9/bld/clib/library/winnt.386/mf_rd/clib3r.lib(/mnt/sda5/.user/root/src/openwatcom-1.9/bld/clib/mbyte/c/fmbgetco.c)
6fe14700       _fmbgetcode_
Module: /mnt/sda5/.user/root/src/openwatcom-1.9/bld/clib/library/winnt.386/mf_rd/clib3r.lib(/mnt/sda5/.user/root/src/openwatcom-1.9/bld/clib/mbyte/c/fmblen.c)
6fe14810       _fmblen_
Module: /mnt/sda5/.user/root/src/openwatcom-1.9/bld/clib/library/winnt.386/mf_rd/clib3r.lib(/mnt/sda5/.user/root/src/openwatcom-1.9/bld/clib/mbyte/c/fmbputch.c)
6fe14850       _fmbputchar_
Module: /mnt/sda5/.user/root/src/openwatcom-1.9/bld/clib/library/winnt.386/mf_rd/clib3r.lib(/mnt/sda5/.user/root/src/openwatcom-1.9/bld/clib/mbyte/c/fmbrlen.c)
6fe148f0       _fmbrlen_
Module: /mnt/sda5/.user/root/src/openwatcom-1.9/bld/clib/library/winnt.386/mf_rd/clib3r.lib(/mnt/sda5/.user/root/src/openwatcom-1.9/bld/clib/mbyte/c/fmbrtowc.c)
6fe14940       _fmbrtowc_
Module: /mnt/sda5/.user/root/src/openwatcom-1.9/bld/clib/library/winnt.386/mf_rd/clib3r.lib(/mnt/sda5/.user/root/src/openwatcom-1.9/bld/clib/mbyte/c/fmbsbtyp.c)
6fe14a20       _fmbsbtype_
Module: /mnt/sda5/.user/root/src/openwatcom-1.9/bld/clib/library/winnt.386/mf_rd/clib3r.lib(/mnt/sda5/.user/root/src/openwatcom-1.9/bld/clib/mbyte/c/fmbscat.c)
6fe14aa0       _fmbscat_
Module: /mnt/sda5/.user/root/src/openwatcom-1.9/bld/clib/library/winnt.386/mf_rd/clib3r.lib(/mnt/sda5/.user/root/src/openwatcom-1.9/bld/clib/mbyte/c/fmbschr.c)
6fe14af0       _fmbschr_
Module: /mnt/sda5/.user/root/src/openwatcom-1.9/bld/clib/library/winnt.386/mf_rd/clib3r.lib(/mnt/sda5/.user/root/src/openwatcom-1.9/bld/clib/mbyte/c/fmbscmp.c)
6fe14bc0       _fmbscmp_
Module: /mnt/sda5/.user/root/src/openwatcom-1.9/bld/clib/library/winnt.386/mf_rd/clib3r.lib(/mnt/sda5/.user/root/src/openwatcom-1.9/bld/clib/mbyte/c/fmbscpy.c)
6fe14cc0       _fmbscpy_
Module: /mnt/sda5/.user/root/src/openwatcom-1.9/bld/clib/library/winnt.386/mf_rd/clib3r.lib(/mnt/sda5/.user/root/src/openwatcom-1.9/bld/clib/mbyte/c/fmbscspn.c)
6fe14d10       _fmbscspn_
Module: /mnt/sda5/.user/root/src/openwatcom-1.9/bld/clib/library/winnt.386/mf_rd/clib3r.lib(/mnt/sda5/.user/root/src/openwatcom-1.9/bld/clib/mbyte/c/fmbsdup.c)
6fe14db0       _fmbsdup_
Module: /mnt/sda5/.user/root/src/openwatcom-1.9/bld/clib/library/winnt.386/mf_rd/clib3r.lib(/mnt/sda5/.user/root/src/openwatcom-1.9/bld/clib/mbyte/c/fmbsdec.c)
6fe14e30       _fmbsdec_
Module: /mnt/sda5/.user/root/src/openwatcom-1.9/bld/clib/library/winnt.386/mf_rd/clib3r.lib(/mnt/sda5/.user/root/src/openwatcom-1.9/bld/clib/mbyte/c/fmbsicmp.c)
6fe14f40       _fmbsicmp_
Module: /mnt/sda5/.user/root/src/openwatcom-1.9/bld/clib/library/winnt.386/mf_rd/clib3r.lib(/mnt/sda5/.user/root/src/openwatcom-1.9/bld/clib/mbyte/c/fmbsinc.c)
6fe15040       _fmbsinc_
Module: /mnt/sda5/.user/root/src/openwatcom-1.9/bld/clib/library/winnt.386/mf_rd/clib3r.lib(/mnt/sda5/.user/root/src/openwatcom-1.9/bld/clib/mbyte/c/_fmbslen.c)
6fe150d0       __fmbslen_
Module: /mnt/sda5/.user/root/src/openwatcom-1.9/bld/clib/library/winnt.386/mf_rd/clib3r.lib(/mnt/sda5/.user/root/src/openwatcom-1.9/bld/clib/mbyte/c/fmbslen.c)
6fe15190       _fmbslen_
Module: /mnt/sda5/.user/root/src/openwatcom-1.9/bld/clib/library/winnt.386/mf_rd/clib3r.lib(/mnt/sda5/.user/root/src/openwatcom-1.9/bld/clib/mbyte/c/fmbslwr.c)
6fe15200       _fmbslwr_
Module: /mnt/sda5/.user/root/src/openwatcom-1.9/bld/clib/library/winnt.386/mf_rd/clib3r.lib(/mnt/sda5/.user/root/src/openwatcom-1.9/bld/clib/mbyte/c/fmbsnbca.c)
6fe152e0       _fmbsnbcat_
Module: /mnt/sda5/.user/root/src/openwatcom-1.9/bld/clib/library/winnt.386/mf_rd/clib3r.lib(/mnt/sda5/.user/root/src/openwatcom-1.9/bld/clib/mbyte/c/fmbsnbcm.c)
6fe154d0       _fmbsnbcmp_
Module: /mnt/sda5/.user/root/src/openwatcom-1.9/bld/clib/library/winnt.386/mf_rd/clib3r.lib(/mnt/sda5/.user/root/src/openwatcom-1.9/bld/clib/mbyte/c/fmbsnbcn.c)
6fe155f0       _fmbsnbcnt_
Module: /mnt/sda5/.user/root/src/openwatcom-1.9/bld/clib/library/winnt.386/mf_rd/clib3r.lib(/mnt/sda5/.user/root/src/openwatcom-1.9/bld/clib/mbyte/c/fmbsnbcp.c)
6fe156d0       _fmbsnbcpy_
Module: /mnt/sda5/.user/root/src/openwatcom-1.9/bld/clib/library/winnt.386/mf_rd/clib3r.lib(/mnt/sda5/.user/root/src/openwatcom-1.9/bld/clib/mbyte/c/fmbsnbic.c)
6fe157d0       _fmbsnbicmp_
Module: /mnt/sda5/.user/root/src/openwatcom-1.9/bld/clib/library/winnt.386/mf_rd/clib3r.lib(/mnt/sda5/.user/root/src/openwatcom-1.9/bld/clib/mbyte/c/fmbsnbst.c)
6fe158f0       _fmbsnbset_
Module: /mnt/sda5/.user/root/src/openwatcom-1.9/bld/clib/library/winnt.386/mf_rd/clib3r.lib(/mnt/sda5/.user/root/src/openwatcom-1.9/bld/clib/mbyte/c/fmbsncat.c)
6fe159c0       _fmbsncat_
Module: /mnt/sda5/.user/root/src/openwatcom-1.9/bld/clib/library/winnt.386/mf_rd/clib3r.lib(/mnt/sda5/.user/root/src/openwatcom-1.9/bld/clib/mbyte/c/fmbsnccn.c)
6fe15a60       _fmbsnccnt_
Module: /mnt/sda5/.user/root/src/openwatcom-1.9/bld/clib/library/winnt.386/mf_rd/clib3r.lib(/mnt/sda5/.user/root/src/openwatcom-1.9/bld/clib/mbyte/c/fmbsncmp.c)
6fe15af0       _fmbsncmp_
Module: /mnt/sda5/.user/root/src/openwatcom-1.9/bld/clib/library/winnt.386/mf_rd/clib3r.lib(/mnt/sda5/.user/root/src/openwatcom-1.9/bld/clib/mbyte/c/fmbsncpy.c)
6fe15c10       _fmbsncpy_
Module: /mnt/sda5/.user/root/src/openwatcom-1.9/bld/clib/library/winnt.386/mf_rd/clib3r.lib(/mnt/sda5/.user/root/src/openwatcom-1.9/bld/clib/mbyte/c/fmbsnxtc.c)
6fe15c80       _fmbsnextc_
Module: /mnt/sda5/.user/root/src/openwatcom-1.9/bld/clib/library/winnt.386/mf_rd/clib3r.lib(/mnt/sda5/.user/root/src/openwatcom-1.9/bld/clib/mbyte/c/fmbsnicm.c)
6fe15d00       _fmbsnicmp_
Module: /mnt/sda5/.user/root/src/openwatcom-1.9/bld/clib/library/winnt.386/mf_rd/clib3r.lib(/mnt/sda5/.user/root/src/openwatcom-1.9/bld/clib/mbyte/c/_fmbsnin.c)
6fe15df0       __fmbsninc_
Module: /mnt/sda5/.user/root/src/openwatcom-1.9/bld/clib/library/winnt.386/mf_rd/clib3r.lib(/mnt/sda5/.user/root/src/openwatcom-1.9/bld/clib/mbyte/c/fmbsninc.c)
6fe15eb0       _fmbsninc_
Module: /mnt/sda5/.user/root/src/openwatcom-1.9/bld/clib/library/winnt.386/mf_rd/clib3r.lib(/mnt/sda5/.user/root/src/openwatcom-1.9/bld/clib/mbyte/c/fmbsnset.c)
6fe15f30       _fmbsnset_
Module: /mnt/sda5/.user/root/src/openwatcom-1.9/bld/clib/library/winnt.386/mf_rd/clib3r.lib(/mnt/sda5/.user/root/src/openwatcom-1.9/bld/clib/mbyte/c/fmbspbrk.c)
6fe15fd0       _fmbspbrk_
Module: /mnt/sda5/.user/root/src/openwatcom-1.9/bld/clib/library/winnt.386/mf_rd/clib3r.lib(/mnt/sda5/.user/root/src/openwatcom-1.9/bld/clib/mbyte/c/fmbsrchr.c)
6fe16070       _fmbsrchr_
Module: /mnt/sda5/.user/root/src/openwatcom-1.9/bld/clib/library/winnt.386/mf_rd/clib3r.lib(/mnt/sda5/.user/root/src/openwatcom-1.9/bld/clib/mbyte/c/fmbsrev.c)
6fe16120       _fmbsrev_
Module: /mnt/sda5/.user/root/src/openwatcom-1.9/bld/clib/library/winnt.386/mf_rd/clib3r.lib(/mnt/sda5/.user/root/src/openwatcom-1.9/bld/clib/mbyte/c/fmbsrtow.c)
6fe162a0       _fmbsrtowcs_
Module: /mnt/sda5/.user/root/src/openwatcom-1.9/bld/clib/library/winnt.386/mf_rd/clib3r.lib(/mnt/sda5/.user/root/src/openwatcom-1.9/bld/clib/mbyte/c/fmbsrt_s.c)
6fe164d0       _fmbsrtowcs_s_
Module: /mnt/sda5/.user/root/src/openwatcom-1.9/bld/clib/library/winnt.386/mf_rd/clib3r.lib(/mnt/sda5/.user/root/src/openwatcom-1.9/bld/clib/mbyte/c/fmbsset.c)
6fe16940       _fmbsset_
Module: /mnt/sda5/.user/root/src/openwatcom-1.9/bld/clib/library/winnt.386/mf_rd/clib3r.lib(/mnt/sda5/.user/root/src/openwatcom-1.9/bld/clib/mbyte/c/fmbsspn.c)
6fe169a0       _fmbsspn_
Module: /mnt/sda5/.user/root/src/openwatcom-1.9/bld/clib/library/winnt.386/mf_rd/clib3r.lib(/mnt/sda5/.user/root/src/openwatcom-1.9/bld/clib/mbyte/c/fmbsspnp.c)
6fe16a40       _fmbsspnp_
Module: /mnt/sda5/.user/root/src/openwatcom-1.9/bld/clib/library/winnt.386/mf_rd/clib3r.lib(/mnt/sda5/.user/root/src/openwatcom-1.9/bld/clib/mbyte/c/fmbsstr.c)
6fe16ae0       _fmbsstr_
Module: /mnt/sda5/.user/root/src/openwatcom-1.9/bld/clib/library/winnt.386/mf_rd/clib3r.lib(/mnt/sda5/.user/root/src/openwatcom-1.9/bld/clib/mbyte/c/fmbstok.c)
6fe16b90       _fmbstok_
Module: /mnt/sda5/.user/root/src/openwatcom-1.9/bld/clib/library/winnt.386/mf_rd/clib3r.lib(/mnt/sda5/.user/root/src/openwatcom-1.9/bld/clib/mbyte/c/fmbsto_s.c)
6fe16e30       _fmbstowcs_s_
Module: /mnt/sda5/.user/root/src/openwatcom-1.9/bld/clib/library/winnt.386/mf_rd/clib3r.lib(/mnt/sda5/.user/root/src/openwatcom-1.9/bld/clib/mbyte/c/fmbstowc.c)
6fe17190       _fmbstowcs_
Module: /mnt/sda5/.user/root/src/openwatcom-1.9/bld/clib/library/winnt.386/mf_rd/clib3r.lib(/mnt/sda5/.user/root/src/openwatcom-1.9/bld/clib/mbyte/c/fmbsupr.c)
6fe172d0       _fmbsupr_
Module: /mnt/sda5/.user/root/src/openwatcom-1.9/bld/clib/library/winnt.386/mf_rd/clib3r.lib(/mnt/sda5/.user/root/src/openwatcom-1.9/bld/clib/mbyte/c/fmbterm.c)
6fe173b0       _fmbterm_
Module: /mnt/sda5/.user/root/src/openwatcom-1.9/bld/clib/library/winnt.386/mf_rd/clib3r.lib(/mnt/sda5/.user/root/src/openwatcom-1.9/bld/clib/mbyte/c/fmbtowc.c)
6fe17440       _fmbtowc_
Module: /mnt/sda5/.user/root/src/openwatcom-1.9/bld/clib/library/winnt.386/mf_rd/clib3r.lib(/mnt/sda5/.user/root/src/openwatcom-1.9/bld/clib/mbyte/c/fwcrtomb.c)
6fe17590       _fwcrtomb_
Module: /mnt/sda5/.user/root/src/openwatcom-1.9/bld/clib/library/winnt.386/mf_rd/clib3r.lib(/mnt/sda5/.user/root/src/openwatcom-1.9/bld/clib/mbyte/c/fwcrto_s.c)
6fe17660       _fwcrtomb_s_
Module: /mnt/sda5/.user/root/src/openwatcom-1.9/bld/clib/library/winnt.386/mf_rd/clib3r.lib(/mnt/sda5/.user/root/src/openwatcom-1.9/bld/clib/mbyte/c/fwcsrtom.c)
6fe17850       _fwcsrtombs_
Module: /mnt/sda5/.user/root/src/openwatcom-1.9/bld/clib/library/winnt.386/mf_rd/clib3r.lib(/mnt/sda5/.user/root/src/openwatcom-1.9/bld/clib/mbyte/c/fwcstomb.c)
6fe17a20       _fwcstombs_
Module: /mnt/sda5/.user/root/src/openwatcom-1.9/bld/clib/library/winnt.386/mf_rd/clib3r.lib(/mnt/sda5/.user/root/src/openwatcom-1.9/bld/clib/mbyte/c/fwcsto_s.c)
6fe17be0       _fwcstombs_s_
Module: /mnt/sda5/.user/root/src/openwatcom-1.9/bld/clib/library/winnt.386/mf_rd/clib3r.lib(/mnt/sda5/.user/root/src/openwatcom-1.9/bld/clib/mbyte/c/fwctomb.c)
6fe17f20       _fwctomb_
Module: /mnt/sda5/.user/root/src/openwatcom-1.9/bld/clib/library/winnt.386/mf_rd/clib3r.lib(/mnt/sda5/.user/root/src/openwatcom-1.9/bld/clib/mbyte/c/fwctom_s.c)
6fe17fc0       _fwctomb_s_
Module: /mnt/sda5/.user/root/src/openwatcom-1.9/bld/clib/library/winnt.386/mf_rd/clib3r.lib(/mnt/sda5/.user/root/src/openwatcom-1.9/bld/clib/mbyte/c/getmbcp.c)
6fe18110       _getmbcp_
Module: /mnt/sda5/.user/root/src/openwatcom-1.9/bld/clib/library/winnt.386/mf_rd/clib3r.lib(/mnt/sda5/.user/root/src/openwatcom-1.9/bld/clib/mbyte/c/ismbbaln.c)
6fe18150       _ismbbalnum_
Module: /mnt/sda5/.user/root/src/openwatcom-1.9/bld/clib/library/winnt.386/mf_rd/clib3r.lib(/mnt/sda5/.user/root/src/openwatcom-1.9/bld/clib/mbyte/c/ismbbalp.c)
6fe181c0       _ismbbalpha_
Module: /mnt/sda5/.user/root/src/openwatcom-1.9/bld/clib/library/winnt.386/mf_rd/clib3r.lib(/mnt/sda5/.user/root/src/openwatcom-1.9/bld/clib/mbyte/c/ismbbgra.c)
6fe18230       _ismbbgraph_
Module: /mnt/sda5/.user/root/src/openwatcom-1.9/bld/clib/library/winnt.386/mf_rd/clib3r.lib(/mnt/sda5/.user/root/src/openwatcom-1.9/bld/clib/mbyte/c/ismbbkal.c)
6fe182a0       _ismbbkalpha_
Module: /mnt/sda5/.user/root/src/openwatcom-1.9/bld/clib/library/winnt.386/mf_rd/clib3r.lib(/mnt/sda5/.user/root/src/openwatcom-1.9/bld/clib/mbyte/c/ismbbkan.c)
6fe182f0       _ismbbkana_
Module: /mnt/sda5/.user/root/src/openwatcom-1.9/bld/clib/library/winnt.386/mf_rd/clib3r.lib(/mnt/sda5/.user/root/src/openwatcom-1.9/bld/clib/mbyte/c/ismbbkpu.c)
6fe18340       _ismbbkpunct_
Module: /mnt/sda5/.user/root/src/openwatcom-1.9/bld/clib/library/winnt.386/mf_rd/clib3r.lib(/mnt/sda5/.user/root/src/openwatcom-1.9/bld/clib/mbyte/c/ismbbkpr.c)
6fe18390       _ismbbkprint_
Module: /mnt/sda5/.user/root/src/openwatcom-1.9/bld/clib/library/winnt.386/mf_rd/clib3r.lib(/mnt/sda5/.user/root/src/openwatcom-1.9/bld/clib/mbyte/c/ismbbpri.c)
6fe183e0       _ismbbprint_
Module: /mnt/sda5/.user/root/src/openwatcom-1.9/bld/clib/library/winnt.386/mf_rd/clib3r.lib(/mnt/sda5/.user/root/src/openwatcom-1.9/bld/clib/mbyte/c/ismbbpun.c)
6fe18450       _ismbbpunct_
Module: /mnt/sda5/.user/root/src/openwatcom-1.9/bld/clib/library/winnt.386/mf_rd/clib3r.lib(/mnt/sda5/.user/root/src/openwatcom-1.9/bld/clib/mbyte/c/ismbchir.c)
6fe184c0       _ismbchira_
Module: /mnt/sda5/.user/root/src/openwatcom-1.9/bld/clib/library/winnt.386/mf_rd/clib3r.lib(/mnt/sda5/.user/root/src/openwatcom-1.9/bld/clib/mbyte/c/ismbckat.c)
6fe18500       _ismbckata_
Module: /mnt/sda5/.user/root/src/openwatcom-1.9/bld/clib/library/winnt.386/mf_rd/clib3r.lib(/mnt/sda5/.user/root/src/openwatcom-1.9/bld/clib/mbyte/c/mbbtombc.c)
6fe18540       _mbbtombc_
Module: /mnt/sda5/.user/root/src/openwatcom-1.9/bld/clib/library/winnt.386/mf_rd/clib3r.lib(/mnt/sda5/.user/root/src/openwatcom-1.9/bld/clib/mbyte/c/mbctombb.c)
6fe18580       _mbctombb_
Module: /mnt/sda5/.user/root/src/openwatcom-1.9/bld/clib/library/winnt.386/mf_rd/clib3r.lib(/mnt/sda5/.user/root/src/openwatcom-1.9/bld/clib/mbyte/c/mbbtype.c)
6fe185c0       _mbbtype_
Module: /mnt/sda5/.user/root/src/openwatcom-1.9/bld/clib/library/winnt.386/mf_rd/clib3r.lib(/mnt/sda5/.user/root/src/openwatcom-1.9/bld/clib/mbyte/c/mbccmp.c)
6fe18710       _mbccmp_
Module: /mnt/sda5/.user/root/src/openwatcom-1.9/bld/clib/library/winnt.386/mf_rd/clib3r.lib(/mnt/sda5/.user/root/src/openwatcom-1.9/bld/clib/mbyte/c/mbccpy.c)
6fe187a0       _mbccpy_
Module: /mnt/sda5/.user/root/src/openwatcom-1.9/bld/clib/library/winnt.386/mf_rd/clib3r.lib(/mnt/sda5/.user/root/src/openwatcom-1.9/bld/clib/mbyte/c/mbcicmp.c)
6fe18810       _mbcicmp_
Module: /mnt/sda5/.user/root/src/openwatcom-1.9/bld/clib/library/winnt.386/mf_rd/clib3r.lib(/mnt/sda5/.user/root/src/openwatcom-1.9/bld/clib/mbyte/c/mbclen.c)
6fe18890       _mbclen_
Module: /mnt/sda5/.user/root/src/openwatcom-1.9/bld/clib/library/winnt.386/mf_rd/clib3r.lib(/mnt/sda5/.user/root/src/openwatcom-1.9/bld/clib/mbyte/c/mbclower.c)
6fe18900       _mbctolower_
Module: /mnt/sda5/.user/root/src/openwatcom-1.9/bld/clib/library/winnt.386/mf_rd/clib3r.lib(/mnt/sda5/.user/root/src/openwatcom-1.9/bld/clib/mbyte/c/mbconv.c)
6fe18950       _mbvtop_
Module: /mnt/sda5/.user/root/src/openwatcom-1.9/bld/clib/library/winnt.386/mf_rd/clib3r.lib(/mnt/sda5/.user/root/src/openwatcom-1.9/bld/clib/mbyte/c/mbcupper.c)
6fe189a0       _mbctoupper_
Module: /mnt/sda5/.user/root/src/openwatcom-1.9/bld/clib/library/winnt.386/mf_rd/clib3r.lib(/mnt/sda5/.user/root/src/openwatcom-1.9/bld/clib/mbyte/c/mbgetcod.c)
6fe189f0       _mbgetcode_
Module: /mnt/sda5/.user/root/src/openwatcom-1.9/bld/clib/library/winnt.386/mf_rd/clib3r.lib(/mnt/sda5/.user/root/src/openwatcom-1.9/bld/clib/mbyte/c/mbisalnu.c)
6fe18ac0       _ismbcalnum_
Module: /mnt/sda5/.user/root/src/openwatcom-1.9/bld/clib/library/winnt.386/mf_rd/clib3r.lib(/mnt/sda5/.user/root/src/openwatcom-1.9/bld/clib/mbyte/c/mbisalph.c)
6fe18b40       _ismbcalpha_
Module: /mnt/sda5/.user/root/src/openwatcom-1.9/bld/clib/library/winnt.386/mf_rd/clib3r.lib(/mnt/sda5/.user/root/src/openwatcom-1.9/bld/clib/mbyte/c/mbiscntr.c)
6fe18bc0       _ismbccntrl_
Module: /mnt/sda5/.user/root/src/openwatcom-1.9/bld/clib/library/winnt.386/mf_rd/clib3r.lib(/mnt/sda5/.user/root/src/openwatcom-1.9/bld/clib/mbyte/c/mbisdbcs.c)
6fe4f0b4       ___IsDBCS
Module: /mnt/sda5/.user/root/src/openwatcom-1.9/bld/clib/library/winnt.386/mf_rd/clib3r.lib(/mnt/sda5/.user/root/src/openwatcom-1.9/bld/clib/mbyte/c/mbisdigi.c)
6fe18c40       _ismbcdigit_
Module: /mnt/sda5/.user/root/src/openwatcom-1.9/bld/clib/library/winnt.386/mf_rd/clib3r.lib(/mnt/sda5/.user/root/src/openwatcom-1.9/bld/clib/mbyte/c/mbisgrap.c)
6fe18cc0       _ismbcgraph_
Module: /mnt/sda5/.user/root/src/openwatcom-1.9/bld/clib/library/winnt.386/mf_rd/clib3r.lib(/mnt/sda5/.user/root/src/openwatcom-1.9/bld/clib/mbyte/c/mbislead.c)
6fe18d10       _ismbblead_
6fe4f0b8       ___MBCSIsTable
Module: /mnt/sda5/.user/root/src/openwatcom-1.9/bld/clib/library/winnt.386/mf_rd/clib3r.lib(/mnt/sda5/.user/root/src/openwatcom-1.9/bld/clib/mbyte/c/mbislegl.c)
6fe18d60       _ismbclegal_
Module: /mnt/sda5/.user/root/src/openwatcom-1.9/bld/clib/library/winnt.386/mf_rd/clib3r.lib(/mnt/sda5/.user/root/src/openwatcom-1.9/bld/clib/mbyte/c/mbislowe.c)
6fe18df0       _ismbclower_
Module: /mnt/sda5/.user/root/src/openwatcom-1.9/bld/clib/library/winnt.386/mf_rd/clib3r.lib(/mnt/sda5/.user/root/src/openwatcom-1.9/bld/clib/mbyte/c/mbisprin.c)
6fe18e70       _ismbcprint_
Module: /mnt/sda5/.user/root/src/openwatcom-1.9/bld/clib/library/winnt.386/mf_rd/clib3r.lib(/mnt/sda5/.user/root/src/openwatcom-1.9/bld/clib/mbyte/c/mbispunc.c)
6fe18f00       _ismbcpunct_
Module: /mnt/sda5/.user/root/src/openwatcom-1.9/bld/clib/library/winnt.386/mf_rd/clib3r.lib(/mnt/sda5/.user/root/src/openwatcom-1.9/bld/clib/mbyte/c/mbisspac.c)
6fe18f80       _ismbcspace_
Module: /mnt/sda5/.user/root/src/openwatcom-1.9/bld/clib/library/winnt.386/mf_rd/clib3r.lib(/mnt/sda5/.user/root/src/openwatcom-1.9/bld/clib/mbyte/c/mbissymb.c)
6fe19000       _ismbcsymbol_
Module: /mnt/sda5/.user/root/src/openwatcom-1.9/bld/clib/library/winnt.386/mf_rd/clib3r.lib(/mnt/sda5/.user/root/src/openwatcom-1.9/bld/clib/mbyte/c/mbistrai.c)
6fe19070       _ismbbtrail_
Module: /mnt/sda5/.user/root/src/openwatcom-1.9/bld/clib/library/winnt.386/mf_rd/clib3r.lib(/mnt/sda5/.user/root/src/openwatcom-1.9/bld/clib/mbyte/c/mbisuppe.c)
6fe190e0       _ismbcupper_
Module: /mnt/sda5/.user/root/src/openwatcom-1.9/bld/clib/library/winnt.386/mf_rd/clib3r.lib(/mnt/sda5/.user/root/src/openwatcom-1.9/bld/clib/mbyte/c/mbisxdig.c)
6fe19160       _ismbcxdigit_
Module: /mnt/sda5/.user/root/src/openwatcom-1.9/bld/clib/library/winnt.386/mf_rd/clib3r.lib(/mnt/sda5/.user/root/src/openwatcom-1.9/bld/clib/mbyte/c/mblen.c)
6fe191e0       mblen_
Module: /mnt/sda5/.user/root/src/openwatcom-1.9/bld/clib/library/winnt.386/mf_rd/clib3r.lib(/mnt/sda5/.user/root/src/openwatcom-1.9/bld/clib/mbyte/c/mbputchr.c)
6fe19210       _mbputchar_
Module: /mnt/sda5/.user/root/src/openwatcom-1.9/bld/clib/library/winnt.386/mf_rd/clib3r.lib(/mnt/sda5/.user/root/src/openwatcom-1.9/bld/clib/mbyte/c/mbrlen.c)
6fe19280       mbrlen_
Module: /mnt/sda5/.user/root/src/openwatcom-1.9/bld/clib/library/winnt.386/mf_rd/clib3r.lib(/mnt/sda5/.user/root/src/openwatcom-1.9/bld/clib/mbyte/c/mbrtowc.c)
6fe192c0       mbrtowc_
Module: /mnt/sda5/.user/root/src/openwatcom-1.9/bld/clib/library/winnt.386/mf_rd/clib3r.lib(/mnt/sda5/.user/root/src/openwatcom-1.9/bld/clib/mbyte/c/mbsbtype.c)
6fe19380       _mbsbtype_
Module: /mnt/sda5/.user/root/src/openwatcom-1.9/bld/clib/library/winnt.386/mf_rd/clib3r.lib(/mnt/sda5/.user/root/src/openwatcom-1.9/bld/clib/mbyte/c/mbscat.c)
6fe193f0       _mbscat_
Module: /mnt/sda5/.user/root/src/openwatcom-1.9/bld/clib/library/winnt.386/mf_rd/clib3r.lib(/mnt/sda5/.user/root/src/openwatcom-1.9/bld/clib/mbyte/c/mbschr.c)
6fe19420       _mbschr_
Module: /mnt/sda5/.user/root/src/openwatcom-1.9/bld/clib/library/winnt.386/mf_rd/clib3r.lib(/mnt/sda5/.user/root/src/openwatcom-1.9/bld/clib/mbyte/c/mbscmp.c)
6fe194b0       _mbscmp_
Module: /mnt/sda5/.user/root/src/openwatcom-1.9/bld/clib/library/winnt.386/mf_rd/clib3r.lib(/mnt/sda5/.user/root/src/openwatcom-1.9/bld/clib/mbyte/c/mbscpy.c)
6fe19560       _mbscpy_
Module: /mnt/sda5/.user/root/src/openwatcom-1.9/bld/clib/library/winnt.386/mf_rd/clib3r.lib(/mnt/sda5/.user/root/src/openwatcom-1.9/bld/clib/mbyte/c/mbscspn.c)
6fe19590       _mbscspn_
Module: /mnt/sda5/.user/root/src/openwatcom-1.9/bld/clib/library/winnt.386/mf_rd/clib3r.lib(/mnt/sda5/.user/root/src/openwatcom-1.9/bld/clib/mbyte/c/mbsdec.c)
6fe195f0       _mbsdec_
Module: /mnt/sda5/.user/root/src/openwatcom-1.9/bld/clib/library/winnt.386/mf_rd/clib3r.lib(/mnt/sda5/.user/root/src/openwatcom-1.9/bld/clib/mbyte/c/mbsdup.c)
6fe196d0       _mbsdup_
Module: /mnt/sda5/.user/root/src/openwatcom-1.9/bld/clib/library/winnt.386/mf_rd/clib3r.lib(/mnt/sda5/.user/root/src/openwatcom-1.9/bld/clib/mbyte/c/mbsicmp.c)
6fe19720       _mbsicmp_
Module: /mnt/sda5/.user/root/src/openwatcom-1.9/bld/clib/library/winnt.386/mf_rd/clib3r.lib(/mnt/sda5/.user/root/src/openwatcom-1.9/bld/clib/mbyte/c/mbsinc.c)
6fe197d0       _mbsinc_
Module: /mnt/sda5/.user/root/src/openwatcom-1.9/bld/clib/library/winnt.386/mf_rd/clib3r.lib(/mnt/sda5/.user/root/src/openwatcom-1.9/bld/clib/mbyte/c/mbsinit.c)
6fe19840       mbsinit_
Module: /mnt/sda5/.user/root/src/openwatcom-1.9/bld/clib/library/winnt.386/mf_rd/clib3r.lib(/mnt/sda5/.user/root/src/openwatcom-1.9/bld/clib/mbyte/c/_mbslen.c)
6fe19880       __mbslen_
Module: /mnt/sda5/.user/root/src/openwatcom-1.9/bld/clib/library/winnt.386/mf_rd/clib3r.lib(/mnt/sda5/.user/root/src/openwatcom-1.9/bld/clib/mbyte/c/mbslen.c)
6fe19920       _mbslen_
Module: /mnt/sda5/.user/root/src/openwatcom-1.9/bld/clib/library/winnt.386/mf_rd/clib3r.lib(/mnt/sda5/.user/root/src/openwatcom-1.9/bld/clib/mbyte/c/mbslwr.c)
6fe19970       _mbslwr_
Module: /mnt/sda5/.user/root/src/openwatcom-1.9/bld/clib/library/winnt.386/mf_rd/clib3r.lib(/mnt/sda5/.user/root/src/openwatcom-1.9/bld/clib/mbyte/c/mbsnbcat.c)
6fe199a0       _mbsnbcat_
Module: /mnt/sda5/.user/root/src/openwatcom-1.9/bld/clib/library/winnt.386/mf_rd/clib3r.lib(/mnt/sda5/.user/root/src/openwatcom-1.9/bld/clib/mbyte/c/mbsnbcmp.c)
6fe19ad0       _mbsnbcmp_
Module: /mnt/sda5/.user/root/src/openwatcom-1.9/bld/clib/library/winnt.386/mf_rd/clib3r.lib(/mnt/sda5/.user/root/src/openwatcom-1.9/bld/clib/mbyte/c/mbsnbcnt.c)
6fe19ba0       _mbsnbcnt_
Module: /mnt/sda5/.user/root/src/openwatcom-1.9/bld/clib/library/winnt.386/mf_rd/clib3r.lib(/mnt/sda5/.user/root/src/openwatcom-1.9/bld/clib/mbyte/c/mbsnbcpy.c)
6fe19c60       _mbsnbcpy_
Module: /mnt/sda5/.user/root/src/openwatcom-1.9/bld/clib/library/winnt.386/mf_rd/clib3r.lib(/mnt/sda5/.user/root/src/openwatcom-1.9/bld/clib/mbyte/c/mbsnbicm.c)
6fe19d10       _mbsnbicmp_
Module: /mnt/sda5/.user/root/src/openwatcom-1.9/bld/clib/library/winnt.386/mf_rd/clib3r.lib(/mnt/sda5/.user/root/src/openwatcom-1.9/bld/clib/mbyte/c/mbsnbset.c)
6fe19de0       _mbsnbset_
Module: /mnt/sda5/.user/root/src/openwatcom-1.9/bld/clib/library/winnt.386/mf_rd/clib3r.lib(/mnt/sda5/.user/root/src/openwatcom-1.9/bld/clib/mbyte/c/mbsncat.c)
6fe19e60       _mbsncat_
Module: /mnt/sda5/.user/root/src/openwatcom-1.9/bld/clib/library/winnt.386/mf_rd/clib3r.lib(/mnt/sda5/.user/root/src/openwatcom-1.9/bld/clib/mbyte/c/mbsnccnt.c)
6fe19ec0       _mbsnccnt_
Module: /mnt/sda5/.user/root/src/openwatcom-1.9/bld/clib/library/winnt.386/mf_rd/clib3r.lib(/mnt/sda5/.user/root/src/openwatcom-1.9/bld/clib/mbyte/c/mbsncmp.c)
6fe19f30       _mbsncmp_
Module: /mnt/sda5/.user/root/src/openwatcom-1.9/bld/clib/library/winnt.386/mf_rd/clib3r.lib(/mnt/sda5/.user/root/src/openwatcom-1.9/bld/clib/mbyte/c/mbsncpy.c)
6fe1a000       _mbsncpy_
Module: /mnt/sda5/.user/root/src/openwatcom-1.9/bld/clib/library/winnt.386/mf_rd/clib3r.lib(/mnt/sda5/.user/root/src/openwatcom-1.9/bld/clib/mbyte/c/mbsnextc.c)
6fe1a040       _mbsnextc_
Module: /mnt/sda5/.user/root/src/openwatcom-1.9/bld/clib/library/winnt.386/mf_rd/clib3r.lib(/mnt/sda5/.user/root/src/openwatcom-1.9/bld/clib/mbyte/c/mbsnicmp.c)
6fe1a0b0       _mbsnicmp_
Module: /mnt/sda5/.user/root/src/openwatcom-1.9/bld/clib/library/winnt.386/mf_rd/clib3r.lib(/mnt/sda5/.user/root/src/openwatcom-1.9/bld/clib/mbyte/c/_mbsninc.c)
6fe1a160       __mbsninc_
Module: /mnt/sda5/.user/root/src/openwatcom-1.9/bld/clib/library/winnt.386/mf_rd/clib3r.lib(/mnt/sda5/.user/root/src/openwatcom-1.9/bld/clib/mbyte/c/mbsninc.c)
6fe1a1f0       _mbsninc_
Module: /mnt/sda5/.user/root/src/openwatcom-1.9/bld/clib/library/winnt.386/mf_rd/clib3r.lib(/mnt/sda5/.user/root/src/openwatcom-1.9/bld/clib/mbyte/c/mbsnset.c)
6fe1a240       _mbsnset_
Module: /mnt/sda5/.user/root/src/openwatcom-1.9/bld/clib/library/winnt.386/mf_rd/clib3r.lib(/mnt/sda5/.user/root/src/openwatcom-1.9/bld/clib/mbyte/c/mbspbrk.c)
6fe1a2b0       _mbspbrk_
Module: /mnt/sda5/.user/root/src/openwatcom-1.9/bld/clib/library/winnt.386/mf_rd/clib3r.lib(/mnt/sda5/.user/root/src/openwatcom-1.9/bld/clib/mbyte/c/mbsrchr.c)
6fe1a310       _mbsrchr_
Module: /mnt/sda5/.user/root/src/openwatcom-1.9/bld/clib/library/winnt.386/mf_rd/clib3r.lib(/mnt/sda5/.user/root/src/openwatcom-1.9/bld/clib/mbyte/c/mbsrev.c)
6fe1a380       _mbsrev_
Module: /mnt/sda5/.user/root/src/openwatcom-1.9/bld/clib/library/winnt.386/mf_rd/clib3r.lib(/mnt/sda5/.user/root/src/openwatcom-1.9/bld/clib/mbyte/c/mbsrtowc.c)
6fe1a450       mbsrtowcs_
Module: /mnt/sda5/.user/root/src/openwatcom-1.9/bld/clib/library/winnt.386/mf_rd/clib3r.lib(/mnt/sda5/.user/root/src/openwatcom-1.9/bld/clib/mbyte/c/mbsrto_s.c)
6fe1a5f0       mbsrtowcs_s_
Module: /mnt/sda5/.user/root/src/openwatcom-1.9/bld/clib/library/winnt.386/mf_rd/clib3r.lib(/mnt/sda5/.user/root/src/openwatcom-1.9/bld/clib/mbyte/c/mbsset.c)
6fe1a960       _mbsset_
Module: /mnt/sda5/.user/root/src/openwatcom-1.9/bld/clib/library/winnt.386/mf_rd/clib3r.lib(/mnt/sda5/.user/root/src/openwatcom-1.9/bld/clib/mbyte/c/mbsspn.c)
6fe1a9a0       _mbsspn_
Module: /mnt/sda5/.user/root/src/openwatcom-1.9/bld/clib/library/winnt.386/mf_rd/clib3r.lib(/mnt/sda5/.user/root/src/openwatcom-1.9/bld/clib/mbyte/c/mbsspnp.c)
6fe1aa00       _mbsspnp_
Module: /mnt/sda5/.user/root/src/openwatcom-1.9/bld/clib/library/winnt.386/mf_rd/clib3r.lib(/mnt/sda5/.user/root/src/openwatcom-1.9/bld/clib/mbyte/c/mbsstr.c)
6fe1aa60       _mbsstr_
Module: /mnt/sda5/.user/root/src/openwatcom-1.9/bld/clib/library/winnt.386/mf_rd/clib3r.lib(/mnt/sda5/.user/root/src/openwatcom-1.9/bld/clib/mbyte/c/mbstok.c)
6fe1aad0       _mbstok_
Module: /mnt/sda5/.user/root/src/openwatcom-1.9/bld/clib/library/winnt.386/mf_rd/clib3r.lib(/mnt/sda5/.user/root/src/openwatcom-1.9/bld/clib/mbyte/c/mbstow_s.c)
6fe1aca0       mbstowcs_s_
Module: /mnt/sda5/.user/root/src/openwatcom-1.9/bld/clib/library/winnt.386/mf_rd/clib3r.lib(/mnt/sda5/.user/root/src/openwatcom-1.9/bld/clib/mbyte/c/mbstowcs.c)
6fe1af80       mbstowcs_
Module: /mnt/sda5/.user/root/src/openwatcom-1.9/bld/clib/library/winnt.386/mf_rd/clib3r.lib(/mnt/sda5/.user/root/src/openwatcom-1.9/bld/clib/mbyte/c/mbsupr.c)
6fe1b060       _mbsupr_
Module: /mnt/sda5/.user/root/src/openwatcom-1.9/bld/clib/library/winnt.386/mf_rd/clib3r.lib(/mnt/sda5/.user/root/src/openwatcom-1.9/bld/clib/mbyte/c/mbterm.c)
6fe1b090       _mbterm_
Module: /mnt/sda5/.user/root/src/openwatcom-1.9/bld/clib/library/winnt.386/mf_rd/clib3r.lib(/mnt/sda5/.user/root/src/openwatcom-1.9/bld/clib/mbyte/c/mbtowc.c)
6fe1b110       mbtowc_
Module: /mnt/sda5/.user/root/src/openwatcom-1.9/bld/clib/library/winnt.386/mf_rd/clib3r.lib(/mnt/sda5/.user/root/src/openwatcom-1.9/bld/clib/mbyte/c/setmbcp.c)
6fe1b220       _setmbcp_
Module: /mnt/sda5/.user/root/src/openwatcom-1.9/bld/clib/library/winnt.386/mf_rd/clib3r.lib(/mnt/sda5/.user/root/src/openwatcom-1.9/bld/clib/mbyte/c/sisinit.c)
6fe1b2a0       sisinit_
Module: /mnt/sda5/.user/root/src/openwatcom-1.9/bld/clib/library/winnt.386/mf_rd/clib3r.lib(/mnt/sda5/.user/root/src/openwatcom-1.9/bld/clib/mbyte/c/wcrtomb.c)
6fe1b2e0       wcrtomb_
Module: /mnt/sda5/.user/root/src/openwatcom-1.9/bld/clib/library/winnt.386/mf_rd/clib3r.lib(/mnt/sda5/.user/root/src/openwatcom-1.9/bld/clib/mbyte/c/wcrtom_s.c)
6fe1b3a0       wcrtomb_s_
Module: /mnt/sda5/.user/root/src/openwatcom-1.9/bld/clib/library/winnt.386/mf_rd/clib3r.lib(/mnt/sda5/.user/root/src/openwatcom-1.9/bld/clib/mbyte/c/wcsrtomb.c)
6fe1b550       wcsrtombs_
Module: /mnt/sda5/.user/root/src/openwatcom-1.9/bld/clib/library/winnt.386/mf_rd/clib3r.lib(/mnt/sda5/.user/root/src/openwatcom-1.9/bld/clib/mbyte/c/wcsrto_s.c)
6fe1b700       wcsrtombs_s_
Module: /mnt/sda5/.user/root/src/openwatcom-1.9/bld/clib/library/winnt.386/mf_rd/clib3r.lib(/mnt/sda5/.user/root/src/openwatcom-1.9/bld/clib/mbyte/c/wcstombs.c)
6fe1ba30       wcstombs_
Module: /mnt/sda5/.user/root/src/openwatcom-1.9/bld/clib/library/winnt.386/mf_rd/clib3r.lib(/mnt/sda5/.user/root/src/openwatcom-1.9/bld/clib/mbyte/c/wcstom_s.c)
6fe1bba0       wcstombs_s_
Module: /mnt/sda5/.user/root/src/openwatcom-1.9/bld/clib/library/winnt.386/mf_rd/clib3r.lib(/mnt/sda5/.user/root/src/openwatcom-1.9/bld/clib/mbyte/c/wctob.c)
6fe1be70       wctob_
Module: /mnt/sda5/.user/root/src/openwatcom-1.9/bld/clib/library/winnt.386/mf_rd/clib3r.lib(/mnt/sda5/.user/root/src/openwatcom-1.9/bld/clib/mbyte/c/wctomb.c)
6fe1bed0       wctomb_
Module: /mnt/sda5/.user/root/src/openwatcom-1.9/bld/clib/library/winnt.386/mf_rd/clib3r.lib(/mnt/sda5/.user/root/src/openwatcom-1.9/bld/clib/mbyte/c/wctomb_s.c)
6fe1bf70       wctomb_s_
Module: /mnt/sda5/.user/root/src/openwatcom-1.9/bld/clib/library/winnt.386/mf_rd/clib3r.lib(/mnt/sda5/.user/root/src/openwatcom-1.9/bld/clib/mbyte/c/wrlang.c)
6fe1c0e0       _WResLanguage_
Module: /mnt/sda5/.user/root/src/openwatcom-1.9/bld/clib/library/winnt.386/mf_rd/clib3r.lib(/mnt/sda5/.user/root/src/openwatcom-1.9/bld/clib/memory/c/bcmp.c)
6fe1c1b0       bcmp_
Module: /mnt/sda5/.user/root/src/openwatcom-1.9/bld/clib/library/winnt.386/mf_rd/clib3r.lib(/mnt/sda5/.user/root/src/openwatcom-1.9/bld/clib/memory/c/bcopy.c)
6fe1c200       bcopy_
Module: /mnt/sda5/.user/root/src/openwatcom-1.9/bld/clib/library/winnt.386/mf_rd/clib3r.lib(/mnt/sda5/.user/root/src/openwatcom-1.9/bld/clib/memory/c/bzero.c)
6fe1c230       bzero_
Module: /mnt/sda5/.user/root/src/openwatcom-1.9/bld/clib/library/winnt.386/mf_rd/clib3r.lib(/mnt/sda5/.user/root/src/openwatcom-1.9/bld/clib/memory/c/fmemccpy.c)
6fe1c260       _fmemccpy_
Module: /mnt/sda5/.user/root/src/openwatcom-1.9/bld/clib/library/winnt.386/mf_rd/clib3r.lib(/mnt/sda5/.user/root/src/openwatcom-1.9/bld/clib/memory/c/fmemchr.c)
6fe1c310       _fmemchr_
Module: /mnt/sda5/.user/root/src/openwatcom-1.9/bld/clib/library/winnt.386/mf_rd/clib3r.lib(/mnt/sda5/.user/root/src/openwatcom-1.9/bld/clib/memory/c/fmemcmp.c)
6fe1c390       _fmemcmp_
Module: /mnt/sda5/.user/root/src/openwatcom-1.9/bld/clib/library/winnt.386/mf_rd/clib3r.lib(/mnt/sda5/.user/root/src/openwatcom-1.9/bld/clib/memory/c/fmemcpy.c)
6fe1c430       _fmemcpy_
Module: /mnt/sda5/.user/root/src/openwatcom-1.9/bld/clib/library/winnt.386/mf_rd/clib3r.lib(/mnt/sda5/.user/root/src/openwatcom-1.9/bld/clib/memory/c/fmemicmp.c)
6fe1c4c0       _fmemicmp_
Module: /mnt/sda5/.user/root/src/openwatcom-1.9/bld/clib/library/winnt.386/mf_rd/clib3r.lib(/mnt/sda5/.user/root/src/openwatcom-1.9/bld/clib/memory/c/fmemmove.c)
6fe1c580       _fmemmove_
Module: /mnt/sda5/.user/root/src/openwatcom-1.9/bld/clib/library/winnt.386/mf_rd/clib3r.lib(/mnt/sda5/.user/root/src/openwatcom-1.9/bld/clib/memory/c/fmemset.c)
6fe1c690       _fmemset_
Module: /mnt/sda5/.user/root/src/openwatcom-1.9/bld/clib/library/winnt.386/mf_rd/clib3r.lib(/mnt/sda5/.user/root/src/openwatcom-1.9/bld/clib/memory/c/memccpy.c)
6fe1c6f0       memccpy_
Module: /mnt/sda5/.user/root/src/openwatcom-1.9/bld/clib/library/winnt.386/mf_rd/clib3r.lib(/mnt/sda5/.user/root/src/openwatcom-1.9/bld/clib/memory/c/memchr.c)
6fe1c760       memchr_
Module: /mnt/sda5/.user/root/src/openwatcom-1.9/bld/clib/library/winnt.386/mf_rd/clib3r.lib(/mnt/sda5/.user/root/src/openwatcom-1.9/bld/clib/memory/c/memcmp.c)
6fe1c7c0       memcmp_
Module: /mnt/sda5/.user/root/src/openwatcom-1.9/bld/clib/library/winnt.386/mf_rd/clib3r.lib(/mnt/sda5/.user/root/src/openwatcom-1.9/bld/clib/memory/c/memcpy.c)
6fe1c830       memcpy_
Module: /mnt/sda5/.user/root/src/openwatcom-1.9/bld/clib/library/winnt.386/mf_rd/clib3r.lib(/mnt/sda5/.user/root/src/openwatcom-1.9/bld/clib/memory/c/memicmp.c)
6fe1c880       memicmp_
Module: /mnt/sda5/.user/root/src/openwatcom-1.9/bld/clib/library/winnt.386/mf_rd/clib3r.lib(/mnt/sda5/.user/root/src/openwatcom-1.9/bld/clib/memory/c/memmove.c)
6fe1c920       memmove_
Module: /mnt/sda5/.user/root/src/openwatcom-1.9/bld/clib/library/winnt.386/mf_rd/clib3r.lib(/mnt/sda5/.user/root/src/openwatcom-1.9/bld/clib/memory/c/memset.c)
6fe1c9d0       memset_
Module: /mnt/sda5/.user/root/src/openwatcom-1.9/bld/clib/library/winnt.386/mf_rd/clib3r.lib(/mnt/sda5/.user/root/src/openwatcom-1.9/bld/clib/memory/c/movedata.c)
6fe1ca20       movedata_
Module: /mnt/sda5/.user/root/src/openwatcom-1.9/bld/clib/library/winnt.386/mf_rd/clib3r.lib(/mnt/sda5/.user/root/src/openwatcom-1.9/bld/clib/memory/c/memcpy_s.c)
6fe1cad0       memcpy_s_
Module: /mnt/sda5/.user/root/src/openwatcom-1.9/bld/clib/library/winnt.386/mf_rd/clib3r.lib(/mnt/sda5/.user/root/src/openwatcom-1.9/bld/clib/memory/c/memmov_s.c)
6fe1ccb0       memmove_s_
Module: /mnt/sda5/.user/root/src/openwatcom-1.9/bld/clib/library/winnt.386/mf_rd/clib3r.lib(/mnt/sda5/.user/root/src/openwatcom-1.9/bld/clib/memory/c/swab.c)
6fe1cde0       swab_
Module: /mnt/sda5/.user/root/src/openwatcom-1.9/bld/clib/library/winnt.386/mf_rd/clib3r.lib(/mnt/sda5/.user/root/src/openwatcom-1.9/bld/clib/memory/c/umemchr.c)
6fe1ce30       wmemchr_
Module: /mnt/sda5/.user/root/src/openwatcom-1.9/bld/clib/library/winnt.386/mf_rd/clib3r.lib(/mnt/sda5/.user/root/src/openwatcom-1.9/bld/clib/memory/c/umemcmp.c)
6fe1ce80       wmemcmp_
Module: /mnt/sda5/.user/root/src/openwatcom-1.9/bld/clib/library/winnt.386/mf_rd/clib3r.lib(/mnt/sda5/.user/root/src/openwatcom-1.9/bld/clib/memory/c/umemcpy.c)
6fe1cef0       wmemcpy_
Module: /mnt/sda5/.user/root/src/openwatcom-1.9/bld/clib/library/winnt.386/mf_rd/clib3r.lib(/mnt/sda5/.user/root/src/openwatcom-1.9/bld/clib/memory/c/umemmov.c)
6fe1cf50       wmemmove_
Module: /mnt/sda5/.user/root/src/openwatcom-1.9/bld/clib/library/winnt.386/mf_rd/clib3r.lib(/mnt/sda5/.user/root/src/openwatcom-1.9/bld/clib/memory/c/umemset.c)
6fe1d000       wmemset_
Module: /mnt/sda5/.user/root/src/openwatcom-1.9/bld/clib/library/winnt.386/mf_rd/clib3r.lib(/mnt/sda5/.user/root/src/openwatcom-1.9/bld/clib/memory/c/umemcp_s.c)
6fe1d0b0       wmemcpy_s_
Module: /mnt/sda5/.user/root/src/openwatcom-1.9/bld/clib/library/winnt.386/mf_rd/clib3r.lib(/mnt/sda5/.user/root/src/openwatcom-1.9/bld/clib/memory/c/umemmv_s.c)
6fe1d290       wmemmove_s_
Module: /mnt/sda5/.user/root/src/openwatcom-1.9/bld/clib/library/winnt.386/mf_rd/clib3r.lib(/mnt/sda5/.user/root/src/openwatcom-1.9/bld/clib/misc/c/aborthnd.c)
6fe1d3e0       abort_handler_s_
Module: /mnt/sda5/.user/root/src/openwatcom-1.9/bld/clib/library/winnt.386/mf_rd/clib3r.lib(/mnt/sda5/.user/root/src/openwatcom-1.9/bld/clib/misc/c/assert.c)
6fe1d450       _assert_
6fe1d610       __assert_
Module: /mnt/sda5/.user/root/src/openwatcom-1.9/bld/clib/library/winnt.386/mf_rd/clib3r.lib(/mnt/sda5/.user/root/src/openwatcom-1.9/bld/clib/misc/c/assert99.c)
6fe1d6a0       _assert99_
6fe1d860       __assert99_
Module: /mnt/sda5/.user/root/src/openwatcom-1.9/bld/clib/library/winnt.386/mf_rd/clib3r.lib(/mnt/sda5/.user/root/src/openwatcom-1.9/bld/clib/misc/c/basename.c)
6fe1d920       basename_
Module: /mnt/sda5/.user/root/src/openwatcom-1.9/bld/clib/library/winnt.386/mf_rd/clib3r.lib(/mnt/sda5/.user/root/src/openwatcom-1.9/bld/clib/misc/c/ffs.c)
6fe1da00       ffs_
Module: /mnt/sda5/.user/root/src/openwatcom-1.9/bld/clib/library/winnt.386/mf_rd/clib3r.lib(/mnt/sda5/.user/root/src/openwatcom-1.9/bld/clib/misc/c/dbgbreak.c)
6fe1da30       _CrtDbgBreak_
Module: /mnt/sda5/.user/root/src/openwatcom-1.9/bld/clib/library/winnt.386/mf_rd/clib3r.lib(/mnt/sda5/.user/root/src/openwatcom-1.9/bld/clib/misc/c/dbgrpt.c)
6fe1e3e0       _CrtDbgReport_
Module: /mnt/sda5/.user/root/src/openwatcom-1.9/bld/clib/library/winnt.386/mf_rd/clib3r.lib(/mnt/sda5/.user/root/src/openwatcom-1.9/bld/clib/misc/c/dbgrptfi.c)
6fe1e6e0       _CrtSetReportFile_
Module: /mnt/sda5/.user/root/src/openwatcom-1.9/bld/clib/library/winnt.386/mf_rd/clib3r.lib(/mnt/sda5/.user/root/src/openwatcom-1.9/bld/clib/misc/c/dbgrptho.c)
6fe1e7a0       _CrtSetReportHook_
Module: /mnt/sda5/.user/root/src/openwatcom-1.9/bld/clib/library/winnt.386/mf_rd/clib3r.lib(/mnt/sda5/.user/root/src/openwatcom-1.9/bld/clib/misc/c/dbgrptmo.c)
6fe1e7e0       _CrtSetReportMode_
Module: /mnt/sda5/.user/root/src/openwatcom-1.9/bld/clib/library/winnt.386/mf_rd/clib3r.lib(/mnt/sda5/.user/root/src/openwatcom-1.9/bld/clib/misc/c/demangl.c)
6fe21860       __demangle_t_
Module: /mnt/sda5/.user/root/src/openwatcom-1.9/bld/clib/library/winnt.386/mf_rd/clib3r.lib(/mnt/sda5/.user/root/src/openwatcom-1.9/bld/clib/misc/c/dirname.c)
6fe21970       dirname_
Module: /mnt/sda5/.user/root/src/openwatcom-1.9/bld/clib/library/winnt.386/mf_rd/clib3r.lib(/mnt/sda5/.user/root/src/openwatcom-1.9/bld/clib/misc/c/fullpath.c)
6fe21ab0       _sys_fullpath_
6fe21b50       _fullpath_
Module: /mnt/sda5/.user/root/src/openwatcom-1.9/bld/clib/library/winnt.386/mf_rd/clib3r.lib(/mnt/sda5/.user/root/src/openwatcom-1.9/bld/clib/misc/c/getopt.c)
6fe4d508       _optind
6fe4d50c       _opterr
6fe4d510+      ___altoptchar
6fe21c50       getopt_
6fe4f424       _optarg
6fe4f428       _optopt
6fe4f42c+      ___optchar
Module: /mnt/sda5/.user/root/src/openwatcom-1.9/bld/clib/library/winnt.386/mf_rd/clib3r.lib(/mnt/sda5/.user/root/src/openwatcom-1.9/bld/clib/misc/c/hostwin.c)
6fe21f60       _host_os_id_
6fe22050       _host_os_name_
Module: /mnt/sda5/.user/root/src/openwatcom-1.9/bld/clib/library/winnt.386/mf_rd/clib3r.lib(/mnt/sda5/.user/root/src/openwatcom-1.9/bld/clib/misc/c/ignorhnd.c)
6fe220c0       ignore_handler_s_
Module: /mnt/sda5/.user/root/src/openwatcom-1.9/bld/clib/library/winnt.386/mf_rd/clib3r.lib(/mnt/sda5/.user/root/src/openwatcom-1.9/bld/clib/misc/c/localeco.c)
6fe220f0       localeconv_
Module: /mnt/sda5/.user/root/src/openwatcom-1.9/bld/clib/library/winnt.386/mf_rd/clib3r.lib(/mnt/sda5/.user/root/src/openwatcom-1.9/bld/clib/misc/c/lrotl.c)
6fe22120       _lrotl_
Module: /mnt/sda5/.user/root/src/openwatcom-1.9/bld/clib/library/winnt.386/mf_rd/clib3r.lib(/mnt/sda5/.user/root/src/openwatcom-1.9/bld/clib/misc/c/lrotr.c)
6fe22150       _lrotr_
Module: /mnt/sda5/.user/root/src/openwatcom-1.9/bld/clib/library/winnt.386/mf_rd/clib3r.lib(/mnt/sda5/.user/root/src/openwatcom-1.9/bld/clib/misc/c/makepath.c)
6fe221d0       _makepath_
Module: /mnt/sda5/.user/root/src/openwatcom-1.9/bld/clib/library/winnt.386/mf_rd/clib3r.lib(/mnt/sda5/.user/root/src/openwatcom-1.9/bld/clib/misc/c/rotl.c)
6fe223e0       _rotl_
Module: /mnt/sda5/.user/root/src/openwatcom-1.9/bld/clib/library/winnt.386/mf_rd/clib3r.lib(/mnt/sda5/.user/root/src/openwatcom-1.9/bld/clib/misc/c/rotr.c)
6fe22410       _rotr_
Module: /mnt/sda5/.user/root/src/openwatcom-1.9/bld/clib/library/winnt.386/mf_rd/clib3r.lib(/mnt/sda5/.user/root/src/openwatcom-1.9/bld/clib/misc/c/rtconstr.c)
6fe22440       set_constraint_handler_s_
Module: /mnt/sda5/.user/root/src/openwatcom-1.9/bld/clib/library/winnt.386/mf_rd/clib3r.lib(/mnt/sda5/.user/root/src/openwatcom-1.9/bld/clib/misc/c/setlocal.c)
6fe224a0       setlocale_
Module: /mnt/sda5/.user/root/src/openwatcom-1.9/bld/clib/library/winnt.386/mf_rd/clib3r.lib(/mnt/sda5/.user/root/src/openwatcom-1.9/bld/clib/misc/c/split2.c)
6fe22610       _splitpath2_
Module: /mnt/sda5/.user/root/src/openwatcom-1.9/bld/clib/library/winnt.386/mf_rd/clib3r.lib(/mnt/sda5/.user/root/src/openwatcom-1.9/bld/clib/misc/c/splitpat.c)
6fe22810       _splitpath_
Module: /mnt/sda5/.user/root/src/openwatcom-1.9/bld/clib/library/winnt.386/mf_rd/clib3r.lib(/mnt/sda5/.user/root/src/openwatcom-1.9/bld/clib/misc/c/uassert.c)
6fe22980       _wassert_
6fe229e0       __wassert_
Module: /mnt/sda5/.user/root/src/openwatcom-1.9/bld/clib/library/winnt.386/mf_rd/clib3r.lib(/mnt/sda5/.user/root/src/openwatcom-1.9/bld/clib/misc/c/uassrt99.c)
6fe22a90       _wassert99_
6fe22af0       __wassert99_
Module: /mnt/sda5/.user/root/src/openwatcom-1.9/bld/clib/library/winnt.386/mf_rd/clib3r.lib(/mnt/sda5/.user/root/src/openwatcom-1.9/bld/clib/misc/c/ufulpath.c)
6fe22b40       _sys_wfullpath_
6fe22be0       _wfullpath_
Module: /mnt/sda5/.user/root/src/openwatcom-1.9/bld/clib/library/winnt.386/mf_rd/clib3r.lib(/mnt/sda5/.user/root/src/openwatcom-1.9/bld/clib/misc/c/umkpath.c)
6fe22ce0       _wmakepath_
Module: /mnt/sda5/.user/root/src/openwatcom-1.9/bld/clib/library/winnt.386/mf_rd/clib3r.lib(/mnt/sda5/.user/root/src/openwatcom-1.9/bld/clib/misc/c/usplit2.c)
6fe22f30       _wsplitpath2_
Module: /mnt/sda5/.user/root/src/openwatcom-1.9/bld/clib/library/winnt.386/mf_rd/clib3r.lib(/mnt/sda5/.user/root/src/openwatcom-1.9/bld/clib/misc/c/uspltpat.c)
6fe23130       _wsplitpath_
Module: /mnt/sda5/.user/root/src/openwatcom-1.9/bld/clib/library/winnt.386/mf_rd/clib3r.lib(/mnt/sda5/.user/root/src/openwatcom-1.9/bld/clib/misc/c/ustlocal.c)
6fe23260       _wsetlocale_
Module: /mnt/sda5/.user/root/src/openwatcom-1.9/bld/clib/library/winnt.386/mf_rd/clib3r.lib(/mnt/sda5/.user/root/src/openwatcom-1.9/bld/clib/mthread/c/mthread.c)
6fe23550       __CloseSemaphore_
6fe23570       __AccessSemaphore_
6fe23600       __ReleaseSemaphore_
6fe23670+      __AccessIOB_
6fe236a0+      __ReleaseIOB_
6fe236d0+      __AccessFileH_
6fe23710+      __ReleaseFileH_
6fe23750+      __AccessNHeap_
6fe23780+      __ReleaseNHeap_
6fe237b0+      __AccessFHeap_
6fe237e0+      __ReleaseFHeap_
6fe23810+      __AccessTDList_
6fe23840+      __ReleaseTDList_
6fe23870+      __AccessFList_
6fe238a0+      __ReleaseFList_
6fe238d0+      __MultipleThread_
6fe23940       __AllocInitThreadData_
6fe239a0       __FreeInitThreadData_
6fe239e0       __NTThreadInit_
6fe23aa0       __NTAddThread_
6fe23b30       __NTRemoveThread_
6fe23be0       __InitMultipleThread_
6fe4d560       ___AccessSema4
6fe4d564       ___ReleaseSema4
6fe4d568       ___CloseSema4
Module: /mnt/sda5/.user/root/src/openwatcom-1.9/bld/clib/library/winnt.386/mf_rd/clib3r.lib(/mnt/sda5/.user/root/src/openwatcom-1.9/bld/clib/mthread/c/mthrdini.c)
6fe23de0       __InitThreadData_
6fe4d56c       ___ThreadDataSize
Module: /mnt/sda5/.user/root/src/openwatcom-1.9/bld/clib/library/winnt.386/mf_rd/clib3r.lib(/mnt/sda5/.user/root/src/openwatcom-1.9/bld/clib/mthread/c/regdata.c)
6fe23e30       __RegisterThreadDataSize_
Module: /mnt/sda5/.user/root/src/openwatcom-1.9/bld/clib/library/winnt.386/mf_rd/clib3r.lib(/mnt/sda5/.user/root/src/openwatcom-1.9/bld/clib/mthread/c/register.c)
6fe23eb0       __initthread_
6fe23ee0       _beginthread_
6fe23f20       _endthread_
6fe23f40       __RegisterThreadData_
Module: /mnt/sda5/.user/root/src/openwatcom-1.9/bld/clib/library/winnt.386/mf_rd/clib3r.lib(/mnt/sda5/.user/root/src/openwatcom-1.9/bld/clib/mthread/c/registrx.c)
6fe23fc0       _beginthreadex_
6fe24000       _endthreadex_
Module: /mnt/sda5/.user/root/src/openwatcom-1.9/bld/clib/library/winnt.386/mf_rd/clib3r.lib(/mnt/sda5/.user/root/src/openwatcom-1.9/bld/clib/mthread/c/tdhdlwnt.c)
6fe24030       __threadhandle_
Module: /mnt/sda5/.user/root/src/openwatcom-1.9/bld/clib/library/winnt.386/mf_rd/clib3r.lib(/mnt/sda5/.user/root/src/openwatcom-1.9/bld/clib/process/c/cwaitwnt.c)
6fe24060       cwait_
Module: /mnt/sda5/.user/root/src/openwatcom-1.9/bld/clib/library/winnt.386/mf_rd/clib3r.lib(/mnt/sda5/.user/root/src/openwatcom-1.9/bld/clib/process/c/delaywnt.c)
6fe24130       delay_
Module: /mnt/sda5/.user/root/src/openwatcom-1.9/bld/clib/library/winnt.386/mf_rd/clib3r.lib(/mnt/sda5/.user/root/src/openwatcom-1.9/bld/clib/process/c/excptwnt.c)
6fe24840+      ___ReportException@4
6fe24ea0       __DefaultExceptionHandler_
6fe24ee0+      ___ExceptionFilter
6fe25190       __NewExceptionFilter_
6fe251e0       __DoneExceptionFilter_
6fe4d584       ___oscode_check_func
6fe4d588       ___raise_func
6fe4fb9c+      _sw
6fe4fba0+      ___ExceptionHandled
6fe4fba1+      ___ReportInvoked
Module: /mnt/sda5/.user/root/src/openwatcom-1.9/bld/clib/library/winnt.386/mf_rd/clib3r.lib(/mnt/sda5/.user/root/src/openwatcom-1.9/bld/clib/process/c/exl.c)
6fe25220       execl_
Module: /mnt/sda5/.user/root/src/openwatcom-1.9/bld/clib/library/winnt.386/mf_rd/clib3r.lib(/mnt/sda5/.user/root/src/openwatcom-1.9/bld/clib/process/c/exle.c)
6fe25260       execle_
Module: /mnt/sda5/.user/root/src/openwatcom-1.9/bld/clib/library/winnt.386/mf_rd/clib3r.lib(/mnt/sda5/.user/root/src/openwatcom-1.9/bld/clib/process/c/exlp.c)
6fe252c0       execlp_
Module: /mnt/sda5/.user/root/src/openwatcom-1.9/bld/clib/library/winnt.386/mf_rd/clib3r.lib(/mnt/sda5/.user/root/src/openwatcom-1.9/bld/clib/process/c/exlpe.c)
6fe252f0       execlpe_
Module: /mnt/sda5/.user/root/src/openwatcom-1.9/bld/clib/library/winnt.386/mf_rd/clib3r.lib(/mnt/sda5/.user/root/src/openwatcom-1.9/bld/clib/process/c/exv.c)
6fe25350       execv_
Module: /mnt/sda5/.user/root/src/openwatcom-1.9/bld/clib/library/winnt.386/mf_rd/clib3r.lib(/mnt/sda5/.user/root/src/openwatcom-1.9/bld/clib/process/c/exvewnt.c)
6fe25382       execve_
Module: /mnt/sda5/.user/root/src/openwatcom-1.9/bld/clib/library/winnt.386/mf_rd/clib3r.lib(/mnt/sda5/.user/root/src/openwatcom-1.9/bld/clib/process/c/exvp.c)
6fe253e0       execvp_
Module: /mnt/sda5/.user/root/src/openwatcom-1.9/bld/clib/library/winnt.386/mf_rd/clib3r.lib(/mnt/sda5/.user/root/src/openwatcom-1.9/bld/clib/process/c/exvpe.c)
6fe25417       execvpe_
Module: /mnt/sda5/.user/root/src/openwatcom-1.9/bld/clib/library/winnt.386/mf_rd/clib3r.lib(/mnt/sda5/.user/root/src/openwatcom-1.9/bld/clib/process/c/signlwnt.c)
6fe4d5a0+      __SignalTable
6fe255c0+      __SetSignalFunc_
6fe25640+      __GetSignalFunc_
6fe25690+      __GetSignalOSCode_
6fe256e0+      __CheckSignalExCode_
6fe258e0+      __sigabort_
6fe25910       __sigfpe_handler_
6fe25990       signal_
6fe25a40       raise_
6fe25af0+      __SigInit_
6fe25b50+      __SigFini_
6fe25ba0+      __sig_init_
Module: /mnt/sda5/.user/root/src/openwatcom-1.9/bld/clib/library/winnt.386/mf_rd/clib3r.lib(/mnt/sda5/.user/root/src/openwatcom-1.9/bld/clib/process/c/sleepwnt.c)
6fe25be0       sleep_
Module: /mnt/sda5/.user/root/src/openwatcom-1.9/bld/clib/library/winnt.386/mf_rd/clib3r.lib(/mnt/sda5/.user/root/src/openwatcom-1.9/bld/clib/process/c/spl.c)
6fe25c20       spawnl_
Module: /mnt/sda5/.user/root/src/openwatcom-1.9/bld/clib/library/winnt.386/mf_rd/clib3r.lib(/mnt/sda5/.user/root/src/openwatcom-1.9/bld/clib/process/c/sple.c)
6fe25c60       spawnle_
Module: /mnt/sda5/.user/root/src/openwatcom-1.9/bld/clib/library/winnt.386/mf_rd/clib3r.lib(/mnt/sda5/.user/root/src/openwatcom-1.9/bld/clib/process/c/splp.c)
6fe25cc0       spawnlp_
Module: /mnt/sda5/.user/root/src/openwatcom-1.9/bld/clib/library/winnt.386/mf_rd/clib3r.lib(/mnt/sda5/.user/root/src/openwatcom-1.9/bld/clib/process/c/splpe.c)
6fe25d00       spawnlpe_
Module: /mnt/sda5/.user/root/src/openwatcom-1.9/bld/clib/library/winnt.386/mf_rd/clib3r.lib(/mnt/sda5/.user/root/src/openwatcom-1.9/bld/clib/process/c/spv.c)
6fe25d60       spawnv_
Module: /mnt/sda5/.user/root/src/openwatcom-1.9/bld/clib/library/winnt.386/mf_rd/clib3r.lib(/mnt/sda5/.user/root/src/openwatcom-1.9/bld/clib/process/c/spve.c)
6fe25e10       spawnve_
Module: /mnt/sda5/.user/root/src/openwatcom-1.9/bld/clib/library/winnt.386/mf_rd/clib3r.lib(/mnt/sda5/.user/root/src/openwatcom-1.9/bld/clib/process/c/spvp.c)
6fe26300       spawnvp_
Module: /mnt/sda5/.user/root/src/openwatcom-1.9/bld/clib/library/winnt.386/mf_rd/clib3r.lib(/mnt/sda5/.user/root/src/openwatcom-1.9/bld/clib/process/c/spvpe.c)
6fe2633b       spawnvpe_
Module: /mnt/sda5/.user/root/src/openwatcom-1.9/bld/clib/library/winnt.386/mf_rd/clib3r.lib(/mnt/sda5/.user/root/src/openwatcom-1.9/bld/clib/process/c/system.c)
6fe26520       system_
Module: /mnt/sda5/.user/root/src/openwatcom-1.9/bld/clib/library/winnt.386/mf_rd/clib3r.lib(/mnt/sda5/.user/root/src/openwatcom-1.9/bld/clib/process/c/uexl.c)
6fe265f0       _wexecl_
Module: /mnt/sda5/.user/root/src/openwatcom-1.9/bld/clib/library/winnt.386/mf_rd/clib3r.lib(/mnt/sda5/.user/root/src/openwatcom-1.9/bld/clib/process/c/uexle.c)
6fe26630       _wexecle_
Module: /mnt/sda5/.user/root/src/openwatcom-1.9/bld/clib/library/winnt.386/mf_rd/clib3r.lib(/mnt/sda5/.user/root/src/openwatcom-1.9/bld/clib/process/c/uexlp.c)
6fe26690       _wexeclp_
Module: /mnt/sda5/.user/root/src/openwatcom-1.9/bld/clib/library/winnt.386/mf_rd/clib3r.lib(/mnt/sda5/.user/root/src/openwatcom-1.9/bld/clib/process/c/uexlpe.c)
6fe266c0       _wexeclpe_
Module: /mnt/sda5/.user/root/src/openwatcom-1.9/bld/clib/library/winnt.386/mf_rd/clib3r.lib(/mnt/sda5/.user/root/src/openwatcom-1.9/bld/clib/process/c/uexv.c)
6fe26720       _wexecv_
Module: /mnt/sda5/.user/root/src/openwatcom-1.9/bld/clib/library/winnt.386/mf_rd/clib3r.lib(/mnt/sda5/.user/root/src/openwatcom-1.9/bld/clib/process/c/uexve.c)
6fe26760       _wexecve_
Module: /mnt/sda5/.user/root/src/openwatcom-1.9/bld/clib/library/winnt.386/mf_rd/clib3r.lib(/mnt/sda5/.user/root/src/openwatcom-1.9/bld/clib/process/c/uexvp.c)
6fe267d0       _wexecvp_
Module: /mnt/sda5/.user/root/src/openwatcom-1.9/bld/clib/library/winnt.386/mf_rd/clib3r.lib(/mnt/sda5/.user/root/src/openwatcom-1.9/bld/clib/process/c/uexvpe.c)
6fe26820       _wexecvpe_
Module: /mnt/sda5/.user/root/src/openwatcom-1.9/bld/clib/library/winnt.386/mf_rd/clib3r.lib(/mnt/sda5/.user/root/src/openwatcom-1.9/bld/clib/process/c/uspl.c)
6fe269f0       _wspawnl_
Module: /mnt/sda5/.user/root/src/openwatcom-1.9/bld/clib/library/winnt.386/mf_rd/clib3r.lib(/mnt/sda5/.user/root/src/openwatcom-1.9/bld/clib/process/c/usple.c)
6fe26a40       _wspawnle_
Module: /mnt/sda5/.user/root/src/openwatcom-1.9/bld/clib/library/winnt.386/mf_rd/clib3r.lib(/mnt/sda5/.user/root/src/openwatcom-1.9/bld/clib/process/c/usplp.c)
6fe26aa0       _wspawnlp_
Module: /mnt/sda5/.user/root/src/openwatcom-1.9/bld/clib/library/winnt.386/mf_rd/clib3r.lib(/mnt/sda5/.user/root/src/openwatcom-1.9/bld/clib/process/c/usplpe.c)
6fe26ae0       _wspawnlpe_
Module: /mnt/sda5/.user/root/src/openwatcom-1.9/bld/clib/library/winnt.386/mf_rd/clib3r.lib(/mnt/sda5/.user/root/src/openwatcom-1.9/bld/clib/process/c/uspv.c)
6fe26b40       _wspawnv_
Module: /mnt/sda5/.user/root/src/openwatcom-1.9/bld/clib/library/winnt.386/mf_rd/clib3r.lib(/mnt/sda5/.user/root/src/openwatcom-1.9/bld/clib/process/c/uspve.c)
6fe26c20       _wspawnve_
Module: /mnt/sda5/.user/root/src/openwatcom-1.9/bld/clib/library/winnt.386/mf_rd/clib3r.lib(/mnt/sda5/.user/root/src/openwatcom-1.9/bld/clib/process/c/uspvp.c)
6fe27130       _wspawnvp_
Module: /mnt/sda5/.user/root/src/openwatcom-1.9/bld/clib/library/winnt.386/mf_rd/clib3r.lib(/mnt/sda5/.user/root/src/openwatcom-1.9/bld/clib/process/c/uspvpe.c)
6fe27190       _wspawnvpe_
Module: /mnt/sda5/.user/root/src/openwatcom-1.9/bld/clib/library/winnt.386/mf_rd/clib3r.lib(/mnt/sda5/.user/root/src/openwatcom-1.9/bld/clib/process/c/usystem.c)
6fe273c0       _wsystem_
Module: /mnt/sda5/.user/root/src/openwatcom-1.9/bld/clib/library/winnt.386/mf_rd/clib3r.lib(/mnt/sda5/.user/root/src/openwatcom-1.9/bld/clib/process/c/waitwnt.c)
6fe27490       wait_
Module: /mnt/sda5/.user/root/src/openwatcom-1.9/bld/clib/library/winnt.386/mf_rd/clib3r.lib(/mnt/sda5/.user/root/src/openwatcom-1.9/bld/clib/search/c/bsearch.c)
6fe274c0       bsearch_
Module: /mnt/sda5/.user/root/src/openwatcom-1.9/bld/clib/library/winnt.386/mf_rd/clib3r.lib(/mnt/sda5/.user/root/src/openwatcom-1.9/bld/clib/search/c/lfind.c)
6fe275a0       lfind_
Module: /mnt/sda5/.user/root/src/openwatcom-1.9/bld/clib/library/winnt.386/mf_rd/clib3r.lib(/mnt/sda5/.user/root/src/openwatcom-1.9/bld/clib/search/c/lsearch.c)
6fe27600       lsearch_
Module: /mnt/sda5/.user/root/src/openwatcom-1.9/bld/clib/library/winnt.386/mf_rd/clib3r.lib(/mnt/sda5/.user/root/src/openwatcom-1.9/bld/clib/search/c/qsort.c)
6fe27700       qsort_
Module: /mnt/sda5/.user/root/src/openwatcom-1.9/bld/clib/library/winnt.386/mf_rd/clib3r.lib(/mnt/sda5/.user/root/src/openwatcom-1.9/bld/clib/search/c/bsrch_s.c)
6fe27e40       bsearch_s_
Module: /mnt/sda5/.user/root/src/openwatcom-1.9/bld/clib/library/winnt.386/mf_rd/clib3r.lib(/mnt/sda5/.user/root/src/openwatcom-1.9/bld/clib/search/c/qsort_s.c)
6fe28110       qsort_s_
Module: /mnt/sda5/.user/root/src/openwatcom-1.9/bld/clib/library/winnt.386/mf_rd/clib3r.lib(/mnt/sda5/.user/root/src/openwatcom-1.9/bld/clib/startup/c/abort.c)
6fe28925       abort_
6fe2894d       __terminate_
6fe4d60c       ___abort
Module: /mnt/sda5/.user/root/src/openwatcom-1.9/bld/clib/library/winnt.386/mf_rd/clib3r.lib(/mnt/sda5/.user/root/src/openwatcom-1.9/bld/clib/startup/c/chk8087.c)
6fe289b0       _fpreset_
6fe289e0+      __init_8087_
6fe28a30       __chk8087_
Module: /mnt/sda5/.user/root/src/openwatcom-1.9/bld/clib/library/winnt.386/mf_rd/clib3r.lib(/mnt/sda5/.user/root/src/openwatcom-1.9/bld/clib/startup/c/cmdname.c)
6fe28a60       _cmdname_
Module: /mnt/sda5/.user/root/src/openwatcom-1.9/bld/clib/library/winnt.386/mf_rd/clib3r.lib(/mnt/sda5/.user/root/src/openwatcom-1.9/bld/clib/startup/c/crtinit.c)
6fe28a90       __CRT_INIT@12
Module: /mnt/sda5/.user/root/src/openwatcom-1.9/bld/clib/library/winnt.386/mf_rd/clib3r.lib(/mnt/sda5/.user/root/src/openwatcom-1.9/bld/clib/startup/c/cvtbuf.c)
6fe28ab0       __CVTBuffer_
Module: /mnt/sda5/.user/root/src/openwatcom-1.9/bld/clib/library/winnt.386/mf_rd/clib3r.lib(/mnt/sda5/.user/root/src/openwatcom-1.9/bld/clib/startup/c/enterdb.c)
6fe28ae0       __EnterWVIDEO_
6fe4d610       ___WD_Present
Module: /mnt/sda5/.user/root/src/openwatcom-1.9/bld/clib/library/winnt.386/mf_rd/clib3r.lib(/mnt/sda5/.user/root/src/openwatcom-1.9/bld/clib/startup/c/errno.c)
6fe28b40       __get_errno_ptr_
6fe28b70       __get_doserrno_ptr_
Module: /mnt/sda5/.user/root/src/openwatcom-1.9/bld/clib/library/winnt.386/mf_rd/clib3r.lib(/mnt/sda5/.user/root/src/openwatcom-1.9/bld/clib/startup/c/exit.c)
6fe28b96+      __null_int23_exit_
6fe28bb6       exit_
6fe28c15       _exit_
6fe4d614       ___int23_exit
6fe4d618+      ___FPE_handler_exit
Module: /mnt/sda5/.user/root/src/openwatcom-1.9/bld/clib/library/winnt.386/mf_rd/clib3r.lib(/mnt/sda5/.user/root/src/openwatcom-1.9/bld/clib/startup/c/imthread.c)
6fe4dcf6       __imthread
Module: /mnt/sda5/.user/root/src/openwatcom-1.9/bld/clib/library/winnt.386/mf_rd/clib3r.lib(/mnt/sda5/.user/root/src/openwatcom-1.9/bld/clib/startup/c/initargv.c)
6fe28c70       __Init_Argv_
6fe28ce0       _getargv_
6fe28f50       __Fini_Argv_
Module: /mnt/sda5/.user/root/src/openwatcom-1.9/bld/clib/library/winnt.386/mf_rd/clib3r.lib(/mnt/sda5/.user/root/src/openwatcom-1.9/bld/clib/startup/c/initwarg.c)
6fe28f80       __wInit_Argv_
6fe28ff0       _wgetargv_
6fe29280       __wFini_Argv_
Module: /mnt/sda5/.user/root/src/openwatcom-1.9/bld/clib/library/winnt.386/mf_rd/clib3r.lib(/mnt/sda5/.user/root/src/openwatcom-1.9/bld/clib/startup/c/ioexit.c)
6fe29370       fcloseall_
6fe293a0       __full_io_exit_
Module: /mnt/sda5/.user/root/src/openwatcom-1.9/bld/clib/library/winnt.386/mf_rd/clib3r.lib(/mnt/sda5/.user/root/src/openwatcom-1.9/bld/clib/startup/c/liballoc.c)
6fe293d0       _plib_malloc_
6fe29400       _plib_free_
Module: /mnt/sda5/.user/root/src/openwatcom-1.9/bld/clib/library/winnt.386/mf_rd/clib3r.lib(/mnt/sda5/.user/root/src/openwatcom-1.9/bld/clib/startup/c/ljmphdl.c)
6fe4d61c       ___longjmp_handler
Module: /mnt/sda5/.user/root/src/openwatcom-1.9/bld/clib/library/winnt.386/mf_rd/clib3r.lib(/mnt/sda5/.user/root/src/openwatcom-1.9/bld/clib/startup/c/mainwnt.c)
6fe4d620       ___TlsIndex
6fe4d624       ___FirstThreadData
6fe4d628       ___GetThreadPtr
6fe4d62c       __AccessFileH
6fe4d630       __ReleaseFileH
6fe4d634       __AccessIOB
6fe4d638       __ReleaseIOB
6fe4d63c       __AccessNHeap
6fe4d640       __AccessFHeap
6fe4d644       __ReleaseNHeap
6fe29460       __threadid_
6fe29560+      __sig_null_rtn_
6fe29580       __NTInit_
6fe29810       __NTFini_
6fe29880*      __NTMainInit_
6fe298f0       __exit_
6fe4d648       __ReleaseFHeap
6fe4d64c       __AccessTDList
6fe4d650       __ReleaseTDList
6fe4d654       __AccessFList
6fe4d658       __ReleaseFList
6fe4d65c       __ThreadExitRtn
6fe4d660       ___sig_init_rtn
6fe4d664       ___sig_fini_rtn
6fe4d668       ___process_fini
6fe4fbb4       ___Is_DLL
Module: /mnt/sda5/.user/root/src/openwatcom-1.9/bld/clib/library/winnt.386/mf_rd/clib3r.lib(/mnt/sda5/.user/root/src/openwatcom-1.9/bld/clib/startup/c/mtype.c)
6fe29950       __MachineType_
Module: /mnt/sda5/.user/root/src/openwatcom-1.9/bld/clib/library/winnt.386/mf_rd/clib3r.lib(/mnt/sda5/.user/root/src/openwatcom-1.9/bld/clib/startup/c/nomem.c)
6fe299b0       _Not_Enough_Memory_
Module: /mnt/sda5/.user/root/src/openwatcom-1.9/bld/clib/library/winnt.386/mf_rd/clib3r.lib(/mnt/sda5/.user/root/src/openwatcom-1.9/bld/clib/startup/c/nonibm.c)
6fe299e0*      __is_nonIBM_
6fe4d66c       ___NonIBM
Module: /mnt/sda5/.user/root/src/openwatcom-1.9/bld/clib/library/winnt.386/mf_rd/clib3r.lib(/mnt/sda5/.user/root/src/openwatcom-1.9/bld/clib/startup/c/onexit.c)
6fe29a40       onexit_
Module: /mnt/sda5/.user/root/src/openwatcom-1.9/bld/clib/library/winnt.386/mf_rd/clib3r.lib(/mnt/sda5/.user/root/src/openwatcom-1.9/bld/clib/startup/c/osbdptr.c)
6fe29a80       __get_osbuild_ptr_
Module: /mnt/sda5/.user/root/src/openwatcom-1.9/bld/clib/library/winnt.386/mf_rd/clib3r.lib(/mnt/sda5/.user/root/src/openwatcom-1.9/bld/clib/startup/c/osmjptr.c)
6fe29ab0       __get_osmajor_ptr_
Module: /mnt/sda5/.user/root/src/openwatcom-1.9/bld/clib/library/winnt.386/mf_rd/clib3r.lib(/mnt/sda5/.user/root/src/openwatcom-1.9/bld/clib/startup/c/osmnptr.c)
6fe29ae0       __get_osminor_ptr_
Module: /mnt/sda5/.user/root/src/openwatcom-1.9/bld/clib/library/winnt.386/mf_rd/clib3r.lib(/mnt/sda5/.user/root/src/openwatcom-1.9/bld/clib/startup/c/osvrptr.c)
6fe29b10       __get_osver_ptr_
Module: /mnt/sda5/.user/root/src/openwatcom-1.9/bld/clib/library/winnt.386/mf_rd/clib3r.lib(/mnt/sda5/.user/root/src/openwatcom-1.9/bld/clib/startup/c/pgmptr.c)
6fe29b40       __get_pgmptr_ptr_
Module: /mnt/sda5/.user/root/src/openwatcom-1.9/bld/clib/library/winnt.386/mf_rd/clib3r.lib(/mnt/sda5/.user/root/src/openwatcom-1.9/bld/clib/startup/c/rtcntrl.c)
6fe29b70       _SetLD64bit_
6fe29b90       _SetLD80bit_
6fe29bb0       _LDisDouble_
Module: /mnt/sda5/.user/root/src/openwatcom-1.9/bld/clib/library/winnt.386/mf_rd/clib3r.lib(seh)
6fe29bec       __TryInit
6fe29c0e       __TryFini
6fe29cfd       __TryUnwind
6fe29c1e       __TryHandler
6fe29c71       __Except
Module: /mnt/sda5/.user/root/src/openwatcom-1.9/bld/clib/library/winnt.386/mf_rd/clib3r.lib(sehv2)
6fe29d10       __TryInit2
6fe29d32       __TryFini2
6fe29e21       __TryUnwind2
6fe29d42       __TryHandler2
6fe29d95       __Except2
Module: /mnt/sda5/.user/root/src/openwatcom-1.9/bld/clib/library/winnt.386/mf_rd/clib3r.lib(/mnt/sda5/.user/root/src/openwatcom-1.9/bld/clib/startup/c/seterrno.c)
6fe29e33       __set_errno_
6fe29e54       __set_EDOM_
6fe29e79       __set_ERANGE_
6fe29e9e       __set_EINVAL_
6fe29ecd       __set_doserrno_
Module: /mnt/sda5/.user/root/src/openwatcom-1.9/bld/clib/library/winnt.386/mf_rd/clib3r.lib(/mnt/sda5/.user/root/src/openwatcom-1.9/bld/clib/startup/c/stackwnt.c)
6fe29ef0       stackavail_
Module: /mnt/sda5/.user/root/src/openwatcom-1.9/bld/clib/library/winnt.386/mf_rd/clib3r.lib(/mnt/sda5/.user/root/src/openwatcom-1.9/bld/clib/startup/a/stjmp386.asm)
6fe29f1c       _setjmp_
6fe29f55       longjmp_
Module: /mnt/sda5/.user/root/src/openwatcom-1.9/bld/clib/library/winnt.386/mf_rd/clib3r.lib(/mnt/sda5/.user/root/src/openwatcom-1.9/bld/clib/startup/a/stkwnt.asm)
6fe29fe1       __CHK
6fe29ff1       __STK
6fe2a010       __STKOVERFLOW_
6fe2a020       __GRO
6fe2a040       __alloca_probe
Module: /mnt/sda5/.user/root/src/openwatcom-1.9/bld/clib/library/winnt.386/mf_rd/clib3r.lib(/mnt/sda5/.user/root/src/openwatcom-1.9/bld/clib/startup/c/wnmjptr.c)
6fe2a060       __get_winmajor_ptr_
Module: /mnt/sda5/.user/root/src/openwatcom-1.9/bld/clib/library/winnt.386/mf_rd/clib3r.lib(/mnt/sda5/.user/root/src/openwatcom-1.9/bld/clib/startup/c/wnmnptr.c)
6fe2a090       __get_winminor_ptr_
Module: /mnt/sda5/.user/root/src/openwatcom-1.9/bld/clib/library/winnt.386/mf_rd/clib3r.lib(/mnt/sda5/.user/root/src/openwatcom-1.9/bld/clib/startup/c/wnvrptr.c)
6fe2a0c0       __get_winver_ptr_
Module: /mnt/sda5/.user/root/src/openwatcom-1.9/bld/clib/library/winnt.386/mf_rd/clib3r.lib(/mnt/sda5/.user/root/src/openwatcom-1.9/bld/clib/startup/c/wpgmptr.c)
6fe2a0f0       __get_wpgmptr_ptr_
Module: /mnt/sda5/.user/root/src/openwatcom-1.9/bld/clib/library/winnt.386/mf_rd/clib3r.lib(/mnt/sda5/.user/root/src/openwatcom-1.9/bld/clib/startup/c/xmsgwnt.c)
6fe2a120       __exit_with_msg_
6fe2a1a0       __fatal_runtime_error_
Module: /mnt/sda5/.user/root/src/openwatcom-1.9/bld/clib/library/winnt.386/mf_rd/clib3r.lib(/mnt/sda5/.user/root/src/openwatcom-1.9/bld/clib/startup/c/___argc.c)
6fe501d0       ____Argc
6fe501d4       ____Argv
Module: /mnt/sda5/.user/root/src/openwatcom-1.9/bld/clib/library/winnt.386/mf_rd/clib3r.lib(/mnt/sda5/.user/root/src/openwatcom-1.9/bld/clib/startup/c/___wargc.c)
6fe501d8       ____wArgv
6fe501dc       ____wArgc
Module: /mnt/sda5/.user/root/src/openwatcom-1.9/bld/clib/library/winnt.386/mf_rd/clib3r.lib(/mnt/sda5/.user/root/src/openwatcom-1.9/bld/clib/streamio/c/64fseek.c)
6fe2a2d0       _fseeki64_
Module: /mnt/sda5/.user/root/src/openwatcom-1.9/bld/clib/library/winnt.386/mf_rd/clib3r.lib(/mnt/sda5/.user/root/src/openwatcom-1.9/bld/clib/streamio/c/64ftell.c)
6fe2a580       _ftelli64_
Module: /mnt/sda5/.user/root/src/openwatcom-1.9/bld/clib/library/winnt.386/mf_rd/clib3r.lib(/mnt/sda5/.user/root/src/openwatcom-1.9/bld/clib/streamio/c/clearerr.c)
6fe2a640       clearerr_
Module: /mnt/sda5/.user/root/src/openwatcom-1.9/bld/clib/library/winnt.386/mf_rd/clib3r.lib(/mnt/sda5/.user/root/src/openwatcom-1.9/bld/clib/streamio/c/comtflag.c)
6fe2a680       __set_commode_
6fe4d684       __commode
Module: /mnt/sda5/.user/root/src/openwatcom-1.9/bld/clib/library/winnt.386/mf_rd/clib3r.lib(/mnt/sda5/.user/root/src/openwatcom-1.9/bld/clib/streamio/c/fclose.c)
6fe2a6b0       __doclose_
6fe2a790       __shutdown_stream_
6fe2a7d0       fclose_
6fe501e0       ___RmTmpFileFn
Module: /mnt/sda5/.user/root/src/openwatcom-1.9/bld/clib/library/winnt.386/mf_rd/clib3r.lib(/mnt/sda5/.user/root/src/openwatcom-1.9/bld/clib/streamio/c/fdopen.c)
6fe2a8e0       fdopen_
Module: /mnt/sda5/.user/root/src/openwatcom-1.9/bld/clib/library/winnt.386/mf_rd/clib3r.lib(/mnt/sda5/.user/root/src/openwatcom-1.9/bld/clib/streamio/c/feof.c)
6fe2aa10       feof_
Module: /mnt/sda5/.user/root/src/openwatcom-1.9/bld/clib/library/winnt.386/mf_rd/clib3r.lib(/mnt/sda5/.user/root/src/openwatcom-1.9/bld/clib/streamio/c/ferror.c)
6fe2aa40       ferror_
Module: /mnt/sda5/.user/root/src/openwatcom-1.9/bld/clib/library/winnt.386/mf_rd/clib3r.lib(/mnt/sda5/.user/root/src/openwatcom-1.9/bld/clib/streamio/c/fflush.c)
6fe2aa70       fflush_
Module: /mnt/sda5/.user/root/src/openwatcom-1.9/bld/clib/library/winnt.386/mf_rd/clib3r.lib(/mnt/sda5/.user/root/src/openwatcom-1.9/bld/clib/streamio/c/fgetc.c)
6fe2aab0       __fill_buffer_
6fe2ac20       fgetc_
Module: /mnt/sda5/.user/root/src/openwatcom-1.9/bld/clib/library/winnt.386/mf_rd/clib3r.lib(/mnt/sda5/.user/root/src/openwatcom-1.9/bld/clib/streamio/c/fgetchar.c)
6fe2ad40       fgetchar_
Module: /mnt/sda5/.user/root/src/openwatcom-1.9/bld/clib/library/winnt.386/mf_rd/clib3r.lib(/mnt/sda5/.user/root/src/openwatcom-1.9/bld/clib/streamio/c/fgetpos.c)
6fe2ad70       fgetpos_
Module: /mnt/sda5/.user/root/src/openwatcom-1.9/bld/clib/library/winnt.386/mf_rd/clib3r.lib(/mnt/sda5/.user/root/src/openwatcom-1.9/bld/clib/streamio/c/fgets.c)
6fe2adc0       fgets_
Module: /mnt/sda5/.user/root/src/openwatcom-1.9/bld/clib/library/winnt.386/mf_rd/clib3r.lib(/mnt/sda5/.user/root/src/openwatcom-1.9/bld/clib/streamio/c/flush.c)
6fe2ae80       __flush_
Module: /mnt/sda5/.user/root/src/openwatcom-1.9/bld/clib/library/winnt.386/mf_rd/clib3r.lib(/mnt/sda5/.user/root/src/openwatcom-1.9/bld/clib/streamio/c/flushall.c)
6fe2b010       __flushall_
6fe2b090       flushall_
Module: /mnt/sda5/.user/root/src/openwatcom-1.9/bld/clib/library/winnt.386/mf_rd/clib3r.lib(/mnt/sda5/.user/root/src/openwatcom-1.9/bld/clib/streamio/c/fopen.c)
6fe2b0c0       __open_flags_
6fe2b3f0       _fsopen_
6fe2b470       fopen_
6fe2b580       freopen_
Module: /mnt/sda5/.user/root/src/openwatcom-1.9/bld/clib/library/winnt.386/mf_rd/clib3r.lib(/mnt/sda5/.user/root/src/openwatcom-1.9/bld/clib/streamio/c/fopen_s.c)
6fe2b660       fopen_s_
Module: /mnt/sda5/.user/root/src/openwatcom-1.9/bld/clib/library/winnt.386/mf_rd/clib3r.lib(/mnt/sda5/.user/root/src/openwatcom-1.9/bld/clib/streamio/c/freop_s.c)
6fe2b7b0       freopen_s_
Module: /mnt/sda5/.user/root/src/openwatcom-1.9/bld/clib/library/winnt.386/mf_rd/clib3r.lib(/mnt/sda5/.user/root/src/openwatcom-1.9/bld/clib/streamio/c/fprintf.c)
6fe2b8c0       fprintf_
Module: /mnt/sda5/.user/root/src/openwatcom-1.9/bld/clib/library/winnt.386/mf_rd/clib3r.lib(/mnt/sda5/.user/root/src/openwatcom-1.9/bld/clib/streamio/c/fprntf_s.c)
6fe2b900       fprintf_s_
Module: /mnt/sda5/.user/root/src/openwatcom-1.9/bld/clib/library/winnt.386/mf_rd/clib3r.lib(/mnt/sda5/.user/root/src/openwatcom-1.9/bld/clib/streamio/c/fputc.c)
6fe2b940       fputc_
Module: /mnt/sda5/.user/root/src/openwatcom-1.9/bld/clib/library/winnt.386/mf_rd/clib3r.lib(/mnt/sda5/.user/root/src/openwatcom-1.9/bld/clib/streamio/c/fputchar.c)
6fe2bac0       fputchar_
Module: /mnt/sda5/.user/root/src/openwatcom-1.9/bld/clib/library/winnt.386/mf_rd/clib3r.lib(/mnt/sda5/.user/root/src/openwatcom-1.9/bld/clib/streamio/c/fputs.c)
6fe2baf0       fputs_
Module: /mnt/sda5/.user/root/src/openwatcom-1.9/bld/clib/library/winnt.386/mf_rd/clib3r.lib(/mnt/sda5/.user/root/src/openwatcom-1.9/bld/clib/streamio/c/fread.c)
6fe2bbe0       fread_
Module: /mnt/sda5/.user/root/src/openwatcom-1.9/bld/clib/library/winnt.386/mf_rd/clib3r.lib(/mnt/sda5/.user/root/src/openwatcom-1.9/bld/clib/streamio/c/fscanf.c)
6fe2bec0       vfscanf_
6fe2bf60       fscanf_
Module: /mnt/sda5/.user/root/src/openwatcom-1.9/bld/clib/library/winnt.386/mf_rd/clib3r.lib(/mnt/sda5/.user/root/src/openwatcom-1.9/bld/clib/streamio/c/fscanf_s.c)
6fe2c040       fscanf_s_
Module: /mnt/sda5/.user/root/src/openwatcom-1.9/bld/clib/library/winnt.386/mf_rd/clib3r.lib(/mnt/sda5/.user/root/src/openwatcom-1.9/bld/clib/streamio/c/fseek.c)
6fe2c210       fseek_
Module: /mnt/sda5/.user/root/src/openwatcom-1.9/bld/clib/library/winnt.386/mf_rd/clib3r.lib(/mnt/sda5/.user/root/src/openwatcom-1.9/bld/clib/streamio/c/fsetpos.c)
6fe2c430       fsetpos_
Module: /mnt/sda5/.user/root/src/openwatcom-1.9/bld/clib/library/winnt.386/mf_rd/clib3r.lib(/mnt/sda5/.user/root/src/openwatcom-1.9/bld/clib/streamio/c/ftell.c)
6fe2c460       ftell_
Module: /mnt/sda5/.user/root/src/openwatcom-1.9/bld/clib/library/winnt.386/mf_rd/clib3r.lib(/mnt/sda5/.user/root/src/openwatcom-1.9/bld/clib/streamio/c/fwide.c)
6fe2c500       fwide_
Module: /mnt/sda5/.user/root/src/openwatcom-1.9/bld/clib/library/winnt.386/mf_rd/clib3r.lib(/mnt/sda5/.user/root/src/openwatcom-1.9/bld/clib/streamio/c/fwrite.c)
6fe2c5c0       fwrite_
Module: /mnt/sda5/.user/root/src/openwatcom-1.9/bld/clib/library/winnt.386/mf_rd/clib3r.lib(/mnt/sda5/.user/root/src/openwatcom-1.9/bld/clib/streamio/c/getc.c)
6fe2c850       getc_
Module: /mnt/sda5/.user/root/src/openwatcom-1.9/bld/clib/library/winnt.386/mf_rd/clib3r.lib(/mnt/sda5/.user/root/src/openwatcom-1.9/bld/clib/streamio/c/getchar.c)
6fe2c880       getchar_
Module: /mnt/sda5/.user/root/src/openwatcom-1.9/bld/clib/library/winnt.386/mf_rd/clib3r.lib(/mnt/sda5/.user/root/src/openwatcom-1.9/bld/clib/streamio/c/gets.c)
6fe2c8b0       gets_
Module: /mnt/sda5/.user/root/src/openwatcom-1.9/bld/clib/library/winnt.386/mf_rd/clib3r.lib(/mnt/sda5/.user/root/src/openwatcom-1.9/bld/clib/streamio/c/gets_s.c)
6fe2c9a0       gets_s_
Module: /mnt/sda5/.user/root/src/openwatcom-1.9/bld/clib/library/winnt.386/mf_rd/clib3r.lib(/mnt/sda5/.user/root/src/openwatcom-1.9/bld/clib/streamio/c/getw.c)
6fe2cb50       _getw_
Module: /mnt/sda5/.user/root/src/openwatcom-1.9/bld/clib/library/winnt.386/mf_rd/clib3r.lib(/mnt/sda5/.user/root/src/openwatcom-1.9/bld/clib/streamio/c/iob.c)
6fe4d688       ___iob
6fe4d890       __fmode
6fe501e4       ___OpenStreams
6fe501e8       ___ClosedStreams
Module: /mnt/sda5/.user/root/src/openwatcom-1.9/bld/clib/library/winnt.386/mf_rd/clib3r.lib(/mnt/sda5/.user/root/src/openwatcom-1.9/bld/clib/streamio/c/iobaddr.c)
6fe2cba0       __get_std_stream_
6fe2cbe0       __get_std_file_
Module: /mnt/sda5/.user/root/src/openwatcom-1.9/bld/clib/library/winnt.386/mf_rd/clib3r.lib(/mnt/sda5/.user/root/src/openwatcom-1.9/bld/clib/streamio/c/iobptr.c)
6fe2cc10       __get_iob_ptr_
Module: /mnt/sda5/.user/root/src/openwatcom-1.9/bld/clib/library/winnt.386/mf_rd/clib3r.lib(/mnt/sda5/.user/root/src/openwatcom-1.9/bld/clib/streamio/c/noefgfmt.c)
6fe4d894       ___EFG_printf
6fe4d898       ___EFG_scanf
Module: /mnt/sda5/.user/root/src/openwatcom-1.9/bld/clib/library/winnt.386/mf_rd/clib3r.lib(/mnt/sda5/.user/root/src/openwatcom-1.9/bld/clib/streamio/c/pclose.c)
6fe2cca0       _pclose_
Module: /mnt/sda5/.user/root/src/openwatcom-1.9/bld/clib/library/winnt.386/mf_rd/clib3r.lib(/mnt/sda5/.user/root/src/openwatcom-1.9/bld/clib/streamio/c/perror.c)
6fe2cd40       perror_
Module: /mnt/sda5/.user/root/src/openwatcom-1.9/bld/clib/library/winnt.386/mf_rd/clib3r.lib(/mnt/sda5/.user/root/src/openwatcom-1.9/bld/clib/streamio/c/popen.c)
6fe2d1d0       _popen_
Module: /mnt/sda5/.user/root/src/openwatcom-1.9/bld/clib/library/winnt.386/mf_rd/clib3r.lib(/mnt/sda5/.user/root/src/openwatcom-1.9/bld/clib/streamio/c/printf.c)
6fe2d470       printf_
Module: /mnt/sda5/.user/root/src/openwatcom-1.9/bld/clib/library/winnt.386/mf_rd/clib3r.lib(/mnt/sda5/.user/root/src/openwatcom-1.9/bld/clib/streamio/c/printf_s.c)
6fe2d4b0       printf_s_
Module: /mnt/sda5/.user/root/src/openwatcom-1.9/bld/clib/library/winnt.386/mf_rd/clib3r.lib(/mnt/sda5/.user/root/src/openwatcom-1.9/bld/clib/streamio/c/putc.c)
6fe2d4f0       putc_
Module: /mnt/sda5/.user/root/src/openwatcom-1.9/bld/clib/library/winnt.386/mf_rd/clib3r.lib(/mnt/sda5/.user/root/src/openwatcom-1.9/bld/clib/streamio/c/putchar.c)
6fe2d520       putchar_
Module: /mnt/sda5/.user/root/src/openwatcom-1.9/bld/clib/library/winnt.386/mf_rd/clib3r.lib(/mnt/sda5/.user/root/src/openwatcom-1.9/bld/clib/streamio/c/puts.c)
6fe2d550       puts_
Module: /mnt/sda5/.user/root/src/openwatcom-1.9/bld/clib/library/winnt.386/mf_rd/clib3r.lib(/mnt/sda5/.user/root/src/openwatcom-1.9/bld/clib/streamio/c/putw.c)
6fe2d5b0       _putw_
Module: /mnt/sda5/.user/root/src/openwatcom-1.9/bld/clib/library/winnt.386/mf_rd/clib3r.lib(/mnt/sda5/.user/root/src/openwatcom-1.9/bld/clib/streamio/c/rewind.c)
6fe2d600       rewind_
Module: /mnt/sda5/.user/root/src/openwatcom-1.9/bld/clib/library/winnt.386/mf_rd/clib3r.lib(/mnt/sda5/.user/root/src/openwatcom-1.9/bld/clib/streamio/c/scanf.c)
6fe2d6a0       vscanf_
6fe2d6e0       scanf_
Module: /mnt/sda5/.user/root/src/openwatcom-1.9/bld/clib/library/winnt.386/mf_rd/clib3r.lib(/mnt/sda5/.user/root/src/openwatcom-1.9/bld/clib/streamio/c/scanf_s.c)
6fe2d7a0       scanf_s_
Module: /mnt/sda5/.user/root/src/openwatcom-1.9/bld/clib/library/winnt.386/mf_rd/clib3r.lib(/mnt/sda5/.user/root/src/openwatcom-1.9/bld/clib/streamio/c/setbuf.c)
6fe2d840       setbuf_
Module: /mnt/sda5/.user/root/src/openwatcom-1.9/bld/clib/library/winnt.386/mf_rd/clib3r.lib(/mnt/sda5/.user/root/src/openwatcom-1.9/bld/clib/streamio/c/setvbuf.c)
6fe2d890       setvbuf_
Module: /mnt/sda5/.user/root/src/openwatcom-1.9/bld/clib/library/winnt.386/mf_rd/clib3r.lib(/mnt/sda5/.user/root/src/openwatcom-1.9/bld/clib/streamio/c/tmpfl.c)
6fe2d980       tmpfile_
6fe2daf0+      __Init_Tmpfl_
6fe4d89c+      ___tmpfnext
Module: /mnt/sda5/.user/root/src/openwatcom-1.9/bld/clib/library/winnt.386/mf_rd/clib3r.lib(/mnt/sda5/.user/root/src/openwatcom-1.9/bld/clib/streamio/c/tmpfl_s.c)
6fe2db40       tmpfile_s_
Module: /mnt/sda5/.user/root/src/openwatcom-1.9/bld/clib/library/winnt.386/mf_rd/clib3r.lib(/mnt/sda5/.user/root/src/openwatcom-1.9/bld/clib/streamio/c/ufdopen.c)
6fe2dc3e       _wfdopen_
Module: /mnt/sda5/.user/root/src/openwatcom-1.9/bld/clib/library/winnt.386/mf_rd/clib3r.lib(/mnt/sda5/.user/root/src/openwatcom-1.9/bld/clib/streamio/c/ufgetc.c)
6fe2de45       fgetwc_
Module: /mnt/sda5/.user/root/src/openwatcom-1.9/bld/clib/library/winnt.386/mf_rd/clib3r.lib(/mnt/sda5/.user/root/src/openwatcom-1.9/bld/clib/streamio/c/ufgetcha.c)
6fe2df12       fgetwchar_
Module: /mnt/sda5/.user/root/src/openwatcom-1.9/bld/clib/library/winnt.386/mf_rd/clib3r.lib(/mnt/sda5/.user/root/src/openwatcom-1.9/bld/clib/streamio/c/ufgets.c)
6fe2df32       fgetws_
Module: /mnt/sda5/.user/root/src/openwatcom-1.9/bld/clib/library/winnt.386/mf_rd/clib3r.lib(/mnt/sda5/.user/root/src/openwatcom-1.9/bld/clib/streamio/c/ufopen.c)
6fe2dfef       __wopen_flags_
6fe2e316       _wfsopen_
6fe2e380       _wfopen_
6fe2e47b       _wfreopen_
Module: /mnt/sda5/.user/root/src/openwatcom-1.9/bld/clib/library/winnt.386/mf_rd/clib3r.lib(/mnt/sda5/.user/root/src/openwatcom-1.9/bld/clib/streamio/c/ufopen_s.c)
6fe2e550       _wfopen_s_
Module: /mnt/sda5/.user/root/src/openwatcom-1.9/bld/clib/library/winnt.386/mf_rd/clib3r.lib(/mnt/sda5/.user/root/src/openwatcom-1.9/bld/clib/streamio/c/ufreop_s.c)
6fe2e6a0       _wfreopen_s_
Module: /mnt/sda5/.user/root/src/openwatcom-1.9/bld/clib/library/winnt.386/mf_rd/clib3r.lib(/mnt/sda5/.user/root/src/openwatcom-1.9/bld/clib/streamio/c/ufprintf.c)
6fe2e7b0       fwprintf_
Module: /mnt/sda5/.user/root/src/openwatcom-1.9/bld/clib/library/winnt.386/mf_rd/clib3r.lib(/mnt/sda5/.user/root/src/openwatcom-1.9/bld/clib/streamio/c/ufprnt_s.c)
6fe2e7e0       fwprintf_s_
Module: /mnt/sda5/.user/root/src/openwatcom-1.9/bld/clib/library/winnt.386/mf_rd/clib3r.lib(/mnt/sda5/.user/root/src/openwatcom-1.9/bld/clib/streamio/c/ufputc.c)
6fe2e889       fputwc_
Module: /mnt/sda5/.user/root/src/openwatcom-1.9/bld/clib/library/winnt.386/mf_rd/clib3r.lib(/mnt/sda5/.user/root/src/openwatcom-1.9/bld/clib/streamio/c/ufputcha.c)
6fe2e91f       fputwchar_
Module: /mnt/sda5/.user/root/src/openwatcom-1.9/bld/clib/library/winnt.386/mf_rd/clib3r.lib(/mnt/sda5/.user/root/src/openwatcom-1.9/bld/clib/streamio/c/ufputs.c)
6fe2e946       fputws_
Module: /mnt/sda5/.user/root/src/openwatcom-1.9/bld/clib/library/winnt.386/mf_rd/clib3r.lib(/mnt/sda5/.user/root/src/openwatcom-1.9/bld/clib/streamio/c/ufscanf.c)
6fe2ea8b       vfwscanf_
6fe2eb22       fwscanf_
Module: /mnt/sda5/.user/root/src/openwatcom-1.9/bld/clib/library/winnt.386/mf_rd/clib3r.lib(/mnt/sda5/.user/root/src/openwatcom-1.9/bld/clib/streamio/c/ufscnf_s.c)
6fe2ec00       fwscanf_s_
Module: /mnt/sda5/.user/root/src/openwatcom-1.9/bld/clib/library/winnt.386/mf_rd/clib3r.lib(/mnt/sda5/.user/root/src/openwatcom-1.9/bld/clib/streamio/c/ugetc.c)
6fe2ed19       getwc_
Module: /mnt/sda5/.user/root/src/openwatcom-1.9/bld/clib/library/winnt.386/mf_rd/clib3r.lib(/mnt/sda5/.user/root/src/openwatcom-1.9/bld/clib/streamio/c/ugetchar.c)
6fe2ed3a       getwchar_
Module: /mnt/sda5/.user/root/src/openwatcom-1.9/bld/clib/library/winnt.386/mf_rd/clib3r.lib(/mnt/sda5/.user/root/src/openwatcom-1.9/bld/clib/streamio/c/ugets.c)
6fe2ed5a       getws_
Module: /mnt/sda5/.user/root/src/openwatcom-1.9/bld/clib/library/winnt.386/mf_rd/clib3r.lib(/mnt/sda5/.user/root/src/openwatcom-1.9/bld/clib/streamio/c/ungetc.c)
6fe2edf0       ungetc_
Module: /mnt/sda5/.user/root/src/openwatcom-1.9/bld/clib/library/winnt.386/mf_rd/clib3r.lib(/mnt/sda5/.user/root/src/openwatcom-1.9/bld/clib/streamio/c/uperror.c)
6fe2ef70       _wperror_
Module: /mnt/sda5/.user/root/src/openwatcom-1.9/bld/clib/library/winnt.386/mf_rd/clib3r.lib(/mnt/sda5/.user/root/src/openwatcom-1.9/bld/clib/streamio/c/upopen.c)
6fe2f420       _wpopen_
Module: /mnt/sda5/.user/root/src/openwatcom-1.9/bld/clib/library/winnt.386/mf_rd/clib3r.lib(/mnt/sda5/.user/root/src/openwatcom-1.9/bld/clib/streamio/c/uprintf.c)
6fe2f6d9       wprintf_
Module: /mnt/sda5/.user/root/src/openwatcom-1.9/bld/clib/library/winnt.386/mf_rd/clib3r.lib(/mnt/sda5/.user/root/src/openwatcom-1.9/bld/clib/streamio/c/uprntf_s.c)
6fe2f710       wprintf_s_
Module: /mnt/sda5/.user/root/src/openwatcom-1.9/bld/clib/library/winnt.386/mf_rd/clib3r.lib(/mnt/sda5/.user/root/src/openwatcom-1.9/bld/clib/streamio/c/uputc.c)
6fe2f743       putwc_
Module: /mnt/sda5/.user/root/src/openwatcom-1.9/bld/clib/library/winnt.386/mf_rd/clib3r.lib(/mnt/sda5/.user/root/src/openwatcom-1.9/bld/clib/streamio/c/uputchar.c)
6fe2f769       putwchar_
Module: /mnt/sda5/.user/root/src/openwatcom-1.9/bld/clib/library/winnt.386/mf_rd/clib3r.lib(/mnt/sda5/.user/root/src/openwatcom-1.9/bld/clib/streamio/c/uputs.c)
6fe2f790       putws_
Module: /mnt/sda5/.user/root/src/openwatcom-1.9/bld/clib/library/winnt.386/mf_rd/clib3r.lib(/mnt/sda5/.user/root/src/openwatcom-1.9/bld/clib/streamio/c/uscanf.c)
6fe2f844       vwscanf_
6fe2f87a       wscanf_
Module: /mnt/sda5/.user/root/src/openwatcom-1.9/bld/clib/library/winnt.386/mf_rd/clib3r.lib(/mnt/sda5/.user/root/src/openwatcom-1.9/bld/clib/streamio/c/uscanf_s.c)
6fe2f950       wscanf_s_
Module: /mnt/sda5/.user/root/src/openwatcom-1.9/bld/clib/library/winnt.386/mf_rd/clib3r.lib(/mnt/sda5/.user/root/src/openwatcom-1.9/bld/clib/streamio/c/uungetc.c)
6fe2f9e7       ungetwc_
Module: /mnt/sda5/.user/root/src/openwatcom-1.9/bld/clib/library/winnt.386/mf_rd/clib3r.lib(/mnt/sda5/.user/root/src/openwatcom-1.9/bld/clib/streamio/c/uvfprint.c)
6fe2fc2d       vfwprintf_
Module: /mnt/sda5/.user/root/src/openwatcom-1.9/bld/clib/library/winnt.386/mf_rd/clib3r.lib(/mnt/sda5/.user/root/src/openwatcom-1.9/bld/clib/streamio/c/uvfprt_s.c)
6fe2fc60       vfwprintf_s_
Module: /mnt/sda5/.user/root/src/openwatcom-1.9/bld/clib/library/winnt.386/mf_rd/clib3r.lib(/mnt/sda5/.user/root/src/openwatcom-1.9/bld/clib/streamio/c/uvfscn_s.c)
6fe2fd40       vfwscanf_s_
Module: /mnt/sda5/.user/root/src/openwatcom-1.9/bld/clib/library/winnt.386/mf_rd/clib3r.lib(/mnt/sda5/.user/root/src/openwatcom-1.9/bld/clib/streamio/c/uvprintf.c)
6fe2fe51       vwprintf_
Module: /mnt/sda5/.user/root/src/openwatcom-1.9/bld/clib/library/winnt.386/mf_rd/clib3r.lib(/mnt/sda5/.user/root/src/openwatcom-1.9/bld/clib/streamio/c/uvprtf_s.c)
6fe2fe80       vwprintf_s_
Module: /mnt/sda5/.user/root/src/openwatcom-1.9/bld/clib/library/winnt.386/mf_rd/clib3r.lib(/mnt/sda5/.user/root/src/openwatcom-1.9/bld/clib/streamio/c/uvscnf_s.c)
6fe2ff60       vwscanf_s_
Module: /mnt/sda5/.user/root/src/openwatcom-1.9/bld/clib/library/winnt.386/mf_rd/clib3r.lib(/mnt/sda5/.user/root/src/openwatcom-1.9/bld/clib/streamio/c/vfprintf.c)
6fe2fff0       vfprintf_
Module: /mnt/sda5/.user/root/src/openwatcom-1.9/bld/clib/library/winnt.386/mf_rd/clib3r.lib(/mnt/sda5/.user/root/src/openwatcom-1.9/bld/clib/streamio/c/vfprnt_s.c)
6fe30020       vfprintf_s_
Module: /mnt/sda5/.user/root/src/openwatcom-1.9/bld/clib/library/winnt.386/mf_rd/clib3r.lib(/mnt/sda5/.user/root/src/openwatcom-1.9/bld/clib/streamio/c/vfscnf_s.c)
6fe300f0       vfscanf_s_
Module: /mnt/sda5/.user/root/src/openwatcom-1.9/bld/clib/library/winnt.386/mf_rd/clib3r.lib(/mnt/sda5/.user/root/src/openwatcom-1.9/bld/clib/streamio/c/vprintf.c)
6fe30210       vprintf_
Module: /mnt/sda5/.user/root/src/openwatcom-1.9/bld/clib/library/winnt.386/mf_rd/clib3r.lib(/mnt/sda5/.user/root/src/openwatcom-1.9/bld/clib/streamio/c/vprntf_s.c)
6fe30250       vprintf_s_
Module: /mnt/sda5/.user/root/src/openwatcom-1.9/bld/clib/library/winnt.386/mf_rd/clib3r.lib(/mnt/sda5/.user/root/src/openwatcom-1.9/bld/clib/streamio/c/vscanf_s.c)
6fe30320       vscanf_s_
Module: /mnt/sda5/.user/root/src/openwatcom-1.9/bld/clib/library/winnt.386/mf_rd/clib3r.lib(/mnt/sda5/.user/root/src/openwatcom-1.9/bld/clib/string/c/bprintf.c)
6fe30410       _vbprintf_
6fe30470       _bprintf_
6fe304b0       _vsnprintf_
6fe30530       _snprintf_
Module: /mnt/sda5/.user/root/src/openwatcom-1.9/bld/clib/library/winnt.386/mf_rd/clib3r.lib(/mnt/sda5/.user/root/src/openwatcom-1.9/bld/clib/string/a/cmp386.asm)
6fe30570       strcmp_
Module: /mnt/sda5/.user/root/src/openwatcom-1.9/bld/clib/library/winnt.386/mf_rd/clib3r.lib(/mnt/sda5/.user/root/src/openwatcom-1.9/bld/clib/string/c/fstrcat.c)
6fe306b0       _fstrcat_
Module: /mnt/sda5/.user/root/src/openwatcom-1.9/bld/clib/library/winnt.386/mf_rd/clib3r.lib(/mnt/sda5/.user/root/src/openwatcom-1.9/bld/clib/string/c/fstrchr.c)
6fe30740       _fstrchr_
Module: /mnt/sda5/.user/root/src/openwatcom-1.9/bld/clib/library/winnt.386/mf_rd/clib3r.lib(/mnt/sda5/.user/root/src/openwatcom-1.9/bld/clib/string/c/fstrcmp.c)
6fe307b0       _fstrcmp_
Module: /mnt/sda5/.user/root/src/openwatcom-1.9/bld/clib/library/winnt.386/mf_rd/clib3r.lib(/mnt/sda5/.user/root/src/openwatcom-1.9/bld/clib/string/c/fstrcpy.c)
6fe30840       _fstrcpy_
Module: /mnt/sda5/.user/root/src/openwatcom-1.9/bld/clib/library/winnt.386/mf_rd/clib3r.lib(/mnt/sda5/.user/root/src/openwatcom-1.9/bld/clib/string/c/fstrcspn.c)
6fe308c0       _fstrcspn_
Module: /mnt/sda5/.user/root/src/openwatcom-1.9/bld/clib/library/winnt.386/mf_rd/clib3r.lib(/mnt/sda5/.user/root/src/openwatcom-1.9/bld/clib/string/c/fstrdup.c)
6fe30960       _fstrdup_
Module: /mnt/sda5/.user/root/src/openwatcom-1.9/bld/clib/library/winnt.386/mf_rd/clib3r.lib(/mnt/sda5/.user/root/src/openwatcom-1.9/bld/clib/string/c/fstricmp.c)
6fe309e0       _fstricmp_
Module: /mnt/sda5/.user/root/src/openwatcom-1.9/bld/clib/library/winnt.386/mf_rd/clib3r.lib(/mnt/sda5/.user/root/src/openwatcom-1.9/bld/clib/string/c/fstrlen.c)
6fe30a80       _fstrlen_
Module: /mnt/sda5/.user/root/src/openwatcom-1.9/bld/clib/library/winnt.386/mf_rd/clib3r.lib(/mnt/sda5/.user/root/src/openwatcom-1.9/bld/clib/string/c/fstrlwr.c)
6fe30ad0       _fstrlwr_
Module: /mnt/sda5/.user/root/src/openwatcom-1.9/bld/clib/library/winnt.386/mf_rd/clib3r.lib(/mnt/sda5/.user/root/src/openwatcom-1.9/bld/clib/string/c/fstrncat.c)
6fe30b50       _fstrncat_
Module: /mnt/sda5/.user/root/src/openwatcom-1.9/bld/clib/library/winnt.386/mf_rd/clib3r.lib(/mnt/sda5/.user/root/src/openwatcom-1.9/bld/clib/string/c/fstrncmp.c)
6fe30bf0       _fstrncmp_
Module: /mnt/sda5/.user/root/src/openwatcom-1.9/bld/clib/library/winnt.386/mf_rd/clib3r.lib(/mnt/sda5/.user/root/src/openwatcom-1.9/bld/clib/string/c/fstrncpy.c)
6fe30c90       _fstrncpy_
Module: /mnt/sda5/.user/root/src/openwatcom-1.9/bld/clib/library/winnt.386/mf_rd/clib3r.lib(/mnt/sda5/.user/root/src/openwatcom-1.9/bld/clib/string/c/fstrnicm.c)
6fe30d40       _fstrnicmp_
Module: /mnt/sda5/.user/root/src/openwatcom-1.9/bld/clib/library/winnt.386/mf_rd/clib3r.lib(/mnt/sda5/.user/root/src/openwatcom-1.9/bld/clib/string/c/fstrnset.c)
6fe30e00       _fstrnset_
Module: /mnt/sda5/.user/root/src/openwatcom-1.9/bld/clib/library/winnt.386/mf_rd/clib3r.lib(/mnt/sda5/.user/root/src/openwatcom-1.9/bld/clib/string/c/fstrpbrk.c)
6fe30e70       _fstrpbrk_
Module: /mnt/sda5/.user/root/src/openwatcom-1.9/bld/clib/library/winnt.386/mf_rd/clib3r.lib(/mnt/sda5/.user/root/src/openwatcom-1.9/bld/clib/string/c/fstrrchr.c)
6fe30f20       _fstrrchr_
Module: /mnt/sda5/.user/root/src/openwatcom-1.9/bld/clib/library/winnt.386/mf_rd/clib3r.lib(/mnt/sda5/.user/root/src/openwatcom-1.9/bld/clib/string/c/fstrrev.c)
6fe30fa0       _fstrrev_
Module: /mnt/sda5/.user/root/src/openwatcom-1.9/bld/clib/library/winnt.386/mf_rd/clib3r.lib(/mnt/sda5/.user/root/src/openwatcom-1.9/bld/clib/string/c/fstrset.c)
6fe31050       _fstrset_
Module: /mnt/sda5/.user/root/src/openwatcom-1.9/bld/clib/library/winnt.386/mf_rd/clib3r.lib(/mnt/sda5/.user/root/src/openwatcom-1.9/bld/clib/string/c/fstrspn.c)
6fe310c0       _fstrspn_
Module: /mnt/sda5/.user/root/src/openwatcom-1.9/bld/clib/library/winnt.386/mf_rd/clib3r.lib(/mnt/sda5/.user/root/src/openwatcom-1.9/bld/clib/string/c/fstrspnp.c)
6fe31160       _fstrspnp_
Module: /mnt/sda5/.user/root/src/openwatcom-1.9/bld/clib/library/winnt.386/mf_rd/clib3r.lib(/mnt/sda5/.user/root/src/openwatcom-1.9/bld/clib/string/c/fstrstr.c)
6fe311d0       _fstrstr_
Module: /mnt/sda5/.user/root/src/openwatcom-1.9/bld/clib/library/winnt.386/mf_rd/clib3r.lib(/mnt/sda5/.user/root/src/openwatcom-1.9/bld/clib/string/c/fstrtok.c)
6fe31320       _fstrtok_
Module: /mnt/sda5/.user/root/src/openwatcom-1.9/bld/clib/library/winnt.386/mf_rd/clib3r.lib(/mnt/sda5/.user/root/src/openwatcom-1.9/bld/clib/string/c/fstrupr.c)
6fe314d0       _fstrupr_
Module: /mnt/sda5/.user/root/src/openwatcom-1.9/bld/clib/library/winnt.386/mf_rd/clib3r.lib(/mnt/sda5/.user/root/src/openwatcom-1.9/bld/clib/string/c/selptr.c)
6fe31550       __get_sys_errlist_ptr_
Module: /mnt/sda5/.user/root/src/openwatcom-1.9/bld/clib/library/winnt.386/mf_rd/clib3r.lib(/mnt/sda5/.user/root/src/openwatcom-1.9/bld/clib/string/c/sneptr.c)
6fe31580       __get_sys_nerr_ptr_
Module: /mnt/sda5/.user/root/src/openwatcom-1.9/bld/clib/library/winnt.386/mf_rd/clib3r.lib(/mnt/sda5/.user/root/src/openwatcom-1.9/bld/clib/string/c/snprintf.c)
6fe31630       vsnprintf_
6fe316c0       snprintf_
Module: /mnt/sda5/.user/root/src/openwatcom-1.9/bld/clib/library/winnt.386/mf_rd/clib3r.lib(/mnt/sda5/.user/root/src/openwatcom-1.9/bld/clib/string/c/snprtf_s.c)
6fe31790       snprintf_s_
Module: /mnt/sda5/.user/root/src/openwatcom-1.9/bld/clib/library/winnt.386/mf_rd/clib3r.lib(/mnt/sda5/.user/root/src/openwatcom-1.9/bld/clib/string/c/sprintf.c)
6fe318c0       sprintf_
Module: /mnt/sda5/.user/root/src/openwatcom-1.9/bld/clib/library/winnt.386/mf_rd/clib3r.lib(/mnt/sda5/.user/root/src/openwatcom-1.9/bld/clib/string/c/sprntf_s.c)
6fe319a0       sprintf_s_
Module: /mnt/sda5/.user/root/src/openwatcom-1.9/bld/clib/library/winnt.386/mf_rd/clib3r.lib(/mnt/sda5/.user/root/src/openwatcom-1.9/bld/clib/string/c/sscanf.c)
6fe31b60       vsscanf_
6fe31bb0       sscanf_
Module: /mnt/sda5/.user/root/src/openwatcom-1.9/bld/clib/library/winnt.386/mf_rd/clib3r.lib(/mnt/sda5/.user/root/src/openwatcom-1.9/bld/clib/string/c/sscanf_s.c)
6fe31ca0       sscanf_s_
Module: /mnt/sda5/.user/root/src/openwatcom-1.9/bld/clib/library/winnt.386/mf_rd/clib3r.lib(/mnt/sda5/.user/root/src/openwatcom-1.9/bld/clib/string/c/strcat.c)
6fe31d70       strcat_
Module: /mnt/sda5/.user/root/src/openwatcom-1.9/bld/clib/library/winnt.386/mf_rd/clib3r.lib(/mnt/sda5/.user/root/src/openwatcom-1.9/bld/clib/string/c/strchr.c)
6fe31dc0       strchr_
Module: /mnt/sda5/.user/root/src/openwatcom-1.9/bld/clib/library/winnt.386/mf_rd/clib3r.lib(/mnt/sda5/.user/root/src/openwatcom-1.9/bld/clib/string/c/strcoll.c)
6fe31e10       strcoll_
Module: /mnt/sda5/.user/root/src/openwatcom-1.9/bld/clib/library/winnt.386/mf_rd/clib3r.lib(/mnt/sda5/.user/root/src/openwatcom-1.9/bld/clib/string/c/strcpy.c)
6fe31e70       strcpy_
Module: /mnt/sda5/.user/root/src/openwatcom-1.9/bld/clib/library/winnt.386/mf_rd/clib3r.lib(/mnt/sda5/.user/root/src/openwatcom-1.9/bld/clib/string/c/strcspn.c)
6fe31ec0       strcspn_
Module: /mnt/sda5/.user/root/src/openwatcom-1.9/bld/clib/library/winnt.386/mf_rd/clib3r.lib(/mnt/sda5/.user/root/src/openwatcom-1.9/bld/clib/string/c/strdup.c)
6fe31f40       __clib_strdup_
Module: /mnt/sda5/.user/root/src/openwatcom-1.9/bld/clib/library/winnt.386/mf_rd/clib3r.lib(/mnt/sda5/.user/root/src/openwatcom-1.9/bld/clib/string/c/strerror.c)
6fe322b0       strerror_
6fe32300       _strerror_
6fe32390       _doserror_
6fe4d8a0       __sys_errlist
6fe4d944       __sys_nerr
Module: /mnt/sda5/.user/root/src/openwatcom-1.9/bld/clib/library/winnt.386/mf_rd/clib3r.lib(/mnt/sda5/.user/root/src/openwatcom-1.9/bld/clib/string/c/stricmp.c)
6fe323e0       stricmp_
Module: /mnt/sda5/.user/root/src/openwatcom-1.9/bld/clib/library/winnt.386/mf_rd/clib3r.lib(/mnt/sda5/.user/root/src/openwatcom-1.9/bld/clib/string/c/strlcat.c)
6fe32460       strlcat_
Module: /mnt/sda5/.user/root/src/openwatcom-1.9/bld/clib/library/winnt.386/mf_rd/clib3r.lib(/mnt/sda5/.user/root/src/openwatcom-1.9/bld/clib/string/c/strlcpy.c)
6fe32500       strlcpy_
Module: /mnt/sda5/.user/root/src/openwatcom-1.9/bld/clib/library/winnt.386/mf_rd/clib3r.lib(/mnt/sda5/.user/root/src/openwatcom-1.9/bld/clib/string/c/strlen.c)
6fe32590       strlen_
Module: /mnt/sda5/.user/root/src/openwatcom-1.9/bld/clib/library/winnt.386/mf_rd/clib3r.lib(/mnt/sda5/.user/root/src/openwatcom-1.9/bld/clib/string/c/strlwr.c)
6fe325d0       strlwr_
Module: /mnt/sda5/.user/root/src/openwatcom-1.9/bld/clib/library/winnt.386/mf_rd/clib3r.lib(/mnt/sda5/.user/root/src/openwatcom-1.9/bld/clib/string/c/strncat.c)
6fe32630       strncat_
Module: /mnt/sda5/.user/root/src/openwatcom-1.9/bld/clib/library/winnt.386/mf_rd/clib3r.lib(/mnt/sda5/.user/root/src/openwatcom-1.9/bld/clib/string/c/strncmp.c)
6fe326a0       strncmp_
Module: /mnt/sda5/.user/root/src/openwatcom-1.9/bld/clib/library/winnt.386/mf_rd/clib3r.lib(/mnt/sda5/.user/root/src/openwatcom-1.9/bld/clib/string/c/strncpy.c)
6fe32710       strncpy_
Module: /mnt/sda5/.user/root/src/openwatcom-1.9/bld/clib/library/winnt.386/mf_rd/clib3r.lib(/mnt/sda5/.user/root/src/openwatcom-1.9/bld/clib/string/c/strnicmp.c)
6fe32780       strnicmp_
Module: /mnt/sda5/.user/root/src/openwatcom-1.9/bld/clib/library/winnt.386/mf_rd/clib3r.lib(/mnt/sda5/.user/root/src/openwatcom-1.9/bld/clib/string/c/strnset.c)
6fe32820       strnset_
Module: /mnt/sda5/.user/root/src/openwatcom-1.9/bld/clib/library/winnt.386/mf_rd/clib3r.lib(/mnt/sda5/.user/root/src/openwatcom-1.9/bld/clib/string/c/strpbrk.c)
6fe32870       strpbrk_
Module: /mnt/sda5/.user/root/src/openwatcom-1.9/bld/clib/library/winnt.386/mf_rd/clib3r.lib(/mnt/sda5/.user/root/src/openwatcom-1.9/bld/clib/string/c/strrchr.c)
6fe328f0       strrchr_
Module: /mnt/sda5/.user/root/src/openwatcom-1.9/bld/clib/library/winnt.386/mf_rd/clib3r.lib(/mnt/sda5/.user/root/src/openwatcom-1.9/bld/clib/string/c/strrev.c)
6fe32940       strrev_
Module: /mnt/sda5/.user/root/src/openwatcom-1.9/bld/clib/library/winnt.386/mf_rd/clib3r.lib(/mnt/sda5/.user/root/src/openwatcom-1.9/bld/clib/string/c/strset.c)
6fe329b0       strset_
Module: /mnt/sda5/.user/root/src/openwatcom-1.9/bld/clib/library/winnt.386/mf_rd/clib3r.lib(/mnt/sda5/.user/root/src/openwatcom-1.9/bld/clib/string/c/strspnp.c)
6fe329f0       strspnp_
Module: /mnt/sda5/.user/root/src/openwatcom-1.9/bld/clib/library/winnt.386/mf_rd/clib3r.lib(/mnt/sda5/.user/root/src/openwatcom-1.9/bld/clib/string/c/strspn.c)
6fe32a40       strspn_
Module: /mnt/sda5/.user/root/src/openwatcom-1.9/bld/clib/library/winnt.386/mf_rd/clib3r.lib(/mnt/sda5/.user/root/src/openwatcom-1.9/bld/clib/string/c/strstr.c)
6fe32ac0       strstr_
Module: /mnt/sda5/.user/root/src/openwatcom-1.9/bld/clib/library/winnt.386/mf_rd/clib3r.lib(/mnt/sda5/.user/root/src/openwatcom-1.9/bld/clib/string/c/strtok.c)
6fe32b90       strtok_
Module: /mnt/sda5/.user/root/src/openwatcom-1.9/bld/clib/library/winnt.386/mf_rd/clib3r.lib(/mnt/sda5/.user/root/src/openwatcom-1.9/bld/clib/string/c/strupr.c)
6fe32ca0       strupr_
Module: /mnt/sda5/.user/root/src/openwatcom-1.9/bld/clib/library/winnt.386/mf_rd/clib3r.lib(/mnt/sda5/.user/root/src/openwatcom-1.9/bld/clib/string/c/strxfrm.c)
6fe32d00       strxfrm_
Module: /mnt/sda5/.user/root/src/openwatcom-1.9/bld/clib/library/winnt.386/mf_rd/clib3r.lib(/mnt/sda5/.user/root/src/openwatcom-1.9/bld/clib/string/c/stncat_s.c)
6fe32df0       strncat_s_
Module: /mnt/sda5/.user/root/src/openwatcom-1.9/bld/clib/library/winnt.386/mf_rd/clib3r.lib(/mnt/sda5/.user/root/src/openwatcom-1.9/bld/clib/string/c/stncpy_s.c)
6fe33090       strncpy_s_
Module: /mnt/sda5/.user/root/src/openwatcom-1.9/bld/clib/library/winnt.386/mf_rd/clib3r.lib(/mnt/sda5/.user/root/src/openwatcom-1.9/bld/clib/string/c/strcat_s.c)
6fe332f0       strcat_s_
Module: /mnt/sda5/.user/root/src/openwatcom-1.9/bld/clib/library/winnt.386/mf_rd/clib3r.lib(/mnt/sda5/.user/root/src/openwatcom-1.9/bld/clib/string/c/strcpy_s.c)
6fe33540       strcpy_s_
Module: /mnt/sda5/.user/root/src/openwatcom-1.9/bld/clib/library/winnt.386/mf_rd/clib3r.lib(/mnt/sda5/.user/root/src/openwatcom-1.9/bld/clib/string/c/streln_s.c)
6fe336f0       strerrorlen_s_
Module: /mnt/sda5/.user/root/src/openwatcom-1.9/bld/clib/library/winnt.386/mf_rd/clib3r.lib(/mnt/sda5/.user/root/src/openwatcom-1.9/bld/clib/string/c/strerr_s.c)
6fe337b0       strerror_s_
Module: /mnt/sda5/.user/root/src/openwatcom-1.9/bld/clib/library/winnt.386/mf_rd/clib3r.lib(/mnt/sda5/.user/root/src/openwatcom-1.9/bld/clib/string/c/strnln_s.c)
6fe33920       strnlen_s_
Module: /mnt/sda5/.user/root/src/openwatcom-1.9/bld/clib/library/winnt.386/mf_rd/clib3r.lib(/mnt/sda5/.user/root/src/openwatcom-1.9/bld/clib/string/c/strtok_s.c)
6fe33a00       strtok_s_
Module: /mnt/sda5/.user/root/src/openwatcom-1.9/bld/clib/library/winnt.386/mf_rd/clib3r.lib(/mnt/sda5/.user/root/src/openwatcom-1.9/bld/clib/string/c/u_stprtf.c)
6fe33c90       _stprintf_
Module: /mnt/sda5/.user/root/src/openwatcom-1.9/bld/clib/library/winnt.386/mf_rd/clib3r.lib(/mnt/sda5/.user/root/src/openwatcom-1.9/bld/clib/string/c/ubprintf.c)
6fe33d20       _vbwprintf_
6fe33d7b       _bwprintf_
6fe33da8       _vsnwprintf_
6fe33e19       _snwprintf_
Module: /mnt/sda5/.user/root/src/openwatcom-1.9/bld/clib/library/winnt.386/mf_rd/clib3r.lib(/mnt/sda5/.user/root/src/openwatcom-1.9/bld/clib/string/c/usnprt_s.c)
6fe33ee0       snwprintf_s_
Module: /mnt/sda5/.user/root/src/openwatcom-1.9/bld/clib/library/winnt.386/mf_rd/clib3r.lib(/mnt/sda5/.user/root/src/openwatcom-1.9/bld/clib/string/c/usprintf.c)
6fe3400b       swprintf_
6fe34038       _swprintf_
Module: /mnt/sda5/.user/root/src/openwatcom-1.9/bld/clib/library/winnt.386/mf_rd/clib3r.lib(/mnt/sda5/.user/root/src/openwatcom-1.9/bld/clib/string/c/usprtf_s.c)
6fe34110       swprintf_s_
Module: /mnt/sda5/.user/root/src/openwatcom-1.9/bld/clib/library/winnt.386/mf_rd/clib3r.lib(/mnt/sda5/.user/root/src/openwatcom-1.9/bld/clib/string/c/usscanf.c)
6fe342b4       vswscanf_
6fe342f1       swscanf_
Module: /mnt/sda5/.user/root/src/openwatcom-1.9/bld/clib/library/winnt.386/mf_rd/clib3r.lib(/mnt/sda5/.user/root/src/openwatcom-1.9/bld/clib/string/c/usscnf_s.c)
6fe343d0       swscanf_s_
Module: /mnt/sda5/.user/root/src/openwatcom-1.9/bld/clib/library/winnt.386/mf_rd/clib3r.lib(/mnt/sda5/.user/root/src/openwatcom-1.9/bld/clib/string/c/ustrcat.c)
6fe34492       wcscat_
Module: /mnt/sda5/.user/root/src/openwatcom-1.9/bld/clib/library/winnt.386/mf_rd/clib3r.lib(/mnt/sda5/.user/root/src/openwatcom-1.9/bld/clib/string/c/ustrchr.c)
6fe344e2       wcschr_
Module: /mnt/sda5/.user/root/src/openwatcom-1.9/bld/clib/library/winnt.386/mf_rd/clib3r.lib(/mnt/sda5/.user/root/src/openwatcom-1.9/bld/clib/string/c/ustrcmp.c)
6fe34527       wcscmp_
Module: /mnt/sda5/.user/root/src/openwatcom-1.9/bld/clib/library/winnt.386/mf_rd/clib3r.lib(/mnt/sda5/.user/root/src/openwatcom-1.9/bld/clib/string/c/ustrcoll.c)
6fe34580       wcscoll_
Module: /mnt/sda5/.user/root/src/openwatcom-1.9/bld/clib/library/winnt.386/mf_rd/clib3r.lib(/mnt/sda5/.user/root/src/openwatcom-1.9/bld/clib/string/c/ustrcpy.c)
6fe345e6       wcscpy_
Module: /mnt/sda5/.user/root/src/openwatcom-1.9/bld/clib/library/winnt.386/mf_rd/clib3r.lib(/mnt/sda5/.user/root/src/openwatcom-1.9/bld/clib/string/c/ustrcspn.c)
6fe34627       wcscspn_
Module: /mnt/sda5/.user/root/src/openwatcom-1.9/bld/clib/library/winnt.386/mf_rd/clib3r.lib(/mnt/sda5/.user/root/src/openwatcom-1.9/bld/clib/string/c/ustrdup.c)
6fe346a3       __clib_wcsdup_
Module: /mnt/sda5/.user/root/src/openwatcom-1.9/bld/clib/library/winnt.386/mf_rd/clib3r.lib(/mnt/sda5/.user/root/src/openwatcom-1.9/bld/clib/string/c/ustrerro.c)
6fe34710       wcserror_
6fe34770       _wcserror_
6fe34800       _wdoserror_
Module: /mnt/sda5/.user/root/src/openwatcom-1.9/bld/clib/library/winnt.386/mf_rd/clib3r.lib(/mnt/sda5/.user/root/src/openwatcom-1.9/bld/clib/string/c/ustricmp.c)
6fe3484d       _wcsicmp_
Module: /mnt/sda5/.user/root/src/openwatcom-1.9/bld/clib/library/winnt.386/mf_rd/clib3r.lib(/mnt/sda5/.user/root/src/openwatcom-1.9/bld/clib/string/c/ustrlcat.c)
6fe348db       wcslcat_
Module: /mnt/sda5/.user/root/src/openwatcom-1.9/bld/clib/library/winnt.386/mf_rd/clib3r.lib(/mnt/sda5/.user/root/src/openwatcom-1.9/bld/clib/string/c/ustrlcpy.c)
6fe34980       wcslcpy_
Module: /mnt/sda5/.user/root/src/openwatcom-1.9/bld/clib/library/winnt.386/mf_rd/clib3r.lib(/mnt/sda5/.user/root/src/openwatcom-1.9/bld/clib/string/c/ustrlen.c)
6fe34a10       wcslen_
Module: /mnt/sda5/.user/root/src/openwatcom-1.9/bld/clib/library/winnt.386/mf_rd/clib3r.lib(/mnt/sda5/.user/root/src/openwatcom-1.9/bld/clib/string/c/ustrlwr.c)
6fe34a46       _wcslwr_
Module: /mnt/sda5/.user/root/src/openwatcom-1.9/bld/clib/library/winnt.386/mf_rd/clib3r.lib(/mnt/sda5/.user/root/src/openwatcom-1.9/bld/clib/string/c/ustrncat.c)
6fe34a9e       wcsncat_
Module: /mnt/sda5/.user/root/src/openwatcom-1.9/bld/clib/library/winnt.386/mf_rd/clib3r.lib(/mnt/sda5/.user/root/src/openwatcom-1.9/bld/clib/string/c/ustrncmp.c)
6fe34b01       wcsncmp_
Module: /mnt/sda5/.user/root/src/openwatcom-1.9/bld/clib/library/winnt.386/mf_rd/clib3r.lib(/mnt/sda5/.user/root/src/openwatcom-1.9/bld/clib/string/c/ustrncpy.c)
6fe34b69       wcsncpy_
Module: /mnt/sda5/.user/root/src/openwatcom-1.9/bld/clib/library/winnt.386/mf_rd/clib3r.lib(/mnt/sda5/.user/root/src/openwatcom-1.9/bld/clib/string/c/ustrnicm.c)
6fe34bd0       _wcsnicmp_
Module: /mnt/sda5/.user/root/src/openwatcom-1.9/bld/clib/library/winnt.386/mf_rd/clib3r.lib(/mnt/sda5/.user/root/src/openwatcom-1.9/bld/clib/string/c/ustrnset.c)
6fe34c7f       _wcsnset_
Module: /mnt/sda5/.user/root/src/openwatcom-1.9/bld/clib/library/winnt.386/mf_rd/clib3r.lib(/mnt/sda5/.user/root/src/openwatcom-1.9/bld/clib/string/c/ustrpbrk.c)
6fe34cc7       wcspbrk_
Module: /mnt/sda5/.user/root/src/openwatcom-1.9/bld/clib/library/winnt.386/mf_rd/clib3r.lib(/mnt/sda5/.user/root/src/openwatcom-1.9/bld/clib/string/c/ustrrchr.c)
6fe34d4a       wcsrchr_
Module: /mnt/sda5/.user/root/src/openwatcom-1.9/bld/clib/library/winnt.386/mf_rd/clib3r.lib(/mnt/sda5/.user/root/src/openwatcom-1.9/bld/clib/string/c/ustrrev.c)
6fe34d93       _wcsrev_
Module: /mnt/sda5/.user/root/src/openwatcom-1.9/bld/clib/library/winnt.386/mf_rd/clib3r.lib(/mnt/sda5/.user/root/src/openwatcom-1.9/bld/clib/string/c/ustrset.c)
6fe34dfd       _wcsset_
Module: /mnt/sda5/.user/root/src/openwatcom-1.9/bld/clib/library/winnt.386/mf_rd/clib3r.lib(/mnt/sda5/.user/root/src/openwatcom-1.9/bld/clib/string/c/ustrspn.c)
6fe34e38       wcsspn_
Module: /mnt/sda5/.user/root/src/openwatcom-1.9/bld/clib/library/winnt.386/mf_rd/clib3r.lib(/mnt/sda5/.user/root/src/openwatcom-1.9/bld/clib/string/c/ustrspnp.c)
6fe34ec0       _wcsspnp_
Module: /mnt/sda5/.user/root/src/openwatcom-1.9/bld/clib/library/winnt.386/mf_rd/clib3r.lib(/mnt/sda5/.user/root/src/openwatcom-1.9/bld/clib/string/c/ustrstr.c)
6fe34f10       wcsstr_
Module: /mnt/sda5/.user/root/src/openwatcom-1.9/bld/clib/library/winnt.386/mf_rd/clib3r.lib(/mnt/sda5/.user/root/src/openwatcom-1.9/bld/clib/string/c/ustrtok.c)
6fe34fcf       _ustrtok_
6fe34ff6       wcstok_
Module: /mnt/sda5/.user/root/src/openwatcom-1.9/bld/clib/library/winnt.386/mf_rd/clib3r.lib(/mnt/sda5/.user/root/src/openwatcom-1.9/bld/clib/string/c/ustrupr.c)
6fe3515a       _wcsupr_
Module: /mnt/sda5/.user/root/src/openwatcom-1.9/bld/clib/library/winnt.386/mf_rd/clib3r.lib(/mnt/sda5/.user/root/src/openwatcom-1.9/bld/clib/string/c/ustrxfrm.c)
6fe351c0       wcsxfrm_
Module: /mnt/sda5/.user/root/src/openwatcom-1.9/bld/clib/library/winnt.386/mf_rd/clib3r.lib(/mnt/sda5/.user/root/src/openwatcom-1.9/bld/clib/string/c/uvsnpr_s.c)
6fe352b0       vsnwprintf_s_
Module: /mnt/sda5/.user/root/src/openwatcom-1.9/bld/clib/library/winnt.386/mf_rd/clib3r.lib(/mnt/sda5/.user/root/src/openwatcom-1.9/bld/clib/string/c/uvsprint.c)
6fe3541c       vswprintf_
6fe3547a       _vswprintf_
Module: /mnt/sda5/.user/root/src/openwatcom-1.9/bld/clib/library/winnt.386/mf_rd/clib3r.lib(/mnt/sda5/.user/root/src/openwatcom-1.9/bld/clib/string/c/uvsprt_s.c)
6fe35580       vswprintf_s_
Module: /mnt/sda5/.user/root/src/openwatcom-1.9/bld/clib/library/winnt.386/mf_rd/clib3r.lib(/mnt/sda5/.user/root/src/openwatcom-1.9/bld/clib/string/c/uvsscn_s.c)
6fe35770       vswscanf_s_
Module: /mnt/sda5/.user/root/src/openwatcom-1.9/bld/clib/library/winnt.386/mf_rd/clib3r.lib(/mnt/sda5/.user/root/src/openwatcom-1.9/bld/clib/string/c/ustcat_s.c)
6fe358b0       wcscat_s_
Module: /mnt/sda5/.user/root/src/openwatcom-1.9/bld/clib/library/winnt.386/mf_rd/clib3r.lib(/mnt/sda5/.user/root/src/openwatcom-1.9/bld/clib/string/c/ustncp_s.c)
6fe35b20       wcsncpy_s_
Module: /mnt/sda5/.user/root/src/openwatcom-1.9/bld/clib/library/winnt.386/mf_rd/clib3r.lib(/mnt/sda5/.user/root/src/openwatcom-1.9/bld/clib/string/c/ustnct_s.c)
6fe35db0       wcsncat_s_
Module: /mnt/sda5/.user/root/src/openwatcom-1.9/bld/clib/library/winnt.386/mf_rd/clib3r.lib(/mnt/sda5/.user/root/src/openwatcom-1.9/bld/clib/string/c/ustnln_s.c)
6fe35ff0       wcsnlen_s_
Module: /mnt/sda5/.user/root/src/openwatcom-1.9/bld/clib/library/winnt.386/mf_rd/clib3r.lib(/mnt/sda5/.user/root/src/openwatcom-1.9/bld/clib/string/c/ustrcp_s.c)
6fe360a0       wcscpy_s_
Module: /mnt/sda5/.user/root/src/openwatcom-1.9/bld/clib/library/winnt.386/mf_rd/clib3r.lib(/mnt/sda5/.user/root/src/openwatcom-1.9/bld/clib/string/c/ustrel_s.c)
6fe36260       wcserrorlen_s_
Module: /mnt/sda5/.user/root/src/openwatcom-1.9/bld/clib/library/winnt.386/mf_rd/clib3r.lib(/mnt/sda5/.user/root/src/openwatcom-1.9/bld/clib/string/c/ustrer_s.c)
6fe36320       wcserror_s_
Module: /mnt/sda5/.user/root/src/openwatcom-1.9/bld/clib/library/winnt.386/mf_rd/clib3r.lib(/mnt/sda5/.user/root/src/openwatcom-1.9/bld/clib/string/c/ustrtk_s.c)
6fe36530       wcstok_s_
Module: /mnt/sda5/.user/root/src/openwatcom-1.9/bld/clib/library/winnt.386/mf_rd/clib3r.lib(/mnt/sda5/.user/root/src/openwatcom-1.9/bld/clib/string/c/vsnprt_s.c)
6fe36860       vsnprintf_s_
Module: /mnt/sda5/.user/root/src/openwatcom-1.9/bld/clib/library/winnt.386/mf_rd/clib3r.lib(/mnt/sda5/.user/root/src/openwatcom-1.9/bld/clib/string/c/vsprintf.c)
6fe369b0       vsprintf_
Module: /mnt/sda5/.user/root/src/openwatcom-1.9/bld/clib/library/winnt.386/mf_rd/clib3r.lib(/mnt/sda5/.user/root/src/openwatcom-1.9/bld/clib/string/c/vsprtf_s.c)
6fe36aa0       vsprintf_s_
Module: /mnt/sda5/.user/root/src/openwatcom-1.9/bld/clib/library/winnt.386/mf_rd/clib3r.lib(/mnt/sda5/.user/root/src/openwatcom-1.9/bld/clib/string/c/vsscnf_s.c)
6fe36c80       vsscanf_s_
Module: /mnt/sda5/.user/root/src/openwatcom-1.9/bld/clib/library/winnt.386/mf_rd/clib3r.lib(/mnt/sda5/.user/root/src/openwatcom-1.9/bld/clib/time/c/asctime.c)
6fe36dbd       _asctime_
6fe36f16       asctime_
6fe36f40       _ctime_
6fe36f6f       ctime_
Module: /mnt/sda5/.user/root/src/openwatcom-1.9/bld/clib/library/winnt.386/mf_rd/clib3r.lib(/mnt/sda5/.user/root/src/openwatcom-1.9/bld/clib/time/c/clockwin.c)
6fe36fb0       clock_
Module: /mnt/sda5/.user/root/src/openwatcom-1.9/bld/clib/library/winnt.386/mf_rd/clib3r.lib(/mnt/sda5/.user/root/src/openwatcom-1.9/bld/clib/time/c/dyltptr.c)
6fe37010       __get_daylight_ptr_
Module: /mnt/sda5/.user/root/src/openwatcom-1.9/bld/clib/library/winnt.386/mf_rd/clib3r.lib(/mnt/sda5/.user/root/src/openwatcom-1.9/bld/clib/time/c/ftime.c)
6fe37040       ftime_
Module: /mnt/sda5/.user/root/src/openwatcom-1.9/bld/clib/library/winnt.386/mf_rd/clib3r.lib(/mnt/sda5/.user/root/src/openwatcom-1.9/bld/clib/time/c/gmtime.c)
6fe37120       __brktime_
6fe372a0       _gmtime_
6fe372e0       gmtime_
Module: /mnt/sda5/.user/root/src/openwatcom-1.9/bld/clib/library/winnt.386/mf_rd/clib3r.lib(/mnt/sda5/.user/root/src/openwatcom-1.9/bld/clib/time/c/localtim.c)
6fe37320       _localtime_
6fe373a0       localtime_
Module: /mnt/sda5/.user/root/src/openwatcom-1.9/bld/clib/library/winnt.386/mf_rd/clib3r.lib(/mnt/sda5/.user/root/src/openwatcom-1.9/bld/clib/time/c/mktime.c)
6fe373e0       mktime_
Module: /mnt/sda5/.user/root/src/openwatcom-1.9/bld/clib/library/winnt.386/mf_rd/clib3r.lib(/mnt/sda5/.user/root/src/openwatcom-1.9/bld/clib/time/c/strdate.c)
6fe37490       _strdate_
Module: /mnt/sda5/.user/root/src/openwatcom-1.9/bld/clib/library/winnt.386/mf_rd/clib3r.lib(/mnt/sda5/.user/root/src/openwatcom-1.9/bld/clib/time/c/strftime.c)
6fe3769f       strftime_
Module: /mnt/sda5/.user/root/src/openwatcom-1.9/bld/clib/library/winnt.386/mf_rd/clib3r.lib(/mnt/sda5/.user/root/src/openwatcom-1.9/bld/clib/time/c/strtime.c)
6fe37eb0       _strtime_
Module: /mnt/sda5/.user/root/src/openwatcom-1.9/bld/clib/library/winnt.386/mf_rd/clib3r.lib(/mnt/sda5/.user/root/src/openwatcom-1.9/bld/clib/time/c/time.c)
6fe37f00       time_
Module: /mnt/sda5/.user/root/src/openwatcom-1.9/bld/clib/library/winnt.386/mf_rd/clib3r.lib(/mnt/sda5/.user/root/src/openwatcom-1.9/bld/clib/time/c/tmznptr.c)
6fe37f60       __get_timezone_ptr_
Module: /mnt/sda5/.user/root/src/openwatcom-1.9/bld/clib/library/winnt.386/mf_rd/clib3r.lib(/mnt/sda5/.user/root/src/openwatcom-1.9/bld/clib/time/c/tznmptr.c)
6fe37f90       __get_tzname_ptr_
Module: /mnt/sda5/.user/root/src/openwatcom-1.9/bld/clib/library/winnt.386/mf_rd/clib3r.lib(/mnt/sda5/.user/root/src/openwatcom-1.9/bld/clib/time/c/tzset.c)
6fe4d948       ___start_dst
6fe4d96c       ___end_dst
6fe4da94       _tzname
6fe4da9c       _timezone
6fe4daa0       _daylight
6fe4daa4       ___dst_adjust
6fe38010*      __DontCacheOSTZ_
6fe38050*      __CacheOSTZ_
6fe38690+      __parse_tz_
6fe38b10       tzset_
Module: /mnt/sda5/.user/root/src/openwatcom-1.9/bld/clib/library/winnt.386/mf_rd/clib3r.lib(/mnt/sda5/.user/root/src/openwatcom-1.9/bld/clib/time/c/asctim_s.c)
6fe38bc2       asctime_s_
Module: /mnt/sda5/.user/root/src/openwatcom-1.9/bld/clib/library/winnt.386/mf_rd/clib3r.lib(/mnt/sda5/.user/root/src/openwatcom-1.9/bld/clib/time/c/ctime_s.c)
6fe38d90       ctime_s_
Module: /mnt/sda5/.user/root/src/openwatcom-1.9/bld/clib/library/winnt.386/mf_rd/clib3r.lib(/mnt/sda5/.user/root/src/openwatcom-1.9/bld/clib/time/c/gmtime_s.c)
6fe38f00       gmtime_s_
Module: /mnt/sda5/.user/root/src/openwatcom-1.9/bld/clib/library/winnt.386/mf_rd/clib3r.lib(/mnt/sda5/.user/root/src/openwatcom-1.9/bld/clib/time/c/lcltim_s.c)
6fe38fd0       localtime_s_
Module: /mnt/sda5/.user/root/src/openwatcom-1.9/bld/clib/library/winnt.386/mf_rd/clib3r.lib(/mnt/sda5/.user/root/src/openwatcom-1.9/bld/clib/time/c/uasctime.c)
6fe390ec       __wasctime_
6fe3926a       _wasctime_
6fe39294       __wctime_
6fe392c3       _wctime_
Module: /mnt/sda5/.user/root/src/openwatcom-1.9/bld/clib/library/winnt.386/mf_rd/clib3r.lib(/mnt/sda5/.user/root/src/openwatcom-1.9/bld/clib/time/c/ustrdate.c)
6fe39320       _wstrdate_
Module: /mnt/sda5/.user/root/src/openwatcom-1.9/bld/clib/library/winnt.386/mf_rd/clib3r.lib(/mnt/sda5/.user/root/src/openwatcom-1.9/bld/clib/time/c/ustrftim.c)
6fe39533       wcsftime_
6fe39de9       _wstrftime_ms_
Module: /mnt/sda5/.user/root/src/openwatcom-1.9/bld/clib/library/winnt.386/mf_rd/clib3r.lib(/mnt/sda5/.user/root/src/openwatcom-1.9/bld/clib/time/c/ustrtime.c)
6fe39e90       _wstrtime_
Module: /mnt/sda5/.user/root/src/openwatcom-1.9/bld/clib/library/winnt.386/mf_rd/clib3r.lib(/mnt/sda5/.user/root/src/openwatcom-1.9/bld/clib/time/c/uasctm_s.c)
6fe39f51       _wasctime_s_
Module: /mnt/sda5/.user/root/src/openwatcom-1.9/bld/clib/library/winnt.386/mf_rd/clib3r.lib(/mnt/sda5/.user/root/src/openwatcom-1.9/bld/clib/time/c/uctime_s.c)
6fe3a120       _wctime_s_
Module: /mnt/sda5/.user/root/src/openwatcom-1.9/bld/clib/library/winnt.386/mf_rd/clib3r.lib(/mnt/sda5/.user/root/src/openwatcom-1.9/bld/clib/_dos/c/allocwnt.c)
6fe3a260       _dos_allocmem_
6fe3a2b0       _dos_freemem_
Module: /mnt/sda5/.user/root/src/openwatcom-1.9/bld/clib/library/winnt.386/mf_rd/clib3r.lib(/mnt/sda5/.user/root/src/openwatcom-1.9/bld/clib/_dos/c/creatwnt.c)
6fe3a2f0       _dos_creat_
Module: /mnt/sda5/.user/root/src/openwatcom-1.9/bld/clib/library/winnt.386/mf_rd/clib3r.lib(/mnt/sda5/.user/root/src/openwatcom-1.9/bld/clib/_dos/c/crtnwwnt.c)
6fe3a3b0       _dos_creatnew_
Module: /mnt/sda5/.user/root/src/openwatcom-1.9/bld/clib/library/winnt.386/mf_rd/clib3r.lib(/mnt/sda5/.user/root/src/openwatcom-1.9/bld/clib/_dos/c/dosgdf.c)
6fe3a470       _dos_getdiskfree_
Module: /mnt/sda5/.user/root/src/openwatcom-1.9/bld/clib/library/winnt.386/mf_rd/clib3r.lib(/mnt/sda5/.user/root/src/openwatcom-1.9/bld/clib/_dos/c/dosret.c)
6fe3a510*      _dosretax_
6fe3a550*      _dosret0_
6fe3a590       __set_errno_dos_
6fe3a5e0       __set_errno_dos_reterr_
6fe3a610       __set_errno_nt_
6fe3a640       __set_errno_nt_reterr_
Module: /mnt/sda5/.user/root/src/openwatcom-1.9/bld/clib/library/winnt.386/mf_rd/clib3r.lib(/mnt/sda5/.user/root/src/openwatcom-1.9/bld/clib/_dos/c/filewnt.c)
6fe3a680       _dos_open_
6fe3a770       _dos_close_
6fe3a7d0       _dos_commit_
Module: /mnt/sda5/.user/root/src/openwatcom-1.9/bld/clib/library/winnt.386/mf_rd/clib3r.lib(/mnt/sda5/.user/root/src/openwatcom-1.9/bld/clib/_dos/c/findwnt.c)
6fe3a840       _dos_findfirst_
6fe3a8f0       _dos_findnext_
6fe3a970       _dos_findclose_
Module: /mnt/sda5/.user/root/src/openwatcom-1.9/bld/clib/library/winnt.386/mf_rd/clib3r.lib(/mnt/sda5/.user/root/src/openwatcom-1.9/bld/clib/_dos/c/gdatewnt.c)
6fe3a9c0       _dos_getdate_
Module: /mnt/sda5/.user/root/src/openwatcom-1.9/bld/clib/library/winnt.386/mf_rd/clib3r.lib(/mnt/sda5/.user/root/src/openwatcom-1.9/bld/clib/_dos/c/gdrvewnt.c)
6fe3aa10       _dos_getdrive_
Module: /mnt/sda5/.user/root/src/openwatcom-1.9/bld/clib/library/winnt.386/mf_rd/clib3r.lib(/mnt/sda5/.user/root/src/openwatcom-1.9/bld/clib/_dos/c/gfattwnt.c)
6fe3aa60       _dos_getfileattr_
Module: /mnt/sda5/.user/root/src/openwatcom-1.9/bld/clib/library/winnt.386/mf_rd/clib3r.lib(/mnt/sda5/.user/root/src/openwatcom-1.9/bld/clib/_dos/c/gftimwnt.c)
6fe3aac0       _dos_getftime_
Module: /mnt/sda5/.user/root/src/openwatcom-1.9/bld/clib/library/winnt.386/mf_rd/clib3r.lib(/mnt/sda5/.user/root/src/openwatcom-1.9/bld/clib/_dos/c/gtimewnt.c)
6fe3ab40       _dos_gettime_
Module: /mnt/sda5/.user/root/src/openwatcom-1.9/bld/clib/library/winnt.386/mf_rd/clib3r.lib(/mnt/sda5/.user/root/src/openwatcom-1.9/bld/clib/_dos/c/readwnt.c)
6fe3aba0       _dos_read_
Module: /mnt/sda5/.user/root/src/openwatcom-1.9/bld/clib/library/winnt.386/mf_rd/clib3r.lib(/mnt/sda5/.user/root/src/openwatcom-1.9/bld/clib/_dos/c/sdatewnt.c)
6fe3ac20       _dos_setdate_
Module: /mnt/sda5/.user/root/src/openwatcom-1.9/bld/clib/library/winnt.386/mf_rd/clib3r.lib(/mnt/sda5/.user/root/src/openwatcom-1.9/bld/clib/_dos/c/sdrvewnt.c)
6fe3ad30       _dos_setdrive_
Module: /mnt/sda5/.user/root/src/openwatcom-1.9/bld/clib/library/winnt.386/mf_rd/clib3r.lib(/mnt/sda5/.user/root/src/openwatcom-1.9/bld/clib/_dos/c/sfattwnt.c)
6fe3ad80       _dos_setfileattr_
Module: /mnt/sda5/.user/root/src/openwatcom-1.9/bld/clib/library/winnt.386/mf_rd/clib3r.lib(/mnt/sda5/.user/root/src/openwatcom-1.9/bld/clib/_dos/c/sftimwnt.c)
6fe3add0       _dos_setftime_
Module: /mnt/sda5/.user/root/src/openwatcom-1.9/bld/clib/library/winnt.386/mf_rd/clib3r.lib(/mnt/sda5/.user/root/src/openwatcom-1.9/bld/clib/_dos/c/stimewnt.c)
6fe3ae80       _dos_settime_
Module: /mnt/sda5/.user/root/src/openwatcom-1.9/bld/clib/library/winnt.386/mf_rd/clib3r.lib(/mnt/sda5/.user/root/src/openwatcom-1.9/bld/clib/_dos/c/ufind.c)
6fe3afa0       _wdos_findfirst_
6fe3b040       _wdos_findnext_
6fe3b100       _wdos_findclose_
Module: /mnt/sda5/.user/root/src/openwatcom-1.9/bld/clib/library/winnt.386/mf_rd/clib3r.lib(/mnt/sda5/.user/root/src/openwatcom-1.9/bld/clib/_dos/c/writewnt.c)
6fe3b130       _dos_write_
Module: /mnt/sda5/.user/root/src/openwatcom-1.9/bld/clib/library/winnt.386/mf_rd/clib3r.lib(/mnt/sda5/.user/root/src/openwatcom-1.9/bld/clib/cgsupp/a/__stos.asm)
6fe3b190       __STOSB
6fe3b1c7       __STOSD
Module: /mnt/sda5/.user/root/src/openwatcom-1.9/bld/clib/library/winnt.386/mf_rd/clib3r.lib(/mnt/sda5/.user/root/src/openwatcom-1.9/bld/clib/cgsupp/a/7fu8386.asm)
6fe3b234       __FSU87
6fe3b23f       __FDU87
Module: /mnt/sda5/.user/root/src/openwatcom-1.9/bld/clib/library/winnt.386/mf_rd/clib3r.lib(/mnt/sda5/.user/root/src/openwatcom-1.9/bld/clib/cgsupp/a/7u8f386.asm)
6fe3b2bd       __U8FD7
6fe3b2a4       __U8FS7
Module: /mnt/sda5/.user/root/src/openwatcom-1.9/bld/clib/library/winnt.386/mf_rd/clib3r.lib(/mnt/sda5/.user/root/src/openwatcom-1.9/bld/clib/cgsupp/a/div386.asm)
6fe3b2d8       __FDD
Module: /mnt/sda5/.user/root/src/openwatcom-1.9/bld/clib/library/winnt.386/mf_rd/clib3r.lib(/mnt/sda5/.user/root/src/openwatcom-1.9/bld/clib/cgsupp/a/fdc386.asm)
6fe3b4e0       __FDC
Module: /mnt/sda5/.user/root/src/openwatcom-1.9/bld/clib/library/winnt.386/mf_rd/clib3r.lib(/mnt/sda5/.user/root/src/openwatcom-1.9/bld/clib/cgsupp/a/fdfs386.asm)
6fe3b518       __FDFS
Module: /mnt/sda5/.user/root/src/openwatcom-1.9/bld/clib/library/winnt.386/mf_rd/clib3r.lib(/mnt/sda5/.user/root/src/openwatcom-1.9/bld/clib/cgsupp/a/fdi4386.asm)
6fe3b56c       __FDI4
6fe3b568       __RDI4
6fe3b570       __FDU4
6fe3b564       __RDU4
Module: /mnt/sda5/.user/root/src/openwatcom-1.9/bld/clib/library/winnt.386/mf_rd/clib3r.lib(/mnt/sda5/.user/root/src/openwatcom-1.9/bld/clib/cgsupp/a/fdi8386.asm)
6fe3b5e8       __FDU8
6fe3b5f4       __FDI8
Module: /mnt/sda5/.user/root/src/openwatcom-1.9/bld/clib/library/winnt.386/mf_rd/clib3r.lib(/mnt/sda5/.user/root/src/openwatcom-1.9/bld/clib/cgsupp/a/fdmth386.asm)
6fe3b67a       __FDA
6fe3b674       __FDS
6fe3b831       __FDM
Module: /mnt/sda5/.user/root/src/openwatcom-1.9/bld/clib/library/winnt.386/mf_rd/clib3r.lib(/mnt/sda5/.user/root/src/openwatcom-1.9/bld/clib/cgsupp/a/fdn386.asm)
6fe3b9d0       __FDN
Module: /mnt/sda5/.user/root/src/openwatcom-1.9/bld/clib/library/winnt.386/mf_rd/clib3r.lib(/mnt/sda5/.user/root/src/openwatcom-1.9/bld/clib/cgsupp/a/fsc386.asm)
6fe3b9e0       __FSC
Module: /mnt/sda5/.user/root/src/openwatcom-1.9/bld/clib/library/winnt.386/mf_rd/clib3r.lib(/mnt/sda5/.user/root/src/openwatcom-1.9/bld/clib/cgsupp/a/fsfd386.asm)
6fe3b9fc       __FSFD
Module: /mnt/sda5/.user/root/src/openwatcom-1.9/bld/clib/library/winnt.386/mf_rd/clib3r.lib(/mnt/sda5/.user/root/src/openwatcom-1.9/bld/clib/cgsupp/a/fsi4386.asm)
6fe3ba78       __FSI4
6fe3ba82       __FSU4
6fe3ba8c       __FSI2
6fe3ba96       __FSU2
6fe3baa0       __FSI1
6fe3baaa       __FSU1
Module: /mnt/sda5/.user/root/src/openwatcom-1.9/bld/clib/library/winnt.386/mf_rd/clib3r.lib(/mnt/sda5/.user/root/src/openwatcom-1.9/bld/clib/cgsupp/a/fsi8386.asm)
6fe3bafc       __FSU8
6fe3bb06       __FSI8
Module: /mnt/sda5/.user/root/src/openwatcom-1.9/bld/clib/library/winnt.386/mf_rd/clib3r.lib(/mnt/sda5/.user/root/src/openwatcom-1.9/bld/clib/cgsupp/a/fsmth386.asm)
6fe3bb82       __FSA
6fe3bb78       __FSS
6fe3bc53       __FSM
6fe3bcda       __FSD
Module: /mnt/sda5/.user/root/src/openwatcom-1.9/bld/clib/library/winnt.386/mf_rd/clib3r.lib(/mnt/sda5/.user/root/src/openwatcom-1.9/bld/clib/cgsupp/a/fsn386.asm)
6fe3bdfc       __FSN
Module: /mnt/sda5/.user/root/src/openwatcom-1.9/bld/clib/library/winnt.386/mf_rd/clib3r.lib(/mnt/sda5/.user/root/src/openwatcom-1.9/bld/clib/cgsupp/a/fstat386.asm)
6fe3be08       F8UnderFlow
6fe3be0a       F4UnderFlow
6fe3be0d       F8InvalidOp
6fe3be19       F8DivZero
6fe3be45       F4DivZero
6fe3be25       F8OverFlow
6fe3be51       F4OverFlow
6fe3be25       F8RetInf_
6fe3be25       _F8RetInf_
Module: /mnt/sda5/.user/root/src/openwatcom-1.9/bld/clib/library/winnt.386/mf_rd/clib3r.lib(/mnt/sda5/.user/root/src/openwatcom-1.9/bld/clib/cgsupp/a/i4fs386.asm)
6fe3be9b       __I4FS
6fe3be70       __U4FS
Module: /mnt/sda5/.user/root/src/openwatcom-1.9/bld/clib/library/winnt.386/mf_rd/clib3r.lib(/mnt/sda5/.user/root/src/openwatcom-1.9/bld/clib/cgsupp/a/i4fd386.asm)
6fe3beac       __I4FD
6fe3beb9       __U4FD
Module: /mnt/sda5/.user/root/src/openwatcom-1.9/bld/clib/library/winnt.386/mf_rd/clib3r.lib(/mnt/sda5/.user/root/src/openwatcom-1.9/bld/clib/cgsupp/a/i8d.asm)
6fe3beec       __I8D
6fe3bf41       __U8D
Module: /mnt/sda5/.user/root/src/openwatcom-1.9/bld/clib/library/winnt.386/mf_rd/clib3r.lib(/mnt/sda5/.user/root/src/openwatcom-1.9/bld/clib/cgsupp/a/i8fs386.asm)
6fe3bfd0       __I8FS
6fe3bfe6       __U8FS
Module: /mnt/sda5/.user/root/src/openwatcom-1.9/bld/clib/library/winnt.386/mf_rd/clib3r.lib(/mnt/sda5/.user/root/src/openwatcom-1.9/bld/clib/cgsupp/a/i8fd386.asm)
6fe3c02c       __I8FD
6fe3c043       __U8FD
Module: /mnt/sda5/.user/root/src/openwatcom-1.9/bld/clib/library/winnt.386/mf_rd/clib3r.lib(/mnt/sda5/.user/root/src/openwatcom-1.9/bld/clib/cgsupp/a/i8m386.asm)
6fe3c08c       __I8M
6fe3c08c       __U8M
Module: /mnt/sda5/.user/root/src/openwatcom-1.9/bld/clib/library/winnt.386/mf_rd/clib3r.lib(/mnt/sda5/.user/root/src/openwatcom-1.9/bld/clib/cgsupp/a/i8rs386.asm)
6fe3c0a8       __U8RS
6fe3c0c2       __I8RS
6fe3c0dd       __I8LS
6fe3c0dd       __U8LS
Module: /mnt/sda5/.user/root/src/openwatcom-1.9/bld/clib/library/winnt.386/mf_rd/clib3r.lib(/mnt/sda5/.user/root/src/openwatcom-1.9/bld/clib/cgsupp/a/ldiv386.asm)
6fe3c0f8       div_
6fe3c0f8       ldiv_
Module: /mnt/sda5/.user/root/src/openwatcom-1.9/bld/clib/library/winnt.386/mf_rd/clib3r.lib(/mnt/sda5/.user/root/src/openwatcom-1.9/bld/clib/cgsupp/a/lldiv386.asm)
6fe3c108       lldiv_
Module: /mnt/sda5/.user/root/src/openwatcom-1.9/bld/clib/library/winnt.386/mf_rd/clib3r.lib(timstamp)
6fe4dbbc       ___lmt
Module: /mnt/sda5/.user/root/src/openwatcom-1.9/bld/clib/library/winnt.386/mf_rd/clib3r.lib(chipvar)
6fe4dbc0       ___chipbug
6fe4dbc0       __chipbug
Module: /mnt/sda5/.user/root/src/openwatcom-1.9/bld/clib/library/winnt.386/mf_rd/clib3r.lib(/mnt/sda5/.user/root/src/openwatcom-1.9/bld/clib/startup/a/_8087386.asm)
6fe4dbc4       __8087
6fe4dbc5       __real87
Module: /mnt/sda5/.user/root/src/openwatcom-1.9/bld/clib/library/winnt.386/mf_rd/clib3r.lib(crwdata)
6fe4dc0c       __osmajor
6fe4dc0d       __osminor
6fe4dc0e       __osbuild
6fe4dc10       __osver
6fe4dc14       __winmajor
6fe4dc18       __winminor
6fe4dc1c       __winver
6fe4dbd8       __LpDllName
6fe4dbdc       __LpwCmdLine
6fe4dbe0       __LpwPgmName
6fe4dbe4       __LpwDllName
6fe4dbd0       __LpCmdLine
6fe4dbd4       __LpPgmName
6fe4dbc8*      __dynend
6fe4dbcc       __curbrk
6fe4dbe8       __STACKLOW
6fe4dbec       __STACKTOP
6fe4dbf0       __ASTACKSIZ
6fe4dbf4       __ASTACKPTR
6fe4dbf8       __cbyte
6fe4dbfc       __cbyte2
6fe4dc00       __child
6fe4dc06       __Envptr
6fe4dc0a       __Envseg
6fe4dc04       __no87
6fe4dc20       ___FPE_handler
Module: /mnt/sda5/.user/root/src/openwatcom-1.9/bld/clib/library/winnt.386/mf_rd/clib3r.lib(/mnt/sda5/.user/root/src/openwatcom-1.9/bld/clib/startup/c/dmainwnt.c)
6fe3c150       __LibMain@12
Module: /mnt/sda5/.user/root/src/openwatcom-1.9/bld/clib/library/winnt.386/mf_rd/clib3r.lib(segdefns)
6fe01003       ___begtext
6fe4d000*      __nullarea
6fe4dcd8       __Start_XI
6fe4dd32       __End_XI
6fe4dd32       __Start_YI
6fe4dd68       __End_YI
Module: /mnt/sda5/.user/root/src/openwatcom-1.9/bld/clib/library/winnt.386/mf_rd/clib3r.lib(/mnt/sda5/.user/root/src/openwatcom-1.9/bld/clib/conio/c/conutwnt.c)
6fe3c360       __NTRealKey_
6fe3c450       __NTConsoleInput_
6fe3c480       __NTConsoleOutput_
Module: /mnt/sda5/.user/root/src/openwatcom-1.9/bld/clib/library/winnt.386/mf_rd/clib3r.lib(/mnt/sda5/.user/root/src/openwatcom-1.9/bld/clib/streamio/c/prtf.c)
6fe3c4b0       __prtf_
Module: /mnt/sda5/.user/root/src/openwatcom-1.9/bld/clib/library/winnt.386/mf_rd/clib3r.lib(/mnt/sda5/.user/root/src/openwatcom-1.9/bld/clib/streamio/c/scnf.c)
6fe3e6a0       __scnf_
Module: /mnt/sda5/.user/root/src/openwatcom-1.9/bld/clib/library/winnt.386/mf_rd/clib3r.lib(/mnt/sda5/.user/root/src/openwatcom-1.9/bld/clib/convert/c/alphabet.c)
6fe4d00c       ___Alphabet
Module: /mnt/sda5/.user/root/src/openwatcom-1.9/bld/clib/library/winnt.386/mf_rd/clib3r.lib(/mnt/sda5/.user/root/src/openwatcom-1.9/bld/clib/direct/c/ntdirinf.c)
6fe3ea50       __MakeDOSDT_
6fe3ea90       __FromDOSDT_
6fe3eae0       __GetNTDirInfo_
6fe3eb50       __NTFindNextFileWithAttr_
Module: /mnt/sda5/.user/root/src/openwatcom-1.9/bld/clib/library/winnt.386/mf_rd/clib3r.lib(/mnt/sda5/.user/root/src/openwatcom-1.9/bld/clib/libwin32/c/setcdir.c)
6fe3ebf0       __lib_SetCurrentDirectoryW_
Module: /mnt/sda5/.user/root/src/openwatcom-1.9/bld/clib/library/winnt.386/mf_rd/clib3r.lib(/mnt/sda5/.user/root/src/openwatcom-1.9/bld/clib/libwin32/c/ffrstfil.c)
6fe3eca0       __lib_FindFirstFileW_
Module: /mnt/sda5/.user/root/src/openwatcom-1.9/bld/clib/library/winnt.386/mf_rd/clib3r.lib(/mnt/sda5/.user/root/src/openwatcom-1.9/bld/clib/direct/c/untdrinf.c)
6fe3ee30       _w__GetNTDirInfo_
6fe3eea0       _w__NTFindNextFileWithAttr_
Module: /mnt/sda5/.user/root/src/openwatcom-1.9/bld/clib/library/winnt.386/mf_rd/clib3r.lib(/mnt/sda5/.user/root/src/openwatcom-1.9/bld/clib/libwin32/c/fnextfil.c)
6fe3ef40       __lib_FindNextFileW_
Module: /mnt/sda5/.user/root/src/openwatcom-1.9/bld/clib/library/winnt.386/mf_rd/clib3r.lib(/mnt/sda5/.user/root/src/openwatcom-1.9/bld/clib/libwin32/c/getcdir.c)
6fe3f070       __lib_GetCurrentDirectoryW_
Module: /mnt/sda5/.user/root/src/openwatcom-1.9/bld/clib/library/winnt.386/mf_rd/clib3r.lib(/mnt/sda5/.user/root/src/openwatcom-1.9/bld/clib/libwin32/c/creatdir.c)
6fe3f150       __lib_CreateDirectoryW_
Module: /mnt/sda5/.user/root/src/openwatcom-1.9/bld/clib/library/winnt.386/mf_rd/clib3r.lib(/mnt/sda5/.user/root/src/openwatcom-1.9/bld/clib/libwin32/c/removdir.c)
6fe3f200       __lib_RemoveDirectoryW_
Module: /mnt/sda5/.user/root/src/openwatcom-1.9/bld/clib/library/winnt.386/mf_rd/clib3r.lib(/mnt/sda5/.user/root/src/openwatcom-1.9/bld/clib/environ/c/setenvp.c)
6fe3f2b0       __setenvp_
6fe3f3e0       __freeenvp_
Module: /mnt/sda5/.user/root/src/openwatcom-1.9/bld/clib/library/winnt.386/mf_rd/clib3r.lib(/mnt/sda5/.user/root/src/openwatcom-1.9/bld/clib/misc/c/rtcswrap.c)
6fe3f450       __rtct_fail_
Module: /mnt/sda5/.user/root/src/openwatcom-1.9/bld/clib/library/winnt.386/mf_rd/clib3r.lib(/mnt/sda5/.user/root/src/openwatcom-1.9/bld/clib/environ/c/crtwenv.c)
6fe3f4c0       __create_wide_environment_
Module: /mnt/sda5/.user/root/src/openwatcom-1.9/bld/clib/library/winnt.386/mf_rd/clib3r.lib(/mnt/sda5/.user/root/src/openwatcom-1.9/bld/clib/libwin32/c/setenvar.c)
6fe3f540       __lib_SetEnvironmentVariableW_
Module: /mnt/sda5/.user/root/src/openwatcom-1.9/bld/clib/library/winnt.386/mf_rd/clib3r.lib(/mnt/sda5/.user/root/src/openwatcom-1.9/bld/clib/handleio/c/d2ttime.c)
6fe3f680       _d2ttime_
Module: /mnt/sda5/.user/root/src/openwatcom-1.9/bld/clib/library/winnt.386/mf_rd/clib3r.lib(/mnt/sda5/.user/root/src/openwatcom-1.9/bld/clib/libwin32/c/fgtattr.c)
6fe3f720       __fixed_GetFileAttributesA_
Module: /mnt/sda5/.user/root/src/openwatcom-1.9/bld/clib/library/winnt.386/mf_rd/clib3r.lib(/mnt/sda5/.user/root/src/openwatcom-1.9/bld/clib/libwin32/c/creatfil.c)
6fe3f7d0       __lib_CreateFileW_
Module: /mnt/sda5/.user/root/src/openwatcom-1.9/bld/clib/library/winnt.386/mf_rd/clib3r.lib(/mnt/sda5/.user/root/src/openwatcom-1.9/bld/clib/libwin32/c/getdtype.c)
6fe3f8b0       __lib_GetDriveTypeW_
Module: /mnt/sda5/.user/root/src/openwatcom-1.9/bld/clib/library/winnt.386/mf_rd/clib3r.lib(/mnt/sda5/.user/root/src/openwatcom-1.9/bld/clib/libwin32/c/getfattr.c)
6fe3f960       __lib_GetFileAttributesW_
Module: /mnt/sda5/.user/root/src/openwatcom-1.9/bld/clib/library/winnt.386/mf_rd/clib3r.lib(/mnt/sda5/.user/root/src/openwatcom-1.9/bld/clib/libwin32/c/setfattr.c)
6fe3fa00       __lib_SetFileAttributesW_
Module: /mnt/sda5/.user/root/src/openwatcom-1.9/bld/clib/library/winnt.386/mf_rd/clib3r.lib(/mnt/sda5/.user/root/src/openwatcom-1.9/bld/clib/libwin32/c/movefile.c)
6fe3fab0       __lib_MoveFileW_
Module: /mnt/sda5/.user/root/src/openwatcom-1.9/bld/clib/library/winnt.386/mf_rd/clib3r.lib(/mnt/sda5/.user/root/src/openwatcom-1.9/bld/clib/handleio/c/iomode.c)
6fe3fbe0       __GetIOMode_
6fe3fc30       __SetIOMode_nogrow_
6fe4dc2c       ___NFiles
6fe4dc30       ___init_mode
6fe4dc80       ___io_mode
Module: /mnt/sda5/.user/root/src/openwatcom-1.9/bld/clib/library/winnt.386/mf_rd/clib3r.lib(/mnt/sda5/.user/root/src/openwatcom-1.9/bld/clib/handleio/c/stiomode.c)
6fe3fc70       __grow_iomode_
6fe3fd30+      __shrink_iomode_
6fe3fd80       __SetIOMode_
Module: /mnt/sda5/.user/root/src/openwatcom-1.9/bld/clib/library/winnt.386/mf_rd/clib3r.lib(/mnt/sda5/.user/root/src/openwatcom-1.9/bld/clib/handleio/c/iomodtty.c)
6fe3fe30       __ChkTTYIOMode_
6fe3fea0*      __IOMode_
Module: /mnt/sda5/.user/root/src/openwatcom-1.9/bld/clib/library/winnt.386/mf_rd/clib3r.lib(/mnt/sda5/.user/root/src/openwatcom-1.9/bld/clib/handleio/c/_clsewnt.c)
6fe3fed0       __close_
Module: /mnt/sda5/.user/root/src/openwatcom-1.9/bld/clib/library/winnt.386/mf_rd/clib3r.lib(/mnt/sda5/.user/root/src/openwatcom-1.9/bld/clib/streamio/c/ntfio.c)
6fe3ff60       __GetNTCreateAttr_
6fe3ffd0       __GetNTAccessAttr_
6fe40040       __GetNTShareAttr_
Module: /mnt/sda5/.user/root/src/openwatcom-1.9/bld/clib/library/winnt.386/mf_rd/clib3r.lib(/mnt/sda5/.user/root/src/openwatcom-1.9/bld/clib/handleio/c/umaskval.c)
6fe4dc84       ___umaskval
Module: /mnt/sda5/.user/root/src/openwatcom-1.9/bld/clib/library/winnt.386/mf_rd/clib3r.lib(/mnt/sda5/.user/root/src/openwatcom-1.9/bld/clib/libwin32/c/delfile.c)
6fe400e0       __lib_DeleteFileW_
Module: /mnt/sda5/.user/root/src/openwatcom-1.9/bld/clib/library/winnt.386/mf_rd/clib3r.lib(/mnt/sda5/.user/root/src/openwatcom-1.9/bld/clib/heap/c/grownear.c)
6fe40470       __ExpandDGROUP_
Module: /mnt/sda5/.user/root/src/openwatcom-1.9/bld/clib/library/winnt.386/mf_rd/clib3r.lib(/mnt/sda5/.user/root/src/openwatcom-1.9/bld/clib/heap/c/mem.c)
6fe404a0       __MemAllocator
6fe40650       __MemFree
Module: /mnt/sda5/.user/root/src/openwatcom-1.9/bld/clib/library/winnt.386/mf_rd/clib3r.lib(/mnt/sda5/.user/root/src/openwatcom-1.9/bld/clib/intel/c/prfalloc.c)
6fe40910       __ProfAlloc_
Module: /mnt/sda5/.user/root/src/openwatcom-1.9/bld/clib/library/winnt.386/mf_rd/clib3r.lib(/mnt/sda5/.user/root/src/openwatcom-1.9/bld/clib/kanji/c/hanzentb.c)
6fe40940       ___HanZen1
6fe409fe       ___HanZen2
Module: /mnt/sda5/.user/root/src/openwatcom-1.9/bld/clib/library/winnt.386/mf_rd/clib3r.lib(/mnt/sda5/.user/root/src/openwatcom-1.9/bld/clib/kanji/c/zenhantb.c)
6fe40a80       ___ZenHan
Module: /mnt/sda5/.user/root/src/openwatcom-1.9/bld/clib/library/winnt.386/mf_rd/clib3r.lib(/mnt/sda5/.user/root/src/openwatcom-1.9/bld/clib/mbyte/c/mbinit.c)
6fe40f29       __mbinit_
6fe4dc88       ___MBCodePage
Module: /mnt/sda5/.user/root/src/openwatcom-1.9/bld/clib/library/winnt.386/mf_rd/clib3r.lib(/mnt/sda5/.user/root/src/openwatcom-1.9/bld/clib/misc/c/rterrmsg.c)
6fe41090       __rterr_msg_
Module: /mnt/sda5/.user/root/src/openwatcom-1.9/bld/clib/library/winnt.386/mf_rd/clib3r.lib(/mnt/sda5/.user/root/src/openwatcom-1.9/bld/clib/misc/c/dbgdata.c)
6fe4dc8c       ___DbgReportModes
6fe4dc98       ___DbgReportFiles
6fe4dca4       ___DbgReportHook
Module: /mnt/sda5/.user/root/src/openwatcom-1.9/bld/clib/library/winnt.386/mf_rd/clib3r.lib(/mnt/sda5/.user/root/src/openwatcom-1.9/bld/clib/misc/c/rtcshdlr.c)
6fe4dca8       ___runtime_constraint_handler
Module: /mnt/sda5/.user/root/src/openwatcom-1.9/bld/clib/library/winnt.386/mf_rd/clib3r.lib(/mnt/sda5/.user/root/src/openwatcom-1.9/bld/clib/misc/c/locale.c)
6fe4dcac       __LocaleSetting
Module: /mnt/sda5/.user/root/src/openwatcom-1.9/bld/clib/library/winnt.386/mf_rd/clib3r.lib(/mnt/sda5/.user/root/src/openwatcom-1.9/bld/clib/misc/c/urtermsg.c)
6fe41180       __wrterr_msg_
Module: /mnt/sda5/.user/root/src/openwatcom-1.9/bld/clib/library/winnt.386/mf_rd/clib3r.lib(/mnt/sda5/.user/root/src/openwatcom-1.9/bld/clib/libwin32/c/getfulpn.c)
6fe41200       __lib_GetFullPathNameW_
Module: /mnt/sda5/.user/root/src/openwatcom-1.9/bld/clib/library/winnt.386/mf_rd/clib3r.lib(/mnt/sda5/.user/root/src/openwatcom-1.9/bld/clib/mthread/c/trdlist.c)
6fe41400       __GetThreadData_
6fe41460       __ReallocThreadData_
6fe41590       __AddThreadData_
6fe41640       __RemoveThreadData_
6fe416c0       __ResizeThreadDataList_
6fe41710       __FreeThreadDataList_
6fe41770*      __ActiveThreads_
Module: /mnt/sda5/.user/root/src/openwatcom-1.9/bld/clib/library/winnt.386/mf_rd/clib3r.lib(/mnt/sda5/.user/root/src/openwatcom-1.9/bld/clib/mthread/c/trdalloc.c)
6fe417c0       __FiniThreadProcessing_
Module: /mnt/sda5/.user/root/src/openwatcom-1.9/bld/clib/library/winnt.386/mf_rd/clib3r.lib(/mnt/sda5/.user/root/src/openwatcom-1.9/bld/clib/startup/c/stklmwnt.c)
6fe417e0       __init_stack_limits_
Module: /mnt/sda5/.user/root/src/openwatcom-1.9/bld/clib/library/winnt.386/mf_rd/clib3r.lib(/mnt/sda5/.user/root/src/openwatcom-1.9/bld/clib/mthread/c/thredwnt.c)
6fe41960       __CBeginThread_
6fe41a40       __CEndThread_
Module: /mnt/sda5/.user/root/src/openwatcom-1.9/bld/clib/library/winnt.386/mf_rd/clib3r.lib(/mnt/sda5/.user/root/src/openwatcom-1.9/bld/clib/mthread/c/thrdxwnt.c)
6fe41b40       __CBeginThreadEx_
6fe41c10       __CEndThreadEx_
Module: /mnt/sda5/.user/root/src/openwatcom-1.9/bld/clib/library/winnt.386/mf_rd/clib3r.lib(/mnt/sda5/.user/root/src/openwatcom-1.9/bld/clib/fpu/c/fclex387.c)
6fe41c50       _ClearFPE_
Module: /mnt/sda5/.user/root/src/openwatcom-1.9/bld/clib/library/winnt.386/mf_rd/clib3r.lib(/mnt/sda5/.user/root/src/openwatcom-1.9/bld/clib/process/c/cenvarg.c)
6fe41ca1       __cenvarg_
6fe41e5a       __ccmdline_
Module: /mnt/sda5/.user/root/src/openwatcom-1.9/bld/clib/library/winnt.386/mf_rd/clib3r.lib(/mnt/sda5/.user/root/src/openwatcom-1.9/bld/clib/process/c/dospnwnt.c)
6fe41f00       _dospawn_
Module: /mnt/sda5/.user/root/src/openwatcom-1.9/bld/clib/library/winnt.386/mf_rd/clib3r.lib(/mnt/sda5/.user/root/src/openwatcom-1.9/bld/clib/process/c/_slashc.c)
6fe42060       __Slash_C_
Module: /mnt/sda5/.user/root/src/openwatcom-1.9/bld/clib/library/winnt.386/mf_rd/clib3r.lib(/mnt/sda5/.user/root/src/openwatcom-1.9/bld/clib/process/c/ucenvarg.c)
6fe420f0       __wcenvarg_
6fe422d0       __wccmdline_
Module: /mnt/sda5/.user/root/src/openwatcom-1.9/bld/clib/library/winnt.386/mf_rd/clib3r.lib(/mnt/sda5/.user/root/src/openwatcom-1.9/bld/clib/process/c/udospwnt.c)
6fe42390       _wdospawn_
Module: /mnt/sda5/.user/root/src/openwatcom-1.9/bld/clib/library/winnt.386/mf_rd/clib3r.lib(/mnt/sda5/.user/root/src/openwatcom-1.9/bld/clib/process/c/_uslashc.c)
6fe424e0       __wSlash_C_
Module: /mnt/sda5/.user/root/src/openwatcom-1.9/bld/clib/library/winnt.386/mf_rd/clib3r.lib(/mnt/sda5/.user/root/src/openwatcom-1.9/bld/clib/startup/c/8087cw.c)
6fe4dcb4       __8087cw
Module: /mnt/sda5/.user/root/src/openwatcom-1.9/bld/clib/library/winnt.386/mf_rd/clib3r.lib(/mnt/sda5/.user/root/src/openwatcom-1.9/bld/clib/intel/c/save8087.c)
6fe4dcb8       ___Save8087
6fe4dcbc       ___Rest8087
Module: /mnt/sda5/.user/root/src/openwatcom-1.9/bld/clib/library/winnt.386/mf_rd/clib3r.lib(/mnt/sda5/.user/root/src/openwatcom-1.9/bld/clib/fpu/a/ini87386.asm)
6fe4253c       __x87id
Module: /mnt/sda5/.user/root/src/openwatcom-1.9/bld/clib/library/winnt.386/mf_rd/clib3r.lib(/mnt/sda5/.user/root/src/openwatcom-1.9/bld/clib/startup/c/argcv.c)
6fe50550       __argc
6fe50554       __argv
6fe50558       ___argv
6fe5055c       ___argc
Module: /mnt/sda5/.user/root/src/openwatcom-1.9/bld/clib/library/winnt.386/mf_rd/clib3r.lib(/mnt/sda5/.user/root/src/openwatcom-1.9/bld/clib/startup/c/initrtns.c)
6fe425a0       __InitRtns
6fe42630       __FiniRtns
Module: /mnt/sda5/.user/root/src/openwatcom-1.9/bld/clib/library/winnt.386/mf_rd/clib3r.lib(/mnt/sda5/.user/root/src/openwatcom-1.9/bld/clib/startup/c/histsplt.c)
6fe50560       ___historical_splitparms
Module: /mnt/sda5/.user/root/src/openwatcom-1.9/bld/clib/library/winnt.386/mf_rd/clib3r.lib(/mnt/sda5/.user/root/src/openwatcom-1.9/bld/clib/startup/c/wargcv.c)
6fe50564       ___wargc
6fe50568       ___wargv
6fe5056c       __wargc
6fe50570       __wargv
Module: /mnt/sda5/.user/root/src/openwatcom-1.9/bld/clib/library/winnt.386/mf_rd/clib3r.lib(/mnt/sda5/.user/root/src/openwatcom-1.9/bld/clib/streamio/c/freefp.c)
6fe426d0       __freefp_
6fe42750       __purgefp_
Module: /mnt/sda5/.user/root/src/openwatcom-1.9/bld/clib/library/winnt.386/mf_rd/clib3r.lib(/mnt/sda5/.user/root/src/openwatcom-1.9/bld/clib/startup/c/atexit.c)
6fe4279a       atexit_
Module: /mnt/sda5/.user/root/src/openwatcom-1.9/bld/clib/library/winnt.386/mf_rd/clib3r.lib(/mnt/sda5/.user/root/src/openwatcom-1.9/bld/clib/streamio/c/allocfp.c)
6fe42830       __allocfp_
Module: /mnt/sda5/.user/root/src/openwatcom-1.9/bld/clib/library/winnt.386/mf_rd/clib3r.lib(/mnt/sda5/.user/root/src/openwatcom-1.9/bld/clib/streamio/c/chktty.c)
6fe42960       __chktty_
Module: /mnt/sda5/.user/root/src/openwatcom-1.9/bld/clib/library/winnt.386/mf_rd/clib3r.lib(/mnt/sda5/.user/root/src/openwatcom-1.9/bld/clib/streamio/c/ioalloc.c)
6fe429b0       __ioalloc_
Module: /mnt/sda5/.user/root/src/openwatcom-1.9/bld/clib/library/winnt.386/mf_rd/clib3r.lib(/mnt/sda5/.user/root/src/openwatcom-1.9/bld/clib/handleio/c/qread.c)
6fe42a80       __qread_
Module: /mnt/sda5/.user/root/src/openwatcom-1.9/bld/clib/library/winnt.386/mf_rd/clib3r.lib(/mnt/sda5/.user/root/src/openwatcom-1.9/bld/clib/handleio/c/qwrit.c)
6fe42b10       __qwrite_
Module: /mnt/sda5/.user/root/src/openwatcom-1.9/bld/clib/library/winnt.386/mf_rd/clib3r.lib(/mnt/sda5/.user/root/src/openwatcom-1.9/bld/clib/streamio/c/fprtf.c)
6fe42c50       __fprtf_
Module: /mnt/sda5/.user/root/src/openwatcom-1.9/bld/clib/library/winnt.386/mf_rd/clib3r.lib(/mnt/sda5/.user/root/src/openwatcom-1.9/bld/clib/streamio/c/fprtf_s.c)
6fe42dd0       __fprtf_s_
Module: /mnt/sda5/.user/root/src/openwatcom-1.9/bld/clib/library/winnt.386/mf_rd/clib3r.lib(/mnt/sda5/.user/root/src/openwatcom-1.9/bld/clib/streamio/c/scnf_s.c)
6fe440e0       __scnf_s_
Module: /mnt/sda5/.user/root/src/openwatcom-1.9/bld/clib/library/winnt.386/mf_rd/clib3r.lib(/mnt/sda5/.user/root/src/openwatcom-1.9/bld/clib/streamio/c/initfile.c)
6fe44530       __InitFiles_
Module: /mnt/sda5/.user/root/src/openwatcom-1.9/bld/clib/library/winnt.386/mf_rd/clib3r.lib(/mnt/sda5/.user/root/src/openwatcom-1.9/bld/clib/streamio/c/tmputil.c)
6fe44750       __MkTmpFile_
6fe44810       __RmTmpFile_
Module: /mnt/sda5/.user/root/src/openwatcom-1.9/bld/clib/library/winnt.386/mf_rd/clib3r.lib(/mnt/sda5/.user/root/src/openwatcom-1.9/bld/clib/streamio/c/ufprtf.c)
6fe44877       __fwprtf_
Module: /mnt/sda5/.user/root/src/openwatcom-1.9/bld/clib/library/winnt.386/mf_rd/clib3r.lib(/mnt/sda5/.user/root/src/openwatcom-1.9/bld/clib/streamio/c/ufprtf_s.c)
6fe44a00       __fwprtf_s_
Module: /mnt/sda5/.user/root/src/openwatcom-1.9/bld/clib/library/winnt.386/mf_rd/clib3r.lib(/mnt/sda5/.user/root/src/openwatcom-1.9/bld/clib/streamio/c/uscnf.c)
6fe45a99       __wscnf_
Module: /mnt/sda5/.user/root/src/openwatcom-1.9/bld/clib/library/winnt.386/mf_rd/clib3r.lib(/mnt/sda5/.user/root/src/openwatcom-1.9/bld/clib/streamio/c/uscnf_s.c)
6fe46e51       __wscnf_s_
Module: /mnt/sda5/.user/root/src/openwatcom-1.9/bld/clib/library/winnt.386/mf_rd/clib3r.lib(/mnt/sda5/.user/root/src/openwatcom-1.9/bld/clib/string/c/fsetbits.c)
6fe47220       __fsetbits_
Module: /mnt/sda5/.user/root/src/openwatcom-1.9/bld/clib/library/winnt.386/mf_rd/clib3r.lib(/mnt/sda5/.user/root/src/openwatcom-1.9/bld/clib/string/c/bits.c)
6fe472a0       __Bits
Module: /mnt/sda5/.user/root/src/openwatcom-1.9/bld/clib/library/winnt.386/mf_rd/clib3r.lib(/mnt/sda5/.user/root/src/openwatcom-1.9/bld/clib/streamio/c/prtf_s.c)
6fe472c0       __prtf_s_
Module: /mnt/sda5/.user/root/src/openwatcom-1.9/bld/clib/library/winnt.386/mf_rd/clib3r.lib(/mnt/sda5/.user/root/src/openwatcom-1.9/bld/clib/string/c/setbits.c)
6fe48420       __setbits_
Module: /mnt/sda5/.user/root/src/openwatcom-1.9/bld/clib/library/winnt.386/mf_rd/clib3r.lib(/mnt/sda5/.user/root/src/openwatcom-1.9/bld/clib/streamio/c/uprtf.c)
6fe4847c       __wprtf_
Module: /mnt/sda5/.user/root/src/openwatcom-1.9/bld/clib/library/winnt.386/mf_rd/clib3r.lib(/mnt/sda5/.user/root/src/openwatcom-1.9/bld/clib/streamio/c/uprtf_s.c)
6fe496c1       __wprtf_s_
Module: /mnt/sda5/.user/root/src/openwatcom-1.9/bld/clib/library/winnt.386/mf_rd/clib3r.lib(/mnt/sda5/.user/root/src/openwatcom-1.9/bld/clib/time/c/gtctmwnt.c)
6fe4a8e0       __getctime_
Module: /mnt/sda5/.user/root/src/openwatcom-1.9/bld/clib/library/winnt.386/mf_rd/clib3r.lib(/mnt/sda5/.user/root/src/openwatcom-1.9/bld/clib/time/c/leapyear.c)
6fe4a970       __leapyear_
6fe4d034       ___diyr
6fe4d04e       ___dilyr
Module: /mnt/sda5/.user/root/src/openwatcom-1.9/bld/clib/library/winnt.386/mf_rd/clib3r.lib(/mnt/sda5/.user/root/src/openwatcom-1.9/bld/clib/time/c/timeutil.c)
6fe4abc0       __isindst_
Module: /mnt/sda5/.user/root/src/openwatcom-1.9/bld/clib/library/winnt.386/mf_rd/clib3r.lib(/mnt/sda5/.user/root/src/openwatcom-1.9/bld/clib/time/c/locmktim.c)
6fe4b070       __local_mktime_
Module: /mnt/sda5/.user/root/src/openwatcom-1.9/bld/clib/library/winnt.386/mf_rd/clib3r.lib(/mnt/sda5/.user/root/src/openwatcom-1.9/bld/clib/startup/c/fpexcept.c)
6fe4b210       __FPE_exception_
Module: /mnt/sda5/.user/root/src/openwatcom-1.9/bld/clib/library/winnt.386/mf_rd/clib3r.lib(/mnt/sda5/.user/root/src/openwatcom-1.9/bld/clib/startup/c/ddgrpwnt.c)
6fe4b330       __disallow_single_dgroup_
Module: /mnt/sda5/.user/root/src/openwatcom-1.9/bld/clib/library/winnt.386/mf_rd/clib3r.lib(/mnt/sda5/.user/root/src/openwatcom-1.9/bld/clib/startup/c/rdllmwnt.c)
6fe4dcd4       __pRawDllMain
Module: /mnt/sda5/.user/root/src/openwatcom-1.9/bld/clib/library/winnt.386/mf_rd/clib3r.lib(/mnt/sda5/.user/root/src/openwatcom-1.9/bld/clib/startup/c/cinit.c)
6fe4b3d0       __CommonInit_
Module: /mnt/sda5/.user/root/src/openwatcom-1.9/bld/clib/library/winnt.386/mf_rd/clib3r.lib(dosseg)
00001234       __DOSseg__
Module: /mnt/sda5/.user/root/src/openwatcom-1.9/bld/clib/library/winnt.386/mf_rd/clib3r.lib(/mnt/sda5/.user/root/src/openwatcom-1.9/bld/clib/libwin32/c/ufgtattr.c)
6fe4b3f0       __fixed_GetFileAttributesW_
Module: /mnt/sda5/.user/root/src/openwatcom-1.9/bld/clib/library/winnt.386/mf_rd/clib3r.lib(/mnt/sda5/.user/root/src/openwatcom-1.9/bld/clib/libwin32/c/crtproc.c)
6fe4b490       __lib_CreateProcessW_


                        +---------------------+
                        |   Module Segments   |
                        +---------------------+

! = 32-bit segment
c = initialized communal data

Module          Segment               Class           Address         Size
======          =======               =====           =======         ====

/mnt/sda5/.user/root/src/openwatcom-1.9/bld/clib/startup/c/clibdwnt.c
                _TEXT                 CODE           6fe01010  !      0000001f
                CONST                 DATA           6fe4d004  !      00000000
                CONST2                DATA           6fe4d068  !      00000000
                _DATA                 DATA           6fe4d070  !      00000000
LINKER MODULE   TRANSFER CODE         CODE           6fe4bbec  !      000002dc
                .idata                .idata         6fe4c000  !      00000d0e
dstrt386        _TEXT                 CODE           6fe01030  !      0000005c
                _DATA                 DATA           6fe4d070  !      00000000
/mnt/sda5/.user/root/src/openwatcom-1.9/bld/clib/alias/a/_iaccess.asm
                _TEXT                 CODE           6fe0108c  !      00000005
                _DATA                 DATA           6fe4d070  !      00000000
/mnt/sda5/.user/root/src/openwatcom-1.9/bld/clib/alias/a/_iatoi64.asm
                _TEXT                 CODE           6fe01094  !      00000005
                _DATA                 DATA           6fe4d070  !      00000000
/mnt/sda5/.user/root/src/openwatcom-1.9/bld/clib/alias/a/_iclose_.asm
                _TEXT                 CODE           6fe0109c  !      00000005
                _DATA                 DATA           6fe4d070  !      00000000
/mnt/sda5/.user/root/src/openwatcom-1.9/bld/clib/alias/a/_ichdir_.asm
                _TEXT                 CODE           6fe010a4  !      00000005
                _DATA                 DATA           6fe4d070  !      00000000
/mnt/sda5/.user/root/src/openwatcom-1.9/bld/clib/alias/a/_ichmod_.asm
                _TEXT                 CODE           6fe010ac  !      00000005
                _DATA                 DATA           6fe4d070  !      00000000
/mnt/sda5/.user/root/src/openwatcom-1.9/bld/clib/alias/a/_ichsize.asm
                _TEXT                 CODE           6fe010b4  !      00000005
                _DATA                 DATA           6fe4d070  !      00000000
/mnt/sda5/.user/root/src/openwatcom-1.9/bld/clib/alias/a/_icreat_.asm
                _TEXT                 CODE           6fe010bc  !      00000005
                _DATA                 DATA           6fe4d070  !      00000000
/mnt/sda5/.user/root/src/openwatcom-1.9/bld/clib/alias/a/_icwait_.asm
                _TEXT                 CODE           6fe010c4  !      00000005
                _DATA                 DATA           6fe4d070  !      00000000
/mnt/sda5/.user/root/src/openwatcom-1.9/bld/clib/alias/a/_idup___.asm
                _TEXT                 CODE           6fe010cc  !      00000005
                _DATA                 DATA           6fe4d070  !      00000000
/mnt/sda5/.user/root/src/openwatcom-1.9/bld/clib/alias/a/_idup2__.asm
                _TEXT                 CODE           6fe010d4  !      00000005
                _DATA                 DATA           6fe4d070  !      00000000
/mnt/sda5/.user/root/src/openwatcom-1.9/bld/clib/alias/a/_ieof___.asm
                _TEXT                 CODE           6fe010dc  !      00000005
                _DATA                 DATA           6fe4d070  !      00000000
/mnt/sda5/.user/root/src/openwatcom-1.9/bld/clib/alias/a/_ifdopen.asm
                _TEXT                 CODE           6fe010e4  !      00000005
                _DATA                 DATA           6fe4d070  !      00000000
/mnt/sda5/.user/root/src/openwatcom-1.9/bld/clib/alias/a/_ifgetch.asm
                _TEXT                 CODE           6fe010ec  !      00000005
                _DATA                 DATA           6fe4d070  !      00000000
/mnt/sda5/.user/root/src/openwatcom-1.9/bld/clib/alias/a/_ifgetwc.asm
                _TEXT                 CODE           6fe010f4  !      00000005
                _DATA                 DATA           6fe4d070  !      00000000
/mnt/sda5/.user/root/src/openwatcom-1.9/bld/clib/alias/a/_iflelen.asm
                _TEXT                 CODE           6fe010fc  !      00000005
                _DATA                 DATA           6fe4d070  !      00000000
/mnt/sda5/.user/root/src/openwatcom-1.9/bld/clib/alias/a/_ifileno.asm
                _TEXT                 CODE           6fe01104  !      00000005
                _DATA                 DATA           6fe4d070  !      00000000
/mnt/sda5/.user/root/src/openwatcom-1.9/bld/clib/alias/a/_ifputch.asm
                _TEXT                 CODE           6fe0110c  !      00000005
                _DATA                 DATA           6fe4d070  !      00000000
/mnt/sda5/.user/root/src/openwatcom-1.9/bld/clib/alias/a/_ifputwc.asm
                _TEXT                 CODE           6fe01114  !      00000005
                _DATA                 DATA           6fe4d070  !      00000000
/mnt/sda5/.user/root/src/openwatcom-1.9/bld/clib/alias/a/_ifstat_.asm
                _TEXT                 CODE           6fe0111c  !      00000005
                _DATA                 DATA           6fe4d070  !      00000000
/mnt/sda5/.user/root/src/openwatcom-1.9/bld/clib/alias/a/_iftime_.asm
                _TEXT                 CODE           6fe01124  !      00000005
                _DATA                 DATA           6fe4d070  !      00000000
/mnt/sda5/.user/root/src/openwatcom-1.9/bld/clib/alias/a/_igetch_.asm
                _TEXT                 CODE           6fe0112c  !      00000005
                _DATA                 DATA           6fe4d070  !      00000000
/mnt/sda5/.user/root/src/openwatcom-1.9/bld/clib/alias/a/_igetche.asm
                _TEXT                 CODE           6fe01134  !      00000005
                _DATA                 DATA           6fe4d070  !      00000000
/mnt/sda5/.user/root/src/openwatcom-1.9/bld/clib/alias/a/_igetcwd.asm
                _TEXT                 CODE           6fe0113c  !      00000005
                _DATA                 DATA           6fe4d070  !      00000000
/mnt/sda5/.user/root/src/openwatcom-1.9/bld/clib/alias/a/_igetws_.asm
                _TEXT                 CODE           6fe01144  !      00000005
                _DATA                 DATA           6fe4d070  !      00000000
/mnt/sda5/.user/root/src/openwatcom-1.9/bld/clib/alias/a/_idopen_.asm
                _TEXT                 CODE           6fe0114c  !      00000005
                _DATA                 DATA           6fe4d070  !      00000000
/mnt/sda5/.user/root/src/openwatcom-1.9/bld/clib/alias/a/_iisatty.asm
                _TEXT                 CODE           6fe01154  !      00000005
                _DATA                 DATA           6fe4d070  !      00000000
/mnt/sda5/.user/root/src/openwatcom-1.9/bld/clib/alias/a/_i_isasc.asm
                _TEXT                 CODE           6fe0115c  !      00000005
                _DATA                 DATA           6fe4d070  !      00000000
/mnt/sda5/.user/root/src/openwatcom-1.9/bld/clib/alias/a/_iiscsym.asm
                _TEXT                 CODE           6fe01164  !      00000005
                _DATA                 DATA           6fe4d070  !      00000000
/mnt/sda5/.user/root/src/openwatcom-1.9/bld/clib/alias/a/_iiscsyf.asm
                _TEXT                 CODE           6fe0116c  !      00000005
                _DATA                 DATA           6fe4d070  !      00000000
/mnt/sda5/.user/root/src/openwatcom-1.9/bld/clib/alias/a/_iismbbk.asm
                _TEXT                 CODE           6fe01174  !      00000005
                _DATA                 DATA           6fe4d070  !      00000000
/mnt/sda5/.user/root/src/openwatcom-1.9/bld/clib/alias/a/_iislead.asm
                _TEXT                 CODE           6fe0117c  !      00000005
                _DATA                 DATA           6fe4d070  !      00000000
/mnt/sda5/.user/root/src/openwatcom-1.9/bld/clib/alias/a/_iitoa__.asm
                _TEXT                 CODE           6fe01184  !      00000005
                _DATA                 DATA           6fe4d070  !      00000000
/mnt/sda5/.user/root/src/openwatcom-1.9/bld/clib/alias/a/_iutoa__.asm
                _TEXT                 CODE           6fe0118c  !      00000005
                _DATA                 DATA           6fe4d070  !      00000000
/mnt/sda5/.user/root/src/openwatcom-1.9/bld/clib/alias/a/_ikbhit_.asm
                _TEXT                 CODE           6fe01194  !      00000005
                _DATA                 DATA           6fe4d070  !      00000000
/mnt/sda5/.user/root/src/openwatcom-1.9/bld/clib/alias/a/_ilockin.asm
                _TEXT                 CODE           6fe0119c  !      00000005
                _DATA                 DATA           6fe4d070  !      00000000
/mnt/sda5/.user/root/src/openwatcom-1.9/bld/clib/alias/a/_ilseek_.asm
                _TEXT                 CODE           6fe011a4  !      00000005
                _DATA                 DATA           6fe4d070  !      00000000
/mnt/sda5/.user/root/src/openwatcom-1.9/bld/clib/alias/a/_iltoa__.asm
                _TEXT                 CODE           6fe011ac  !      00000005
                _DATA                 DATA           6fe4d070  !      00000000
/mnt/sda5/.user/root/src/openwatcom-1.9/bld/clib/alias/a/_ii64toa.asm
                _TEXT                 CODE           6fe011b4  !      00000005
                _DATA                 DATA           6fe4d070  !      00000000
/mnt/sda5/.user/root/src/openwatcom-1.9/bld/clib/alias/a/_illtoa_.asm
                _TEXT                 CODE           6fe011bc  !      00000005
                _DATA                 DATA           6fe4d070  !      00000000
/mnt/sda5/.user/root/src/openwatcom-1.9/bld/clib/alias/a/_iultoa_.asm
                _TEXT                 CODE           6fe011c4  !      00000005
                _DATA                 DATA           6fe4d070  !      00000000
/mnt/sda5/.user/root/src/openwatcom-1.9/bld/clib/alias/a/_iulltoa.asm
                _TEXT                 CODE           6fe011cc  !      00000005
                _DATA                 DATA           6fe4d070  !      00000000
/mnt/sda5/.user/root/src/openwatcom-1.9/bld/clib/alias/a/_iu64toa.asm
                _TEXT                 CODE           6fe011d4  !      00000005
                _DATA                 DATA           6fe4d070  !      00000000
/mnt/sda5/.user/root/src/openwatcom-1.9/bld/clib/alias/a/_istti64.asm
                _TEXT                 CODE           6fe011dc  !      00000005
                _DATA                 DATA           6fe4d070  !      00000000
/mnt/sda5/.user/root/src/openwatcom-1.9/bld/clib/alias/a/_isttu64.asm
                _TEXT                 CODE           6fe011e4  !      00000005
                _DATA                 DATA           6fe4d070  !      00000000
/mnt/sda5/.user/root/src/openwatcom-1.9/bld/clib/alias/a/_itccmp_.asm
                _TEXT                 CODE           6fe011ec  !      00000005
                _DATA                 DATA           6fe4d070  !      00000000
/mnt/sda5/.user/root/src/openwatcom-1.9/bld/clib/alias/a/_itccpy_.asm
                _TEXT                 CODE           6fe011f4  !      00000005
                _DATA                 DATA           6fe4d070  !      00000000
/mnt/sda5/.user/root/src/openwatcom-1.9/bld/clib/alias/a/_itclen_.asm
                _TEXT                 CODE           6fe011fc  !      00000005
                _DATA                 DATA           6fe4d070  !      00000000
/mnt/sda5/.user/root/src/openwatcom-1.9/bld/clib/alias/a/_itcschr.asm
                _TEXT                 CODE           6fe01204  !      00000005
                _DATA                 DATA           6fe4d070  !      00000000
/mnt/sda5/.user/root/src/openwatcom-1.9/bld/clib/alias/a/_imbscol.asm
                _TEXT                 CODE           6fe0120c  !      00000005
                _DATA                 DATA           6fe4d070  !      00000000
/mnt/sda5/.user/root/src/openwatcom-1.9/bld/clib/alias/a/_itcscmp.asm
                _TEXT                 CODE           6fe01214  !      00000005
                _DATA                 DATA           6fe4d070  !      00000000
/mnt/sda5/.user/root/src/openwatcom-1.9/bld/clib/alias/a/_itcscol.asm
                _TEXT                 CODE           6fe0121c  !      00000005
                _DATA                 DATA           6fe4d070  !      00000000
/mnt/sda5/.user/root/src/openwatcom-1.9/bld/clib/alias/a/_itcscsp.asm
                _TEXT                 CODE           6fe01224  !      00000005
                _DATA                 DATA           6fe4d070  !      00000000
/mnt/sda5/.user/root/src/openwatcom-1.9/bld/clib/alias/a/_itcsdec.asm
                _TEXT                 CODE           6fe0122c  !      00000005
                _DATA                 DATA           6fe4d070  !      00000000
/mnt/sda5/.user/root/src/openwatcom-1.9/bld/clib/alias/a/_imbsico.asm
                _TEXT                 CODE           6fe01234  !      00000005
                _DATA                 DATA           6fe4d070  !      00000000
/mnt/sda5/.user/root/src/openwatcom-1.9/bld/clib/alias/a/_itcsicm.asm
                _TEXT                 CODE           6fe0123c  !      00000005
                _DATA                 DATA           6fe4d070  !      00000000
/mnt/sda5/.user/root/src/openwatcom-1.9/bld/clib/alias/a/_itcsico.asm
                _TEXT                 CODE           6fe01244  !      00000005
                _DATA                 DATA           6fe4d070  !      00000000
/mnt/sda5/.user/root/src/openwatcom-1.9/bld/clib/alias/a/_itcsinc.asm
                _TEXT                 CODE           6fe0124c  !      00000005
                _DATA                 DATA           6fe4d070  !      00000000
/mnt/sda5/.user/root/src/openwatcom-1.9/bld/clib/alias/a/_itcscle.asm
                _TEXT                 CODE           6fe01254  !      00000005
                _DATA                 DATA           6fe4d070  !      00000000
/mnt/sda5/.user/root/src/openwatcom-1.9/bld/clib/alias/a/_itcslwr.asm
                _TEXT                 CODE           6fe0125c  !      00000005
                _DATA                 DATA           6fe4d070  !      00000000
/mnt/sda5/.user/root/src/openwatcom-1.9/bld/clib/alias/a/_itcsnbc.asm
                _TEXT                 CODE           6fe01264  !      00000005
                _DATA                 DATA           6fe4d070  !      00000000
/mnt/sda5/.user/root/src/openwatcom-1.9/bld/clib/alias/a/_itcsnca.asm
                _TEXT                 CODE           6fe0126c  !      00000005
                _DATA                 DATA           6fe4d070  !      00000000
/mnt/sda5/.user/root/src/openwatcom-1.9/bld/clib/alias/a/_imbsnbc.asm
                _TEXT                 CODE           6fe01274  !      00000005
                _DATA                 DATA           6fe4d070  !      00000000
/mnt/sda5/.user/root/src/openwatcom-1.9/bld/clib/alias/a/_itcsncm.asm
                _TEXT                 CODE           6fe0127c  !      00000005
                _DATA                 DATA           6fe4d070  !      00000000
/mnt/sda5/.user/root/src/openwatcom-1.9/bld/clib/alias/a/_itcsnco.asm
                _TEXT                 CODE           6fe01284  !      00000005
                _DATA                 DATA           6fe4d070  !      00000000
/mnt/sda5/.user/root/src/openwatcom-1.9/bld/clib/alias/a/_itcsncp.asm
                _TEXT                 CODE           6fe0128c  !      00000005
                _DATA                 DATA           6fe4d070  !      00000000
/mnt/sda5/.user/root/src/openwatcom-1.9/bld/clib/alias/a/_itcsncc.asm
                _TEXT                 CODE           6fe01294  !      00000005
                _DATA                 DATA           6fe4d070  !      00000000
/mnt/sda5/.user/root/src/openwatcom-1.9/bld/clib/alias/a/_itcnccm.asm
                _TEXT                 CODE           6fe0129c  !      00000005
                _DATA                 DATA           6fe4d070  !      00000000
/mnt/sda5/.user/root/src/openwatcom-1.9/bld/clib/alias/a/_itcnccn.asm
                _TEXT                 CODE           6fe012a4  !      00000005
                _DATA                 DATA           6fe4d070  !      00000000
/mnt/sda5/.user/root/src/openwatcom-1.9/bld/clib/alias/a/_imbsnco.asm
                _TEXT                 CODE           6fe012ac  !      00000005
                _DATA                 DATA           6fe4d070  !      00000000
/mnt/sda5/.user/root/src/openwatcom-1.9/bld/clib/alias/a/_itcncco.asm
                _TEXT                 CODE           6fe012b4  !      00000005
                _DATA                 DATA           6fe4d070  !      00000000
/mnt/sda5/.user/root/src/openwatcom-1.9/bld/clib/alias/a/_itcnccp.asm
                _TEXT                 CODE           6fe012bc  !      00000005
                _DATA                 DATA           6fe4d070  !      00000000
/mnt/sda5/.user/root/src/openwatcom-1.9/bld/clib/alias/a/_imbsnic.asm
                _TEXT                 CODE           6fe012c4  !      00000005
                _DATA                 DATA           6fe4d070  !      00000000
/mnt/sda5/.user/root/src/openwatcom-1.9/bld/clib/alias/a/_itcsnci.asm
                _TEXT                 CODE           6fe012cc  !      00000005
                _DATA                 DATA           6fe4d070  !      00000000
/mnt/sda5/.user/root/src/openwatcom-1.9/bld/clib/alias/a/_itcncic.asm
                _TEXT                 CODE           6fe012d4  !      00000005
                _DATA                 DATA           6fe4d070  !      00000000
/mnt/sda5/.user/root/src/openwatcom-1.9/bld/clib/alias/a/_itcsncs.asm
                _TEXT                 CODE           6fe012dc  !      00000005
                _DATA                 DATA           6fe4d070  !      00000000
/mnt/sda5/.user/root/src/openwatcom-1.9/bld/clib/alias/a/_itcsnex.asm
                _TEXT                 CODE           6fe012e4  !      00000005
                _DATA                 DATA           6fe4d070  !      00000000
/mnt/sda5/.user/root/src/openwatcom-1.9/bld/clib/alias/a/_imbsnbi.asm
                _TEXT                 CODE           6fe012ec  !      00000005
                _DATA                 DATA           6fe4d070  !      00000000
/mnt/sda5/.user/root/src/openwatcom-1.9/bld/clib/alias/a/_itcsnic.asm
                _TEXT                 CODE           6fe012f4  !      00000005
                _DATA                 DATA           6fe4d070  !      00000000
/mnt/sda5/.user/root/src/openwatcom-1.9/bld/clib/alias/a/_itcnico.asm
                _TEXT                 CODE           6fe012fc  !      00000005
                _DATA                 DATA           6fe4d070  !      00000000
/mnt/sda5/.user/root/src/openwatcom-1.9/bld/clib/alias/a/_itcsnin.asm
                _TEXT                 CODE           6fe01304  !      00000005
                _DATA                 DATA           6fe4d070  !      00000000
/mnt/sda5/.user/root/src/openwatcom-1.9/bld/clib/alias/a/_itcsnse.asm
                _TEXT                 CODE           6fe0130c  !      00000005
                _DATA                 DATA           6fe4d070  !      00000000
/mnt/sda5/.user/root/src/openwatcom-1.9/bld/clib/alias/a/_itcspbr.asm
                _TEXT                 CODE           6fe01314  !      00000005
                _DATA                 DATA           6fe4d070  !      00000000
/mnt/sda5/.user/root/src/openwatcom-1.9/bld/clib/alias/a/_itcsrch.asm
                _TEXT                 CODE           6fe0131c  !      00000005
                _DATA                 DATA           6fe4d070  !      00000000
/mnt/sda5/.user/root/src/openwatcom-1.9/bld/clib/alias/a/_itcsrev.asm
                _TEXT                 CODE           6fe01324  !      00000005
                _DATA                 DATA           6fe4d070  !      00000000
/mnt/sda5/.user/root/src/openwatcom-1.9/bld/clib/alias/a/_itcsset.asm
                _TEXT                 CODE           6fe0132c  !      00000005
                _DATA                 DATA           6fe4d070  !      00000000
/mnt/sda5/.user/root/src/openwatcom-1.9/bld/clib/alias/a/_itcsspn.asm
                _TEXT                 CODE           6fe01334  !      00000005
                _DATA                 DATA           6fe4d070  !      00000000
/mnt/sda5/.user/root/src/openwatcom-1.9/bld/clib/alias/a/_itcspnp.asm
                _TEXT                 CODE           6fe0133c  !      00000005
                _DATA                 DATA           6fe4d070  !      00000000
/mnt/sda5/.user/root/src/openwatcom-1.9/bld/clib/alias/a/_itcsstr.asm
                _TEXT                 CODE           6fe01344  !      00000005
                _DATA                 DATA           6fe4d070  !      00000000
/mnt/sda5/.user/root/src/openwatcom-1.9/bld/clib/alias/a/_itcstok.asm
                _TEXT                 CODE           6fe0134c  !      00000005
                _DATA                 DATA           6fe4d070  !      00000000
/mnt/sda5/.user/root/src/openwatcom-1.9/bld/clib/alias/a/_itcsupr.asm
                _TEXT                 CODE           6fe01354  !      00000005
                _DATA                 DATA           6fe4d070  !      00000000
/mnt/sda5/.user/root/src/openwatcom-1.9/bld/clib/alias/a/_imemicm.asm
                _TEXT                 CODE           6fe0135c  !      00000005
                _DATA                 DATA           6fe4d070  !      00000000
/mnt/sda5/.user/root/src/openwatcom-1.9/bld/clib/alias/a/_imkdir_.asm
                _TEXT                 CODE           6fe01364  !      00000005
                _DATA                 DATA           6fe4d070  !      00000000
/mnt/sda5/.user/root/src/openwatcom-1.9/bld/clib/alias/a/_iopen__.asm
                _TEXT                 CODE           6fe0136c  !      00000005
                _DATA                 DATA           6fe4d070  !      00000000
/mnt/sda5/.user/root/src/openwatcom-1.9/bld/clib/alias/a/_iputenv.asm
                _TEXT                 CODE           6fe01374  !      00000005
                _DATA                 DATA           6fe4d070  !      00000000
/mnt/sda5/.user/root/src/openwatcom-1.9/bld/clib/alias/a/_iputws_.asm
                _TEXT                 CODE           6fe0137c  !      00000005
                _DATA                 DATA           6fe4d070  !      00000000
/mnt/sda5/.user/root/src/openwatcom-1.9/bld/clib/alias/a/_iread__.asm
                _TEXT                 CODE           6fe01384  !      00000005
                _DATA                 DATA           6fe4d070  !      00000000
/mnt/sda5/.user/root/src/openwatcom-1.9/bld/clib/alias/a/_irmdir_.asm
                _TEXT                 CODE           6fe0138c  !      00000005
                _DATA                 DATA           6fe4d070  !      00000000
/mnt/sda5/.user/root/src/openwatcom-1.9/bld/clib/alias/a/_isetmod.asm
                _TEXT                 CODE           6fe01394  !      00000005
                _DATA                 DATA           6fe4d070  !      00000000
/mnt/sda5/.user/root/src/openwatcom-1.9/bld/clib/alias/a/_isopen_.asm
                _TEXT                 CODE           6fe0139c  !      00000005
                _DATA                 DATA           6fe4d070  !      00000000
/mnt/sda5/.user/root/src/openwatcom-1.9/bld/clib/alias/a/_istkavl.asm
                _TEXT                 CODE           6fe013a4  !      00000005
                _DATA                 DATA           6fe4d070  !      00000000
/mnt/sda5/.user/root/src/openwatcom-1.9/bld/clib/alias/a/_istat__.asm
                _TEXT                 CODE           6fe013ac  !      00000005
                _DATA                 DATA           6fe4d070  !      00000000
/mnt/sda5/.user/root/src/openwatcom-1.9/bld/clib/alias/a/_ilstat_.asm
                _TEXT                 CODE           6fe013b4  !      00000005
                _DATA                 DATA           6fe4d070  !      00000000
/mnt/sda5/.user/root/src/openwatcom-1.9/bld/clib/alias/a/_istrdup.asm
                _TEXT                 CODE           6fe013bc  !      00000005
                _DATA                 DATA           6fe4d070  !      00000000
/mnt/sda5/.user/root/src/openwatcom-1.9/bld/clib/alias/a/_icstrdu.asm
                _TEXT                 CODE           6fe013c4  !      00000005
                _DATA                 DATA           6fe4d070  !      00000000
/mnt/sda5/.user/root/src/openwatcom-1.9/bld/clib/alias/a/_icwcsdu.asm
                _TEXT                 CODE           6fe013cc  !      00000005
                _DATA                 DATA           6fe4d070  !      00000000
/mnt/sda5/.user/root/src/openwatcom-1.9/bld/clib/alias/a/_istrcmp.asm
                _TEXT                 CODE           6fe013d4  !      00000005
                _DATA                 DATA           6fe4d070  !      00000000
/mnt/sda5/.user/root/src/openwatcom-1.9/bld/clib/alias/a/_istricm.asm
                _TEXT                 CODE           6fe013dc  !      00000005
                _DATA                 DATA           6fe4d070  !      00000000
/mnt/sda5/.user/root/src/openwatcom-1.9/bld/clib/alias/a/_istrico.asm
                _TEXT                 CODE           6fe013e4  !      00000005
                _DATA                 DATA           6fe4d070  !      00000000
/mnt/sda5/.user/root/src/openwatcom-1.9/bld/clib/alias/a/_istrlwr.asm
                _TEXT                 CODE           6fe013ec  !      00000005
                _DATA                 DATA           6fe4d070  !      00000000
/mnt/sda5/.user/root/src/openwatcom-1.9/bld/clib/alias/a/_istrnco.asm
                _TEXT                 CODE           6fe013f4  !      00000005
                _DATA                 DATA           6fe4d070  !      00000000
/mnt/sda5/.user/root/src/openwatcom-1.9/bld/clib/alias/a/_istrnic.asm
                _TEXT                 CODE           6fe013fc  !      00000005
                _DATA                 DATA           6fe4d070  !      00000000
/mnt/sda5/.user/root/src/openwatcom-1.9/bld/clib/alias/a/_istnico.asm
                _TEXT                 CODE           6fe01404  !      00000005
                _DATA                 DATA           6fe4d070  !      00000000
/mnt/sda5/.user/root/src/openwatcom-1.9/bld/clib/alias/a/_istrnse.asm
                _TEXT                 CODE           6fe0140c  !      00000005
                _DATA                 DATA           6fe4d070  !      00000000
/mnt/sda5/.user/root/src/openwatcom-1.9/bld/clib/alias/a/_istrrev.asm
                _TEXT                 CODE           6fe01414  !      00000005
                _DATA                 DATA           6fe4d070  !      00000000
/mnt/sda5/.user/root/src/openwatcom-1.9/bld/clib/alias/a/_istrset.asm
                _TEXT                 CODE           6fe0141c  !      00000005
                _DATA                 DATA           6fe4d070  !      00000000
/mnt/sda5/.user/root/src/openwatcom-1.9/bld/clib/alias/a/_istrspn.asm
                _TEXT                 CODE           6fe01424  !      00000005
                _DATA                 DATA           6fe4d070  !      00000000
/mnt/sda5/.user/root/src/openwatcom-1.9/bld/clib/alias/a/_istrupr.asm
                _TEXT                 CODE           6fe0142c  !      00000005
                _DATA                 DATA           6fe4d070  !      00000000
/mnt/sda5/.user/root/src/openwatcom-1.9/bld/clib/alias/a/_istrcc_.asm
                _TEXT                 CODE           6fe01434  !      00000005
                _DATA                 DATA           6fe4d070  !      00000000
/mnt/sda5/.user/root/src/openwatcom-1.9/bld/clib/alias/a/_istrncc.asm
                _TEXT                 CODE           6fe0143c  !      00000005
                _DATA                 DATA           6fe4d070  !      00000000
/mnt/sda5/.user/root/src/openwatcom-1.9/bld/clib/alias/a/_itell__.asm
                _TEXT                 CODE           6fe01444  !      00000005
                _DATA                 DATA           6fe4d070  !      00000000
/mnt/sda5/.user/root/src/openwatcom-1.9/bld/clib/alias/a/_itolowe.asm
                _TEXT                 CODE           6fe0144c  !      00000005
                _DATA                 DATA           6fe4d070  !      00000000
/mnt/sda5/.user/root/src/openwatcom-1.9/bld/clib/alias/a/_itouppe.asm
                _TEXT                 CODE           6fe01454  !      00000005
                _DATA                 DATA           6fe4d070  !      00000000
/mnt/sda5/.user/root/src/openwatcom-1.9/bld/clib/alias/a/_itzset_.asm
                _TEXT                 CODE           6fe0145c  !      00000005
                _DATA                 DATA           6fe4d070  !      00000000
/mnt/sda5/.user/root/src/openwatcom-1.9/bld/clib/alias/a/_iufst64.asm
                _TEXT                 CODE           6fe01464  !      00000005
                _DATA                 DATA           6fe4d070  !      00000000
/mnt/sda5/.user/root/src/openwatcom-1.9/bld/clib/alias/a/_iufstat.asm
                _TEXT                 CODE           6fe0146c  !      00000005
                _DATA                 DATA           6fe4d070  !      00000000
/mnt/sda5/.user/root/src/openwatcom-1.9/bld/clib/alias/a/_iumask_.asm
                _TEXT                 CODE           6fe01474  !      00000005
                _DATA                 DATA           6fe4d070  !      00000000
/mnt/sda5/.user/root/src/openwatcom-1.9/bld/clib/alias/a/_iunlink.asm
                _TEXT                 CODE           6fe0147c  !      00000005
                _DATA                 DATA           6fe4d070  !      00000000
/mnt/sda5/.user/root/src/openwatcom-1.9/bld/clib/alias/a/_iutime_.asm
                _TEXT                 CODE           6fe01484  !      00000005
                _DATA                 DATA           6fe4d070  !      00000000
/mnt/sda5/.user/root/src/openwatcom-1.9/bld/clib/alias/a/_iwrite_.asm
                _TEXT                 CODE           6fe0148c  !      00000005
                _DATA                 DATA           6fe4d070  !      00000000
/mnt/sda5/.user/root/src/openwatcom-1.9/bld/clib/alias/a/_iw_acce.asm
                _TEXT                 CODE           6fe01494  !      00000005
                _DATA                 DATA           6fe4d070  !      00000000
/mnt/sda5/.user/root/src/openwatcom-1.9/bld/clib/alias/a/_iwcscmp.asm
                _TEXT                 CODE           6fe0149c  !      00000005
                _DATA                 DATA           6fe4d070  !      00000000
/mnt/sda5/.user/root/src/openwatcom-1.9/bld/clib/alias/a/_iwcsico.asm
                _TEXT                 CODE           6fe014a4  !      00000005
                _DATA                 DATA           6fe4d070  !      00000000
/mnt/sda5/.user/root/src/openwatcom-1.9/bld/clib/alias/a/_iwcsnco.asm
                _TEXT                 CODE           6fe014ac  !      00000005
                _DATA                 DATA           6fe4d070  !      00000000
/mnt/sda5/.user/root/src/openwatcom-1.9/bld/clib/alias/a/_iwcnico.asm
                _TEXT                 CODE           6fe014b4  !      00000005
                _DATA                 DATA           6fe4d070  !      00000000
/mnt/sda5/.user/root/src/openwatcom-1.9/bld/clib/alias/a/_iw_fsop.asm
                _TEXT                 CODE           6fe014bc  !      00000005
                _DATA                 DATA           6fe4d070  !      00000000
/mnt/sda5/.user/root/src/openwatcom-1.9/bld/clib/alias/a/_iw_full.asm
                _TEXT                 CODE           6fe014c4  !      00000005
                _DATA                 DATA           6fe4d070  !      00000000
/mnt/sda5/.user/root/src/openwatcom-1.9/bld/clib/alias/a/_iitow__.asm
                _TEXT                 CODE           6fe014cc  !      00000005
                _DATA                 DATA           6fe4d070  !      00000000
/mnt/sda5/.user/root/src/openwatcom-1.9/bld/clib/alias/a/_iltow__.asm
                _TEXT                 CODE           6fe014d4  !      00000005
                _DATA                 DATA           6fe4d070  !      00000000
/mnt/sda5/.user/root/src/openwatcom-1.9/bld/clib/alias/a/_iw_make.asm
                _TEXT                 CODE           6fe014dc  !      00000005
                _DATA                 DATA           6fe4d070  !      00000000
/mnt/sda5/.user/root/src/openwatcom-1.9/bld/clib/alias/a/_iw_spli.asm
                _TEXT                 CODE           6fe014e4  !      00000005
                _DATA                 DATA           6fe4d070  !      00000000
/mnt/sda5/.user/root/src/openwatcom-1.9/bld/clib/alias/a/_iw_spl2.asm
                _TEXT                 CODE           6fe014ec  !      00000005
                _DATA                 DATA           6fe4d070  !      00000000
/mnt/sda5/.user/root/src/openwatcom-1.9/bld/clib/alias/a/_iwtoi__.asm
                _TEXT                 CODE           6fe014f4  !      00000005
                _DATA                 DATA           6fe4d070  !      00000000
/mnt/sda5/.user/root/src/openwatcom-1.9/bld/clib/alias/a/_iwtol__.asm
                _TEXT                 CODE           6fe014fc  !      00000005
                _DATA                 DATA           6fe4d070  !      00000000
/mnt/sda5/.user/root/src/openwatcom-1.9/bld/clib/alias/a/_iultow_.asm
                _TEXT                 CODE           6fe01504  !      00000005
                _DATA                 DATA           6fe4d070  !      00000000
/mnt/sda5/.user/root/src/openwatcom-1.9/bld/clib/alias/a/_iutow__.asm
                _TEXT                 CODE           6fe0150c  !      00000005
                _DATA                 DATA           6fe4d070  !      00000000
/mnt/sda5/.user/root/src/openwatcom-1.9/bld/clib/char/c/isalnum.c
                _TEXT                 CODE           6fe01520  !      0000003c
                CONST                 DATA           6fe4d004  !      00000000
                CONST2                DATA           6fe4d068  !      00000000
                _DATA                 DATA           6fe4d070  !      00000000
/mnt/sda5/.user/root/src/openwatcom-1.9/bld/clib/char/c/isalpha.c
                _TEXT                 CODE           6fe01560  !      0000003c
                CONST                 DATA           6fe4d004  !      00000000
                CONST2                DATA           6fe4d068  !      00000000
                _DATA                 DATA           6fe4d070  !      00000000
/mnt/sda5/.user/root/src/openwatcom-1.9/bld/clib/char/c/isascii.c
                _TEXT                 CODE           6fe015a0  !      00000039
                CONST                 DATA           6fe4d004  !      00000000
                CONST2                DATA           6fe4d068  !      00000000
                _DATA                 DATA           6fe4d070  !      00000000
/mnt/sda5/.user/root/src/openwatcom-1.9/bld/clib/char/c/isblank.c
                _TEXT                 CODE           6fe015e0  !      00000048
                CONST                 DATA           6fe4d004  !      00000000
                CONST2                DATA           6fe4d068  !      00000000
                _DATA                 DATA           6fe4d070  !      00000000
/mnt/sda5/.user/root/src/openwatcom-1.9/bld/clib/char/c/iscntrl.c
                _TEXT                 CODE           6fe01630  !      0000003a
                CONST                 DATA           6fe4d004  !      00000000
                CONST2                DATA           6fe4d068  !      00000000
                _DATA                 DATA           6fe4d070  !      00000000
/mnt/sda5/.user/root/src/openwatcom-1.9/bld/clib/char/c/iscsym.c
                _TEXT                 CODE           6fe01670  !      00000054
                CONST                 DATA           6fe4d004  !      00000000
                CONST2                DATA           6fe4d068  !      00000000
                _DATA                 DATA           6fe4d070  !      00000000
/mnt/sda5/.user/root/src/openwatcom-1.9/bld/clib/char/c/iscsymf.c
                _TEXT                 CODE           6fe016d0  !      00000054
                CONST                 DATA           6fe4d004  !      00000000
                CONST2                DATA           6fe4d068  !      00000000
                _DATA                 DATA           6fe4d070  !      00000000
/mnt/sda5/.user/root/src/openwatcom-1.9/bld/clib/char/c/isdigit.c
                _TEXT                 CODE           6fe01730  !      0000003a
                CONST                 DATA           6fe4d004  !      00000000
                CONST2                DATA           6fe4d068  !      00000000
                _DATA                 DATA           6fe4d070  !      00000000
/mnt/sda5/.user/root/src/openwatcom-1.9/bld/clib/char/c/isgraph.c
                _TEXT                 CODE           6fe01770  !      00000052
                CONST                 DATA           6fe4d004  !      00000000
                CONST2                DATA           6fe4d068  !      00000000
                _DATA                 DATA           6fe4d070  !      00000000
/mnt/sda5/.user/root/src/openwatcom-1.9/bld/clib/char/c/islower.c
                _TEXT                 CODE           6fe017d0  !      0000003c
                CONST                 DATA           6fe4d004  !      00000000
                CONST2                DATA           6fe4d068  !      00000000
                _DATA                 DATA           6fe4d070  !      00000000
/mnt/sda5/.user/root/src/openwatcom-1.9/bld/clib/char/c/isprint.c
                _TEXT                 CODE           6fe01810  !      0000003a
                CONST                 DATA           6fe4d004  !      00000000
                CONST2                DATA           6fe4d068  !      00000000
                _DATA                 DATA           6fe4d070  !      00000000
/mnt/sda5/.user/root/src/openwatcom-1.9/bld/clib/char/c/ispunct.c
                _TEXT                 CODE           6fe01850  !      0000003a
                CONST                 DATA           6fe4d004  !      00000000
                CONST2                DATA           6fe4d068  !      00000000
                _DATA                 DATA           6fe4d070  !      00000000
/mnt/sda5/.user/root/src/openwatcom-1.9/bld/clib/char/c/isspace.c
                _TEXT                 CODE           6fe01890  !      0000003a
                CONST                 DATA           6fe4d004  !      00000000
                CONST2                DATA           6fe4d068  !      00000000
                _DATA                 DATA           6fe4d070  !      00000000
/mnt/sda5/.user/root/src/openwatcom-1.9/bld/clib/char/c/istable.c
                _TEXT                 CODE           6fe018d0  !      00000101
                CONST                 DATA           6fe4d004  !      00000000
                CONST2                DATA           6fe4d068  !      00000000
                _DATA                 DATA           6fe4d070  !      00000000
/mnt/sda5/.user/root/src/openwatcom-1.9/bld/clib/char/c/isupper.c
                _TEXT                 CODE           6fe019e0  !      0000003a
                CONST                 DATA           6fe4d004  !      00000000
                CONST2                DATA           6fe4d068  !      00000000
                _DATA                 DATA           6fe4d070  !      00000000
/mnt/sda5/.user/root/src/openwatcom-1.9/bld/clib/char/c/iswctype.c
                _TEXT                 CODE           6fe01a20  !      00000145
                CONST                 DATA           6fe4d004  !      00000000
                CONST2                DATA           6fe4d068  !      00000000
                _DATA                 DATA           6fe4d070  !      00000000
/mnt/sda5/.user/root/src/openwatcom-1.9/bld/clib/char/c/isxdigit.c
                _TEXT                 CODE           6fe01b70  !      0000003a
                CONST                 DATA           6fe4d004  !      00000000
                CONST2                DATA           6fe4d068  !      00000000
                _DATA                 DATA           6fe4d070  !      00000000
/mnt/sda5/.user/root/src/openwatcom-1.9/bld/clib/char/c/tolower.c
                _TEXT                 CODE           6fe01bb0  !      00000035
                CONST                 DATA           6fe4d004  !      00000000
                CONST2                DATA           6fe4d068  !      00000000
                _DATA                 DATA           6fe4d070  !      00000000
/mnt/sda5/.user/root/src/openwatcom-1.9/bld/clib/char/c/toupper.c
                _TEXT                 CODE           6fe01bf0  !      00000035
                CONST                 DATA           6fe4d004  !      00000000
                CONST2                DATA           6fe4d068  !      00000000
                _DATA                 DATA           6fe4d070  !      00000000
/mnt/sda5/.user/root/src/openwatcom-1.9/bld/clib/char/c/towctrns.c
                _TEXT                 CODE           6fe01c30  !      0000005c
                CONST                 DATA           6fe4d004  !      00000000
                CONST2                DATA           6fe4d068  !      00000000
                _DATA                 DATA           6fe4d070  !      00000000
/mnt/sda5/.user/root/src/openwatcom-1.9/bld/clib/char/c/wctrans.c
                _TEXT                 CODE           6fe01c90  !      00000068
                CONST                 DATA           6fe4d004  !      00000000
                CONST2                DATA           6fe4d068  !      00000000
                _DATA                 DATA           6fe4d070  !      00000000
/mnt/sda5/.user/root/src/openwatcom-1.9/bld/clib/char/c/uisalnum.c
                _TEXT                 CODE           6fe01cf8  !      0000003e
                CONST                 DATA           6fe4d004  !      00000000
                CONST2                DATA           6fe4d068  !      00000000
                _DATA                 DATA           6fe4d070  !      00000000
/mnt/sda5/.user/root/src/openwatcom-1.9/bld/clib/char/c/uisalpha.c
                _TEXT                 CODE           6fe01d36  !      0000003e
                CONST                 DATA           6fe4d004  !      00000000
                CONST2                DATA           6fe4d068  !      00000000
                _DATA                 DATA           6fe4d070  !      00000000
/mnt/sda5/.user/root/src/openwatcom-1.9/bld/clib/char/c/uisascii.c
                _TEXT                 CODE           6fe01d74  !      00000033
                CONST                 DATA           6fe4d004  !      00000000
                CONST2                DATA           6fe4d068  !      00000000
                _DATA                 DATA           6fe4d070  !      00000000
/mnt/sda5/.user/root/src/openwatcom-1.9/bld/clib/char/c/uisblank.c
                _TEXT                 CODE           6fe01db0  !      00000052
                CONST                 DATA           6fe4d004  !      00000000
                CONST2                DATA           6fe4d068  !      00000000
                _DATA                 DATA           6fe4d070  !      00000000
/mnt/sda5/.user/root/src/openwatcom-1.9/bld/clib/char/c/uiscntrl.c
                _TEXT                 CODE           6fe01e02  !      0000003c
                CONST                 DATA           6fe4d004  !      00000000
                CONST2                DATA           6fe4d068  !      00000000
                _DATA                 DATA           6fe4d070  !      00000000
/mnt/sda5/.user/root/src/openwatcom-1.9/bld/clib/char/c/uiscsym.c
                _TEXT                 CODE           6fe01e3e  !      00000057
                CONST                 DATA           6fe4d004  !      00000000
                CONST2                DATA           6fe4d068  !      00000000
                _DATA                 DATA           6fe4d070  !      00000000
/mnt/sda5/.user/root/src/openwatcom-1.9/bld/clib/char/c/uiscsymf.c
                _TEXT                 CODE           6fe01e95  !      00000057
                CONST                 DATA           6fe4d004  !      00000000
                CONST2                DATA           6fe4d068  !      00000000
                _DATA                 DATA           6fe4d070  !      00000000
/mnt/sda5/.user/root/src/openwatcom-1.9/bld/clib/char/c/uisdigit.c
                _TEXT                 CODE           6fe01eec  !      0000003c
                CONST                 DATA           6fe4d004  !      00000000
                CONST2                DATA           6fe4d068  !      00000000
                _DATA                 DATA           6fe4d070  !      00000000
/mnt/sda5/.user/root/src/openwatcom-1.9/bld/clib/char/c/uisgraph.c
                _TEXT                 CODE           6fe01f28  !      00000054
                CONST                 DATA           6fe4d004  !      00000000
                CONST2                DATA           6fe4d068  !      00000000
                _DATA                 DATA           6fe4d070  !      00000000
/mnt/sda5/.user/root/src/openwatcom-1.9/bld/clib/char/c/uislower.c
                _TEXT                 CODE           6fe01f7c  !      0000003e
                CONST                 DATA           6fe4d004  !      00000000
                CONST2                DATA           6fe4d068  !      00000000
                _DATA                 DATA           6fe4d070  !      00000000
/mnt/sda5/.user/root/src/openwatcom-1.9/bld/clib/char/c/uisprint.c
                _TEXT                 CODE           6fe01fba  !      0000003c
                CONST                 DATA           6fe4d004  !      00000000
                CONST2                DATA           6fe4d068  !      00000000
                _DATA                 DATA           6fe4d070  !      00000000
/mnt/sda5/.user/root/src/openwatcom-1.9/bld/clib/char/c/uispunct.c
                _TEXT                 CODE           6fe01ff6  !      0000003c
                CONST                 DATA           6fe4d004  !      00000000
                CONST2                DATA           6fe4d068  !      00000000
                _DATA                 DATA           6fe4d070  !      00000000
/mnt/sda5/.user/root/src/openwatcom-1.9/bld/clib/char/c/uisspace.c
                _TEXT                 CODE           6fe02032  !      0000003c
                CONST                 DATA           6fe4d004  !      00000000
                CONST2                DATA           6fe4d068  !      00000000
                _DATA                 DATA           6fe4d070  !      00000000
/mnt/sda5/.user/root/src/openwatcom-1.9/bld/clib/char/c/uisupper.c
                _TEXT                 CODE           6fe0206e  !      0000003c
                CONST                 DATA           6fe4d004  !      00000000
                CONST2                DATA           6fe4d068  !      00000000
                _DATA                 DATA           6fe4d070  !      00000000
/mnt/sda5/.user/root/src/openwatcom-1.9/bld/clib/char/c/uisxdig.c
                _TEXT                 CODE           6fe020aa  !      0000003c
                CONST                 DATA           6fe4d004  !      00000000
                CONST2                DATA           6fe4d068  !      00000000
                _DATA                 DATA           6fe4d070  !      00000000
/mnt/sda5/.user/root/src/openwatcom-1.9/bld/clib/char/c/utolower.c
                _TEXT                 CODE           6fe020e6  !      00000030
                CONST                 DATA           6fe4d004  !      00000000
                CONST2                DATA           6fe4d068  !      00000000
                _DATA                 DATA           6fe4d070  !      00000000
/mnt/sda5/.user/root/src/openwatcom-1.9/bld/clib/char/c/utoupper.c
                _TEXT                 CODE           6fe02116  !      00000030
                CONST                 DATA           6fe4d004  !      00000000
                CONST2                DATA           6fe4d068  !      00000000
                _DATA                 DATA           6fe4d070  !      00000000
/mnt/sda5/.user/root/src/openwatcom-1.9/bld/clib/char/c/wctype.c
                _TEXT                 CODE           6fe02150  !      000001c4
                CONST                 DATA           6fe4d004  !      00000000
                CONST2                DATA           6fe4d068  !      00000000
                _DATA                 DATA           6fe4d070  !      00000000
/mnt/sda5/.user/root/src/openwatcom-1.9/bld/clib/conio/c/cgetswnt.c
                _TEXT                 CODE           6fe02320  !      000000fd
                CONST                 DATA           6fe4d004  !      00000000
                CONST2                DATA           6fe4d068  !      00000000
                _DATA                 DATA           6fe4d070  !      00000000
/mnt/sda5/.user/root/src/openwatcom-1.9/bld/clib/conio/c/cprintf.c
                _TEXT                 CODE           6fe02420  !      000000aa
                CONST                 DATA           6fe4d004  !      00000000
                CONST2                DATA           6fe4d068  !      00000000
                _DATA                 DATA           6fe4d070  !      00000000
/mnt/sda5/.user/root/src/openwatcom-1.9/bld/clib/conio/c/cputs.c
                _TEXT                 CODE           6fe024d0  !      00000041
                CONST                 DATA           6fe4d004  !      00000000
                CONST2                DATA           6fe4d068  !      00000000
                _DATA                 DATA           6fe4d070  !      00000000
/mnt/sda5/.user/root/src/openwatcom-1.9/bld/clib/conio/c/cscanf.c
                _TEXT                 CODE           6fe02520  !      000000de
                CONST                 DATA           6fe4d004  !      00000000
                CONST2                DATA           6fe4d068  !      00000000
                _DATA                 DATA           6fe4d070  !      00000000
/mnt/sda5/.user/root/src/openwatcom-1.9/bld/clib/conio/c/getchwnt.c
                _TEXT                 CODE           6fe02600  !      000001cb
                CONST                 DATA           6fe4d004  !      00000000
                CONST2                DATA           6fe4d068  !      00000000
                _DATA                 DATA           6fe4d070  !      00000004
                _BSS                  BSS            6fe4f000  !      0000000c
/mnt/sda5/.user/root/src/openwatcom-1.9/bld/clib/conio/c/gtchewnt.c
                _TEXT                 CODE           6fe027d0  !      00000046
                CONST                 DATA           6fe4d004  !      00000000
                CONST2                DATA           6fe4d068  !      00000000
                _DATA                 DATA           6fe4d074  !      00000000
/mnt/sda5/.user/root/src/openwatcom-1.9/bld/clib/conio/c/kbhitwnt.c
                _TEXT                 CODE           6fe02820  !      0000008e
                CONST                 DATA           6fe4d004  !      00000000
                CONST2                DATA           6fe4d068  !      00000000
                _DATA                 DATA           6fe4d074  !      00000000
/mnt/sda5/.user/root/src/openwatcom-1.9/bld/clib/conio/c/putchwnt.c
                _TEXT                 CODE           6fe028b0  !      00000063
                CONST                 DATA           6fe4d004  !      00000000
                CONST2                DATA           6fe4d068  !      00000000
                _DATA                 DATA           6fe4d074  !      00000000
/mnt/sda5/.user/root/src/openwatcom-1.9/bld/clib/conio/c/ungetch.c
                _TEXT                 CODE           6fe02920  !      0000003d
                CONST                 DATA           6fe4d004  !      00000000
                CONST2                DATA           6fe4d068  !      00000000
                _DATA                 DATA           6fe4d074  !      00000000
/mnt/sda5/.user/root/src/openwatcom-1.9/bld/clib/convert/c/atoi.c
                _TEXT                 CODE           6fe02960  !      00000090
                CONST                 DATA           6fe4d004  !      00000000
                CONST2                DATA           6fe4d068  !      00000000
                _DATA                 DATA           6fe4d074  !      00000000
/mnt/sda5/.user/root/src/openwatcom-1.9/bld/clib/convert/c/atol.c
                _TEXT                 CODE           6fe029f0  !      00000090
                CONST                 DATA           6fe4d004  !      00000000
                CONST2                DATA           6fe4d068  !      00000000
                _DATA                 DATA           6fe4d074  !      00000000
/mnt/sda5/.user/root/src/openwatcom-1.9/bld/clib/convert/c/atoll.c
                _TEXT                 CODE           6fe02a80  !      000000c4
                CONST                 DATA           6fe4d004  !      00000000
                CONST2                DATA           6fe4d068  !      00000000
                _DATA                 DATA           6fe4d074  !      00000000
/mnt/sda5/.user/root/src/openwatcom-1.9/bld/clib/convert/c/atouni.c
                _TEXT                 CODE           6fe02b50  !      00000054
                CONST                 DATA           6fe4d004  !      00000000
                CONST2                DATA           6fe4d068  !      00000000
                _DATA                 DATA           6fe4d074  !      00000000
/mnt/sda5/.user/root/src/openwatcom-1.9/bld/clib/convert/c/itoa.c
                _TEXT                 CODE           6fe02bb0  !      000000d1
                CONST                 DATA           6fe4d004  !      00000000
                CONST2                DATA           6fe4d068  !      00000000
                _DATA                 DATA           6fe4d074  !      00000000
/mnt/sda5/.user/root/src/openwatcom-1.9/bld/clib/convert/c/lltoa.c
                _TEXT                 CODE           6fe02c90  !      0000010a
                CONST                 DATA           6fe4d004  !      00000000
                CONST2                DATA           6fe4d068  !      00000000
                _DATA                 DATA           6fe4d074  !      00000000
/mnt/sda5/.user/root/src/openwatcom-1.9/bld/clib/convert/c/ltoa.c
                _TEXT                 CODE           6fe02da0  !      000000d1
                CONST                 DATA           6fe4d004  !      00000000
                CONST2                DATA           6fe4d068  !      00000000
                _DATA                 DATA           6fe4d074  !      00000000
/mnt/sda5/.user/root/src/openwatcom-1.9/bld/clib/convert/c/strtol.c
                _TEXT                 CODE           6fe02e80  !      00000305
                CONST                 DATA           6fe4d004  !      00000000
                CONST2                DATA           6fe4d068  !      00000000
                _DATA                 DATA           6fe4d074  !      0000008c
/mnt/sda5/.user/root/src/openwatcom-1.9/bld/clib/convert/c/strtoll.c
                _TEXT                 CODE           6fe03190  !      0000041f
                CONST                 DATA           6fe4d004  !      00000000
                CONST2                DATA           6fe4d068  !      00000000
                _DATA                 DATA           6fe4d100  !      00000118
/mnt/sda5/.user/root/src/openwatcom-1.9/bld/clib/convert/c/uatoi.c
                _TEXT                 CODE           6fe035b0  !      0000009a
                CONST                 DATA           6fe4d004  !      00000000
                CONST2                DATA           6fe4d068  !      00000000
                _DATA                 DATA           6fe4d218  !      00000000
/mnt/sda5/.user/root/src/openwatcom-1.9/bld/clib/convert/c/uatol.c
                _TEXT                 CODE           6fe03650  !      0000009a
                CONST                 DATA           6fe4d004  !      00000000
                CONST2                DATA           6fe4d068  !      00000000
                _DATA                 DATA           6fe4d218  !      00000000
/mnt/sda5/.user/root/src/openwatcom-1.9/bld/clib/convert/c/uatoll.c
                _TEXT                 CODE           6fe036f0  !      000000ce
                CONST                 DATA           6fe4d004  !      00000000
                CONST2                DATA           6fe4d068  !      00000000
                _DATA                 DATA           6fe4d218  !      00000000
/mnt/sda5/.user/root/src/openwatcom-1.9/bld/clib/convert/c/uitoa.c
                _TEXT                 CODE           6fe037c0  !      000000e4
                CONST                 DATA           6fe4d004  !      00000000
                CONST2                DATA           6fe4d068  !      00000000
                _DATA                 DATA           6fe4d218  !      00000000
/mnt/sda5/.user/root/src/openwatcom-1.9/bld/clib/convert/c/ulltoa.c
                _TEXT                 CODE           6fe038b0  !      0000011d
                CONST                 DATA           6fe4d004  !      00000000
                CONST2                DATA           6fe4d068  !      00000000
                _DATA                 DATA           6fe4d218  !      00000000
/mnt/sda5/.user/root/src/openwatcom-1.9/bld/clib/convert/c/ultoa.c
                _TEXT                 CODE           6fe039d0  !      000000d4
                CONST                 DATA           6fe4d004  !      00000000
                CONST2                DATA           6fe4d068  !      00000000
                _DATA                 DATA           6fe4d218  !      00000000
/mnt/sda5/.user/root/src/openwatcom-1.9/bld/clib/convert/c/ustrtol.c
                _TEXT                 CODE           6fe03ab0  !      00000325
                CONST                 DATA           6fe4d004  !      00000000
                CONST2                DATA           6fe4d068  !      00000000
                _DATA                 DATA           6fe4d218  !      0000008c
/mnt/sda5/.user/root/src/openwatcom-1.9/bld/clib/convert/c/ustrtoll.c
                _TEXT                 CODE           6fe03de0  !      0000043f
                CONST                 DATA           6fe4d004  !      00000000
                CONST2                DATA           6fe4d068  !      00000000
                _DATA                 DATA           6fe4d2b0  !      00000118
/mnt/sda5/.user/root/src/openwatcom-1.9/bld/clib/convert/a/fdmd386.asm
                _TEXT                 CODE           6fe04220  !      00000059
                _DATA                 DATA           6fe4d3c8  !      00000000
/mnt/sda5/.user/root/src/openwatcom-1.9/bld/clib/convert/a/fsms386.asm
                _TEXT                 CODE           6fe0427c  !      00000050
                _DATA                 DATA           6fe4d3c8  !      00000000
/mnt/sda5/.user/root/src/openwatcom-1.9/bld/clib/convert/a/mdfd386.asm
                _TEXT                 CODE           6fe042cc  !      00000054
                _DATA                 DATA           6fe4d3c8  !      00000000
/mnt/sda5/.user/root/src/openwatcom-1.9/bld/clib/convert/a/msfs386.asm
                _TEXT                 CODE           6fe04320  !      00000048
                _DATA                 DATA           6fe4d3c8  !      00000000
/mnt/sda5/.user/root/src/openwatcom-1.9/bld/clib/defwin/c/nodefwin.c
                _TEXT                 CODE           6fe04370  !      00000111
                CONST                 DATA           6fe4d004  !      00000000
                CONST2                DATA           6fe4d068  !      00000000
                _DATA                 DATA           6fe4d3c8  !      00000044
                _BSS                  BSS            6fe4f00c  !      00000001
/mnt/sda5/.user/root/src/openwatcom-1.9/bld/clib/direct/c/chdirwnt.c
                _TEXT                 CODE           6fe04490  !      00000041
                CONST                 DATA           6fe4d004  !      00000000
                CONST2                DATA           6fe4d068  !      00000000
                _DATA                 DATA           6fe4d40c  !      00000000
/mnt/sda5/.user/root/src/openwatcom-1.9/bld/clib/direct/c/chdrive.c
                _TEXT                 CODE           6fe044e0  !      0000004e
                CONST                 DATA           6fe4d004  !      00000000
                CONST2                DATA           6fe4d068  !      00000000
                _DATA                 DATA           6fe4d40c  !      00000000
/mnt/sda5/.user/root/src/openwatcom-1.9/bld/clib/direct/c/dirwnt.c
                _TEXT                 CODE           6fe04530  !      00000552
                CONST                 DATA           6fe4d004  !      00000000
                CONST2                DATA           6fe4d068  !      00000000
                _DATA                 DATA           6fe4d40c  !      00000000
/mnt/sda5/.user/root/src/openwatcom-1.9/bld/clib/direct/c/diskfree.c
                _TEXT                 CODE           6fe04a90  !      0000002c
                CONST                 DATA           6fe4d004  !      00000000
                CONST2                DATA           6fe4d068  !      00000000
                _DATA                 DATA           6fe4d40c  !      00000000
/mnt/sda5/.user/root/src/openwatcom-1.9/bld/clib/direct/c/getdrive.c
                _TEXT                 CODE           6fe04ac0  !      00000028
                CONST                 DATA           6fe4d004  !      00000000
                CONST2                DATA           6fe4d068  !      00000000
                _DATA                 DATA           6fe4d40c  !      00000000
/mnt/sda5/.user/root/src/openwatcom-1.9/bld/clib/direct/c/gtcwdwnt.c
                _TEXT                 CODE           6fe04af0  !      000000c8
                CONST                 DATA           6fe4d004  !      00000000
                CONST2                DATA           6fe4d068  !      00000000
                _DATA                 DATA           6fe4d40c  !      00000000
/mnt/sda5/.user/root/src/openwatcom-1.9/bld/clib/direct/c/getdcwd.c
                _TEXT                 CODE           6fe04bc0  !      00000080
                CONST                 DATA           6fe4d004  !      00000000
                CONST2                DATA           6fe4d068  !      00000000
                _DATA                 DATA           6fe4d40c  !      00000000
/mnt/sda5/.user/root/src/openwatcom-1.9/bld/clib/direct/c/mkdirwnt.c
                _TEXT                 CODE           6fe04c40  !      00000043
                CONST                 DATA           6fe4d004  !      00000000
                CONST2                DATA           6fe4d068  !      00000000
                _DATA                 DATA           6fe4d40c  !      00000000
/mnt/sda5/.user/root/src/openwatcom-1.9/bld/clib/direct/c/rmdirwnt.c
                _TEXT                 CODE           6fe04c90  !      00000041
                CONST                 DATA           6fe4d004  !      00000000
                CONST2                DATA           6fe4d068  !      00000000
                _DATA                 DATA           6fe4d40c  !      00000000
/mnt/sda5/.user/root/src/openwatcom-1.9/bld/clib/direct/c/uchdrwnt.c
                _TEXT                 CODE           6fe04ce0  !      0000003f
                CONST                 DATA           6fe4d004  !      00000000
                CONST2                DATA           6fe4d068  !      00000000
                _DATA                 DATA           6fe4d40c  !      00000000
/mnt/sda5/.user/root/src/openwatcom-1.9/bld/clib/direct/c/udirwnt.c
                _TEXT                 CODE           6fe04d20  !      00000552
                CONST                 DATA           6fe4d004  !      00000000
                CONST2                DATA           6fe4d068  !      00000000
                _DATA                 DATA           6fe4d40c  !      00000000
/mnt/sda5/.user/root/src/openwatcom-1.9/bld/clib/direct/c/ugetdcwd.c
                _TEXT                 CODE           6fe05280  !      00000080
                CONST                 DATA           6fe4d004  !      00000000
                CONST2                DATA           6fe4d068  !      00000000
                _DATA                 DATA           6fe4d40c  !      00000000
/mnt/sda5/.user/root/src/openwatcom-1.9/bld/clib/direct/c/ugtcdwnt.c
                _TEXT                 CODE           6fe05300  !      000000cc
                CONST                 DATA           6fe4d004  !      00000000
                CONST2                DATA           6fe4d068  !      00000000
                _DATA                 DATA           6fe4d40c  !      00000000
/mnt/sda5/.user/root/src/openwatcom-1.9/bld/clib/direct/c/umkdrwnt.c
                _TEXT                 CODE           6fe053d0  !      00000041
                CONST                 DATA           6fe4d004  !      00000000
                CONST2                DATA           6fe4d068  !      00000000
                _DATA                 DATA           6fe4d40c  !      00000000
/mnt/sda5/.user/root/src/openwatcom-1.9/bld/clib/direct/c/urmdrwnt.c
                _TEXT                 CODE           6fe05420  !      0000003f
                CONST                 DATA           6fe4d004  !      00000000
                CONST2                DATA           6fe4d068  !      00000000
                _DATA                 DATA           6fe4d40c  !      00000000
/mnt/sda5/.user/root/src/openwatcom-1.9/bld/clib/environ/c/clearenv.c
                _TEXT                 CODE           6fe05460  !      000000d5
                CONST                 DATA           6fe4d004  !      00000000
                CONST2                DATA           6fe4d068  !      00000000
                _DATA                 DATA           6fe4d40c  !      00000000
/mnt/sda5/.user/root/src/openwatcom-1.9/bld/clib/environ/c/environ.c
                _TEXT                 CODE           6fe05540  !      00000000
                CONST                 DATA           6fe4d004  !      00000000
                CONST2                DATA           6fe4d068  !      00000000
                _DATA                 DATA           6fe4d40c  !      00000000
                _BSS                  BSS            6fe4f010  !      0000000c
                XIB                   DATA           6fe4dcd8  !      00000000
                XI                    DATA           6fe4dcd8  !      00000006
                XIE                   DATA           6fe4dd32  !      00000000
                YIB                   DATA           6fe4dd32  !      00000000
                YI                    DATA           6fe4dd32  !      00000006
                YIE                   DATA           6fe4dd68  !      00000000
/mnt/sda5/.user/root/src/openwatcom-1.9/bld/clib/environ/c/envptr.c
                _TEXT                 CODE           6fe05540  !      00000021
                CONST                 DATA           6fe4d004  !      00000000
                CONST2                DATA           6fe4d068  !      00000000
                _DATA                 DATA           6fe4d40c  !      00000000
/mnt/sda5/.user/root/src/openwatcom-1.9/bld/clib/environ/c/getenv.c
                _TEXT                 CODE           6fe05570  !      000000bc
                CONST                 DATA           6fe4d004  !      00000000
                CONST2                DATA           6fe4d068  !      00000000
                _DATA                 DATA           6fe4d40c  !      00000000
/mnt/sda5/.user/root/src/openwatcom-1.9/bld/clib/environ/c/getenv_s.c
                _TEXT                 CODE           6fe05630  !      00000169
                CONST                 DATA           6fe4d004  !      00000000
                CONST2                DATA           6fe4d068  !      00000000
                _DATA                 DATA           6fe4d40c  !      00000000
/mnt/sda5/.user/root/src/openwatcom-1.9/bld/clib/environ/c/gtcmd.c
                _TEXT                 CODE           6fe057a0  !      000001a0
                CONST                 DATA           6fe4d004  !      00000000
                CONST2                DATA           6fe4d068  !      00000000
                _DATA                 DATA           6fe4d40c  !      00000000
/mnt/sda5/.user/root/src/openwatcom-1.9/bld/clib/environ/c/gtpidwnt.c
                _TEXT                 CODE           6fe05940  !      00000023
                CONST                 DATA           6fe4d004  !      00000000
                CONST2                DATA           6fe4d068  !      00000000
                _DATA                 DATA           6fe4d40c  !      00000000
/mnt/sda5/.user/root/src/openwatcom-1.9/bld/clib/environ/c/isattwnt.c
                _TEXT                 CODE           6fe05970  !      00000041
                CONST                 DATA           6fe4d004  !      00000000
                CONST2                DATA           6fe4d068  !      00000000
                _DATA                 DATA           6fe4d40c  !      00000000
/mnt/sda5/.user/root/src/openwatcom-1.9/bld/clib/environ/c/putenv.c
                _TEXT                 CODE           6fe059c0  !      0000057c
                CONST                 DATA           6fe4d004  !      00000000
                CONST2                DATA           6fe4d068  !      00000000
                _DATA                 DATA           6fe4d40c  !      00000000
/mnt/sda5/.user/root/src/openwatcom-1.9/bld/clib/environ/c/searchen.c
                _TEXT                 CODE           6fe05f40  !      000001e5
                CONST                 DATA           6fe4d004  !      00000000
                CONST2                DATA           6fe4d068  !      00000000
                _DATA                 DATA           6fe4d40c  !      00000000
/mnt/sda5/.user/root/src/openwatcom-1.9/bld/clib/environ/c/setenv.c
                _TEXT                 CODE           6fe06130  !      000005cc
                CONST                 DATA           6fe4d004  !      00000000
                CONST2                DATA           6fe4d068  !      00000000
                _DATA                 DATA           6fe4d40c  !      00000000
/mnt/sda5/.user/root/src/openwatcom-1.9/bld/clib/environ/c/ugetenv.c
                _TEXT                 CODE           6fe06700  !      00000099
                CONST                 DATA           6fe4d004  !      00000000
                CONST2                DATA           6fe4d068  !      00000000
                _DATA                 DATA           6fe4d40c  !      00000000
/mnt/sda5/.user/root/src/openwatcom-1.9/bld/clib/environ/c/uputenv.c
                _TEXT                 CODE           6fe067a0  !      0000048e
                CONST                 DATA           6fe4d004  !      00000000
                CONST2                DATA           6fe4d068  !      00000000
                _DATA                 DATA           6fe4d40c  !      00000000
/mnt/sda5/.user/root/src/openwatcom-1.9/bld/clib/environ/c/usrchen.c
                _TEXT                 CODE           6fe06c30  !      00000216
                CONST                 DATA           6fe4d004  !      00000000
                CONST2                DATA           6fe4d068  !      00000000
                _DATA                 DATA           6fe4d40c  !      00000000
/mnt/sda5/.user/root/src/openwatcom-1.9/bld/clib/environ/c/usetenv.c
                _TEXT                 CODE           6fe06e50  !      000004c6
                CONST                 DATA           6fe4d004  !      00000000
                CONST2                DATA           6fe4d068  !      00000000
                _DATA                 DATA           6fe4d40c  !      00000000
/mnt/sda5/.user/root/src/openwatcom-1.9/bld/clib/environ/c/wenvptr.c
                _TEXT                 CODE           6fe07320  !      00000021
                CONST                 DATA           6fe4d004  !      00000000
                CONST2                DATA           6fe4d068  !      00000000
                _DATA                 DATA           6fe4d40c  !      00000000
/mnt/sda5/.user/root/src/openwatcom-1.9/bld/clib/file/c/64findfi.c
                _TEXT                 CODE           6fe07350  !      000001a1
                CONST                 DATA           6fe4d004  !      00000000
                CONST2                DATA           6fe4d068  !      00000000
                _DATA                 DATA           6fe4d40c  !      00000000
/mnt/sda5/.user/root/src/openwatcom-1.9/bld/clib/file/c/64findne.c
                _TEXT                 CODE           6fe07500  !      0000007d
                CONST                 DATA           6fe4d004  !      00000000
                CONST2                DATA           6fe4d068  !      00000000
                _DATA                 DATA           6fe4d40c  !      00000000
/mnt/sda5/.user/root/src/openwatcom-1.9/bld/clib/file/c/64stawnt.c
                _TEXT                 CODE           6fe07580  !      000004df
                CONST                 DATA           6fe4d004  !      00000000
                CONST2                DATA           6fe4d068  !      00000000
                _DATA                 DATA           6fe4d40c  !      00000000
/mnt/sda5/.user/root/src/openwatcom-1.9/bld/clib/file/c/accsswnt.c
                _TEXT                 CODE           6fe07a60  !      00000063
                CONST                 DATA           6fe4d004  !      00000000
                CONST2                DATA           6fe4d068  !      00000000
                _DATA                 DATA           6fe4d40c  !      00000000
/mnt/sda5/.user/root/src/openwatcom-1.9/bld/clib/file/c/chmodwnt.c
                _TEXT                 CODE           6fe07ad0  !      00000072
                CONST                 DATA           6fe4d004  !      00000000
                CONST2                DATA           6fe4d068  !      00000000
                _DATA                 DATA           6fe4d40c  !      00000000
/mnt/sda5/.user/root/src/openwatcom-1.9/bld/clib/file/c/findclos.c
                _TEXT                 CODE           6fe07b50  !      0000003c
                CONST                 DATA           6fe4d004  !      00000000
                CONST2                DATA           6fe4d068  !      00000000
                _DATA                 DATA           6fe4d40c  !      00000000
/mnt/sda5/.user/root/src/openwatcom-1.9/bld/clib/file/c/findfirs.c
                _TEXT                 CODE           6fe07b90  !      00000195
                CONST                 DATA           6fe4d004  !      00000000
                CONST2                DATA           6fe4d068  !      00000000
                _DATA                 DATA           6fe4d40c  !      00000000
/mnt/sda5/.user/root/src/openwatcom-1.9/bld/clib/file/c/findnext.c
                _TEXT                 CODE           6fe07d30  !      0000007d
                CONST                 DATA           6fe4d004  !      00000000
                CONST2                DATA           6fe4d068  !      00000000
                _DATA                 DATA           6fe4d40c  !      00000000
/mnt/sda5/.user/root/src/openwatcom-1.9/bld/clib/file/c/mkstemp.c
                _TEXT                 CODE           6fe07db0  !      0000015a
                CONST                 DATA           6fe4d004  !      00000000
                CONST2                DATA           6fe4d068  !      00000000
                _DATA                 DATA           6fe4d40c  !      00000000
/mnt/sda5/.user/root/src/openwatcom-1.9/bld/clib/file/c/mktemp.c
                _TEXT                 CODE           6fe07f10  !      00000132
                CONST                 DATA           6fe4d004  !      00000000
                CONST2                DATA           6fe4d068  !      00000000
                _DATA                 DATA           6fe4d40c  !      00000000
/mnt/sda5/.user/root/src/openwatcom-1.9/bld/clib/file/c/remove.c
                _TEXT                 CODE           6fe08050  !      00000028
                CONST                 DATA           6fe4d004  !      00000000
                CONST2                DATA           6fe4d068  !      00000000
                _DATA                 DATA           6fe4d40c  !      00000000
/mnt/sda5/.user/root/src/openwatcom-1.9/bld/clib/file/c/renamwnt.c
                _TEXT                 CODE           6fe08080  !      00000041
                CONST                 DATA           6fe4d004  !      00000000
                CONST2                DATA           6fe4d068  !      00000000
                _DATA                 DATA           6fe4d40c  !      00000000
/mnt/sda5/.user/root/src/openwatcom-1.9/bld/clib/file/c/statwnt.c
                _TEXT                 CODE           6fe080c1  !      00000475
                CONST                 DATA           6fe4d004  !      00000000
                CONST2                DATA           6fe4d068  !      00000000
                _DATA                 DATA           6fe4d40c  !      00000000
/mnt/sda5/.user/root/src/openwatcom-1.9/bld/clib/file/c/tempnam.c
                _TEXT                 CODE           6fe08540  !      00000225
                CONST                 DATA           6fe4d004  !      00000000
                CONST2                DATA           6fe4d068  !      00000000
                _DATA                 DATA           6fe4d40c  !      00000000
/mnt/sda5/.user/root/src/openwatcom-1.9/bld/clib/file/c/tmpnm.c
                _TEXT                 CODE           6fe08770  !      000001de
                CONST                 DATA           6fe4d004  !      00000000
                CONST2                DATA           6fe4d068  !      00000000
                _DATA                 DATA           6fe4d40c  !      00000000
                _BSS                  BSS            6fe4f01c  !      0000000d
/mnt/sda5/.user/root/src/openwatcom-1.9/bld/clib/file/c/tmpnm_s.c
                _TEXT                 CODE           6fe08950  !      00000170
                CONST                 DATA           6fe4d004  !      00000000
                CONST2                DATA           6fe4d068  !      00000000
                _DATA                 DATA           6fe4d40c  !      00000000
/mnt/sda5/.user/root/src/openwatcom-1.9/bld/clib/file/c/u64findf.c
                _TEXT                 CODE           6fe08ac0  !      000001a1
                CONST                 DATA           6fe4d004  !      00000000
                CONST2                DATA           6fe4d068  !      00000000
                _DATA                 DATA           6fe4d40c  !      00000000
/mnt/sda5/.user/root/src/openwatcom-1.9/bld/clib/file/c/u64findn.c
                _TEXT                 CODE           6fe08c70  !      0000007a
                CONST                 DATA           6fe4d004  !      00000000
                CONST2                DATA           6fe4d068  !      00000000
                _DATA                 DATA           6fe4d40c  !      00000000
/mnt/sda5/.user/root/src/openwatcom-1.9/bld/clib/file/c/u64stwnt.c
                _TEXT                 CODE           6fe08cf0  !      000004f8
                CONST                 DATA           6fe4d004  !      00000000
                CONST2                DATA           6fe4d068  !      00000000
                _DATA                 DATA           6fe4d40c  !      00000000
/mnt/sda5/.user/root/src/openwatcom-1.9/bld/clib/file/c/uaccswnt.c
                _TEXT                 CODE           6fe091f0  !      00000063
                CONST                 DATA           6fe4d004  !      00000000
                CONST2                DATA           6fe4d068  !      00000000
                _DATA                 DATA           6fe4d40c  !      00000000
/mnt/sda5/.user/root/src/openwatcom-1.9/bld/clib/file/c/uchmdwnt.c
                _TEXT                 CODE           6fe09260  !      0000006f
                CONST                 DATA           6fe4d004  !      00000000
                CONST2                DATA           6fe4d068  !      00000000
                _DATA                 DATA           6fe4d40c  !      00000000
/mnt/sda5/.user/root/src/openwatcom-1.9/bld/clib/file/c/ufindfir.c
                _TEXT                 CODE           6fe092d0  !      00000195
                CONST                 DATA           6fe4d004  !      00000000
                CONST2                DATA           6fe4d068  !      00000000
                _DATA                 DATA           6fe4d40c  !      00000000
/mnt/sda5/.user/root/src/openwatcom-1.9/bld/clib/file/c/ufindnex.c
                _TEXT                 CODE           6fe09470  !      0000007a
                CONST                 DATA           6fe4d004  !      00000000
                CONST2                DATA           6fe4d068  !      00000000
                _DATA                 DATA           6fe4d40c  !      00000000
/mnt/sda5/.user/root/src/openwatcom-1.9/bld/clib/file/c/umktemp.c
                _TEXT                 CODE           6fe094f0  !      0000013a
                CONST                 DATA           6fe4d004  !      00000000
                CONST2                DATA           6fe4d068  !      00000000
                _DATA                 DATA           6fe4d40c  !      00000000
/mnt/sda5/.user/root/src/openwatcom-1.9/bld/clib/file/c/uremove.c
                _TEXT                 CODE           6fe0962a  !      00000021
                CONST                 DATA           6fe4d004  !      00000000
                CONST2                DATA           6fe4d068  !      00000000
                _DATA                 DATA           6fe4d40c  !      00000000
/mnt/sda5/.user/root/src/openwatcom-1.9/bld/clib/file/c/urenmwnt.c
                _TEXT                 CODE           6fe09650  !      0000003e
                CONST                 DATA           6fe4d004  !      00000000
                CONST2                DATA           6fe4d068  !      00000000
                _DATA                 DATA           6fe4d40c  !      00000000
/mnt/sda5/.user/root/src/openwatcom-1.9/bld/clib/file/c/ustatwnt.c
                _TEXT                 CODE           6fe09690  !      000004ba
                CONST                 DATA           6fe4d004  !      00000000
                CONST2                DATA           6fe4d068  !      00000000
                _DATA                 DATA           6fe4d40c  !      00000000
/mnt/sda5/.user/root/src/openwatcom-1.9/bld/clib/file/c/utimewnt.c
                _TEXT                 CODE           6fe09b50  !      000001a3
                CONST                 DATA           6fe4d004  !      00000000
                CONST2                DATA           6fe4d068  !      00000000
                _DATA                 DATA           6fe4d40c  !      00000000
/mnt/sda5/.user/root/src/openwatcom-1.9/bld/clib/file/c/utempnam.c
                _TEXT                 CODE           6fe09d00  !      00000215
                CONST                 DATA           6fe4d004  !      00000000
                CONST2                DATA           6fe4d068  !      00000000
                _DATA                 DATA           6fe4d40c  !      00000000
/mnt/sda5/.user/root/src/openwatcom-1.9/bld/clib/file/c/utmpnm.c
                _TEXT                 CODE           6fe09f15  !      000001e7
                CONST                 DATA           6fe4d004  !      00000000
                CONST2                DATA           6fe4d068  !      00000000
                _DATA                 DATA           6fe4d40c  !      00000000
                _BSS                  BSS            6fe4f02c  !      0000001a
/mnt/sda5/.user/root/src/openwatcom-1.9/bld/clib/file/c/utmpnm_s.c
                _TEXT                 CODE           6fe0a100  !      00000172
                CONST                 DATA           6fe4d004  !      00000000
                CONST2                DATA           6fe4d068  !      00000000
                _DATA                 DATA           6fe4d40c  !      00000000
/mnt/sda5/.user/root/src/openwatcom-1.9/bld/clib/file/c/uutimwnt.c
                _TEXT                 CODE           6fe0a280  !      000001a1
                CONST                 DATA           6fe4d004  !      00000000
                CONST2                DATA           6fe4d068  !      00000000
                _DATA                 DATA           6fe4d40c  !      00000000
/mnt/sda5/.user/root/src/openwatcom-1.9/bld/clib/fpu/a/chipd32.asm
                _TEXT                 CODE           6fe0a424  !      00000720
                _DATA                 DATA           6fe4d40c  !      00000000
                DATA32                DATA           6fe4dd68  !      0000011c
                CONST32               CONST          6fe4f000  !      00000000
                BSS32                 BSS            6fe509f0  !      00000000
/mnt/sda5/.user/root/src/openwatcom-1.9/bld/clib/fpu/a/chipa32.asm
                _TEXT                 CODE           6fe0ab50  !      00000201
                _DATA                 DATA           6fe4d40c  !      00000000
                CONST                 DATA           6fe4d004  !      00000000
                CONST2                DATA           6fe4d068  !      00000000
                DATA32                DATA           6fe4de84  !      00000198
                BSS32                 BSS            6fe509f0  !      00000000
/mnt/sda5/.user/root/src/openwatcom-1.9/bld/clib/fpu/a/chipw32.asm
                _TEXT                 CODE           6fe0ad54  !      00000035
                _DATA                 DATA           6fe4d40c  !      00000000
                DATA32                DATA           6fe4e01c  !      00000000
/mnt/sda5/.user/root/src/openwatcom-1.9/bld/clib/fpu/a/chipt32.asm
                _TEXT                 CODE           6fe0ad8c  !      000000b2
                _DATA                 DATA           6fe4d40c  !      00000000
                DATA32                DATA           6fe4e01c  !      00000018
/mnt/sda5/.user/root/src/openwatcom-1.9/bld/clib/fpu/a/chipr32.asm
                _TEXT                 CODE           6fe0ae40  !      00000000
                _DATA                 DATA           6fe4d40c  !      00000000
                DATA32                DATA           6fe4e034  !      00000042
                CONST32               CONST          6fe4f000  !      00000000
                BSS32                 BSS            6fe509f0  !      00000000
                CODE32                CODE           6fe4b674  !      00000575
/mnt/sda5/.user/root/src/openwatcom-1.9/bld/clib/fpu/c/cntrl87.c
                _TEXT                 CODE           6fe0ae40  !      0000005f
                CONST                 DATA           6fe4d004  !      00000000
                CONST2                DATA           6fe4d068  !      00000000
                _DATA                 DATA           6fe4d40c  !      00000000
/mnt/sda5/.user/root/src/openwatcom-1.9/bld/clib/fpu/c/cntrlfp.c
                _TEXT                 CODE           6fe0aea0  !      0000002c
                CONST                 DATA           6fe4d004  !      00000000
                CONST2                DATA           6fe4d068  !      00000000
                _DATA                 DATA           6fe4d40c  !      00000000
/mnt/sda5/.user/root/src/openwatcom-1.9/bld/clib/fpu/c/fenv.c
                _TEXT                 CODE           6fe0aed0  !      00000360
                CONST                 DATA           6fe4d004  !      00000000
                CONST2                DATA           6fe4d068  !      00000000
                _DATA                 DATA           6fe4d40c  !      00000000
/mnt/sda5/.user/root/src/openwatcom-1.9/bld/clib/handleio/c/64lseek.c
                _TEXT                 CODE           6fe0b230  !      000000a3
                CONST                 DATA           6fe4d004  !      00000000
                CONST2                DATA           6fe4d068  !      00000000
                _DATA                 DATA           6fe4d40c  !      00000000
/mnt/sda5/.user/root/src/openwatcom-1.9/bld/clib/handleio/c/64_lseek.c
                _TEXT                 CODE           6fe0b2e0  !      000000b2
                CONST                 DATA           6fe4d004  !      00000000
                CONST2                DATA           6fe4d068  !      00000000
                _DATA                 DATA           6fe4d40c  !      00000000
/mnt/sda5/.user/root/src/openwatcom-1.9/bld/clib/handleio/c/64fillen.c
                _TEXT                 CODE           6fe0b3a0  !      000000e1
                CONST                 DATA           6fe4d004  !      00000000
                CONST2                DATA           6fe4d068  !      00000000
                _DATA                 DATA           6fe4d40c  !      00000000
/mnt/sda5/.user/root/src/openwatcom-1.9/bld/clib/handleio/c/64fstwnt.c
                _TEXT                 CODE           6fe0b490  !      000003e6
                CONST                 DATA           6fe4d004  !      00000000
                CONST2                DATA           6fe4d068  !      00000000
                _DATA                 DATA           6fe4d40c  !      00000000
/mnt/sda5/.user/root/src/openwatcom-1.9/bld/clib/handleio/c/64tell.c
                _TEXT                 CODE           6fe0b880  !      0000003d
                CONST                 DATA           6fe4d004  !      00000000
                CONST2                DATA           6fe4d068  !      00000000
                _DATA                 DATA           6fe4d40c  !      00000000
/mnt/sda5/.user/root/src/openwatcom-1.9/bld/clib/handleio/c/chsizwnt.c
                _TEXT                 CODE           6fe0b8c0  !      000001fb
                CONST                 DATA           6fe4d004  !      00000000
                CONST2                DATA           6fe4d068  !      00000000
                _DATA                 DATA           6fe4d40c  !      00000000
/mnt/sda5/.user/root/src/openwatcom-1.9/bld/clib/handleio/c/close.c
                _TEXT                 CODE           6fe0bac0  !      00000052
                CONST                 DATA           6fe4d004  !      00000000
                CONST2                DATA           6fe4d068  !      00000000
                _DATA                 DATA           6fe4d40c  !      00000000
/mnt/sda5/.user/root/src/openwatcom-1.9/bld/clib/handleio/c/creat.c
                _TEXT                 CODE           6fe0bb20  !      00000033
                CONST                 DATA           6fe4d004  !      00000000
                CONST2                DATA           6fe4d068  !      00000000
                _DATA                 DATA           6fe4d40c  !      00000000
/mnt/sda5/.user/root/src/openwatcom-1.9/bld/clib/handleio/c/dofilstr.c
                _TEXT                 CODE           6fe0bb60  !      0000016d
                CONST                 DATA           6fe4d004  !      00000000
                CONST2                DATA           6fe4d068  !      00000000
                _DATA                 DATA           6fe4d40c  !      00000000
/mnt/sda5/.user/root/src/openwatcom-1.9/bld/clib/handleio/c/dup2wnt.c
                _TEXT                 CODE           6fe0bcd0  !      00000109
                CONST                 DATA           6fe4d004  !      00000000
                CONST2                DATA           6fe4d068  !      00000000
                _DATA                 DATA           6fe4d40c  !      00000000
/mnt/sda5/.user/root/src/openwatcom-1.9/bld/clib/handleio/c/dupwnt.c
                _TEXT                 CODE           6fe0bde0  !      000000c5
                CONST                 DATA           6fe4d004  !      00000000
                CONST2                DATA           6fe4d068  !      00000000
                _DATA                 DATA           6fe4d40c  !      00000000
/mnt/sda5/.user/root/src/openwatcom-1.9/bld/clib/handleio/c/eof.c
                _TEXT                 CODE           6fe0beb0  !      0000008d
                CONST                 DATA           6fe4d004  !      00000000
                CONST2                DATA           6fe4d068  !      00000000
                _DATA                 DATA           6fe4d40c  !      00000000
/mnt/sda5/.user/root/src/openwatcom-1.9/bld/clib/handleio/c/finfoptr.c
                _TEXT                 CODE           6fe0bf40  !      00000021
                CONST                 DATA           6fe4d004  !      00000000
                CONST2                DATA           6fe4d068  !      00000000
                _DATA                 DATA           6fe4d40c  !      00000000
/mnt/sda5/.user/root/src/openwatcom-1.9/bld/clib/handleio/c/fileinfo.c
                _TEXT                 CODE           6fe0bf70  !      00000000
                CONST                 DATA           6fe4d004  !      00000000
                CONST2                DATA           6fe4d068  !      00000000
                _DATA                 DATA           6fe4d40c  !      00000004
/mnt/sda5/.user/root/src/openwatcom-1.9/bld/clib/handleio/c/filelen.c
                _TEXT                 CODE           6fe0bf70  !      000000a2
                CONST                 DATA           6fe4d004  !      00000000
                CONST2                DATA           6fe4d068  !      00000000
                _DATA                 DATA           6fe4d410  !      00000000
/mnt/sda5/.user/root/src/openwatcom-1.9/bld/clib/handleio/c/fileno.c
                _TEXT                 CODE           6fe0c020  !      00000026
                CONST                 DATA           6fe4d004  !      00000000
                CONST2                DATA           6fe4d068  !      00000000
                _DATA                 DATA           6fe4d410  !      00000000
/mnt/sda5/.user/root/src/openwatcom-1.9/bld/clib/handleio/c/fstatwnt.c
                _TEXT                 CODE           6fe0c050  !      0000036b
                CONST                 DATA           6fe4d004  !      00000000
                CONST2                DATA           6fe4d068  !      00000000
                _DATA                 DATA           6fe4d410  !      00000000
/mnt/sda5/.user/root/src/openwatcom-1.9/bld/clib/handleio/c/fsync.c
                _TEXT                 CODE           6fe0c3c0  !      0000006d
                CONST                 DATA           6fe4d004  !      00000000
                CONST2                DATA           6fe4d068  !      00000000
                _DATA                 DATA           6fe4d410  !      00000000
/mnt/sda5/.user/root/src/openwatcom-1.9/bld/clib/handleio/c/hdlman.c
                _TEXT                 CODE           6fe0c430  !      000004d6
                CONST                 DATA           6fe4d004  !      00000000
                CONST2                DATA           6fe4d068  !      00000000
                _DATA                 DATA           6fe4d410  !      00000014
                YIB                   DATA           6fe4dd32  !      00000000
                YI                    DATA           6fe4dd38  !      00000006
                YIE                   DATA           6fe4dd68  !      00000000
/mnt/sda5/.user/root/src/openwatcom-1.9/bld/clib/handleio/c/hdopen.c
                _TEXT                 CODE           6fe0c910  !      0000013c
                CONST                 DATA           6fe4d004  !      00000000
                CONST2                DATA           6fe4d068  !      00000000
                _DATA                 DATA           6fe4d424  !      00000000
/mnt/sda5/.user/root/src/openwatcom-1.9/bld/clib/handleio/c/locking.c
                _TEXT                 CODE           6fe0ca50  !      000000dd
                CONST                 DATA           6fe4d004  !      00000000
                CONST2                DATA           6fe4d068  !      00000000
                _DATA                 DATA           6fe4d424  !      00000000
/mnt/sda5/.user/root/src/openwatcom-1.9/bld/clib/handleio/c/lockwnt.c
                _TEXT                 CODE           6fe0cb30  !      00000073
                CONST                 DATA           6fe4d004  !      00000000
                CONST2                DATA           6fe4d068  !      00000000
                _DATA                 DATA           6fe4d424  !      00000000
/mnt/sda5/.user/root/src/openwatcom-1.9/bld/clib/handleio/c/__lseek.c
                _TEXT                 CODE           6fe0cbb0  !      00000075
                CONST                 DATA           6fe4d004  !      00000000
                CONST2                DATA           6fe4d068  !      00000000
                _DATA                 DATA           6fe4d424  !      00000000
/mnt/sda5/.user/root/src/openwatcom-1.9/bld/clib/handleio/c/lseek.c
                _TEXT                 CODE           6fe0cc30  !      0000007e
                CONST                 DATA           6fe4d004  !      00000000
                CONST2                DATA           6fe4d068  !      00000000
                _DATA                 DATA           6fe4d424  !      00000000
/mnt/sda5/.user/root/src/openwatcom-1.9/bld/clib/handleio/c/mkfilstr.c
                _TEXT                 CODE           6fe0ccb0  !      00000154
                CONST                 DATA           6fe4d004  !      00000000
                CONST2                DATA           6fe4d068  !      00000000
                _DATA                 DATA           6fe4d424  !      00000000
/mnt/sda5/.user/root/src/openwatcom-1.9/bld/clib/handleio/c/openwnt.c
                _TEXT                 CODE           6fe0ce10  !      000002c4
                CONST                 DATA           6fe4d004  !      00000000
                CONST2                DATA           6fe4d068  !      00000000
                _DATA                 DATA           6fe4d424  !      00000000
/mnt/sda5/.user/root/src/openwatcom-1.9/bld/clib/handleio/c/oshdl.c
                _TEXT                 CODE           6fe0d0e0  !      00000088
                CONST                 DATA           6fe4d004  !      00000000
                CONST2                DATA           6fe4d068  !      00000000
                _DATA                 DATA           6fe4d424  !      00000000
/mnt/sda5/.user/root/src/openwatcom-1.9/bld/clib/handleio/c/pipe.c
                _TEXT                 CODE           6fe0d170  !      000000f8
                CONST                 DATA           6fe4d004  !      00000000
                CONST2                DATA           6fe4d068  !      00000000
                _DATA                 DATA           6fe4d424  !      00000000
/mnt/sda5/.user/root/src/openwatcom-1.9/bld/clib/handleio/c/plusfsta.c
                _TEXT                 CODE           6fe0d270  !      0000007f
                CONST                 DATA           6fe4d004  !      00000000
                CONST2                DATA           6fe4d068  !      00000000
                _DATA                 DATA           6fe4d424  !      00000000
/mnt/sda5/.user/root/src/openwatcom-1.9/bld/clib/handleio/c/plusopen.c
                _TEXT                 CODE           6fe0d2f0  !      00000168
                CONST                 DATA           6fe4d004  !      00000000
                CONST2                DATA           6fe4d068  !      00000000
                _DATA                 DATA           6fe4d424  !      00000000
/mnt/sda5/.user/root/src/openwatcom-1.9/bld/clib/handleio/c/read.c
                _TEXT                 CODE           6fe0d460  !      00000211
                CONST                 DATA           6fe4d004  !      00000000
                CONST2                DATA           6fe4d068  !      00000000
                _DATA                 DATA           6fe4d424  !      00000000
/mnt/sda5/.user/root/src/openwatcom-1.9/bld/clib/handleio/c/setmd.c
                _TEXT                 CODE           6fe0d680  !      00000142
                CONST                 DATA           6fe4d004  !      00000000
                CONST2                DATA           6fe4d068  !      00000000
                _DATA                 DATA           6fe4d424  !      00000000
/mnt/sda5/.user/root/src/openwatcom-1.9/bld/clib/handleio/c/tell.c
                _TEXT                 CODE           6fe0d7d0  !      0000002f
                CONST                 DATA           6fe4d004  !      00000000
                CONST2                DATA           6fe4d068  !      00000000
                _DATA                 DATA           6fe4d424  !      00000000
/mnt/sda5/.user/root/src/openwatcom-1.9/bld/clib/handleio/c/ucreat.c
                _TEXT                 CODE           6fe0d800  !      00000033
                CONST                 DATA           6fe4d004  !      00000000
                CONST2                DATA           6fe4d068  !      00000000
                _DATA                 DATA           6fe4d424  !      00000000
/mnt/sda5/.user/root/src/openwatcom-1.9/bld/clib/handleio/c/umask.c
                _TEXT                 CODE           6fe0d840  !      00000038
                CONST                 DATA           6fe4d004  !      00000000
                CONST2                DATA           6fe4d068  !      00000000
                _DATA                 DATA           6fe4d424  !      00000000
/mnt/sda5/.user/root/src/openwatcom-1.9/bld/clib/handleio/c/umkfilst.c
                _TEXT                 CODE           6fe0d880  !      00000168
                CONST                 DATA           6fe4d004  !      00000000
                CONST2                DATA           6fe4d068  !      00000000
                _DATA                 DATA           6fe4d424  !      00000000
/mnt/sda5/.user/root/src/openwatcom-1.9/bld/clib/handleio/c/unlckwnt.c
                _TEXT                 CODE           6fe0d9f0  !      00000073
                CONST                 DATA           6fe4d004  !      00000000
                CONST2                DATA           6fe4d068  !      00000000
                _DATA                 DATA           6fe4d424  !      00000000
/mnt/sda5/.user/root/src/openwatcom-1.9/bld/clib/handleio/c/unlnkwnt.c
                _TEXT                 CODE           6fe0da70  !      0000003c
                CONST                 DATA           6fe4d004  !      00000000
                CONST2                DATA           6fe4d068  !      00000000
                _DATA                 DATA           6fe4d424  !      00000000
/mnt/sda5/.user/root/src/openwatcom-1.9/bld/clib/handleio/c/uopenwnt.c
                _TEXT                 CODE           6fe0dab0  !      000002c4
                CONST                 DATA           6fe4d004  !      00000000
                CONST2                DATA           6fe4d068  !      00000000
                _DATA                 DATA           6fe4d424  !      00000000
/mnt/sda5/.user/root/src/openwatcom-1.9/bld/clib/handleio/c/uunlnwnt.c
                _TEXT                 CODE           6fe0dd80  !      0000003a
                CONST                 DATA           6fe4d004  !      00000000
                CONST2                DATA           6fe4d068  !      00000000
                _DATA                 DATA           6fe4d424  !      00000000
/mnt/sda5/.user/root/src/openwatcom-1.9/bld/clib/handleio/c/write.c
                _TEXT                 CODE           6fe0ddc0  !      0000050e
                CONST                 DATA           6fe4d004  !      00000000
                CONST2                DATA           6fe4d068  !      00000000
                _DATA                 DATA           6fe4d424  !      00000000
/mnt/sda5/.user/root/src/openwatcom-1.9/bld/clib/heap/c/ambsptr.c
                _TEXT                 CODE           6fe0e2d0  !      00000021
                CONST                 DATA           6fe4d004  !      00000000
                CONST2                DATA           6fe4d068  !      00000000
                _DATA                 DATA           6fe4d424  !      00000000
/mnt/sda5/.user/root/src/openwatcom-1.9/bld/clib/heap/c/amblksiz.c
                _TEXT                 CODE           6fe0e300  !      00000000
                CONST                 DATA           6fe4d004  !      00000000
                CONST2                DATA           6fe4d068  !      00000000
                _DATA                 DATA           6fe4d424  !      00000004
/mnt/sda5/.user/root/src/openwatcom-1.9/bld/clib/heap/c/calloc.c
                _TEXT                 CODE           6fe0e300  !      00000058
                CONST                 DATA           6fe4d004  !      00000000
                CONST2                DATA           6fe4d068  !      00000000
                _DATA                 DATA           6fe4d428  !      00000000
/mnt/sda5/.user/root/src/openwatcom-1.9/bld/clib/heap/c/freect.c
                _TEXT                 CODE           6fe0e360  !      000000aa
                CONST                 DATA           6fe4d004  !      00000000
                CONST2                DATA           6fe4d068  !      00000000
                _DATA                 DATA           6fe4d428  !      00000000
/mnt/sda5/.user/root/src/openwatcom-1.9/bld/clib/heap/c/heapen.c
                _TEXT                 CODE           6fe0e410  !      0000003f
                CONST                 DATA           6fe4d004  !      00000000
                CONST2                DATA           6fe4d068  !      00000000
                _DATA                 DATA           6fe4d428  !      00000004
/mnt/sda5/.user/root/src/openwatcom-1.9/bld/clib/heap/c/heapgrow.c
                _TEXT                 CODE           6fe0e450  !      00000056
                CONST                 DATA           6fe4d004  !      00000000
                CONST2                DATA           6fe4d068  !      00000000
                _DATA                 DATA           6fe4d42c  !      00000000
/mnt/sda5/.user/root/src/openwatcom-1.9/bld/clib/heap/c/memavl.c
                _TEXT                 CODE           6fe0e4b0  !      00000078
                CONST                 DATA           6fe4d004  !      00000000
                CONST2                DATA           6fe4d068  !      00000000
                _DATA                 DATA           6fe4d42c  !      00000000
/mnt/sda5/.user/root/src/openwatcom-1.9/bld/clib/heap/c/memmax.c
                _TEXT                 CODE           6fe0e530  !      00000086
                CONST                 DATA           6fe4d004  !      00000000
                CONST2                DATA           6fe4d068  !      00000000
                _DATA                 DATA           6fe4d42c  !      00000000
/mnt/sda5/.user/root/src/openwatcom-1.9/bld/clib/heap/c/ncalloc.c
                _TEXT                 CODE           6fe0e5c0  !      00000052
                CONST                 DATA           6fe4d004  !      00000000
                CONST2                DATA           6fe4d068  !      00000000
                _DATA                 DATA           6fe4d42c  !      00000000
/mnt/sda5/.user/root/src/openwatcom-1.9/bld/clib/heap/c/nexpand.c
                _TEXT                 CODE           6fe0e620  !      00000339
                CONST                 DATA           6fe4d004  !      00000000
                CONST2                DATA           6fe4d068  !      00000000
                _DATA                 DATA           6fe4d42c  !      00000000
/mnt/sda5/.user/root/src/openwatcom-1.9/bld/clib/heap/c/nfree.c
                _TEXT                 CODE           6fe0e960  !      00000206
                CONST                 DATA           6fe4d004  !      00000000
                CONST2                DATA           6fe4d068  !      00000000
                _DATA                 DATA           6fe4d42c  !      00000000
                _BSS                  BSS            6fe4f048  !      00000004
/mnt/sda5/.user/root/src/openwatcom-1.9/bld/clib/heap/c/nheapchk.c
                _TEXT                 CODE           6fe0eb70  !      00000350
                CONST                 DATA           6fe4d004  !      00000000
                CONST2                DATA           6fe4d068  !      00000000
                _DATA                 DATA           6fe4d42c  !      00000000
                _BSS                  BSS            6fe4f04c  !      00000004
/mnt/sda5/.user/root/src/openwatcom-1.9/bld/clib/heap/c/nheapmin.c
                _TEXT                 CODE           6fe0eec0  !      00000206
                CONST                 DATA           6fe4d004  !      00000000
                CONST2                DATA           6fe4d068  !      00000000
                _DATA                 DATA           6fe4d42c  !      00000000
/mnt/sda5/.user/root/src/openwatcom-1.9/bld/clib/heap/c/nheapset.c
                _TEXT                 CODE           6fe0f0d0  !      000000e4
                CONST                 DATA           6fe4d004  !      00000000
                CONST2                DATA           6fe4d068  !      00000000
                _DATA                 DATA           6fe4d42c  !      00000000
/mnt/sda5/.user/root/src/openwatcom-1.9/bld/clib/heap/c/nheapwal.c
                _TEXT                 CODE           6fe0f1c0  !      000001c0
                CONST                 DATA           6fe4d004  !      00000000
                CONST2                DATA           6fe4d068  !      00000000
                _DATA                 DATA           6fe4d42c  !      00000000
/mnt/sda5/.user/root/src/openwatcom-1.9/bld/clib/heap/c/nmalloc.c
                _TEXT                 CODE           6fe0f380  !      00000172
                CONST                 DATA           6fe4d004  !      00000000
                CONST2                DATA           6fe4d068  !      00000000
                _DATA                 DATA           6fe4d42c  !      0000000c
/mnt/sda5/.user/root/src/openwatcom-1.9/bld/clib/heap/c/nmemneed.c
                _TEXT                 CODE           6fe0f500  !      00000024
                CONST                 DATA           6fe4d004  !      00000000
                CONST2                DATA           6fe4d068  !      00000000
                _DATA                 DATA           6fe4d438  !      00000000
/mnt/sda5/.user/root/src/openwatcom-1.9/bld/clib/heap/c/nmsize.c
                _TEXT                 CODE           6fe0f530  !      00000073
                CONST                 DATA           6fe4d004  !      00000000
                CONST2                DATA           6fe4d068  !      00000000
                _DATA                 DATA           6fe4d438  !      00000000
/mnt/sda5/.user/root/src/openwatcom-1.9/bld/clib/heap/c/nrealloc.c
                _TEXT                 CODE           6fe0f5b0  !      000000df
                CONST                 DATA           6fe4d004  !      00000000
                CONST2                DATA           6fe4d068  !      00000000
                _DATA                 DATA           6fe4d438  !      00000000
/mnt/sda5/.user/root/src/openwatcom-1.9/bld/clib/heap/c/sbrkwnt.c
                _TEXT                 CODE           6fe0f690  !      00000075
                CONST                 DATA           6fe4d004  !      00000000
                CONST2                DATA           6fe4d068  !      00000000
                _DATA                 DATA           6fe4d438  !      00000000
/mnt/sda5/.user/root/src/openwatcom-1.9/bld/clib/intel/c/chipbug.c
                _TEXT                 CODE           6fe0f710  !      0000005a
                CONST                 DATA           6fe4d004  !      00000008
                CONST2                DATA           6fe4d068  !      00000000
                _DATA                 DATA           6fe4d438  !      00000000
                XIB                   DATA           6fe4dcd8  !      00000000
                XI                    DATA           6fe4dcde  !      00000006
                XIE                   DATA           6fe4dd32  !      00000000
/mnt/sda5/.user/root/src/openwatcom-1.9/bld/clib/intel/c/disable.c
                _TEXT                 CODE           6fe0f770  !      00000018
                CONST                 DATA           6fe4d00c  !      00000000
                CONST2                DATA           6fe4d068  !      00000000
                _DATA                 DATA           6fe4d438  !      00000000
/mnt/sda5/.user/root/src/openwatcom-1.9/bld/clib/intel/c/enable.c
                _TEXT                 CODE           6fe0f790  !      00000018
                CONST                 DATA           6fe4d00c  !      00000000
                CONST2                DATA           6fe4d068  !      00000000
                _DATA                 DATA           6fe4d438  !      00000000
/mnt/sda5/.user/root/src/openwatcom-1.9/bld/clib/intel/a/i64ts386.asm
                _TEXT                 CODE           6fe0f7a8  !      000001c6
                _DATA                 DATA           6fe4d438  !      00000000
/mnt/sda5/.user/root/src/openwatcom-1.9/bld/clib/intel/c/inp.c
                _TEXT                 CODE           6fe0f970  !      00000026
                CONST                 DATA           6fe4d00c  !      00000000
                CONST2                DATA           6fe4d068  !      00000000
                _DATA                 DATA           6fe4d438  !      00000000
/mnt/sda5/.user/root/src/openwatcom-1.9/bld/clib/intel/c/inpw.c
                _TEXT                 CODE           6fe0f9a0  !      00000027
                CONST                 DATA           6fe4d00c  !      00000000
                CONST2                DATA           6fe4d068  !      00000000
                _DATA                 DATA           6fe4d438  !      00000000
/mnt/sda5/.user/root/src/openwatcom-1.9/bld/clib/intel/c/inpd.c
                _TEXT                 CODE           6fe0f9d0  !      00000024
                CONST                 DATA           6fe4d00c  !      00000000
                CONST2                DATA           6fe4d068  !      00000000
                _DATA                 DATA           6fe4d438  !      00000000
/mnt/sda5/.user/root/src/openwatcom-1.9/bld/clib/intel/c/outp.c
                _TEXT                 CODE           6fe0fa00  !      0000002c
                CONST                 DATA           6fe4d00c  !      00000000
                CONST2                DATA           6fe4d068  !      00000000
                _DATA                 DATA           6fe4d438  !      00000000
/mnt/sda5/.user/root/src/openwatcom-1.9/bld/clib/intel/c/outpw.c
                _TEXT                 CODE           6fe0fa30  !      00000029
                CONST                 DATA           6fe4d00c  !      00000000
                CONST2                DATA           6fe4d068  !      00000000
                _DATA                 DATA           6fe4d438  !      00000000
/mnt/sda5/.user/root/src/openwatcom-1.9/bld/clib/intel/c/outpd.c
                _TEXT                 CODE           6fe0fa60  !      00000028
                CONST                 DATA           6fe4d00c  !      00000000
                CONST2                DATA           6fe4d068  !      00000000
                _DATA                 DATA           6fe4d438  !      00000000
/mnt/sda5/.user/root/src/openwatcom-1.9/bld/clib/intel/c/profilog.c
                _TEXT                 CODE           6fe0fa90  !      000007cc
                CONST                 DATA           6fe4d00c  !      00000000
                CONST2                DATA           6fe4d068  !      00000000
                _DATA                 DATA           6fe4d438  !      00000000
                _BSS                  BSS            6fe4f050  !      00000025
                XIB                   DATA           6fe4dcd8  !      00000000
                XI                    DATA           6fe4dce4  !      00000006
                XIE                   DATA           6fe4dd32  !      00000000
                YIB                   DATA           6fe4dd32  !      00000000
                YI                    DATA           6fe4dd3e  !      00000006
                YIE                   DATA           6fe4dd68  !      00000000
/mnt/sda5/.user/root/src/openwatcom-1.9/bld/clib/intel/c/segread.c
                _TEXT                 CODE           6fe10260  !      0000004f
                CONST                 DATA           6fe4d00c  !      00000000
                CONST2                DATA           6fe4d068  !      00000000
                _DATA                 DATA           6fe4d438  !      00000000
/mnt/sda5/.user/root/src/openwatcom-1.9/bld/clib/kanji/c/btom.c
                _TEXT                 CODE           6fe102b0  !      0000005b
                CONST                 DATA           6fe4d00c  !      00000000
                CONST2                DATA           6fe4d068  !      00000000
                _DATA                 DATA           6fe4d438  !      00000000
/mnt/sda5/.user/root/src/openwatcom-1.9/bld/clib/kanji/c/chkctype.c
                _TEXT                 CODE           6fe10310  !      0000007d
                CONST                 DATA           6fe4d00c  !      00000000
                CONST2                DATA           6fe4d068  !      00000000
                _DATA                 DATA           6fe4d438  !      00000000
/mnt/sda5/.user/root/src/openwatcom-1.9/bld/clib/kanji/c/fbtom.c
                _TEXT                 CODE           6fe10390  !      0000007b
                CONST                 DATA           6fe4d00c  !      00000000
                CONST2                DATA           6fe4d068  !      00000000
                _DATA                 DATA           6fe4d438  !      00000000
/mnt/sda5/.user/root/src/openwatcom-1.9/bld/clib/kanji/c/fjgetmoj.c
                _TEXT                 CODE           6fe10410  !      000000c3
                CONST                 DATA           6fe4d00c  !      00000000
                CONST2                DATA           6fe4d068  !      00000000
                _DATA                 DATA           6fe4d438  !      00000000
/mnt/sda5/.user/root/src/openwatcom-1.9/bld/clib/kanji/c/fjputmoj.c
                _TEXT                 CODE           6fe104e0  !      00000073
                CONST                 DATA           6fe4d00c  !      00000000
                CONST2                DATA           6fe4d068  !      00000000
                _DATA                 DATA           6fe4d438  !      00000000
/mnt/sda5/.user/root/src/openwatcom-1.9/bld/clib/kanji/c/fjstradv.c
                _TEXT                 CODE           6fe10560  !      00000046
                CONST                 DATA           6fe4d00c  !      00000000
                CONST2                DATA           6fe4d068  !      00000000
                _DATA                 DATA           6fe4d438  !      00000000
/mnt/sda5/.user/root/src/openwatcom-1.9/bld/clib/kanji/c/fjstrcat.c
                _TEXT                 CODE           6fe105b0  !      00000127
                CONST                 DATA           6fe4d00c  !      00000000
                CONST2                DATA           6fe4d068  !      00000000
                _DATA                 DATA           6fe4d438  !      00000000
/mnt/sda5/.user/root/src/openwatcom-1.9/bld/clib/kanji/c/fjstrchr.c
                _TEXT                 CODE           6fe106e0  !      00000081
                CONST                 DATA           6fe4d00c  !      00000000
                CONST2                DATA           6fe4d068  !      00000000
                _DATA                 DATA           6fe4d438  !      00000000
/mnt/sda5/.user/root/src/openwatcom-1.9/bld/clib/kanji/c/fjstrcmp.c
                _TEXT                 CODE           6fe10770  !      000000af
                CONST                 DATA           6fe4d00c  !      00000000
                CONST2                DATA           6fe4d068  !      00000000
                _DATA                 DATA           6fe4d438  !      00000000
/mnt/sda5/.user/root/src/openwatcom-1.9/bld/clib/kanji/c/fjstrcsp.c
                _TEXT                 CODE           6fe10820  !      000000ac
                CONST                 DATA           6fe4d00c  !      00000000
                CONST2                DATA           6fe4d068  !      00000000
                _DATA                 DATA           6fe4d438  !      00000000
/mnt/sda5/.user/root/src/openwatcom-1.9/bld/clib/kanji/c/fjstricm.c
                _TEXT                 CODE           6fe108d0  !      000000fb
                CONST                 DATA           6fe4d00c  !      00000000
                CONST2                DATA           6fe4d068  !      00000000
                _DATA                 DATA           6fe4d438  !      00000000
/mnt/sda5/.user/root/src/openwatcom-1.9/bld/clib/kanji/c/fjstrlen.c
                _TEXT                 CODE           6fe109d0  !      00000060
                CONST                 DATA           6fe4d00c  !      00000000
                CONST2                DATA           6fe4d068  !      00000000
                _DATA                 DATA           6fe4d438  !      00000000
/mnt/sda5/.user/root/src/openwatcom-1.9/bld/clib/kanji/c/fjstrlwr.c
                _TEXT                 CODE           6fe10a30  !      000000a1
                CONST                 DATA           6fe4d00c  !      00000000
                CONST2                DATA           6fe4d068  !      00000000
                _DATA                 DATA           6fe4d438  !      00000000
/mnt/sda5/.user/root/src/openwatcom-1.9/bld/clib/kanji/c/fjstrmat.c
                _TEXT                 CODE           6fe10ae0  !      000000c3
                CONST                 DATA           6fe4d00c  !      00000000
                CONST2                DATA           6fe4d068  !      00000000
                _DATA                 DATA           6fe4d438  !      00000000
/mnt/sda5/.user/root/src/openwatcom-1.9/bld/clib/kanji/c/fjstrncm.c
                _TEXT                 CODE           6fe10bb0  !      000000bf
                CONST                 DATA           6fe4d00c  !      00000000
                CONST2                DATA           6fe4d068  !      00000000
                _DATA                 DATA           6fe4d438  !      00000000
/mnt/sda5/.user/root/src/openwatcom-1.9/bld/clib/kanji/c/fjstrncp.c
                _TEXT                 CODE           6fe10c70  !      00000157
                CONST                 DATA           6fe4d00c  !      00000000
                CONST2                DATA           6fe4d068  !      00000000
                _DATA                 DATA           6fe4d438  !      00000000
/mnt/sda5/.user/root/src/openwatcom-1.9/bld/clib/kanji/c/fjstrnic.c
                _TEXT                 CODE           6fe10dd0  !      00000185
                CONST                 DATA           6fe4d00c  !      00000000
                CONST2                DATA           6fe4d068  !      00000000
                _DATA                 DATA           6fe4d438  !      00000000
/mnt/sda5/.user/root/src/openwatcom-1.9/bld/clib/kanji/c/fjstrnse.c
                _TEXT                 CODE           6fe10f60  !      000001fe
                CONST                 DATA           6fe4d00c  !      00000000
                CONST2                DATA           6fe4d068  !      00000000
                _DATA                 DATA           6fe4d438  !      00000000
/mnt/sda5/.user/root/src/openwatcom-1.9/bld/clib/kanji/c/fjstrrch.c
                _TEXT                 CODE           6fe11160  !      00000090
                CONST                 DATA           6fe4d00c  !      00000000
                CONST2                DATA           6fe4d068  !      00000000
                _DATA                 DATA           6fe4d438  !      00000000
/mnt/sda5/.user/root/src/openwatcom-1.9/bld/clib/kanji/c/fjstrrev.c
                _TEXT                 CODE           6fe111f0  !      0000015e
                CONST                 DATA           6fe4d00c  !      00000000
                CONST2                DATA           6fe4d068  !      00000000
                _DATA                 DATA           6fe4d438  !      00000000
/mnt/sda5/.user/root/src/openwatcom-1.9/bld/clib/kanji/c/fjstrset.c
                _TEXT                 CODE           6fe11350  !      000000c4
                CONST                 DATA           6fe4d00c  !      00000000
                CONST2                DATA           6fe4d068  !      00000000
                _DATA                 DATA           6fe4d438  !      00000000
/mnt/sda5/.user/root/src/openwatcom-1.9/bld/clib/kanji/c/fjstrski.c
                _TEXT                 CODE           6fe11420  !      000000c5
                CONST                 DATA           6fe4d00c  !      00000000
                CONST2                DATA           6fe4d068  !      00000000
                _DATA                 DATA           6fe4d438  !      00000000
/mnt/sda5/.user/root/src/openwatcom-1.9/bld/clib/kanji/c/fjstrspn.c
                _TEXT                 CODE           6fe114f0  !      000000af
                CONST                 DATA           6fe4d00c  !      00000000
                CONST2                DATA           6fe4d068  !      00000000
                _DATA                 DATA           6fe4d438  !      00000000
/mnt/sda5/.user/root/src/openwatcom-1.9/bld/clib/kanji/c/fjstrstr.c
                _TEXT                 CODE           6fe115a0  !      000001a1
                CONST                 DATA           6fe4d00c  !      00000000
                CONST2                DATA           6fe4d068  !      00000000
                _DATA                 DATA           6fe4d438  !      00000000
/mnt/sda5/.user/root/src/openwatcom-1.9/bld/clib/kanji/c/fjstrtok.c
                _TEXT                 CODE           6fe11750  !      000001c7
                CONST                 DATA           6fe4d00c  !      00000000
                CONST2                DATA           6fe4d068  !      00000000
                _DATA                 DATA           6fe4d438  !      00000000
                _BSS                  BSS            6fe4f080  !      00000006
/mnt/sda5/.user/root/src/openwatcom-1.9/bld/clib/kanji/c/fjstrupr.c
                _TEXT                 CODE           6fe11920  !      000000a1
                CONST                 DATA           6fe4d00c  !      00000000
                CONST2                DATA           6fe4d068  !      00000000
                _DATA                 DATA           6fe4d438  !      00000000
/mnt/sda5/.user/root/src/openwatcom-1.9/bld/clib/kanji/c/fmtob.c
                _TEXT                 CODE           6fe119d0  !      00000070
                CONST                 DATA           6fe4d00c  !      00000000
                CONST2                DATA           6fe4d068  !      00000000
                _DATA                 DATA           6fe4d438  !      00000000
/mnt/sda5/.user/root/src/openwatcom-1.9/bld/clib/kanji/c/fnthctyp.c
                _TEXT                 CODE           6fe11a40  !      0000006f
                CONST                 DATA           6fe4d00c  !      00000000
                CONST2                DATA           6fe4d068  !      00000000
                _DATA                 DATA           6fe4d438  !      00000000
/mnt/sda5/.user/root/src/openwatcom-1.9/bld/clib/kanji/c/hantozen.c
                _TEXT                 CODE           6fe11ab0  !      000000ac
                CONST                 DATA           6fe4d00c  !      00000000
                CONST2                DATA           6fe4d068  !      00000000
                _DATA                 DATA           6fe4d438  !      00000000
/mnt/sda5/.user/root/src/openwatcom-1.9/bld/clib/kanji/c/isktable.c
                _TEXT                 CODE           6fe11b60  !      00000101
                CONST                 DATA           6fe4d00c  !      00000000
                CONST2                DATA           6fe4d068  !      00000000
                _DATA                 DATA           6fe4d438  !      00000000
/mnt/sda5/.user/root/src/openwatcom-1.9/bld/clib/kanji/c/ismbdaln.c
                _TEXT                 CODE           6fe11c70  !      0000004b
                CONST                 DATA           6fe4d00c  !      00000000
                CONST2                DATA           6fe4d068  !      00000000
                _DATA                 DATA           6fe4d438  !      00000000
/mnt/sda5/.user/root/src/openwatcom-1.9/bld/clib/kanji/c/ismbdalp.c
                _TEXT                 CODE           6fe11cc0  !      0000007c
                CONST                 DATA           6fe4d00c  !      00000000
                CONST2                DATA           6fe4d068  !      00000000
                _DATA                 DATA           6fe4d438  !      00000000
/mnt/sda5/.user/root/src/openwatcom-1.9/bld/clib/kanji/c/ismbddig.c
                _TEXT                 CODE           6fe11d40  !      0000006a
                CONST                 DATA           6fe4d00c  !      00000000
                CONST2                DATA           6fe4d068  !      00000000
                _DATA                 DATA           6fe4d438  !      00000000
/mnt/sda5/.user/root/src/openwatcom-1.9/bld/clib/kanji/c/ismbdgra.c
                _TEXT                 CODE           6fe11db0  !      0000004d
                CONST                 DATA           6fe4d00c  !      00000000
                CONST2                DATA           6fe4d068  !      00000000
                _DATA                 DATA           6fe4d438  !      00000000
/mnt/sda5/.user/root/src/openwatcom-1.9/bld/clib/kanji/c/ismbdhir.c
                _TEXT                 CODE           6fe11e00  !      00000047
                CONST                 DATA           6fe4d00c  !      00000000
                CONST2                DATA           6fe4d068  !      00000000
                _DATA                 DATA           6fe4d438  !      00000000
/mnt/sda5/.user/root/src/openwatcom-1.9/bld/clib/kanji/c/ismbdkan.c
                _TEXT                 CODE           6fe11e50  !      00000052
                CONST                 DATA           6fe4d00c  !      00000000
                CONST2                DATA           6fe4d068  !      00000000
                _DATA                 DATA           6fe4d438  !      00000000
/mnt/sda5/.user/root/src/openwatcom-1.9/bld/clib/kanji/c/ismbdlow.c
                _TEXT                 CODE           6fe11eb0  !      0000006a
                CONST                 DATA           6fe4d00c  !      00000000
                CONST2                DATA           6fe4d068  !      00000000
                _DATA                 DATA           6fe4d438  !      00000000
/mnt/sda5/.user/root/src/openwatcom-1.9/bld/clib/kanji/c/ismbdpri.c
                _TEXT                 CODE           6fe11f20  !      00000047
                CONST                 DATA           6fe4d00c  !      00000000
                CONST2                DATA           6fe4d068  !      00000000
                _DATA                 DATA           6fe4d438  !      00000000
/mnt/sda5/.user/root/src/openwatcom-1.9/bld/clib/kanji/c/ismbdpun.c
                _TEXT                 CODE           6fe11f70  !      00000044
                CONST                 DATA           6fe4d00c  !      00000000
                CONST2                DATA           6fe4d068  !      00000000
                _DATA                 DATA           6fe4d438  !      00000000
/mnt/sda5/.user/root/src/openwatcom-1.9/bld/clib/kanji/c/ismbdspa.c
                _TEXT                 CODE           6fe11fc0  !      00000065
                CONST                 DATA           6fe4d00c  !      00000000
                CONST2                DATA           6fe4d068  !      00000000
                _DATA                 DATA           6fe4d438  !      00000000
/mnt/sda5/.user/root/src/openwatcom-1.9/bld/clib/kanji/c/ismbdupp.c
                _TEXT                 CODE           6fe12030  !      0000006a
                CONST                 DATA           6fe4d00c  !      00000000
                CONST2                DATA           6fe4d068  !      00000000
                _DATA                 DATA           6fe4d438  !      00000000
/mnt/sda5/.user/root/src/openwatcom-1.9/bld/clib/kanji/c/ismbdxdi.c
                _TEXT                 CODE           6fe120a0  !      00000072
                CONST                 DATA           6fe4d00c  !      00000000
                CONST2                DATA           6fe4d068  !      00000000
                _DATA                 DATA           6fe4d438  !      00000000
/mnt/sda5/.user/root/src/openwatcom-1.9/bld/clib/kanji/c/jasctime.c
                _TEXT                 CODE           6fe12120  !      000000c2
                CONST                 DATA           6fe4d00c  !      00000000
                CONST2                DATA           6fe4d068  !      00000000
                _DATA                 DATA           6fe4d438  !      0000001c
                _BSS                  BSS            6fe4f088  !      00000025
/mnt/sda5/.user/root/src/openwatcom-1.9/bld/clib/kanji/c/jctime.c
                _TEXT                 CODE           6fe121f0  !      0000002d
                CONST                 DATA           6fe4d00c  !      00000000
                CONST2                DATA           6fe4d068  !      00000000
                _DATA                 DATA           6fe4d454  !      00000000
/mnt/sda5/.user/root/src/openwatcom-1.9/bld/clib/kanji/c/jgetmoji.c
                _TEXT                 CODE           6fe12220  !      00000080
                CONST                 DATA           6fe4d00c  !      00000000
                CONST2                DATA           6fe4d068  !      00000000
                _DATA                 DATA           6fe4d454  !      00000000
/mnt/sda5/.user/root/src/openwatcom-1.9/bld/clib/kanji/c/jisalpha.c
                _TEXT                 CODE           6fe122a0  !      00000051
                CONST                 DATA           6fe4d00c  !      00000000
                CONST2                DATA           6fe4d068  !      00000000
                _DATA                 DATA           6fe4d454  !      00000000
/mnt/sda5/.user/root/src/openwatcom-1.9/bld/clib/kanji/c/jisdigit.c
                _TEXT                 CODE           6fe12300  !      00000045
                CONST                 DATA           6fe4d00c  !      00000000
                CONST2                DATA           6fe4d068  !      00000000
                _DATA                 DATA           6fe4d454  !      00000000
/mnt/sda5/.user/root/src/openwatcom-1.9/bld/clib/kanji/c/jishira.c
                _TEXT                 CODE           6fe12350  !      00000045
                CONST                 DATA           6fe4d00c  !      00000000
                CONST2                DATA           6fe4d068  !      00000000
                _DATA                 DATA           6fe4d454  !      00000000
/mnt/sda5/.user/root/src/openwatcom-1.9/bld/clib/kanji/c/jiskana.c
                _TEXT                 CODE           6fe123a0  !      0000004f
                CONST                 DATA           6fe4d00c  !      00000000
                CONST2                DATA           6fe4d068  !      00000000
                _DATA                 DATA           6fe4d454  !      00000000
/mnt/sda5/.user/root/src/openwatcom-1.9/bld/clib/kanji/c/jiskigou.c
                _TEXT                 CODE           6fe123f0  !      0000004f
                CONST                 DATA           6fe4d00c  !      00000000
                CONST2                DATA           6fe4d068  !      00000000
                _DATA                 DATA           6fe4d454  !      00000000
/mnt/sda5/.user/root/src/openwatcom-1.9/bld/clib/kanji/c/jisl0.c
                _TEXT                 CODE           6fe12440  !      0000004c
                CONST                 DATA           6fe4d00c  !      00000000
                CONST2                DATA           6fe4d068  !      00000000
                _DATA                 DATA           6fe4d454  !      00000000
/mnt/sda5/.user/root/src/openwatcom-1.9/bld/clib/kanji/c/jisl1.c
                _TEXT                 CODE           6fe12490  !      00000056
                CONST                 DATA           6fe4d00c  !      00000000
                CONST2                DATA           6fe4d068  !      00000000
                _DATA                 DATA           6fe4d454  !      00000000
/mnt/sda5/.user/root/src/openwatcom-1.9/bld/clib/kanji/c/jisl2.c
                _TEXT                 CODE           6fe124f0  !      00000056
                CONST                 DATA           6fe4d00c  !      00000000
                CONST2                DATA           6fe4d068  !      00000000
                _DATA                 DATA           6fe4d454  !      00000000
/mnt/sda5/.user/root/src/openwatcom-1.9/bld/clib/kanji/c/jislower.c
                _TEXT                 CODE           6fe12550  !      00000045
                CONST                 DATA           6fe4d00c  !      00000000
                CONST2                DATA           6fe4d068  !      00000000
                _DATA                 DATA           6fe4d454  !      00000000
/mnt/sda5/.user/root/src/openwatcom-1.9/bld/clib/kanji/c/jisprint.c
                _TEXT                 CODE           6fe125a0  !      00000061
                CONST                 DATA           6fe4d00c  !      00000000
                CONST2                DATA           6fe4d068  !      00000000
                _DATA                 DATA           6fe4d454  !      00000000
/mnt/sda5/.user/root/src/openwatcom-1.9/bld/clib/kanji/c/jisspace.c
                _TEXT                 CODE           6fe12610  !      0000003b
                CONST                 DATA           6fe4d00c  !      00000000
                CONST2                DATA           6fe4d068  !      00000000
                _DATA                 DATA           6fe4d454  !      00000000
/mnt/sda5/.user/root/src/openwatcom-1.9/bld/clib/kanji/c/jistojms.c
                _TEXT                 CODE           6fe12650  !      0000010c
                CONST                 DATA           6fe4d00c  !      00000000
                CONST2                DATA           6fe4d068  !      00000000
                _DATA                 DATA           6fe4d454  !      00000000
/mnt/sda5/.user/root/src/openwatcom-1.9/bld/clib/kanji/c/jisupper.c
                _TEXT                 CODE           6fe12760  !      00000045
                CONST                 DATA           6fe4d00c  !      00000000
                CONST2                DATA           6fe4d068  !      00000000
                _DATA                 DATA           6fe4d454  !      00000000
/mnt/sda5/.user/root/src/openwatcom-1.9/bld/clib/kanji/c/jiszen.c
                _TEXT                 CODE           6fe127b0  !      0000005e
                CONST                 DATA           6fe4d00c  !      00000000
                CONST2                DATA           6fe4d068  !      00000000
                _DATA                 DATA           6fe4d454  !      00000000
/mnt/sda5/.user/root/src/openwatcom-1.9/bld/clib/kanji/c/jmstojis.c
                _TEXT                 CODE           6fe12810  !      00000106
                CONST                 DATA           6fe4d00c  !      00000000
                CONST2                DATA           6fe4d068  !      00000000
                _DATA                 DATA           6fe4d454  !      00000000
/mnt/sda5/.user/root/src/openwatcom-1.9/bld/clib/kanji/c/jperror.c
                _TEXT                 CODE           6fe12920  !      0000007d
                CONST                 DATA           6fe4d00c  !      00000000
                CONST2                DATA           6fe4d068  !      00000000
                _DATA                 DATA           6fe4d454  !      00000000
/mnt/sda5/.user/root/src/openwatcom-1.9/bld/clib/kanji/c/jputmoji.c
                _TEXT                 CODE           6fe129a0  !      0000004f
                CONST                 DATA           6fe4d00c  !      00000000
                CONST2                DATA           6fe4d068  !      00000000
                _DATA                 DATA           6fe4d454  !      00000000
/mnt/sda5/.user/root/src/openwatcom-1.9/bld/clib/kanji/c/jstradv.c
                _TEXT                 CODE           6fe129f0  !      00000031
                CONST                 DATA           6fe4d00c  !      00000000
                CONST2                DATA           6fe4d068  !      00000000
                _DATA                 DATA           6fe4d454  !      00000000
/mnt/sda5/.user/root/src/openwatcom-1.9/bld/clib/kanji/c/jstrcat.c
                _TEXT                 CODE           6fe12a30  !      000000b8
                CONST                 DATA           6fe4d00c  !      00000000
                CONST2                DATA           6fe4d068  !      00000000
                _DATA                 DATA           6fe4d454  !      00000000
/mnt/sda5/.user/root/src/openwatcom-1.9/bld/clib/kanji/c/jstrchr.c
                _TEXT                 CODE           6fe12af0  !      00000051
                CONST                 DATA           6fe4d00c  !      00000000
                CONST2                DATA           6fe4d068  !      00000000
                _DATA                 DATA           6fe4d454  !      00000000
/mnt/sda5/.user/root/src/openwatcom-1.9/bld/clib/kanji/c/jstrcmp.c
                _TEXT                 CODE           6fe12b50  !      00000076
                CONST                 DATA           6fe4d00c  !      00000000
                CONST2                DATA           6fe4d068  !      00000000
                _DATA                 DATA           6fe4d454  !      00000000
/mnt/sda5/.user/root/src/openwatcom-1.9/bld/clib/kanji/c/jstrcspn.c
                _TEXT                 CODE           6fe12bd0  !      00000073
                CONST                 DATA           6fe4d00c  !      00000000
                CONST2                DATA           6fe4d068  !      00000000
                _DATA                 DATA           6fe4d454  !      00000000
/mnt/sda5/.user/root/src/openwatcom-1.9/bld/clib/kanji/c/jstrerro.c
                _TEXT                 CODE           6fe12c50  !      00000414
                CONST                 DATA           6fe4d00c  !      00000000
                CONST2                DATA           6fe4d068  !      00000000
                _DATA                 DATA           6fe4d454  !      000000a8
/mnt/sda5/.user/root/src/openwatcom-1.9/bld/clib/kanji/c/jstricmp.c
                _TEXT                 CODE           6fe13070  !      000000c5
                CONST                 DATA           6fe4d00c  !      00000000
                CONST2                DATA           6fe4d068  !      00000000
                _DATA                 DATA           6fe4d4fc  !      00000000
/mnt/sda5/.user/root/src/openwatcom-1.9/bld/clib/kanji/c/jstrlen.c
                _TEXT                 CODE           6fe13140  !      00000047
                CONST                 DATA           6fe4d00c  !      00000000
                CONST2                DATA           6fe4d068  !      00000000
                _DATA                 DATA           6fe4d4fc  !      00000000
/mnt/sda5/.user/root/src/openwatcom-1.9/bld/clib/kanji/c/jstrlwr.c
                _TEXT                 CODE           6fe13190  !      00000061
                CONST                 DATA           6fe4d00c  !      00000000
                CONST2                DATA           6fe4d068  !      00000000
                _DATA                 DATA           6fe4d4fc  !      00000000
/mnt/sda5/.user/root/src/openwatcom-1.9/bld/clib/kanji/c/jstrmatc.c
                _TEXT                 CODE           6fe13200  !      00000070
                CONST                 DATA           6fe4d00c  !      00000000
                CONST2                DATA           6fe4d068  !      00000000
                _DATA                 DATA           6fe4d4fc  !      00000000
/mnt/sda5/.user/root/src/openwatcom-1.9/bld/clib/kanji/c/jstrncmp.c
                _TEXT                 CODE           6fe13270  !      00000081
                CONST                 DATA           6fe4d00c  !      00000000
                CONST2                DATA           6fe4d068  !      00000000
                _DATA                 DATA           6fe4d4fc  !      00000000
/mnt/sda5/.user/root/src/openwatcom-1.9/bld/clib/kanji/c/jstrncpy.c
                _TEXT                 CODE           6fe13300  !      000000ce
                CONST                 DATA           6fe4d00c  !      00000000
                CONST2                DATA           6fe4d068  !      00000000
                _DATA                 DATA           6fe4d4fc  !      00000000
/mnt/sda5/.user/root/src/openwatcom-1.9/bld/clib/kanji/c/jstrnicm.c
                _TEXT                 CODE           6fe133d0  !      000000e2
                CONST                 DATA           6fe4d00c  !      00000000
                CONST2                DATA           6fe4d068  !      00000000
                _DATA                 DATA           6fe4d4fc  !      00000000
/mnt/sda5/.user/root/src/openwatcom-1.9/bld/clib/kanji/c/jstrnset.c
                _TEXT                 CODE           6fe134c0  !      00000174
                CONST                 DATA           6fe4d00c  !      00000000
                CONST2                DATA           6fe4d068  !      00000000
                _DATA                 DATA           6fe4d4fc  !      00000000
/mnt/sda5/.user/root/src/openwatcom-1.9/bld/clib/kanji/c/jstrrchr.c
                _TEXT                 CODE           6fe13640  !      00000059
                CONST                 DATA           6fe4d00c  !      00000000
                CONST2                DATA           6fe4d068  !      00000000
                _DATA                 DATA           6fe4d4fc  !      00000000
/mnt/sda5/.user/root/src/openwatcom-1.9/bld/clib/kanji/c/jstrrev.c
                _TEXT                 CODE           6fe136a0  !      000000cc
                CONST                 DATA           6fe4d00c  !      00000000
                CONST2                DATA           6fe4d068  !      00000000
                _DATA                 DATA           6fe4d4fc  !      00000000
/mnt/sda5/.user/root/src/openwatcom-1.9/bld/clib/kanji/c/jstrset.c
                _TEXT                 CODE           6fe13770  !      00000090
                CONST                 DATA           6fe4d00c  !      00000000
                CONST2                DATA           6fe4d068  !      00000000
                _DATA                 DATA           6fe4d4fc  !      00000000
/mnt/sda5/.user/root/src/openwatcom-1.9/bld/clib/kanji/c/jstrskip.c
                _TEXT                 CODE           6fe13800  !      00000072
                CONST                 DATA           6fe4d00c  !      00000000
                CONST2                DATA           6fe4d068  !      00000000
                _DATA                 DATA           6fe4d4fc  !      00000000
/mnt/sda5/.user/root/src/openwatcom-1.9/bld/clib/kanji/c/jstrspn.c
                _TEXT                 CODE           6fe13880  !      0000007b
                CONST                 DATA           6fe4d00c  !      00000000
                CONST2                DATA           6fe4d068  !      00000000
                _DATA                 DATA           6fe4d4fc  !      00000000
/mnt/sda5/.user/root/src/openwatcom-1.9/bld/clib/kanji/c/jstrstr.c
                _TEXT                 CODE           6fe13900  !      000000d7
                CONST                 DATA           6fe4d00c  !      00000000
                CONST2                DATA           6fe4d068  !      00000000
                _DATA                 DATA           6fe4d4fc  !      00000000
/mnt/sda5/.user/root/src/openwatcom-1.9/bld/clib/kanji/c/jstrtok.c
                _TEXT                 CODE           6fe139e0  !      000000ff
                CONST                 DATA           6fe4d00c  !      00000000
                CONST2                DATA           6fe4d068  !      00000000
                _DATA                 DATA           6fe4d4fc  !      00000000
                _BSS                  BSS            6fe4f0b0  !      00000004
/mnt/sda5/.user/root/src/openwatcom-1.9/bld/clib/kanji/c/jstrupr.c
                _TEXT                 CODE           6fe13ae0  !      00000061
                CONST                 DATA           6fe4d00c  !      00000000
                CONST2                DATA           6fe4d068  !      00000000
                _DATA                 DATA           6fe4d4fc  !      00000000
/mnt/sda5/.user/root/src/openwatcom-1.9/bld/clib/kanji/c/jtohira.c
                _TEXT                 CODE           6fe13b50  !      00000090
                CONST                 DATA           6fe4d00c  !      00000000
                CONST2                DATA           6fe4d068  !      00000000
                _DATA                 DATA           6fe4d4fc  !      00000000
/mnt/sda5/.user/root/src/openwatcom-1.9/bld/clib/kanji/c/jtokata.c
                _TEXT                 CODE           6fe13be0  !      00000086
                CONST                 DATA           6fe4d00c  !      00000000
                CONST2                DATA           6fe4d068  !      00000000
                _DATA                 DATA           6fe4d4fc  !      00000000
/mnt/sda5/.user/root/src/openwatcom-1.9/bld/clib/kanji/c/jtolower.c
                _TEXT                 CODE           6fe13c70  !      00000049
                CONST                 DATA           6fe4d00c  !      00000000
                CONST2                DATA           6fe4d068  !      00000000
                _DATA                 DATA           6fe4d4fc  !      00000000
/mnt/sda5/.user/root/src/openwatcom-1.9/bld/clib/kanji/c/jtoupper.c
                _TEXT                 CODE           6fe13cc0  !      00000049
                CONST                 DATA           6fe4d00c  !      00000000
                CONST2                DATA           6fe4d068  !      00000000
                _DATA                 DATA           6fe4d4fc  !      00000000
/mnt/sda5/.user/root/src/openwatcom-1.9/bld/clib/kanji/c/mbdhanto.c
                _TEXT                 CODE           6fe13d10  !      0000006b
                CONST                 DATA           6fe4d00c  !      00000000
                CONST2                DATA           6fe4d068  !      00000000
                _DATA                 DATA           6fe4d4fc  !      00000000
/mnt/sda5/.user/root/src/openwatcom-1.9/bld/clib/kanji/c/mbdtolow.c
                _TEXT                 CODE           6fe13d80  !      00000040
                CONST                 DATA           6fe4d00c  !      00000000
                CONST2                DATA           6fe4d068  !      00000000
                _DATA                 DATA           6fe4d4fc  !      00000000
/mnt/sda5/.user/root/src/openwatcom-1.9/bld/clib/kanji/c/mbdtoupp.c
                _TEXT                 CODE           6fe13dc0  !      00000048
                CONST                 DATA           6fe4d00c  !      00000000
                CONST2                DATA           6fe4d068  !      00000000
                _DATA                 DATA           6fe4d4fc  !      00000000
/mnt/sda5/.user/root/src/openwatcom-1.9/bld/clib/kanji/c/mbdzento.c
                _TEXT                 CODE           6fe13e10  !      0000006c
                CONST                 DATA           6fe4d00c  !      00000000
                CONST2                DATA           6fe4d068  !      00000000
                _DATA                 DATA           6fe4d4fc  !      00000000
/mnt/sda5/.user/root/src/openwatcom-1.9/bld/clib/kanji/c/mbisl0.c
                _TEXT                 CODE           6fe13e80  !      0000004a
                CONST                 DATA           6fe4d00c  !      00000000
                CONST2                DATA           6fe4d068  !      00000000
                _DATA                 DATA           6fe4d4fc  !      00000000
/mnt/sda5/.user/root/src/openwatcom-1.9/bld/clib/kanji/c/mbisl1.c
                _TEXT                 CODE           6fe13ed0  !      00000055
                CONST                 DATA           6fe4d00c  !      00000000
                CONST2                DATA           6fe4d068  !      00000000
                _DATA                 DATA           6fe4d4fc  !      00000000
/mnt/sda5/.user/root/src/openwatcom-1.9/bld/clib/kanji/c/mbisl2.c
                _TEXT                 CODE           6fe13f30  !      00000055
                CONST                 DATA           6fe4d00c  !      00000000
                CONST2                DATA           6fe4d068  !      00000000
                _DATA                 DATA           6fe4d4fc  !      00000000
/mnt/sda5/.user/root/src/openwatcom-1.9/bld/clib/kanji/c/mtob.c
                _TEXT                 CODE           6fe13f90  !      00000050
                CONST                 DATA           6fe4d00c  !      00000000
                CONST2                DATA           6fe4d068  !      00000000
                _DATA                 DATA           6fe4d4fc  !      00000000
/mnt/sda5/.user/root/src/openwatcom-1.9/bld/clib/kanji/c/nthctype.c
                _TEXT                 CODE           6fe13fe0  !      0000005e
                CONST                 DATA           6fe4d00c  !      00000000
                CONST2                DATA           6fe4d068  !      00000000
                _DATA                 DATA           6fe4d4fc  !      00000000
/mnt/sda5/.user/root/src/openwatcom-1.9/bld/clib/libwin32/c/getmodfn.c
                _TEXT                 CODE           6fe14040  !      000000df
                CONST                 DATA           6fe4d00c  !      00000000
                CONST2                DATA           6fe4d068  !      00000000
                _DATA                 DATA           6fe4d4fc  !      00000000
/mnt/sda5/.user/root/src/openwatcom-1.9/bld/clib/math/c/abs.c
                _TEXT                 CODE           6fe14120  !      0000002c
                CONST                 DATA           6fe4d00c  !      00000000
                CONST2                DATA           6fe4d068  !      00000000
                _DATA                 DATA           6fe4d4fc  !      00000000
/mnt/sda5/.user/root/src/openwatcom-1.9/bld/clib/math/c/hvalptr.c
                _TEXT                 CODE           6fe14150  !      00000021
                CONST                 DATA           6fe4d00c  !      00000000
                CONST2                DATA           6fe4d068  !      00000000
                _DATA                 DATA           6fe4d4fc  !      00000000
/mnt/sda5/.user/root/src/openwatcom-1.9/bld/clib/math/c/hugeval.c
                _TEXT                 CODE           6fe14180  !      00000008
                CONST                 DATA           6fe4d00c  !      00000000
                CONST2                DATA           6fe4d068  !      00000000
                _DATA                 DATA           6fe4d4fc  !      00000000
/mnt/sda5/.user/root/src/openwatcom-1.9/bld/clib/math/c/imaxabs.c
                _TEXT                 CODE           6fe14190  !      00000049
                CONST                 DATA           6fe4d00c  !      00000000
                CONST2                DATA           6fe4d068  !      00000000
                _DATA                 DATA           6fe4d4fc  !      00000000
/mnt/sda5/.user/root/src/openwatcom-1.9/bld/clib/math/c/imaxdiv.c
                _TEXT                 CODE           6fe141e0  !      00000063
                CONST                 DATA           6fe4d00c  !      00000000
                CONST2                DATA           6fe4d068  !      00000000
                _DATA                 DATA           6fe4d4fc  !      00000000
/mnt/sda5/.user/root/src/openwatcom-1.9/bld/clib/math/c/labs.c
                _TEXT                 CODE           6fe14250  !      0000002c
                CONST                 DATA           6fe4d00c  !      00000000
                CONST2                DATA           6fe4d068  !      00000000
                _DATA                 DATA           6fe4d4fc  !      00000000
/mnt/sda5/.user/root/src/openwatcom-1.9/bld/clib/math/c/llabs.c
                _TEXT                 CODE           6fe14280  !      00000049
                CONST                 DATA           6fe4d00c  !      00000000
                CONST2                DATA           6fe4d068  !      00000000
                _DATA                 DATA           6fe4d4fc  !      00000000
/mnt/sda5/.user/root/src/openwatcom-1.9/bld/clib/math/c/max.c
                _TEXT                 CODE           6fe142d0  !      0000003a
                CONST                 DATA           6fe4d00c  !      00000000
                CONST2                DATA           6fe4d068  !      00000000
                _DATA                 DATA           6fe4d4fc  !      00000000
/mnt/sda5/.user/root/src/openwatcom-1.9/bld/clib/math/c/min.c
                _TEXT                 CODE           6fe14310  !      0000003a
                CONST                 DATA           6fe4d00c  !      00000000
                CONST2                DATA           6fe4d068  !      00000000
                _DATA                 DATA           6fe4d4fc  !      00000000
/mnt/sda5/.user/root/src/openwatcom-1.9/bld/clib/math/c/rand.c
                _TEXT                 CODE           6fe14350  !      0000009a
                CONST                 DATA           6fe4d00c  !      00000000
                CONST2                DATA           6fe4d068  !      00000000
                _DATA                 DATA           6fe4d4fc  !      00000000
/mnt/sda5/.user/root/src/openwatcom-1.9/bld/clib/mbyte/c/btowc.c
                _TEXT                 CODE           6fe143f0  !      0000005f
                CONST                 DATA           6fe4d00c  !      00000000
                CONST2                DATA           6fe4d068  !      00000000
                _DATA                 DATA           6fe4d4fc  !      00000000
/mnt/sda5/.user/root/src/openwatcom-1.9/bld/clib/mbyte/c/fmbccmp.c
                _TEXT                 CODE           6fe14450  !      000000a6
                CONST                 DATA           6fe4d00c  !      00000000
                CONST2                DATA           6fe4d068  !      00000000
                _DATA                 DATA           6fe4d4fc  !      00000000
/mnt/sda5/.user/root/src/openwatcom-1.9/bld/clib/mbyte/c/fmbccpy.c
                _TEXT                 CODE           6fe14500  !      0000008f
                CONST                 DATA           6fe4d00c  !      00000000
                CONST2                DATA           6fe4d068  !      00000000
                _DATA                 DATA           6fe4d4fc  !      00000000
/mnt/sda5/.user/root/src/openwatcom-1.9/bld/clib/mbyte/c/fmbcicmp.c
                _TEXT                 CODE           6fe14590  !      0000008c
                CONST                 DATA           6fe4d00c  !      00000000
                CONST2                DATA           6fe4d068  !      00000000
                _DATA                 DATA           6fe4d4fc  !      00000000
/mnt/sda5/.user/root/src/openwatcom-1.9/bld/clib/mbyte/c/fmbclen.c
                _TEXT                 CODE           6fe14620  !      0000006b
                CONST                 DATA           6fe4d00c  !      00000000
                CONST2                DATA           6fe4d068  !      00000000
                _DATA                 DATA           6fe4d4fc  !      00000000
/mnt/sda5/.user/root/src/openwatcom-1.9/bld/clib/mbyte/c/fmbconv.c
                _TEXT                 CODE           6fe14690  !      00000061
                CONST                 DATA           6fe4d00c  !      00000000
                CONST2                DATA           6fe4d068  !      00000000
                _DATA                 DATA           6fe4d4fc  !      00000000
/mnt/sda5/.user/root/src/openwatcom-1.9/bld/clib/mbyte/c/fmbgetco.c
                _TEXT                 CODE           6fe14700  !      0000010c
                CONST                 DATA           6fe4d00c  !      00000000
                CONST2                DATA           6fe4d068  !      00000000
                _DATA                 DATA           6fe4d4fc  !      00000000
/mnt/sda5/.user/root/src/openwatcom-1.9/bld/clib/mbyte/c/fmblen.c
                _TEXT                 CODE           6fe14810  !      0000003e
                CONST                 DATA           6fe4d00c  !      00000000
                CONST2                DATA           6fe4d068  !      00000000
                _DATA                 DATA           6fe4d4fc  !      00000000
/mnt/sda5/.user/root/src/openwatcom-1.9/bld/clib/mbyte/c/fmbputch.c
                _TEXT                 CODE           6fe14850  !      00000096
                CONST                 DATA           6fe4d00c  !      00000000
                CONST2                DATA           6fe4d068  !      00000000
                _DATA                 DATA           6fe4d4fc  !      00000000
/mnt/sda5/.user/root/src/openwatcom-1.9/bld/clib/mbyte/c/fmbrlen.c
                _TEXT                 CODE           6fe148f0  !      00000044
                CONST                 DATA           6fe4d00c  !      00000000
                CONST2                DATA           6fe4d068  !      00000000
                _DATA                 DATA           6fe4d4fc  !      00000000
/mnt/sda5/.user/root/src/openwatcom-1.9/bld/clib/mbyte/c/fmbrtowc.c
                _TEXT                 CODE           6fe14940  !      000000d5
                CONST                 DATA           6fe4d00c  !      00000000
                CONST2                DATA           6fe4d068  !      00000000
                _DATA                 DATA           6fe4d4fc  !      00000000
/mnt/sda5/.user/root/src/openwatcom-1.9/bld/clib/mbyte/c/fmbsbtyp.c
                _TEXT                 CODE           6fe14a20  !      00000072
                CONST                 DATA           6fe4d00c  !      00000000
                CONST2                DATA           6fe4d068  !      00000000
                _DATA                 DATA           6fe4d4fc  !      00000000
/mnt/sda5/.user/root/src/openwatcom-1.9/bld/clib/mbyte/c/fmbscat.c
                _TEXT                 CODE           6fe14aa0  !      00000049
                CONST                 DATA           6fe4d00c  !      00000000
                CONST2                DATA           6fe4d068  !      00000000
                _DATA                 DATA           6fe4d4fc  !      00000000
/mnt/sda5/.user/root/src/openwatcom-1.9/bld/clib/mbyte/c/fmbschr.c
                _TEXT                 CODE           6fe14af0  !      000000c1
                CONST                 DATA           6fe4d00c  !      00000000
                CONST2                DATA           6fe4d068  !      00000000
                _DATA                 DATA           6fe4d4fc  !      00000000
/mnt/sda5/.user/root/src/openwatcom-1.9/bld/clib/mbyte/c/fmbscmp.c
                _TEXT                 CODE           6fe14bc0  !      000000fd
                CONST                 DATA           6fe4d00c  !      00000000
                CONST2                DATA           6fe4d068  !      00000000
                _DATA                 DATA           6fe4d4fc  !      00000000
/mnt/sda5/.user/root/src/openwatcom-1.9/bld/clib/mbyte/c/fmbscpy.c
                _TEXT                 CODE           6fe14cc0  !      00000049
                CONST                 DATA           6fe4d00c  !      00000000
                CONST2                DATA           6fe4d068  !      00000000
                _DATA                 DATA           6fe4d4fc  !      00000000
/mnt/sda5/.user/root/src/openwatcom-1.9/bld/clib/mbyte/c/fmbscspn.c
                _TEXT                 CODE           6fe14d10  !      00000096
                CONST                 DATA           6fe4d00c  !      00000000
                CONST2                DATA           6fe4d068  !      00000000
                _DATA                 DATA           6fe4d4fc  !      00000000
/mnt/sda5/.user/root/src/openwatcom-1.9/bld/clib/mbyte/c/fmbsdup.c
                _TEXT                 CODE           6fe14db0  !      0000007a
                CONST                 DATA           6fe4d00c  !      00000000
                CONST2                DATA           6fe4d068  !      00000000
                _DATA                 DATA           6fe4d4fc  !      00000000
/mnt/sda5/.user/root/src/openwatcom-1.9/bld/clib/mbyte/c/fmbsdec.c
                _TEXT                 CODE           6fe14e30  !      00000108
                CONST                 DATA           6fe4d00c  !      00000000
                CONST2                DATA           6fe4d068  !      00000000
                _DATA                 DATA           6fe4d4fc  !      00000000
/mnt/sda5/.user/root/src/openwatcom-1.9/bld/clib/mbyte/c/fmbsicmp.c
                _TEXT                 CODE           6fe14f40  !      000000fd
                CONST                 DATA           6fe4d00c  !      00000000
                CONST2                DATA           6fe4d068  !      00000000
                _DATA                 DATA           6fe4d4fc  !      00000000
/mnt/sda5/.user/root/src/openwatcom-1.9/bld/clib/mbyte/c/fmbsinc.c
                _TEXT                 CODE           6fe15040  !      00000087
                CONST                 DATA           6fe4d00c  !      00000000
                CONST2                DATA           6fe4d068  !      00000000
                _DATA                 DATA           6fe4d4fc  !      00000000
/mnt/sda5/.user/root/src/openwatcom-1.9/bld/clib/mbyte/c/_fmbslen.c
                _TEXT                 CODE           6fe150d0  !      000000b4
                CONST                 DATA           6fe4d00c  !      00000000
                CONST2                DATA           6fe4d068  !      00000000
                _DATA                 DATA           6fe4d4fc  !      00000000
/mnt/sda5/.user/root/src/openwatcom-1.9/bld/clib/mbyte/c/fmbslen.c
                _TEXT                 CODE           6fe15190  !      00000061
                CONST                 DATA           6fe4d00c  !      00000000
                CONST2                DATA           6fe4d068  !      00000000
                _DATA                 DATA           6fe4d4fc  !      00000000
/mnt/sda5/.user/root/src/openwatcom-1.9/bld/clib/mbyte/c/fmbslwr.c
                _TEXT                 CODE           6fe15200  !      000000d1
                CONST                 DATA           6fe4d00c  !      00000000
                CONST2                DATA           6fe4d068  !      00000000
                _DATA                 DATA           6fe4d4fc  !      00000000
/mnt/sda5/.user/root/src/openwatcom-1.9/bld/clib/mbyte/c/fmbsnbca.c
                _TEXT                 CODE           6fe152e0  !      000001e9
                CONST                 DATA           6fe4d00c  !      00000000
                CONST2                DATA           6fe4d068  !      00000000
                _DATA                 DATA           6fe4d4fc  !      00000000
/mnt/sda5/.user/root/src/openwatcom-1.9/bld/clib/mbyte/c/fmbsnbcm.c
                _TEXT                 CODE           6fe154d0  !      00000119
                CONST                 DATA           6fe4d00c  !      00000000
                CONST2                DATA           6fe4d068  !      00000000
                _DATA                 DATA           6fe4d4fc  !      00000000
/mnt/sda5/.user/root/src/openwatcom-1.9/bld/clib/mbyte/c/fmbsnbcn.c
                _TEXT                 CODE           6fe155f0  !      000000d8
                CONST                 DATA           6fe4d00c  !      00000000
                CONST2                DATA           6fe4d068  !      00000000
                _DATA                 DATA           6fe4d4fc  !      00000000
/mnt/sda5/.user/root/src/openwatcom-1.9/bld/clib/mbyte/c/fmbsnbcp.c
                _TEXT                 CODE           6fe156d0  !      000000f5
                CONST                 DATA           6fe4d00c  !      00000000
                CONST2                DATA           6fe4d068  !      00000000
                _DATA                 DATA           6fe4d4fc  !      00000000
/mnt/sda5/.user/root/src/openwatcom-1.9/bld/clib/mbyte/c/fmbsnbic.c
                _TEXT                 CODE           6fe157d0  !      00000119
                CONST                 DATA           6fe4d00c  !      00000000
                CONST2                DATA           6fe4d068  !      00000000
                _DATA                 DATA           6fe4d4fc  !      00000000
/mnt/sda5/.user/root/src/openwatcom-1.9/bld/clib/mbyte/c/fmbsnbst.c
                _TEXT                 CODE           6fe158f0  !      000000ce
                CONST                 DATA           6fe4d00c  !      00000000
                CONST2                DATA           6fe4d068  !      00000000
                _DATA                 DATA           6fe4d4fc  !      00000000
/mnt/sda5/.user/root/src/openwatcom-1.9/bld/clib/mbyte/c/fmbsncat.c
                _TEXT                 CODE           6fe159c0  !      00000099
                CONST                 DATA           6fe4d00c  !      00000000
                CONST2                DATA           6fe4d068  !      00000000
                _DATA                 DATA           6fe4d4fc  !      00000000
/mnt/sda5/.user/root/src/openwatcom-1.9/bld/clib/mbyte/c/fmbsnccn.c
                _TEXT                 CODE           6fe15a60  !      00000087
                CONST                 DATA           6fe4d00c  !      00000000
                CONST2                DATA           6fe4d068  !      00000000
                _DATA                 DATA           6fe4d4fc  !      00000000
/mnt/sda5/.user/root/src/openwatcom-1.9/bld/clib/mbyte/c/fmbsncmp.c
                _TEXT                 CODE           6fe15af0  !      0000011c
                CONST                 DATA           6fe4d00c  !      00000000
                CONST2                DATA           6fe4d068  !      00000000
                _DATA                 DATA           6fe4d4fc  !      00000000
/mnt/sda5/.user/root/src/openwatcom-1.9/bld/clib/mbyte/c/fmbsncpy.c
                _TEXT                 CODE           6fe15c10  !      00000061
                CONST                 DATA           6fe4d00c  !      00000000
                CONST2                DATA           6fe4d068  !      00000000
                _DATA                 DATA           6fe4d4fc  !      00000000
/mnt/sda5/.user/root/src/openwatcom-1.9/bld/clib/mbyte/c/fmbsnxtc.c
                _TEXT                 CODE           6fe15c80  !      0000007a
                CONST                 DATA           6fe4d00c  !      00000000
                CONST2                DATA           6fe4d068  !      00000000
                _DATA                 DATA           6fe4d4fc  !      00000000
/mnt/sda5/.user/root/src/openwatcom-1.9/bld/clib/mbyte/c/fmbsnicm.c
                _TEXT                 CODE           6fe15d00  !      000000ef
                CONST                 DATA           6fe4d00c  !      00000000
                CONST2                DATA           6fe4d068  !      00000000
                _DATA                 DATA           6fe4d4fc  !      00000000
/mnt/sda5/.user/root/src/openwatcom-1.9/bld/clib/mbyte/c/_fmbsnin.c
                _TEXT                 CODE           6fe15df0  !      000000b1
                CONST                 DATA           6fe4d00c  !      00000000
                CONST2                DATA           6fe4d068  !      00000000
                _DATA                 DATA           6fe4d4fc  !      00000000
/mnt/sda5/.user/root/src/openwatcom-1.9/bld/clib/mbyte/c/fmbsninc.c
                _TEXT                 CODE           6fe15eb0  !      00000075
                CONST                 DATA           6fe4d00c  !      00000000
                CONST2                DATA           6fe4d068  !      00000000
                _DATA                 DATA           6fe4d4fc  !      00000000
/mnt/sda5/.user/root/src/openwatcom-1.9/bld/clib/mbyte/c/fmbsnset.c
                _TEXT                 CODE           6fe15f30  !      0000009a
                CONST                 DATA           6fe4d00c  !      00000000
                CONST2                DATA           6fe4d068  !      00000000
                _DATA                 DATA           6fe4d4fc  !      00000000
/mnt/sda5/.user/root/src/openwatcom-1.9/bld/clib/mbyte/c/fmbspbrk.c
                _TEXT                 CODE           6fe15fd0  !      0000009f
                CONST                 DATA           6fe4d00c  !      00000000
                CONST2                DATA           6fe4d068  !      00000000
                _DATA                 DATA           6fe4d4fc  !      00000000
/mnt/sda5/.user/root/src/openwatcom-1.9/bld/clib/mbyte/c/fmbsrchr.c
                _TEXT                 CODE           6fe16070  !      000000a8
                CONST                 DATA           6fe4d00c  !      00000000
                CONST2                DATA           6fe4d068  !      00000000
                _DATA                 DATA           6fe4d4fc  !      00000000
/mnt/sda5/.user/root/src/openwatcom-1.9/bld/clib/mbyte/c/fmbsrev.c
                _TEXT                 CODE           6fe16120  !      00000173
                CONST                 DATA           6fe4d00c  !      00000000
                CONST2                DATA           6fe4d068  !      00000000
                _DATA                 DATA           6fe4d4fc  !      00000000
/mnt/sda5/.user/root/src/openwatcom-1.9/bld/clib/mbyte/c/fmbsrtow.c
                _TEXT                 CODE           6fe162a0  !      0000017f
                CONST                 DATA           6fe4d00c  !      00000000
                CONST2                DATA           6fe4d068  !      00000000
                _DATA                 DATA           6fe4d4fc  !      00000000
/mnt/sda5/.user/root/src/openwatcom-1.9/bld/clib/mbyte/c/fmbsrt_s.c
                _TEXT                 CODE           6fe16420  !      0000051d
                CONST                 DATA           6fe4d00c  !      00000000
                CONST2                DATA           6fe4d068  !      00000000
                _DATA                 DATA           6fe4d4fc  !      00000000
/mnt/sda5/.user/root/src/openwatcom-1.9/bld/clib/mbyte/c/fmbsset.c
                _TEXT                 CODE           6fe16940  !      00000055
                CONST                 DATA           6fe4d00c  !      00000000
                CONST2                DATA           6fe4d068  !      00000000
                _DATA                 DATA           6fe4d4fc  !      00000000
/mnt/sda5/.user/root/src/openwatcom-1.9/bld/clib/mbyte/c/fmbsspn.c
                _TEXT                 CODE           6fe169a0  !      00000096
                CONST                 DATA           6fe4d00c  !      00000000
                CONST2                DATA           6fe4d068  !      00000000
                _DATA                 DATA           6fe4d4fc  !      00000000
/mnt/sda5/.user/root/src/openwatcom-1.9/bld/clib/mbyte/c/fmbsspnp.c
                _TEXT                 CODE           6fe16a40  !      0000009d
                CONST                 DATA           6fe4d00c  !      00000000
                CONST2                DATA           6fe4d068  !      00000000
                _DATA                 DATA           6fe4d4fc  !      00000000
/mnt/sda5/.user/root/src/openwatcom-1.9/bld/clib/mbyte/c/fmbsstr.c
                _TEXT                 CODE           6fe16ae0  !      000000a3
                CONST                 DATA           6fe4d00c  !      00000000
                CONST2                DATA           6fe4d068  !      00000000
                _DATA                 DATA           6fe4d4fc  !      00000000
/mnt/sda5/.user/root/src/openwatcom-1.9/bld/clib/mbyte/c/fmbstok.c
                _TEXT                 CODE           6fe16b90  !      00000201
                CONST                 DATA           6fe4d00c  !      00000000
                CONST2                DATA           6fe4d068  !      00000000
                _DATA                 DATA           6fe4d4fc  !      00000000
/mnt/sda5/.user/root/src/openwatcom-1.9/bld/clib/mbyte/c/fmbsto_s.c
                _TEXT                 CODE           6fe16da0  !      000003e7
                CONST                 DATA           6fe4d00c  !      00000000
                CONST2                DATA           6fe4d068  !      00000000
                _DATA                 DATA           6fe4d4fc  !      00000000
/mnt/sda5/.user/root/src/openwatcom-1.9/bld/clib/mbyte/c/fmbstowc.c
                _TEXT                 CODE           6fe17190  !      00000134
                CONST                 DATA           6fe4d00c  !      00000000
                CONST2                DATA           6fe4d068  !      00000000
                _DATA                 DATA           6fe4d4fc  !      00000000
/mnt/sda5/.user/root/src/openwatcom-1.9/bld/clib/mbyte/c/fmbsupr.c
                _TEXT                 CODE           6fe172d0  !      000000d1
                CONST                 DATA           6fe4d00c  !      00000000
                CONST2                DATA           6fe4d068  !      00000000
                _DATA                 DATA           6fe4d4fc  !      00000000
/mnt/sda5/.user/root/src/openwatcom-1.9/bld/clib/mbyte/c/fmbterm.c
                _TEXT                 CODE           6fe173b0  !      00000089
                CONST                 DATA           6fe4d00c  !      00000000
                CONST2                DATA           6fe4d068  !      00000000
                _DATA                 DATA           6fe4d4fc  !      00000000
/mnt/sda5/.user/root/src/openwatcom-1.9/bld/clib/mbyte/c/fmbtowc.c
                _TEXT                 CODE           6fe17440  !      00000146
                CONST                 DATA           6fe4d00c  !      00000000
                CONST2                DATA           6fe4d068  !      00000000
                _DATA                 DATA           6fe4d4fc  !      00000000
/mnt/sda5/.user/root/src/openwatcom-1.9/bld/clib/mbyte/c/fwcrtomb.c
                _TEXT                 CODE           6fe17590  !      0000007e
                CONST                 DATA           6fe4d00c  !      00000000
                CONST2                DATA           6fe4d068  !      00000000
                _DATA                 DATA           6fe4d4fc  !      00000000
/mnt/sda5/.user/root/src/openwatcom-1.9/bld/clib/mbyte/c/fwcrto_s.c
                _TEXT                 CODE           6fe17610  !      00000231
                CONST                 DATA           6fe4d00c  !      00000000
                CONST2                DATA           6fe4d068  !      00000000
                _DATA                 DATA           6fe4d4fc  !      00000000
/mnt/sda5/.user/root/src/openwatcom-1.9/bld/clib/mbyte/c/fwcsrtom.c
                _TEXT                 CODE           6fe17850  !      000001cc
                CONST                 DATA           6fe4d00c  !      00000000
                CONST2                DATA           6fe4d068  !      00000000
                _DATA                 DATA           6fe4d4fc  !      00000000
/mnt/sda5/.user/root/src/openwatcom-1.9/bld/clib/mbyte/c/fwcstomb.c
                _TEXT                 CODE           6fe17a20  !      00000147
                CONST                 DATA           6fe4d00c  !      00000000
                CONST2                DATA           6fe4d068  !      00000000
                _DATA                 DATA           6fe4d4fc  !      00000000
/mnt/sda5/.user/root/src/openwatcom-1.9/bld/clib/mbyte/c/fwcsto_s.c
                _TEXT                 CODE           6fe17b70  !      000003aa
                CONST                 DATA           6fe4d00c  !      00000000
                CONST2                DATA           6fe4d068  !      00000000
                _DATA                 DATA           6fe4d4fc  !      00000000
/mnt/sda5/.user/root/src/openwatcom-1.9/bld/clib/mbyte/c/fwctomb.c
                _TEXT                 CODE           6fe17f20  !      0000006f
                CONST                 DATA           6fe4d00c  !      00000000
                CONST2                DATA           6fe4d068  !      00000000
                _DATA                 DATA           6fe4d4fc  !      00000000
/mnt/sda5/.user/root/src/openwatcom-1.9/bld/clib/mbyte/c/fwctom_s.c
                _TEXT                 CODE           6fe17f90  !      0000017e
                CONST                 DATA           6fe4d00c  !      00000000
                CONST2                DATA           6fe4d068  !      00000000
                _DATA                 DATA           6fe4d4fc  !      00000000
/mnt/sda5/.user/root/src/openwatcom-1.9/bld/clib/mbyte/c/getmbcp.c
                _TEXT                 CODE           6fe18110  !      0000003a
                CONST                 DATA           6fe4d00c  !      00000000
                CONST2                DATA           6fe4d068  !      00000000
                _DATA                 DATA           6fe4d4fc  !      00000000
/mnt/sda5/.user/root/src/openwatcom-1.9/bld/clib/mbyte/c/ismbbaln.c
                _TEXT                 CODE           6fe18150  !      0000006d
                CONST                 DATA           6fe4d00c  !      00000000
                CONST2                DATA           6fe4d068  !      00000000
                _DATA                 DATA           6fe4d4fc  !      00000000
/mnt/sda5/.user/root/src/openwatcom-1.9/bld/clib/mbyte/c/ismbbalp.c
                _TEXT                 CODE           6fe181c0  !      0000006d
                CONST                 DATA           6fe4d00c  !      00000000
                CONST2                DATA           6fe4d068  !      00000000
                _DATA                 DATA           6fe4d4fc  !      00000000
/mnt/sda5/.user/root/src/openwatcom-1.9/bld/clib/mbyte/c/ismbbgra.c
                _TEXT                 CODE           6fe18230  !      00000070
                CONST                 DATA           6fe4d00c  !      00000000
                CONST2                DATA           6fe4d068  !      00000000
                _DATA                 DATA           6fe4d4fc  !      00000000
/mnt/sda5/.user/root/src/openwatcom-1.9/bld/clib/mbyte/c/ismbbkal.c
                _TEXT                 CODE           6fe182a0  !      00000047
                CONST                 DATA           6fe4d00c  !      00000000
                CONST2                DATA           6fe4d068  !      00000000
                _DATA                 DATA           6fe4d4fc  !      00000000
/mnt/sda5/.user/root/src/openwatcom-1.9/bld/clib/mbyte/c/ismbbkan.c
                _TEXT                 CODE           6fe182f0  !      00000047
                CONST                 DATA           6fe4d00c  !      00000000
                CONST2                DATA           6fe4d068  !      00000000
                _DATA                 DATA           6fe4d4fc  !      00000000
/mnt/sda5/.user/root/src/openwatcom-1.9/bld/clib/mbyte/c/ismbbkpu.c
                _TEXT                 CODE           6fe18340  !      00000047
                CONST                 DATA           6fe4d00c  !      00000000
                CONST2                DATA           6fe4d068  !      00000000
                _DATA                 DATA           6fe4d4fc  !      00000000
/mnt/sda5/.user/root/src/openwatcom-1.9/bld/clib/mbyte/c/ismbbkpr.c
                _TEXT                 CODE           6fe18390  !      00000047
                CONST                 DATA           6fe4d00c  !      00000000
                CONST2                DATA           6fe4d068  !      00000000
                _DATA                 DATA           6fe4d4fc  !      00000000
/mnt/sda5/.user/root/src/openwatcom-1.9/bld/clib/mbyte/c/ismbbpri.c
                _TEXT                 CODE           6fe183e0  !      0000006d
                CONST                 DATA           6fe4d00c  !      00000000
                CONST2                DATA           6fe4d068  !      00000000
                _DATA                 DATA           6fe4d4fc  !      00000000
/mnt/sda5/.user/root/src/openwatcom-1.9/bld/clib/mbyte/c/ismbbpun.c
                _TEXT                 CODE           6fe18450  !      0000006d
                CONST                 DATA           6fe4d00c  !      00000000
                CONST2                DATA           6fe4d068  !      00000000
                _DATA                 DATA           6fe4d4fc  !      00000000
/mnt/sda5/.user/root/src/openwatcom-1.9/bld/clib/mbyte/c/ismbchir.c
                _TEXT                 CODE           6fe184c0  !      0000003d
                CONST                 DATA           6fe4d00c  !      00000000
                CONST2                DATA           6fe4d068  !      00000000
                _DATA                 DATA           6fe4d4fc  !      00000000
/mnt/sda5/.user/root/src/openwatcom-1.9/bld/clib/mbyte/c/ismbckat.c
                _TEXT                 CODE           6fe18500  !      0000003d
                CONST                 DATA           6fe4d00c  !      00000000
                CONST2                DATA           6fe4d068  !      00000000
                _DATA                 DATA           6fe4d4fc  !      00000000
/mnt/sda5/.user/root/src/openwatcom-1.9/bld/clib/mbyte/c/mbbtombc.c
                _TEXT                 CODE           6fe18540  !      0000003c
                CONST                 DATA           6fe4d00c  !      00000000
                CONST2                DATA           6fe4d068  !      00000000
                _DATA                 DATA           6fe4d4fc  !      00000000
/mnt/sda5/.user/root/src/openwatcom-1.9/bld/clib/mbyte/c/mbctombb.c
                _TEXT                 CODE           6fe18580  !      0000003c
                CONST                 DATA           6fe4d00c  !      00000000
                CONST2                DATA           6fe4d068  !      00000000
                _DATA                 DATA           6fe4d4fc  !      00000000
/mnt/sda5/.user/root/src/openwatcom-1.9/bld/clib/mbyte/c/mbbtype.c
                _TEXT                 CODE           6fe185c0  !      00000147
                CONST                 DATA           6fe4d00c  !      00000000
                CONST2                DATA           6fe4d068  !      00000000
                _DATA                 DATA           6fe4d4fc  !      00000000
/mnt/sda5/.user/root/src/openwatcom-1.9/bld/clib/mbyte/c/mbccmp.c
                _TEXT                 CODE           6fe18710  !      0000008e
                CONST                 DATA           6fe4d00c  !      00000000
                CONST2                DATA           6fe4d068  !      00000000
                _DATA                 DATA           6fe4d4fc  !      00000000
/mnt/sda5/.user/root/src/openwatcom-1.9/bld/clib/mbyte/c/mbccpy.c
                _TEXT                 CODE           6fe187a0  !      0000006f
                CONST                 DATA           6fe4d00c  !      00000000
                CONST2                DATA           6fe4d068  !      00000000
                _DATA                 DATA           6fe4d4fc  !      00000000
/mnt/sda5/.user/root/src/openwatcom-1.9/bld/clib/mbyte/c/mbcicmp.c
                _TEXT                 CODE           6fe18810  !      0000007a
                CONST                 DATA           6fe4d00c  !      00000000
                CONST2                DATA           6fe4d068  !      00000000
                _DATA                 DATA           6fe4d4fc  !      00000000
/mnt/sda5/.user/root/src/openwatcom-1.9/bld/clib/mbyte/c/mbclen.c
                _TEXT                 CODE           6fe18890  !      00000065
                CONST                 DATA           6fe4d00c  !      00000000
                CONST2                DATA           6fe4d068  !      00000000
                _DATA                 DATA           6fe4d4fc  !      00000000
/mnt/sda5/.user/root/src/openwatcom-1.9/bld/clib/mbyte/c/mbclower.c
                _TEXT                 CODE           6fe18900  !      00000045
                CONST                 DATA           6fe4d00c  !      00000000
                CONST2                DATA           6fe4d068  !      00000000
                _DATA                 DATA           6fe4d4fc  !      00000000
/mnt/sda5/.user/root/src/openwatcom-1.9/bld/clib/mbyte/c/mbconv.c
                _TEXT                 CODE           6fe18950  !      0000004b
                CONST                 DATA           6fe4d00c  !      00000000
                CONST2                DATA           6fe4d068  !      00000000
                _DATA                 DATA           6fe4d4fc  !      00000000
/mnt/sda5/.user/root/src/openwatcom-1.9/bld/clib/mbyte/c/mbcupper.c
                _TEXT                 CODE           6fe189a0  !      00000045
                CONST                 DATA           6fe4d00c  !      00000000
                CONST2                DATA           6fe4d068  !      00000000
                _DATA                 DATA           6fe4d4fc  !      00000000
/mnt/sda5/.user/root/src/openwatcom-1.9/bld/clib/mbyte/c/mbgetcod.c
                _TEXT                 CODE           6fe189f0  !      000000ca
                CONST                 DATA           6fe4d00c  !      00000000
                CONST2                DATA           6fe4d068  !      00000000
                _DATA                 DATA           6fe4d4fc  !      00000000
/mnt/sda5/.user/root/src/openwatcom-1.9/bld/clib/mbyte/c/mbisalnu.c
                _TEXT                 CODE           6fe18ac0  !      0000007c
                CONST                 DATA           6fe4d00c  !      00000000
                CONST2                DATA           6fe4d068  !      00000000
                _DATA                 DATA           6fe4d4fc  !      00000000
/mnt/sda5/.user/root/src/openwatcom-1.9/bld/clib/mbyte/c/mbisalph.c
                _TEXT                 CODE           6fe18b40  !      0000007c
                CONST                 DATA           6fe4d00c  !      00000000
                CONST2                DATA           6fe4d068  !      00000000
                _DATA                 DATA           6fe4d4fc  !      00000000
/mnt/sda5/.user/root/src/openwatcom-1.9/bld/clib/mbyte/c/mbiscntr.c
                _TEXT                 CODE           6fe18bc0  !      0000007c
                CONST                 DATA           6fe4d00c  !      00000000
                CONST2                DATA           6fe4d068  !      00000000
                _DATA                 DATA           6fe4d4fc  !      00000000
/mnt/sda5/.user/root/src/openwatcom-1.9/bld/clib/mbyte/c/mbisdbcs.c
                _TEXT                 CODE           6fe18c40  !      00000000
                CONST                 DATA           6fe4d00c  !      00000000
                CONST2                DATA           6fe4d068  !      00000000
                _DATA                 DATA           6fe4d4fc  !      00000000
                _BSS                  BSS            6fe4f0b4  !      00000004
/mnt/sda5/.user/root/src/openwatcom-1.9/bld/clib/mbyte/c/mbisdigi.c
                _TEXT                 CODE           6fe18c40  !      0000007c
                CONST                 DATA           6fe4d00c  !      00000000
                CONST2                DATA           6fe4d068  !      00000000
                _DATA                 DATA           6fe4d4fc  !      00000000
/mnt/sda5/.user/root/src/openwatcom-1.9/bld/clib/mbyte/c/mbisgrap.c
                _TEXT                 CODE           6fe18cc0  !      0000004d
                CONST                 DATA           6fe4d00c  !      00000000
                CONST2                DATA           6fe4d068  !      00000000
                _DATA                 DATA           6fe4d4fc  !      00000000
/mnt/sda5/.user/root/src/openwatcom-1.9/bld/clib/mbyte/c/mbislead.c
                _TEXT                 CODE           6fe18d10  !      0000004e
                CONST                 DATA           6fe4d00c  !      00000000
                CONST2                DATA           6fe4d068  !      00000000
                _DATA                 DATA           6fe4d4fc  !      00000000
                _BSS                  BSS            6fe4f0b8  !      00000101
                XIB                   DATA           6fe4dcd8  !      00000000
                XI                    DATA           6fe4dcea  !      00000006
                XIE                   DATA           6fe4dd32  !      00000000
/mnt/sda5/.user/root/src/openwatcom-1.9/bld/clib/mbyte/c/mbislegl.c
                _TEXT                 CODE           6fe18d60  !      0000008a
                CONST                 DATA           6fe4d00c  !      00000000
                CONST2                DATA           6fe4d068  !      00000000
                _DATA                 DATA           6fe4d4fc  !      00000000
/mnt/sda5/.user/root/src/openwatcom-1.9/bld/clib/mbyte/c/mbislowe.c
                _TEXT                 CODE           6fe18df0  !      0000007c
                CONST                 DATA           6fe4d00c  !      00000000
                CONST2                DATA           6fe4d068  !      00000000
                _DATA                 DATA           6fe4d4fc  !      00000000
/mnt/sda5/.user/root/src/openwatcom-1.9/bld/clib/mbyte/c/mbisprin.c
                _TEXT                 CODE           6fe18e70  !      0000008d
                CONST                 DATA           6fe4d00c  !      00000000
                CONST2                DATA           6fe4d068  !      00000000
                _DATA                 DATA           6fe4d4fc  !      00000000
/mnt/sda5/.user/root/src/openwatcom-1.9/bld/clib/mbyte/c/mbispunc.c
                _TEXT                 CODE           6fe18f00  !      0000007c
                CONST                 DATA           6fe4d00c  !      00000000
                CONST2                DATA           6fe4d068  !      00000000
                _DATA                 DATA           6fe4d4fc  !      00000000
/mnt/sda5/.user/root/src/openwatcom-1.9/bld/clib/mbyte/c/mbisspac.c
                _TEXT                 CODE           6fe18f80  !      0000007c
                CONST                 DATA           6fe4d00c  !      00000000
                CONST2                DATA           6fe4d068  !      00000000
                _DATA                 DATA           6fe4d4fc  !      00000000
/mnt/sda5/.user/root/src/openwatcom-1.9/bld/clib/mbyte/c/mbissymb.c
                _TEXT                 CODE           6fe19000  !      00000067
                CONST                 DATA           6fe4d00c  !      00000000
                CONST2                DATA           6fe4d068  !      00000000
                _DATA                 DATA           6fe4d4fc  !      00000000
/mnt/sda5/.user/root/src/openwatcom-1.9/bld/clib/mbyte/c/mbistrai.c
                _TEXT                 CODE           6fe19070  !      00000068
                CONST                 DATA           6fe4d00c  !      00000000
                CONST2                DATA           6fe4d068  !      00000000
                _DATA                 DATA           6fe4d4fc  !      00000000
/mnt/sda5/.user/root/src/openwatcom-1.9/bld/clib/mbyte/c/mbisuppe.c
                _TEXT                 CODE           6fe190e0  !      0000007c
                CONST                 DATA           6fe4d00c  !      00000000
                CONST2                DATA           6fe4d068  !      00000000
                _DATA                 DATA           6fe4d4fc  !      00000000
/mnt/sda5/.user/root/src/openwatcom-1.9/bld/clib/mbyte/c/mbisxdig.c
                _TEXT                 CODE           6fe19160  !      0000007c
                CONST                 DATA           6fe4d00c  !      00000000
                CONST2                DATA           6fe4d068  !      00000000
                _DATA                 DATA           6fe4d4fc  !      00000000
/mnt/sda5/.user/root/src/openwatcom-1.9/bld/clib/mbyte/c/mblen.c
                _TEXT                 CODE           6fe191e0  !      0000002e
                CONST                 DATA           6fe4d00c  !      00000000
                CONST2                DATA           6fe4d068  !      00000000
                _DATA                 DATA           6fe4d4fc  !      00000000
/mnt/sda5/.user/root/src/openwatcom-1.9/bld/clib/mbyte/c/mbputchr.c
                _TEXT                 CODE           6fe19210  !      00000065
                CONST                 DATA           6fe4d00c  !      00000000
                CONST2                DATA           6fe4d068  !      00000000
                _DATA                 DATA           6fe4d4fc  !      00000000
/mnt/sda5/.user/root/src/openwatcom-1.9/bld/clib/mbyte/c/mbrlen.c
                _TEXT                 CODE           6fe19280  !      00000031
                CONST                 DATA           6fe4d00c  !      00000000
                CONST2                DATA           6fe4d068  !      00000000
                _DATA                 DATA           6fe4d4fc  !      00000000
/mnt/sda5/.user/root/src/openwatcom-1.9/bld/clib/mbyte/c/mbrtowc.c
                _TEXT                 CODE           6fe192c0  !      000000b7
                CONST                 DATA           6fe4d00c  !      00000000
                CONST2                DATA           6fe4d068  !      00000000
                _DATA                 DATA           6fe4d4fc  !      00000000
/mnt/sda5/.user/root/src/openwatcom-1.9/bld/clib/mbyte/c/mbsbtype.c
                _TEXT                 CODE           6fe19380  !      00000061
                CONST                 DATA           6fe4d00c  !      00000000
                CONST2                DATA           6fe4d068  !      00000000
                _DATA                 DATA           6fe4d4fc  !      00000000
/mnt/sda5/.user/root/src/openwatcom-1.9/bld/clib/mbyte/c/mbscat.c
                _TEXT                 CODE           6fe193f0  !      0000002c
                CONST                 DATA           6fe4d00c  !      00000000
                CONST2                DATA           6fe4d068  !      00000000
                _DATA                 DATA           6fe4d4fc  !      00000000
/mnt/sda5/.user/root/src/openwatcom-1.9/bld/clib/mbyte/c/mbschr.c
                _TEXT                 CODE           6fe19420  !      00000081
                CONST                 DATA           6fe4d00c  !      00000000
                CONST2                DATA           6fe4d068  !      00000000
                _DATA                 DATA           6fe4d4fc  !      00000000
/mnt/sda5/.user/root/src/openwatcom-1.9/bld/clib/mbyte/c/mbscmp.c
                _TEXT                 CODE           6fe194b0  !      000000a5
                CONST                 DATA           6fe4d00c  !      00000000
                CONST2                DATA           6fe4d068  !      00000000
                _DATA                 DATA           6fe4d4fc  !      00000000
/mnt/sda5/.user/root/src/openwatcom-1.9/bld/clib/mbyte/c/mbscpy.c
                _TEXT                 CODE           6fe19560  !      0000002c
                CONST                 DATA           6fe4d00c  !      00000000
                CONST2                DATA           6fe4d068  !      00000000
                _DATA                 DATA           6fe4d4fc  !      00000000
/mnt/sda5/.user/root/src/openwatcom-1.9/bld/clib/mbyte/c/mbscspn.c
                _TEXT                 CODE           6fe19590  !      00000060
                CONST                 DATA           6fe4d00c  !      00000000
                CONST2                DATA           6fe4d068  !      00000000
                _DATA                 DATA           6fe4d4fc  !      00000000
/mnt/sda5/.user/root/src/openwatcom-1.9/bld/clib/mbyte/c/mbsdec.c
                _TEXT                 CODE           6fe195f0  !      000000d1
                CONST                 DATA           6fe4d00c  !      00000000
                CONST2                DATA           6fe4d068  !      00000000
                _DATA                 DATA           6fe4d4fc  !      00000000
/mnt/sda5/.user/root/src/openwatcom-1.9/bld/clib/mbyte/c/mbsdup.c
                _TEXT                 CODE           6fe196d0  !      0000004e
                CONST                 DATA           6fe4d00c  !      00000000
                CONST2                DATA           6fe4d068  !      00000000
                _DATA                 DATA           6fe4d4fc  !      00000000
/mnt/sda5/.user/root/src/openwatcom-1.9/bld/clib/mbyte/c/mbsicmp.c
                _TEXT                 CODE           6fe19720  !      000000a5
                CONST                 DATA           6fe4d00c  !      00000000
                CONST2                DATA           6fe4d068  !      00000000
                _DATA                 DATA           6fe4d4fc  !      00000000
/mnt/sda5/.user/root/src/openwatcom-1.9/bld/clib/mbyte/c/mbsinc.c
                _TEXT                 CODE           6fe197d0  !      0000006c
                CONST                 DATA           6fe4d00c  !      00000000
                CONST2                DATA           6fe4d068  !      00000000
                _DATA                 DATA           6fe4d4fc  !      00000000
/mnt/sda5/.user/root/src/openwatcom-1.9/bld/clib/mbyte/c/mbsinit.c
                _TEXT                 CODE           6fe19840  !      0000003b
                CONST                 DATA           6fe4d00c  !      00000000
                CONST2                DATA           6fe4d068  !      00000000
                _DATA                 DATA           6fe4d4fc  !      00000000
/mnt/sda5/.user/root/src/openwatcom-1.9/bld/clib/mbyte/c/_mbslen.c
                _TEXT                 CODE           6fe19880  !      00000098
                CONST                 DATA           6fe4d00c  !      00000000
                CONST2                DATA           6fe4d068  !      00000000
                _DATA                 DATA           6fe4d4fc  !      00000000
/mnt/sda5/.user/root/src/openwatcom-1.9/bld/clib/mbyte/c/mbslen.c
                _TEXT                 CODE           6fe19920  !      00000049
                CONST                 DATA           6fe4d00c  !      00000000
                CONST2                DATA           6fe4d068  !      00000000
                _DATA                 DATA           6fe4d4fc  !      00000000
/mnt/sda5/.user/root/src/openwatcom-1.9/bld/clib/mbyte/c/mbslwr.c
                _TEXT                 CODE           6fe19970  !      0000002d
                CONST                 DATA           6fe4d00c  !      00000000
                CONST2                DATA           6fe4d068  !      00000000
                _DATA                 DATA           6fe4d4fc  !      00000000
/mnt/sda5/.user/root/src/openwatcom-1.9/bld/clib/mbyte/c/mbsnbcat.c
                _TEXT                 CODE           6fe199a0  !      00000127
                CONST                 DATA           6fe4d00c  !      00000000
                CONST2                DATA           6fe4d068  !      00000000
                _DATA                 DATA           6fe4d4fc  !      00000000
/mnt/sda5/.user/root/src/openwatcom-1.9/bld/clib/mbyte/c/mbsnbcmp.c
                _TEXT                 CODE           6fe19ad0  !      000000c6
                CONST                 DATA           6fe4d00c  !      00000000
                CONST2                DATA           6fe4d068  !      00000000
                _DATA                 DATA           6fe4d4fc  !      00000000
/mnt/sda5/.user/root/src/openwatcom-1.9/bld/clib/mbyte/c/mbsnbcnt.c
                _TEXT                 CODE           6fe19ba0  !      000000b1
                CONST                 DATA           6fe4d00c  !      00000000
                CONST2                DATA           6fe4d068  !      00000000
                _DATA                 DATA           6fe4d4fc  !      00000000
/mnt/sda5/.user/root/src/openwatcom-1.9/bld/clib/mbyte/c/mbsnbcpy.c
                _TEXT                 CODE           6fe19c60  !      000000b0
                CONST                 DATA           6fe4d00c  !      00000000
                CONST2                DATA           6fe4d068  !      00000000
                _DATA                 DATA           6fe4d4fc  !      00000000
/mnt/sda5/.user/root/src/openwatcom-1.9/bld/clib/mbyte/c/mbsnbicm.c
                _TEXT                 CODE           6fe19d10  !      000000c6
                CONST                 DATA           6fe4d00c  !      00000000
                CONST2                DATA           6fe4d068  !      00000000
                _DATA                 DATA           6fe4d4fc  !      00000000
/mnt/sda5/.user/root/src/openwatcom-1.9/bld/clib/mbyte/c/mbsnbset.c
                _TEXT                 CODE           6fe19de0  !      0000007c
                CONST                 DATA           6fe4d00c  !      00000000
                CONST2                DATA           6fe4d068  !      00000000
                _DATA                 DATA           6fe4d4fc  !      00000000
/mnt/sda5/.user/root/src/openwatcom-1.9/bld/clib/mbyte/c/mbsncat.c
                _TEXT                 CODE           6fe19e60  !      0000005b
                CONST                 DATA           6fe4d00c  !      00000000
                CONST2                DATA           6fe4d068  !      00000000
                _DATA                 DATA           6fe4d4fc  !      00000000
/mnt/sda5/.user/root/src/openwatcom-1.9/bld/clib/mbyte/c/mbsnccnt.c
                _TEXT                 CODE           6fe19ec0  !      00000070
                CONST                 DATA           6fe4d00c  !      00000000
                CONST2                DATA           6fe4d068  !      00000000
                _DATA                 DATA           6fe4d4fc  !      00000000
/mnt/sda5/.user/root/src/openwatcom-1.9/bld/clib/mbyte/c/mbsncmp.c
                _TEXT                 CODE           6fe19f30  !      000000c3
                CONST                 DATA           6fe4d00c  !      00000000
                CONST2                DATA           6fe4d068  !      00000000
                _DATA                 DATA           6fe4d4fc  !      00000000
/mnt/sda5/.user/root/src/openwatcom-1.9/bld/clib/mbyte/c/mbsncpy.c
                _TEXT                 CODE           6fe1a000  !      0000003e
                CONST                 DATA           6fe4d00c  !      00000000
                CONST2                DATA           6fe4d068  !      00000000
                _DATA                 DATA           6fe4d4fc  !      00000000
/mnt/sda5/.user/root/src/openwatcom-1.9/bld/clib/mbyte/c/mbsnextc.c
                _TEXT                 CODE           6fe1a040  !      00000070
                CONST                 DATA           6fe4d00c  !      00000000
                CONST2                DATA           6fe4d068  !      00000000
                _DATA                 DATA           6fe4d4fc  !      00000000
/mnt/sda5/.user/root/src/openwatcom-1.9/bld/clib/mbyte/c/mbsnicmp.c
                _TEXT                 CODE           6fe1a0b0  !      000000a7
                CONST                 DATA           6fe4d00c  !      00000000
                CONST2                DATA           6fe4d068  !      00000000
                _DATA                 DATA           6fe4d4fc  !      00000000
/mnt/sda5/.user/root/src/openwatcom-1.9/bld/clib/mbyte/c/_mbsninc.c
                _TEXT                 CODE           6fe1a160  !      0000008f
                CONST                 DATA           6fe4d00c  !      00000000
                CONST2                DATA           6fe4d068  !      00000000
                _DATA                 DATA           6fe4d4fc  !      00000000
/mnt/sda5/.user/root/src/openwatcom-1.9/bld/clib/mbyte/c/mbsninc.c
                _TEXT                 CODE           6fe1a1f0  !      0000004d
                CONST                 DATA           6fe4d00c  !      00000000
                CONST2                DATA           6fe4d068  !      00000000
                _DATA                 DATA           6fe4d4fc  !      00000000
/mnt/sda5/.user/root/src/openwatcom-1.9/bld/clib/mbyte/c/mbsnset.c
                _TEXT                 CODE           6fe1a240  !      00000069
                CONST                 DATA           6fe4d00c  !      00000000
                CONST2                DATA           6fe4d068  !      00000000
                _DATA                 DATA           6fe4d4fc  !      00000000
/mnt/sda5/.user/root/src/openwatcom-1.9/bld/clib/mbyte/c/mbspbrk.c
                _TEXT                 CODE           6fe1a2b0  !      00000060
                CONST                 DATA           6fe4d00c  !      00000000
                CONST2                DATA           6fe4d068  !      00000000
                _DATA                 DATA           6fe4d4fc  !      00000000
/mnt/sda5/.user/root/src/openwatcom-1.9/bld/clib/mbyte/c/mbsrchr.c
                _TEXT                 CODE           6fe1a310  !      0000006b
                CONST                 DATA           6fe4d00c  !      00000000
                CONST2                DATA           6fe4d068  !      00000000
                _DATA                 DATA           6fe4d4fc  !      00000000
/mnt/sda5/.user/root/src/openwatcom-1.9/bld/clib/mbyte/c/mbsrev.c
                _TEXT                 CODE           6fe1a380  !      000000cd
                CONST                 DATA           6fe4d00c  !      00000000
                CONST2                DATA           6fe4d068  !      00000000
                _DATA                 DATA           6fe4d4fc  !      00000000
/mnt/sda5/.user/root/src/openwatcom-1.9/bld/clib/mbyte/c/mbsrtowc.c
                _TEXT                 CODE           6fe1a450  !      000000ee
                CONST                 DATA           6fe4d00c  !      00000000
                CONST2                DATA           6fe4d068  !      00000000
                _DATA                 DATA           6fe4d4fc  !      00000000
/mnt/sda5/.user/root/src/openwatcom-1.9/bld/clib/mbyte/c/mbsrto_s.c
                _TEXT                 CODE           6fe1a540  !      00000414
                CONST                 DATA           6fe4d00c  !      00000000
                CONST2                DATA           6fe4d068  !      00000000
                _DATA                 DATA           6fe4d4fc  !      00000000
/mnt/sda5/.user/root/src/openwatcom-1.9/bld/clib/mbyte/c/mbsset.c
                _TEXT                 CODE           6fe1a960  !      0000003a
                CONST                 DATA           6fe4d00c  !      00000000
                CONST2                DATA           6fe4d068  !      00000000
                _DATA                 DATA           6fe4d4fc  !      00000000
/mnt/sda5/.user/root/src/openwatcom-1.9/bld/clib/mbyte/c/mbsspn.c
                _TEXT                 CODE           6fe1a9a0  !      00000060
                CONST                 DATA           6fe4d00c  !      00000000
                CONST2                DATA           6fe4d068  !      00000000
                _DATA                 DATA           6fe4d4fc  !      00000000
/mnt/sda5/.user/root/src/openwatcom-1.9/bld/clib/mbyte/c/mbsspnp.c
                _TEXT                 CODE           6fe1aa00  !      0000005e
                CONST                 DATA           6fe4d00c  !      00000000
                CONST2                DATA           6fe4d068  !      00000000
                _DATA                 DATA           6fe4d4fc  !      00000000
/mnt/sda5/.user/root/src/openwatcom-1.9/bld/clib/mbyte/c/mbsstr.c
                _TEXT                 CODE           6fe1aa60  !      00000063
                CONST                 DATA           6fe4d00c  !      00000000
                CONST2                DATA           6fe4d068  !      00000000
                _DATA                 DATA           6fe4d4fc  !      00000000
/mnt/sda5/.user/root/src/openwatcom-1.9/bld/clib/mbyte/c/mbstok.c
                _TEXT                 CODE           6fe1aad0  !      00000135
                CONST                 DATA           6fe4d00c  !      00000000
                CONST2                DATA           6fe4d068  !      00000000
                _DATA                 DATA           6fe4d4fc  !      00000000
/mnt/sda5/.user/root/src/openwatcom-1.9/bld/clib/mbyte/c/mbstow_s.c
                _TEXT                 CODE           6fe1ac10  !      0000036b
                CONST                 DATA           6fe4d00c  !      00000000
                CONST2                DATA           6fe4d068  !      00000000
                _DATA                 DATA           6fe4d4fc  !      00000000
/mnt/sda5/.user/root/src/openwatcom-1.9/bld/clib/mbyte/c/mbstowcs.c
                _TEXT                 CODE           6fe1af80  !      000000d4
                CONST                 DATA           6fe4d00c  !      00000000
                CONST2                DATA           6fe4d068  !      00000000
                _DATA                 DATA           6fe4d4fc  !      00000000
/mnt/sda5/.user/root/src/openwatcom-1.9/bld/clib/mbyte/c/mbsupr.c
                _TEXT                 CODE           6fe1b060  !      0000002d
                CONST                 DATA           6fe4d00c  !      00000000
                CONST2                DATA           6fe4d068  !      00000000
                _DATA                 DATA           6fe4d4fc  !      00000000
/mnt/sda5/.user/root/src/openwatcom-1.9/bld/clib/mbyte/c/mbterm.c
                _TEXT                 CODE           6fe1b090  !      0000007b
                CONST                 DATA           6fe4d00c  !      00000000
                CONST2                DATA           6fe4d068  !      00000000
                _DATA                 DATA           6fe4d4fc  !      00000000
/mnt/sda5/.user/root/src/openwatcom-1.9/bld/clib/mbyte/c/mbtowc.c
                _TEXT                 CODE           6fe1b110  !      0000010e
                CONST                 DATA           6fe4d00c  !      00000000
                CONST2                DATA           6fe4d068  !      00000000
                _DATA                 DATA           6fe4d4fc  !      00000000
/mnt/sda5/.user/root/src/openwatcom-1.9/bld/clib/mbyte/c/setmbcp.c
                _TEXT                 CODE           6fe1b220  !      00000076
                CONST                 DATA           6fe4d00c  !      00000000
                CONST2                DATA           6fe4d068  !      00000000
                _DATA                 DATA           6fe4d4fc  !      00000000
/mnt/sda5/.user/root/src/openwatcom-1.9/bld/clib/mbyte/c/sisinit.c
                _TEXT                 CODE           6fe1b2a0  !      00000033
                CONST                 DATA           6fe4d00c  !      00000000
                CONST2                DATA           6fe4d068  !      00000000
                _DATA                 DATA           6fe4d4fc  !      00000000
/mnt/sda5/.user/root/src/openwatcom-1.9/bld/clib/mbyte/c/wcrtomb.c
                _TEXT                 CODE           6fe1b2e0  !      0000006d
                CONST                 DATA           6fe4d00c  !      00000000
                CONST2                DATA           6fe4d068  !      00000000
                _DATA                 DATA           6fe4d4fc  !      00000000
/mnt/sda5/.user/root/src/openwatcom-1.9/bld/clib/mbyte/c/wcrtom_s.c
                _TEXT                 CODE           6fe1b350  !      000001f5
                CONST                 DATA           6fe4d00c  !      00000000
                CONST2                DATA           6fe4d068  !      00000000
                _DATA                 DATA           6fe4d4fc  !      00000000
/mnt/sda5/.user/root/src/openwatcom-1.9/bld/clib/mbyte/c/wcsrtomb.c
                _TEXT                 CODE           6fe1b550  !      0000011e
                CONST                 DATA           6fe4d00c  !      00000000
                CONST2                DATA           6fe4d068  !      00000000
                _DATA                 DATA           6fe4d4fc  !      00000000
/mnt/sda5/.user/root/src/openwatcom-1.9/bld/clib/mbyte/c/wcsrto_s.c
                _TEXT                 CODE           6fe1b670  !      000003bf
                CONST                 DATA           6fe4d00c  !      00000000
                CONST2                DATA           6fe4d068  !      00000000
                _DATA                 DATA           6fe4d4fc  !      00000000
/mnt/sda5/.user/root/src/openwatcom-1.9/bld/clib/mbyte/c/wcstombs.c
                _TEXT                 CODE           6fe1ba30  !      000000f3
                CONST                 DATA           6fe4d00c  !      00000000
                CONST2                DATA           6fe4d068  !      00000000
                _DATA                 DATA           6fe4d4fc  !      00000000
/mnt/sda5/.user/root/src/openwatcom-1.9/bld/clib/mbyte/c/wcstom_s.c
                _TEXT                 CODE           6fe1bb30  !      00000333
                CONST                 DATA           6fe4d00c  !      00000000
                CONST2                DATA           6fe4d068  !      00000000
                _DATA                 DATA           6fe4d4fc  !      00000000
/mnt/sda5/.user/root/src/openwatcom-1.9/bld/clib/mbyte/c/wctob.c
                _TEXT                 CODE           6fe1be70  !      00000057
                CONST                 DATA           6fe4d00c  !      00000000
                CONST2                DATA           6fe4d068  !      00000000
                _DATA                 DATA           6fe4d4fc  !      00000000
/mnt/sda5/.user/root/src/openwatcom-1.9/bld/clib/mbyte/c/wctomb.c
                _TEXT                 CODE           6fe1bed0  !      00000066
                CONST                 DATA           6fe4d00c  !      00000000
                CONST2                DATA           6fe4d068  !      00000000
                _DATA                 DATA           6fe4d4fc  !      00000000
/mnt/sda5/.user/root/src/openwatcom-1.9/bld/clib/mbyte/c/wctomb_s.c
                _TEXT                 CODE           6fe1bf40  !      00000174
                CONST                 DATA           6fe4d00c  !      00000000
                CONST2                DATA           6fe4d068  !      00000000
                _DATA                 DATA           6fe4d4fc  !      00000000
/mnt/sda5/.user/root/src/openwatcom-1.9/bld/clib/mbyte/c/wrlang.c
                _TEXT                 CODE           6fe1c0c0  !      000000ef
                CONST                 DATA           6fe4d00c  !      00000000
                CONST2                DATA           6fe4d068  !      00000000
                _DATA                 DATA           6fe4d4fc  !      00000000
/mnt/sda5/.user/root/src/openwatcom-1.9/bld/clib/memory/c/bcmp.c
                _TEXT                 CODE           6fe1c1b0  !      00000041
                CONST                 DATA           6fe4d00c  !      00000000
                CONST2                DATA           6fe4d068  !      00000000
                _DATA                 DATA           6fe4d4fc  !      00000000
/mnt/sda5/.user/root/src/openwatcom-1.9/bld/clib/memory/c/bcopy.c
                _TEXT                 CODE           6fe1c200  !      0000002a
                CONST                 DATA           6fe4d00c  !      00000000
                CONST2                DATA           6fe4d068  !      00000000
                _DATA                 DATA           6fe4d4fc  !      00000000
/mnt/sda5/.user/root/src/openwatcom-1.9/bld/clib/memory/c/bzero.c
                _TEXT                 CODE           6fe1c230  !      00000028
                CONST                 DATA           6fe4d00c  !      00000000
                CONST2                DATA           6fe4d068  !      00000000
                _DATA                 DATA           6fe4d4fc  !      00000000
/mnt/sda5/.user/root/src/openwatcom-1.9/bld/clib/memory/c/fmemccpy.c
                _TEXT                 CODE           6fe1c260  !      000000a4
                CONST                 DATA           6fe4d00c  !      00000000
                CONST2                DATA           6fe4d068  !      00000000
                _DATA                 DATA           6fe4d4fc  !      00000000
/mnt/sda5/.user/root/src/openwatcom-1.9/bld/clib/memory/c/fmemchr.c
                _TEXT                 CODE           6fe1c310  !      00000076
                CONST                 DATA           6fe4d00c  !      00000000
                CONST2                DATA           6fe4d068  !      00000000
                _DATA                 DATA           6fe4d4fc  !      00000000
/mnt/sda5/.user/root/src/openwatcom-1.9/bld/clib/memory/c/fmemcmp.c
                _TEXT                 CODE           6fe1c390  !      00000099
                CONST                 DATA           6fe4d00c  !      00000000
                CONST2                DATA           6fe4d068  !      00000000
                _DATA                 DATA           6fe4d4fc  !      00000000
/mnt/sda5/.user/root/src/openwatcom-1.9/bld/clib/memory/c/fmemcpy.c
                _TEXT                 CODE           6fe1c430  !      00000082
                CONST                 DATA           6fe4d00c  !      00000000
                CONST2                DATA           6fe4d068  !      00000000
                _DATA                 DATA           6fe4d4fc  !      00000000
/mnt/sda5/.user/root/src/openwatcom-1.9/bld/clib/memory/c/fmemicmp.c
                _TEXT                 CODE           6fe1c4c0  !      000000be
                CONST                 DATA           6fe4d00c  !      00000000
                CONST2                DATA           6fe4d068  !      00000000
                _DATA                 DATA           6fe4d4fc  !      00000000
/mnt/sda5/.user/root/src/openwatcom-1.9/bld/clib/memory/c/fmemmove.c
                _TEXT                 CODE           6fe1c580  !      0000010f
                CONST                 DATA           6fe4d00c  !      00000000
                CONST2                DATA           6fe4d068  !      00000000
                _DATA                 DATA           6fe4d4fc  !      00000000
/mnt/sda5/.user/root/src/openwatcom-1.9/bld/clib/memory/c/fmemset.c
                _TEXT                 CODE           6fe1c690  !      00000060
                CONST                 DATA           6fe4d00c  !      00000000
                CONST2                DATA           6fe4d068  !      00000000
                _DATA                 DATA           6fe4d4fc  !      00000000
/mnt/sda5/.user/root/src/openwatcom-1.9/bld/clib/memory/c/memccpy.c
                _TEXT                 CODE           6fe1c6f0  !      00000068
                CONST                 DATA           6fe4d00c  !      00000000
                CONST2                DATA           6fe4d068  !      00000000
                _DATA                 DATA           6fe4d4fc  !      00000000
/mnt/sda5/.user/root/src/openwatcom-1.9/bld/clib/memory/c/memchr.c
                _TEXT                 CODE           6fe1c760  !      00000052
                CONST                 DATA           6fe4d00c  !      00000000
                CONST2                DATA           6fe4d068  !      00000000
                _DATA                 DATA           6fe4d4fc  !      00000000
/mnt/sda5/.user/root/src/openwatcom-1.9/bld/clib/memory/c/memcmp.c
                _TEXT                 CODE           6fe1c7c0  !      00000068
                CONST                 DATA           6fe4d00c  !      00000000
                CONST2                DATA           6fe4d068  !      00000000
                _DATA                 DATA           6fe4d4fc  !      00000000
/mnt/sda5/.user/root/src/openwatcom-1.9/bld/clib/memory/c/memcpy.c
                _TEXT                 CODE           6fe1c830  !      0000004d
                CONST                 DATA           6fe4d00c  !      00000000
                CONST2                DATA           6fe4d068  !      00000000
                _DATA                 DATA           6fe4d4fc  !      00000000
/mnt/sda5/.user/root/src/openwatcom-1.9/bld/clib/memory/c/memicmp.c
                _TEXT                 CODE           6fe1c880  !      00000091
                CONST                 DATA           6fe4d00c  !      00000000
                CONST2                DATA           6fe4d068  !      00000000
                _DATA                 DATA           6fe4d4fc  !      00000000
/mnt/sda5/.user/root/src/openwatcom-1.9/bld/clib/memory/c/memmove.c
                _TEXT                 CODE           6fe1c920  !      000000a4
                CONST                 DATA           6fe4d00c  !      00000000
                CONST2                DATA           6fe4d068  !      00000000
                _DATA                 DATA           6fe4d4fc  !      00000000
/mnt/sda5/.user/root/src/openwatcom-1.9/bld/clib/memory/c/memset.c
                _TEXT                 CODE           6fe1c9d0  !      00000042
                CONST                 DATA           6fe4d00c  !      00000000
                CONST2                DATA           6fe4d068  !      00000000
                _DATA                 DATA           6fe4d4fc  !      00000000
/mnt/sda5/.user/root/src/openwatcom-1.9/bld/clib/memory/c/movedata.c
                _TEXT                 CODE           6fe1ca20  !      00000044
                CONST                 DATA           6fe4d00c  !      00000000
                CONST2                DATA           6fe4d068  !      00000000
                _DATA                 DATA           6fe4d4fc  !      00000000
/mnt/sda5/.user/root/src/openwatcom-1.9/bld/clib/memory/c/memcpy_s.c
                _TEXT                 CODE           6fe1ca70  !      000001e3
                CONST                 DATA           6fe4d00c  !      00000000
                CONST2                DATA           6fe4d068  !      00000000
                _DATA                 DATA           6fe4d4fc  !      00000000
/mnt/sda5/.user/root/src/openwatcom-1.9/bld/clib/memory/c/memmov_s.c
                _TEXT                 CODE           6fe1cc60  !      00000180
                CONST                 DATA           6fe4d00c  !      00000000
                CONST2                DATA           6fe4d068  !      00000000
                _DATA                 DATA           6fe4d4fc  !      00000000
/mnt/sda5/.user/root/src/openwatcom-1.9/bld/clib/memory/c/swab.c
                _TEXT                 CODE           6fe1cde0  !      0000004f
                CONST                 DATA           6fe4d00c  !      00000000
                CONST2                DATA           6fe4d068  !      00000000
                _DATA                 DATA           6fe4d4fc  !      00000000
/mnt/sda5/.user/root/src/openwatcom-1.9/bld/clib/memory/c/umemchr.c
                _TEXT                 CODE           6fe1ce30  !      00000050
                CONST                 DATA           6fe4d00c  !      00000000
                CONST2                DATA           6fe4d068  !      00000000
                _DATA                 DATA           6fe4d4fc  !      00000000
/mnt/sda5/.user/root/src/openwatcom-1.9/bld/clib/memory/c/umemcmp.c
                _TEXT                 CODE           6fe1ce80  !      0000006e
                CONST                 DATA           6fe4d00c  !      00000000
                CONST2                DATA           6fe4d068  !      00000000
                _DATA                 DATA           6fe4d4fc  !      00000000
/mnt/sda5/.user/root/src/openwatcom-1.9/bld/clib/memory/c/umemcpy.c
                _TEXT                 CODE           6fe1cef0  !      00000051
                CONST                 DATA           6fe4d00c  !      00000000
                CONST2                DATA           6fe4d068  !      00000000
                _DATA                 DATA           6fe4d4fc  !      00000000
/mnt/sda5/.user/root/src/openwatcom-1.9/bld/clib/memory/c/umemmov.c
                _TEXT                 CODE           6fe1cf50  !      000000ad
                CONST                 DATA           6fe4d00c  !      00000000
                CONST2                DATA           6fe4d068  !      00000000
                _DATA                 DATA           6fe4d4fc  !      00000000
/mnt/sda5/.user/root/src/openwatcom-1.9/bld/clib/memory/c/umemset.c
                _TEXT                 CODE           6fe1d000  !      00000044
                CONST                 DATA           6fe4d00c  !      00000000
                CONST2                DATA           6fe4d068  !      00000000
                _DATA                 DATA           6fe4d4fc  !      00000000
/mnt/sda5/.user/root/src/openwatcom-1.9/bld/clib/memory/c/umemcp_s.c
                _TEXT                 CODE           6fe1d050  !      000001eb
                CONST                 DATA           6fe4d00c  !      00000000
                CONST2                DATA           6fe4d068  !      00000000
                _DATA                 DATA           6fe4d4fc  !      00000000
/mnt/sda5/.user/root/src/openwatcom-1.9/bld/clib/memory/c/umemmv_s.c
                _TEXT                 CODE           6fe1d240  !      00000180
                CONST                 DATA           6fe4d00c  !      00000000
                CONST2                DATA           6fe4d068  !      00000000
                _DATA                 DATA           6fe4d4fc  !      00000000
/mnt/sda5/.user/root/src/openwatcom-1.9/bld/clib/misc/c/aborthnd.c
                _TEXT                 CODE           6fe1d3c0  !      0000004e
                CONST                 DATA           6fe4d00c  !      00000000
                CONST2                DATA           6fe4d068  !      00000000
                _DATA                 DATA           6fe4d4fc  !      00000000
/mnt/sda5/.user/root/src/openwatcom-1.9/bld/clib/misc/c/assert.c
                _TEXT                 CODE           6fe1d410  !      0000023b
                CONST                 DATA           6fe4d00c  !      00000000
                CONST2                DATA           6fe4d068  !      00000000
                _DATA                 DATA           6fe4d4fc  !      00000000
                _BSS                  BSS            6fe4f1bc  !      00000004
/mnt/sda5/.user/root/src/openwatcom-1.9/bld/clib/misc/c/assert99.c
                _TEXT                 CODE           6fe1d650  !      00000250
                CONST                 DATA           6fe4d00c  !      00000000
                CONST2                DATA           6fe4d068  !      00000000
                _DATA                 DATA           6fe4d4fc  !      00000000
                _BSS                  BSS            6fe4f1c0  !      00000004
/mnt/sda5/.user/root/src/openwatcom-1.9/bld/clib/misc/c/basename.c
                _TEXT                 CODE           6fe1d8a0  !      00000152
                CONST                 DATA           6fe4d00c  !      00000000
                CONST2                DATA           6fe4d068  !      00000000
                _DATA                 DATA           6fe4d4fc  !      00000000
                _BSS                  BSS            6fe4f1c4  !      00000104
/mnt/sda5/.user/root/src/openwatcom-1.9/bld/clib/misc/c/ffs.c
                _TEXT                 CODE           6fe1da00  !      0000002b
                CONST                 DATA           6fe4d00c  !      00000000
                CONST2                DATA           6fe4d068  !      00000000
                _DATA                 DATA           6fe4d4fc  !      00000000
/mnt/sda5/.user/root/src/openwatcom-1.9/bld/clib/misc/c/dbgbreak.c
                _TEXT                 CODE           6fe1da30  !      00000017
                CONST                 DATA           6fe4d00c  !      00000000
                CONST2                DATA           6fe4d068  !      00000000
                _DATA                 DATA           6fe4d4fc  !      00000000
/mnt/sda5/.user/root/src/openwatcom-1.9/bld/clib/misc/c/dbgrpt.c
                _TEXT                 CODE           6fe1da50  !      00000c89
                CONST                 DATA           6fe4d00c  !      00000000
                CONST2                DATA           6fe4d068  !      00000000
                _DATA                 DATA           6fe4d4fc  !      0000000c
/mnt/sda5/.user/root/src/openwatcom-1.9/bld/clib/misc/c/dbgrptfi.c
                _TEXT                 CODE           6fe1e6e0  !      000000b6
                CONST                 DATA           6fe4d00c  !      00000000
                CONST2                DATA           6fe4d068  !      00000000
                _DATA                 DATA           6fe4d508  !      00000000
/mnt/sda5/.user/root/src/openwatcom-1.9/bld/clib/misc/c/dbgrptho.c
                _TEXT                 CODE           6fe1e7a0  !      00000033
                CONST                 DATA           6fe4d00c  !      00000000
                CONST2                DATA           6fe4d068  !      00000000
                _DATA                 DATA           6fe4d508  !      00000000
/mnt/sda5/.user/root/src/openwatcom-1.9/bld/clib/misc/c/dbgrptmo.c
                _TEXT                 CODE           6fe1e7e0  !      0000006f
                CONST                 DATA           6fe4d00c  !      00000000
                CONST2                DATA           6fe4d068  !      00000000
                _DATA                 DATA           6fe4d508  !      00000000
/mnt/sda5/.user/root/src/openwatcom-1.9/bld/clib/misc/c/demangl.c
                _TEXT                 CODE           6fe1e850  !      0000309d
                CONST                 DATA           6fe4d00c  !      00000000
                CONST2                DATA           6fe4d068  !      00000000
                _DATA                 DATA           6fe4d508  !      00000000
                _BSS                  BSS            6fe4f2c8  !      00000058
/mnt/sda5/.user/root/src/openwatcom-1.9/bld/clib/misc/c/dirname.c
                _TEXT                 CODE           6fe218f0  !      000001a6
                CONST                 DATA           6fe4d00c  !      00000000
                CONST2                DATA           6fe4d068  !      00000000
                _DATA                 DATA           6fe4d508  !      00000000
                _BSS                  BSS            6fe4f320  !      00000104
/mnt/sda5/.user/root/src/openwatcom-1.9/bld/clib/misc/c/fullpath.c
                _TEXT                 CODE           6fe21aa0  !      00000159
                CONST                 DATA           6fe4d00c  !      00000000
                CONST2                DATA           6fe4d068  !      00000000
                _DATA                 DATA           6fe4d508  !      00000000
/mnt/sda5/.user/root/src/openwatcom-1.9/bld/clib/misc/c/getopt.c
                _TEXT                 CODE           6fe21c00  !      000002ff
                CONST                 DATA           6fe4d00c  !      00000000
                CONST2                DATA           6fe4d068  !      00000000
                _DATA                 DATA           6fe4d508  !      00000010
                _BSS                  BSS            6fe4f424  !      00000009
/mnt/sda5/.user/root/src/openwatcom-1.9/bld/clib/misc/c/hostwin.c
                _TEXT                 CODE           6fe21f00  !      000001bb
                CONST                 DATA           6fe4d00c  !      00000000
                CONST2                DATA           6fe4d068  !      00000000
                _DATA                 DATA           6fe4d518  !      00000000
/mnt/sda5/.user/root/src/openwatcom-1.9/bld/clib/misc/c/ignorhnd.c
                _TEXT                 CODE           6fe220c0  !      0000001c
                CONST                 DATA           6fe4d00c  !      00000000
                CONST2                DATA           6fe4d068  !      00000000
                _DATA                 DATA           6fe4d518  !      00000000
/mnt/sda5/.user/root/src/openwatcom-1.9/bld/clib/misc/c/localeco.c
                _TEXT                 CODE           6fe220e0  !      00000031
                CONST                 DATA           6fe4d00c  !      00000000
                CONST2                DATA           6fe4d068  !      00000000
                _DATA                 DATA           6fe4d518  !      00000030
/mnt/sda5/.user/root/src/openwatcom-1.9/bld/clib/misc/c/lrotl.c
                _TEXT                 CODE           6fe22120  !      00000029
                CONST                 DATA           6fe4d00c  !      00000000
                CONST2                DATA           6fe4d068  !      00000000
                _DATA                 DATA           6fe4d548  !      00000000
/mnt/sda5/.user/root/src/openwatcom-1.9/bld/clib/misc/c/lrotr.c
                _TEXT                 CODE           6fe22150  !      00000029
                CONST                 DATA           6fe4d00c  !      00000000
                CONST2                DATA           6fe4d068  !      00000000
                _DATA                 DATA           6fe4d548  !      00000000
/mnt/sda5/.user/root/src/openwatcom-1.9/bld/clib/misc/c/makepath.c
                _TEXT                 CODE           6fe22180  !      00000251
                CONST                 DATA           6fe4d00c  !      00000000
                CONST2                DATA           6fe4d068  !      00000000
                _DATA                 DATA           6fe4d548  !      00000000
/mnt/sda5/.user/root/src/openwatcom-1.9/bld/clib/misc/c/rotl.c
                _TEXT                 CODE           6fe223e0  !      00000029
                CONST                 DATA           6fe4d00c  !      00000000
                CONST2                DATA           6fe4d068  !      00000000
                _DATA                 DATA           6fe4d548  !      00000000
/mnt/sda5/.user/root/src/openwatcom-1.9/bld/clib/misc/c/rotr.c
                _TEXT                 CODE           6fe22410  !      00000029
                CONST                 DATA           6fe4d00c  !      00000000
                CONST2                DATA           6fe4d068  !      00000000
                _DATA                 DATA           6fe4d548  !      00000000
/mnt/sda5/.user/root/src/openwatcom-1.9/bld/clib/misc/c/rtconstr.c
                _TEXT                 CODE           6fe22440  !      00000045
                CONST                 DATA           6fe4d00c  !      00000000
                CONST2                DATA           6fe4d068  !      00000000
                _DATA                 DATA           6fe4d548  !      00000000
/mnt/sda5/.user/root/src/openwatcom-1.9/bld/clib/misc/c/setlocal.c
                _TEXT                 CODE           6fe22490  !      000000eb
                CONST                 DATA           6fe4d00c  !      00000000
                CONST2                DATA           6fe4d068  !      00000000
                _DATA                 DATA           6fe4d548  !      0000000c
/mnt/sda5/.user/root/src/openwatcom-1.9/bld/clib/misc/c/split2.c
                _TEXT                 CODE           6fe22580  !      00000227
                CONST                 DATA           6fe4d00c  !      00000000
                CONST2                DATA           6fe4d068  !      00000000
                _DATA                 DATA           6fe4d554  !      00000000
/mnt/sda5/.user/root/src/openwatcom-1.9/bld/clib/misc/c/splitpat.c
                _TEXT                 CODE           6fe227b0  !      0000016f
                CONST                 DATA           6fe4d00c  !      00000000
                CONST2                DATA           6fe4d068  !      00000000
                _DATA                 DATA           6fe4d554  !      00000000
/mnt/sda5/.user/root/src/openwatcom-1.9/bld/clib/misc/c/uassert.c
                _TEXT                 CODE           6fe22920  !      000000f1
                CONST                 DATA           6fe4d00c  !      00000000
                CONST2                DATA           6fe4d068  !      00000000
                _DATA                 DATA           6fe4d554  !      00000000
/mnt/sda5/.user/root/src/openwatcom-1.9/bld/clib/misc/c/uassrt99.c
                _TEXT                 CODE           6fe22a20  !      00000106
                CONST                 DATA           6fe4d00c  !      00000000
                CONST2                DATA           6fe4d068  !      00000000
                _DATA                 DATA           6fe4d554  !      00000000
/mnt/sda5/.user/root/src/openwatcom-1.9/bld/clib/misc/c/ufulpath.c
                _TEXT                 CODE           6fe22b30  !      0000015e
                CONST                 DATA           6fe4d00c  !      00000000
                CONST2                DATA           6fe4d068  !      00000000
                _DATA                 DATA           6fe4d554  !      00000000
/mnt/sda5/.user/root/src/openwatcom-1.9/bld/clib/misc/c/umkpath.c
                _TEXT                 CODE           6fe22c90  !      00000215
                CONST                 DATA           6fe4d00c  !      00000000
                CONST2                DATA           6fe4d068  !      00000000
                _DATA                 DATA           6fe4d554  !      00000000
/mnt/sda5/.user/root/src/openwatcom-1.9/bld/clib/misc/c/usplit2.c
                _TEXT                 CODE           6fe22eb0  !      00000222
                CONST                 DATA           6fe4d00c  !      00000000
                CONST2                DATA           6fe4d068  !      00000000
                _DATA                 DATA           6fe4d554  !      00000000
/mnt/sda5/.user/root/src/openwatcom-1.9/bld/clib/misc/c/uspltpat.c
                _TEXT                 CODE           6fe230e0  !      0000016b
                CONST                 DATA           6fe4d00c  !      00000000
                CONST2                DATA           6fe4d068  !      00000000
                _DATA                 DATA           6fe4d554  !      00000000
/mnt/sda5/.user/root/src/openwatcom-1.9/bld/clib/misc/c/ustlocal.c
                _TEXT                 CODE           6fe23250  !      000000ec
                CONST                 DATA           6fe4d00c  !      00000000
                CONST2                DATA           6fe4d068  !      00000000
                _DATA                 DATA           6fe4d554  !      0000000c
/mnt/sda5/.user/root/src/openwatcom-1.9/bld/clib/mthread/c/mthread.c
                _TEXT                 CODE           6fe23340  !      00000a9a
                CONST                 DATA           6fe4d00c  !      00000000
                CONST2                DATA           6fe4d068  !      00000000
                _DATA                 DATA           6fe4d560  !      0000000c
                _BSS                  BSS            6fe4f430  !      0000076c
                YIB                   DATA           6fe4dd32  !      00000000
                YI                    DATA           6fe4dd44  !      00000006
                YIE                   DATA           6fe4dd68  !      00000000
/mnt/sda5/.user/root/src/openwatcom-1.9/bld/clib/mthread/c/mthrdini.c
                _TEXT                 CODE           6fe23de0  !      00000043
                CONST                 DATA           6fe4d00c  !      00000000
                CONST2                DATA           6fe4d068  !      00000000
                _DATA                 DATA           6fe4d56c  !      00000004
/mnt/sda5/.user/root/src/openwatcom-1.9/bld/clib/mthread/c/regdata.c
                _TEXT                 CODE           6fe23e30  !      00000045
                CONST                 DATA           6fe4d00c  !      00000000
                CONST2                DATA           6fe4d068  !      00000000
                _DATA                 DATA           6fe4d570  !      00000000
/mnt/sda5/.user/root/src/openwatcom-1.9/bld/clib/mthread/c/register.c
                _TEXT                 CODE           6fe23e80  !      0000013c
                CONST                 DATA           6fe4d00c  !      00000000
                CONST2                DATA           6fe4d068  !      00000000
                _DATA                 DATA           6fe4d570  !      0000000c
/mnt/sda5/.user/root/src/openwatcom-1.9/bld/clib/mthread/c/registrx.c
                _TEXT                 CODE           6fe23fc0  !      00000063
                CONST                 DATA           6fe4d00c  !      00000000
                CONST2                DATA           6fe4d068  !      00000000
                _DATA                 DATA           6fe4d57c  !      00000008
/mnt/sda5/.user/root/src/openwatcom-1.9/bld/clib/mthread/c/tdhdlwnt.c
                _TEXT                 CODE           6fe24030  !      00000023
                CONST                 DATA           6fe4d00c  !      00000000
                CONST2                DATA           6fe4d068  !      00000000
                _DATA                 DATA           6fe4d584  !      00000000
/mnt/sda5/.user/root/src/openwatcom-1.9/bld/clib/process/c/cwaitwnt.c
                _TEXT                 CODE           6fe24060  !      000000c4
                CONST                 DATA           6fe4d00c  !      00000000
                CONST2                DATA           6fe4d068  !      00000000
                _DATA                 DATA           6fe4d584  !      00000000
/mnt/sda5/.user/root/src/openwatcom-1.9/bld/clib/process/c/delaywnt.c
                _TEXT                 CODE           6fe24130  !      00000024
                CONST                 DATA           6fe4d00c  !      00000000
                CONST2                DATA           6fe4d068  !      00000000
                _DATA                 DATA           6fe4d584  !      00000000
/mnt/sda5/.user/root/src/openwatcom-1.9/bld/clib/process/c/excptwnt.c
                _TEXT                 CODE           6fe24160  !      000010c0
                CONST                 DATA           6fe4d00c  !      00000000
                CONST2                DATA           6fe4d068  !      00000000
                _DATA                 DATA           6fe4d584  !      00000019
                _BSS                  BSS            6fe4fb9c  !      00000006
/mnt/sda5/.user/root/src/openwatcom-1.9/bld/clib/process/c/exl.c
                _TEXT                 CODE           6fe25220  !      00000034
                CONST                 DATA           6fe4d00c  !      00000000
                CONST2                DATA           6fe4d068  !      00000000
                _DATA                 DATA           6fe4d5a0  !      00000000
/mnt/sda5/.user/root/src/openwatcom-1.9/bld/clib/process/c/exle.c
                _TEXT                 CODE           6fe25260  !      00000060
                CONST                 DATA           6fe4d00c  !      00000000
                CONST2                DATA           6fe4d068  !      00000000
                _DATA                 DATA           6fe4d5a0  !      00000000
/mnt/sda5/.user/root/src/openwatcom-1.9/bld/clib/process/c/exlp.c
                _TEXT                 CODE           6fe252c0  !      0000002e
                CONST                 DATA           6fe4d00c  !      00000000
                CONST2                DATA           6fe4d068  !      00000000
                _DATA                 DATA           6fe4d5a0  !      00000000
/mnt/sda5/.user/root/src/openwatcom-1.9/bld/clib/process/c/exlpe.c
                _TEXT                 CODE           6fe252f0  !      00000060
                CONST                 DATA           6fe4d00c  !      00000000
                CONST2                DATA           6fe4d068  !      00000000
                _DATA                 DATA           6fe4d5a0  !      00000000
/mnt/sda5/.user/root/src/openwatcom-1.9/bld/clib/process/c/exv.c
                _TEXT                 CODE           6fe25350  !      00000032
                CONST                 DATA           6fe4d00c  !      00000000
                CONST2                DATA           6fe4d068  !      00000000
                _DATA                 DATA           6fe4d5a0  !      00000000
/mnt/sda5/.user/root/src/openwatcom-1.9/bld/clib/process/c/exvewnt.c
                _TEXT                 CODE           6fe25382  !      0000005a
                CONST                 DATA           6fe4d00c  !      00000000
                CONST2                DATA           6fe4d068  !      00000000
                _DATA                 DATA           6fe4d5a0  !      00000000
/mnt/sda5/.user/root/src/openwatcom-1.9/bld/clib/process/c/exvp.c
                _TEXT                 CODE           6fe253e0  !      00000032
                CONST                 DATA           6fe4d00c  !      00000000
                CONST2                DATA           6fe4d068  !      00000000
                _DATA                 DATA           6fe4d5a0  !      00000000
/mnt/sda5/.user/root/src/openwatcom-1.9/bld/clib/process/c/exvpe.c
                _TEXT                 CODE           6fe25412  !      000001a7
                CONST                 DATA           6fe4d00c  !      00000000
                CONST2                DATA           6fe4d068  !      00000000
                _DATA                 DATA           6fe4d5a0  !      00000000
/mnt/sda5/.user/root/src/openwatcom-1.9/bld/clib/process/c/signlwnt.c
                _TEXT                 CODE           6fe255c0  !      00000615
                CONST                 DATA           6fe4d00c  !      00000000
                CONST2                DATA           6fe4d068  !      00000000
                _DATA                 DATA           6fe4d5a0  !      00000069
                XIB                   DATA           6fe4dcd8  !      00000000
                XI                    DATA           6fe4dcf0  !      00000006
                XIE                   DATA           6fe4dd32  !      00000000
/mnt/sda5/.user/root/src/openwatcom-1.9/bld/clib/process/c/sleepwnt.c
                _TEXT                 CODE           6fe25be0  !      00000034
                CONST                 DATA           6fe4d00c  !      00000000
                CONST2                DATA           6fe4d068  !      00000000
                _DATA                 DATA           6fe4d60c  !      00000000
/mnt/sda5/.user/root/src/openwatcom-1.9/bld/clib/process/c/spl.c
                _TEXT                 CODE           6fe25c20  !      00000037
                CONST                 DATA           6fe4d00c  !      00000000
                CONST2                DATA           6fe4d068  !      00000000
                _DATA                 DATA           6fe4d60c  !      00000000
/mnt/sda5/.user/root/src/openwatcom-1.9/bld/clib/process/c/sple.c
                _TEXT                 CODE           6fe25c60  !      0000005d
                CONST                 DATA           6fe4d00c  !      00000000
                CONST2                DATA           6fe4d068  !      00000000
                _DATA                 DATA           6fe4d60c  !      00000000
/mnt/sda5/.user/root/src/openwatcom-1.9/bld/clib/process/c/splp.c
                _TEXT                 CODE           6fe25cc0  !      0000003e
                CONST                 DATA           6fe4d00c  !      00000000
                CONST2                DATA           6fe4d068  !      00000000
                _DATA                 DATA           6fe4d60c  !      00000000
/mnt/sda5/.user/root/src/openwatcom-1.9/bld/clib/process/c/splpe.c
                _TEXT                 CODE           6fe25d00  !      0000005d
                CONST                 DATA           6fe4d00c  !      00000000
                CONST2                DATA           6fe4d068  !      00000000
                _DATA                 DATA           6fe4d60c  !      00000000
/mnt/sda5/.user/root/src/openwatcom-1.9/bld/clib/process/c/spv.c
                _TEXT                 CODE           6fe25d60  !      00000036
                CONST                 DATA           6fe4d00c  !      00000000
                CONST2                DATA           6fe4d068  !      00000000
                _DATA                 DATA           6fe4d60c  !      00000000
/mnt/sda5/.user/root/src/openwatcom-1.9/bld/clib/process/c/spve.c
                _TEXT                 CODE           6fe25da0  !      00000559
                CONST                 DATA           6fe4d00c  !      00000000
                CONST2                DATA           6fe4d068  !      00000000
                _DATA                 DATA           6fe4d60c  !      00000000
/mnt/sda5/.user/root/src/openwatcom-1.9/bld/clib/process/c/spvp.c
                _TEXT                 CODE           6fe26300  !      00000036
                CONST                 DATA           6fe4d00c  !      00000000
                CONST2                DATA           6fe4d068  !      00000000
                _DATA                 DATA           6fe4d60c  !      00000000
/mnt/sda5/.user/root/src/openwatcom-1.9/bld/clib/process/c/spvpe.c
                _TEXT                 CODE           6fe26336  !      000001b8
                CONST                 DATA           6fe4d00c  !      00000000
                CONST2                DATA           6fe4d068  !      00000000
                _DATA                 DATA           6fe4d60c  !      00000000
/mnt/sda5/.user/root/src/openwatcom-1.9/bld/clib/process/c/system.c
                _TEXT                 CODE           6fe264f0  !      000000f5
                CONST                 DATA           6fe4d00c  !      00000000
                CONST2                DATA           6fe4d068  !      00000000
                _DATA                 DATA           6fe4d60c  !      00000000
/mnt/sda5/.user/root/src/openwatcom-1.9/bld/clib/process/c/uexl.c
                _TEXT                 CODE           6fe265f0  !      00000034
                CONST                 DATA           6fe4d00c  !      00000000
                CONST2                DATA           6fe4d068  !      00000000
                _DATA                 DATA           6fe4d60c  !      00000000
/mnt/sda5/.user/root/src/openwatcom-1.9/bld/clib/process/c/uexle.c
                _TEXT                 CODE           6fe26630  !      00000060
                CONST                 DATA           6fe4d00c  !      00000000
                CONST2                DATA           6fe4d068  !      00000000
                _DATA                 DATA           6fe4d60c  !      00000000
/mnt/sda5/.user/root/src/openwatcom-1.9/bld/clib/process/c/uexlp.c
                _TEXT                 CODE           6fe26690  !      0000002e
                CONST                 DATA           6fe4d00c  !      00000000
                CONST2                DATA           6fe4d068  !      00000000
                _DATA                 DATA           6fe4d60c  !      00000000
/mnt/sda5/.user/root/src/openwatcom-1.9/bld/clib/process/c/uexlpe.c
                _TEXT                 CODE           6fe266c0  !      00000060
                CONST                 DATA           6fe4d00c  !      00000000
                CONST2                DATA           6fe4d068  !      00000000
                _DATA                 DATA           6fe4d60c  !      00000000
/mnt/sda5/.user/root/src/openwatcom-1.9/bld/clib/process/c/uexv.c
                _TEXT                 CODE           6fe26720  !      00000040
                CONST                 DATA           6fe4d00c  !      00000000
                CONST2                DATA           6fe4d068  !      00000000
                _DATA                 DATA           6fe4d60c  !      00000000
/mnt/sda5/.user/root/src/openwatcom-1.9/bld/clib/process/c/uexve.c
                _TEXT                 CODE           6fe26760  !      00000061
                CONST                 DATA           6fe4d00c  !      00000000
                CONST2                DATA           6fe4d068  !      00000000
                _DATA                 DATA           6fe4d60c  !      00000000
/mnt/sda5/.user/root/src/openwatcom-1.9/bld/clib/process/c/uexvp.c
                _TEXT                 CODE           6fe267d0  !      00000040
                CONST                 DATA           6fe4d00c  !      00000000
                CONST2                DATA           6fe4d068  !      00000000
                _DATA                 DATA           6fe4d60c  !      00000000
/mnt/sda5/.user/root/src/openwatcom-1.9/bld/clib/process/c/uexvpe.c
                _TEXT                 CODE           6fe26810  !      000001d4
                CONST                 DATA           6fe4d00c  !      00000000
                CONST2                DATA           6fe4d068  !      00000000
                _DATA                 DATA           6fe4d60c  !      00000000
/mnt/sda5/.user/root/src/openwatcom-1.9/bld/clib/process/c/uspl.c
                _TEXT                 CODE           6fe269f0  !      00000045
                CONST                 DATA           6fe4d00c  !      00000000
                CONST2                DATA           6fe4d068  !      00000000
                _DATA                 DATA           6fe4d60c  !      00000000
/mnt/sda5/.user/root/src/openwatcom-1.9/bld/clib/process/c/usple.c
                _TEXT                 CODE           6fe26a40  !      0000005d
                CONST                 DATA           6fe4d00c  !      00000000
                CONST2                DATA           6fe4d068  !      00000000
                _DATA                 DATA           6fe4d60c  !      00000000
/mnt/sda5/.user/root/src/openwatcom-1.9/bld/clib/process/c/usplp.c
                _TEXT                 CODE           6fe26aa0  !      0000003e
                CONST                 DATA           6fe4d00c  !      00000000
                CONST2                DATA           6fe4d068  !      00000000
                _DATA                 DATA           6fe4d60c  !      00000000
/mnt/sda5/.user/root/src/openwatcom-1.9/bld/clib/process/c/usplpe.c
                _TEXT                 CODE           6fe26ae0  !      0000005d
                CONST                 DATA           6fe4d00c  !      00000000
                CONST2                DATA           6fe4d068  !      00000000
                _DATA                 DATA           6fe4d60c  !      00000000
/mnt/sda5/.user/root/src/openwatcom-1.9/bld/clib/process/c/uspv.c
                _TEXT                 CODE           6fe26b40  !      00000044
                CONST                 DATA           6fe4d00c  !      00000000
                CONST2                DATA           6fe4d068  !      00000000
                _DATA                 DATA           6fe4d60c  !      00000000
/mnt/sda5/.user/root/src/openwatcom-1.9/bld/clib/process/c/uspve.c
                _TEXT                 CODE           6fe26b90  !      0000059b
                CONST                 DATA           6fe4d00c  !      00000000
                CONST2                DATA           6fe4d068  !      00000000
                _DATA                 DATA           6fe4d60c  !      00000000
/mnt/sda5/.user/root/src/openwatcom-1.9/bld/clib/process/c/uspvp.c
                _TEXT                 CODE           6fe27130  !      00000044
                CONST                 DATA           6fe4d00c  !      00000000
                CONST2                DATA           6fe4d068  !      00000000
                _DATA                 DATA           6fe4d60c  !      00000000
/mnt/sda5/.user/root/src/openwatcom-1.9/bld/clib/process/c/uspvpe.c
                _TEXT                 CODE           6fe27180  !      000001e5
                CONST                 DATA           6fe4d00c  !      00000000
                CONST2                DATA           6fe4d068  !      00000000
                _DATA                 DATA           6fe4d60c  !      00000000
/mnt/sda5/.user/root/src/openwatcom-1.9/bld/clib/process/c/usystem.c
                _TEXT                 CODE           6fe27370  !      0000011a
                CONST                 DATA           6fe4d00c  !      00000000
                CONST2                DATA           6fe4d068  !      00000000
                _DATA                 DATA           6fe4d60c  !      00000000
/mnt/sda5/.user/root/src/openwatcom-1.9/bld/clib/process/c/waitwnt.c
                _TEXT                 CODE           6fe27490  !      0000002e
                CONST                 DATA           6fe4d00c  !      00000000
                CONST2                DATA           6fe4d068  !      00000000
                _DATA                 DATA           6fe4d60c  !      00000000
/mnt/sda5/.user/root/src/openwatcom-1.9/bld/clib/search/c/bsearch.c
                _TEXT                 CODE           6fe274c0  !      000000d7
                CONST                 DATA           6fe4d00c  !      00000000
                CONST2                DATA           6fe4d068  !      00000000
                _DATA                 DATA           6fe4d60c  !      00000000
/mnt/sda5/.user/root/src/openwatcom-1.9/bld/clib/search/c/lfind.c
                _TEXT                 CODE           6fe275a0  !      0000005e
                CONST                 DATA           6fe4d00c  !      00000000
                CONST2                DATA           6fe4d068  !      00000000
                _DATA                 DATA           6fe4d60c  !      00000000
/mnt/sda5/.user/root/src/openwatcom-1.9/bld/clib/search/c/lsearch.c
                _TEXT                 CODE           6fe27600  !      00000070
                CONST                 DATA           6fe4d00c  !      00000000
                CONST2                DATA           6fe4d068  !      00000000
                _DATA                 DATA           6fe4d60c  !      00000000
/mnt/sda5/.user/root/src/openwatcom-1.9/bld/clib/search/c/qsort.c
                _TEXT                 CODE           6fe27670  !      0000076c
                CONST                 DATA           6fe4d00c  !      00000000
                CONST2                DATA           6fe4d068  !      00000000
                _DATA                 DATA           6fe4d60c  !      00000000
/mnt/sda5/.user/root/src/openwatcom-1.9/bld/clib/search/c/bsrch_s.c
                _TEXT                 CODE           6fe27de0  !      0000023e
                CONST                 DATA           6fe4d00c  !      00000000
                CONST2                DATA           6fe4d068  !      00000000
                _DATA                 DATA           6fe4d60c  !      00000000
/mnt/sda5/.user/root/src/openwatcom-1.9/bld/clib/search/c/qsort_s.c
                _TEXT                 CODE           6fe28020  !      000008f0
                CONST                 DATA           6fe4d00c  !      00000000
                CONST2                DATA           6fe4d068  !      00000000
                _DATA                 DATA           6fe4d60c  !      00000000
/mnt/sda5/.user/root/src/openwatcom-1.9/bld/clib/startup/c/abort.c
                _TEXT                 CODE           6fe28910  !      0000005c
                CONST                 DATA           6fe4d00c  !      00000000
                CONST2                DATA           6fe4d068  !      00000000
                _DATA                 DATA           6fe4d60c  !      00000004
/mnt/sda5/.user/root/src/openwatcom-1.9/bld/clib/startup/c/chk8087.c
                _TEXT                 CODE           6fe28970  !      000000f0
                CONST                 DATA           6fe4d00c  !      00000000
                CONST2                DATA           6fe4d068  !      00000000
                _DATA                 DATA           6fe4d610  !      00000000
/mnt/sda5/.user/root/src/openwatcom-1.9/bld/clib/startup/c/cmdname.c
                _TEXT                 CODE           6fe28a60  !      00000030
                CONST                 DATA           6fe4d00c  !      00000000
                CONST2                DATA           6fe4d068  !      00000000
                _DATA                 DATA           6fe4d610  !      00000000
/mnt/sda5/.user/root/src/openwatcom-1.9/bld/clib/startup/c/crtinit.c
                _TEXT                 CODE           6fe28a90  !      0000001f
                CONST                 DATA           6fe4d00c  !      00000000
                CONST2                DATA           6fe4d068  !      00000000
                _DATA                 DATA           6fe4d610  !      00000000
/mnt/sda5/.user/root/src/openwatcom-1.9/bld/clib/startup/c/cvtbuf.c
                _TEXT                 CODE           6fe28ab0  !      00000028
                CONST                 DATA           6fe4d00c  !      00000000
                CONST2                DATA           6fe4d068  !      00000000
                _DATA                 DATA           6fe4d610  !      00000000
/mnt/sda5/.user/root/src/openwatcom-1.9/bld/clib/startup/c/enterdb.c
                _TEXT                 CODE           6fe28ae0  !      00000051
                CONST                 DATA           6fe4d00c  !      00000000
                CONST2                DATA           6fe4d068  !      00000000
                _DATA                 DATA           6fe4d610  !      00000001
/mnt/sda5/.user/root/src/openwatcom-1.9/bld/clib/startup/c/errno.c
                _TEXT                 CODE           6fe28b40  !      00000056
                CONST                 DATA           6fe4d00c  !      00000000
                CONST2                DATA           6fe4d068  !      00000000
                _DATA                 DATA           6fe4d614  !      00000000
/mnt/sda5/.user/root/src/openwatcom-1.9/bld/clib/startup/c/exit.c
                _TEXT                 CODE           6fe28b96  !      0000009f
                CONST                 DATA           6fe4d00c  !      00000000
                CONST2                DATA           6fe4d068  !      00000000
                _DATA                 DATA           6fe4d614  !      00000008
/mnt/sda5/.user/root/src/openwatcom-1.9/bld/clib/startup/c/imthread.c
                _TEXT                 CODE           6fe28c40  !      00000027
                CONST                 DATA           6fe4d00c  !      00000000
                CONST2                DATA           6fe4d068  !      00000000
                _DATA                 DATA           6fe4d61c  !      00000000
                XIB                   DATA           6fe4dcd8  !      00000000
                XI                    DATA           6fe4dcf6  !      00000006
                XIE                   DATA           6fe4dd32  !      00000000
/mnt/sda5/.user/root/src/openwatcom-1.9/bld/clib/startup/c/initargv.c
                _TEXT                 CODE           6fe28c70  !      0000030a
                CONST                 DATA           6fe4d00c  !      00000000
                CONST2                DATA           6fe4d068  !      00000000
                _DATA                 DATA           6fe4d61c  !      00000000
                _BSS                  BSS            6fe4fba4  !      00000004
/mnt/sda5/.user/root/src/openwatcom-1.9/bld/clib/startup/c/initwarg.c
                _TEXT                 CODE           6fe28f80  !      0000032a
                CONST                 DATA           6fe4d00c  !      00000000
                CONST2                DATA           6fe4d068  !      00000000
                _DATA                 DATA           6fe4d61c  !      00000000
                _BSS                  BSS            6fe4fba8  !      00000004
/mnt/sda5/.user/root/src/openwatcom-1.9/bld/clib/startup/c/ioexit.c
                _TEXT                 CODE           6fe292b0  !      00000113
                CONST                 DATA           6fe4d00c  !      00000000
                CONST2                DATA           6fe4d068  !      00000000
                _DATA                 DATA           6fe4d61c  !      00000000
/mnt/sda5/.user/root/src/openwatcom-1.9/bld/clib/startup/c/liballoc.c
                _TEXT                 CODE           6fe293d0  !      00000052
                CONST                 DATA           6fe4d00c  !      00000000
                CONST2                DATA           6fe4d068  !      00000000
                _DATA                 DATA           6fe4d61c  !      00000000
/mnt/sda5/.user/root/src/openwatcom-1.9/bld/clib/startup/c/ljmphdl.c
                _TEXT                 CODE           6fe29430  !      0000001c
                CONST                 DATA           6fe4d00c  !      00000000
                CONST2                DATA           6fe4d068  !      00000000
                _DATA                 DATA           6fe4d61c  !      00000004
/mnt/sda5/.user/root/src/openwatcom-1.9/bld/clib/startup/c/mainwnt.c
                _TEXT                 CODE           6fe29450  !      000004fd
                CONST                 DATA           6fe4d00c  !      00000000
                CONST2                DATA           6fe4d068  !      00000000
                _DATA                 DATA           6fe4d620  !      0000004c
                _BSS                  BSS            6fe4fbac  !      00000624
/mnt/sda5/.user/root/src/openwatcom-1.9/bld/clib/startup/c/mtype.c
                _TEXT                 CODE           6fe29950  !      0000003c
                CONST                 DATA           6fe4d00c  !      00000000
                CONST2                DATA           6fe4d068  !      00000000
                _DATA                 DATA           6fe4d66c  !      00000000
/mnt/sda5/.user/root/src/openwatcom-1.9/bld/clib/startup/c/nomem.c
                _TEXT                 CODE           6fe29990  !      00000046
                CONST                 DATA           6fe4d00c  !      00000000
                CONST2                DATA           6fe4d068  !      00000000
                _DATA                 DATA           6fe4d66c  !      00000000
/mnt/sda5/.user/root/src/openwatcom-1.9/bld/clib/startup/c/nonibm.c
                _TEXT                 CODE           6fe299e0  !      00000056
                CONST                 DATA           6fe4d00c  !      00000000
                CONST2                DATA           6fe4d068  !      00000000
                _DATA                 DATA           6fe4d66c  !      00000004
                XIB                   DATA           6fe4dcd8  !      00000000
                XI                    DATA           6fe4dcfc  !      00000006
                XIE                   DATA           6fe4dd32  !      00000000
/mnt/sda5/.user/root/src/openwatcom-1.9/bld/clib/startup/c/onexit.c
                _TEXT                 CODE           6fe29a40  !      00000038
                CONST                 DATA           6fe4d00c  !      00000000
                CONST2                DATA           6fe4d068  !      00000000
                _DATA                 DATA           6fe4d670  !      00000000
/mnt/sda5/.user/root/src/openwatcom-1.9/bld/clib/startup/c/osbdptr.c
                _TEXT                 CODE           6fe29a80  !      00000021
                CONST                 DATA           6fe4d00c  !      00000000
                CONST2                DATA           6fe4d068  !      00000000
                _DATA                 DATA           6fe4d670  !      00000000
/mnt/sda5/.user/root/src/openwatcom-1.9/bld/clib/startup/c/osmjptr.c
                _TEXT                 CODE           6fe29ab0  !      00000021
                CONST                 DATA           6fe4d00c  !      00000000
                CONST2                DATA           6fe4d068  !      00000000
                _DATA                 DATA           6fe4d670  !      00000000
/mnt/sda5/.user/root/src/openwatcom-1.9/bld/clib/startup/c/osmnptr.c
                _TEXT                 CODE           6fe29ae0  !      00000021
                CONST                 DATA           6fe4d00c  !      00000000
                CONST2                DATA           6fe4d068  !      00000000
                _DATA                 DATA           6fe4d670  !      00000000
/mnt/sda5/.user/root/src/openwatcom-1.9/bld/clib/startup/c/osvrptr.c
                _TEXT                 CODE           6fe29b10  !      00000021
                CONST                 DATA           6fe4d00c  !      00000000
                CONST2                DATA           6fe4d068  !      00000000
                _DATA                 DATA           6fe4d670  !      00000000
/mnt/sda5/.user/root/src/openwatcom-1.9/bld/clib/startup/c/pgmptr.c
                _TEXT                 CODE           6fe29b40  !      00000021
                CONST                 DATA           6fe4d00c  !      00000000
                CONST2                DATA           6fe4d068  !      00000000
                _DATA                 DATA           6fe4d670  !      00000000
/mnt/sda5/.user/root/src/openwatcom-1.9/bld/clib/startup/c/rtcntrl.c
                _TEXT                 CODE           6fe29b70  !      00000079
                CONST                 DATA           6fe4d00c  !      00000000
                CONST2                DATA           6fe4d068  !      00000000
                _DATA                 DATA           6fe4d670  !      00000001
seh             _TEXT                 CODE           6fe29bec  !      00000123
                _DATA                 DATA           6fe4d674  !      00000000
sehv2           _TEXT                 CODE           6fe29d10  !      00000123
                _DATA                 DATA           6fe4d674  !      00000000
/mnt/sda5/.user/root/src/openwatcom-1.9/bld/clib/startup/c/seterrno.c
                _TEXT                 CODE           6fe29e33  !      000000bb
                CONST                 DATA           6fe4d00c  !      00000000
                CONST2                DATA           6fe4d068  !      00000000
                _DATA                 DATA           6fe4d674  !      00000000
/mnt/sda5/.user/root/src/openwatcom-1.9/bld/clib/startup/c/stackwnt.c
                _TEXT                 CODE           6fe29ef0  !      00000029
                CONST                 DATA           6fe4d00c  !      00000000
                CONST2                DATA           6fe4d068  !      00000000
                _DATA                 DATA           6fe4d674  !      00000000
/mnt/sda5/.user/root/src/openwatcom-1.9/bld/clib/startup/a/stjmp386.asm
                _TEXT                 CODE           6fe29f1c  !      000000c1
                _DATA                 DATA           6fe4d674  !      00000000
/mnt/sda5/.user/root/src/openwatcom-1.9/bld/clib/startup/a/stkwnt.asm
                _TEXT                 CODE           6fe29fe0  !      00000074
                _DATA                 DATA           6fe4d674  !      00000010
                XIB                   DATA           6fe4dcd8  !      00000000
                XI                    DATA           6fe4dd02  !      00000006
                XIE                   DATA           6fe4dd32  !      00000000
                YIB                   DATA           6fe4dd32  !      00000000
                YI                    DATA           6fe4dd4a  !      00000000
                YIE                   DATA           6fe4dd68  !      00000000
/mnt/sda5/.user/root/src/openwatcom-1.9/bld/clib/startup/c/wnmjptr.c
                _TEXT                 CODE           6fe2a060  !      00000021
                CONST                 DATA           6fe4d00c  !      00000000
                CONST2                DATA           6fe4d068  !      00000000
                _DATA                 DATA           6fe4d684  !      00000000
/mnt/sda5/.user/root/src/openwatcom-1.9/bld/clib/startup/c/wnmnptr.c
                _TEXT                 CODE           6fe2a090  !      00000021
                CONST                 DATA           6fe4d00c  !      00000000
                CONST2                DATA           6fe4d068  !      00000000
                _DATA                 DATA           6fe4d684  !      00000000
/mnt/sda5/.user/root/src/openwatcom-1.9/bld/clib/startup/c/wnvrptr.c
                _TEXT                 CODE           6fe2a0c0  !      00000021
                CONST                 DATA           6fe4d00c  !      00000000
                CONST2                DATA           6fe4d068  !      00000000
                _DATA                 DATA           6fe4d684  !      00000000
/mnt/sda5/.user/root/src/openwatcom-1.9/bld/clib/startup/c/wpgmptr.c
                _TEXT                 CODE           6fe2a0f0  !      00000021
                CONST                 DATA           6fe4d00c  !      00000000
                CONST2                DATA           6fe4d068  !      00000000
                _DATA                 DATA           6fe4d684  !      00000000
/mnt/sda5/.user/root/src/openwatcom-1.9/bld/clib/startup/c/xmsgwnt.c
                _TEXT                 CODE           6fe2a120  !      000000b8
                CONST                 DATA           6fe4d00c  !      00000000
                CONST2                DATA           6fe4d068  !      00000000
                _DATA                 DATA           6fe4d684  !      00000000
/mnt/sda5/.user/root/src/openwatcom-1.9/bld/clib/startup/c/___argc.c
                _TEXT                 CODE           6fe2a1e0  !      00000000
                CONST                 DATA           6fe4d00c  !      00000000
                CONST2                DATA           6fe4d068  !      00000000
                _DATA                 DATA           6fe4d684  !      00000000
                _BSS                  BSS            6fe501d0  !      00000008
/mnt/sda5/.user/root/src/openwatcom-1.9/bld/clib/startup/c/___wargc.c
                _TEXT                 CODE           6fe2a1e0  !      00000000
                CONST                 DATA           6fe4d00c  !      00000000
                CONST2                DATA           6fe4d068  !      00000000
                _DATA                 DATA           6fe4d684  !      00000000
                _BSS                  BSS            6fe501d8  !      00000008
/mnt/sda5/.user/root/src/openwatcom-1.9/bld/clib/streamio/c/64fseek.c
                _TEXT                 CODE           6fe2a1e0  !      00000392
                CONST                 DATA           6fe4d00c  !      00000000
                CONST2                DATA           6fe4d068  !      00000000
                _DATA                 DATA           6fe4d684  !      00000000
/mnt/sda5/.user/root/src/openwatcom-1.9/bld/clib/streamio/c/64ftell.c
                _TEXT                 CODE           6fe2a580  !      000000bd
                CONST                 DATA           6fe4d00c  !      00000000
                CONST2                DATA           6fe4d068  !      00000000
                _DATA                 DATA           6fe4d684  !      00000000
/mnt/sda5/.user/root/src/openwatcom-1.9/bld/clib/streamio/c/clearerr.c
                _TEXT                 CODE           6fe2a640  !      00000039
                CONST                 DATA           6fe4d00c  !      00000000
                CONST2                DATA           6fe4d068  !      00000000
                _DATA                 DATA           6fe4d684  !      00000000
/mnt/sda5/.user/root/src/openwatcom-1.9/bld/clib/streamio/c/comtflag.c
                _TEXT                 CODE           6fe2a680  !      00000021
                CONST                 DATA           6fe4d00c  !      00000000
                CONST2                DATA           6fe4d068  !      00000000
                _DATA                 DATA           6fe4d684  !      00000004
/mnt/sda5/.user/root/src/openwatcom-1.9/bld/clib/streamio/c/fclose.c
                _TEXT                 CODE           6fe2a6b0  !      0000018d
                CONST                 DATA           6fe4d00c  !      00000000
                CONST2                DATA           6fe4d068  !      00000000
                _DATA                 DATA           6fe4d688  !      00000000
                _BSS                  BSS            6fe501e0  !      00000004
/mnt/sda5/.user/root/src/openwatcom-1.9/bld/clib/streamio/c/fdopen.c
                _TEXT                 CODE           6fe2a840  !      000001c7
                CONST                 DATA           6fe4d00c  !      00000000
                CONST2                DATA           6fe4d068  !      00000000
                _DATA                 DATA           6fe4d688  !      00000000
/mnt/sda5/.user/root/src/openwatcom-1.9/bld/clib/streamio/c/feof.c
                _TEXT                 CODE           6fe2aa10  !      00000029
                CONST                 DATA           6fe4d00c  !      00000000
                CONST2                DATA           6fe4d068  !      00000000
                _DATA                 DATA           6fe4d688  !      00000000
/mnt/sda5/.user/root/src/openwatcom-1.9/bld/clib/streamio/c/ferror.c
                _TEXT                 CODE           6fe2aa40  !      00000029
                CONST                 DATA           6fe4d00c  !      00000000
                CONST2                DATA           6fe4d068  !      00000000
                _DATA                 DATA           6fe4d688  !      00000000
/mnt/sda5/.user/root/src/openwatcom-1.9/bld/clib/streamio/c/fflush.c
                _TEXT                 CODE           6fe2aa70  !      0000003c
                CONST                 DATA           6fe4d00c  !      00000000
                CONST2                DATA           6fe4d068  !      00000000
                _DATA                 DATA           6fe4d688  !      00000000
/mnt/sda5/.user/root/src/openwatcom-1.9/bld/clib/streamio/c/fgetc.c
                _TEXT                 CODE           6fe2aab0  !      0000028a
                CONST                 DATA           6fe4d00c  !      00000000
                CONST2                DATA           6fe4d068  !      00000000
                _DATA                 DATA           6fe4d688  !      00000000
/mnt/sda5/.user/root/src/openwatcom-1.9/bld/clib/streamio/c/fgetchar.c
                _TEXT                 CODE           6fe2ad40  !      00000027
                CONST                 DATA           6fe4d00c  !      00000000
                CONST2                DATA           6fe4d068  !      00000000
                _DATA                 DATA           6fe4d688  !      00000000
/mnt/sda5/.user/root/src/openwatcom-1.9/bld/clib/streamio/c/fgetpos.c
                _TEXT                 CODE           6fe2ad70  !      00000049
                CONST                 DATA           6fe4d00c  !      00000000
                CONST2                DATA           6fe4d068  !      00000000
                _DATA                 DATA           6fe4d688  !      00000000
/mnt/sda5/.user/root/src/openwatcom-1.9/bld/clib/streamio/c/fgets.c
                _TEXT                 CODE           6fe2adc0  !      000000bb
                CONST                 DATA           6fe4d00c  !      00000000
                CONST2                DATA           6fe4d068  !      00000000
                _DATA                 DATA           6fe4d688  !      00000000
/mnt/sda5/.user/root/src/openwatcom-1.9/bld/clib/streamio/c/flush.c
                _TEXT                 CODE           6fe2ae80  !      00000185
                CONST                 DATA           6fe4d00c  !      00000000
                CONST2                DATA           6fe4d068  !      00000000
                _DATA                 DATA           6fe4d688  !      00000000
/mnt/sda5/.user/root/src/openwatcom-1.9/bld/clib/streamio/c/flushall.c
                _TEXT                 CODE           6fe2b010  !      000000a7
                CONST                 DATA           6fe4d00c  !      00000000
                CONST2                DATA           6fe4d068  !      00000000
                _DATA                 DATA           6fe4d688  !      00000000
/mnt/sda5/.user/root/src/openwatcom-1.9/bld/clib/streamio/c/fopen.c
                _TEXT                 CODE           6fe2b0c0  !      0000055a
                CONST                 DATA           6fe4d00c  !      00000000
                CONST2                DATA           6fe4d068  !      00000000
                _DATA                 DATA           6fe4d688  !      00000000
/mnt/sda5/.user/root/src/openwatcom-1.9/bld/clib/streamio/c/fopen_s.c
                _TEXT                 CODE           6fe2b620  !      00000149
                CONST                 DATA           6fe4d00c  !      00000000
                CONST2                DATA           6fe4d068  !      00000000
                _DATA                 DATA           6fe4d688  !      00000000
/mnt/sda5/.user/root/src/openwatcom-1.9/bld/clib/streamio/c/freop_s.c
                _TEXT                 CODE           6fe2b770  !      0000014b
                CONST                 DATA           6fe4d00c  !      00000000
                CONST2                DATA           6fe4d068  !      00000000
                _DATA                 DATA           6fe4d688  !      00000000
/mnt/sda5/.user/root/src/openwatcom-1.9/bld/clib/streamio/c/fprintf.c
                _TEXT                 CODE           6fe2b8c0  !      00000031
                CONST                 DATA           6fe4d00c  !      00000000
                CONST2                DATA           6fe4d068  !      00000000
                _DATA                 DATA           6fe4d688  !      00000000
/mnt/sda5/.user/root/src/openwatcom-1.9/bld/clib/streamio/c/fprntf_s.c
                _TEXT                 CODE           6fe2b900  !      00000031
                CONST                 DATA           6fe4d00c  !      00000000
                CONST2                DATA           6fe4d068  !      00000000
                _DATA                 DATA           6fe4d688  !      00000000
/mnt/sda5/.user/root/src/openwatcom-1.9/bld/clib/streamio/c/fputc.c
                _TEXT                 CODE           6fe2b940  !      0000017f
                CONST                 DATA           6fe4d00c  !      00000000
                CONST2                DATA           6fe4d068  !      00000000
                _DATA                 DATA           6fe4d688  !      00000000
/mnt/sda5/.user/root/src/openwatcom-1.9/bld/clib/streamio/c/fputchar.c
                _TEXT                 CODE           6fe2bac0  !      0000002d
                CONST                 DATA           6fe4d00c  !      00000000
                CONST2                DATA           6fe4d068  !      00000000
                _DATA                 DATA           6fe4d688  !      00000000
/mnt/sda5/.user/root/src/openwatcom-1.9/bld/clib/streamio/c/fputs.c
                _TEXT                 CODE           6fe2baf0  !      000000e7
                CONST                 DATA           6fe4d00c  !      00000000
                CONST2                DATA           6fe4d068  !      00000000
                _DATA                 DATA           6fe4d688  !      00000000
/mnt/sda5/.user/root/src/openwatcom-1.9/bld/clib/streamio/c/fread.c
                _TEXT                 CODE           6fe2bbe0  !      0000026c
                CONST                 DATA           6fe4d00c  !      00000000
                CONST2                DATA           6fe4d068  !      00000000
                _DATA                 DATA           6fe4d688  !      00000000
/mnt/sda5/.user/root/src/openwatcom-1.9/bld/clib/streamio/c/fscanf.c
                _TEXT                 CODE           6fe2be50  !      00000141
                CONST                 DATA           6fe4d00c  !      00000000
                CONST2                DATA           6fe4d068  !      00000000
                _DATA                 DATA           6fe4d688  !      00000000
/mnt/sda5/.user/root/src/openwatcom-1.9/bld/clib/streamio/c/fscanf_s.c
                _TEXT                 CODE           6fe2bfa0  !      000001b9
                CONST                 DATA           6fe4d00c  !      00000000
                CONST2                DATA           6fe4d068  !      00000000
                _DATA                 DATA           6fe4d688  !      00000000
/mnt/sda5/.user/root/src/openwatcom-1.9/bld/clib/streamio/c/fseek.c
                _TEXT                 CODE           6fe2c160  !      000002cc
                CONST                 DATA           6fe4d00c  !      00000000
                CONST2                DATA           6fe4d068  !      00000000
                _DATA                 DATA           6fe4d688  !      00000000
/mnt/sda5/.user/root/src/openwatcom-1.9/bld/clib/streamio/c/fsetpos.c
                _TEXT                 CODE           6fe2c430  !      00000030
                CONST                 DATA           6fe4d00c  !      00000000
                CONST2                DATA           6fe4d068  !      00000000
                _DATA                 DATA           6fe4d688  !      00000000
/mnt/sda5/.user/root/src/openwatcom-1.9/bld/clib/streamio/c/ftell.c
                _TEXT                 CODE           6fe2c460  !      00000091
                CONST                 DATA           6fe4d00c  !      00000000
                CONST2                DATA           6fe4d068  !      00000000
                _DATA                 DATA           6fe4d688  !      00000000
/mnt/sda5/.user/root/src/openwatcom-1.9/bld/clib/streamio/c/fwide.c
                _TEXT                 CODE           6fe2c500  !      000000bd
                CONST                 DATA           6fe4d00c  !      00000000
                CONST2                DATA           6fe4d068  !      00000000
                _DATA                 DATA           6fe4d688  !      00000000
/mnt/sda5/.user/root/src/openwatcom-1.9/bld/clib/streamio/c/fwrite.c
                _TEXT                 CODE           6fe2c5c0  !      0000028c
                CONST                 DATA           6fe4d00c  !      00000000
                CONST2                DATA           6fe4d068  !      00000000
                _DATA                 DATA           6fe4d688  !      00000000
/mnt/sda5/.user/root/src/openwatcom-1.9/bld/clib/streamio/c/getc.c
                _TEXT                 CODE           6fe2c850  !      00000028
                CONST                 DATA           6fe4d00c  !      00000000
                CONST2                DATA           6fe4d068  !      00000000
                _DATA                 DATA           6fe4d688  !      00000000
/mnt/sda5/.user/root/src/openwatcom-1.9/bld/clib/streamio/c/getchar.c
                _TEXT                 CODE           6fe2c880  !      00000027
                CONST                 DATA           6fe4d00c  !      00000000
                CONST2                DATA           6fe4d068  !      00000000
                _DATA                 DATA           6fe4d688  !      00000000
/mnt/sda5/.user/root/src/openwatcom-1.9/bld/clib/streamio/c/gets.c
                _TEXT                 CODE           6fe2c8b0  !      00000096
                CONST                 DATA           6fe4d00c  !      00000000
                CONST2                DATA           6fe4d068  !      00000000
                _DATA                 DATA           6fe4d688  !      00000000
/mnt/sda5/.user/root/src/openwatcom-1.9/bld/clib/streamio/c/gets_s.c
                _TEXT                 CODE           6fe2c950  !      000001fb
                CONST                 DATA           6fe4d00c  !      00000000
                CONST2                DATA           6fe4d068  !      00000000
                _DATA                 DATA           6fe4d688  !      00000000
/mnt/sda5/.user/root/src/openwatcom-1.9/bld/clib/streamio/c/getw.c
                _TEXT                 CODE           6fe2cb50  !      0000004a
                CONST                 DATA           6fe4d00c  !      00000000
                CONST2                DATA           6fe4d068  !      00000000
                _DATA                 DATA           6fe4d688  !      00000000
/mnt/sda5/.user/root/src/openwatcom-1.9/bld/clib/streamio/c/iob.c
                _TEXT                 CODE           6fe2cba0  !      00000000
                CONST                 DATA           6fe4d00c  !      00000000
                CONST2                DATA           6fe4d068  !      00000000
                _DATA                 DATA           6fe4d688  !      0000020c
                _BSS                  BSS            6fe501e4  !      00000008
                XIB                   DATA           6fe4dcd8  !      00000000
                XI                    DATA           6fe4dd08  !      00000006
                XIE                   DATA           6fe4dd32  !      00000000
                YIB                   DATA           6fe4dd32  !      00000000
                YI                    DATA           6fe4dd4a  !      00000006
                YIE                   DATA           6fe4dd68  !      00000000
/mnt/sda5/.user/root/src/openwatcom-1.9/bld/clib/streamio/c/iobaddr.c
                _TEXT                 CODE           6fe2cba0  !      00000068
                CONST                 DATA           6fe4d00c  !      00000000
                CONST2                DATA           6fe4d068  !      00000000
                _DATA                 DATA           6fe4d894  !      00000000
/mnt/sda5/.user/root/src/openwatcom-1.9/bld/clib/streamio/c/iobptr.c
                _TEXT                 CODE           6fe2cc10  !      00000021
                CONST                 DATA           6fe4d00c  !      00000000
                CONST2                DATA           6fe4d068  !      00000000
                _DATA                 DATA           6fe4d894  !      00000000
/mnt/sda5/.user/root/src/openwatcom-1.9/bld/clib/streamio/c/noefgfmt.c
                _TEXT                 CODE           6fe2cc40  !      00000056
                CONST                 DATA           6fe4d00c  !      00000000
                CONST2                DATA           6fe4d068  !      00000000
                _DATA                 DATA           6fe4d894  !      00000008
/mnt/sda5/.user/root/src/openwatcom-1.9/bld/clib/streamio/c/pclose.c
                _TEXT                 CODE           6fe2cca0  !      0000008a
                CONST                 DATA           6fe4d00c  !      00000000
                CONST2                DATA           6fe4d068  !      00000000
                _DATA                 DATA           6fe4d89c  !      00000000
/mnt/sda5/.user/root/src/openwatcom-1.9/bld/clib/streamio/c/perror.c
                _TEXT                 CODE           6fe2cd30  !      0000007d
                CONST                 DATA           6fe4d00c  !      00000000
                CONST2                DATA           6fe4d068  !      00000000
                _DATA                 DATA           6fe4d89c  !      00000000
/mnt/sda5/.user/root/src/openwatcom-1.9/bld/clib/streamio/c/popen.c
                _TEXT                 CODE           6fe2cdb0  !      000006c0
                CONST                 DATA           6fe4d00c  !      00000000
                CONST2                DATA           6fe4d068  !      00000000
                _DATA                 DATA           6fe4d89c  !      00000000
/mnt/sda5/.user/root/src/openwatcom-1.9/bld/clib/streamio/c/printf.c
                _TEXT                 CODE           6fe2d470  !      00000033
                CONST                 DATA           6fe4d00c  !      00000000
                CONST2                DATA           6fe4d068  !      00000000
                _DATA                 DATA           6fe4d89c  !      00000000
/mnt/sda5/.user/root/src/openwatcom-1.9/bld/clib/streamio/c/printf_s.c
                _TEXT                 CODE           6fe2d4b0  !      00000033
                CONST                 DATA           6fe4d00c  !      00000000
                CONST2                DATA           6fe4d068  !      00000000
                _DATA                 DATA           6fe4d89c  !      00000000
/mnt/sda5/.user/root/src/openwatcom-1.9/bld/clib/streamio/c/putc.c
                _TEXT                 CODE           6fe2d4f0  !      0000002c
                CONST                 DATA           6fe4d00c  !      00000000
                CONST2                DATA           6fe4d068  !      00000000
                _DATA                 DATA           6fe4d89c  !      00000000
/mnt/sda5/.user/root/src/openwatcom-1.9/bld/clib/streamio/c/putchar.c
                _TEXT                 CODE           6fe2d520  !      0000002d
                CONST                 DATA           6fe4d00c  !      00000000
                CONST2                DATA           6fe4d068  !      00000000
                _DATA                 DATA           6fe4d89c  !      00000000
/mnt/sda5/.user/root/src/openwatcom-1.9/bld/clib/streamio/c/puts.c
                _TEXT                 CODE           6fe2d550  !      0000005c
                CONST                 DATA           6fe4d00c  !      00000000
                CONST2                DATA           6fe4d068  !      00000000
                _DATA                 DATA           6fe4d89c  !      00000000
/mnt/sda5/.user/root/src/openwatcom-1.9/bld/clib/streamio/c/putw.c
                _TEXT                 CODE           6fe2d5b0  !      0000004b
                CONST                 DATA           6fe4d00c  !      00000000
                CONST2                DATA           6fe4d068  !      00000000
                _DATA                 DATA           6fe4d89c  !      00000000
/mnt/sda5/.user/root/src/openwatcom-1.9/bld/clib/streamio/c/rewind.c
                _TEXT                 CODE           6fe2d600  !      0000002d
                CONST                 DATA           6fe4d00c  !      00000000
                CONST2                DATA           6fe4d068  !      00000000
                _DATA                 DATA           6fe4d89c  !      00000000
/mnt/sda5/.user/root/src/openwatcom-1.9/bld/clib/streamio/c/scanf.c
                _TEXT                 CODE           6fe2d630  !      000000de
                CONST                 DATA           6fe4d00c  !      00000000
                CONST2                DATA           6fe4d068  !      00000000
                _DATA                 DATA           6fe4d89c  !      00000000
/mnt/sda5/.user/root/src/openwatcom-1.9/bld/clib/streamio/c/scanf_s.c
                _TEXT                 CODE           6fe2d710  !      00000127
                CONST                 DATA           6fe4d00c  !      00000000
                CONST2                DATA           6fe4d068  !      00000000
                _DATA                 DATA           6fe4d89c  !      00000000
/mnt/sda5/.user/root/src/openwatcom-1.9/bld/clib/streamio/c/setbuf.c
                _TEXT                 CODE           6fe2d840  !      00000042
                CONST                 DATA           6fe4d00c  !      00000000
                CONST2                DATA           6fe4d068  !      00000000
                _DATA                 DATA           6fe4d89c  !      00000000
/mnt/sda5/.user/root/src/openwatcom-1.9/bld/clib/streamio/c/setvbuf.c
                _TEXT                 CODE           6fe2d890  !      000000df
                CONST                 DATA           6fe4d00c  !      00000000
                CONST2                DATA           6fe4d068  !      00000000
                _DATA                 DATA           6fe4d89c  !      00000000
/mnt/sda5/.user/root/src/openwatcom-1.9/bld/clib/streamio/c/tmpfl.c
                _TEXT                 CODE           6fe2d970  !      000001a1
                CONST                 DATA           6fe4d00c  !      00000000
                CONST2                DATA           6fe4d068  !      00000000
                _DATA                 DATA           6fe4d89c  !      00000001
                XIB                   DATA           6fe4dcd8  !      00000000
                XI                    DATA           6fe4dd0e  !      00000006
                XIE                   DATA           6fe4dd32  !      00000000
/mnt/sda5/.user/root/src/openwatcom-1.9/bld/clib/streamio/c/tmpfl_s.c
                _TEXT                 CODE           6fe2db20  !      00000090
                CONST                 DATA           6fe4d00c  !      00000000
                CONST2                DATA           6fe4d068  !      00000000
                _DATA                 DATA           6fe4d8a0  !      00000000
/mnt/sda5/.user/root/src/openwatcom-1.9/bld/clib/streamio/c/ufdopen.c
                _TEXT                 CODE           6fe2dbb0  !      000001ab
                CONST                 DATA           6fe4d00c  !      00000000
                CONST2                DATA           6fe4d068  !      00000000
                _DATA                 DATA           6fe4d8a0  !      00000000
/mnt/sda5/.user/root/src/openwatcom-1.9/bld/clib/streamio/c/ufgetc.c
                _TEXT                 CODE           6fe2dd5b  !      000001b7
                CONST                 DATA           6fe4d00c  !      00000000
                CONST2                DATA           6fe4d068  !      00000000
                _DATA                 DATA           6fe4d8a0  !      00000000
/mnt/sda5/.user/root/src/openwatcom-1.9/bld/clib/streamio/c/ufgetcha.c
                _TEXT                 CODE           6fe2df12  !      00000020
                CONST                 DATA           6fe4d00c  !      00000000
                CONST2                DATA           6fe4d068  !      00000000
                _DATA                 DATA           6fe4d8a0  !      00000000
/mnt/sda5/.user/root/src/openwatcom-1.9/bld/clib/streamio/c/ufgets.c
                _TEXT                 CODE           6fe2df32  !      000000bd
                CONST                 DATA           6fe4d00c  !      00000000
                CONST2                DATA           6fe4d068  !      00000000
                _DATA                 DATA           6fe4d8a0  !      00000000
/mnt/sda5/.user/root/src/openwatcom-1.9/bld/clib/streamio/c/ufopen.c
                _TEXT                 CODE           6fe2dfef  !      0000051a
                CONST                 DATA           6fe4d00c  !      00000000
                CONST2                DATA           6fe4d068  !      00000000
                _DATA                 DATA           6fe4d8a0  !      00000000
/mnt/sda5/.user/root/src/openwatcom-1.9/bld/clib/streamio/c/ufopen_s.c
                _TEXT                 CODE           6fe2e510  !      0000014e
                CONST                 DATA           6fe4d00c  !      00000000
                CONST2                DATA           6fe4d068  !      00000000
                _DATA                 DATA           6fe4d8a0  !      00000000
/mnt/sda5/.user/root/src/openwatcom-1.9/bld/clib/streamio/c/ufreop_s.c
                _TEXT                 CODE           6fe2e660  !      00000150
                CONST                 DATA           6fe4d00c  !      00000000
                CONST2                DATA           6fe4d068  !      00000000
                _DATA                 DATA           6fe4d8a0  !      00000000
/mnt/sda5/.user/root/src/openwatcom-1.9/bld/clib/streamio/c/ufprintf.c
                _TEXT                 CODE           6fe2e7b0  !      0000002a
                CONST                 DATA           6fe4d00c  !      00000000
                CONST2                DATA           6fe4d068  !      00000000
                _DATA                 DATA           6fe4d8a0  !      00000000
/mnt/sda5/.user/root/src/openwatcom-1.9/bld/clib/streamio/c/ufprnt_s.c
                _TEXT                 CODE           6fe2e7e0  !      00000031
                CONST                 DATA           6fe4d00c  !      00000000
                CONST2                DATA           6fe4d068  !      00000000
                _DATA                 DATA           6fe4d8a0  !      00000000
/mnt/sda5/.user/root/src/openwatcom-1.9/bld/clib/streamio/c/ufputc.c
                _TEXT                 CODE           6fe2e811  !      0000010e
                CONST                 DATA           6fe4d00c  !      00000000
                CONST2                DATA           6fe4d068  !      00000000
                _DATA                 DATA           6fe4d8a0  !      00000000
/mnt/sda5/.user/root/src/openwatcom-1.9/bld/clib/streamio/c/ufputcha.c
                _TEXT                 CODE           6fe2e91f  !      00000027
                CONST                 DATA           6fe4d00c  !      00000000
                CONST2                DATA           6fe4d068  !      00000000
                _DATA                 DATA           6fe4d8a0  !      00000000
/mnt/sda5/.user/root/src/openwatcom-1.9/bld/clib/streamio/c/ufputs.c
                _TEXT                 CODE           6fe2e946  !      000000e5
                CONST                 DATA           6fe4d00c  !      00000000
                CONST2                DATA           6fe4d068  !      00000000
                _DATA                 DATA           6fe4d8a0  !      00000000
/mnt/sda5/.user/root/src/openwatcom-1.9/bld/clib/streamio/c/ufscanf.c
                _TEXT                 CODE           6fe2ea2b  !      00000121
                CONST                 DATA           6fe4d00c  !      00000000
                CONST2                DATA           6fe4d068  !      00000000
                _DATA                 DATA           6fe4d8a0  !      00000000
/mnt/sda5/.user/root/src/openwatcom-1.9/bld/clib/streamio/c/ufscnf_s.c
                _TEXT                 CODE           6fe2eb50  !      000001c9
                CONST                 DATA           6fe4d00c  !      00000000
                CONST2                DATA           6fe4d068  !      00000000
                _DATA                 DATA           6fe4d8a0  !      00000000
/mnt/sda5/.user/root/src/openwatcom-1.9/bld/clib/streamio/c/ugetc.c
                _TEXT                 CODE           6fe2ed19  !      00000021
                CONST                 DATA           6fe4d00c  !      00000000
                CONST2                DATA           6fe4d068  !      00000000
                _DATA                 DATA           6fe4d8a0  !      00000000
/mnt/sda5/.user/root/src/openwatcom-1.9/bld/clib/streamio/c/ugetchar.c
                _TEXT                 CODE           6fe2ed3a  !      00000020
                CONST                 DATA           6fe4d00c  !      00000000
                CONST2                DATA           6fe4d068  !      00000000
                _DATA                 DATA           6fe4d8a0  !      00000000
/mnt/sda5/.user/root/src/openwatcom-1.9/bld/clib/streamio/c/ugets.c
                _TEXT                 CODE           6fe2ed5a  !      00000096
                CONST                 DATA           6fe4d00c  !      00000000
                CONST2                DATA           6fe4d068  !      00000000
                _DATA                 DATA           6fe4d8a0  !      00000000
/mnt/sda5/.user/root/src/openwatcom-1.9/bld/clib/streamio/c/ungetc.c
                _TEXT                 CODE           6fe2edf0  !      0000017a
                CONST                 DATA           6fe4d00c  !      00000000
                CONST2                DATA           6fe4d068  !      00000000
                _DATA                 DATA           6fe4d8a0  !      00000000
/mnt/sda5/.user/root/src/openwatcom-1.9/bld/clib/streamio/c/uperror.c
                _TEXT                 CODE           6fe2ef6a  !      0000006d
                CONST                 DATA           6fe4d00c  !      00000000
                CONST2                DATA           6fe4d068  !      00000000
                _DATA                 DATA           6fe4d8a0  !      00000000
/mnt/sda5/.user/root/src/openwatcom-1.9/bld/clib/streamio/c/upopen.c
                _TEXT                 CODE           6fe2efe0  !      000006f9
                CONST                 DATA           6fe4d00c  !      00000000
                CONST2                DATA           6fe4d068  !      00000000
                _DATA                 DATA           6fe4d8a0  !      00000000
/mnt/sda5/.user/root/src/openwatcom-1.9/bld/clib/streamio/c/uprintf.c
                _TEXT                 CODE           6fe2f6d9  !      0000002c
                CONST                 DATA           6fe4d00c  !      00000000
                CONST2                DATA           6fe4d068  !      00000000
                _DATA                 DATA           6fe4d8a0  !      00000000
/mnt/sda5/.user/root/src/openwatcom-1.9/bld/clib/streamio/c/uprntf_s.c
                _TEXT                 CODE           6fe2f710  !      00000033
                CONST                 DATA           6fe4d00c  !      00000000
                CONST2                DATA           6fe4d068  !      00000000
                _DATA                 DATA           6fe4d8a0  !      00000000
/mnt/sda5/.user/root/src/openwatcom-1.9/bld/clib/streamio/c/uputc.c
                _TEXT                 CODE           6fe2f743  !      00000026
                CONST                 DATA           6fe4d00c  !      00000000
                CONST2                DATA           6fe4d068  !      00000000
                _DATA                 DATA           6fe4d8a0  !      00000000
/mnt/sda5/.user/root/src/openwatcom-1.9/bld/clib/streamio/c/uputchar.c
                _TEXT                 CODE           6fe2f769  !      00000027
                CONST                 DATA           6fe4d00c  !      00000000
                CONST2                DATA           6fe4d068  !      00000000
                _DATA                 DATA           6fe4d8a0  !      00000000
/mnt/sda5/.user/root/src/openwatcom-1.9/bld/clib/streamio/c/uputs.c
                _TEXT                 CODE           6fe2f790  !      00000056
                CONST                 DATA           6fe4d00c  !      00000000
                CONST2                DATA           6fe4d068  !      00000000
                _DATA                 DATA           6fe4d8a0  !      00000000
/mnt/sda5/.user/root/src/openwatcom-1.9/bld/clib/streamio/c/uscanf.c
                _TEXT                 CODE           6fe2f7e6  !      000000bb
                CONST                 DATA           6fe4d00c  !      00000000
                CONST2                DATA           6fe4d068  !      00000000
                _DATA                 DATA           6fe4d8a0  !      00000000
/mnt/sda5/.user/root/src/openwatcom-1.9/bld/clib/streamio/c/uscanf_s.c
                _TEXT                 CODE           6fe2f8b0  !      00000137
                CONST                 DATA           6fe4d00c  !      00000000
                CONST2                DATA           6fe4d068  !      00000000
                _DATA                 DATA           6fe4d8a0  !      00000000
/mnt/sda5/.user/root/src/openwatcom-1.9/bld/clib/streamio/c/uungetc.c
                _TEXT                 CODE           6fe2f9e7  !      00000246
                CONST                 DATA           6fe4d00c  !      00000000
                CONST2                DATA           6fe4d068  !      00000000
                _DATA                 DATA           6fe4d8a0  !      00000000
/mnt/sda5/.user/root/src/openwatcom-1.9/bld/clib/streamio/c/uvfprint.c
                _TEXT                 CODE           6fe2fc2d  !      00000029
                CONST                 DATA           6fe4d00c  !      00000000
                CONST2                DATA           6fe4d068  !      00000000
                _DATA                 DATA           6fe4d8a0  !      00000000
/mnt/sda5/.user/root/src/openwatcom-1.9/bld/clib/streamio/c/uvfprt_s.c
                _TEXT                 CODE           6fe2fc60  !      00000030
                CONST                 DATA           6fe4d00c  !      00000000
                CONST2                DATA           6fe4d068  !      00000000
                _DATA                 DATA           6fe4d8a0  !      00000000
/mnt/sda5/.user/root/src/openwatcom-1.9/bld/clib/streamio/c/uvfscn_s.c
                _TEXT                 CODE           6fe2fc90  !      000001c1
                CONST                 DATA           6fe4d00c  !      00000000
                CONST2                DATA           6fe4d068  !      00000000
                _DATA                 DATA           6fe4d8a0  !      00000000
/mnt/sda5/.user/root/src/openwatcom-1.9/bld/clib/streamio/c/uvprintf.c
                _TEXT                 CODE           6fe2fe51  !      0000002a
                CONST                 DATA           6fe4d00c  !      00000000
                CONST2                DATA           6fe4d068  !      00000000
                _DATA                 DATA           6fe4d8a0  !      00000000
/mnt/sda5/.user/root/src/openwatcom-1.9/bld/clib/streamio/c/uvprtf_s.c
                _TEXT                 CODE           6fe2fe80  !      00000031
                CONST                 DATA           6fe4d00c  !      00000000
                CONST2                DATA           6fe4d068  !      00000000
                _DATA                 DATA           6fe4d8a0  !      00000000
/mnt/sda5/.user/root/src/openwatcom-1.9/bld/clib/streamio/c/uvscnf_s.c
                _TEXT                 CODE           6fe2fec0  !      0000012e
                CONST                 DATA           6fe4d00c  !      00000000
                CONST2                DATA           6fe4d068  !      00000000
                _DATA                 DATA           6fe4d8a0  !      00000000
/mnt/sda5/.user/root/src/openwatcom-1.9/bld/clib/streamio/c/vfprintf.c
                _TEXT                 CODE           6fe2fff0  !      00000030
                CONST                 DATA           6fe4d00c  !      00000000
                CONST2                DATA           6fe4d068  !      00000000
                _DATA                 DATA           6fe4d8a0  !      00000000
/mnt/sda5/.user/root/src/openwatcom-1.9/bld/clib/streamio/c/vfprnt_s.c
                _TEXT                 CODE           6fe30020  !      00000030
                CONST                 DATA           6fe4d00c  !      00000000
                CONST2                DATA           6fe4d068  !      00000000
                _DATA                 DATA           6fe4d8a0  !      00000000
/mnt/sda5/.user/root/src/openwatcom-1.9/bld/clib/streamio/c/vfscnf_s.c
                _TEXT                 CODE           6fe30050  !      000001b1
                CONST                 DATA           6fe4d00c  !      00000000
                CONST2                DATA           6fe4d068  !      00000000
                _DATA                 DATA           6fe4d8a0  !      00000000
/mnt/sda5/.user/root/src/openwatcom-1.9/bld/clib/streamio/c/vprintf.c
                _TEXT                 CODE           6fe30210  !      00000031
                CONST                 DATA           6fe4d00c  !      00000000
                CONST2                DATA           6fe4d068  !      00000000
                _DATA                 DATA           6fe4d8a0  !      00000000
/mnt/sda5/.user/root/src/openwatcom-1.9/bld/clib/streamio/c/vprntf_s.c
                _TEXT                 CODE           6fe30250  !      00000031
                CONST                 DATA           6fe4d00c  !      00000000
                CONST2                DATA           6fe4d068  !      00000000
                _DATA                 DATA           6fe4d8a0  !      00000000
/mnt/sda5/.user/root/src/openwatcom-1.9/bld/clib/streamio/c/vscanf_s.c
                _TEXT                 CODE           6fe30290  !      0000011e
                CONST                 DATA           6fe4d00c  !      00000000
                CONST2                DATA           6fe4d068  !      00000000
                _DATA                 DATA           6fe4d8a0  !      00000000
/mnt/sda5/.user/root/src/openwatcom-1.9/bld/clib/string/c/bprintf.c
                _TEXT                 CODE           6fe303b0  !      000001b4
                CONST                 DATA           6fe4d00c  !      00000000
                CONST2                DATA           6fe4d068  !      00000000
                _DATA                 DATA           6fe4d8a0  !      00000000
/mnt/sda5/.user/root/src/openwatcom-1.9/bld/clib/string/a/cmp386.asm
                _TEXT                 CODE           6fe30570  !      0000013e
                _DATA                 DATA           6fe4d8a0  !      00000000
/mnt/sda5/.user/root/src/openwatcom-1.9/bld/clib/string/c/fstrcat.c
                _TEXT                 CODE           6fe306b0  !      0000008a
                CONST                 DATA           6fe4d00c  !      00000000
                CONST2                DATA           6fe4d068  !      00000000
                _DATA                 DATA           6fe4d8a0  !      00000000
/mnt/sda5/.user/root/src/openwatcom-1.9/bld/clib/string/c/fstrchr.c
                _TEXT                 CODE           6fe30740  !      00000068
                CONST                 DATA           6fe4d00c  !      00000000
                CONST2                DATA           6fe4d068  !      00000000
                _DATA                 DATA           6fe4d8a0  !      00000000
/mnt/sda5/.user/root/src/openwatcom-1.9/bld/clib/string/c/fstrcmp.c
                _TEXT                 CODE           6fe307b0  !      0000008b
                CONST                 DATA           6fe4d00c  !      00000000
                CONST2                DATA           6fe4d068  !      00000000
                _DATA                 DATA           6fe4d8a0  !      00000000
/mnt/sda5/.user/root/src/openwatcom-1.9/bld/clib/string/c/fstrcpy.c
                _TEXT                 CODE           6fe30840  !      00000072
                CONST                 DATA           6fe4d00c  !      00000000
                CONST2                DATA           6fe4d068  !      00000000
                _DATA                 DATA           6fe4d8a0  !      00000000
/mnt/sda5/.user/root/src/openwatcom-1.9/bld/clib/string/c/fstrcspn.c
                _TEXT                 CODE           6fe308c0  !      00000095
                CONST                 DATA           6fe4d00c  !      00000000
                CONST2                DATA           6fe4d068  !      00000000
                _DATA                 DATA           6fe4d8a0  !      00000000
/mnt/sda5/.user/root/src/openwatcom-1.9/bld/clib/string/c/fstrdup.c
                _TEXT                 CODE           6fe30960  !      0000007a
                CONST                 DATA           6fe4d00c  !      00000000
                CONST2                DATA           6fe4d068  !      00000000
                _DATA                 DATA           6fe4d8a0  !      00000000
/mnt/sda5/.user/root/src/openwatcom-1.9/bld/clib/string/c/fstricmp.c
                _TEXT                 CODE           6fe309e0  !      00000095
                CONST                 DATA           6fe4d00c  !      00000000
                CONST2                DATA           6fe4d068  !      00000000
                _DATA                 DATA           6fe4d8a0  !      00000000
/mnt/sda5/.user/root/src/openwatcom-1.9/bld/clib/string/c/fstrlen.c
                _TEXT                 CODE           6fe30a80  !      0000004d
                CONST                 DATA           6fe4d00c  !      00000000
                CONST2                DATA           6fe4d068  !      00000000
                _DATA                 DATA           6fe4d8a0  !      00000000
/mnt/sda5/.user/root/src/openwatcom-1.9/bld/clib/string/c/fstrlwr.c
                _TEXT                 CODE           6fe30ad0  !      00000074
                CONST                 DATA           6fe4d00c  !      00000000
                CONST2                DATA           6fe4d068  !      00000000
                _DATA                 DATA           6fe4d8a0  !      00000000
/mnt/sda5/.user/root/src/openwatcom-1.9/bld/clib/string/c/fstrncat.c
                _TEXT                 CODE           6fe30b50  !      0000009f
                CONST                 DATA           6fe4d00c  !      00000000
                CONST2                DATA           6fe4d068  !      00000000
                _DATA                 DATA           6fe4d8a0  !      00000000
/mnt/sda5/.user/root/src/openwatcom-1.9/bld/clib/string/c/fstrncmp.c
                _TEXT                 CODE           6fe30bf0  !      00000096
                CONST                 DATA           6fe4d00c  !      00000000
                CONST2                DATA           6fe4d068  !      00000000
                _DATA                 DATA           6fe4d8a0  !      00000000
/mnt/sda5/.user/root/src/openwatcom-1.9/bld/clib/string/c/fstrncpy.c
                _TEXT                 CODE           6fe30c90  !      000000a3
                CONST                 DATA           6fe4d00c  !      00000000
                CONST2                DATA           6fe4d068  !      00000000
                _DATA                 DATA           6fe4d8a0  !      00000000
/mnt/sda5/.user/root/src/openwatcom-1.9/bld/clib/string/c/fstrnicm.c
                _TEXT                 CODE           6fe30d40  !      000000b7
                CONST                 DATA           6fe4d00c  !      00000000
                CONST2                DATA           6fe4d068  !      00000000
                _DATA                 DATA           6fe4d8a0  !      00000000
/mnt/sda5/.user/root/src/openwatcom-1.9/bld/clib/string/c/fstrnset.c
                _TEXT                 CODE           6fe30e00  !      0000006e
                CONST                 DATA           6fe4d00c  !      00000000
                CONST2                DATA           6fe4d068  !      00000000
                _DATA                 DATA           6fe4d8a0  !      00000000
/mnt/sda5/.user/root/src/openwatcom-1.9/bld/clib/string/c/fstrpbrk.c
                _TEXT                 CODE           6fe30e70  !      000000a2
                CONST                 DATA           6fe4d00c  !      00000000
                CONST2                DATA           6fe4d068  !      00000000
                _DATA                 DATA           6fe4d8a0  !      00000000
/mnt/sda5/.user/root/src/openwatcom-1.9/bld/clib/string/c/fstrrchr.c
                _TEXT                 CODE           6fe30f20  !      00000073
                CONST                 DATA           6fe4d00c  !      00000000
                CONST2                DATA           6fe4d068  !      00000000
                _DATA                 DATA           6fe4d8a0  !      00000000
/mnt/sda5/.user/root/src/openwatcom-1.9/bld/clib/string/c/fstrrev.c
                _TEXT                 CODE           6fe30fa0  !      000000a9
                CONST                 DATA           6fe4d00c  !      00000000
                CONST2                DATA           6fe4d068  !      00000000
                _DATA                 DATA           6fe4d8a0  !      00000000
/mnt/sda5/.user/root/src/openwatcom-1.9/bld/clib/string/c/fstrset.c
                _TEXT                 CODE           6fe31050  !      00000061
                CONST                 DATA           6fe4d00c  !      00000000
                CONST2                DATA           6fe4d068  !      00000000
                _DATA                 DATA           6fe4d8a0  !      00000000
/mnt/sda5/.user/root/src/openwatcom-1.9/bld/clib/string/c/fstrspn.c
                _TEXT                 CODE           6fe310c0  !      00000095
                CONST                 DATA           6fe4d00c  !      00000000
                CONST2                DATA           6fe4d068  !      00000000
                _DATA                 DATA           6fe4d8a0  !      00000000
/mnt/sda5/.user/root/src/openwatcom-1.9/bld/clib/string/c/fstrspnp.c
                _TEXT                 CODE           6fe31160  !      0000006f
                CONST                 DATA           6fe4d00c  !      00000000
                CONST2                DATA           6fe4d068  !      00000000
                _DATA                 DATA           6fe4d8a0  !      00000000
/mnt/sda5/.user/root/src/openwatcom-1.9/bld/clib/string/c/fstrstr.c
                _TEXT                 CODE           6fe311d0  !      0000014e
                CONST                 DATA           6fe4d00c  !      00000000
                CONST2                DATA           6fe4d068  !      00000000
                _DATA                 DATA           6fe4d8a0  !      00000000
/mnt/sda5/.user/root/src/openwatcom-1.9/bld/clib/string/c/fstrtok.c
                _TEXT                 CODE           6fe31320  !      000001ab
                CONST                 DATA           6fe4d00c  !      00000000
                CONST2                DATA           6fe4d068  !      00000000
                _DATA                 DATA           6fe4d8a0  !      00000000
/mnt/sda5/.user/root/src/openwatcom-1.9/bld/clib/string/c/fstrupr.c
                _TEXT                 CODE           6fe314d0  !      00000074
                CONST                 DATA           6fe4d00c  !      00000000
                CONST2                DATA           6fe4d068  !      00000000
                _DATA                 DATA           6fe4d8a0  !      00000000
/mnt/sda5/.user/root/src/openwatcom-1.9/bld/clib/string/c/selptr.c
                _TEXT                 CODE           6fe31550  !      00000021
                CONST                 DATA           6fe4d00c  !      00000000
                CONST2                DATA           6fe4d068  !      00000000
                _DATA                 DATA           6fe4d8a0  !      00000000
/mnt/sda5/.user/root/src/openwatcom-1.9/bld/clib/string/c/sneptr.c
                _TEXT                 CODE           6fe31580  !      00000021
                CONST                 DATA           6fe4d00c  !      00000000
                CONST2                DATA           6fe4d068  !      00000000
                _DATA                 DATA           6fe4d8a0  !      00000000
/mnt/sda5/.user/root/src/openwatcom-1.9/bld/clib/string/c/snprintf.c
                _TEXT                 CODE           6fe315b0  !      00000144
                CONST                 DATA           6fe4d00c  !      00000000
                CONST2                DATA           6fe4d068  !      00000000
                _DATA                 DATA           6fe4d8a0  !      00000000
/mnt/sda5/.user/root/src/openwatcom-1.9/bld/clib/string/c/snprtf_s.c
                _TEXT                 CODE           6fe31700  !      000001b5
                CONST                 DATA           6fe4d00c  !      00000000
                CONST2                DATA           6fe4d068  !      00000000
                _DATA                 DATA           6fe4d8a0  !      00000000
/mnt/sda5/.user/root/src/openwatcom-1.9/bld/clib/string/c/sprintf.c
                _TEXT                 CODE           6fe318c0  !      00000031
                CONST                 DATA           6fe4d00c  !      00000000
                CONST2                DATA           6fe4d068  !      00000000
                _DATA                 DATA           6fe4d8a0  !      00000000
/mnt/sda5/.user/root/src/openwatcom-1.9/bld/clib/string/c/sprntf_s.c
                _TEXT                 CODE           6fe31900  !      000001d7
                CONST                 DATA           6fe4d00c  !      00000000
                CONST2                DATA           6fe4d068  !      00000000
                _DATA                 DATA           6fe4d8a0  !      00000000
/mnt/sda5/.user/root/src/openwatcom-1.9/bld/clib/string/c/sscanf.c
                _TEXT                 CODE           6fe31ae0  !      00000101
                CONST                 DATA           6fe4d00c  !      00000000
                CONST2                DATA           6fe4d068  !      00000000
                _DATA                 DATA           6fe4d8a0  !      00000000
/mnt/sda5/.user/root/src/openwatcom-1.9/bld/clib/string/c/sscanf_s.c
                _TEXT                 CODE           6fe31bf0  !      00000172
                CONST                 DATA           6fe4d00c  !      00000000
                CONST2                DATA           6fe4d068  !      00000000
                _DATA                 DATA           6fe4d8a0  !      00000000
/mnt/sda5/.user/root/src/openwatcom-1.9/bld/clib/string/c/strcat.c
                _TEXT                 CODE           6fe31d70  !      0000004f
                CONST                 DATA           6fe4d00c  !      00000000
                CONST2                DATA           6fe4d068  !      00000000
                _DATA                 DATA           6fe4d8a0  !      00000000
/mnt/sda5/.user/root/src/openwatcom-1.9/bld/clib/string/c/strchr.c
                _TEXT                 CODE           6fe31dc0  !      00000048
                CONST                 DATA           6fe4d00c  !      00000000
                CONST2                DATA           6fe4d068  !      00000000
                _DATA                 DATA           6fe4d8a0  !      00000000
/mnt/sda5/.user/root/src/openwatcom-1.9/bld/clib/string/c/strcoll.c
                _TEXT                 CODE           6fe31e10  !      0000005f
                CONST                 DATA           6fe4d00c  !      00000000
                CONST2                DATA           6fe4d068  !      00000000
                _DATA                 DATA           6fe4d8a0  !      00000000
/mnt/sda5/.user/root/src/openwatcom-1.9/bld/clib/string/c/strcpy.c
                _TEXT                 CODE           6fe31e70  !      00000047
                CONST                 DATA           6fe4d00c  !      00000000
                CONST2                DATA           6fe4d068  !      00000000
                _DATA                 DATA           6fe4d8a0  !      00000000
/mnt/sda5/.user/root/src/openwatcom-1.9/bld/clib/string/c/strcspn.c
                _TEXT                 CODE           6fe31ec0  !      00000075
                CONST                 DATA           6fe4d00c  !      00000000
                CONST2                DATA           6fe4d068  !      00000000
                _DATA                 DATA           6fe4d8a0  !      00000000
/mnt/sda5/.user/root/src/openwatcom-1.9/bld/clib/string/c/strdup.c
                _TEXT                 CODE           6fe31f40  !      0000004e
                CONST                 DATA           6fe4d00c  !      00000000
                CONST2                DATA           6fe4d068  !      00000000
                _DATA                 DATA           6fe4d8a0  !      00000000
/mnt/sda5/.user/root/src/openwatcom-1.9/bld/clib/string/c/strerror.c
                _TEXT                 CODE           6fe31f90  !      0000044b
                CONST                 DATA           6fe4d00c  !      00000000
                CONST2                DATA           6fe4d068  !      00000000
                _DATA                 DATA           6fe4d8a0  !      000000a8
                _BSS                  BSS            6fe501ec  !      00000100
/mnt/sda5/.user/root/src/openwatcom-1.9/bld/clib/string/c/stricmp.c
                _TEXT                 CODE           6fe323e0  !      0000007b
                CONST                 DATA           6fe4d00c  !      00000000
                CONST2                DATA           6fe4d068  !      00000000
                _DATA                 DATA           6fe4d948  !      00000000
/mnt/sda5/.user/root/src/openwatcom-1.9/bld/clib/string/c/strlcat.c
                _TEXT                 CODE           6fe32460  !      000000a0
                CONST                 DATA           6fe4d00c  !      00000000
                CONST2                DATA           6fe4d068  !      00000000
                _DATA                 DATA           6fe4d948  !      00000000
/mnt/sda5/.user/root/src/openwatcom-1.9/bld/clib/string/c/strlcpy.c
                _TEXT                 CODE           6fe32500  !      0000008c
                CONST                 DATA           6fe4d00c  !      00000000
                CONST2                DATA           6fe4d068  !      00000000
                _DATA                 DATA           6fe4d948  !      00000000
/mnt/sda5/.user/root/src/openwatcom-1.9/bld/clib/string/c/strlen.c
                _TEXT                 CODE           6fe32590  !      00000039
                CONST                 DATA           6fe4d00c  !      00000000
                CONST2                DATA           6fe4d068  !      00000000
                _DATA                 DATA           6fe4d948  !      00000000
/mnt/sda5/.user/root/src/openwatcom-1.9/bld/clib/string/c/strlwr.c
                _TEXT                 CODE           6fe325d0  !      00000052
                CONST                 DATA           6fe4d00c  !      00000000
                CONST2                DATA           6fe4d068  !      00000000
                _DATA                 DATA           6fe4d948  !      00000000
/mnt/sda5/.user/root/src/openwatcom-1.9/bld/clib/string/c/strncat.c
                _TEXT                 CODE           6fe32630  !      00000063
                CONST                 DATA           6fe4d00c  !      00000000
                CONST2                DATA           6fe4d068  !      00000000
                _DATA                 DATA           6fe4d948  !      00000000
/mnt/sda5/.user/root/src/openwatcom-1.9/bld/clib/string/c/strncmp.c
                _TEXT                 CODE           6fe326a0  !      0000006f
                CONST                 DATA           6fe4d00c  !      00000000
                CONST2                DATA           6fe4d068  !      00000000
                _DATA                 DATA           6fe4d948  !      00000000
/mnt/sda5/.user/root/src/openwatcom-1.9/bld/clib/string/c/strncpy.c
                _TEXT                 CODE           6fe32710  !      00000066
                CONST                 DATA           6fe4d00c  !      00000000
                CONST2                DATA           6fe4d068  !      00000000
                _DATA                 DATA           6fe4d948  !      00000000
/mnt/sda5/.user/root/src/openwatcom-1.9/bld/clib/string/c/strnicmp.c
                _TEXT                 CODE           6fe32780  !      00000099
                CONST                 DATA           6fe4d00c  !      00000000
                CONST2                DATA           6fe4d068  !      00000000
                _DATA                 DATA           6fe4d948  !      00000000
/mnt/sda5/.user/root/src/openwatcom-1.9/bld/clib/string/c/strnset.c
                _TEXT                 CODE           6fe32820  !      0000004c
                CONST                 DATA           6fe4d00c  !      00000000
                CONST2                DATA           6fe4d068  !      00000000
                _DATA                 DATA           6fe4d948  !      00000000
/mnt/sda5/.user/root/src/openwatcom-1.9/bld/clib/string/c/strpbrk.c
                _TEXT                 CODE           6fe32870  !      00000072
                CONST                 DATA           6fe4d00c  !      00000000
                CONST2                DATA           6fe4d068  !      00000000
                _DATA                 DATA           6fe4d948  !      00000000
/mnt/sda5/.user/root/src/openwatcom-1.9/bld/clib/string/c/strrchr.c
                _TEXT                 CODE           6fe328f0  !      0000004c
                CONST                 DATA           6fe4d00c  !      00000000
                CONST2                DATA           6fe4d068  !      00000000
                _DATA                 DATA           6fe4d948  !      00000000
/mnt/sda5/.user/root/src/openwatcom-1.9/bld/clib/string/c/strrev.c
                _TEXT                 CODE           6fe32940  !      00000069
                CONST                 DATA           6fe4d00c  !      00000000
                CONST2                DATA           6fe4d068  !      00000000
                _DATA                 DATA           6fe4d948  !      00000000
/mnt/sda5/.user/root/src/openwatcom-1.9/bld/clib/string/c/strset.c
                _TEXT                 CODE           6fe329b0  !      0000003f
                CONST                 DATA           6fe4d00c  !      00000000
                CONST2                DATA           6fe4d068  !      00000000
                _DATA                 DATA           6fe4d948  !      00000000
/mnt/sda5/.user/root/src/openwatcom-1.9/bld/clib/string/c/strspnp.c
                _TEXT                 CODE           6fe329f0  !      00000049
                CONST                 DATA           6fe4d00c  !      00000000
                CONST2                DATA           6fe4d068  !      00000000
                _DATA                 DATA           6fe4d948  !      00000000
/mnt/sda5/.user/root/src/openwatcom-1.9/bld/clib/string/c/strspn.c
                _TEXT                 CODE           6fe32a40  !      00000075
                CONST                 DATA           6fe4d00c  !      00000000
                CONST2                DATA           6fe4d068  !      00000000
                _DATA                 DATA           6fe4d948  !      00000000
/mnt/sda5/.user/root/src/openwatcom-1.9/bld/clib/string/c/strstr.c
                _TEXT                 CODE           6fe32ac0  !      000000cc
                CONST                 DATA           6fe4d00c  !      00000000
                CONST2                DATA           6fe4d068  !      00000000
                _DATA                 DATA           6fe4d948  !      00000000
/mnt/sda5/.user/root/src/openwatcom-1.9/bld/clib/string/c/strtok.c
                _TEXT                 CODE           6fe32b90  !      00000110
                CONST                 DATA           6fe4d00c  !      00000000
                CONST2                DATA           6fe4d068  !      00000000
                _DATA                 DATA           6fe4d948  !      00000000
/mnt/sda5/.user/root/src/openwatcom-1.9/bld/clib/string/c/strupr.c
                _TEXT                 CODE           6fe32ca0  !      00000052
                CONST                 DATA           6fe4d00c  !      00000000
                CONST2                DATA           6fe4d068  !      00000000
                _DATA                 DATA           6fe4d948  !      00000000
/mnt/sda5/.user/root/src/openwatcom-1.9/bld/clib/string/c/strxfrm.c
                _TEXT                 CODE           6fe32d00  !      00000053
                CONST                 DATA           6fe4d00c  !      00000000
                CONST2                DATA           6fe4d068  !      00000000
                _DATA                 DATA           6fe4d948  !      00000000
/mnt/sda5/.user/root/src/openwatcom-1.9/bld/clib/string/c/stncat_s.c
                _TEXT                 CODE           6fe32d60  !      000002b9
                CONST                 DATA           6fe4d00c  !      00000000
                CONST2                DATA           6fe4d068  !      00000000
                _DATA                 DATA           6fe4d948  !      00000000
/mnt/sda5/.user/root/src/openwatcom-1.9/bld/clib/string/c/stncpy_s.c
                _TEXT                 CODE           6fe33020  !      00000250
                CONST                 DATA           6fe4d00c  !      00000000
                CONST2                DATA           6fe4d068  !      00000000
                _DATA                 DATA           6fe4d948  !      00000000
/mnt/sda5/.user/root/src/openwatcom-1.9/bld/clib/string/c/strcat_s.c
                _TEXT                 CODE           6fe33270  !      00000262
                CONST                 DATA           6fe4d00c  !      00000000
                CONST2                DATA           6fe4d068  !      00000000
                _DATA                 DATA           6fe4d948  !      00000000
/mnt/sda5/.user/root/src/openwatcom-1.9/bld/clib/string/c/strcpy_s.c
                _TEXT                 CODE           6fe334e0  !      000001f9
                CONST                 DATA           6fe4d00c  !      00000000
                CONST2                DATA           6fe4d068  !      00000000
                _DATA                 DATA           6fe4d948  !      00000000
/mnt/sda5/.user/root/src/openwatcom-1.9/bld/clib/string/c/streln_s.c
                _TEXT                 CODE           6fe336e0  !      00000073
                CONST                 DATA           6fe4d00c  !      00000000
                CONST2                DATA           6fe4d068  !      00000000
                _DATA                 DATA           6fe4d948  !      00000000
/mnt/sda5/.user/root/src/openwatcom-1.9/bld/clib/string/c/strerr_s.c
                _TEXT                 CODE           6fe33760  !      000001b6
                CONST                 DATA           6fe4d00c  !      00000000
                CONST2                DATA           6fe4d068  !      00000000
                _DATA                 DATA           6fe4d948  !      00000000
/mnt/sda5/.user/root/src/openwatcom-1.9/bld/clib/string/c/strnln_s.c
                _TEXT                 CODE           6fe33920  !      0000004b
                CONST                 DATA           6fe4d00c  !      00000000
                CONST2                DATA           6fe4d068  !      00000000
                _DATA                 DATA           6fe4d948  !      00000000
/mnt/sda5/.user/root/src/openwatcom-1.9/bld/clib/string/c/strtok_s.c
                _TEXT                 CODE           6fe33970  !      00000311
                CONST                 DATA           6fe4d00c  !      00000000
                CONST2                DATA           6fe4d068  !      00000000
                _DATA                 DATA           6fe4d948  !      00000000
/mnt/sda5/.user/root/src/openwatcom-1.9/bld/clib/string/c/u_stprtf.c
                _TEXT                 CODE           6fe33c90  !      00000043
                CONST                 DATA           6fe4d00c  !      00000000
                CONST2                DATA           6fe4d068  !      00000000
                _DATA                 DATA           6fe4d948  !      00000000
/mnt/sda5/.user/root/src/openwatcom-1.9/bld/clib/string/c/ubprintf.c
                _TEXT                 CODE           6fe33cd3  !      00000173
                CONST                 DATA           6fe4d00c  !      00000000
                CONST2                DATA           6fe4d068  !      00000000
                _DATA                 DATA           6fe4d948  !      00000000
/mnt/sda5/.user/root/src/openwatcom-1.9/bld/clib/string/c/usnprt_s.c
                _TEXT                 CODE           6fe33e50  !      000001bb
                CONST                 DATA           6fe4d00c  !      00000000
                CONST2                DATA           6fe4d068  !      00000000
                _DATA                 DATA           6fe4d948  !      00000000
/mnt/sda5/.user/root/src/openwatcom-1.9/bld/clib/string/c/usprintf.c
                _TEXT                 CODE           6fe3400b  !      00000057
                CONST                 DATA           6fe4d00c  !      00000000
                CONST2                DATA           6fe4d068  !      00000000
                _DATA                 DATA           6fe4d948  !      00000000
/mnt/sda5/.user/root/src/openwatcom-1.9/bld/clib/string/c/usprtf_s.c
                _TEXT                 CODE           6fe34070  !      000001e4
                CONST                 DATA           6fe4d00c  !      00000000
                CONST2                DATA           6fe4d068  !      00000000
                _DATA                 DATA           6fe4d948  !      00000000
/mnt/sda5/.user/root/src/openwatcom-1.9/bld/clib/string/c/usscanf.c
                _TEXT                 CODE           6fe34254  !      000000c7
                CONST                 DATA           6fe4d00c  !      00000000
                CONST2                DATA           6fe4d068  !      00000000
                _DATA                 DATA           6fe4d948  !      00000000
/mnt/sda5/.user/root/src/openwatcom-1.9/bld/clib/string/c/usscnf_s.c
                _TEXT                 CODE           6fe34320  !      00000172
                CONST                 DATA           6fe4d00c  !      00000000
                CONST2                DATA           6fe4d068  !      00000000
                _DATA                 DATA           6fe4d948  !      00000000
/mnt/sda5/.user/root/src/openwatcom-1.9/bld/clib/string/c/ustrcat.c
                _TEXT                 CODE           6fe34492  !      00000050
                CONST                 DATA           6fe4d00c  !      00000000
                CONST2                DATA           6fe4d068  !      00000000
                _DATA                 DATA           6fe4d948  !      00000000
/mnt/sda5/.user/root/src/openwatcom-1.9/bld/clib/string/c/ustrchr.c
                _TEXT                 CODE           6fe344e2  !      00000045
                CONST                 DATA           6fe4d00c  !      00000000
                CONST2                DATA           6fe4d068  !      00000000
                _DATA                 DATA           6fe4d948  !      00000000
/mnt/sda5/.user/root/src/openwatcom-1.9/bld/clib/string/c/ustrcmp.c
                _TEXT                 CODE           6fe34527  !      00000058
                CONST                 DATA           6fe4d00c  !      00000000
                CONST2                DATA           6fe4d068  !      00000000
                _DATA                 DATA           6fe4d948  !      00000000
/mnt/sda5/.user/root/src/openwatcom-1.9/bld/clib/string/c/ustrcoll.c
                _TEXT                 CODE           6fe34580  !      00000066
                CONST                 DATA           6fe4d00c  !      00000000
                CONST2                DATA           6fe4d068  !      00000000
                _DATA                 DATA           6fe4d948  !      00000000
/mnt/sda5/.user/root/src/openwatcom-1.9/bld/clib/string/c/ustrcpy.c
                _TEXT                 CODE           6fe345e6  !      00000041
                CONST                 DATA           6fe4d00c  !      00000000
                CONST2                DATA           6fe4d068  !      00000000
                _DATA                 DATA           6fe4d948  !      00000000
/mnt/sda5/.user/root/src/openwatcom-1.9/bld/clib/string/c/ustrcspn.c
                _TEXT                 CODE           6fe34627  !      0000007c
                CONST                 DATA           6fe4d00c  !      00000000
                CONST2                DATA           6fe4d068  !      00000000
                _DATA                 DATA           6fe4d948  !      00000000
/mnt/sda5/.user/root/src/openwatcom-1.9/bld/clib/string/c/ustrdup.c
                _TEXT                 CODE           6fe346a3  !      0000004b
                CONST                 DATA           6fe4d00c  !      00000000
                CONST2                DATA           6fe4d068  !      00000000
                _DATA                 DATA           6fe4d948  !      00000000
/mnt/sda5/.user/root/src/openwatcom-1.9/bld/clib/string/c/ustrerro.c
                _TEXT                 CODE           6fe346f0  !      0000015d
                CONST                 DATA           6fe4d00c  !      00000000
                CONST2                DATA           6fe4d068  !      00000000
                _DATA                 DATA           6fe4d948  !      00000000
                _BSS                  BSS            6fe502ec  !      00000250
/mnt/sda5/.user/root/src/openwatcom-1.9/bld/clib/string/c/ustricmp.c
                _TEXT                 CODE           6fe3484d  !      0000008e
                CONST                 DATA           6fe4d00c  !      00000000
                CONST2                DATA           6fe4d068  !      00000000
                _DATA                 DATA           6fe4d948  !      00000000
/mnt/sda5/.user/root/src/openwatcom-1.9/bld/clib/string/c/ustrlcat.c
                _TEXT                 CODE           6fe348db  !      000000a5
                CONST                 DATA           6fe4d00c  !      00000000
                CONST2                DATA           6fe4d068  !      00000000
                _DATA                 DATA           6fe4d948  !      00000000
/mnt/sda5/.user/root/src/openwatcom-1.9/bld/clib/string/c/ustrlcpy.c
                _TEXT                 CODE           6fe34980  !      00000090
                CONST                 DATA           6fe4d00c  !      00000000
                CONST2                DATA           6fe4d068  !      00000000
                _DATA                 DATA           6fe4d948  !      00000000
/mnt/sda5/.user/root/src/openwatcom-1.9/bld/clib/string/c/ustrlen.c
                _TEXT                 CODE           6fe34a10  !      00000036
                CONST                 DATA           6fe4d00c  !      00000000
                CONST2                DATA           6fe4d068  !      00000000
                _DATA                 DATA           6fe4d948  !      00000000
/mnt/sda5/.user/root/src/openwatcom-1.9/bld/clib/string/c/ustrlwr.c
                _TEXT                 CODE           6fe34a46  !      00000058
                CONST                 DATA           6fe4d00c  !      00000000
                CONST2                DATA           6fe4d068  !      00000000
                _DATA                 DATA           6fe4d948  !      00000000
/mnt/sda5/.user/root/src/openwatcom-1.9/bld/clib/string/c/ustrncat.c
                _TEXT                 CODE           6fe34a9e  !      00000063
                CONST                 DATA           6fe4d00c  !      00000000
                CONST2                DATA           6fe4d068  !      00000000
                _DATA                 DATA           6fe4d948  !      00000000
/mnt/sda5/.user/root/src/openwatcom-1.9/bld/clib/string/c/ustrncmp.c
                _TEXT                 CODE           6fe34b01  !      00000068
                CONST                 DATA           6fe4d00c  !      00000000
                CONST2                DATA           6fe4d068  !      00000000
                _DATA                 DATA           6fe4d948  !      00000000
/mnt/sda5/.user/root/src/openwatcom-1.9/bld/clib/string/c/ustrncpy.c
                _TEXT                 CODE           6fe34b69  !      00000067
                CONST                 DATA           6fe4d00c  !      00000000
                CONST2                DATA           6fe4d068  !      00000000
                _DATA                 DATA           6fe4d948  !      00000000
/mnt/sda5/.user/root/src/openwatcom-1.9/bld/clib/string/c/ustrnicm.c
                _TEXT                 CODE           6fe34bd0  !      000000af
                CONST                 DATA           6fe4d00c  !      00000000
                CONST2                DATA           6fe4d068  !      00000000
                _DATA                 DATA           6fe4d948  !      00000000
/mnt/sda5/.user/root/src/openwatcom-1.9/bld/clib/string/c/ustrnset.c
                _TEXT                 CODE           6fe34c7f  !      00000048
                CONST                 DATA           6fe4d00c  !      00000000
                CONST2                DATA           6fe4d068  !      00000000
                _DATA                 DATA           6fe4d948  !      00000000
/mnt/sda5/.user/root/src/openwatcom-1.9/bld/clib/string/c/ustrpbrk.c
                _TEXT                 CODE           6fe34cc7  !      00000083
                CONST                 DATA           6fe4d00c  !      00000000
                CONST2                DATA           6fe4d068  !      00000000
                _DATA                 DATA           6fe4d948  !      00000000
/mnt/sda5/.user/root/src/openwatcom-1.9/bld/clib/string/c/ustrrchr.c
                _TEXT                 CODE           6fe34d4a  !      00000049
                CONST                 DATA           6fe4d00c  !      00000000
                CONST2                DATA           6fe4d068  !      00000000
                _DATA                 DATA           6fe4d948  !      00000000
/mnt/sda5/.user/root/src/openwatcom-1.9/bld/clib/string/c/ustrrev.c
                _TEXT                 CODE           6fe34d93  !      0000006a
                CONST                 DATA           6fe4d00c  !      00000000
                CONST2                DATA           6fe4d068  !      00000000
                _DATA                 DATA           6fe4d948  !      00000000
/mnt/sda5/.user/root/src/openwatcom-1.9/bld/clib/string/c/ustrset.c
                _TEXT                 CODE           6fe34dfd  !      0000003b
                CONST                 DATA           6fe4d00c  !      00000000
                CONST2                DATA           6fe4d068  !      00000000
                _DATA                 DATA           6fe4d948  !      00000000
/mnt/sda5/.user/root/src/openwatcom-1.9/bld/clib/string/c/ustrspn.c
                _TEXT                 CODE           6fe34e38  !      0000007c
                CONST                 DATA           6fe4d00c  !      00000000
                CONST2                DATA           6fe4d068  !      00000000
                _DATA                 DATA           6fe4d948  !      00000000
/mnt/sda5/.user/root/src/openwatcom-1.9/bld/clib/string/c/ustrspnp.c
                _TEXT                 CODE           6fe34ec0  !      00000050
                CONST                 DATA           6fe4d00c  !      00000000
                CONST2                DATA           6fe4d068  !      00000000
                _DATA                 DATA           6fe4d948  !      00000000
/mnt/sda5/.user/root/src/openwatcom-1.9/bld/clib/string/c/ustrstr.c
                _TEXT                 CODE           6fe34f10  !      000000bf
                CONST                 DATA           6fe4d00c  !      00000000
                CONST2                DATA           6fe4d068  !      00000000
                _DATA                 DATA           6fe4d948  !      00000000
/mnt/sda5/.user/root/src/openwatcom-1.9/bld/clib/string/c/ustrtok.c
                _TEXT                 CODE           6fe34fcf  !      0000018b
                CONST                 DATA           6fe4d00c  !      00000000
                CONST2                DATA           6fe4d068  !      00000000
                _DATA                 DATA           6fe4d948  !      00000000
/mnt/sda5/.user/root/src/openwatcom-1.9/bld/clib/string/c/ustrupr.c
                _TEXT                 CODE           6fe3515a  !      00000058
                CONST                 DATA           6fe4d00c  !      00000000
                CONST2                DATA           6fe4d068  !      00000000
                _DATA                 DATA           6fe4d948  !      00000000
/mnt/sda5/.user/root/src/openwatcom-1.9/bld/clib/string/c/ustrxfrm.c
                _TEXT                 CODE           6fe351c0  !      00000058
                CONST                 DATA           6fe4d00c  !      00000000
                CONST2                DATA           6fe4d068  !      00000000
                _DATA                 DATA           6fe4d948  !      00000000
/mnt/sda5/.user/root/src/openwatcom-1.9/bld/clib/string/c/uvsnpr_s.c
                _TEXT                 CODE           6fe35220  !      000001b4
                CONST                 DATA           6fe4d00c  !      00000000
                CONST2                DATA           6fe4d068  !      00000000
                _DATA                 DATA           6fe4d948  !      00000000
/mnt/sda5/.user/root/src/openwatcom-1.9/bld/clib/string/c/uvsprint.c
                _TEXT                 CODE           6fe353d4  !      000000fd
                CONST                 DATA           6fe4d00c  !      00000000
                CONST2                DATA           6fe4d068  !      00000000
                _DATA                 DATA           6fe4d948  !      00000000
/mnt/sda5/.user/root/src/openwatcom-1.9/bld/clib/string/c/uvsprt_s.c
                _TEXT                 CODE           6fe354e0  !      000001dd
                CONST                 DATA           6fe4d00c  !      00000000
                CONST2                DATA           6fe4d068  !      00000000
                _DATA                 DATA           6fe4d948  !      00000000
/mnt/sda5/.user/root/src/openwatcom-1.9/bld/clib/string/c/uvsscn_s.c
                _TEXT                 CODE           6fe356c0  !      0000016a
                CONST                 DATA           6fe4d00c  !      00000000
                CONST2                DATA           6fe4d068  !      00000000
                _DATA                 DATA           6fe4d948  !      00000000
/mnt/sda5/.user/root/src/openwatcom-1.9/bld/clib/string/c/ustcat_s.c
                _TEXT                 CODE           6fe35830  !      00000277
                CONST                 DATA           6fe4d00c  !      00000000
                CONST2                DATA           6fe4d068  !      00000000
                _DATA                 DATA           6fe4d948  !      00000000
/mnt/sda5/.user/root/src/openwatcom-1.9/bld/clib/string/c/ustncp_s.c
                _TEXT                 CODE           6fe35ab0  !      00000261
                CONST                 DATA           6fe4d00c  !      00000000
                CONST2                DATA           6fe4d068  !      00000000
                _DATA                 DATA           6fe4d948  !      00000000
/mnt/sda5/.user/root/src/openwatcom-1.9/bld/clib/string/c/ustnct_s.c
                _TEXT                 CODE           6fe35d20  !      000002cf
                CONST                 DATA           6fe4d00c  !      00000000
                CONST2                DATA           6fe4d068  !      00000000
                _DATA                 DATA           6fe4d948  !      00000000
/mnt/sda5/.user/root/src/openwatcom-1.9/bld/clib/string/c/ustnln_s.c
                _TEXT                 CODE           6fe35ff0  !      0000004e
                CONST                 DATA           6fe4d00c  !      00000000
                CONST2                DATA           6fe4d068  !      00000000
                _DATA                 DATA           6fe4d948  !      00000000
/mnt/sda5/.user/root/src/openwatcom-1.9/bld/clib/string/c/ustrcp_s.c
                _TEXT                 CODE           6fe36040  !      00000209
                CONST                 DATA           6fe4d00c  !      00000000
                CONST2                DATA           6fe4d068  !      00000000
                _DATA                 DATA           6fe4d948  !      00000000
/mnt/sda5/.user/root/src/openwatcom-1.9/bld/clib/string/c/ustrel_s.c
                _TEXT                 CODE           6fe36250  !      00000073
                CONST                 DATA           6fe4d00c  !      00000000
                CONST2                DATA           6fe4d068  !      00000000
                _DATA                 DATA           6fe4d948  !      00000000
/mnt/sda5/.user/root/src/openwatcom-1.9/bld/clib/string/c/ustrer_s.c
                _TEXT                 CODE           6fe362d0  !      000001ce
                CONST                 DATA           6fe4d00c  !      00000000
                CONST2                DATA           6fe4d068  !      00000000
                _DATA                 DATA           6fe4d948  !      00000000
/mnt/sda5/.user/root/src/openwatcom-1.9/bld/clib/string/c/ustrtk_s.c
                _TEXT                 CODE           6fe364a0  !      0000032c
                CONST                 DATA           6fe4d00c  !      00000000
                CONST2                DATA           6fe4d068  !      00000000
                _DATA                 DATA           6fe4d948  !      00000000
/mnt/sda5/.user/root/src/openwatcom-1.9/bld/clib/string/c/vsnprt_s.c
                _TEXT                 CODE           6fe367d0  !      000001ae
                CONST                 DATA           6fe4d00c  !      00000000
                CONST2                DATA           6fe4d068  !      00000000
                _DATA                 DATA           6fe4d948  !      00000000
/mnt/sda5/.user/root/src/openwatcom-1.9/bld/clib/string/c/vsprintf.c
                _TEXT                 CODE           6fe36980  !      00000079
                CONST                 DATA           6fe4d00c  !      00000000
                CONST2                DATA           6fe4d068  !      00000000
                _DATA                 DATA           6fe4d948  !      00000000
/mnt/sda5/.user/root/src/openwatcom-1.9/bld/clib/string/c/vsprtf_s.c
                _TEXT                 CODE           6fe36a00  !      000001d0
                CONST                 DATA           6fe4d00c  !      00000000
                CONST2                DATA           6fe4d068  !      00000000
                _DATA                 DATA           6fe4d948  !      00000000
/mnt/sda5/.user/root/src/openwatcom-1.9/bld/clib/string/c/vsscnf_s.c
                _TEXT                 CODE           6fe36bd0  !      0000016a
                CONST                 DATA           6fe4d00c  !      00000000
                CONST2                DATA           6fe4d068  !      00000000
                _DATA                 DATA           6fe4d948  !      00000000
/mnt/sda5/.user/root/src/openwatcom-1.9/bld/clib/time/c/asctime.c
                _TEXT                 CODE           6fe36d3a  !      00000276
                CONST                 DATA           6fe4d00c  !      00000000
                CONST2                DATA           6fe4d068  !      00000000
                _DATA                 DATA           6fe4d948  !      00000000
/mnt/sda5/.user/root/src/openwatcom-1.9/bld/clib/time/c/clockwin.c
                _TEXT                 CODE           6fe36fb0  !      00000052
                CONST                 DATA           6fe4d00c  !      00000000
                CONST2                DATA           6fe4d068  !      00000000
                _DATA                 DATA           6fe4d948  !      00000000
                _BSS                  BSS            6fe5053c  !      00000004
                XIB                   DATA           6fe4dcd8  !      00000000
                XI                    DATA           6fe4dd14  !      00000006
                XIE                   DATA           6fe4dd32  !      00000000
/mnt/sda5/.user/root/src/openwatcom-1.9/bld/clib/time/c/dyltptr.c
                _TEXT                 CODE           6fe37010  !      00000021
                CONST                 DATA           6fe4d00c  !      00000000
                CONST2                DATA           6fe4d068  !      00000000
                _DATA                 DATA           6fe4d948  !      00000000
/mnt/sda5/.user/root/src/openwatcom-1.9/bld/clib/time/c/ftime.c
                _TEXT                 CODE           6fe37040  !      00000066
                CONST                 DATA           6fe4d00c  !      00000000
                CONST2                DATA           6fe4d068  !      00000000
                _DATA                 DATA           6fe4d948  !      00000000
/mnt/sda5/.user/root/src/openwatcom-1.9/bld/clib/time/c/gmtime.c
                _TEXT                 CODE           6fe370b0  !      00000261
                CONST                 DATA           6fe4d00c  !      00000000
                CONST2                DATA           6fe4d068  !      00000000
                _DATA                 DATA           6fe4d948  !      00000000
/mnt/sda5/.user/root/src/openwatcom-1.9/bld/clib/time/c/localtim.c
                _TEXT                 CODE           6fe37320  !      000000b1
                CONST                 DATA           6fe4d00c  !      00000000
                CONST2                DATA           6fe4d068  !      00000000
                _DATA                 DATA           6fe4d948  !      00000000
/mnt/sda5/.user/root/src/openwatcom-1.9/bld/clib/time/c/mktime.c
                _TEXT                 CODE           6fe373e0  !      0000009b
                CONST                 DATA           6fe4d00c  !      00000000
                CONST2                DATA           6fe4d068  !      00000000
                _DATA                 DATA           6fe4d948  !      00000000
/mnt/sda5/.user/root/src/openwatcom-1.9/bld/clib/time/c/strdate.c
                _TEXT                 CODE           6fe37480  !      0000005d
                CONST                 DATA           6fe4d00c  !      00000000
                CONST2                DATA           6fe4d068  !      00000000
                _DATA                 DATA           6fe4d948  !      00000000
/mnt/sda5/.user/root/src/openwatcom-1.9/bld/clib/time/c/strftime.c
                _TEXT                 CODE           6fe374dd  !      000009bd
                CONST                 DATA           6fe4d00c  !      00000000
                CONST2                DATA           6fe4d068  !      00000000
                _DATA                 DATA           6fe4d948  !      00000000
/mnt/sda5/.user/root/src/openwatcom-1.9/bld/clib/time/c/strtime.c
                _TEXT                 CODE           6fe37ea0  !      0000005d
                CONST                 DATA           6fe4d00c  !      00000000
                CONST2                DATA           6fe4d068  !      00000000
                _DATA                 DATA           6fe4d948  !      00000000
/mnt/sda5/.user/root/src/openwatcom-1.9/bld/clib/time/c/time.c
                _TEXT                 CODE           6fe37f00  !      00000056
                CONST                 DATA           6fe4d00c  !      00000000
                CONST2                DATA           6fe4d068  !      00000000
                _DATA                 DATA           6fe4d948  !      00000000
/mnt/sda5/.user/root/src/openwatcom-1.9/bld/clib/time/c/tmznptr.c
                _TEXT                 CODE           6fe37f60  !      00000021
                CONST                 DATA           6fe4d00c  !      00000000
                CONST2                DATA           6fe4d068  !      00000000
                _DATA                 DATA           6fe4d948  !      00000000
/mnt/sda5/.user/root/src/openwatcom-1.9/bld/clib/time/c/tznmptr.c
                _TEXT                 CODE           6fe37f90  !      00000021
                CONST                 DATA           6fe4d00c  !      00000000
                CONST2                DATA           6fe4d068  !      00000000
                _DATA                 DATA           6fe4d948  !      00000000
/mnt/sda5/.user/root/src/openwatcom-1.9/bld/clib/time/c/tzset.c
                _TEXT                 CODE           6fe37fc0  !      00000b90
                CONST                 DATA           6fe4d00c  !      00000000
                CONST2                DATA           6fe4d068  !      00000000
                _DATA                 DATA           6fe4d948  !      00000164
/mnt/sda5/.user/root/src/openwatcom-1.9/bld/clib/time/c/asctim_s.c
                _TEXT                 CODE           6fe38b50  !      000001cc
                CONST                 DATA           6fe4d00c  !      00000000
                CONST2                DATA           6fe4d068  !      00000000
                _DATA                 DATA           6fe4daac  !      00000000
/mnt/sda5/.user/root/src/openwatcom-1.9/bld/clib/time/c/ctime_s.c
                _TEXT                 CODE           6fe38d20  !      000001ac
                CONST                 DATA           6fe4d00c  !      00000000
                CONST2                DATA           6fe4d068  !      00000000
                _DATA                 DATA           6fe4daac  !      00000000
/mnt/sda5/.user/root/src/openwatcom-1.9/bld/clib/time/c/gmtime_s.c
                _TEXT                 CODE           6fe38ed0  !      000000c3
                CONST                 DATA           6fe4d00c  !      00000000
                CONST2                DATA           6fe4d068  !      00000000
                _DATA                 DATA           6fe4daac  !      00000000
/mnt/sda5/.user/root/src/openwatcom-1.9/bld/clib/time/c/lcltim_s.c
                _TEXT                 CODE           6fe38fa0  !      000000c3
                CONST                 DATA           6fe4d00c  !      00000000
                CONST2                DATA           6fe4d068  !      00000000
                _DATA                 DATA           6fe4daac  !      00000000
/mnt/sda5/.user/root/src/openwatcom-1.9/bld/clib/time/c/uasctime.c
                _TEXT                 CODE           6fe39063  !      000002a1
                CONST                 DATA           6fe4d00c  !      00000000
                CONST2                DATA           6fe4d068  !      00000000
                _DATA                 DATA           6fe4daac  !      00000000
/mnt/sda5/.user/root/src/openwatcom-1.9/bld/clib/time/c/ustrdate.c
                _TEXT                 CODE           6fe39310  !      0000005d
                CONST                 DATA           6fe4d00c  !      00000000
                CONST2                DATA           6fe4d068  !      00000000
                _DATA                 DATA           6fe4daac  !      00000000
/mnt/sda5/.user/root/src/openwatcom-1.9/bld/clib/time/c/ustrftim.c
                _TEXT                 CODE           6fe3936d  !      00000b08
                CONST                 DATA           6fe4d00c  !      00000000
                CONST2                DATA           6fe4d068  !      00000000
                _DATA                 DATA           6fe4daac  !      00000000
/mnt/sda5/.user/root/src/openwatcom-1.9/bld/clib/time/c/ustrtime.c
                _TEXT                 CODE           6fe39e80  !      0000005d
                CONST                 DATA           6fe4d00c  !      00000000
                CONST2                DATA           6fe4d068  !      00000000
                _DATA                 DATA           6fe4daac  !      00000000
/mnt/sda5/.user/root/src/openwatcom-1.9/bld/clib/time/c/uasctm_s.c
                _TEXT                 CODE           6fe39edd  !      000001d0
                CONST                 DATA           6fe4d00c  !      00000000
                CONST2                DATA           6fe4d068  !      00000000
                _DATA                 DATA           6fe4daac  !      00000000
/mnt/sda5/.user/root/src/openwatcom-1.9/bld/clib/time/c/uctime_s.c
                _TEXT                 CODE           6fe3a0b0  !      000001ae
                CONST                 DATA           6fe4d00c  !      00000000
                CONST2                DATA           6fe4d068  !      00000000
                _DATA                 DATA           6fe4daac  !      00000000
/mnt/sda5/.user/root/src/openwatcom-1.9/bld/clib/_dos/c/allocwnt.c
                _TEXT                 CODE           6fe3a260  !      0000008c
                CONST                 DATA           6fe4d00c  !      00000000
                CONST2                DATA           6fe4d068  !      00000000
                _DATA                 DATA           6fe4daac  !      00000000
/mnt/sda5/.user/root/src/openwatcom-1.9/bld/clib/_dos/c/creatwnt.c
                _TEXT                 CODE           6fe3a2f0  !      000000c0
                CONST                 DATA           6fe4d00c  !      00000000
                CONST2                DATA           6fe4d068  !      00000000
                _DATA                 DATA           6fe4daac  !      00000000
/mnt/sda5/.user/root/src/openwatcom-1.9/bld/clib/_dos/c/crtnwwnt.c
                _TEXT                 CODE           6fe3a3b0  !      000000c0
                CONST                 DATA           6fe4d00c  !      00000000
                CONST2                DATA           6fe4d068  !      00000000
                _DATA                 DATA           6fe4daac  !      00000000
/mnt/sda5/.user/root/src/openwatcom-1.9/bld/clib/_dos/c/dosgdf.c
                _TEXT                 CODE           6fe3a470  !      00000099
                CONST                 DATA           6fe4d00c  !      00000000
                CONST2                DATA           6fe4d068  !      00000000
                _DATA                 DATA           6fe4daac  !      00000000
/mnt/sda5/.user/root/src/openwatcom-1.9/bld/clib/_dos/c/dosret.c
                _TEXT                 CODE           6fe3a510  !      0000016d
                CONST                 DATA           6fe4d00c  !      00000000
                CONST2                DATA           6fe4d068  !      00000000
                _DATA                 DATA           6fe4daac  !      00000101
/mnt/sda5/.user/root/src/openwatcom-1.9/bld/clib/_dos/c/filewnt.c
                _TEXT                 CODE           6fe3a680  !      000001b5
                CONST                 DATA           6fe4d00c  !      00000000
                CONST2                DATA           6fe4d068  !      00000000
                _DATA                 DATA           6fe4dbb0  !      00000000
/mnt/sda5/.user/root/src/openwatcom-1.9/bld/clib/_dos/c/findwnt.c
                _TEXT                 CODE           6fe3a840  !      00000175
                CONST                 DATA           6fe4d00c  !      00000000
                CONST2                DATA           6fe4d068  !      00000000
                _DATA                 DATA           6fe4dbb0  !      00000000
/mnt/sda5/.user/root/src/openwatcom-1.9/bld/clib/_dos/c/gdatewnt.c
                _TEXT                 CODE           6fe3a9c0  !      00000048
                CONST                 DATA           6fe4d00c  !      00000000
                CONST2                DATA           6fe4d068  !      00000000
                _DATA                 DATA           6fe4dbb0  !      00000000
/mnt/sda5/.user/root/src/openwatcom-1.9/bld/clib/_dos/c/gdrvewnt.c
                _TEXT                 CODE           6fe3aa10  !      00000041
                CONST                 DATA           6fe4d00c  !      00000000
                CONST2                DATA           6fe4d068  !      00000000
                _DATA                 DATA           6fe4dbb0  !      00000000
/mnt/sda5/.user/root/src/openwatcom-1.9/bld/clib/_dos/c/gfattwnt.c
                _TEXT                 CODE           6fe3aa60  !      0000005e
                CONST                 DATA           6fe4d00c  !      00000000
                CONST2                DATA           6fe4d068  !      00000000
                _DATA                 DATA           6fe4dbb0  !      00000000
/mnt/sda5/.user/root/src/openwatcom-1.9/bld/clib/_dos/c/gftimwnt.c
                _TEXT                 CODE           6fe3aac0  !      00000073
                CONST                 DATA           6fe4d00c  !      00000000
                CONST2                DATA           6fe4d068  !      00000000
                _DATA                 DATA           6fe4dbb0  !      00000000
/mnt/sda5/.user/root/src/openwatcom-1.9/bld/clib/_dos/c/gtimewnt.c
                _TEXT                 CODE           6fe3ab40  !      00000056
                CONST                 DATA           6fe4d00c  !      00000000
                CONST2                DATA           6fe4d068  !      00000000
                _DATA                 DATA           6fe4dbb0  !      00000000
/mnt/sda5/.user/root/src/openwatcom-1.9/bld/clib/_dos/c/readwnt.c
                _TEXT                 CODE           6fe3aba0  !      00000052
                CONST                 DATA           6fe4d00c  !      00000000
                CONST2                DATA           6fe4d068  !      00000000
                _DATA                 DATA           6fe4dbb0  !      00000000
/mnt/sda5/.user/root/src/openwatcom-1.9/bld/clib/_dos/c/sdatewnt.c
                _TEXT                 CODE           6fe3ac00  !      00000125
                CONST                 DATA           6fe4d00c  !      00000000
                CONST2                DATA           6fe4d068  !      00000000
                _DATA                 DATA           6fe4dbb0  !      00000000
/mnt/sda5/.user/root/src/openwatcom-1.9/bld/clib/_dos/c/sdrvewnt.c
                _TEXT                 CODE           6fe3ad30  !      00000042
                CONST                 DATA           6fe4d00c  !      00000000
                CONST2                DATA           6fe4d068  !      00000000
                _DATA                 DATA           6fe4dbb0  !      00000000
/mnt/sda5/.user/root/src/openwatcom-1.9/bld/clib/_dos/c/sfattwnt.c
                _TEXT                 CODE           6fe3ad80  !      0000004e
                CONST                 DATA           6fe4d00c  !      00000000
                CONST2                DATA           6fe4d068  !      00000000
                _DATA                 DATA           6fe4dbb0  !      00000000
/mnt/sda5/.user/root/src/openwatcom-1.9/bld/clib/_dos/c/sftimwnt.c
                _TEXT                 CODE           6fe3add0  !      00000083
                CONST                 DATA           6fe4d00c  !      00000000
                CONST2                DATA           6fe4d068  !      00000000
                _DATA                 DATA           6fe4dbb0  !      00000000
/mnt/sda5/.user/root/src/openwatcom-1.9/bld/clib/_dos/c/stimewnt.c
                _TEXT                 CODE           6fe3ae60  !      00000136
                CONST                 DATA           6fe4d00c  !      00000000
                CONST2                DATA           6fe4d068  !      00000000
                _DATA                 DATA           6fe4dbb0  !      00000000
/mnt/sda5/.user/root/src/openwatcom-1.9/bld/clib/_dos/c/ufind.c
                _TEXT                 CODE           6fe3afa0  !      00000188
                CONST                 DATA           6fe4d00c  !      00000000
                CONST2                DATA           6fe4d068  !      00000000
                _DATA                 DATA           6fe4dbb0  !      00000000
/mnt/sda5/.user/root/src/openwatcom-1.9/bld/clib/_dos/c/writewnt.c
                _TEXT                 CODE           6fe3b130  !      00000052
                CONST                 DATA           6fe4d00c  !      00000000
                CONST2                DATA           6fe4d068  !      00000000
                _DATA                 DATA           6fe4dbb0  !      00000000
/mnt/sda5/.user/root/src/openwatcom-1.9/bld/clib/cgsupp/a/__stos.asm
                _TEXT                 CODE           6fe3b190  !      000000a3
                _DATA                 DATA           6fe4dbb0  !      00000000
/mnt/sda5/.user/root/src/openwatcom-1.9/bld/clib/cgsupp/a/7fu8386.asm
                _TEXT                 CODE           6fe3b234  !      0000006a
                _DATA                 DATA           6fe4dbb0  !      00000000
/mnt/sda5/.user/root/src/openwatcom-1.9/bld/clib/cgsupp/a/7u8f386.asm
                _TEXT                 CODE           6fe3b2a0  !      00000036
                _DATA                 DATA           6fe4dbb0  !      00000000
/mnt/sda5/.user/root/src/openwatcom-1.9/bld/clib/cgsupp/a/div386.asm
                _TEXT                 CODE           6fe3b2d8  !      00000206
                _DATA                 DATA           6fe4dbb0  !      00000000
/mnt/sda5/.user/root/src/openwatcom-1.9/bld/clib/cgsupp/a/fdc386.asm
                _TEXT                 CODE           6fe3b4e0  !      00000038
                _DATA                 DATA           6fe4dbb0  !      00000000
/mnt/sda5/.user/root/src/openwatcom-1.9/bld/clib/cgsupp/a/fdfs386.asm
                _TEXT                 CODE           6fe3b518  !      0000004c
                _DATA                 DATA           6fe4dbb0  !      00000000
/mnt/sda5/.user/root/src/openwatcom-1.9/bld/clib/cgsupp/a/fdi4386.asm
                _TEXT                 CODE           6fe3b564  !      00000081
                _DATA                 DATA           6fe4dbb0  !      00000000
/mnt/sda5/.user/root/src/openwatcom-1.9/bld/clib/cgsupp/a/fdi8386.asm
                _TEXT                 CODE           6fe3b5e8  !      0000008b
                _DATA                 DATA           6fe4dbb0  !      00000000
/mnt/sda5/.user/root/src/openwatcom-1.9/bld/clib/cgsupp/a/fdmth386.asm
                _TEXT                 CODE           6fe3b674  !      0000035a
                _DATA                 DATA           6fe4dbb0  !      00000000
/mnt/sda5/.user/root/src/openwatcom-1.9/bld/clib/cgsupp/a/fdn386.asm
                _TEXT                 CODE           6fe3b9d0  !      0000000f
                _DATA                 DATA           6fe4dbb0  !      00000000
/mnt/sda5/.user/root/src/openwatcom-1.9/bld/clib/cgsupp/a/fsc386.asm
                _TEXT                 CODE           6fe3b9e0  !      0000001a
                _DATA                 DATA           6fe4dbb0  !      00000000
/mnt/sda5/.user/root/src/openwatcom-1.9/bld/clib/cgsupp/a/fsfd386.asm
                _TEXT                 CODE           6fe3b9fc  !      0000007b
                _DATA                 DATA           6fe4dbb0  !      00000000
/mnt/sda5/.user/root/src/openwatcom-1.9/bld/clib/cgsupp/a/fsi4386.asm
                _TEXT                 CODE           6fe3ba78  !      00000084
                _DATA                 DATA           6fe4dbb0  !      00000000
/mnt/sda5/.user/root/src/openwatcom-1.9/bld/clib/cgsupp/a/fsi8386.asm
                _TEXT                 CODE           6fe3bafc  !      0000007b
                _DATA                 DATA           6fe4dbb0  !      00000000
/mnt/sda5/.user/root/src/openwatcom-1.9/bld/clib/cgsupp/a/fsmth386.asm
                _TEXT                 CODE           6fe3bb78  !      00000284
                _DATA                 DATA           6fe4dbb0  !      0000000c
/mnt/sda5/.user/root/src/openwatcom-1.9/bld/clib/cgsupp/a/fsn386.asm
                _TEXT                 CODE           6fe3bdfc  !      0000000a
                _DATA                 DATA           6fe4dbbc  !      00000000
/mnt/sda5/.user/root/src/openwatcom-1.9/bld/clib/cgsupp/a/fstat386.asm
                _TEXT                 CODE           6fe3be08  !      00000065
                _DATA                 DATA           6fe4dbbc  !      00000000
/mnt/sda5/.user/root/src/openwatcom-1.9/bld/clib/cgsupp/a/i4fs386.asm
                _TEXT                 CODE           6fe3be70  !      0000003c
                _DATA                 DATA           6fe4dbbc  !      00000000
/mnt/sda5/.user/root/src/openwatcom-1.9/bld/clib/cgsupp/a/i4fd386.asm
                _TEXT                 CODE           6fe3beac  !      00000040
                _DATA                 DATA           6fe4dbbc  !      00000000
/mnt/sda5/.user/root/src/openwatcom-1.9/bld/clib/cgsupp/a/i8d.asm
                _TEXT                 CODE           6fe3beec  !      000000e3
                _DATA                 DATA           6fe4dbbc  !      00000000
/mnt/sda5/.user/root/src/openwatcom-1.9/bld/clib/cgsupp/a/i8fs386.asm
                _TEXT                 CODE           6fe3bfd0  !      0000005c
                _DATA                 DATA           6fe4dbbc  !      00000000
/mnt/sda5/.user/root/src/openwatcom-1.9/bld/clib/cgsupp/a/i8fd386.asm
                _TEXT                 CODE           6fe3c02c  !      0000005d
                _DATA                 DATA           6fe4dbbc  !      00000000
/mnt/sda5/.user/root/src/openwatcom-1.9/bld/clib/cgsupp/a/i8m386.asm
                _TEXT                 CODE           6fe3c08c  !      0000001c
                _DATA                 DATA           6fe4dbbc  !      00000000
/mnt/sda5/.user/root/src/openwatcom-1.9/bld/clib/cgsupp/a/i8rs386.asm
                _TEXT                 CODE           6fe3c0a8  !      0000004f
                _DATA                 DATA           6fe4dbbc  !      00000000
/mnt/sda5/.user/root/src/openwatcom-1.9/bld/clib/cgsupp/a/ldiv386.asm
                _TEXT                 CODE           6fe3c0f8  !      0000000d
                _DATA                 DATA           6fe4dbbc  !      00000000
/mnt/sda5/.user/root/src/openwatcom-1.9/bld/clib/cgsupp/a/lldiv386.asm
                _TEXT                 CODE           6fe3c108  !      00000011
                _DATA                 DATA           6fe4dbbc  !      00000000
timstamp        _TEXT                 CODE           6fe3c120  !      00000015
                CONST                 DATA           6fe4d00c  !      00000000
                CONST2                DATA           6fe4d068  !      00000000
                _DATA                 DATA           6fe4dbbc  !      00000004
chipvar         _TEXT                 CODE           6fe3c138  !      00000000
                _DATA                 DATA           6fe4dbc0  !      00000004
/mnt/sda5/.user/root/src/openwatcom-1.9/bld/clib/startup/a/_8087386.asm
                _TEXT                 CODE           6fe3c138  !      00000000
                _DATA                 DATA           6fe4dbc4  !      00000002
                XIB                   DATA           6fe4dcd8  !      00000000
                XI                    DATA           6fe4dd1a  !      00000006
                XIE                   DATA           6fe4dd32  !      00000000
                YIB                   DATA           6fe4dd32  !      00000000
                YI                    DATA           6fe4dd50  !      00000000
                YIE                   DATA           6fe4dd68  !      00000000
crwdata         _TEXT                 CODE           6fe3c138  !      00000001
                _DATA                 DATA           6fe4dbc8  !      0000005c
/mnt/sda5/.user/root/src/openwatcom-1.9/bld/clib/startup/c/dmainwnt.c
                _TEXT                 CODE           6fe3c140  !      00000203
                CONST                 DATA           6fe4d00c  !      00000000
                CONST2                DATA           6fe4d068  !      00000000
                _DATA                 DATA           6fe4dc24  !      00000000
                _BSS                  BSS            6fe50540  !      00000004
segdefns        _TEXT                 CODE           6fe3c344  !      00000000
                _DATA                 DATA           6fe4dc24  !      00000000
                BEGTEXT               CODE           6fe01000  !      00000007
                _NULL                 BEGDATA        6fe4d000  !      00000004
                _AFTERNULL            BEGDATA        6fe4d004  !      00000000
                CONST                 DATA           6fe4d00c  !      00000000
                TIB                   DATA           6fe4e076  !      00000000
                TI                    DATA           6fe4e076  !      00000000
                TIE                   DATA           6fe4e076  !      00000000
                XIB                   DATA           6fe4dcd8  !      00000000
                XI                    DATA           6fe4dd20  !      00000000
                XIE                   DATA           6fe4dd32  !      00000000
                YIB                   DATA           6fe4dd32  !      00000000
                YI                    DATA           6fe4dd50  !      00000000
                YIE                   DATA           6fe4dd68  !      00000000
                DATA                  DATA           6fe4e076  !      00000000
                _BSS                  BSS            6fe50544  !      00000000
                STACK                 STACK          6fe509f0  !      00010000
/mnt/sda5/.user/root/src/openwatcom-1.9/bld/clib/conio/c/conutwnt.c
                _TEXT                 CODE           6fe3c350  !      00000157
                CONST                 DATA           6fe4d00c  !      00000000
                CONST2                DATA           6fe4d068  !      00000000
                _DATA                 DATA           6fe4dc24  !      00000008
/mnt/sda5/.user/root/src/openwatcom-1.9/bld/clib/streamio/c/prtf.c
                _TEXT                 CODE           6fe3c4b0  !      00001182
                CONST                 DATA           6fe4d00c  !      00000000
                CONST2                DATA           6fe4d068  !      00000000
                _DATA                 DATA           6fe4dc2c  !      00000000
/mnt/sda5/.user/root/src/openwatcom-1.9/bld/clib/streamio/c/scnf.c
                _TEXT                 CODE           6fe3d640  !      00001401
                CONST                 DATA           6fe4d00c  !      00000000
                CONST2                DATA           6fe4d068  !      00000000
                _DATA                 DATA           6fe4dc2c  !      00000000
/mnt/sda5/.user/root/src/openwatcom-1.9/bld/clib/convert/c/alphabet.c
                _TEXT                 CODE           6fe3ea50  !      00000000
                CONST                 DATA           6fe4d00c  !      00000025
                CONST2                DATA           6fe4d068  !      00000000
                _DATA                 DATA           6fe4dc2c  !      00000000
/mnt/sda5/.user/root/src/openwatcom-1.9/bld/clib/direct/c/ntdirinf.c
                _TEXT                 CODE           6fe3ea50  !      00000195
                CONST                 DATA           6fe4d034  !      00000000
                CONST2                DATA           6fe4d068  !      00000000
                _DATA                 DATA           6fe4dc2c  !      00000000
/mnt/sda5/.user/root/src/openwatcom-1.9/bld/clib/libwin32/c/setcdir.c
                _TEXT                 CODE           6fe3ebf0  !      000000a2
                CONST                 DATA           6fe4d034  !      00000000
                CONST2                DATA           6fe4d068  !      00000000
                _DATA                 DATA           6fe4dc2c  !      00000000
/mnt/sda5/.user/root/src/openwatcom-1.9/bld/clib/libwin32/c/ffrstfil.c
                _TEXT                 CODE           6fe3eca0  !      00000186
                CONST                 DATA           6fe4d034  !      00000000
                CONST2                DATA           6fe4d068  !      00000000
                _DATA                 DATA           6fe4dc2c  !      00000000
/mnt/sda5/.user/root/src/openwatcom-1.9/bld/clib/direct/c/untdrinf.c
                _TEXT                 CODE           6fe3ee30  !      00000102
                CONST                 DATA           6fe4d034  !      00000000
                CONST2                DATA           6fe4d068  !      00000000
                _DATA                 DATA           6fe4dc2c  !      00000000
/mnt/sda5/.user/root/src/openwatcom-1.9/bld/clib/libwin32/c/fnextfil.c
                _TEXT                 CODE           6fe3ef40  !      00000128
                CONST                 DATA           6fe4d034  !      00000000
                CONST2                DATA           6fe4d068  !      00000000
                _DATA                 DATA           6fe4dc2c  !      00000000
/mnt/sda5/.user/root/src/openwatcom-1.9/bld/clib/libwin32/c/getcdir.c
                _TEXT                 CODE           6fe3f070  !      000000d7
                CONST                 DATA           6fe4d034  !      00000000
                CONST2                DATA           6fe4d068  !      00000000
                _DATA                 DATA           6fe4dc2c  !      00000000
/mnt/sda5/.user/root/src/openwatcom-1.9/bld/clib/libwin32/c/creatdir.c
                _TEXT                 CODE           6fe3f150  !      000000ab
                CONST                 DATA           6fe4d034  !      00000000
                CONST2                DATA           6fe4d068  !      00000000
                _DATA                 DATA           6fe4dc2c  !      00000000
/mnt/sda5/.user/root/src/openwatcom-1.9/bld/clib/libwin32/c/removdir.c
                _TEXT                 CODE           6fe3f200  !      000000a2
                CONST                 DATA           6fe4d034  !      00000000
                CONST2                DATA           6fe4d068  !      00000000
                _DATA                 DATA           6fe4dc2c  !      00000000
/mnt/sda5/.user/root/src/openwatcom-1.9/bld/clib/environ/c/setenvp.c
                _TEXT                 CODE           6fe3f2b0  !      00000186
                CONST                 DATA           6fe4d034  !      00000000
                CONST2                DATA           6fe4d068  !      00000000
                _DATA                 DATA           6fe4dc2c  !      00000000
                _BSS                  BSS            6fe50544  !      00000004
/mnt/sda5/.user/root/src/openwatcom-1.9/bld/clib/misc/c/rtcswrap.c
                _TEXT                 CODE           6fe3f440  !      0000007c
                CONST                 DATA           6fe4d034  !      00000000
                CONST2                DATA           6fe4d068  !      00000000
                _DATA                 DATA           6fe4dc2c  !      00000000
/mnt/sda5/.user/root/src/openwatcom-1.9/bld/clib/environ/c/crtwenv.c
                _TEXT                 CODE           6fe3f4c0  !      0000007f
                CONST                 DATA           6fe4d034  !      00000000
                CONST2                DATA           6fe4d068  !      00000000
                _DATA                 DATA           6fe4dc2c  !      00000000
/mnt/sda5/.user/root/src/openwatcom-1.9/bld/clib/libwin32/c/setenvar.c
                _TEXT                 CODE           6fe3f540  !      0000013d
                CONST                 DATA           6fe4d034  !      00000000
                CONST2                DATA           6fe4d068  !      00000000
                _DATA                 DATA           6fe4dc2c  !      00000000
/mnt/sda5/.user/root/src/openwatcom-1.9/bld/clib/handleio/c/d2ttime.c
                _TEXT                 CODE           6fe3f680  !      000000a0
                CONST                 DATA           6fe4d034  !      00000000
                CONST2                DATA           6fe4d068  !      00000000
                _DATA                 DATA           6fe4dc2c  !      00000000
/mnt/sda5/.user/root/src/openwatcom-1.9/bld/clib/libwin32/c/fgtattr.c
                _TEXT                 CODE           6fe3f720  !      000000a3
                CONST                 DATA           6fe4d034  !      00000000
                CONST2                DATA           6fe4d068  !      00000000
                _DATA                 DATA           6fe4dc2c  !      00000000
/mnt/sda5/.user/root/src/openwatcom-1.9/bld/clib/libwin32/c/creatfil.c
                _TEXT                 CODE           6fe3f7d0  !      000000da
                CONST                 DATA           6fe4d034  !      00000000
                CONST2                DATA           6fe4d068  !      00000000
                _DATA                 DATA           6fe4dc2c  !      00000000
/mnt/sda5/.user/root/src/openwatcom-1.9/bld/clib/libwin32/c/getdtype.c
                _TEXT                 CODE           6fe3f8b0  !      000000a2
                CONST                 DATA           6fe4d034  !      00000000
                CONST2                DATA           6fe4d068  !      00000000
                _DATA                 DATA           6fe4dc2c  !      00000000
/mnt/sda5/.user/root/src/openwatcom-1.9/bld/clib/libwin32/c/getfattr.c
                _TEXT                 CODE           6fe3f960  !      0000009e
                CONST                 DATA           6fe4d034  !      00000000
                CONST2                DATA           6fe4d068  !      00000000
                _DATA                 DATA           6fe4dc2c  !      00000000
/mnt/sda5/.user/root/src/openwatcom-1.9/bld/clib/libwin32/c/setfattr.c
                _TEXT                 CODE           6fe3fa00  !      000000ab
                CONST                 DATA           6fe4d034  !      00000000
                CONST2                DATA           6fe4d068  !      00000000
                _DATA                 DATA           6fe4dc2c  !      00000000
/mnt/sda5/.user/root/src/openwatcom-1.9/bld/clib/libwin32/c/movefile.c
                _TEXT                 CODE           6fe3fab0  !      00000124
                CONST                 DATA           6fe4d034  !      00000000
                CONST2                DATA           6fe4d068  !      00000000
                _DATA                 DATA           6fe4dc2c  !      00000000
/mnt/sda5/.user/root/src/openwatcom-1.9/bld/clib/handleio/c/iomode.c
                _TEXT                 CODE           6fe3fbe0  !      00000089
                CONST                 DATA           6fe4d034  !      00000000
                CONST2                DATA           6fe4d068  !      00000000
                _DATA                 DATA           6fe4dc2c  !      00000058
/mnt/sda5/.user/root/src/openwatcom-1.9/bld/clib/handleio/c/stiomode.c
                _TEXT                 CODE           6fe3fc70  !      000001b6
                CONST                 DATA           6fe4d034  !      00000000
                CONST2                DATA           6fe4d068  !      00000000
                _DATA                 DATA           6fe4dc84  !      00000000
                _BSS                  BSS            6fe50548  !      00000004
                YIB                   DATA           6fe4dd32  !      00000000
                YI                    DATA           6fe4dd50  !      00000006
                YIE                   DATA           6fe4dd68  !      00000000
/mnt/sda5/.user/root/src/openwatcom-1.9/bld/clib/handleio/c/iomodtty.c
                _TEXT                 CODE           6fe3fe30  !      000000a0
                CONST                 DATA           6fe4d034  !      00000000
                CONST2                DATA           6fe4d068  !      00000000
                _DATA                 DATA           6fe4dc84  !      00000000
/mnt/sda5/.user/root/src/openwatcom-1.9/bld/clib/handleio/c/_clsewnt.c
                _TEXT                 CODE           6fe3fed0  !      00000090
                CONST                 DATA           6fe4d034  !      00000000
                CONST2                DATA           6fe4d068  !      00000000
                _DATA                 DATA           6fe4dc84  !      00000000
/mnt/sda5/.user/root/src/openwatcom-1.9/bld/clib/streamio/c/ntfio.c
                _TEXT                 CODE           6fe3ff60  !      00000176
                CONST                 DATA           6fe4d034  !      00000000
                CONST2                DATA           6fe4d068  !      00000000
                _DATA                 DATA           6fe4dc84  !      00000000
/mnt/sda5/.user/root/src/openwatcom-1.9/bld/clib/handleio/c/umaskval.c
                _TEXT                 CODE           6fe400e0  !      00000000
                CONST                 DATA           6fe4d034  !      00000000
                CONST2                DATA           6fe4d068  !      00000000
                _DATA                 DATA           6fe4dc84  !      00000004
/mnt/sda5/.user/root/src/openwatcom-1.9/bld/clib/libwin32/c/delfile.c
                _TEXT                 CODE           6fe400e0  !      000000a2
                CONST                 DATA           6fe4d034  !      00000000
                CONST2                DATA           6fe4d068  !      00000000
                _DATA                 DATA           6fe4dc88  !      00000000
/mnt/sda5/.user/root/src/openwatcom-1.9/bld/clib/heap/c/grownear.c
                _TEXT                 CODE           6fe40190  !      0000030d
                CONST                 DATA           6fe4d034  !      00000000
                CONST2                DATA           6fe4d068  !      00000000
                _DATA                 DATA           6fe4dc88  !      00000000
/mnt/sda5/.user/root/src/openwatcom-1.9/bld/clib/heap/c/mem.c
                _TEXT                 CODE           6fe404a0  !      00000466
                CONST                 DATA           6fe4d034  !      00000000
                CONST2                DATA           6fe4d068  !      00000000
                _DATA                 DATA           6fe4dc88  !      00000000
/mnt/sda5/.user/root/src/openwatcom-1.9/bld/clib/intel/c/prfalloc.c
                _TEXT                 CODE           6fe40910  !      0000002c
                CONST                 DATA           6fe4d034  !      00000000
                CONST2                DATA           6fe4d068  !      00000000
                _DATA                 DATA           6fe4dc88  !      00000000
/mnt/sda5/.user/root/src/openwatcom-1.9/bld/clib/kanji/c/hanzentb.c
                _TEXT                 CODE           6fe40940  !      0000013c
                CONST                 DATA           6fe4d034  !      00000000
                CONST2                DATA           6fe4d068  !      00000000
                _DATA                 DATA           6fe4dc88  !      00000000
/mnt/sda5/.user/root/src/openwatcom-1.9/bld/clib/kanji/c/zenhantb.c
                _TEXT                 CODE           6fe40a80  !      00000444
                CONST                 DATA           6fe4d034  !      00000000
                CONST2                DATA           6fe4d068  !      00000000
                _DATA                 DATA           6fe4dc88  !      00000000
/mnt/sda5/.user/root/src/openwatcom-1.9/bld/clib/mbyte/c/mbinit.c
                _TEXT                 CODE           6fe40ec4  !      000001b3
                CONST                 DATA           6fe4d034  !      00000000
                CONST2                DATA           6fe4d068  !      00000000
                _DATA                 DATA           6fe4dc88  !      00000004
/mnt/sda5/.user/root/src/openwatcom-1.9/bld/clib/misc/c/rterrmsg.c
                _TEXT                 CODE           6fe41080  !      00000084
                CONST                 DATA           6fe4d034  !      00000000
                CONST2                DATA           6fe4d068  !      00000000
                _DATA                 DATA           6fe4dc8c  !      00000000
/mnt/sda5/.user/root/src/openwatcom-1.9/bld/clib/misc/c/dbgdata.c
                _TEXT                 CODE           6fe41110  !      00000057
                CONST                 DATA           6fe4d034  !      00000000
                CONST2                DATA           6fe4d068  !      00000000
                _DATA                 DATA           6fe4dc8c  !      0000001c
                XIB                   DATA           6fe4dcd8  !      00000000
                XI                    DATA           6fe4dd20  !      00000006
                XIE                   DATA           6fe4dd32  !      00000000
/mnt/sda5/.user/root/src/openwatcom-1.9/bld/clib/misc/c/rtcshdlr.c
                _TEXT                 CODE           6fe41170  !      00000000
                CONST                 DATA           6fe4d034  !      00000000
                CONST2                DATA           6fe4d068  !      00000000
                _DATA                 DATA           6fe4dca8  !      00000004
/mnt/sda5/.user/root/src/openwatcom-1.9/bld/clib/misc/c/locale.c
                _TEXT                 CODE           6fe41170  !      00000000
                CONST                 DATA           6fe4d034  !      00000000
                CONST2                DATA           6fe4d068  !      00000000
                _DATA                 DATA           6fe4dcac  !      00000007
/mnt/sda5/.user/root/src/openwatcom-1.9/bld/clib/misc/c/urtermsg.c
                _TEXT                 CODE           6fe41170  !      00000084
                CONST                 DATA           6fe4d034  !      00000000
                CONST2                DATA           6fe4d068  !      00000000
                _DATA                 DATA           6fe4dcb4  !      00000000
/mnt/sda5/.user/root/src/openwatcom-1.9/bld/clib/libwin32/c/getfulpn.c
                _TEXT                 CODE           6fe41200  !      000001a3
                CONST                 DATA           6fe4d034  !      00000000
                CONST2                DATA           6fe4d068  !      00000000
                _DATA                 DATA           6fe4dcb4  !      00000000
/mnt/sda5/.user/root/src/openwatcom-1.9/bld/clib/mthread/c/trdlist.c
                _TEXT                 CODE           6fe413b0  !      00000405
                CONST                 DATA           6fe4d034  !      00000000
                CONST2                DATA           6fe4d068  !      00000000
                _DATA                 DATA           6fe4dcb4  !      00000000
                _BSS                  BSS            6fe5054c  !      00000004
/mnt/sda5/.user/root/src/openwatcom-1.9/bld/clib/mthread/c/trdalloc.c
                _TEXT                 CODE           6fe417c0  !      0000001c
                CONST                 DATA           6fe4d034  !      00000000
                CONST2                DATA           6fe4d068  !      00000000
                _DATA                 DATA           6fe4dcb4  !      00000000
/mnt/sda5/.user/root/src/openwatcom-1.9/bld/clib/startup/c/stklmwnt.c
                _TEXT                 CODE           6fe417e0  !      00000090
                CONST                 DATA           6fe4d034  !      00000000
                CONST2                DATA           6fe4d068  !      00000000
                _DATA                 DATA           6fe4dcb4  !      00000000
/mnt/sda5/.user/root/src/openwatcom-1.9/bld/clib/mthread/c/thredwnt.c
                _TEXT                 CODE           6fe41870  !      0000020d
                CONST                 DATA           6fe4d034  !      00000000
                CONST2                DATA           6fe4d068  !      00000000
                _DATA                 DATA           6fe4dcb4  !      00000000
/mnt/sda5/.user/root/src/openwatcom-1.9/bld/clib/mthread/c/thrdxwnt.c
                _TEXT                 CODE           6fe41a80  !      000001cf
                CONST                 DATA           6fe4d034  !      00000000
                CONST2                DATA           6fe4d068  !      00000000
                _DATA                 DATA           6fe4dcb4  !      00000000
/mnt/sda5/.user/root/src/openwatcom-1.9/bld/clib/fpu/c/fclex387.c
                _TEXT                 CODE           6fe41c50  !      00000019
                CONST                 DATA           6fe4d034  !      00000000
                CONST2                DATA           6fe4d068  !      00000000
                _DATA                 DATA           6fe4dcb4  !      00000000
/mnt/sda5/.user/root/src/openwatcom-1.9/bld/clib/process/c/cenvarg.c
                _TEXT                 CODE           6fe41c69  !      0000028f
                CONST                 DATA           6fe4d034  !      00000000
                CONST2                DATA           6fe4d068  !      00000000
                _DATA                 DATA           6fe4dcb4  !      00000000
/mnt/sda5/.user/root/src/openwatcom-1.9/bld/clib/process/c/dospnwnt.c
                _TEXT                 CODE           6fe41f00  !      00000159
                CONST                 DATA           6fe4d034  !      00000000
                CONST2                DATA           6fe4d068  !      00000000
                _DATA                 DATA           6fe4dcb4  !      00000000
/mnt/sda5/.user/root/src/openwatcom-1.9/bld/clib/process/c/_slashc.c
                _TEXT                 CODE           6fe42060  !      00000038
                CONST                 DATA           6fe4d034  !      00000000
                CONST2                DATA           6fe4d068  !      00000000
                _DATA                 DATA           6fe4dcb4  !      00000000
/mnt/sda5/.user/root/src/openwatcom-1.9/bld/clib/process/c/ucenvarg.c
                _TEXT                 CODE           6fe420a0  !      000002e5
                CONST                 DATA           6fe4d034  !      00000000
                CONST2                DATA           6fe4d068  !      00000000
                _DATA                 DATA           6fe4dcb4  !      00000000
/mnt/sda5/.user/root/src/openwatcom-1.9/bld/clib/process/c/udospwnt.c
                _TEXT                 CODE           6fe42390  !      0000014a
                CONST                 DATA           6fe4d034  !      00000000
                CONST2                DATA           6fe4d068  !      00000000
                _DATA                 DATA           6fe4dcb4  !      00000000
/mnt/sda5/.user/root/src/openwatcom-1.9/bld/clib/process/c/_uslashc.c
                _TEXT                 CODE           6fe424e0  !      0000003e
                CONST                 DATA           6fe4d034  !      00000000
                CONST2                DATA           6fe4d068  !      00000000
                _DATA                 DATA           6fe4dcb4  !      00000000
/mnt/sda5/.user/root/src/openwatcom-1.9/bld/clib/startup/c/8087cw.c
                _TEXT                 CODE           6fe42520  !      00000000
                CONST                 DATA           6fe4d034  !      00000000
                CONST2                DATA           6fe4d068  !      00000000
                _DATA                 DATA           6fe4dcb4  !      00000002
/mnt/sda5/.user/root/src/openwatcom-1.9/bld/clib/intel/c/save8087.c
                _TEXT                 CODE           6fe42520  !      0000001a
                CONST                 DATA           6fe4d034  !      00000000
                CONST2                DATA           6fe4d068  !      00000000
                _DATA                 DATA           6fe4dcb8  !      00000008
/mnt/sda5/.user/root/src/openwatcom-1.9/bld/clib/fpu/a/ini87386.asm
                _TEXT                 CODE           6fe4253c  !      00000033
                _DATA                 DATA           6fe4dcc0  !      00000000
/mnt/sda5/.user/root/src/openwatcom-1.9/bld/clib/startup/c/argcv.c
                _TEXT                 CODE           6fe42570  !      00000000
                CONST                 DATA           6fe4d034  !      00000000
                CONST2                DATA           6fe4d068  !      00000000
                _DATA                 DATA           6fe4dcc0  !      00000000
                _BSS                  BSS            6fe50550  !      00000010
                XIB                   DATA           6fe4dcd8  !      00000000
                XI                    DATA           6fe4dd26  !      00000006
                XIE                   DATA           6fe4dd32  !      00000000
                YIB                   DATA           6fe4dd32  !      00000000
                YI                    DATA           6fe4dd56  !      00000006
                YIE                   DATA           6fe4dd68  !      00000000
/mnt/sda5/.user/root/src/openwatcom-1.9/bld/clib/startup/c/initrtns.c
                _TEXT                 CODE           6fe42570  !      0000015a
                CONST                 DATA           6fe4d034  !      00000000
                CONST2                DATA           6fe4d068  !      00000000
                _DATA                 DATA           6fe4dcc0  !      00000000
/mnt/sda5/.user/root/src/openwatcom-1.9/bld/clib/startup/c/histsplt.c
                _TEXT                 CODE           6fe426d0  !      00000000
                CONST                 DATA           6fe4d034  !      00000000
                CONST2                DATA           6fe4d068  !      00000000
                _DATA                 DATA           6fe4dcc0  !      00000000
                _BSS                  BSS            6fe50560  !      00000004
/mnt/sda5/.user/root/src/openwatcom-1.9/bld/clib/startup/c/wargcv.c
                _TEXT                 CODE           6fe426d0  !      00000000
                CONST                 DATA           6fe4d034  !      00000000
                CONST2                DATA           6fe4d068  !      00000000
                _DATA                 DATA           6fe4dcc0  !      00000000
                _BSS                  BSS            6fe50564  !      00000010
                XIB                   DATA           6fe4dcd8  !      00000000
                XI                    DATA           6fe4dd2c  !      00000006
                XIE                   DATA           6fe4dd32  !      00000000
                YIB                   DATA           6fe4dd32  !      00000000
                YI                    DATA           6fe4dd5c  !      00000006
                YIE                   DATA           6fe4dd68  !      00000000
/mnt/sda5/.user/root/src/openwatcom-1.9/bld/clib/streamio/c/freefp.c
                _TEXT                 CODE           6fe426d0  !      000000ca
                CONST                 DATA           6fe4d034  !      00000000
                CONST2                DATA           6fe4d068  !      00000000
                _DATA                 DATA           6fe4dcc0  !      00000000
/mnt/sda5/.user/root/src/openwatcom-1.9/bld/clib/startup/c/atexit.c
                _TEXT                 CODE           6fe4279a  !      0000008f
                CONST                 DATA           6fe4d034  !      00000000
                CONST2                DATA           6fe4d068  !      00000000
                _DATA                 DATA           6fe4dcc0  !      00000000
                _BSS                  BSS            6fe50574  !      00000084
                YIB                   DATA           6fe4dd32  !      00000000
                YI                    DATA           6fe4dd62  !      00000006
                YIE                   DATA           6fe4dd68  !      00000000
/mnt/sda5/.user/root/src/openwatcom-1.9/bld/clib/startup/c/pgmptra.c
                _TEXT                 CODE           6fe42830  !      00000000
                CONST                 DATA           6fe4d034  !      00000000
                CONST2                DATA           6fe4d068  !      00000000
                _DATA                 DATA           6fe4dcc0  !      00000000
/mnt/sda5/.user/root/src/openwatcom-1.9/bld/clib/startup/c/wpgmptra.c
                _TEXT                 CODE           6fe42830  !      00000000
                CONST                 DATA           6fe4d034  !      00000000
                CONST2                DATA           6fe4d068  !      00000000
                _DATA                 DATA           6fe4dcc0  !      00000000
/mnt/sda5/.user/root/src/openwatcom-1.9/bld/clib/streamio/c/allocfp.c
                _TEXT                 CODE           6fe42830  !      00000129
                CONST                 DATA           6fe4d034  !      00000000
                CONST2                DATA           6fe4d068  !      00000000
                _DATA                 DATA           6fe4dcc0  !      00000000
/mnt/sda5/.user/root/src/openwatcom-1.9/bld/clib/streamio/c/chktty.c
                _TEXT                 CODE           6fe42960  !      00000049
                CONST                 DATA           6fe4d034  !      00000000
                CONST2                DATA           6fe4d068  !      00000000
                _DATA                 DATA           6fe4dcc0  !      00000000
/mnt/sda5/.user/root/src/openwatcom-1.9/bld/clib/streamio/c/ioalloc.c
                _TEXT                 CODE           6fe429b0  !      000000c7
                CONST                 DATA           6fe4d034  !      00000000
                CONST2                DATA           6fe4d068  !      00000000
                _DATA                 DATA           6fe4dcc0  !      00000000
/mnt/sda5/.user/root/src/openwatcom-1.9/bld/clib/handleio/c/qread.c
                _TEXT                 CODE           6fe42a80  !      00000090
                CONST                 DATA           6fe4d034  !      00000000
                CONST2                DATA           6fe4d068  !      00000000
                _DATA                 DATA           6fe4dcc0  !      00000000
/mnt/sda5/.user/root/src/openwatcom-1.9/bld/clib/handleio/c/qwrit.c
                _TEXT                 CODE           6fe42b10  !      00000110
                CONST                 DATA           6fe4d034  !      00000000
                CONST2                DATA           6fe4d068  !      00000000
                _DATA                 DATA           6fe4dcc0  !      00000000
/mnt/sda5/.user/root/src/openwatcom-1.9/bld/clib/streamio/c/fprtf.c
                _TEXT                 CODE           6fe42c20  !      00000148
                CONST                 DATA           6fe4d034  !      00000000
                CONST2                DATA           6fe4d068  !      00000000
                _DATA                 DATA           6fe4dcc0  !      00000000
/mnt/sda5/.user/root/src/openwatcom-1.9/bld/clib/streamio/c/fprtf_s.c
                _TEXT                 CODE           6fe42d70  !      000001e5
                CONST                 DATA           6fe4d034  !      00000000
                CONST2                DATA           6fe4d068  !      00000000
                _DATA                 DATA           6fe4dcc0  !      00000000
/mnt/sda5/.user/root/src/openwatcom-1.9/bld/clib/streamio/c/scnf_s.c
                _TEXT                 CODE           6fe42f60  !      00001593
                CONST                 DATA           6fe4d034  !      00000000
                CONST2                DATA           6fe4d068  !      00000000
                _DATA                 DATA           6fe4dcc0  !      00000000
/mnt/sda5/.user/root/src/openwatcom-1.9/bld/clib/streamio/c/initfile.c
                _TEXT                 CODE           6fe44500  !      00000109
                CONST                 DATA           6fe4d034  !      00000000
                CONST2                DATA           6fe4d068  !      00000000
                _DATA                 DATA           6fe4dcc0  !      00000000
/mnt/sda5/.user/root/src/openwatcom-1.9/bld/clib/streamio/c/tmputil.c
                _TEXT                 CODE           6fe44610  !      0000023f
                CONST                 DATA           6fe4d034  !      00000000
                CONST2                DATA           6fe4d068  !      00000000
                _DATA                 DATA           6fe4dcc0  !      00000014
/mnt/sda5/.user/root/src/openwatcom-1.9/bld/clib/streamio/c/ufprtf.c
                _TEXT                 CODE           6fe4484f  !      00000139
                CONST                 DATA           6fe4d034  !      00000000
                CONST2                DATA           6fe4d068  !      00000000
                _DATA                 DATA           6fe4dcd4  !      00000000
/mnt/sda5/.user/root/src/openwatcom-1.9/bld/clib/streamio/c/ufprtf_s.c
                _TEXT                 CODE           6fe44990  !      000001f5
                CONST                 DATA           6fe4d034  !      00000000
                CONST2                DATA           6fe4d068  !      00000000
                _DATA                 DATA           6fe4dcd4  !      00000000
/mnt/sda5/.user/root/src/openwatcom-1.9/bld/clib/streamio/c/uscnf.c
                _TEXT                 CODE           6fe44b85  !      00001270
                CONST                 DATA           6fe4d034  !      00000000
                CONST2                DATA           6fe4d068  !      00000000
                _DATA                 DATA           6fe4dcd4  !      00000000
/mnt/sda5/.user/root/src/openwatcom-1.9/bld/clib/streamio/c/uscnf_s.c
                _TEXT                 CODE           6fe45df5  !      0000142a
                CONST                 DATA           6fe4d034  !      00000000
                CONST2                DATA           6fe4d068  !      00000000
                _DATA                 DATA           6fe4dcd4  !      00000000
/mnt/sda5/.user/root/src/openwatcom-1.9/bld/clib/string/c/fsetbits.c
                _TEXT                 CODE           6fe47220  !      00000076
                CONST                 DATA           6fe4d034  !      00000000
                CONST2                DATA           6fe4d068  !      00000000
                _DATA                 DATA           6fe4dcd4  !      00000000
/mnt/sda5/.user/root/src/openwatcom-1.9/bld/clib/string/c/bits.c
                _TEXT                 CODE           6fe472a0  !      00000008
                CONST                 DATA           6fe4d034  !      00000000
                CONST2                DATA           6fe4d068  !      00000000
                _DATA                 DATA           6fe4dcd4  !      00000000
/mnt/sda5/.user/root/src/openwatcom-1.9/bld/clib/streamio/c/prtf_s.c
                _TEXT                 CODE           6fe472b0  !      00001162
                CONST                 DATA           6fe4d034  !      00000000
                CONST2                DATA           6fe4d068  !      00000000
                _DATA                 DATA           6fe4dcd4  !      00000000
/mnt/sda5/.user/root/src/openwatcom-1.9/bld/clib/string/c/setbits.c
                _TEXT                 CODE           6fe48420  !      0000005c
                CONST                 DATA           6fe4d034  !      00000000
                CONST2                DATA           6fe4d068  !      00000000
                _DATA                 DATA           6fe4dcd4  !      00000000
/mnt/sda5/.user/root/src/openwatcom-1.9/bld/clib/streamio/c/uprtf.c
                _TEXT                 CODE           6fe4847c  !      00001237
                CONST                 DATA           6fe4d034  !      00000000
                CONST2                DATA           6fe4d068  !      00000000
                _DATA                 DATA           6fe4dcd4  !      00000000
/mnt/sda5/.user/root/src/openwatcom-1.9/bld/clib/streamio/c/uprtf_s.c
                _TEXT                 CODE           6fe496b3  !      0000121e
                CONST                 DATA           6fe4d034  !      00000000
                CONST2                DATA           6fe4d068  !      00000000
                _DATA                 DATA           6fe4dcd4  !      00000000
/mnt/sda5/.user/root/src/openwatcom-1.9/bld/clib/time/c/gtctmwnt.c
                _TEXT                 CODE           6fe4a8e0  !      00000088
                CONST                 DATA           6fe4d034  !      00000000
                CONST2                DATA           6fe4d068  !      00000000
                _DATA                 DATA           6fe4dcd4  !      00000000
/mnt/sda5/.user/root/src/openwatcom-1.9/bld/clib/time/c/leapyear.c
                _TEXT                 CODE           6fe4a970  !      00000068
                CONST                 DATA           6fe4d034  !      00000034
                CONST2                DATA           6fe4d068  !      00000000
                _DATA                 DATA           6fe4dcd4  !      00000000
/mnt/sda5/.user/root/src/openwatcom-1.9/bld/clib/time/c/timeutil.c
                _TEXT                 CODE           6fe4a9e0  !      00000681
                CONST                 DATA           6fe4d068  !      00000000
                CONST2                DATA           6fe4d068  !      00000000
                _DATA                 DATA           6fe4dcd4  !      00000000
/mnt/sda5/.user/root/src/openwatcom-1.9/bld/clib/time/c/locmktim.c
                _TEXT                 CODE           6fe4b070  !      00000195
                CONST                 DATA           6fe4d068  !      00000000
                CONST2                DATA           6fe4d068  !      00000000
                _DATA                 DATA           6fe4dcd4  !      00000000
/mnt/sda5/.user/root/src/openwatcom-1.9/bld/clib/startup/c/fpexcept.c
                _TEXT                 CODE           6fe4b210  !      00000023
                CONST                 DATA           6fe4d068  !      00000000
                CONST2                DATA           6fe4d068  !      00000000
                _DATA                 DATA           6fe4dcd4  !      00000000
/mnt/sda5/.user/root/src/openwatcom-1.9/bld/clib/startup/c/ddgrpwnt.c
                _TEXT                 CODE           6fe4b240  !      00000186
                CONST                 DATA           6fe4d068  !      00000000
                CONST2                DATA           6fe4d068  !      00000000
                _DATA                 DATA           6fe4dcd4  !      00000000
                _BSS                  BSS            6fe505f8  !      000003f5
/mnt/sda5/.user/root/src/openwatcom-1.9/bld/clib/startup/c/rdllmwnt.c
                _TEXT                 CODE           6fe4b3d0  !      00000000
                CONST                 DATA           6fe4d068  !      00000000
                CONST2                DATA           6fe4d068  !      00000000
                _DATA                 DATA           6fe4dcd4  !      00000004
/mnt/sda5/.user/root/src/openwatcom-1.9/bld/clib/startup/c/cinit.c
                _TEXT                 CODE           6fe4b3d0  !      00000017
                CONST                 DATA           6fe4d068  !      00000000
                CONST2                DATA           6fe4d068  !      00000000
                _DATA                 DATA           6fe4dcd8  !      00000000
dosseg          _TEXT                 CODE           6fe4b3e8  !      00000000
                _DATA                 DATA           6fe4dcd8  !      00000000
/mnt/sda5/.user/root/src/openwatcom-1.9/bld/clib/libwin32/c/ufgtattr.c
                _TEXT                 CODE           6fe4b3f0  !      000000a0
                CONST                 DATA           6fe4d068  !      00000000
                CONST2                DATA           6fe4d068  !      00000000
                _DATA                 DATA           6fe4dcd8  !      00000000
/mnt/sda5/.user/root/src/openwatcom-1.9/bld/clib/libwin32/c/crtproc.c
                _TEXT                 CODE           6fe4b490  !      000001e3
                CONST                 DATA           6fe4d068  !      00000000
                CONST2                DATA           6fe4d068  !      00000000
                _DATA                 DATA           6fe4dcd8  !      00000000


                        +----------------------+
                        |   Imported Symbols   |
                        +----------------------+

Symbol                              Module
======                              ======

_RtlUnwind@16                       KERNEL32.DLL
_ReadConsoleInputA@16               KERNEL32.DLL
_GetConsoleMode@8                   KERNEL32.DLL
_SetConsoleMode@8                   KERNEL32.DLL
_PeekConsoleInputA@16               KERNEL32.DLL
_WriteConsoleA@20                   KERNEL32.DLL
_SetCurrentDirectoryA@4             KERNEL32.DLL
_FindClose@4                        KERNEL32.DLL
_FindFirstFileA@8                   KERNEL32.DLL
_FindNextFileA@8                    KERNEL32.DLL
_GetLastError@0                     KERNEL32.DLL
_GetCurrentDirectoryA@8             KERNEL32.DLL
_CreateDirectoryA@8                 KERNEL32.DLL
_RemoveDirectoryA@4                 KERNEL32.DLL
_GetCommandLineA@0                  KERNEL32.DLL
_GetCurrentProcessId@0              KERNEL32.DLL
_GetFileType@4                      KERNEL32.DLL
_SetEnvironmentVariableA@8          KERNEL32.DLL
_CreateFileA@28                     KERNEL32.DLL
_CloseHandle@4                      KERNEL32.DLL
_GetDriveTypeA@4                    KERNEL32.DLL
_SetFileAttributesA@8               KERNEL32.DLL
_GetCurrentThreadId@0               KERNEL32.DLL
_MoveFileA@8                        KERNEL32.DLL
_GetFileTime@16                     KERNEL32.DLL
_SystemTimeToFileTime@8             KERNEL32.DLL
_LocalFileTimeToFileTime@8          KERNEL32.DLL
_SetFileTime@16                     KERNEL32.DLL
_SetFilePointer@16                  KERNEL32.DLL
_GetFileInformationByHandle@8       KERNEL32.DLL
_GetFileSize@8                      KERNEL32.DLL
_SetEndOfFile@4                     KERNEL32.DLL
_GetCurrentProcess@0                KERNEL32.DLL
_DuplicateHandle@28                 KERNEL32.DLL
_FlushFileBuffers@4                 KERNEL32.DLL
_SetStdHandle@8                     KERNEL32.DLL
_CreateEventA@16                    KERNEL32.DLL
_GetStdHandle@4                     KERNEL32.DLL
_LockFile@20                        KERNEL32.DLL
_CreatePipe@16                      KERNEL32.DLL
_ReadFile@20                        KERNEL32.DLL
_UnlockFile@20                      KERNEL32.DLL
_DeleteFileA@4                      KERNEL32.DLL
_WriteFile@20                       KERNEL32.DLL
_VirtualFree@12                     KERNEL32.DLL
_VirtualAlloc@16                    KERNEL32.DLL
_InitializeCriticalSection@4        KERNEL32.DLL
_DeleteCriticalSection@4            KERNEL32.DLL
_EnterCriticalSection@4             KERNEL32.DLL
_LeaveCriticalSection@4             KERNEL32.DLL
_GetVersion@0                       KERNEL32.DLL
_GetModuleFileNameW@12              KERNEL32.DLL
_GetModuleFileNameA@12              KERNEL32.DLL
_MultiByteToWideChar@24             KERNEL32.DLL
_WideCharToMultiByte@32             KERNEL32.DLL
_CharLowerA@4                       USER32.DLL
_CharUpperA@4                       USER32.DLL
_GetStringTypeExA@20                KERNEL32.DLL
_GetOEMCP@0                         KERNEL32.DLL
_MessageBoxA@16                     USER32.DLL
_GetFullPathNameA@16                KERNEL32.DLL
_TlsGetValue@4                      KERNEL32.DLL
_SetLastError@4                     KERNEL32.DLL
_TlsAlloc@0                         KERNEL32.DLL
_TlsFree@4                          KERNEL32.DLL
_TlsSetValue@8                      KERNEL32.DLL
_GetCurrentThread@0                 KERNEL32.DLL
_WaitForSingleObject@8              KERNEL32.DLL
_GetExitCodeProcess@8               KERNEL32.DLL
_Sleep@4                            KERNEL32.DLL
_LoadLibraryA@4                     KERNEL32.DLL
_GetProcAddress@8                   KERNEL32.DLL
_SetUnhandledExceptionFilter@4      KERNEL32.DLL
_UnhandledExceptionFilter@4         KERNEL32.DLL
_ExitProcess@4                      KERNEL32.DLL
_SetConsoleCtrlHandler@8            KERNEL32.DLL
_SleepEx@8                          KERNEL32.DLL
_GetEnvironmentStringsA@0           KERNEL32.DLL
_GetCommandLineW@0                  KERNEL32.DLL
_FreeEnvironmentStringsA@4          KERNEL32.DLL
_GetModuleHandleA@4                 KERNEL32.DLL
_FormatMessageA@28                  KERNEL32.DLL
_FormatMessageW@28                  KERNEL32.DLL
_GetTickCount@0                     KERNEL32.DLL
_GetTimeZoneInformation@4           KERNEL32.DLL
_GlobalAlloc@8                      KERNEL32.DLL
_GlobalFree@4                       KERNEL32.DLL
_GetDiskFreeSpaceA@20               KERNEL32.DLL
_GetLocalTime@4                     KERNEL32.DLL
_OpenProcessToken@12                ADVAPI32.DLL
_LookupPrivilegeValueA@12           ADVAPI32.DLL
_AdjustTokenPrivileges@24           ADVAPI32.DLL
_SetLocalTime@4                     KERNEL32.DLL
_FileTimeToLocalFileTime@8          KERNEL32.DLL
_FileTimeToDosDateTime@12           KERNEL32.DLL
_DosDateTimeToFileTime@12           KERNEL32.DLL
_SetCurrentDirectoryW@4             KERNEL32.DLL
_FindFirstFileW@8                   KERNEL32.DLL
_FindNextFileW@8                    KERNEL32.DLL
_GetCurrentDirectoryW@8             KERNEL32.DLL
_CreateDirectoryW@8                 KERNEL32.DLL
_RemoveDirectoryW@4                 KERNEL32.DLL
_SetEnvironmentVariableW@8          KERNEL32.DLL
_GetFileAttributesA@4               KERNEL32.DLL
_CreateFileW@28                     KERNEL32.DLL
_GetDriveTypeW@4                    KERNEL32.DLL
_SetFileAttributesW@8               KERNEL32.DLL
_MoveFileW@8                        KERNEL32.DLL
_DeleteFileW@4                      KERNEL32.DLL
_LocalAlloc@8                       KERNEL32.DLL
_GetACP@0                           KERNEL32.DLL
_GetCPInfo@8                        KERNEL32.DLL
_GetActiveWindow@0                  USER32.DLL
_MessageBoxW@16                     USER32.DLL
_GetFullPathNameW@16                KERNEL32.DLL
_VirtualQuery@12                    KERNEL32.DLL
_CreateThread@24                    KERNEL32.DLL
_ResumeThread@4                     KERNEL32.DLL
_ExitThread@4                       KERNEL32.DLL
_CreateProcessA@40                  KERNEL32.DLL
_GetFileAttributesW@4               KERNEL32.DLL
_CreateProcessW@40                  KERNEL32.DLL


                        +--------------------+
                        |   Libraries Used   |
                        +--------------------+

/mnt/sda5/.user/root/src/openwatcom-1.9/rel2/lib386/nt/kernel32.lib
/mnt/sda5/.user/root/src/openwatcom-1.9/rel2/lib386/nt/user32.lib
/mnt/sda5/.user/root/src/openwatcom-1.9/rel2/lib386/nt/advapi32.lib
/mnt/sda5/.user/root/src/openwatcom-1.9/bld/clib/library/winnt.386/mf_rd/clib3r.lib


                        +-----------------------+
                        |   Linker Statistics   |
                        +-----------------------+

Stack size:  0000 (0.)
Memory size:  0004f5c6 (325062.)
Entry point address: 6fe01030
Link time: 00:00.24
