Open Watcom Linker Version 1.9
Portions Copyright (c) 1985-2002 Sybase, Inc. All Rights Reserved.
Created on:       12/12/16 02:40:23
Executable Image: tcpservw.exe
creating a Windows 16-bit executable


                        +------------+
                        |   Groups   |
                        +------------+

Group                           Address              Size
=====                           =======              ====

DGROUP                          0002:0000            00006680



                        +--------------+
                        |   Segments   |
                        +--------------+

Segment                Class          Group          Address         Size
=======                =====          =====          =======         ====

BEGTEXT                CODE           AUTO           0001:0000       00000007
_TEXT                  CODE           AUTO           0001:0010       00002a99
FAR_DATA               FAR_DATA       AUTO           0002:0000       00000000
_NULL                  BEGDATA        DGROUP         0002:0000       00000010
AFX_NULL               BEGDATA        DGROUP         0002:0010       00000000
CONST                  DATA           DGROUP         0002:0010       00000280
CONST2                 DATA           DGROUP         0002:0290       00000102
_DATA                  DATA           DGROUP         0002:0392       0000015f
XIB                    DATA           DGROUP         0002:04f2       00000000
XI                     DATA           DGROUP         0002:04f2       00000006
XIE                    DATA           DGROUP         0002:04f8       00000000
YIB                    DATA           DGROUP         0002:04f8       00000000
YI                     DATA           DGROUP         0002:04f8       00000000
YIE                    DATA           DGROUP         0002:04f8       00000000
STRINGS                DATA           DGROUP         0002:04f8       00000000
DATA                   DATA           DGROUP         0002:04f8       00000000
BCSD                   DATA           DGROUP         0002:04f8       00000000
_BSS                   BSS            DGROUP         0002:0500       0000117d
STACK                  STACK          DGROUP         0002:1680       00005000


                        +----------------+
                        |   Memory Map   |
                        +----------------+

* = unreferenced symbol
+ = symbol only referenced locally

Address        Symbol
=======        ======

Module: mxutil.obj(/mnt/sda5/.user/root/src/openwatcom-1.9/bld/trap/common/mxutil.c)
0001:0010      GetInPtr_
0001:003c      GetOutPtr_
0001:0068*     GetTotalSize_
0002:0500      _In_Mx_Ptr
0002:0504      _Out_Mx_Ptr
0002:0508      _Out_Mx_Num
0002:0509      _In_Mx_Num
Module: wserver.obj(/mnt/sda5/.user/root/src/openwatcom-1.9/bld/trap/common/wserver.c)
0002:050a      _TrapParm
0002:090a+     _TrapFile
0002:0d0c+     _Instance
0001:00a0      WINMAIN
0001:02f4+     ABOUTDLGPROC
0001:033e+     WINDOWPROC
0001:05ae      ServError_
0001:05de      StartupErr_
0001:05fe      ServMessage_
0001:0600      WantUsage_
0001:0614+     Output_
Module: options.obj(/mnt/sda5/.user/root/src/openwatcom-1.9/bld/trap/tcp/c/options.c)
0001:0630      OPTIONSDLGPROC
Module: servacc.obj(/mnt/sda5/.user/root/src/openwatcom-1.9/bld/trap/common/servacc.c)
0002:0d12      _RWBuff
0001:07d0      Session_
0001:08b2      TrapClientString_
0002:111e      _TrapVersion
Module: servcmd.obj(/mnt/sda5/.user/root/src/openwatcom-1.9/bld/trap/common/servcmd.c)
0001:09be      ParseCommandLine_
Module: servname.obj(/mnt/sda5/.user/root/src/openwatcom-1.9/bld/trap/tcp/c/servname.c)
0002:03b4      _ServUsage
0002:03f4      _ServName
Module: trpsupp.obj(/mnt/sda5/.user/root/src/openwatcom-1.9/bld/dig/c/trpsupp.c)
0001:0b50*     TrapSetFailCallBack_
0001:0b54*     TrapSetAccessCallBack_
0001:0b58*     TrapFailAllRequests_
0001:0b62*     TrapSimpAccess_
0001:0bb8      TrapAccess_
0001:0c04+     ReqFuncProxy_
0002:1130      _ReqFunc
0002:1134      _TrapVer
Module: trpld.obj(/mnt/sda5/.user/root/src/openwatcom-1.9/bld/dig/c/win/trpld.c)
0002:1144+     _SetHardMode
0002:114c+     _HookFunc
0002:1154+     _UnLockInput
0002:115c+     _InfoFunction
0002:1160+     _HardModeRequired
0002:1162+     _toolhelp
0001:0c40      KillTrap_
0001:0ca0      LoadTrap_
0001:0fba*     DoHardModeCheck_
Module: winnoth.obj(/mnt/sda5/.user/root/src/openwatcom-1.9/bld/trap/common/win/winnoth.c)
0001:0fd0      NothingToDo_
Module: packet.obj(/mnt/sda5/.user/root/src/openwatcom-1.9/bld/trap/common/packet.c)
0001:0fe0*     StartPacket_
0001:0fe6*     PutPacket_
0001:0ffe      PutBuffPacket_
0001:1012*     AddPacket_
0001:105c      GetPacket_
0001:1072*     RemovePacket_
0001:10b2      GetPacketBuffPtr_
0001:10bc      MaxPacketSize_
Module: tcplink.obj(/mnt/sda5/.user/root/src/openwatcom-1.9/bld/trap/tcp/c/tcplink.c)
0001:10c0*     Terminate_
0001:115a      RemoteGet_
0001:11a4      RemotePut_
0001:125a      RemoteConnect_
0001:12d8      RemoteDisco_
0001:12f2      RemoteLink_
0001:145c      RemoteUnLink_
Module: /mnt/sda5/.user/root/src/openwatcom-1.9/rel2/lib286/win/clibc.lib(cmodel)
0001:1472      _small_code_
0001:1472*     CodeModelMismatch
Module: /mnt/sda5/.user/root/src/openwatcom-1.9/rel2/lib286/win/clibc.lib(wstart)
0000:0006*     pLocalHeap
0000:0008*     pAtomTable
0000:000a*     pStackTop
0000:000c*     pStackMin
0000:000e*     pStackBot
0001:0003*     ___begtext
0002:0000*     __nullarea
0002:0412*     __curbrk
0002:0414*     __psp
0002:0416*     __osmajor
0002:0417*     __osminor
0002:0418*     __osmode
0002:000a*     __STACKLOW
0002:000c*     __STACKTOP
0002:041a*     __cbyte
0002:041c*     __child
0002:041e*     __no87
0002:0419*     __HShift
0002:0420*     __get_ovl_stack
0002:0424*     __restore_ovl_stack
0002:0428*     ___FPE_handler
0002:042c*     __LpCmdLine
0002:0430*     __LpPgmName
0001:1472      _wstart_
0001:1472*     _cstart_
0001:1552      __exit_
0001:1563      __GETDS
Module: /mnt/sda5/.user/root/src/openwatcom-1.9/rel2/lib286/win/clibc.lib(isalpha.c)
0001:1565      isalpha_
Module: /mnt/sda5/.user/root/src/openwatcom-1.9/rel2/lib286/win/clibc.lib(strnicmp.c)
0001:1574      strnicmp_
Module: /mnt/sda5/.user/root/src/openwatcom-1.9/rel2/lib286/win/clibc.lib(sprintf.c)
0001:15c8      sprintf_
Module: /mnt/sda5/.user/root/src/openwatcom-1.9/rel2/lib286/win/clibc.lib(istable.c)
0002:0290      __IsTable
Module: /mnt/sda5/.user/root/src/openwatcom-1.9/rel2/lib286/win/clibc.lib(exit.c)
0001:15f6+     __null_int23_exit_
0001:15f7      exit_
0001:1620      _exit_
0002:04c4+     ___int23_exit
0002:04c6+     ___FPE_handler_exit
Module: /mnt/sda5/.user/root/src/openwatcom-1.9/rel2/lib286/win/clibc.lib(initrtns.c)
0001:166d      __FInitRtns
0001:1677+     __InitRtns
0001:16d3      __FFiniRtns
0001:16dd      __FiniRtns
Module: /mnt/sda5/.user/root/src/openwatcom-1.9/rel2/lib286/win/clibc.lib(dosseg)
0001:1740      __DOSseg__
Module: /mnt/sda5/.user/root/src/openwatcom-1.9/rel2/lib286/win/clibc.lib(vsprintf.c)
0001:1768      vsprintf_
Module: /mnt/sda5/.user/root/src/openwatcom-1.9/rel2/lib286/win/clibc.lib(winrtns.c)
0002:04c8*     __WindowsIsWindowedHandle
0002:04ca*     __WindowsRemoveWindowedHandle
0002:04cc*     __WindowsNewWindow
0002:04ce*     __WindowsCloseWindow
0002:04d0*     __WindowsSetAbout
0002:04d2*     __WindowsSetAppTitle
0002:04d4*     __WindowsSetConTitle
0002:04d6*     __WindowsDestroyOnClose
0002:04d8*     __WindowsYieldControl
0002:04da*     __WindowsShutDown
0002:04dc*     __WindowsStdin
0002:04de*     __WindowsStdout
0002:04e0*     __WindowsKbhit
0002:04e2*     __WindowsGetch
0002:04e4*     __WindowsGetche
0002:04e6*     __WindowsPutch
0002:04e8      __WindowsExitRtn
Module: /mnt/sda5/.user/root/src/openwatcom-1.9/rel2/lib286/win/clibc.lib(sgdef086)
0002:04f2      __Start_XI
0002:04f8      __End_XI
0002:04f8      __Start_YI
0002:04f8      __End_YI
Module: /mnt/sda5/.user/root/src/openwatcom-1.9/rel2/lib286/win/clibc.lib(prtf.c)
0001:178e      __prtf_
Module: /mnt/sda5/.user/root/src/openwatcom-1.9/rel2/lib286/win/clibc.lib(wctomb.c)
0001:264a      wctomb_
Module: /mnt/sda5/.user/root/src/openwatcom-1.9/rel2/lib286/win/clibc.lib(itoa.c)
0001:2676+     utoa_
0001:26d7      itoa_
Module: /mnt/sda5/.user/root/src/openwatcom-1.9/rel2/lib286/win/clibc.lib(i4m)
0001:26fc*     __I4M
0001:26fc      __U4M
Module: /mnt/sda5/.user/root/src/openwatcom-1.9/rel2/lib286/win/clibc.lib(strupr.c)
0001:2714      strupr_
Module: /mnt/sda5/.user/root/src/openwatcom-1.9/rel2/lib286/win/clibc.lib(noefgfmt.c)
0002:04ea      ___EFG_printf
0002:04ec*     ___EFG_scanf
Module: /mnt/sda5/.user/root/src/openwatcom-1.9/rel2/lib286/win/clibc.lib(mbisdbcs.c)
0002:157a      ___IsDBCS
Module: /mnt/sda5/.user/root/src/openwatcom-1.9/rel2/lib286/win/clibc.lib(mbislead.c)
0001:2748*     _ismbblead_
0002:157c      ___MBCSIsTable
Module: /mnt/sda5/.user/root/src/openwatcom-1.9/rel2/lib286/win/clibc.lib(lltoa.c)
0001:275d      ulltoa_
0001:2844*     lltoa_
Module: /mnt/sda5/.user/root/src/openwatcom-1.9/rel2/lib286/win/clibc.lib(ltoa.c)
0001:28a6      ultoa_
0001:2917*     ltoa_
Module: /mnt/sda5/.user/root/src/openwatcom-1.9/rel2/lib286/win/clibc.lib(alphabet.c)
0002:025e      ___Alphabet
Module: /mnt/sda5/.user/root/src/openwatcom-1.9/rel2/lib286/win/clibc.lib(xmsgwin.c)
0001:2946+     __exit_with_msg_
0001:29a3      __fatal_runtime_error_
Module: /mnt/sda5/.user/root/src/openwatcom-1.9/rel2/lib286/win/clibc.lib(mbinit.c)
0001:29f1      __mbinit_
0002:04ee+     ___MBCodePage
Module: /mnt/sda5/.user/root/src/openwatcom-1.9/rel2/lib286/win/clibc.lib(enterdb.c)
0001:2a8d      __EnterWVIDEO_
0002:04f0+     ___WD_Present


                        +----------------------+
                        |   Imported Symbols   |
                        +----------------------+

Symbol                              Module
======                              ======

GETMESSAGE                          USER
TRANSLATEMESSAGE                    USER
DISPATCHMESSAGE                     USER
LOADICON                            USER
LOADCURSOR                          USER
GETSTOCKOBJECT                      GDI
REGISTERCLASS                       USER
GETMENU                             USER
ENABLEMENUITEM                      USER
DRAWMENUBAR                         USER
CREATEWINDOW                        USER
SHOWWINDOW                          USER
UPDATEWINDOW                        USER
SENDMESSAGE                         USER
ENDDIALOG                           USER
MAKEPROCINSTANCE                    KERNEL
DIALOGBOX                           USER
FREEPROCINSTANCE                    KERNEL
POSTQUITMESSAGE                     USER
DEFWINDOWPROC                       USER
SETCURSOR                           USER
PEEKMESSAGE                         USER
MESSAGEBOX                          USER
GETDLGITEMTEXT                      USER
SETDLGITEMTEXT                      USER
SENDDLGITEMMESSAGE                  USER
FREELIBRARY                         KERNEL
LOADLIBRARY                         KERNEL
SETERRORMODE                        KERNEL
GETPROCADDRESS                      KERNEL
YIELD                               KERNEL
SETSOCKOPT                          WINSOCK
CLOSESOCKET                         WINSOCK
RECV                                WINSOCK
SEND                                WINSOCK
GETPROTOBYNAME                      WINSOCK
SELECT                              WINSOCK
ACCEPT                              WINSOCK
WSASTARTUP                          WINSOCK
SOCKET                              WINSOCK
GETSERVBYNAME                       WINSOCK
BIND                                WINSOCK
HTONS                               WINSOCK
GETSOCKNAME                         WINSOCK
NTOHS                               WINSOCK
LISTEN                              WINSOCK
WSACLEANUP                          WINSOCK
INITTASK                            KERNEL
GETMODULEFILENAME                   KERNEL
INITAPP                             USER
WAITEVENT                           KERNEL
__AHSHIFT                           KERNEL
GETVERSION                          KERNEL
ISDBCSLEADBYTE                      KERNEL
GETKBCODEPAGE                       KEYBOARD


                        +--------------------+
                        |   Libraries Used   |
                        +--------------------+

/mnt/sda5/.user/root/src/openwatcom-1.9/rel2/lib286/win/windows.lib
/mnt/sda5/.user/root/src/openwatcom-1.9/rel2/lib286/win/clibc.lib
/mnt/sda5/.user/root/src/openwatcom-1.9/rel2/lib286/win/winsock.lib


                        +-----------------------+
                        |   Linker Statistics   |
                        +-----------------------+

Stack size:  5000 (20480.)
Memory size:  9129 (37161.)
Entry point address: 0001:1472
Link time: 00:00.00
