Open Watcom Linker Version 1.9
Portions Copyright (c) 1985-2002 Sybase, Inc. All Rights Reserved.
Created on:       12/12/16 02:42:56
Executable Image: whc.exe
creating a Linux x86 executable


                        +------------+
                        |   Groups   |
                        +------------+

Group                           Address              Size
=====                           =======              ====

DGROUP                          0805f000             000050ac



                        +--------------+
                        |   Segments   |
                        +--------------+

Segment                Class          Group          Address         Size
=======                =====          =====          =======         ====

BEGTEXT                CODE           AUTO           08048100        00000007
_TEXT                  CODE           AUTO           08048110        00016229
_NULL                  BEGDATA        DGROUP         0805f000        00000004
_AFTERNULL             BEGDATA        DGROUP         0805f004        00000000
CONST                  DATA           DGROUP         0805f004        00001050
CONST2                 DATA           DGROUP         08060060        0000265c
_DATA                  DATA           DGROUP         080626c0        000018e4
XIB                    DATA           DGROUP         08063fa4        00000000
XI                     DATA           DGROUP         08063fa4        00000018
XIE                    DATA           DGROUP         08063fbc        00000000
YIB                    DATA           DGROUP         08063fbc        00000000
YI                     DATA           DGROUP         08063fbc        0000000c
YIE                    DATA           DGROUP         08063fc8        00000000
TIB                    DATA           DGROUP         08063fc8        00000000
TI                     DATA           DGROUP         08063fc8        00000000
TIE                    DATA           DGROUP         08063fc8        00000000
DATA                   DATA           DGROUP         08063fc8        00000000
_BSS                   BSS            DGROUP         08064000        000000ac


                        +----------------+
                        |   Memory Map   |
                        +----------------+

* = unreferenced symbol
+ = symbol only referenced locally

Address        Symbol
=======        ======

Module: whc.obj(/mnt/sda5/.user/root/src/openwatcom-1.9/bld/helpcomp/cpp/whc.cpp)
080488a0       W?$ct:InFile$n()_
080488b0       W?$ct:HFContext$n(rnx$0$)_
080488c0       W?size$:HFContext$n()ul
080488d0       W?$ct:HFSystem$n(rnx$0$)_
080488e0       W?size$:HFSystem$n()ul
080488f0       W?$ct:HFFont$n(rnx$0$)_
08048900       W?$ct:HFCtxomap$n(rnx$0$)_
08048910       W?$ct:HFTtlbtree$n(rnx$0$)_
08048920       W?size$:HFTtlbtree$n()ul
08048930       W?dump$:HFTtlbtree$n(pn$OutFile$$)i
08048940+      W?$ct:HFBitmaps$n(rnx$0$)_
08048950+      W?$ct:HPJReader$n(rnx$0$)_
08048960       W?$ct:HFKwbtree$n(rnx$0$)_
08048970       W?$ct:RTFparser$n(rnx$0$)_
08048980+      W?$dt:HFSDirectory$n()_
080601f0       W?$Wvf0Aok:InFile$$nx[]pn()v
08060200       W?$Wvf0Do0:HFContext$$nx[]pn()v
08060210       W?$Wvf0Co0:HFSystem$$nx[]pn()v
08060220       W?$Wvf0Ao0:HFFont$$nx[]pn()v
08060230       W?$Wvf0Do0:HFCtxomap$$nx[]pn()v
08060240       W?$Wvf0Eo0:HFTtlbtree$$nx[]pn()v
08060250       W?$Wvf0Do0:HFKwbtree$$nx[]pn()v
08060260       W?$Wcm013$nx[]uc
08060270+      W?$Wcm0214$nx[]uc
08060280       W?$Wcm012$nx[]uc
08060290       W?$Wts0An$InFile$$$nx[]uc
080602b0+      W?$Wts0Gn$HFSDirectory$$$nx[]uc
080602d0       W?$Wts0An$HFFont$$$nx[]uc
080602f0       W?$Wts0Dn$HFContext$$$nx[]uc
08060310       W?$Wts0Cn$HFSystem$$$nx[]uc
08060330       W?$Wts0Dn$HFCtxomap$$$nx[]uc
08060350       W?$Wts0En$HFTtlbtree$$$nx[]uc
08060370       W?$Wts0Dn$HFKwbtree$$$nx[]uc
08060390+      W?$Wts0Dn$HFBitmaps$$$nx[]uc
080603b0       W?$Wts0Dn$RTFparser$$$nx[]uc
080603d0+      W?$Wts0Dn$HPJReader$$$nx[]uc
080626c0       W?$Wti0E$HCException$$$n[]uc
080626d3+      W?$Wti0C$HPJReader$$$n[]uc
080626e4       W?$Wti0C$RTFparser$$$n[]uc
080626f5+      W?$Wti0C$HFBitmaps$$$n[]uc
08062706       W?$Wti0C$HFKwbtree$$$n[]uc
08062717       W?$Wti0D$HFTtlbtree$$$n[]uc
08062729       W?$Wti0C$HFCtxomap$$$n[]uc
0806273a       W?$Wti0B$HFSystem$$$n[]uc
0806274a       W?$Wti0C$HFContext$$$n[]uc
0806275b       W?$Wti09$HFFont$$$n[]uc
08062769+      W?$Wti0F$HFSDirectory$$$n[]uc
080489f0       W?$dt:InFile$n()_
08048a90       W?$ct:HCException$n(rnx$0$)_
08048110       main_
080603f0       W?$Wts0Fn$HCException$$$nx[]uc
0806277d       W?$Wti09$InFile$$$n[]uc
Module: hpjread.obj(/mnt/sda5/.user/root/src/openwatcom-1.9/bld/helpcomp/cpp/hpjread.cpp)
0804a400+      W?$ct:HPJScanner$n(rnx$0$)_
08048aa0       W?$ct:HPJScanner$n(pn$InFile$$)_
08048ae0+      W?$dt:HPJScanner$n()_
08048b00*      W?open$:HPJScanner$n(pnxa)i
08048b40+      W?getLine$:HPJScanner$n()i
08048c40+      W?getArg$:HPJScanner$n(i)pna
08048cb0+      W?tokLine$:HPJScanner$n()pna
08048d30+      W?endTok$:HPJScanner$n()pna
08048d50       W?$ct:HPJReader$n(pn$HFSDirectory$$pn$Pointers$$pn$InFile$$)_
08048e10       W?$dt:HPJReader$n()_
08048ef0+      W?firstFile$:HPJReader$n()pn$InFile$$
08048f00+      W?nextFile$:HPJReader$n()pn$InFile$$
08049020       W?parseFile$:HPJReader$n()v
080493e0+      W?skipSection$:HPJReader$n()i
08049400+      W?handleBaggage$:HPJReader$n()i
08049460+      W?handleOptions$:HPJReader$n()i
08049850+      W?handleConfig$:HPJReader$n()i
080498f0+      W?handleFiles$:HPJReader$n()i
0806050c       W?HpjExt$n[]xa
080606e0       W?$Wts0Wn$ImageNotSupported$:HFBitmaps$$$nx[]uc
0806279b+      W?$Wti0D$HPJScanner$$$n[]uc
080627ad       W?$Wti0V$ImageNotSupported$:HFBitmaps$$$n[]uc
0804a410       W?$ct:ImageNotSupported$:HFBitmaps$n(rnx$0:1$)_
08049990+      W?handleBitmaps$:HPJReader$n()i
08049aa0+      W?handleWindows$:HPJReader$n()i
08049f80+      W?nextWinParam$:HPJReader$n()pna
08049ff0+      W?handleMap$:HPJReader$n()i
0804a100+      W?includeMapFile$:HPJReader$n(pna)v
08060700+      W?$Wts0En$HPJScanner$$$nx[]uc
08064040+      W?_topFile$:HPJReader$npn$StrNode$:1$
08064044+      W?_curFile$:HPJReader$npn$StrNode$:1$
08064048+      W?_firstDir$:HPJReader$npn$StrNode$:1$
0806404c+      W?_startDir$:HPJReader$npnxa
Module: hlpdir.obj(/mnt/sda5/.user/root/src/openwatcom-1.9/bld/helpcomp/cpp/hlpdir.cpp)
0804a780       W?$dt:BtreeData$n()_
0804a790+      W?size$:HFSkey$n()ul
0804a7b0+      W?size$:HFSnode$n()ul
0804a7d0+      W?myKey$:HFSkey$n()pn$BtreeData$$
0804a420+      W?dump$:HFSkey$n(pn$OutFile$$)i
0804a450+      W?lessThan$:HFSkey$n(pn$BtreeData$$)i
0804a470+      W?dump$:HFSnode$n(pn$OutFile$$)i
0804a4d0       W?$ct:HFSDirectory$n(pnxa)_
0804a550       W?addFile$:HFSDirectory$n(pn$Dumpable$$pnxa)pn$2$
0804a870+      W?$dt:HFSnode$n()_
08060830       W?$Wvf0Bok:OutFile$$nx[]pn()v
08060840+      W?$Wvf0Aoc:HFSkey$$nx[]pn()v
08060860+      W?$Wvf0Boc:HFSnode$$nx[]pn()v
08060880+      W?$Wts0Bn$HFSnode$$$nx[]uc
080608a0+      W?$Wts0An$HFSkey$$$nx[]uc
080627d1       W?$Wti0A$OutFile$$$n[]uc
080627e0+      W?$Wti09$HFSkey$$$n[]uc
0804a910+      W?$dt:HFSkey$n()_
0804a9a0       W?$dt:OutFile$n()_
0804a610       W?dump$:HFSDirectory$n()v
080608c0       W?$Wts0Bn$OutFile$$$nx[]uc
0806079c+      W?_dirMagic$:HFSDirectory$n[]xa
080627ee+      W?$Wti0A$HFSnode$$$n[]uc
Module: btrees.obj(/mnt/sda5/.user/root/src/openwatcom-1.9/bld/helpcomp/cpp/btrees.cpp)
0804b4f0       W?$dt:Dumpable$n()_
0804b580+      W?$ct:Btree$n(rnx$0$)_
08060970+      W?$Wvf0Doc:BtreeData$$nx[]pn()v
08060990+      W?$Wvf09o0:Btree$$nx[]pn()v
080609a0       W?$Wts0Cn$Dumpable$$$nx[]uc
0806280a+      W?$Wti08$Btree$$$n[]uc
0804aa40       W?$ct:BtreeData$n()_
0804aa60+      W?insertSelf$:BtreeData$n(pn$BtreePage$$)v
0804aad0+      W?seekNext$:BtreeData$n(pn$BtreePage$$)pn$2$
0804ab00+      W?$ct:BtreePage$n(ulpn$0$pn$0$)_
0804ab40+      W?$dt:BtreePage$n()_
0804ab80+      W?dump$:BtreePage$n(pn$OutFile$$)i
0804acd0+      W?split$:BtreePage$n()i
0804af10+      W?needSplit$:BtreePage$n(ul)i
0804af50       W?$ct:Btree$n(pnxaul)_
0804afb0       W?$dt:Btree$n()_
0804b050       W?insert$:Btree$n(pn$BtreeData$$)v
0804b160+      W?killPage$:Btree$n(pn$BtreePage$$)v
0804b1f0       W?size$:Btree$n()ul
0804b220       W?dump$:Btree$n(pn$OutFile$$)i
0804b2d0+      W?labelPages$:Btree$n(pn$BtreePage$$)v
0804b320+      W?dumpPage$:Btree$n(pn$OutFile$$pn$BtreePage$$)v
0804b370       W?findNode$:Btree$n(rn$BtreeData$$)pn$2$
0804b3d0       W?$ct:BtreeIter$n(rn$Btree$$)_
0804b3e0       W?init$:BtreeIter$n()v
0804b410+      W?goPrev$:BtreeIter$n()v
0804b410*      W?$oh:BtreeIter$n(i)v
0804b440+      W?goNext$:BtreeIter$n()v
0804b440       W?$og:BtreeIter$n(i)v
0804b470*      W?$oh:BtreeIter$n()rn$0$
0804b480       W?$og:BtreeIter$n()rn$0$
0804b490       W?pageEntries$:BtreeIter$n()us
0804b4b0       W?thisPage$:BtreeIter$n()us
0804b4d0       W?nextPage$:BtreeIter$n()v
080609c0+      W?$Wts09n$Btree$$$nx[]uc
08062818       W?$Wti0B$Dumpable$$$n[]uc
Module: myfile.obj(/mnt/sda5/.user/root/src/openwatcom-1.9/bld/helpcomp/cpp/myfile.cpp)
0804b9d0+      W?$ct:File$n(rnx$0$)_
0804b590       W?$ct:File$n(pnxauc)_
0804b650       W?$ct:File$n()_
0804b680+      W?open$:File$n(pnxauc)i
0804b780       W?$dt:File$n()_
0804b830       W?open$:File$n()i
0804b8a0       W?close$:File$n()v
0804b8c0       W?$ct:InFile$n(pnxai)_
0804b930       W?open$:InFile$n(pnxai)i
08060a50+      W?$Wvf08ok:File$$nx[]pn()v
08060a60+      W?$Wts08n$File$$$nx[]uc
0804b960       W?Hash$n(pnxa)ul
08060a14*      W?_isOpen$:File$nxuc
08062850+      W?$Wti07$File$$$n[]uc
Module: baggage.obj(/mnt/sda5/.user/root/src/openwatcom-1.9/bld/helpcomp/cpp/baggage.cpp)
0804bbc0+      W?size$:Baggage$n()ul
0804bbd0+      W?$Wvt0P.@dt:Baggage$o4$:0$dtn()_$:File$n()pnv
08060b60+      W?$Wvf0Bo0:Baggage$$nx[]pn()v
08060b70+      W?$Wvf0Boo:Baggage$$nx[]pn()v
0806285c+      W?$Wti0A$Baggage$$$n[]uc
0804bc80+      W?$dt:Baggage$n()_
0804b9e0       W?$ct:Baggage$n(pn$HFSDirectory$$pnxa)_
0804bb30+      W?dump$:Baggage$n(pn$OutFile$$)i
08060b80+      W?$Wts0Bn$Baggage$$$nx[]uc
Module: system.obj(/mnt/sda5/.user/root/src/openwatcom-1.9/bld/helpcomp/cpp/system.cpp)
0804c480+      W?size$:SystemRec$n()ul
0804c490+      W?$ct:SystemText$n(rnx$0$)_
0804bd20       W?$ct:SystemText$n(uspna)_
0804bd80+      W?$dt:SystemText$n()_
0804be20+      W?dump$:SystemText$n(pn$OutFile$$)i
0804be70+      W?$ct:SystemNum$n(usul)_
0804be90+      W?dump$:SystemNum$n(pn$OutFile$$)i
0804bef0       W?$ct:SystemWin$n(uspnxapnxapnxausususususulul)_
0804bf80+      W?dump$:SystemWin$n(pn$OutFile$$)i
0804c070       W?$ct:HFSystem$n(pn$HFSDirectory$$pn$HFContext$$)_
0804c160       W?$dt:HFSystem$n()_
0804c230       W?setCompress$:HFSystem$n(i)v
0804c250       W?isCompressed$:HFSystem$n()i
08060cf0+      W?$Wvf0Eo0:SystemText$$nx[]pn()v
08060d00+      W?$Wvf0Do0:SystemNum$$nx[]pn()v
08060d10+      W?$Wvf0Do0:SystemWin$$nx[]pn()v
08060d20+      W?$Wts0En$SystemText$$$nx[]uc
08060d40+      W?$Wts0Dn$SystemWin$$$nx[]uc
0806286b+      W?$Wti0C$SystemNum$$$n[]uc
0806287c+      W?$Wti0C$SystemWin$$$n[]uc
0806288d+      W?$Wti0D$SystemText$$$n[]uc
0804c4b0+      W?$dt:SystemWin$n()_
0804c550+      W?$dt:SystemNum$n()_
0804c260       W?setContents$:HFSystem$n(ul)v
0804c270       W?addRecord$:HFSystem$n(pn$SystemRec$$)v
0804c300       W?winNumberOf$:HFSystem$n(pna)i
0804c360       W?dump$:HFSystem$n(pn$OutFile$$)i
08060d60+      W?$Wts0Dn$SystemNum$$$nx[]uc
08060c4c       W?NoSuchWin$:HFSystem$nxi
Module: font.obj(/mnt/sda5/.user/root/src/openwatcom-1.9/bld/helpcomp/cpp/font.cpp)
0804c5f0+      W?$ct:FontName$n(pnxasusuc)_
0804c630+      W?$dt:FontName$n()_
0804c650+      W?dump$:FontName$n(pn$OutFile$$)i
0804c670+      W?$ct:FontDesc$n(ucucucusul)_
0804c6a0+      W?$ct:FontDesc$n(rn$0$)_
0804c6e0+      W?dump$:FontDesc$n(pn$OutFile$$)i
0804c780       W?$ct:HFFont$n(pn$HFSDirectory$$)_
0804c920       W?$dt:HFFont$n()_
0804ca40       W?addFont$:HFFont$n(pnxaucs)v
0804cb20       W?clearFonts$:HFFont$n()v
0804cb40       W?setFont$:HFFont$n(us)v
0804cba0       W?selectFont$:HFFont$n(sipnxa)us
0804cc90       W?getAttribs$:HFFont$n(us)uc
0804ccc0+      W?findDesc$:HFFont$n(pn$FontDesc$$)us
0804cd30       W?setAttribs$:HFFont$n(uc)us
0804cda0       W?clearAttribs$:HFFont$n(uc)us
0804ce10       W?newSize$:HFFont$n(uc)us
0804ce80       W?newSupPos$:HFFont$n(uc)us
0804cef0       W?newSubPos$:HFFont$n(uc)us
0804cf60       W?push$:HFFont$n()v
0804cfa0       W?pop$:HFFont$n()us
0804d030       W?size$:HFFont$n()ul
0804d050       W?dump$:HFFont$n(pn$OutFile$$)i
Module: context.obj(/mnt/sda5/.user/root/src/openwatcom-1.9/bld/helpcomp/cpp/context.cpp)
0804d6c0+      W?size$:ContextKey$n()ul
0804d6d0+      W?size$:ContextRec$n()ul
0804d110+      W?myKey$:ContextKey$n()pn$BtreeData$$
0804d140+      W?lessThan$:ContextKey$n(pn$BtreeData$$)i
0804d150+      W?dump$:ContextKey$n(pn$OutFile$$)i
0804d170+      W?dump$:ContextRec$n(pn$OutFile$$)i
0804d1b0       W?$ct:HFContext$n(pn$HFSDirectory$$)_
08061050+      W?$Wvf0Eoc:ContextKey$$nx[]pn()v
08061070+      W?$Wvf0Eoc:ContextRec$$nx[]pn()v
08061090+      W?$Wts0En$ContextKey$$$nx[]uc
0806289f+      W?$Wti0D$ContextRec$$$n[]uc
080628b1+      W?$Wti0D$ContextKey$$$n[]uc
0804d6f0+      W?$dt:ContextRec$n()_
0804d790+      W?$dt:ContextKey$n()_
0804d210       W?$dt:HFContext$n()_
0804d310       W?addOffset$:HFContext$n(ulul)v
0804d420       W?getOffset$:HFContext$n(ul)ul
0804d4b0       W?recordContext$:HFContext$n(pnxa)v
0804d690       W?dump$:HFContext$n(pn$OutFile$$)i
080610b0+      W?$Wts0En$ContextRec$$$nx[]uc
08060f44+      W?_conMagic$:HFContext$n[]xa
08060f5c       W?_badValue$:HFContext$nxul
Module: ctxomap.obj(/mnt/sda5/.user/root/src/openwatcom-1.9/bld/helpcomp/cpp/ctxomap.cpp)
0804daa0+      W?size$:CmapRec$:HFCtxomap$n()ul
0804d820+      W?$ct:CmapRec$:HFCtxomap$n(ulul)_
0804d840+      W?dump$:CmapRec$:HFCtxomap$n(pn$OutFile$$)i
0804d880       W?$ct:HFCtxomap$n(pn$HFSDirectory$$pn$HFContext$$)_
0804d8c0       W?$dt:HFCtxomap$n()_
0804d990       W?addMapRec$:HFCtxomap$n(ulul)v
08061160+      W?$Wvf0Mo0:CmapRec$:HFCtxomap$$nx[]pn()v
080628e0+      W?$Wti0L$CmapRec$:HFCtxomap$$$n[]uc
0804dac0+      W?$dt:CmapRec$:HFCtxomap$n()_
0804d9e0       W?size$:HFCtxomap$n()ul
0804da60       W?dump$:HFCtxomap$n(pn$OutFile$$)i
08061170+      W?$Wts0Mn$CmapRec$:HFCtxomap$$$nx[]uc
Module: ttlbtree.obj(/mnt/sda5/.user/root/src/openwatcom-1.9/bld/helpcomp/cpp/ttlbtree.cpp)
0804deb0+      W?$ct:TTLRec$n(rnx$0$)_
0804db50+      W?myKey$:TTLKey$n()pn$BtreeData$$
0804db80+      W?lessThan$:TTLKey$n(pn$BtreeData$$)i
0804db90+      W?size$:TTLKey$n()ul
0804dba0+      W?dump$:TTLKey$n(pn$OutFile$$)i
0804dbc0+      W?$ct:TTLRec$n(ulpnxa)_
0804dc50+      W?$dt:TTLRec$n()_
08061290+      W?$Wvf0Aoc:TTLKey$$nx[]pn()v
080612b0+      W?$Wvf0Aoc:TTLRec$$nx[]pn()v
080612d0+      W?$Wts0An$TTLRec$$$nx[]uc
080628fa+      W?$Wti09$TTLKey$$$n[]uc
08062908+      W?$Wti09$TTLRec$$$n[]uc
0804dee0+      W?$dt:TTLKey$n()_
0804dd00+      W?size$:TTLRec$n()ul
0804dd20+      W?dump$:TTLRec$n(pn$OutFile$$)i
0804dd70       W?$ct:HFTtlbtree$n(pn$HFSDirectory$$)_
0804ddc0       W?$dt:HFTtlbtree$n()_
0804de70       W?addTitle$:HFTtlbtree$n(ulpnxa)v
080612f0+      W?$Wts0An$TTLKey$$$nx[]uc
080611fc+      W?_titleMagic$:HFTtlbtree$n[]xa
Module: keywords.obj(/mnt/sda5/.user/root/src/openwatcom-1.9/bld/helpcomp/cpp/keywords.cpp)
0804e8c0+      W?$ct:KWKey$n(rnx$0$)_
0804e8d0+      W?$ct:KWRec$n(rnx$0$)_
0804df70+      W?$ct:KWKey$n(pnxa)_
0804e000+      W?$dt:KWKey$n()_
0804e0a0+      W?myKey$:KWKey$n()pn$BtreeData$$
0804e0c0+      W?lessThan$:KWKey$n(pn$BtreeData$$)i
0804e140+      W?size$:KWKey$n()ul
0804e160+      W?dump$:KWKey$n(pn$OutFile$$)i
0804e190+      W?$ct:KWRec$n(pnxaul)_
0804e200+      W?$dt:KWRec$n()_
0804e2c0+      W?size$:KWRec$n()ul
0804e2e0+      W?dump$:KWRec$n(pn$OutFile$$)i
0804e340+      W?addOffset$:KWRec$n(ul)v
0804e3c0       W?$ct:HFKwbtree$n(pn$HFSDirectory$$)_
0804e4c0       W?$dt:HFKwbtree$n()_
0804e590       W?size$:HFKwbtree$n()ul
0804e5e0       W?dump$:HFKwbtree$n(pn$OutFile$$)i
0804e5f0       W?addKW$:HFKwbtree$n(pnxaul)v
0804e6b0+      W?$ct:HFKwdata$n(pn$HFSDirectory$$pn$HFKwbtree$$)_
0804e6f0+      W?size$:HFKwdata$n()ul
0804e730+      W?dump$:HFKwdata$n(pn$OutFile$$)i
080614d0+      W?$Wvf09oc:KWKey$$nx[]pn()v
080614f0+      W?$Wvf09oc:KWRec$$nx[]pn()v
08061510+      W?$Wvf0Co0:HFKwdata$$nx[]pn()v
08061520+      W?$Wvf0Bo0:HFKwmap$$nx[]pn()v
08061530+      W?$Wts09n$KWKey$$$nx[]uc
08061550+      W?$Wts09n$KWRec$$$nx[]uc
08061570+      W?$Wts0Bn$HFKwmap$$$nx[]uc
08062916+      W?$Wti0B$HFKwdata$$$n[]uc
08062926+      W?$Wti0A$HFKwmap$$$n[]uc
08062935+      W?$Wti08$KWRec$$$n[]uc
08062942+      W?$Wti08$KWKey$$$n[]uc
0804e8f0+      W?$dt:HFKwmap$n()_
0804e980+      W?$dt:HFKwdata$n()_
0804e790+      W?$ct:HFKwmap$n(pn$HFSDirectory$$pn$HFKwbtree$$)_
0804e7d0+      W?size$:HFKwmap$n()ul
0804e810+      W?dump$:HFKwmap$n(pn$OutFile$$)i
08061590+      W?$Wts0Cn$HFKwdata$$$nx[]uc
080613f8+      W?_keyMagic$:HFKwbtree$n[]xa
Module: scanning.obj(/mnt/sda5/.user/root/src/openwatcom-1.9/bld/helpcomp/cpp/scanning.cpp)
0804ea10+      W?$ct:Token$n()_
0804ea30       W?$ct:Scanner$n(pn$InFile$$)_
0804eb70       W?$dt:Scanner$n()_
0804ec60+      W?putback$:Scanner$n(i)v
0804ec80+      W?handleSlash$:Scanner$n(pn$Token$$)$TokenTypes$$
0804eea0+      W?isSpecial$:Scanner$n(i)i
0804eed0       W?isFootnoteChar$:Scanner$n(i)i
0804ef00+      W?pullCommand$:Scanner$n(pn$Token$$)v
0804f1c0+      W?pullText$:Scanner$n(pn$Token$$)v
0804f450+      W?pullHex$:Scanner$n(pn$Token$$)v
0804f570+      W?getToken$:Scanner$n(pn$Token$$)v
0804f800       W?$dt:Buffer$::1nucn()_
0804f7c0       W?next$:Scanner$n()pn$Token$$
Module: hcerrors.obj(/mnt/sda5/.user/root/src/openwatcom-1.9/bld/helpcomp/cpp/hcerrors.cpp)
0804f810+      W?ErrorPrint$n(pn$__iobuf$$pnxapnpna)v
0804f8a0       W?HCError$n(ie)v
0804f8f0       W?HCWarning$n(ie)v
0804f940       W?SetQuiet$n(i)v
0804f960       W?HCStartFile$n(pnxa)v
0804f980       W?HCTick$n()v
0804f9c0       W?HCDoneTick$n()v
0804f9e0       W?HCStartOutput$n()v
0804fac0       W?$ct:HCException$n()_
08061690+      W?$Wth0Hnrn$HCException$$$nx[]uc
0804fad0       W?$dt:HCException$n()_
0804fa00       W?HCStartPhrase$n()v
0804fa20       W?HCPhraseLoop$n(i)v
0804fa40*      HCMemerr_
Module: mem.obj(/mnt/sda5/.user/root/src/openwatcom-1.9/bld/helpcomp/cpp/mem.cpp)
0804fae0       W?$nwn(ui)pnv
0804faf0       W?renew$n(pnvui)pnv
0804fb00       W?$dln(pnv)v
0804fb10       W?$ct:Pool$n(uiui)_
0804fb80       W?$dt:Pool$n()_
0804fbb0       W?get$:Pool$n()pnv
0804fc20       W?release$:Pool$n(pnv)v
080616a4       W?BLOCK_SIZE$:Pool$nxui
Module: trmem.obj(/mnt/sda5/.user/root/src/openwatcom-1.9/bld/trmem/trmem.c)
08050120*      _trmem_open_
08050180*      _trmem_validate_all_
080501c0*      _trmem_close_
08050240*      _trmem_set_min_alloc_
08050250+      _trmem_alloc_
08050350*      _trmem_validate_
08050390+      _trmem_free_
080506a0*      _trmem_realloc_
080506c0*      _trmem_expand_
080506e0*      _trmem_strdup_
08050720*      _trmem_chk_range_
080507b0+      _trmem_prt_usage_
080507d0*      _trmem_prt_list_
08050840*      _trmem_msize_
08050860*      _trmem_get_current_usage_
08050870*      _trmem_get_peak_usage_
Module: topic.obj(/mnt/sda5/.user/root/src/openwatcom-1.9/bld/helpcomp/cpp/topic.cpp)
08052c20+      W?$ct:HFTopic$n(rnx$0$)_
08050880+      W?$ct:TopicLink$n(ul)_
080508d0+      W?$ct:GenericNode$n(ul)_
080508f0+      W?dumpTo$:GenericNode$n(pn$TopicLink$$)v
08050920+      W?$ct:TopicHeader$n(ul)_
08050960+      W?dumpTo$:TopicHeader$n(pn$TopicLink$$)v
08050990+      W?$ct:PageHeader$n()_
080509a0+      W?$ct:TextHeader$n()_
08050a60+      W?$dt:TextHeader$n()_
08050af0+      W?reset$:TextHeader$n()v
08050ce0+      W?addAttr$:TextHeader$n($FontFlags$$ulpnxai)i
08050e00+      W?appendAttr$:TextHeader$n(i$FontFlags$$ulpnxai)i
08050f40+      W?chgAttr$:TextHeader$n(i$FontFlags$$ulpnxai)v
08051040+      W?attrData$:TextHeader$n(i)ul
08051070+      W?dumpTo$:TextHeader$n(pn$TopicLink$$)v
08051370+      W?$ct:TextHolder$n()_
08051400+      W?dumpTo$:TextHolder$n(pn$TopicLink$$)v
08051440       W?$ct:HFTopic$n(pn$HFSDirectory$$pn$HFPhrases$$)_
08051670+      W?$dt:HFTopic$n()_
080518c0+      W?size$:HFTopic$n()ul
080518f0+      W?dump$:HFTopic$n(pn$OutFile$$)i
08051b10       W?startNonScroll$:HFTopic$n()v
08051b20       W?startScroll$:HFTopic$n()v
08051b50       W?addBrowse$:HFTopic$n(pnxa)v
08051ba0+      W?recordBrowse$:HFTopic$n(pn$TopicLink$$)v
08051c40+      W?dumpBrowse$:HFTopic$n()v
08051d40       W?newNode$:HFTopic$n(i)v
080523e0       W?addText$:HFTopic$n(pnxai)v
080524c0+      W?addZero$:HFTopic$n(i)v
080525c0       W?presentSize$:HFTopic$n()ul
080525f0       W?addAttr$:HFTopic$n($FontFlags$$ul)i
08052660*      W?addAttr$:HFTopic$n($FontFlags$$pnxaus)i
080526d0*      W?addAttr$:HFTopic$n($FontFlags$$pnxausul)i
08052750       W?appendAttr$:HFTopic$n(i$FontFlags$$ul)i
080527b0       W?appendAttr$:HFTopic$n(i$FontFlags$$pnxaus)i
08052820       W?appendAttr$:HFTopic$n(i$FontFlags$$pnxausul)i
08052890       W?chgAttr$:HFTopic$n(i$FontFlags$$ul)v
080528f0       W?chgAttr$:HFTopic$n(i$FontFlags$$pnxaus)v
08052950       W?chgAttr$:HFTopic$n(i$FontFlags$$pnxausul)v
080529a0       W?attrData$:HFTopic$n(i)ul
080529d0       W?setTab$:HFTopic$n(i$TabTypes$$)i
080529e0*      W?setTab$:TextHeader$n(iuc)i
08052a90       W?setPar$:HFTopic$n($ParFlags$$i)i
08052c40       W?$dt:CompOutFile$n()_
08052ce0+      W?resize$:Buffer$::1nucn(i)pnv
08052d20       W?$dt:Buffer$::1nsn()_
08052d30       W?$dt:Buffer$::1nan()_
08052d40       W?resize$:Buffer$::1nan(i)pnv
08052d80+      W?$dt:Buffer$::1nusn()_
08052d90+      W?resize$:Buffer$::1nusn(i)pnv
08061a20       W?$Wvf0Fog:CompOutFile$$nx[]pn()v
08061a30+      W?$Wvf0Bo0:HFTopic$$nx[]pn()v
08061a40       W?$Wcm015$nx[]uc
08061a50+      W?$Wts0Bn$HFTopic$$$nx[]uc
08062a44       W?$Wti0E$CompOutFile$$$n[]uc
08062a57+      W?$Wti0A$HFTopic$$$n[]uc
08052dd0+      W?$dt:Buffer$::1n$TextAttr$$n()_
08052de0+      W?resize$:Buffer$::1n$TextAttr$$n(i)pnv
08052aa0*      W?setPar$:TextHeader$n($ParFlags$$i)i
08052b90       W?unsetPar$:HFTopic$n($ParFlags$$)v
08052ba0*      W?unsetPar$:TextHeader$n($ParFlags$$)v
08052bf0       W?clearPar$:HFTopic$n()v
08052c00*      W?clearPar$:TextHeader$n()v
08061a70       W?$Wts0Fn$CompOutFile$$$nx[]uc
08061828+      W?_parBits$:TextHeader$n[]xul
08061858+      W?_attrBits$:TextHeader$n[]xuc
0806186c+      W?_attrSizes$:TextHeader$n[]xi
Module: phrase.obj(/mnt/sda5/.user/root/src/openwatcom-1.9/bld/helpcomp/cpp/phrase.cpp)
08054bb0+      W?$ct:HFPhrases$n(rnx$0$)_
08054bc0       W?$ct:CompWriter$n(rnx$0$)_
08054bd0+      W?$dl:Phrase$n(pnvui)v
08052e20+      W?$ct:Phrase$n()_
08052e40+      W?$ct:Phrase$n(rnx$0$)_
08052e90*      W?$aa:Phrase$n(rnx$0$)rn$0$
08052ef0+      W?$dt:Phrase$n()_
08052f00+      W?$re:Phrase$n(rnx$0$)i
08052f10+      W?$ct:P_String$n(rnx$Phrase$$)_
08052f50+      W?$dt:P_String$n()_
08052f60+      W?$ct:PTable$n()_
08052fe0+      W?$dt:PTable$n()_
080530d0+      W?match$:PTable$n(rnpna)pn$Phrase$$
08053260+      W?find$:PTable$n(pn$Phrase$$)pn$2$
08053310+      W?follows$:PTable$n(pn$Phrase$$pn$2$)rni
08053360+      W?insert$:PTable$n(pn$Phrase$$)v
08053470+      W?start$:PTable$n()v
08053480+      W?next$:PTable$n()pn$Phrase$$
080534b0+      W?clear$:PTable$n()v
08053590+      W?heapify$:PTable$n(i)v
08053630+      W?prune$:PTable$n()v
08053890       W?$ct:HFPhrases$n(pn$HFSDirectory$$pn()pn$InFile$$pn()pn$2$)_
080538f0+      W?$dt:HFPhrases$n()_
08053a60+      W?size$:HFPhrases$n()ul
08053b50+      W?dump$:HFPhrases$n(pn$OutFile$$)i
08053cc0+      W?startInput$:HFPhrases$n()v
08053d70+      W?nextInput$:HFPhrases$n()pna
08054010       W?readPhrases$:HFPhrases$n()v
08054c30       W?$dt:CompReader$n()_
08061ef0+      W?$Wvf0Do0:HFPhrases$$nx[]pn()v
08061f00       W?$Wvf0Eog:CompWriter$$nx[]pn()v
08061f10+      W?$Wts0Dn$HFPhrases$$$nx[]uc
08061f30       W?$Wts0En$CompWriter$$$nx[]uc
08061f50       W?$Wts0En$CompReader$$$nx[]uc
08061f70+      W?$Wts0An$Phrase$$$nx[]uc
08062a66+      W?$Wti09$Phrase$$$n[]uc
08062a74       W?$Wti0D$CompReader$$$n[]uc
08062a86       W?$Wti0D$CompWriter$$$n[]uc
08062a98+      W?$Wti0C$HFPhrases$$$n[]uc
080545f0+      W?initHashTable$:HFPhrases$n()v
080546a0       W?createQueue$:HFPhrases$n(pnxa)v
08054840       W?oldTable$:HFPhrases$n(pnxa)i
080549e0       W?replace$:HFPhrases$n(pnapnxarni)v
08061cf0       W?PhExt$n[]xa
08064054+      W?_pool$:Phrase$npn$Pool$$
Module: bmx.obj(/mnt/sda5/.user/root/src/openwatcom-1.9/bld/helpcomp/cpp/bmx.cpp)
08055d40+      W?size$:Dumpable$n()ul
08055d50+      W?dump$:Dumpable$n(pn$OutFile$$)i
08055d60+      W?$ct:Bmx$n(rnx$0$)_
08055d70+      W?$dt:Bmx$n()_
08055e20+      W?size$:SegGraph$n()ul
08054cb0+      W?$ct:Bitmap$n(pn$InFile$$)_
08054da0+      W?size$:Bitmap$n()ul
08055120+      W?dump$:Bitmap$n(pn$OutFile$$)i
08055500+      W?$ct:SegGraph$n(pn$InFile$$)_
080555d0+      W?dump$:SegGraph$n(pn$OutFile$$)i
08055630       W?$ct:HFBitmaps$n(pn$HFSDirectory$$)_
08055e30       W?$ct:ImageNotValid$:HFBitmaps$n()_
08055e40       W?$ct:ImageNotValid$:HFBitmaps$n(rnx$0:1$)_
08055e50       W?$dt:ImageNotValid$:HFBitmaps$n()_
08055e60       W?$ct:ImageNotFound$:HFBitmaps$n()_
08055e70       W?$ct:ImageNotFound$:HFBitmaps$n(rnx$0:1$)_
08055e80       W?$dt:ImageNotFound$:HFBitmaps$n()_
08055e90       W?$ct:ImageNotSupported$:HFBitmaps$n()_
08055ea0       W?$dt:ImageNotSupported$:HFBitmaps$n()_
08055eb0+      W?$dt:SegGraph$n()_
08055f80+      W?$dt:Bitmap$n()_
080621d0+      W?$Wvf07o0:Bmx$$nx[]pn()v
080621e0+      W?$Wvf0Ao0:Bitmap$$nx[]pn()v
080621f0+      W?$Wvf0Co0:SegGraph$$nx[]pn()v
08062200+      W?$Wth0Ynrn$ImageNotSupported$:HFBitmaps$$$nx[]uc
08062220+      W?$Wth0Unrn$ImageNotValid$:HFBitmaps$$$nx[]uc
08062240+      W?$Wth0Unrn$ImageNotFound$:HFBitmaps$$$nx[]uc
08062260+      W?$Wts07n$Bmx$$$nx[]uc
08062280       W?$Wts0Sn$ImageNotValid$:HFBitmaps$$$nx[]uc
080622a0       W?$Wts0Sn$ImageNotFound$:HFBitmaps$$$nx[]uc
080622c0+      W?$Wts0Cn$SegGraph$$$nx[]uc
08062ac0+      W?$Wti09$Bitmap$$$n[]uc
08062ad0+      W?$Wti0B$SegGraph$$$n[]uc
08062ae0       W?$Wti0R$ImageNotFound$:HFBitmaps$$$n[]uc
08062b00       W?$Wti0R$ImageNotValid$:HFBitmaps$$$n[]uc
08062b20+      W?$Wti06$Bmx$$$n[]uc
08055670       W?$dt:HFBitmaps$n()_
08055700       W?addToPath$:HFBitmaps$n(pnxa)v
080557e0       W?note$:HFBitmaps$n(pnxa)v
08055a10       W?use$:HFBitmaps$n(pnxa)us
080622e0+      W?$Wts0An$Bitmap$$$nx[]uc
Module: compress.obj(/mnt/sda5/.user/root/src/openwatcom-1.9/bld/helpcomp/cpp/compress.cpp)
08056050+      W?LocalHash$n(pnuc)i
08056080       W?$ct:CompWriter$n()_
080560b0       W?$dt:CompWriter$n()_
08056140       W?dump$:CompWriter$n()v
08056160+      W?putChr$:CompWriter$n(uc)i
080561a0+      W?putCode$:CompWriter$n(ii)i
08056240       W?dump$:CompOutFile$n()v
080562a0       W?$ct:CompReader$n(pn$CompWriter$$)_
08056360       W?flush$:CompReader$n(i)v
080563b0       W?reset$:CompReader$n(pn$CompWriter$$i)v
080563d0+      W?shuffle$:CompReader$n()v
080564a0       W?compress$:CompReader$n(pnxai)i
080566b0       W?add$:CompReader$n(pnxai)i
08056740       W?skip$:CompReader$n(i)i
Module: parsing.obj(/mnt/sda5/.user/root/src/openwatcom-1.9/bld/helpcomp/cpp/parsing.cpp)
08056820       W?$ct:RTFparser$n(pn$Pointers$$pn$InFile$$)_
08056920       W?$dt:RTFparser$n()_
080569c0+      W?skipSection$:RTFparser$n()v
08056a20+      W?closeBraces$:RTFparser$n()us
08056aa0+      W?isParCommand$:RTFparser$n()i
08056b40+      W?isFontCommand$:RTFparser$n(pn$Token$$pnus)i
08056e50+      W?handleCommand$:RTFparser$n()v
08057450       W?Go$:RTFparser$n()v
08057bb0*      W?skipSpaces$:RTFparser$n(pna)pna
08057bd0+      W?handleFootnote$:RTFparser$n(a)v
08057fa0+      W?handleHidden$:RTFparser$n(i)v
08058620+      W?handleFonts$:RTFparser$n()v
080623d0       W?RtfExt$n[]xa
Module: /mnt/sda5/.user/root/src/openwatcom-1.9/rel2/lib386/plbx3r.lib(fsregist.cpp)
080588f0+      __wcpp_4_dispatch_dummy__
08058914       __wcpp_4_fs_lookup__
080589b8       __wcpp_4_fs_handler_rtn__
08058a8c       __wcpp_4_unwind_global__
08058ad0       __wcpp_4_raise_exception__
Module: /mnt/sda5/.user/root/src/openwatcom-1.9/rel2/lib386/plbx3r.lib(cppdata.cpp)
08064058       __wint_thread_data
0806407c       __compiled_under_generic
Module: /mnt/sda5/.user/root/src/openwatcom-1.9/rel2/lib386/linux/clib3r.lib(gtcmdunx.c)
08058b00+      _bgetcmd_
08058bd0       getcmd_
Module: /mnt/sda5/.user/root/src/openwatcom-1.9/rel2/lib386/linux/clib3r.lib(isspace.c)
08058bf0       isspace_
Module: /mnt/sda5/.user/root/src/openwatcom-1.9/rel2/lib386/linux/clib3r.lib(fullpath.c)
08058c00+      _sys_fullpath_
08058da0       _fullpath_
Module: /mnt/sda5/.user/root/src/openwatcom-1.9/rel2/lib386/linux/clib3r.lib(splitpat.c)
08058e40       _splitpath_
Module: /mnt/sda5/.user/root/src/openwatcom-1.9/rel2/lib386/linux/clib3r.lib(stricmp.c)
08058f10       stricmp_
Module: /mnt/sda5/.user/root/src/openwatcom-1.9/rel2/lib386/linux/clib3r.lib(makepath.c)
08058f50       _makepath_
Module: /mnt/sda5/.user/root/src/openwatcom-1.9/rel2/lib386/linux/clib3r.lib(setjmp)
080590d8       _setjmp_
08059107       longjmp_
Module: /mnt/sda5/.user/root/src/openwatcom-1.9/rel2/lib386/plbx3r.lib(stabdtor.cpp)
08059410       __wcpp_4_destruct_internal__
0805942c       __wcpp_4_destruct_all__
08059430       __wcpp_4_destruct__
Module: /mnt/sda5/.user/root/src/openwatcom-1.9/rel2/lib386/plbx3r.lib(dtorarst.cpp)
08059450       __wcpp_4_dtor_array_store__
Module: /mnt/sda5/.user/root/src/openwatcom-1.9/rel2/lib386/plbx3r.lib(opdelarr.cpp)
08059480       W?$dan(pnv)v
Module: /mnt/sda5/.user/root/src/openwatcom-1.9/rel2/lib386/plbx3r.lib(undefed.cpp)
08059490       __wcpp_4_undefed_cdtor__
Module: /mnt/sda5/.user/root/src/openwatcom-1.9/rel2/lib386/linux/clib3r.lib(cstart)
080594a2       _cstart_
080594a2*      _start
Module: /mnt/sda5/.user/root/src/openwatcom-1.9/rel2/lib386/linux/clib3r.lib(cmainlnx.c)
08059510       __LinuxMain
08064080       __argc
08064084       __argv
Module: /mnt/sda5/.user/root/src/openwatcom-1.9/rel2/lib386/plbx3r.lib(fsroot.cpp)
08063fa4       ___wcpp_4_data_init_fs_root_
Module: /mnt/sda5/.user/root/src/openwatcom-1.9/rel2/lib386/plbx3r.lib(opnewarr.cpp)
080595b0       W?$nan(ui)pnv
Module: /mnt/sda5/.user/root/src/openwatcom-1.9/rel2/lib386/linux/clib3r.lib(fgetc.c)
080595c0       __fill_buffer_
08059670       fgetc_
Module: /mnt/sda5/.user/root/src/openwatcom-1.9/rel2/lib386/linux/clib3r.lib(gtcwdlnx.c)
080596e0       getcwd_
Module: /mnt/sda5/.user/root/src/openwatcom-1.9/rel2/lib386/linux/clib3r.lib(chdir.c)
08059760       chdir_
Module: /mnt/sda5/.user/root/src/openwatcom-1.9/rel2/lib386/plbx3r.lib(stablcl.cpp)
08059790       __wcpp_4_lcl_register__
Module: /mnt/sda5/.user/root/src/openwatcom-1.9/rel2/lib386/linux/clib3r.lib(toupper.c)
080597a0       toupper_
Module: /mnt/sda5/.user/root/src/openwatcom-1.9/rel2/lib386/linux/clib3r.lib(_strcmp)
080597b0       strcmp_
Module: /mnt/sda5/.user/root/src/openwatcom-1.9/rel2/lib386/linux/clib3r.lib(strncpy.c)
080598f0       strncpy_
Module: /mnt/sda5/.user/root/src/openwatcom-1.9/rel2/lib386/plbx3r.lib(stabthrw.cpp)
0805a0f0+      W?$ct:exception$:std$n()_
0805a130+      W?$ct:exception$:std$n(rnx$0:1$)_
0805a180+      W?$ct:exception$:std$n(pnxa)_
0805a1c0+      W?$dt:exception$:std$n()_
0805a250+      W?what$:exception$:std$n.x()pnxa
0805a290+      W?$ct:bad_exception$:std$n()_
0805a2e0+      W?$ct:bad_exception$:std$n(rnx$0:1$)_
0805a330+      W?$dt:bad_exception$:std$n()_
08062520+      W?$Wvf0Io4:exception$:std$$nx[]pn()v
08062530+      W?$Wvf0Mo4:bad_exception$:std$$nx[]pn()v
08062540+      W?$Wth0Onrn$bad_exception$:std$$$nx[]uc
08062560+      W?$Wts0In$exception$:std$$$nx[]uc
08062580+      W?$Wts0Mn$bad_exception$:std$$$nx[]uc
080625a0+      W?$Wts0Hn$_EXC_PR_FNEXC$$$nx[]uc
080625c0+      W?$Wts0Gn$_EXC_PR_DTOR$$$nx[]uc
080625e0       W?$Wts0Gn$_EXC_PR_FREE$$$nx[]uc
08062600       W?$Wts0Bn$_EXC_PR$$$nx[]uc
08062620+      W?$Wva0Mo0:bad_exception$:std$$nx[]uc
08062c1c       W?$Wti0A$_EXC_PR$$$n[]uc
08062c2b       W?$Wti0F$_EXC_PR_FREE$$$n[]uc
08062c3f+      W?$Wti0F$_EXC_PR_DTOR$$$n[]uc
08062c53+      W?$Wti0G$_EXC_PR_FNEXC$$$n[]uc
08062c68+      W?$Wti0L$bad_exception$:std$$$n[]uc
0805a3e0+      W?.tcctor$:bad_exception$:std$n(rnx$1:2$)rn$1:2$
0805a3f0+      W?.tdtor$:bad_exception$:std$n()pnv
0805a400+      W?.tdtor$:exception$:std$n()pnv
08059fbc*      __wcpp_4_rethrow__
0805a000       __wcpp_4_catch_done__
0805a060       __wcpp_4_throw__
0805a0a4*      __wcpp_4_throw_zero__
08062640+      W?$Wva0Io0:exception$:std$$nx[]uc
08062c82+      W?$Wti0H$exception$:std$$$n[]uc
Module: /mnt/sda5/.user/root/src/openwatcom-1.9/rel2/lib386/linux/clib3r.lib(strtol.c)
0805a630*      strtoul_
0805a640       strtol_
Module: /mnt/sda5/.user/root/src/openwatcom-1.9/rel2/lib386/linux/clib3r.lib(isalnum.c)
0805a650       isalnum_
Module: /mnt/sda5/.user/root/src/openwatcom-1.9/rel2/lib386/linux/clib3r.lib(atol.c)
0805a670       atol_
Module: /mnt/sda5/.user/root/src/openwatcom-1.9/rel2/lib386/linux/clib3r.lib(strncmp.c)
0805a6c0       strncmp_
Module: /mnt/sda5/.user/root/src/openwatcom-1.9/rel2/lib386/linux/clib3r.lib(strstr.c)
0805a6f0       strstr_
Module: /mnt/sda5/.user/root/src/openwatcom-1.9/rel2/lib386/plbx3r.lib(moddtorr.cpp)
08063fbc       ___wcpp_4_data_module_dtor_ref_
Module: /mnt/sda5/.user/root/src/openwatcom-1.9/rel2/lib386/linux/clib3r.lib(fwrite.c)
0805a7a0       fwrite_
Module: /mnt/sda5/.user/root/src/openwatcom-1.9/rel2/lib386/linux/clib3r.lib(fputc.c)
0805a8e0       fputc_
Module: /mnt/sda5/.user/root/src/openwatcom-1.9/rel2/lib386/plbx3r.lib(pure_err.cpp)
0805a970       __wcpp_4_pure_error__
Module: /mnt/sda5/.user/root/src/openwatcom-1.9/rel2/lib386/linux/clib3r.lib(fopen.c)
0805a9a0+      __open_flags_
0805ab40+      _fsopen_
0805ab90       fopen_
0805ac10*      freopen_
Module: /mnt/sda5/.user/root/src/openwatcom-1.9/rel2/lib386/linux/clib3r.lib(fclose.c)
0805ac70       __doclose_
0805ace0       __shutdown_stream_
0805ad00       fclose_
Module: /mnt/sda5/.user/root/src/openwatcom-1.9/rel2/lib386/linux/clib3r.lib(isalpha.c)
0805ad30       isalpha_
Module: /mnt/sda5/.user/root/src/openwatcom-1.9/rel2/lib386/linux/clib3r.lib(isdigit.c)
0805ad50       isdigit_
Module: /mnt/sda5/.user/root/src/openwatcom-1.9/rel2/lib386/linux/clib3r.lib(tolower.c)
0805ad60       tolower_
Module: /mnt/sda5/.user/root/src/openwatcom-1.9/rel2/lib386/linux/clib3r.lib(fseek.c)
0805adc0       fseek_
Module: /mnt/sda5/.user/root/src/openwatcom-1.9/rel2/lib386/linux/clib3r.lib(ftell.c)
0805aec0       ftell_
Module: /mnt/sda5/.user/root/src/openwatcom-1.9/rel2/lib386/linux/clib3r.lib(fread.c)
0805af10       fread_
Module: /mnt/sda5/.user/root/src/openwatcom-1.9/rel2/lib386/linux/clib3r.lib(time.c)
0805b050       time_
Module: /mnt/sda5/.user/root/src/openwatcom-1.9/rel2/lib386/linux/clib3r.lib(ltoa.c)
0805b080       ultoa_
0805b0d0       ltoa_
Module: /mnt/sda5/.user/root/src/openwatcom-1.9/rel2/lib386/linux/clib3r.lib(islower.c)
0805b100       islower_
Module: /mnt/sda5/.user/root/src/openwatcom-1.9/rel2/lib386/linux/clib3r.lib(atoi.c)
0805b120       atoi_
Module: /mnt/sda5/.user/root/src/openwatcom-1.9/rel2/lib386/linux/clib3r.lib(isxdigit.c)
0805b170       isxdigit_
Module: /mnt/sda5/.user/root/src/openwatcom-1.9/rel2/lib386/linux/clib3r.lib(fprintf.c)
0805b180       fprintf_
Module: /mnt/sda5/.user/root/src/openwatcom-1.9/rel2/lib386/linux/clib3r.lib(iob.c)
08062d24       ___iob
08064088       ___OpenStreams
0806408c       ___ClosedStreams
Module: /mnt/sda5/.user/root/src/openwatcom-1.9/rel2/lib386/linux/clib3r.lib(isattlnx.c)
0805b1b0       isatty_
Module: /mnt/sda5/.user/root/src/openwatcom-1.9/rel2/lib386/linux/clib3r.lib(nmalloc.c)
0805b1f0       _nmalloc_
0805b1f0       malloc_
08062ee4       ___nheapbeg
08062ee8       ___MiniHeapRover
08062eec       ___LargestSizeB4MiniHeapRover
Module: /mnt/sda5/.user/root/src/openwatcom-1.9/rel2/lib386/linux/clib3r.lib(nrealloc.c)
0805b2e0*      _nrealloc_
0805b2e0       realloc_
Module: /mnt/sda5/.user/root/src/openwatcom-1.9/rel2/lib386/linux/clib3r.lib(nfree.c)
0805b360       _nfree_
0805b360       free_
08064090+      ___MiniHeapFreeRover
Module: /mnt/sda5/.user/root/src/openwatcom-1.9/rel2/lib386/linux/clib3r.lib(istable.c)
0805b460       __IsTable
Module: /mnt/sda5/.user/root/src/openwatcom-1.9/rel2/lib386/linux/clib3r.lib(memset.c)
0805b570       memset_
Module: /mnt/sda5/.user/root/src/openwatcom-1.9/rel2/lib386/linux/clib3r.lib(memmove.c)
0805b590       memmove_
Module: /mnt/sda5/.user/root/src/openwatcom-1.9/rel2/lib386/linux/clib3r.lib(strlwr.c)
0805b5f0       strlwr_
Module: /mnt/sda5/.user/root/src/openwatcom-1.9/rel2/lib386/plbx3r.lib(stabdisp.cpp)
0805b80c       __wcpp_4_dispatchable__
Module: /mnt/sda5/.user/root/src/openwatcom-1.9/rel2/lib386/linux/clib3r.lib(seterrno.c)
0805b851       __set_errno_
0805b85d*      __set_EDOM_
0805b869*      __set_ERANGE_
0805b875*      __set_EINVAL_
Module: /mnt/sda5/.user/root/src/openwatcom-1.9/rel2/lib386/linux/clib3r.lib(ljmphdl.c)
08062ef0       ___longjmp_handler
Module: /mnt/sda5/.user/root/src/openwatcom-1.9/rel2/lib386/plbx3r.lib(stabtrav.cpp)
0805b8a0       __wcpp_4_stab_entry__
0805b8b8*      __wcpp_4_stab_trav_comp__
0805b99c       __wcpp_4_stab_trav_init__
0805b9c0       __wcpp_4_stab_trav_next__
0805ba18       __wcpp_4_stab_trav_move__
Module: /mnt/sda5/.user/root/src/openwatcom-1.9/rel2/lib386/plbx3r.lib(callterm.cpp)
0805ba30       __wcpp_4_corrupted_stack__
0805ba44       __wcpp_4_call_terminate__
Module: /mnt/sda5/.user/root/src/openwatcom-1.9/rel2/lib386/plbx3r.lib(allocexc.cpp)
0805ba94       __wcpp_4_alloc_exc__
0805bce4       __wcpp_4_free_exc__
0805bd1c       __wcpp_4_find_active__
0805bd38       __wcpp_4_dtor_free_exc__
Module: /mnt/sda5/.user/root/src/openwatcom-1.9/rel2/lib386/plbx3r.lib(stabadt.cpp)
0805be00+      W?dtor_the_array$n(pn$_RTARCTOR$$)pnv
0805be44+      W?$dt:_RTARCTOR$n()_
0805be5c       __wcpp_4_dtor_array__
08062690+      W?$Wts0Dn$_RTARCTOR$$$nx[]uc
08062ef4+      W?$Wti0C$_RTARCTOR$$$n[]uc
Module: /mnt/sda5/.user/root/src/openwatcom-1.9/rel2/lib386/plbx3r.lib(fatalerr.cpp)
0805bed0       __wcpp_4_fatal_runtime_error__
Module: /mnt/sda5/.user/root/src/openwatcom-1.9/rel2/lib386/linux/clib3r.lib(segdefns)
08048103       ___begtext
0805f000*      __nullarea
08063fa4       __Start_XI
08063fbc       __End_XI
08063fbc       __Start_YI
08063fc8       __End_YI
Module: /mnt/sda5/.user/root/src/openwatcom-1.9/rel2/lib386/linux/clib3r.lib(crwdata)
08062f10*      __LpCmdLine
08062f14       __LpPgmName
08062f08*      __dynend
08062f0c       __curbrk
08062f18       __STACKLOW
08062f1c       __STACKTOP
08062f20       __ASTACKSIZ
08062f24       __ASTACKPTR
08062f28*      __cbyte
08062f2c*      __cbyte2
08062f30*      __child
08062f36*      __Envptr
08062f3a*      __Envseg
08062f34*      __no87
08062f3c*      ___FPE_handler
Module: /mnt/sda5/.user/root/src/openwatcom-1.9/rel2/lib386/linux/clib3r.lib(sbrklnx.c)
0805bf00       sbrk_
0805bf10       __brk_
0805bf40*      brk_
Module: /mnt/sda5/.user/root/src/openwatcom-1.9/rel2/lib386/linux/clib3r.lib(environ.c)
08064094       ___env_mask
08064098       _environ
0806409c*      __wenviron
Module: /mnt/sda5/.user/root/src/openwatcom-1.9/rel2/lib386/linux/clib3r.lib(initrtns.c)
0805bf80       __InitRtns
0805bfd0       __FiniRtns
Module: /mnt/sda5/.user/root/src/openwatcom-1.9/rel2/lib386/linux/clib3r.lib(amblksiz.c)
08062f40       __amblksiz
Module: /mnt/sda5/.user/root/src/openwatcom-1.9/rel2/lib386/linux/clib3r.lib(exit.c)
0805c030       exit_
0805c042*      _exit_
Module: /mnt/sda5/.user/root/src/openwatcom-1.9/rel2/lib386/linux/clib3r.lib(flushall.c)
0805c050       __flushall_
0805c090       flushall_
Module: /mnt/sda5/.user/root/src/openwatcom-1.9/rel2/lib386/linux/clib3r.lib(qreadunx.c)
0805c0a0       __qread_
Module: /mnt/sda5/.user/root/src/openwatcom-1.9/rel2/lib386/linux/clib3r.lib(ioalloc.c)
0805c0f0       __ioalloc_
Module: /mnt/sda5/.user/root/src/openwatcom-1.9/rel2/lib386/linux/clib3r.lib(errno.c)
0805c190       __get_errno_ptr_
080640a0+      _errno
Module: /mnt/sda5/.user/root/src/openwatcom-1.9/rel2/lib386/plbx3r.lib(stabmod.cpp)
0805c1a0       __wcpp_4_module_dtor__
0805c1cc       __wcpp_4_mod_register__
Module: /mnt/sda5/.user/root/src/openwatcom-1.9/rel2/lib386/plbx3r.lib(exc_pr.cpp)
0805c1e0       W?$ct:_EXC_PR$n(pn$_RTCTL$$pn$RW_DTREG$$$EXCSTATE$$)_
0805c208       W?$dt:_EXC_PR$n()_
0805c218       W?$ct:_EXC_PR_FREE$n(pn$_RTCTL$$pn$RW_DTREG$$$EXCSTATE$$pn$ACTIVE_EXC$$)_
0805c22c       W?$dt:_EXC_PR_FREE$n()_
0805c264       W?$ct:_EXC_PR_DTOR$n(pn$_RTCTL$$pn$RW_DTREG$$$EXCSTATE$$pn$ACTIVE_EXC$$)_
0805c274       W?$ct:_EXC_PR_FNEXC$n(pn$_RTCTL$$pn$RW_DTREG$$pn$2$pn$ACTIVE_EXC$$)_
0805c294       W?$dt:_EXC_PR_FNEXC$n()_
0805c29c       W?$dt:_EXC_PR_DTOR$n()_
Module: /mnt/sda5/.user/root/src/openwatcom-1.9/rel2/lib386/plbx3r.lib(vfun_err.cpp)
0805c2c0       __wcpp_4_undef_vfun__
Module: /mnt/sda5/.user/root/src/openwatcom-1.9/rel2/lib386/plbx3r.lib(unexpect.cpp)
0805c2f0       W?unexpected$:std$n()v
Module: /mnt/sda5/.user/root/src/openwatcom-1.9/rel2/lib386/plbx3r.lib(tsequiv.cpp)
0805c390       __wcpp_4_ts_refed__
0805c3a8+      __wcpp_4_ts_pnted__
0805c3dc       __wcpp_4_ts_equiv__
Module: /mnt/sda5/.user/root/src/openwatcom-1.9/rel2/lib386/plbx3r.lib(stabinit.cpp)
0805c4c0       __wcpp_4_exc_setup__
Module: /mnt/sda5/.user/root/src/openwatcom-1.9/rel2/lib386/linux/clib3r.lib(stack386.c)
0805c560       stackavail_
Module: /mnt/sda5/.user/root/src/openwatcom-1.9/rel2/lib386/linux/clib3r.lib(stk)
0805c591*      __STK
0805c595*      __CHK
0805c58e       __GRO
0805c5ae*      __STKOVERFLOW_
Module: /mnt/sda5/.user/root/src/openwatcom-1.9/rel2/lib386/plbx3r.lib(ljmpinit.cpp)
08063fb6       ___wcpp_4_data_init_longjmp_
Module: /mnt/sda5/.user/root/src/openwatcom-1.9/rel2/lib386/linux/clib3r.lib(qwritunx.c)
0805c630       __qwrite_
Module: /mnt/sda5/.user/root/src/openwatcom-1.9/rel2/lib386/linux/clib3r.lib(flush.c)
0805c680       __flush_
Module: /mnt/sda5/.user/root/src/openwatcom-1.9/rel2/lib386/plbx3r.lib(prwdata.cpp)
080640a4       __wint_pure_error_flag
080640a6       __wint_undef_vfun_flag
080640a8       __wint_module_init
Module: /mnt/sda5/.user/root/src/openwatcom-1.9/rel2/lib386/linux/clib3r.lib(comtflag.c)
0805c750*      __set_commode_
08062f44       __commode
Module: /mnt/sda5/.user/root/src/openwatcom-1.9/rel2/lib386/linux/clib3r.lib(openlnx.c)
0805c760*      open_
0805c780       sopen_
Module: /mnt/sda5/.user/root/src/openwatcom-1.9/rel2/lib386/linux/clib3r.lib(chktty.c)
0805c7a0       __chktty_
Module: /mnt/sda5/.user/root/src/openwatcom-1.9/rel2/lib386/linux/clib3r.lib(freefp.c)
0805c7d0       __freefp_
0805c810       __purgefp_
Module: /mnt/sda5/.user/root/src/openwatcom-1.9/rel2/lib386/linux/clib3r.lib(allocfp.c)
0805c840       __allocfp_
Module: /mnt/sda5/.user/root/src/openwatcom-1.9/rel2/lib386/linux/clib3r.lib(__lseek.c)
0805c900       __lseek_
Module: /mnt/sda5/.user/root/src/openwatcom-1.9/rel2/lib386/linux/clib3r.lib(close.c)
0805c930       close_
Module: /mnt/sda5/.user/root/src/openwatcom-1.9/rel2/lib386/linux/clib3r.lib(lseek.c)
0805c960       lseek_
Module: /mnt/sda5/.user/root/src/openwatcom-1.9/rel2/lib386/linux/clib3r.lib(tell.c)
0805c970       tell_
Module: /mnt/sda5/.user/root/src/openwatcom-1.9/rel2/lib386/linux/clib3r.lib(fflush.c)
0805c990       fflush_
Module: /mnt/sda5/.user/root/src/openwatcom-1.9/rel2/lib386/linux/clib3r.lib(alphabet.c)
08060008       ___Alphabet
Module: /mnt/sda5/.user/root/src/openwatcom-1.9/rel2/lib386/linux/clib3r.lib(fprtf.c)
0805c9c0       __fprtf_
Module: /mnt/sda5/.user/root/src/openwatcom-1.9/rel2/lib386/linux/clib3r.lib(initfile.c)
0805ca80       __InitFiles_
Module: /mnt/sda5/.user/root/src/openwatcom-1.9/rel2/lib386/linux/clib3r.lib(ioexit.c)
0805cb80*      fcloseall_
0805cb90       __full_io_exit_
Module: /mnt/sda5/.user/root/src/openwatcom-1.9/rel2/lib386/linux/clib3r.lib(tcgattr.c)
0805cba0       tcgetattr_
Module: /mnt/sda5/.user/root/src/openwatcom-1.9/rel2/lib386/linux/clib3r.lib(nmemneed.c)
0805cbb0       __nmemneed_
Module: /mnt/sda5/.user/root/src/openwatcom-1.9/rel2/lib386/linux/clib3r.lib(mem.c)
0805cbc0       __MemAllocator
0805cc70       __MemFree
Module: /mnt/sda5/.user/root/src/openwatcom-1.9/rel2/lib386/linux/clib3r.lib(grownear.c)
0805ce30+      __LastFree_
0805ceb0       __ExpandDGROUP_
Module: /mnt/sda5/.user/root/src/openwatcom-1.9/rel2/lib386/linux/clib3r.lib(nmsize.c)
0805cfb0       _nmsize_
0805cfb0*      _msize_
Module: /mnt/sda5/.user/root/src/openwatcom-1.9/rel2/lib386/linux/clib3r.lib(nexpand.c)
0805cfc0       _nexpand_
0805cfc0*      _expand_
0805d010+      __HeapManager_expand_
Module: /mnt/sda5/.user/root/src/openwatcom-1.9/rel2/lib386/linux/clib3r.lib(__stos)
0805d1e0       __STOSB
0805d217*      __STOSD
Module: /mnt/sda5/.user/root/src/openwatcom-1.9/rel2/lib386/plbx3r.lib(bittest.cpp)
0805d290       __wcpp_4_bit_test__
0805d2b0       __wcpp_4_bit_off__
Module: /mnt/sda5/.user/root/src/openwatcom-1.9/rel2/lib386/plbx3r.lib(termnate.cpp)
0805d2d0       W?terminate$:std$n()v
Module: /mnt/sda5/.user/root/src/openwatcom-1.9/rel2/lib386/plbx3r.lib(areaexc.cpp)
08062f60       ___EXC_AREA
Module: /mnt/sda5/.user/root/src/openwatcom-1.9/rel2/lib386/plbx3r.lib(tssize.cpp)
0805d324       __wcpp_4_ts_size__
Module: /mnt/sda5/.user/root/src/openwatcom-1.9/rel2/lib386/linux/clib3r.lib(enterdb.c)
0805d360       __EnterWVIDEO_
08063f60+      ___WD_Present
Module: /mnt/sda5/.user/root/src/openwatcom-1.9/rel2/lib386/linux/clib3r.lib(xmsglnx.c)
0805d390       __exit_with_msg_
0805d3e0       __fatal_runtime_error_
Module: /mnt/sda5/.user/root/src/openwatcom-1.9/rel2/lib386/linux/clib3r.lib(dosseg)
00001234       __DOSseg__
Module: /mnt/sda5/.user/root/src/openwatcom-1.9/rel2/lib386/linux/clib3r.lib(sys_brk.c)
0805d400       sys_brk_
Module: /mnt/sda5/.user/root/src/openwatcom-1.9/rel2/lib386/linux/clib3r.lib(setenvp.c)
0805d420       __setenvp_
Module: /mnt/sda5/.user/root/src/openwatcom-1.9/rel2/lib386/linux/clib3r.lib(mainlnx.c)
08063f64+      ___FirstThreadData
08063f68+      ___GetThreadPtr
08063f6c*      __AccessFileH
08063f70*      __ReleaseFileH
08063f74*      __AccessIOB
08063f78*      __ReleaseIOB
08063f7c*      __AccessNHeap
08063f80*      __AccessFHeap
08063f84*      __ReleaseNHeap
08063f88*      __ReleaseFHeap
0805d490*      __threadid_
0805d4c0*      __LinuxInit_
0805d4d0       __exit_
08063f8c*      __AccessTDList
08063f90*      __ReleaseTDList
Module: /mnt/sda5/.user/root/src/openwatcom-1.9/rel2/lib386/linux/clib3r.lib(read.c)
0805d4f0       read_
Module: /mnt/sda5/.user/root/src/openwatcom-1.9/rel2/lib386/plbx3r.lib(ljmpdtor.cpp)
0805d588       __wcpp_4_lj_handler__
Module: /mnt/sda5/.user/root/src/openwatcom-1.9/rel2/lib386/linux/clib3r.lib(write.c)
0805d590       write_
Module: /mnt/sda5/.user/root/src/openwatcom-1.9/rel2/lib386/linux/clib3r.lib(fsync.c)
0805d5c0       fsync_
Module: /mnt/sda5/.user/root/src/openwatcom-1.9/rel2/lib386/linux/clib3r.lib(sys_open.c)
0805d5f0       sys_open_
Module: /mnt/sda5/.user/root/src/openwatcom-1.9/rel2/lib386/linux/clib3r.lib(prtf.c)
0805d620       __prtf_
Module: /mnt/sda5/.user/root/src/openwatcom-1.9/rel2/lib386/linux/clib3r.lib(ioctl.c)
0805e140       ioctl_
Module: /mnt/sda5/.user/root/src/openwatcom-1.9/rel2/lib386/linux/clib3r.lib(heapen.c)
0805e180*      _heapenable_
08063f94       ___heap_enabled
Module: /mnt/sda5/.user/root/src/openwatcom-1.9/rel2/lib386/linux/clib3r.lib(sys_exit.c)
0805e190       sys_exit_
Module: /mnt/sda5/.user/root/src/openwatcom-1.9/rel2/lib386/linux/clib3r.lib(mthrdini.c)
0805e1a0       __InitThreadData_
08063f98*      ___ThreadDataSize
Module: /mnt/sda5/.user/root/src/openwatcom-1.9/rel2/lib386/linux/clib3r.lib(itoa.c)
0805e1b0+      utoa_
0805e200       itoa_
Module: /mnt/sda5/.user/root/src/openwatcom-1.9/rel2/lib386/linux/clib3r.lib(strupr.c)
0805e230       strupr_
Module: /mnt/sda5/.user/root/src/openwatcom-1.9/rel2/lib386/linux/clib3r.lib(noefgfmt.c)
08063f9c       ___EFG_printf
08063fa0*      ___EFG_scanf
Module: /mnt/sda5/.user/root/src/openwatcom-1.9/rel2/lib386/linux/clib3r.lib(lltoa.c)
0805e2a0       ulltoa_
0805e310*      lltoa_


                        +--------------------+
                        |   Libraries Used   |
                        +--------------------+

/mnt/sda5/.user/root/src/openwatcom-1.9/rel2/lib386/linux/clib3r.lib
/mnt/sda5/.user/root/src/openwatcom-1.9/rel2/lib386/plbx3r.lib


                        +-----------------------+
                        |   Linker Statistics   |
                        +-----------------------+

Stack size:  1000 (4096.)
Memory size:  0001b2e5 (111333.)
Entry point address: 080594a2
Link time: 00:00.00
