Open Watcom Linker Version 1.9
Portions Copyright (c) 1985-2002 Sybase, Inc. All Rights Reserved.
Created on:       12/12/16 02:41:24
Executable Image: wv.exe
creating an OS/2 32-bit executable


                        +------------+
                        |   Groups   |
                        +------------+

Group                           Address              Size
=====                           =======              ====

DGROUP                          0003:00000000        0001c8a0



                        +--------------+
                        |   Segments   |
                        +--------------+

Segment                Class          Group          Address         Size
=======                =====          =====          =======         ====

_TEXT16                CODE           AUTO           0001:00000000   00000068
BEGTEXT                CODE           AUTO           0002:00000000   00000007
_TEXT                  CODE           AUTO           0002:00000010   000739e9
_MSGSEG32              CODE           AUTO           0002:000739fc   00000030
_NULL                  BEGDATA        DGROUP         0003:00000000   00000004
_AFTERNULL             BEGDATA        DGROUP         0003:00000004   00000000
CONST                  DATA           DGROUP         0003:00000004   00000090
CONST2                 DATA           DGROUP         0003:00000094   00000000
_DATA                  DATA           DGROUP         0003:000000a0   0000598c
XIB                    DATA           DGROUP         0003:00005a2c   00000000
XI                     DATA           DGROUP         0003:00005a2c   00000048
XIE                    DATA           DGROUP         0003:00005a74   00000000
YIB                    DATA           DGROUP         0003:00005a74   00000000
YI                     DATA           DGROUP         0003:00005a74   0000001e
YIE                    DATA           DGROUP         0003:00005a92   00000000
TIB                    DATA           DGROUP         0003:00005a92   00000000
TI                     DATA           DGROUP         0003:00005a92   00000000
TIE                    DATA           DGROUP         0003:00005a92   00000000
DATA                   DATA           DGROUP         0003:00005a92   00000000
_BSS                   BSS            DGROUP         0003:00005aa0   00004df8
STACK                  STACK          DGROUP         0003:0000a8a0   00012000


                        +----------------+
                        |   Memory Map   |
                        +----------------+

* = unreferenced symbol
+ = symbol only referenced locally

Address        Symbol
=======        ======

Module: autoenv.obj(/mnt/sda5/.user/root/src/openwatcom-1.9/bld/watcom/c/autoenv.c)
0002:000007d0  watcom_setup_env_
Module: os22ini.obj(/mnt/sda5/.user/root/src/openwatcom-1.9/bld/wv/os2/c/os22ini.c)
0003:00005aa0+ _CmdData
0002:000009d0  GUImain_
0002:00000a10  GUISysInit_
0002:00000a20  WndCleanUp_
0002:00000a30  GUISysFini_
0002:00000a40  GetCmdArg_
0002:00000a50  SetCmdArgStart_
0002:00000a60  KillDebugger_
0002:00000a70  RestoreHandlers_
0002:00000a70  GrabHandlers_
0002:00000a80  EnvLkup_
0002:00000aa0  _fork_
0002:00000c80  TBreak_
0002:00000c90  SysSetMemLimit_
0002:00000c90* _set_errno_
Module: os2chk.obj(/mnt/sda5/.user/root/src/openwatcom-1.9/bld/wv/os2/c/os2chk.c)
0002:00000ca0  CheckPointMem_
0002:00000cb0  CheckPointRestore_
Module: os2cmd.obj(/mnt/sda5/.user/root/src/openwatcom-1.9/bld/wv/os2/c/os2cmd.c)
0002:00000cc0  OptDelim_
0002:00000cd0  ProcSysOption_
0002:00000ce0  SetNumLines_
0002:00000d00  SetNumColumns_
0002:00000d20  ProcSysOptInit_
Module: os22flio.obj(/mnt/sda5/.user/root/src/openwatcom-1.9/bld/wv/os2/c/os22flio.c)
0002:00000d40  LocalErrMsg_
0002:00000df0  LocalOpen_
0002:00000e70  LocalRead_
0002:00000eb0  LocalWrite_
0002:00000ef0  LocalSeek_
0002:00000f30  LocalClose_
0002:00000f50  LocalErase_
0002:00000f70  LocalHandle_
0003:000000a0  _LclFile
0003:000000a6  _LclPathSep
Module: os2scrn.obj(/mnt/sda5/.user/root/src/openwatcom-1.9/bld/wv/os2/c/os2scrn.c)
0003:00005aa8  _NumLines
0003:00005aac  _NumColumns
0002:00000f80  RingBell_
0002:00000fa0  ConfigScreen_
0002:00000fb0  InitScreen_
0002:000010a0  SysGUI_
0002:000010a0  UserScreen_
0002:000010a0  DebugScreen_
0002:000010a0  UsrScrnMode_
0002:000010b0* DbgScrnMode_
0002:000010c0  DebugScreenRecover_
0002:000010d0  SaveMainWindowPos_
0002:000010e0  FiniScreen_
0002:00001150  uifaralloc_
0002:00001160  uifarfree_
0002:00001170  PopErrBox_
Module: fingmsg.obj(/mnt/sda5/.user/root/src/openwatcom-1.9/bld/wv/c/fingmsg.c)
0002:000013d0  InitAboutMessage_
0002:00001420  FiniAboutMessage_
0003:000000a8  _AboutMessage
0003:000000e4  _FingMessageSize
0003:000000e8  _AboutSize
Module: dipman.obj(/mnt/sda5/.user/root/src/openwatcom-1.9/bld/dig/c/dipman.c)
0002:00001450  DCSymCreate_
0002:00001450+ XDIPCliSymCreate_
0002:00001470  DIPInit_
0002:000014c0  DIPLoad_
0002:00001550  DIPRegister_
0002:000015b0* DIPFiniLatest_
0002:00001610  DIPFini_
0002:00001660  DIPHandleSize_
0002:00001680  DIPMoreMem_
0002:000016c0  DIPCancel_
0002:00001740+ FindImageMapSlot_
0002:00001870  DIPCreateProcess_
0002:000019c0* DIPSetProcess_
0002:000019d0  DIPDestroyProcess_
0002:00001a00  DIPPriority_
0002:00001a50  DIPLoadInfo_
0002:00001b60  DIPMapInfo_
0002:00001bc0  DIPUnloadInfo_
0002:00001c10  DIPImagePriority_
0002:00001c60  WalkImageList_
0002:00001d20  WalkModList_
0002:00001d80* WalkTypeList_
0002:00002010+ WalkSymListEx_
0002:00002040  WalkSymList_
0002:00002060  WalkFileList_
0002:00002110  ImageExtra_
0002:00002160  ImageDIP_
0002:000021b0  ModName_
0002:00002210  ModSrcLang_
0002:00002270  ModHasInfo_
0002:000022e0  ModDefault_
0002:00002350  ModAddr_
0002:000023c0  TypeMod_
0002:00002410  TypeInfo_
0002:000024b0  TypeCreate_
0002:000024d0  TypePointer_
0002:00002550  TypeBase_
0002:00002600* TypeAddRef_
0002:00002650* TypeRelease_
0002:000026a0* TypeFreeAll_
0002:000026e0  TypeArrayInfo_
0002:00002760  TypeProcInfo_
0002:000027c0  TypePtrAddrSpace_
0002:00002820  TypeThunkAdjust_
0002:00002880* TypeCmp_
0002:000028e0  TypeName_
0002:00002930  SymMod_
0002:00002970  SymName_
0002:000029c0  SymType_
0002:00002a10  SymLocation_
0002:00002a50  SymValue_
0002:00002a90  SymInfo_
0002:00002ae0  SymParmLocation_
0002:00002b30  SymObjType_
0002:00002b80  SymObjLocation_
0002:00002bd0* SymCmp_
0002:00002c30* SymAddRef_
0002:00002c80* SymRelease_
0002:00002cd0* SymFreeAll_
0002:00002d10  CueMod_
0002:00002d60  CueFile_
0002:00002da0  CueFileId_
0002:00002de0  CueAdjust_
0002:00002e40  CueLine_
0002:00002e80  CueColumn_
0002:00002ec0  CueAddr_
0002:00002f30  LineCue_
0002:00002fc0  AddrCue_
0002:00003070* CueCmp_
0002:000030d0  AddrMod_
0002:00003190  AddrSym_
0002:00003250+ LookupSymEx_
0002:000034a0  LookupSym_
0002:000034b0  AddrScope_
0002:00003550  ScopeOuter_
0003:000000f0  _DIPDefaults
0003:00000116+ _DIPClientInterface
Module: dipld.obj(/mnt/sda5/.user/root/src/openwatcom-1.9/bld/dig/c/os2v2/dipld.c)
0002:00003800  DIPSysLoad_
0002:00003970  DIPSysUnload_
Module: madman.obj(/mnt/sda5/.user/root/src/openwatcom-1.9/bld/dig/c/madman.c)
0003:00000164+ _MADClientInterface
0002:00003b30  MADTypeInfoForHost_
0002:00003bc0  MADInit_
0002:00003c10  MADRegister_
0002:00003d90  MADLoad_
0002:00003f20+ MADUnload_
0002:00003f70  MADLoaded_
0002:00003fb0  MADActiveSet_
0002:00003fe0* MADStateCreate_
0002:00004040* MADStateSet_
0002:000040b0* MADStateCopy_
0002:000040d0+ MADStateDestroy_
0002:00004120  MADFini_
0002:00004150  MADWalk_
0002:00004180  MADNameFile_
0002:000041f0  MADNameDescription_
0002:00004270  MADAddrAdd_
0002:000042b0  MADAddrComp_
0002:000042e0  MADAddrDiff_
0002:00004310  MADAddrMap_
0002:00004320  MADAddrFlat_
0002:00004330  MADAddrInterrupt_
0002:00004360  MADTypeWalk_
0002:00004390  MADTypeName_
0002:000043b0  MADTypePreferredRadix_
0002:000043e0  MADTypeForDIPType_
0002:00004400  MADTypeInfo_
0002:00004510  MADTypeDefault_
0002:00004e40  MADTypeConvert_
0002:00005340  MADTypeToString_
0002:000053d0  MADTypeHandleToString_
0002:00005400  MADRegistersSize_
0002:00005410  MADRegistersHost_
0002:00005420  MADRegistersTarget_
0002:00005440  MADRegSetWalk_
0002:00005470  MADRegSetName_
0002:000054a0  MADRegSetLevel_
0002:000054b0  MADRegSetDisplayGrouping_
0002:000054d0  MADRegSetDisplayGetPiece_
0002:00005520  MADRegSetDisplayModify_
0002:00005540  MADRegSetDisplayToggleList_
0002:00005550  MADRegSetDisplayToggle_
0002:00005560  MADRegModified_
0002:00005580  MADRegInspectAddr_
0002:000055d0  MADRegWalk_
0002:00005760  MADRegFullName_
0002:000057c0  MADRegSpecialGet_
0002:000057f0  MADRegSpecialSet_
0002:00005820  MADRegSpecialName_
0002:00005850  MADRegFromContextItem_
0002:00005880  MADRegUpdateStart_
0002:000058b0  MADRegUpdateEnd_
0002:000058d0  MADCallStackGrowsUp_
0002:000058f0  MADCallTypeList_
0002:00005910  MADCallBuildFrame_
0002:00005960  MADCallReturnReg_
0002:000059a0  MADCallParmRegList_
0002:000059d0  MADCallUpStackSize_
0002:000059e0  MADCallUpStackInit_
0002:00005a10  MADCallUpStackLevel_
0002:00005a50  MADDisasmDataSize_
0002:00005a70  MADDisasmNameMax_
0002:00005a90  MADDisasm_
0002:00005b00  MADDisasmFormat_
0002:00005b20  MADDisasmInsSize_
0002:00005b40  MADDisasmInsUndoable_
0002:00005b70  MADDisasmControl_
0002:00005b90  MADDisasmInsNext_
0002:00005bc0  MADDisasmInspectAddr_
0002:00005c10  MADDisasmMemRefWalk_
0002:00005c40  MADDisasmToggleList_
0002:00005c50  MADDisasmToggle_
0002:00005c70  MADTraceSize_
0002:00005c90  MADTraceInit_
0002:00005cc0  MADTraceOne_
0002:00005cf0  MADTraceHaveRecursed_
0002:00005d20  MADTraceSimulate_
0002:00005d50  MADTraceFini_
0002:00005d90  MADUnexpectedBreak_
Module: madld.obj(/mnt/sda5/.user/root/src/openwatcom-1.9/bld/dig/c/os2v2/madld.c)
0002:00005fd0  MADSysLoad_
0002:00006140  MADSysUnload_
Module: i64.obj(/mnt/sda5/.user/root/src/openwatcom-1.9/bld/watcom/c/i64.c)
0002:00006150  I32ToI64_
0002:00006160  U32ToU64_
0002:00006170  U64Neg_
0002:000061a0  U64Add_
0002:000061c0* U64IncDec_
0002:000061f0  U64Sub_
0002:00006210  U64Mul_
0002:00006280  U64Div_
0002:00006380  I64Div_
0002:00006430  U64Cmp_
0002:00006470  U64Test_
0002:00006490  I64Cmp_
0002:000064c0  I64Test_
0002:000064f0  I64ShiftR_
0002:00006540  U64ShiftR_
0002:000065a0* U64Shift_
0002:000065b0  U64ShiftL_
Module: trpsupp.obj(/mnt/sda5/.user/root/src/openwatcom-1.9/bld/dig/c/trpsupp.c)
0002:000065e0  TrapSetFailCallBack_
0002:000065f0* TrapSetAccessCallBack_
0002:00006600* TrapFailAllRequests_
0002:00006610  TrapSimpAccess_
0002:00006660  TrapAccess_
0002:00006940* ReqFuncProxy_
0003:00005bf8  _ReqFunc
0003:00005bfc  _TrapVer
Module: trpld.obj(/mnt/sda5/.user/root/src/openwatcom-1.9/bld/dig/c/os2v2/trpld.c)
0002:00006b80* IsTrapFilePumpingMessageQueue_
0002:00006b90* TellHandles_
0002:00006bb0* TellHardMode_
0002:00006bd0  KillTrap_
0002:00006c00  LoadTrap_
Module: dumb.obj(/mnt/sda5/.user/root/src/openwatcom-1.9/bld/dig/c/dumb.c)
0002:00006fa0+ ReqConnect_
0002:00006fc0+ ReqSimpleStub_
0002:00006fd0+ ReqGet_supplementary_service_
0002:00006ff0+ ReqMap_addr_
0002:00007020+ ReqSplit_cmd_
0002:00007020+ ReqGet_lib_name_
0002:00007020+ ReqGet_next_alias_
0002:00007020+ ReqSet_break_
0002:00007020+ ReqProg_kill_
0002:00007020+ ReqChecksum_mem_
0002:00007040+ ReqProg_load_
0002:00007060+ ReqSet_watch_
0002:00007080+ ReqRead_user_keyboard_
0002:00007090+ ReqRedirect_stdout_
0002:00007090+ ReqRedirect_stdin_
0002:000070b0+ DumbRequest_
0002:000070d0  LoadDumbTrap_
0003:00005c10+ _Out_Mx_Ptr
Module: spawn.obj(/mnt/sda5/.user/root/src/openwatcom-1.9/bld/wv/c/spawn.c)
0002:00007110  Spawn_
0002:00007150  SpawnP_
0002:00007190  SpawnPP_
0002:000071e0  Suicide_
Module: dbgchain.obj(/mnt/sda5/.user/root/src/openwatcom-1.9/bld/wv/c/dbgchain.c)
0002:00007210  FindNextIns_
0002:00007620  InitTraceBack_
0002:00007640  FiniTraceBack_
0002:00007680  UpdateTraceBack_
0002:000076f0  GetCallChain_
0002:00007710  ShowCalls_
0002:000077b0  UnWindToFrame_
Module: dbgvar.obj(/mnt/sda5/.user/root/src/openwatcom-1.9/bld/wv/c/dbgvar.c)
0003:00005c30  _TypeDisplay
0002:000078a0  VarDisplayIsStruct_
0002:000078e0  VarDisplayIsHidden_
0002:00007900  VarDisplaySetHidden_
0002:00007930  VarDisplayFlipHide_
0002:00007980  VarDisplayUpdate_
0002:000079b0  VarDisplayShowMembers_
0002:000079c0  VarDisplaySetMembers_
0002:000079e0+ VarDisplaySetBits_
0002:00007a00+ VarDisplayFindParent_
0002:00007a30  VarDisplayDirty_
0002:00007a50  VarDisplayInit_
0002:00007a60  VarDisplayedOnTop_
0002:00007a80  VarDisplayOnTop_
0002:00007b40  VarDisplayFini_
0002:00007c00  VarDisplayAddStruct_
0002:00007cc0  VarDisplayAddField_
0002:00007d60  VarDisplayAlias_
0002:00007dd0  VarDisplayType_
0002:00007ee0  VarErrState_
0002:00007f00  VarOldErrState_
0002:00007fa0* VarNodeInvalid_
0002:00008630  VarExpand_
0002:000089e0+ VarExpandNode_
0002:00008a00+ VarFirstExpandNode_
0002:00008a90* VarFirstNode_
0002:00008af0+ VarNextRowNode_
0002:00008b20  VarNextVisibleSibling_
0002:00008eb0  VarFindRowNode_
0002:00008ee0  VarRowTotal_
0002:00008f50  VarFindRoot_
0002:00009050  VarFindRow_
0002:000090c0  VarDoneRow_
0002:00009250+ VarBaseName_
0002:000092d0  VarBuildName_
0002:00009560  VarDeExpand_
0002:000095e0  VarAllNodesInvalid_
0002:00009610  VarAdd1_
0002:000096c0  VarExpandRow_
0002:00009740  VarExpandRowNoCollapse_
0002:000097c0  VarGetStackClass_
0002:000097f0  VarExpandable_
0002:00009800  VarIsPointer_
0002:00009810  VarPrintText_
0002:000098b0  VarDelete_
0002:00009980* VarDisplayIsHex_
0002:00009990  VarDisplaySetHex_
0002:000099c0  VarDisplaySetArrayHex_
0002:00009a00* VarDisplayIsDecimal_
0002:00009a10  VarDisplaySetDecimal_
0002:00009a40  VarDisplaySetArrayDec_
0002:00009a80* VarDisplayIsChar_
0002:00009a90  VarDisplaySetChar_
0002:00009ab0* VarDisplayIsString_
0002:00009ac0  VarDisplaySetString_
0002:00009ae0* VarDisplayIsPointer_
0002:00009af0  VarDisplaySetPointer_
0002:00009b10  VarBreakOnWrite_
0002:00009b40  VarAddWatch_
0002:00009b70  VarAddNodeToScope_
0002:00009bd0* VarFindRootRow_
0002:00009c40  VarNewCurrRadix_
0002:00009c50* VarNewDisplayRadix_
0002:00009c60* VarGetOnTop_
0002:00009c80+ VarGetGadget_
0002:00009d10* VarSetGadget_
0002:00009d20* VarSetOnTop_
0002:00009f20+ VarGetValue_
0002:0000a1a0+ VarSetValue_
0002:0000a4d0  VarDeleteAllScopes_
0002:0000a500  VarDeleteAScope_
0002:0000a570  VarUnMap_
0002:0000a5f0  VarReMap_
0002:0000a690  VarInitInfo_
0002:0000a6c0  VarFiniInfo_
0002:0000a6f0  VarOkToCache_
0002:0000a700  VarKillExprSPCache_
0002:0000a730  VarInfoRefresh_
0002:0000a8b0  VarInspectPointer_
0002:0000a8f0  VarInspectMemory_
0002:0000a920* VarInspectCode_
0002:0000a950  VarIsLValue_
0002:0000a980+ VarGetDepths_
0002:0000a9b0  VarRefreshVisible_
0002:0000ab10  VarDoAssign_
0002:0000abc0  VarGetDisplayPiece_
0002:0000ad50  VarParentIsArray_
0003:00005c35  _VarError
Module: dbgvset.obj(/mnt/sda5/.user/root/src/openwatcom-1.9/bld/wv/c/dbgvset.c)
0002:0000add0+ Attributes_
0002:0000b3b0  TypeSet_
0002:0000b4f0  TypeConf_
Module: dbgass.obj(/mnt/sda5/.user/root/src/openwatcom-1.9/bld/wv/c/dbgass.c)
0002:0000b6d0  InsMemRef_
Module: dbgimg.obj(/mnt/sda5/.user/root/src/openwatcom-1.9/bld/wv/c/dbgimg.c)
0002:0000b700  ImgSymName_
0002:0000b770  ImgSort_
Module: dbglist.obj(/mnt/sda5/.user/root/src/openwatcom-1.9/bld/wv/c/dbglist.c)
0002:0000b7a0  ConfigEvent_
0002:0000b7b0  ConfigCalls_
Module: dbgpend.obj(/mnt/sda5/.user/root/src/openwatcom-1.9/bld/wv/c/dbgpend.c)
0002:0000b8c0  DoProcPending_
0002:0000b8e0  ProcInput_
0002:0000b910  DoInput_
Module: ambigsym.obj(/mnt/sda5/.user/root/src/openwatcom-1.9/bld/wv/c/ambigsym.c)
0002:0000b950  SymPickText_
0002:0000b9f0  Disambiguate_
Module: addarith.obj(/mnt/sda5/.user/root/src/openwatcom-1.9/bld/wv/c/addarith.c)
0002:0000bb80  AddAliasInfo_
0002:0000bbd0  FreeAliasInfo_
0002:0000bc00  DeAlias_
0002:0000bc30  AddrComp_
0002:0000bd00  AddrAdd_
0002:0000bd40  AddrAddWrap_
0002:0000bd80  AddrDiff_
0002:0000bdc0  SameAddrSpace_
Module: dbgbrk.obj(/mnt/sda5/.user/root/src/openwatcom-1.9/bld/wv/c/dbgbrk.c)
0002:0000bee0  InitBPs_
0002:0000bf90  InsertBPs_
0002:0000c150  RemoveBPs_
0002:0000c1b0  GetBPAddr_
0002:0000c230  GetBPText_
0002:0000c2f0  FindBreakByLine_
0002:0000c380  FindBreak_
0002:0000c4f0  DispBPMsg_
0002:0000ca30  ActPoint_
0002:0000ca50  BrkEnableAll_
0002:0000ca80  BrkDisableAll_
0002:0000cab0  RemovePoint_
0002:0000cb30  RemoveBreak_
0002:0000cb60  BrkClearAll_
0002:0000cb90  BPsDeac_
0002:0000cbe0  BPsUnHit_
0002:0000cc20  RecordNewPoint_
0002:0000cc40  RecordPointStart_
0002:0000cc70  RecordClearPoint_
0002:0000cc90  GetBreakOnImageCmd_
0002:0000cd10+ ShowBPs_
0002:0000cd70  ProcBreak_
0002:0000d150  CopySourceLine_
0002:0000d190  GetBPSymAddr_
0002:0000d210  SetPointAddr_
0002:0000d410  BrkCheckWatchLimit_
0002:0000d690  AddBreak_
0002:0000d720  ToggleBreak_
0002:0000d7e0  BrkAddrRefresh_
0002:0000d840+ SetBPCountDown_
0002:0000d860* GetBPAutoDestruct_
0002:0000d870* SetBPAutoDestruct_
0002:0000d880* SetBPCondition_
0002:0000d8d0* SetBPPatch_
0002:0000d950* SetBPResume_
0002:0000d960* GetBPCountDown_
0002:0000d970* GetBPCondition_
0002:0000d990* GetBPPatch_
0002:0000d9d0* GetBPResume_
0002:0000de20  BreakWrite_
0002:0000df70* BreakOnRawMemory_
0002:0000dfb0  BreakOnExprSP_
0002:0000e030  PointFini_
0002:0000e110  CheckBPErrors_
0002:0000e150  BrkCmdError_
0002:0000e180  CheckBPs_
0002:0000e510  UpdateWPs_
0002:0000e570  InsertWPs_
0002:0000e5f0  SaveBreaksToFile_
0002:0000e620  RestoreBreaksFromFile_
0002:0000e670  FindFirstCue_
0002:0000e6a0  BreakAllModEntries_
0002:0000e7b0  ClearAllModBreaks_
0002:0000e800* GetRowAddrDirectly_
0002:0000e880* GetBPAt_
0002:0000e8a0* GetBPsCount_
Module: dbgcall.obj(/mnt/sda5/.user/root/src/openwatcom-1.9/bld/wv/c/dbgcall.c)
0002:0000e8e0  FiniCall_
0002:0000ebb0  CallSet_
0002:0000ebc0  CallConf_
0002:0000ec90  ProcCall_
Module: dbgcall2.obj(/mnt/sda5/.user/root/src/openwatcom-1.9/bld/wv/c/dbgcall2.c)
0002:0000eef0  FreezeRegs_
0002:0000ef30  UnFreezeRegs_
0002:0000eff0  PerformExplicitCall_
0002:0000f150  PerformCall_
Module: dbgcmd.obj(/mnt/sda5/.user/root/src/openwatcom-1.9/bld/wv/c/dbgcmd.c)
0002:0000f200  DoCmd_
Module: dbgcmdln.obj(/mnt/sda5/.user/root/src/openwatcom-1.9/bld/wv/c/dbgcmdln.c)
0003:00005d68  _DownLoadTask
0002:0000f220+ SetupChar_
0002:0000f270* NextChar_
0002:0000f280+ OptError_
0002:0000f310* HasEquals_
0002:0000f330+ WantEquals_
0002:0000f360* SkipSpaces_
0002:0000f370+ GetValueLong_
0002:0000f3d0+ GetValue_
0002:0000f400+ GetMemory_
0002:0000f4e0* GetItem_
0002:0000f4f0+ GetFileName_
0002:0000f530+ GetRawItem_
0002:0000fa60  ProcCmd_
Module: dbgdot.obj(/mnt/sda5/.user/root/src/openwatcom-1.9/bld/wv/c/dbgdot.c)
0002:0000fb80  GetDotAddr_
0002:0000fbc0  SetCodeLoc_
0002:0000fbe0* SetDataLoc_
0002:0000fc00  SetCodeDot_
0002:0000fc30  SetDataDot_
0002:0000fc60  GetCodeDot_
0002:0000fc80  GetDataDot_
Module: dbgexec.obj(/mnt/sda5/.user/root/src/openwatcom-1.9/bld/wv/c/dbgexec.c)
0002:0000fd50  SetProgState_
0002:0000fe70  SetMsgText_
0002:000102d0  ExecProg_
0002:00010630  ReportTrap_
0002:00010770  Execute_
0002:000108c0  Go_
Module: dbgexpr.obj(/mnt/sda5/.user/root/src/openwatcom-1.9/bld/wv/c/dbgexpr.c)
0002:00010930  InitLC_
0002:00010a10  CreateLC_
0002:00010a50+ FreeLC_
0002:00010a90  MoveLC_
0002:00010ac0+ DupLC_
0002:00010ae0  CreateEntry_
0002:00010b50  AllocatedString_
0002:00010bb0  DeleteEntry_
0002:00010bf0  StkEntry_
0002:00010c60  MoveSP_
0002:00010c70  SwapStack_
0002:00010cf0  FreezeStack_
0002:00010d30  UnFreezeStack_
0002:00010da0+ DupStringVal_
0002:00010e00  DupStack_
0002:00010ee0  PushName_
0002:00010f10  PushNum_
0002:00010f40  PushNum64_
0002:00010f60  PushRealNum_
0002:00010f90  PushSymHandle_
0002:00010fb0  ExprSetAddrInfo_
0002:00011010  PushAddr_
0002:00011040  PushLocation_
0002:00011080  CombineEntries_
0002:000110e0  MoveTH_
0002:00011120  PushType_
0002:00011180  PushInt_
0002:000111e0  PushString_
0002:00011230  PopEntry_
0002:00011300  TstEQ_
0002:00011410  TstLT_
0002:00011530  TstTrue_
0002:00011560  TstExist_
0002:000115c0  MakeAddr_
0002:00011660  FreePgmStack_
0002:00011700  ExprPurge_
0002:00011760  MarkArrayOrder_
0002:00011780  StartSubscript_
0002:00011790  AddSubscript_
0002:00011860  EndSubscript_
0003:00000660  _ExprSP
Module: dbgexpr2.obj(/mnt/sda5/.user/root/src/openwatcom-1.9/bld/wv/c/dbgexpr2.c)
0002:00011940  ClassifyType_
0002:00011960  ClassifyEntry_
0002:00011a30  ExprGetSymList_
0002:00011aa0  ExprSymbol_
0002:00011b10  NameResolve_
0002:00011b70  SymResolve_
0002:00011c90  LValue_
0002:00011ce0  ClassNum_
0002:00011e40  ExprResolve_
0002:00011fc0  LRValue_
0002:000121f0  RValue_
0002:00012210  ExprValue_
Module: dbgexpr3.obj(/mnt/sda5/.user/root/src/openwatcom-1.9/bld/wv/c/dbgexpr3.c)
0002:000122f0+ ConvIdx_
0002:00012420  FromItem_
0002:00012650  ToItem_
0002:00012e40  ConvertTo_
0002:000131b0  BinOp_
0002:000131d0  AddOp_
0002:000131f0  ToItemMAD_
Module: dbgexpr4.obj(/mnt/sda5/.user/root/src/openwatcom-1.9/bld/wv/c/dbgexpr4.c)
0002:00013300  DoPlus_
0002:00013470  DoMinus_
0002:00013610  DoMul_
0002:00013750  DoDiv_
0002:00013970  DoMod_
0002:00013a20  DoAnd_
0002:00013a90  DoOr_
0002:00013b00  DoXor_
0002:00013b70  DoShift_
0002:00013c20  DoAddr_
0002:00013cd0  DoAPoints_
0002:00013df0  DoPoints_
0002:00013f80  DoConvert_
0002:00013fc0  DoLConvert_
0002:00014070  DoMakeComplex_
0002:00014150  DoStringConcat_
0002:00014230  DoGivenField_
0002:00014300  DoField_
0002:00014560  DoScope_
0002:00014690  DoAssign_
0002:00014cd0  DoCall_
Module: dbgfile.obj(/mnt/sda5/.user/root/src/openwatcom-1.9/bld/wv/c/dbgfile.c)
0002:00015390  RealFName_
0002:00015410  FileLoc_
0002:000154b0  ReadStream_
0002:000154b0  ReadText_
0002:000154d0  WriteStream_
0002:000154f0  WriteText_
0002:00015530  SeekStream_
0002:00015560  FileOpen_
0002:00015600  FileClose_
0002:00015630  FileRemove_
0002:00015660  WriteToPgmScreen_
0002:00015680  FileHandleInfo_
0002:00015690  SysErrMsg_
0002:000156e0  StashErrCode_
0002:00015720* GetLastErr_
0002:00015730* GetSystemErrCode_
0002:00015740* GetSystemHandle_
0002:00015750  IsAbsolutePath_
0002:000157b0  AppendPathDelim_
0002:00015800  SkipPathInfo_
0002:00015840  ExtPointer_
0002:00015890  MakeFileName_
0002:000159b0  LclStringToFullName_
0002:00015bb0  FullPathOpen_
0002:00015bc0  LocalFullPathOpen_
0002:00015c40  FindWritable_
0002:00015db0  PathOpen_
0002:00015dc0  LocalPathOpen_
0002:00015dd0  SysFileInit_
0002:00015e20  PathFini_
0002:00015eb0  PathInit_
Module: dbghook.obj(/mnt/sda5/.user/root/src/openwatcom-1.9/bld/wv/c/dbghook.c)
0002:00015f20  InitHook_
0002:00015f30  FiniHook_
0002:00015f60  ProcHook_
0002:00015fe0  ConfigHook_
0002:00016060  HookNotify_
0002:000160d0  HookPendingPush_
Module: dbginvk.obj(/mnt/sda5/.user/root/src/openwatcom-1.9/bld/wv/c/dbginvk.c)
0002:00016190  ImplicitSet_
0002:000161c0  ImplicitConf_
0002:000165a0  Invoke_
0002:00016640  ProfileInvoke_
0002:00016750  CreateInvokeFile_
0002:00016770  InvokeAFile_
0002:00016780  ProcInvoke_
Module: dbglkup.obj(/mnt/sda5/.user/root/src/openwatcom-1.9/bld/wv/c/dbglkup.c)
0002:000168c0  InitLook_
0002:00016910  FiniLook_
0002:00016920  LookCaseSet_
0002:00016960  LookSet_
0002:00016ba0  LookConf_
0002:00016c30  Lookup_
0002:00016d30  LookupModName_
0002:00016e00  LookupImageName_
0002:00016e80  LookupSymList_
0002:00017060  FreeSymHandle_
0002:00017090  PurgeSymHandles_
0002:000171b0  FindNullSym_
0002:000171d0  SetWDPresent_
Module: dbgloc.obj(/mnt/sda5/.user/root/src/openwatcom-1.9/bld/wv/c/dbgloc.c)
0002:00017230  LocationCreate_
0002:00017270  LocationAppend_
0002:000172b0  LocationSet_
0002:000172e0  LocationAdd_
0002:00017dc0  LocationAssign_
Module: dbglog.obj(/mnt/sda5/.user/root/src/openwatcom-1.9/bld/wv/c/dbglog.c)
0002:00017ea0  LogInit_
0002:00017eb0  LogFini_
0002:00017ed0  LogLine_
0002:00017f80  LogStart_
0002:00017f90  LogEnd_
0002:00017fe0  ProcLog_
Module: dbgmain.obj(/mnt/sda5/.user/root/src/openwatcom-1.9/bld/wv/c/dbgmain.c)
0002:00018170  GetCmdName_
0002:00018190+ DebugInit_
0002:000182c0  ReportTask_
0002:00018350  ChkBreak_
0002:00018370  ProcACmd_
0002:00018530  DebugMain_
0002:000185b0  DebugExit_
0002:000185c0  DebugFini_
0002:00018670  InitCapabilities_
0002:000186d0+ CapabilitiesGet8ByteBreakpointSupport_
0002:00018760+ CapabilitiesSet8ByteBreakpointSupport_
0002:00018800+ CapabilitiesGetExactBreakpointSupport_
0002:00018890  CapabilitiesSetExactBreakpointSupport_
0003:00000a08+ _SuppCapabilitiesId
Module: dbgmem.obj(/mnt/sda5/.user/root/src/openwatcom-1.9/bld/wv/c/dbgmem.c)
0002:00018950  ChangeMemUndoable_
0002:000189f0  ProgPeekWrap_
0002:00018a90  ItemSize_
0002:00018cd0  ItemGetMAD_
0002:00018d00  ItemPutMAD_
Module: memtypes.obj(/mnt/sda5/.user/root/src/openwatcom-1.9/bld/wv/c/memtypes.c)
0002:00018e40  MemInitTypes_
0002:00018eb0  MemFiniTypes_
0002:00018f00  GetMADMaxFormatWidth_
Module: dbgmisc.obj(/mnt/sda5/.user/root/src/openwatcom-1.9/bld/wv/c/dbgmisc.c)
0002:00018fd0  Flip_
0002:00019000  ProcFlip_
0002:00019060  ConfigFlip_
0002:000190b0  ProcRemark_
0002:000190e0  ProcDo_
0002:000190f0  ProcAssign_
0002:00019160  GoToAddr_
0002:000191b0  StepIntoFunction_
0002:000191f0  SkipToAddr_
0002:00019240  GoToReturn_
0002:000192a0  ProcGo_
0002:00019530  ProcSkip_
0002:00019560  ProcIf_
0002:00019640  ProcWhile_
0002:000196c0  ProcError_
0002:00019720  ProcQuit_
0002:000197a0  MakeThdCurr_
0002:000198c0  IsThdCurr_
0002:000199a0  GetNextTID_
0002:000199f0  NameThread_
0002:00019ac0  CheckForNewThreads_
0002:00019b30  FindThread_
0002:00019b50  ProcThread_
0002:00019c80  FreeThreads_
Module: dbgovl.obj(/mnt/sda5/.user/root/src/openwatcom-1.9/bld/wv/c/dbgovl.c)
0002:00019cb0  InitOvlState_
0002:00019d80  FiniOvlState_
0002:00019dc0  InvalidateTblCache_
0002:00019dd0  SectIsLoaded_
0002:00019e60  SectLoad_
0002:00019ee0  SectTblRead_
0002:00019f00  SetStateOvlSect_
0002:00019f20  TransOvlRetAddr_
0002:00019f40  RemapSection_
0002:00019f60  AddrSection_
0002:00019fe0  AddrFix_
0002:0001a020  AddrFloat_
Module: dbgparse.obj(/mnt/sda5/.user/root/src/openwatcom-1.9/bld/wv/c/dbgparse.c)
0002:0001a0d0  SetUpExpr_
0002:0001a0e0  EvalLValExpr_
0002:0001a100  EvalExpr_
0002:0001a120  NormalExpr_
0002:0001a140  ChkExpr_
0002:0001a160  ReqU64Expr_
0002:0001a1c0  ReqLongExpr_
0002:0001a1e0  ReqExpr_
0002:0001a200  OptExpr_
0002:0001a240  MakeMemoryAddr_
0002:0001a2e0  ReqMemAddr_
0002:0001a330  CallExpr_
0002:0001a380  OptMemAddr_
0002:0001a3b0  SetTokens_
0002:0001a3d0  LangInit_
0002:0001a3f0  LangFini_
0002:0001a4f0  LangLoad_
Module: dbgprint.obj(/mnt/sda5/.user/root/src/openwatcom-1.9/bld/wv/c/dbgprint.c)
0002:0001a530  StartPrintBuff_
0002:0001a5c0  EndPrintBuff_
0002:0001ac60  PrintChar_
0002:0001ad80  PrintString_
0002:0001ad90  ForcePrintString_
0002:0001b700  PrintValue_
0002:0001ba00  DoPrintList_
0002:0001ba30  ChkPrintList_
0002:0001baa0  ProcPrint_
Module: dbgreg.obj(/mnt/sda5/.user/root/src/openwatcom-1.9/bld/wv/c/dbgreg.c)
0002:0001bb50  DefAddr_
0002:0001bbd0  GetRegIP_
0002:0001bc00  SetRegIP_
0002:0001bc40  RecordSetRegIP_
0002:0001bc90  SetRegSP_
0002:0001bcc0+ SetRegBP_
0002:0001bcf0  GetRegSP_
0002:0001bd30  GetRegBP_
0002:0001be60  SetMemBefore_
0002:0001be90  SetMemAfter_
0002:0001bfd0  ResizeRegData_
0002:0001c1c0  ClearMachState_
0002:0001c250  InitMachState_
0002:0001c2a0  FiniMachState_
0002:0001c2d0  SetupMachState_
0002:0001c360  CopyMachState_
0002:0001c3c0  AllocMachState_
0002:0001c420  FreeMachState_
0002:0001c440  CollapseMachState_
0002:0001c4e0  CheckStackPos_
0002:0001c560  AdvMachState_
0002:0001c670  ChangeMem_
0002:0001c750  UndoLevel_
0002:0001c7a0  SetStackPos_
0002:0001c890  GetStackPos_
0002:0001c990  LastMachState_
0002:0001c9a0  PosMachState_
0002:0001cb10  LastStackPos_
0002:0001cb20  MoveStackPos_
0002:0001cb50  ProcRegister_
0002:0001cb90  ProcUndo_
0002:0001cbf0* GetActionString_
0002:0001cc30* GetUndoString_
0002:0001cc50* GetRedoString_
0002:0001cc80  ProcStackPos_
0002:0001ccc0  GoHome_
0002:0001cd00  ParseRegSet_
0002:0001cdf0  RegValue_
0002:0001ce40  RegNewValue_
0003:00000ac0  _CurrRegSize
Module: dbgscan.obj(/mnt/sda5/.user/root/src/openwatcom-1.9/bld/wv/c/dbgscan.c)
0002:0001d060  InitScan_
0002:0001d0b0  FiniScan_
0002:0001d0e0  ScanPos_
0002:0001d0f0  ScanLen_
0002:0001d100  ScanCmd_
0002:0001d290  ScanType_
0002:0001d300  ScanCall_
0002:0001d380  ScanEOC_
0002:0001d3f0  TokenName_
0002:0001d4d0  Recog_
0002:0001d530  ScanQuote_
0002:0001d5a0  ScanItem_
0002:0001d660  ReqEOC_
0002:0001d690  FlushEOC_
0002:0001d9d0  NamePos_
0002:0001d9e0  NameLen_
0002:0001db50  ScanExpr_
0002:0001db80  AddChar_
0002:0001db90  AddCEscapeChar_
0002:0001dbb0  AddActualChar_
0002:0001dd20  RawScanInit_
0002:0001dd40  RawScanChar_
0002:0001dd50  RawScanAdvance_
0002:0001dd70  RawScanFini_
0002:0001dd80  Scan_
0002:0001ddb0  IntNumVal_
0002:0001ddd0  RealNumVal_
0002:0001ddf0  NewCurrRadix_
0002:0001de10  SetCurrRadix_
0002:0001de30  RestoreRadix_
0002:0001de50  ReScan_
0002:0001de70  DefaultRadixSet_
0002:0001de90  RadixSet_
0002:0001df30  RadixConf_
0002:0001df60  FindRadixSpec_
0002:0001dfa0  AddHexSpec_
0002:0001e000  ForceSym2Num_
0003:00000ad6  _scan_string
0003:00000ad8  _StringStart
0003:00000adc  _StringLength
0003:00000ae0  _ScanCCharNum
Module: dbgshow.obj(/mnt/sda5/.user/root/src/openwatcom-1.9/bld/wv/c/dbgshow.c)
0002:0001e090  GetCmdEntry_
0002:0001e0d0  ConfigCmdList_
0002:0001e1e0  ConfigLine_
0002:0001e240  DoConfig_
0002:0001e370  ProcShow_
0002:0001e3d0  SaveConfigToFile_
0002:0001e3e0  RestoreConfigFromFile_
Module: dbgsrc.obj(/mnt/sda5/.user/root/src/openwatcom-1.9/bld/wv/c/dbgsrc.c)
0002:0001e400  FreeRing_
0002:0001e420  InitSource_
0002:0001e430  FiniSource_
0002:0001e450  DeleteRing_
0002:0001e4a0  InsertRing_
0002:0001e4f0  RingEnd_
0002:0001e500  AddSourceSpec_
0002:0001e530  SourceName_
0002:0001e540  NextSourceSpec_
0002:0001e550  SourceSet_
0002:0001e620  SourceConf_
0002:0001e680  OpenSrcFile_
Module: dbgstdio.obj(/mnt/sda5/.user/root/src/openwatcom-1.9/bld/wv/c/dbgstdio.c)
0002:0001e8c0  StdInNew_
0002:0001e8d0  StdOutNew_
Module: dbgsys.obj(/mnt/sda5/.user/root/src/openwatcom-1.9/bld/wv/c/dbgsys.c)
0002:0001e8e0  DoSystem_
0002:0001e970  ProcSystem_
Module: dbgutil.obj(/mnt/sda5/.user/root/src/openwatcom-1.9/bld/wv/c/dbgutil.c)
0002:0001e9f0  DefaultSize_
0002:0001eb10  CnvULongHex_
0002:0001eb30  CnvLongDec_
0002:0001eb50  CnvULongDec_
0002:0001eb70  CnvLong_
0002:0001eb90  CnvULong_
0002:0001ebb0  AddrTypeToString_
0002:0001ec20  AddrToIOString_
0002:0001ec60  AddrToString_
0002:0001eca0  QualifiedSymName_
0002:0001ed80  CnvAddr_
0002:0001eee0  CnvNearestAddr_
0002:0001ef30  StrAddr_
0002:0001ef60  UniqStrAddr_
0002:0001ef90  LineAddr_
0002:0001f030  Ring_
0002:0001f040  Warn_
0002:0001f090  AllocCmdList_
0002:0001f0d0  FreeCmdList_
0002:0001f0f0  LockCmdList_
0002:0001f100  TypeInpStack_
0002:0001f120  ClearInpStack_
0002:0001f140  SetInpStack_
0002:0001f160  PopInpStack_
0002:0001f1c0  PushInpStack_
0002:0001f290  CopyInpFlags_
0002:0001f2f0  PushCmdList_
0002:0001f310  PurgeInpStack_
0002:0001f350  FreezeInpStack_
0002:0001f370  UnAsm_
0002:0001f3c0  ModImageName_
0002:0001f3f0  DupStrLen_
0002:0001f440  DupStr_
0002:0001f470  RegFindData_
Module: dbg_dbg.obj(/mnt/sda5/.user/root/src/openwatcom-1.9/bld/wv/c/dbg_dbg.c)
0002:0001f9a0  LookupRegName_
0002:0001fa00  LookupInternalName_
0002:0001fa80  LookupUserName_
0002:0001fae0  PurgeUserNames_
0002:0001fb20  CreateSym_
0002:0001fca0  InternalValue_
Module: dbgprog.obj(/mnt/sda5/.user/root/src/openwatcom-1.9/bld/wv/c/dbgprog.c)
0002:0001ff10  InitCmd_
0002:000200a0  FindLocalDebugInfo_
0002:00020250* DownLoadCode_
0002:00020260  FiniCmd_
0002:00020270  InitLocalInfo_
0002:00020280  FiniLocalInfo_
0002:000202a0  ImagePrimary_
0002:000202b0  ImageEntry_
0002:000202c0  DefAddrSpaceForMod_
0002:00020320  DefAddrSpaceForAddr_
0002:000203b0  MapAddrForImage_
0002:00020480  UnMapAddress_
0002:00020580  UnMapPoints_
0002:000205c0  FreeImage_
0002:00020740  GetLastImageName_
0002:00020bb0  UnLoadSymInfo_
0002:00020bf0  ReLoadSymInfo_
0002:00020c20  ReMapImageAddress_
0002:00020c90+ ReMapAddress_
0002:00020e50  ReMapPoints_
0002:00020f10* LoadDeferredSymbols_
0002:00020f70  AddLibInfo_
0002:00021080  SetProgStartHook_
0002:00021280  LoadProg_
0002:00021310  ReleaseProgOvlay_
0002:000213c0  InitMappableAddr_
0002:000213d0  FiniMappableAddr_
0002:000213f0  GetProgName_
0002:00021580  GetProgArgs_
0002:00021590* SetSymName_
0002:00021680  LoadNewProg_
0002:000219f0  ReStart_
0002:00022010  SymUserModLoad_
0002:000220f0  SymUserModUnload_
0002:00022140  ProcNew_
0002:00022170  RecordNewProg_
0003:00006810+ _LocalDebugInfo
Module: strutil.obj(/mnt/sda5/.user/root/src/openwatcom-1.9/bld/wv/c/strutil.c)
0002:00022230  StrCopy_
0002:00022250  StrTrim_
0002:00022290  FmtStr_
0002:000225b0  Format_
Module: stub.obj(/mnt/sda5/.user/root/src/openwatcom-1.9/bld/wv/c/stub.c)
0002:000225e0* __RAISE
0002:000225f0* _matherr_
Module: dbgwalk.obj(/mnt/sda5/.user/root/src/openwatcom-1.9/bld/wv/c/dbgwalk.c)
0002:000226b0  SSLWalk_
Module: dynmem.obj(/mnt/sda5/.user/root/src/openwatcom-1.9/bld/wv/c/dynmem.c)
0002:00022950  __nmemneed_
0002:00022980  ExtraAlloc_
0002:00022980  DbgAlloc_
0002:00022990  DbgMustAlloc_
0002:000229c0* ExtraRealloc_
0002:000229c0  DbgRealloc_
0002:000229d0  DbgFree_
0002:000229e0  ChkAlloc_
0002:00022a00  MemFini_
0002:00022ae0* MemExpand_
0002:00022ae0  MemInit_
0002:00022b40  ExtraFree_
Module: dbgsem.obj(/mnt/sda5/.user/root/src/openwatcom-1.9/bld/wv/c/dbgsem.c)
0003:00007094  _ScanSavePtr
0002:000241d0* SemAllowClosestLine_
0002:00024740  SSLSemantic_
0002:00024800  SSLError_
0002:00024830  SSLOutToken_
0002:00024960  SSLNextToken_
0002:00024970  SSLCurrToken_
Module: dbgtrace.obj(/mnt/sda5/.user/root/src/openwatcom-1.9/bld/wv/c/dbgtrace.c)
0002:00024990  ResizeTraceData_
0002:00024a90  TraceStart_
0002:00024ab0  TraceHow_
0002:00024bd0  TraceSimulate_
0002:00024c10  TraceModifications_
0002:00024c60  TraceStop_
0002:00024c70  TraceKill_
0002:00024cc0  SourceStep_
0002:00024f00+ CheckForDLLThunk_
0002:00024f90  TraceCheck_
0002:000253e0+ PerformTrace_
0002:000255f0  HasLineInfo_
0002:00025640  ExecTrace_
0002:00025760  ProcTrace_
0002:00025860  FiniTrace_
0002:000258a0  LevelSet_
0002:000258f0  LevelConf_
Module: dbgexins.obj(/mnt/sda5/.user/root/src/openwatcom-1.9/bld/wv/c/dbgexins.c)
0002:00025920  AsmExam_
0002:00025950  SrcExam_
Module: dbgexdat.obj(/mnt/sda5/.user/root/src/openwatcom-1.9/bld/wv/c/dbgexdat.c)
0002:00025ad0  ProcExamine_
Module: dbgmodfy.obj(/mnt/sda5/.user/root/src/openwatcom-1.9/bld/wv/c/dbgmodfy.c)
0002:00025c30  ProcModify_
Module: dbgtback.obj(/mnt/sda5/.user/root/src/openwatcom-1.9/bld/wv/c/dbgtback.c)
0002:00025cd0  FixOvlRetAddr_
0002:00025d10  WalkCallChain_
0002:00025f30  ReturnAddress_
Module: dbgerr.obj(/mnt/sda5/.user/root/src/openwatcom-1.9/bld/wv/c/dbgerr.c)
0002:00025f80  Error_
0002:000261b0  PrevError_
Module: namelist.obj(/mnt/sda5/.user/root/src/openwatcom-1.9/bld/wv/c/namelist.c)
0002:00026530  NameListAddModules_
0002:00026600  NameListInit_
0002:00026620  NameListFree_
0002:00026650  NameListNumRows_
0002:00026660  NameListName_
0002:000266c0  NameListAddr_
0002:00026710  NameListHandle_
Module: modlist.obj(/mnt/sda5/.user/root/src/openwatcom-1.9/bld/wv/c/modlist.c)
0002:00026720  ModHasSourceInfo_
0002:000267f0  ModCompare_
0002:000268a0  ModListAddModules_
0002:00026930  ModListInit_
0002:00026970  ModListFree_
0002:000269a0  ModListNumRows_
0002:000269b0  ModListMod_
0002:000269d0  ModListName_
0002:00026a00  ModFirstAddr_
Module: sortlist.obj(/mnt/sda5/.user/root/src/openwatcom-1.9/bld/watcom/c/sortlist.c)
0002:00026c40  SortLinkedList_
Module: remmisc.obj(/mnt/sda5/.user/root/src/openwatcom-1.9/bld/wv/c/remmisc.c)
0003:000070fc  _MaxPacketLen
0002:00026c90  InitSuppServices_
0002:00026cc0  FiniSuppServices_
0002:00026cd0  InitTrap_
0002:00026e50  GetSuppId_
0002:00026ed0  RemoteSuspend_
0002:00026f00  RemoteResume_
0002:00026f30  RemoteErrMsg_
0002:00026f60  FiniTrap_
Module: remcore.obj(/mnt/sda5/.user/root/src/openwatcom-1.9/bld/wv/c/remcore.c)
0002:000270c0  FiniCache_
0002:000270e0  InitCache_
0002:00027140* HaveCache_
0002:000271e0  ProgPeek_
0002:00027220  ProgPoke_
0002:00027320* ProgChkSum_
0002:00027380  PortPeek_
0002:000273c0  PortPoke_
0002:00027470  ReadDbgRegs_
0002:000274a0  WriteDbgRegs_
0002:00027510+ ArgsLen_
0002:00027530  ClearMachineDataCache_
0002:00027550  DoLoad_
0002:000276b0  KillProgOvlay_
0002:00027730  MakeProgRun_
0002:00027800  Redirect_
0002:00027880  RemoteMapAddr_
0002:000278e0  RemoteSetUserScreen_
0002:00027910  RemoteSetDebugScreen_
0002:00027940  RemoteReadUserKey_
0002:00027970  RemoteGetLibName_
0002:000279d0  RemoteGetMsgText_
0002:00027a30  RemoteMachineData_
0002:00027ba0  RemoteSetBreak_
0002:00027bf0  RemoteRestoreBreak_
0002:00027c40  RemoteSetWatch_
0002:00027ca0  RemoteRestoreWatch_
0002:00027cf0  RemoteSplitCmd_
0002:00027d70  CheckSegAlias_
0002:00027dc0  GetSysConfig_
0002:00027df0  InitCoreSupp_
0002:00027e40  FiniCoreSupp_
0002:00027e70  TrapClientString_
Module: remfinfo.obj(/mnt/sda5/.user/root/src/openwatcom-1.9/bld/wv/c/remfinfo.c)
0002:00027eb0  InitFileInfoSupp_
0002:00027ed0  RemoteGetFileDate_
0002:00027f80  RemoteSetFileDate_
Module: remenv.obj(/mnt/sda5/.user/root/src/openwatcom-1.9/bld/wv/c/remenv.c)
0002:00028030  InitEnvSupp_
0002:00028050* RemoteSetEnvironmentVariable_
0002:00028100* RemoteGetEnvironmentVariable_
Module: remfile.obj(/mnt/sda5/.user/root/src/openwatcom-1.9/bld/wv/c/remfile.c)
0002:000281c0+ GetCachedHandle_
0002:00028200+ InitHandleCache_
0002:00028230+ AddCachedHandle_
0002:00028270+ DelCachedHandle_
0002:000282c0  InitFileSupp_
0002:00028310  HaveRemoteFiles_
0002:00028320  RemoteStringToFullName_
0002:00028410  RemoteOpen_
0002:000285b0  MaxRemoteWriteSize_
0002:00028630  RemoteWrite_
0002:00028650  RemoteWriteConsole_
0002:00028710* MaxRemoteReadSize_
0002:00028720  RemoteRead_
0002:000287b0  RemoteSeek_
0002:00028840  RemoteClose_
0002:000288c0  RemoteErase_
0002:00028950  RemoteFork_
0003:000071a0  _RemFile
Module: remthrd.obj(/mnt/sda5/.user/root/src/openwatcom-1.9/bld/wv/c/remthrd.c)
0002:000289e0  InitThreadSupp_
0002:00028a00  RemoteGetNextThread_
0002:00028a70  RemoteSetThreadWithErr_
0002:00028af0  RemoteSetThread_
0002:00028b00  RemoteFreezeThread_
0002:00028b50  RemoteThawThread_
0002:00028ba0  RemoteThdName_
0003:000071a8+ _SuppThreadId
Module: removl.obj(/mnt/sda5/.user/root/src/openwatcom-1.9/bld/wv/c/removl.c)
0002:00028c00  InitOvlSupp_
0002:00028c20  RemoteOvlSectSize_
0002:00028c70  RemoteOvlSectPos_
0002:00028d70  RemoteSectTblRead_
0002:00028db0  RemoteSectTblWrite_
0002:00028e10  RemoteOvlTransAddr_
0002:00028ed0  RemoteOvlRetAddr_
Module: ldsupp.obj(/mnt/sda5/.user/root/src/openwatcom-1.9/bld/wv/c/ldsupp.c)
0002:00028fc0  LDToD_
0002:00028ff0  DToLD_
0002:00029020  LDToS_
0002:00029070  SToLD_
0002:00029090  LDCmp_
0002:000290d0  LDAdd_
0002:00029100  LDSub_
0002:00029130  LDMul_
0002:00029160  LDDiv_
Module: doserr.obj(/mnt/sda5/.user/root/src/openwatcom-1.9/bld/wv/c/doserr.c)
0002:000291a0  GetDOSErrMsg_
0003:00000bfc+ _DosErrMsgs
Module: diginter.obj(/mnt/sda5/.user/root/src/openwatcom-1.9/bld/wv/c/diginter.c)
0002:000291d0  DIGCliAlloc_
0002:000291e0  DIGCliRealloc_
0002:000291f0  DIGCliFree_
0002:00029200  DIGCliOpen_
0002:00029210  DIGCliSeek_
0002:00029220  DIGCliRead_
0002:00029230  DIGCliWrite_
0002:00029240  DIGCliClose_
0002:00029250  DIGCliRemove_
0002:00029260  DIGCliMachineData_
Module: dipinter.obj(/mnt/sda5/.user/root/src/openwatcom-1.9/bld/wv/c/dipinter.c)
0002:000292c0  DIPCliImageUnload_
0002:000292e0  DIPCliMapAddr_
0002:000292f0  DIPCliSymCreate_
0002:00029320  MadTypeToDipTypeInfo_
0002:00029390  RegLocation_
0002:000293f0  DIPCliItemLocation_
0002:00029660  DIPCliAssignLocation_
0002:00029670  DIPCliSameAddrSpace_
0002:000296a0  DIPCliAddrSection_
0002:000296b0  DIPCliStatus_
0002:000296c0  DIPCliCurrMAD_
0002:000296d0  DeAliasAddrMod_
0002:00029700  DeAliasAddrSym_
0002:00029730  DeAliasAddrScope_
0002:00029760  DeAliasAddrCue_
0002:000299f0+ WVSymFreeAll_
0002:000299f0+ WVSymRelease_
0002:000299f0+ WVSymAddRef_
0002:000299f0+ WVTypeFreeAll_
0002:000299f0+ WVTypeRelease_
0002:000299f0+ WVTypeAddRef_
0002:00029b50  DIPMsgText_
0002:00029bd0  InitDbgInfo_
0002:00029ce0  FiniDbgInfo_
0002:00029cf0  IsInternalMod_
0002:00029d00  IsInternalModName_
Module: madinter.obj(/mnt/sda5/.user/root/src/openwatcom-1.9/bld/wv/c/madinter.c)
0002:00029d30  MADCliAddrSection_
0002:00029d40  MADCliAddrOvlReturn_
0002:00029d50  MADCliAddrToString_
0002:00029dc0  MADCliMemExpr_
0002:00029e20  MADCliReadMem_
0002:00029e50  MADCliWriteMem_
0002:00029e80  MADCliString_
0002:00029ee0  MADCliAddString_
0002:00029ef0  MADCliRadixPrefix_
0002:00029f90  MADCliNotify_
0002:00029ff0  MADCliSystemConfig_
0002:0002a000  InitMADInfo_
0002:0002a020  FiniMADInfo_
0002:0002a030  GetMADTypeHandleDefaultAt_
0002:0002a060  GetMADTypeDefaultAt_
0002:0002a090  GetMADTypeDefault_
0002:0002a0f0  ReportMADFailure_
0002:0002a200  CheckMADChange_
0002:0002a330  GetMADNormalizedString_
0002:0002a350  GetMADTypeNameForCmd_
0002:0002a3a0  FindMADTypeHandle_
0002:0002a450  FindMAD_
Module: dbglit.obj(/mnt/sda5/.user/root/src/openwatcom-1.9/bld/wv/c/dbglit.c)
0002:0002a480  InitLiterals_
0002:0002a490  FiniLiterals_
Module: dbginsty.obj(/mnt/sda5/.user/root/src/openwatcom-1.9/bld/wv/c/dbginsty.c)
0002:0002a4b0  BreakOnSelected_
0002:0002a4e0  ScanSelectedExpr_
0002:0002a530  WndGetExprSPInspectType_
0002:0002a6c0  WndEvalInspectExpr_
Module: dbgdata.obj(/mnt/sda5/.user/root/src/openwatcom-1.9/bld/wv/c/dbgdata.c)
0003:000071c0  _DbgTmpBrk
0003:00007230  _SysConfig
0003:00007238  _UserTmpBrk
0003:000072a8  _NilAddr
0003:000072b0  _PgmStackUsage
0003:000072d8  _DipFiles
0003:00007300  _Context
0003:000073f0  _TxtBuff
0003:000073f4  _NameBuff
0003:000073f8  _SrchHistory
0003:000073fc  _InpStack
0003:00007400  _ContextMod
0003:00007404  _CodeAddrMod
0003:00007408  _ExecThd
0003:0000740c  _MemSize
0003:00007410  _OvlSize
0003:00007414  _CheckSize
0003:00007418  _CmdStart
0003:0000741c  _CmdHistory
0003:00007420  _DbgImageList
0003:00007424  _TaskId
0003:00007428  _SkipCount
0003:0000742c  _BrkList
0003:00007430  _HeadThd
0003:00007434  _InvCount
0003:00007438  _InvokeFile
0003:0000743c  _DbgRegs
0003:00007440  _SrcSpec
0003:00007444  _ExprAddrDepth
0003:00007448  _PrevRegs
0003:0000744c  _TrpFile
0003:00007450  _InitCmdList
0003:00007454  _DbgSwitches
0003:00007460  _DIPStatus
0003:00007462  _CurrRadix
0003:00007463  _DbgLevel
0003:00007464  _ActiveWindowLevel
0003:00000ee8  _Supports8ByteBreakpoints
0003:00000eec  _SupportsExactBreakpoints
0003:00000ef0  _Language
0003:00000ef4  _NestedCallLevel
0003:00000ef8  _WndFlags
0003:00000efc  _DbgBuffers
0003:00001326  _OnOffNameTab
0003:00007465  _DefRadix
0003:00007466  _CurrToken
0003:00007467  _ScrnState
Module: dbgevent.obj(/mnt/sda5/.user/root/src/openwatcom-1.9/bld/wv/c/dbgevent.c)
0002:0002a820  RecordInit_
0002:0002a830  RecordFini_
0002:0002a860  ShowReplay_
0002:0002a8b0  OkToSaveReplay_
0002:0002a8d0  SaveReplayToFile_
0002:0002a8e0  RestoreReplayFromFile_
0002:0002a990  ProcRecord_
0002:0002aa10  RecordStart_
0002:0002aa40  ReplayTo_
0002:0002ab10  CheckEventRecorded_
0002:0002ab40  RecordEvent_
0002:0002ac70  RecordAsynchEvent_
0002:0002ac90  RecordGo_
0002:0002acc0  RecordCommand_
0002:0002ad10  SetRecord_
0002:0002ad30  GetEventAddress_
0003:0000746c  _EventList
Module: dbgdll.obj(/mnt/sda5/.user/root/src/openwatcom-1.9/bld/wv/c/dbgdll.c)
0002:0002ad90  DLLMatch_
0002:0002ae00  DLLListName_
0002:0002ae10  NextDLLList_
0002:0002ae20  AddDLLList_
0002:0002ae50  BreakOnImageLoad_
0002:0002aeb0  InitDLLList_
0002:0002aec0  FiniDLLList_
0002:0002aee0  RecordClearDLLBreaks_
0002:0002af20  RecordSetDLLBreaks_
0003:00007470  _DLLList
Module: dlgscan.obj(/mnt/sda5/.user/root/src/openwatcom-1.9/bld/wv/c/dlgscan.c)
0002:0002b0c0  DlgScanLong_
0002:0002b0d0* DlgScanSyntax_
0002:0002b0f0  DlgScanCodeAddr_
0002:0002b100  DlgScanDataAddr_
0002:0002b110  DlgScanGivenAddr_
0002:0002b120  DlgScanAny_
0002:0002b130  DlgScanString_
0002:0002b160  DlgScanModName_
Module: dbgset.obj(/mnt/sda5/.user/root/src/openwatcom-1.9/bld/wv/c/dbgset.c)
0002:0002b1f0  SwitchOnOff_
0002:0002b250  ProcSet_
0002:0002b270  ConfigSet_
0002:0002b420  ShowSwitch_
0002:0002b450  LangSetInit_
0002:0002b4a0  LangSetFini_
0002:0002b4b0  NewLang_
0002:0002bb30  PendingToggles_
0002:0002c260  SupportFini_
0002:0002c3c0  IsSupportRoutine_
Module: srcmgt.obj(/mnt/sda5/.user/root/src/openwatcom-1.9/bld/watcom/c/srcmgt.c)
0002:0002c4a0  FClearOpenSourceCache_
0002:0002c4c0  FOpenSource_
0002:0002c550  FSize_
0002:0002c580  FLastOffset_
0002:0002c5a0  FileIsRemote_
0002:0002c5c0  FGetName_
0002:0002c5d0  FDoneSource_
0002:0002c7e0  FCurrLine_
0002:0002c7f0  FReadLine_
0003:0000157c+ _FileList
Module: dbgupdt.obj(/mnt/sda5/.user/root/src/openwatcom-1.9/bld/wv/c/dbgupdt.c)
0002:0002c950  DbgUpdate_
Module: symcomp.obj(/mnt/sda5/.user/root/src/openwatcom-1.9/bld/wv/c/symcomp.c)
0002:0002ca60  SymCompInit_
0002:0002cb70  SymCompFini_
0002:0002cba0  SymCompMatches_
0003:00001580+ _SortedNames
Module: litengin.obj(/mnt/sda5/.user/root/src/openwatcom-1.9/bld/wv/c/litengin.c)
0003:0000748c  __LITMSTR_REG_USER
0003:00007490  __LITMSTR_SIGNED
0003:00007494  __LITMSTR_HALF
0003:00007498  __LITMSTR_HWORD
0003:0000749c  __LITMSTR_MMX
0003:000074a0  __LITMSTR_XMM
0003:000074a4  __LITMSTR_UNSIGNED
0003:000074a8  __LITMSTR_DBLW
0003:000074ac  __LITMSTR_INT
0003:000074b0  __LITMSTR_MPSEUDOINS
0003:000074b4  __LITMSTR_REG_SYMBOLIC
0003:000074b8  __LITMSTR_MVAX
0003:000074bc  __LITMSTR_F_FLOAT
0003:000074c0  __LITMSTR_G_FLOAT
0003:000074c4  __LITMSTR_D_FLOAT
0003:000074c8  __LITMSTR_VAX
0003:000074cc  __LITMSTR_REG_NUMERIC
0003:000074d0  __LITMSTR_IEEE
0003:000074d4  __LITMSTR_PSEUDOINS
0003:000074d8  __LITMSTR_MSYMBOLIC
0003:000074dc  __LITMSTR_INT64
0003:000074e0  __LITMSTR_N64_PTR
0003:000074e4  __LITMSTR_AFFINE
0003:000074e8  __LITMSTR_PROJECTIVE
0003:000074ec  __LITMSTR_RAWINS
0003:000074f0  __LITMSTR_MOS
0003:000074f4  __LITMSTR_REG_OS
0003:000074f8  __LITMSTR_UNSIGNED64
0003:000074fc  __LITMSTR_PCDOUBLE
0003:00007500  __LITMSTR_DOWN
0003:00007504  __LITMSTR_UP
0003:00007508  __LITMSTR_CHOP
0003:0000750c  __LITMSTR_ZERO
0003:00007510  __LITMSTR_PCEXTENDED
0003:00007514  __LITMSTR_EMPTY
0003:00007518  __LITMSTR_HEX
0003:0000751c  __LITMSTR_REG_NORMAL
0003:00007520  __LITMSTR_REG_EXTENDED
0003:00007524  __LITMSTR_PCZERO
0003:00007528  __LITMSTR_VALID
0003:0000752c  __LITMSTR_MHEX
0003:00007530  __LITMSTR_SPECIAL
0003:00007534  __LITMSTR_PCSINGLE
0003:00007538  __LITMSTR_EMULATOR
0003:0000753c  __LITMSTR_DECIMAL
0003:00007540  __LITMSTR_MEXTENDED
0003:00007544  __LITMSTR_NEAREST
0003:00007548  __LITMSTR_UPPER
0003:0000754c  __LITMSTR_MINSIDE
0003:00007550  __LITMSTR_OUTSIDE
0003:00007554  __LITMSTR_MUPPER
0003:00007558  __LITMSTR_INSIDE
0003:0000755c  __LITMSTR_FPU
0003:00007560  __LITMSTR_FAR
0003:00007564  __LITMSTR_LOWER
0003:00007568  __LITMSTR_INTERRUPT
0003:0000756c  __LITMSTR_FLOAT
0003:00007570  __LITMSTR_N32_PTR
0003:00007574  __LITMSTR_CPU
0003:00007578  __LITMSTR_F32_PTR
0003:0000757c  __LITMSTR_N16_PTR
0003:00007580  __LITMSTR_NONE
0003:00007584  __LITMSTR_F16_PTR
0003:00007588  __LITMSTR_EXTENDED
0003:0000758c  __LITMSTR_DOUBLE
0003:00007590  __LITMSTR_NEAR
0003:00007594  __LITERR_CANT_RESTART
0003:00007598  __LITMSTR_CHAR
0003:0000759c  __LITMSTR_UCHAR
0003:000075a0  __LITMSTR_QWORD
0003:000075a4  __LITERR_NEAR_TOKEN
0003:000075a8  __LITERR_AMBIG_SRC_FILE
0003:000075ac  __LITMSTR_NIL
0003:000075b0  __LITMSTR_LWORD
0003:000075b4  __LITERR_NO_SRC_FILE
0003:000075b8  __LITMSTR_LONG
0003:000075bc  __LITERR_BAD_PARSE_VERSION
0003:000075c0  __LITMSTR_ULONG
0003:000075c4  __LITERR_WANT_MODULE
0003:000075c8  __LITERR_REMOTE_LINK_BROKEN
0003:000075cc  __LITMSTR_WORD
0003:000075d0  __LITMSTR_DWORD
0003:000075d4  __LITMSTR_SHORT
0003:000075d8  __LITMSTR_BYTE
0003:000075dc  __LITMSTR_USHORT
0003:000075e0  __LITERR_NO_RETURN_ADDRESS
0003:000075e4  __LITERR_CALL_NOT_ALLOWED
0003:000075e8  __LITERR_NO_ACCESS
0003:000075ec  __LITERR_NO_OBJECT_FOR_CALL
0003:000075f0  __LITERR_CANT_KILL_PROGRAM
0003:000075f4  __LITERR_NO_IMAGE
0003:000075f8  __LITERR_EXECUTING_AT
0003:000075fc  __LITERR_NOT_PRINTABLE
0003:00007600  __LITERR_STK_UNDERFL
0003:00007604  __LITERR_TOO_MANY_SCANRESTORE
0003:00007608  __LITERR_PARSE_FILE
0003:0000760c  __LITERR_INVALID_OPERATOR
0003:00007610  __LITERR_NOT_WATCH_SIZE
0003:00007614  __LITERR_CALLED_FROM
0003:00007618  __LITERR_STK_OVERFL
0003:0000761c  __LITERR_NEAR_END_OF_LINE
0003:00007620  __LITERR_BAD_HOOK
0003:00007624  __LITERR_NEAR_END_OF_COMMAND
0003:00007628  __LITERR_TOO_MANY_SCANSAVE
0003:0000762c  __LITERR_CHAR_STAR_STAR
0003:00007630  __LITERR_BAD_SUBSTRING_INDEX
0003:00007634  __LITERR_WANT_END_STRING
0003:00007638  __LITERR_EXPR_TOO_LONG
0003:0000763c  __LITERR_NO_OVL_STATE
0003:00007640  __LITERR_NO_READ_PORT
0003:00007644  __LITERR_ZERO_MOD
0003:00007648  __LITERR_NO_LANG
0003:0000764c  __LITERR_NO_WRITE_MEM
0003:00007650  __LITERR_ZERO_DIV
0003:00007654  __LITERR_NO_WRITE_PORT
0003:00007658  __LITERR_NO_MAKE_CURR_THREAD
0003:0000765c  __LITERR_WANT_COMMAND_LIST
0003:00007660  __LITERR_NO_READ_MEM
0003:00007664  __LITERR_TOO_MANY_CALLS
0003:00007668  __LITERR_NO_SUCH_THREAD
0003:0000766c  __LITERR_EXPR_STACK_OVER
0003:00007670  __LITERR_CANT_SET_ALL_THREADS
0003:00007674  __LITERR_DBG_INTERRUPT
0003:00007678  __LITERR_UNKNOWN_SYMBOL
0003:0000767c  __LITERR_NO_SUCH_POINT
0003:00007680  __LITERR_VOID_BASE
0003:00007684  __LITERR_NO_SOURCE_INFO
0003:00007688  __LITERR_SYS_FAIL
0003:0000768c  __LITERR_CANNOT_RESTORE_STDOUT
0003:00007690  __LITERR_FILE_NOT_OPEN
0003:00007694  __LITERR_NEED_ADDRESS
0003:00007698  __LITERR_SYM_NOT_CREATED
0003:0000769c  __LITERR_INCONSISTENT_GO
0003:000076a0  __LITERR_NO_ROUTINE
0003:000076a4  __LITERR_POINT_EXISTS
0003:000076a8  __LITERR_TOO_MANY_PARMS
0003:000076ac  __LITERR_DUPLICATE_TYPE_SPEC
0003:000076b0  __LITERR_ILL_TYPE
0003:000076b4  __LITERR_CANNOT_RESTORE_STDIN
0003:000076b8  __LITERR_ILLEGAL_TYPE_SPEC
0003:000076bc  __LITERR_NO_MODULE
0003:000076c0  __LITERR_TYPE_CONVERSION
0003:000076c4  __LITERR_WANT_EOC
0003:000076c8  __LITERR_NO_MEMORY_FOR_EXPR
0003:000076cc  __LITERR_NO_MEMORY_FOR_DEBUG
0003:000076d0  __LITERR_LOG_NOT_STARTED
0003:000076d4  __LITERR_LOG_STARTED
0003:000076d8  __LITERR_NO_MEMORY
0003:000076dc  __LITERR_WANT_ON_OFF
0003:000076e0  __LITERR_WANT_REG_NAME
0003:000076e4  __LITERR_NO_MEMORY_FOR_WINDOW
0003:000076e8  __LITERR_WANT_TOKEN
0003:000076ec  __LITERR_WANT_NAME
0003:000076f0  __LITERR_BAD_SUBCOMMAND
0003:000076f4  __LITERR_BAD_OPTION
0003:000076f8  __LITERR_NO_CODE
0003:000076fc  __LITERR_WANT_OPERAND
0003:00007700+ __LITERR_BAD_TYPE_NAME
0003:00007704  __LITERR_WANT_FILENAME
0003:00007708  __LITERR_BAD_CALL_TYPE
0003:0000770c  __LITERR_WANT_LOOKUP_ITEM
0003:00007710  __LITLDS_INFO_BAD_VERSION
0003:00007714  __LITIO
0003:00007718  __LITBAD_TRAP_FILE
0003:0000771c  __LITLDS_INFO_INVALID
0003:00007720  __LITDIP_load_failed
0003:00007724  __LITNo_DIPs_Found
0003:00007728  __LITLMS_FREAD_FAILED
0003:0000772c  __LITSym_Info_Load_Failed
0003:00007730  __LITERR_GENERIC
0003:00007734  __LITLMS_INVALID_MAD_VERSION
0003:00007738  __LITLDS_INVALID_DIP
0003:0000773c  __LITERR_BAD_COMMAND
0003:00007740  __LITOUT_OF_DOS_MEMORY
0003:00007744  __LITINCORRECT_TRAP_FILE_VERSION
0003:00007748  __LITLMS_UNREGISTERED_MAD
0003:0000774c  __LITERR_BAD_RADIX
0003:00007750  __LITLMS_INVALID_MAD
0003:00007754  __LITCANT_LOAD_TRAP_FILE
0003:00007758  __LITLMS_RECURSIVE_MAD_FAILURE
0003:0000775c  __LITStr_ACTION_MODIFY_REGISTER
0003:00007760  __LITUnknown_type
0003:00007764  __LITLDS_INVALID_DIP_VERSION
0003:00007768  __LITStr_ACTION_MODIFY_MEMORY
0003:0000776c  __LITfield
0003:00007770  __LITinherited_members
0003:00007774  __LITLDS_FSEEK_FAILED
0003:00007778  __LITLDS_FREAD_FAILED
0003:0000777c  __LITLDS_FWRITE_FAILED
0003:00007780  __LITStr_ACTION_THREAD_CHANGE
0003:00007784  __LITLDS_TOO_MANY_DIPS
0003:00007788  __LITStr_ACTION_MODIFY_IP
0003:0000778c  __LITLDS_NO_MEM
0003:00007790  __LITStr_ACTION_ASSIGNMENT
0003:00007794  __LITStr_ACTION_MODIFY_VARIABLE
0003:00007798  __LITStr_ACTION_EXECUTE
0003:0000779c  __LITImage_Not_Loaded
0003:000077a0  __LITLDS_FOPEN_FAILED
0003:000077a4  __LITStruct
0003:000077a8  __LITTask_Exception
0003:000077ac  __LITUser_Interupt
0003:000077b0  __LITDead
0003:000077b4  __LITNo_Visible_Members
0003:000077b8  __LITBottom_Of_Stack
0003:000077bc  __LITThread_Not_Exist
0003:000077c0  __LITRunnable
0003:000077c4  __LITTop_Of_Stack
0003:000077c8  __LITDLL_UnLoaded
0003:000077cc  __LITFrozen
0003:000077d0  __LITArray
0003:000077d4  __LITNew_Task
0003:000077d8  __LITNo_More_Undos
0003:000077dc  __LITCurrent
0003:000077e0  __LITNo_Task
0003:000077e4  __LITDLL_Loaded
0003:000077e8  __LITTask_Completed
0003:000077ec  __LITBreak_on_DLL_Load
0003:000077f0  __LITTask_Not_Loaded
0003:000077f4  __LITSTARTUP_No_Recog_Optn
0003:000077f8  __LITEnd_Of_Line
0003:000077fc+ __LITDebugger_Startup_Error
0003:00007800+ __LITMSG_Unexpected_Break
0003:00007804  __LITMap_Selector
0003:00007808  __LITSTARTUP_Expect_Eql
0003:0000780c  __LITInternal_Error
0003:00007810  __LITNewVal
0003:00007814  __LITSTARTUP_MAD_Not_Init
0003:00007818  __LITSTARTUP_Num_Too_Big
0003:0000781c  __LITSTARTUP_Expect_End_Env_Str
0003:00007820  __LITMap_Named_Selector
0003:00007824  __LITBreak_on_execute
0003:00007828  __LITNum_Name
0003:0000782c  __LITBreak_on_write
0003:00007830  __LITOldVal
0003:00007834  __LITNew_Expression
0003:00007838  __LITSym_Name_Name
0003:0000783c  __LITSTARTUP_Invalid_Num
0003:00007840  __LITWARN_ONLY_MAX_EXPAND_ARRAY_ELEMENTS
0003:00007844  __LITQuest_Marks
0003:00007848  __LITEmpty
0003:0000784c  __LITSTARTUP_Expect_Brace
0003:00007850  __LITSTARTUP_Loading_PRS
0003:00007854  __LITSTARTUP_Invalid_Option
0003:00007858  __LITSTARTUP_DIP_Not_Init
0003:0000785c  __LITSTARTUP_DIP_Not_Register
0003:00007860+ __LITWARN_Unable_To_Remap_Tmp
0002:0002cc50  InitEngineLiterals_
0002:0002dad0  FiniEngineLiterals_
0003:00007864  __LITWARN_No_Nxt_Src_Ln
Module: litwd.obj(/mnt/sda5/.user/root/src/openwatcom-1.9/bld/wv/c/litwd.c)
0003:00007868  __LITDOS_invalid_drive
0003:0000786c+ __LITUnable_to_get_rm_sel
0003:00007870+ __LITUnable_to_alloc_DOS_mem
0003:00007874  __LITDOS_remove_cd
0003:00007878  __LITDOS_invalid_data
0003:0000787c  __LITDOS_not_same_device
0003:00007880  __LITDOS_access_denied
0003:00007884  __LITDOS_too_many_open_files
0003:00007888  __LITDOS_invalid_format
0003:0000788c  __LITDOS_memory_control
0003:00007890  __LITDOS_invalid_address
0003:00007894+ __LITERR_NOT_PROCEDURE
0003:00007898  __LITDOS_invalid_environment
0003:0000789c  __LITDOS_path_not_found
0003:000078a0+ __LITERR_CANT_GET_RV
0003:000078a4  __LITDOS_invalid_handle
0003:000078a8  __LITDOS_invalid_access_code
0003:000078ac  __LITDOS_insufficient_memory
0003:000078b0  __LITDOS_invalid_function
0003:000078b4  __LITERR_RX_10
0003:000078b8  __LITERR_RX_11
0003:000078bc  __LITERR_RX_12
0003:000078c0  __LITERR_RX_13
0003:000078c4  __LITDOS_file_not_found
0003:000078c8  __LITERR_RX_9
0003:000078cc  __LITERR_RX_7
0003:000078d0  __LITERR_RX_4
0003:000078d4  __LITERR_RX_5
0003:000078d8  __LITERR_RX_2
0003:000078dc  __LITERR_RX_3
0003:000078e0  __LITERR_RX_1
0003:000078e4  __LITERR_MACRO_NOT_VALID
0003:000078e8  __LITERR_WANT_MENU_ITEM
0003:000078ec+ __LITUnable_to_init_ui
0003:000078f0  __LITERR_BAD_TAB
0003:000078f4  __LITERR_BAD_DCLICK
0003:000078f8  __LITERR_BAD_ARRAY_INDEX
0003:000078fc  __LITERR_WIND_NOT_OPEN
0003:00007900  __LITERR_BAD_WINDOW_ATTR
0003:00007904  __LITERR_BAD_COLOUR_ATTR
0003:00007908  __LITERR_BAD_WIND_NAME
0003:0000790c  __LITERR_MATCH_NOT_SUPPORTED
0003:00007910  __LITERR_RX_8
0003:00007914  __LITERR_RX_6
0003:00007918  __LITWindowXMM
0003:0000791c  __LITID
0003:00007920  __LITWindowReplay
0003:00007924  __LITNo_Source_Line
0003:00007928  __LITWindowFPU
0003:0000792c  __LITWindowGlobals
0003:00007930  __LITNo_text_to_complete
0003:00007934  __LITWindowAccelerator
0003:00007938  __LITWindowModules
0003:0000793c  __LITWindowSearch
0003:00007940  __LITWindowMMX
0003:00007944  __LITWindowGlobal_Functions
0003:00007948  __LITWindowCalls
0003:0000794c  __LITExecutable_File
0003:00007950  __LITWindowFunctions
0003:00007954  __LITDebug_Information_Type
0003:00007958  __LITDebug_Information
0003:0000795c  __LITNo_Match_Found
0003:00007960  __LITState
0003:00007964  __LITWindowLocals
0003:00007968  __LITWindowAssembly
0003:0000796c  __LITWindowWatches
0003:00007970  __LITWindowStack
0003:00007974  __LITWindowRegisters
0003:00007978  __LITWindowCurrent
0003:0000797c  __LITWindowLog
0003:00007980  __LITWindowImages
0003:00007984  __LITWindowFile_Variables
0003:00007988  __LITWindowFileView
0003:0000798c  __LITWindowVariable
0003:00007990  __LITWindowThreads
0003:00007994  __LITWindowBinary
0003:00007998  __LITWindowMemory
0003:0000799c  __LITWindowSource
0003:000079a0  __LITWindowAll
0003:000079a4  __LITWindowIO_Ports
0003:000079a8  __LITWindowTmpFile
0003:000079ac  __LITWindowBrk
0003:000079b0  __LITBreakpoint_File_Name
0003:000079b4  __LITDLL_Name
0003:000079b8  __LITCancel
0003:000079bc  __LITEnter_Window
0003:000079c0  __LITSymbol_List
0003:000079c4  __LITConfiguration_File_Name
0003:000079c8  __LITSymbol_File
0003:000079cc  __LITThe_WATCOM_Debugger
0003:000079d0  __LITOK
0003:000079d4  __LITError
0003:000079d8  __LITAbout_The_WATCOM_Debugger
0003:000079dc  __LITModules
0003:000079e0  __LITDlgBreak
0003:000079e4  __LITReplay_File_Name
0003:000079e8  __LITXModule_
0003:000079ec  __LITNew_Source
0003:000079f0  __LITProgram_Name
0003:000079f4  __LITGoWhere
0003:000079f8  __LITXSymbol_
0003:000079fc  __LITEnter_New_Command
0003:00007a00  __LITmac_main_menu
0003:00007a04+ __LITThe_WATCOM_Debugger_for_PowerBuilder
0003:00007a08+ __LITPowerBuilder_Debugger_Already_Running
0003:00007a0c  __LITMacro_Type
0003:00007a10  __LITmac_command_string
0003:00007a14  __LITMac_Window
0003:00007a18  __LITRedefine_Key
0003:00007a1c  __LITmac_popup_menu
0003:00007a20  __LITNew_Offset
0003:00007a24  __LITDefinition
0003:00007a28  __LITNew_Port_Addr
0003:00007a2c  __LITNew_Line
0003:00007a30  __LITPress_the_Key
0003:00007a34  __LITNew_Addr
0003:00007a38  __LITMem_Addr
0003:00007a3c  __LITNew_Module
0003:00007a40  __LITEnter_File_Name
0003:00007a44  __LITKey_Name
0003:00007a48+ __LITPowerBuilder_Not_Running
0003:00007a4c  __LITWARN_Asynch_Event
0003:00007a50  __LITWARN_Cycle_Detected
0003:00007a54  __LITWARN_Losing_Redo
0003:00007a58  __LITWARN_Incomplete_Undo
0003:00007a5c  __LITWARN_Program_Will_Slow
0003:00007a60+ __LITWARN_Unable_To_Remap
0003:00007a64  __LITWARN_Kill_PowerBuilder
0003:00007a68+ __LITFirst_UI_Message
0002:0002e480  DUIInitLiterals_
0002:0002ec20  DUIFiniLiterals_
0003:00007a6c  __LITWARN_Source_Not_Available
Module: dui.obj(/mnt/sda5/.user/root/src/openwatcom-1.9/bld/wv/c/dui.c)
0002:0002f150  DUIUpdate_
0002:0002f170  DUIStatusText_
0002:0002f180  DUIMsgBox_
0002:0002f190  DUIDlgTxt_
0002:0002f1a0  DUIInfoBox_
0002:0002f1b0  DUIStop_
0002:0002f1c0  DUIClose_
0002:0002f1d0  DUIInit_
0002:0002f240  DUIFini_
0002:0002f290  DUIFreshAll_
0002:0002f2a0  DUIStopRefresh_
0002:0002f2b0  DUIShow_
0002:0002f2f0  DUIWndUser_
0002:0002f300  DUIWndDebug_
0002:0002f310  DUIShowLogWindow_
0002:0002f320  ReqWndName_
0002:0002f350  DUIGetMonitorType_
0002:0002f380  DUIScreenSizeY_
0002:0002f390  DUIScreenSizeX_
0002:0002f3a0  DUIErrorBox_
0002:0002f3c0  DUIArrowCursor_
0002:0002f3d0  DUILoadString_
0002:0002f3e0  DUIAskIfAsynchOk_
0002:0002f400  DUIFlushKeys_
0002:0002f410  DUIPlayDead_
0002:0002f420  DUISysEnd_
0002:0002f430  DUISysStart_
0002:0002f440  DUIRingBell_
0002:0002f450  DUIProcPendingPaint_
0002:0002f460  DUIInfoRelease_
0002:0002f480  DUIExitCriticalSection_
0002:0002f480  DUIEnterCriticalSection_
0002:0002f490  DUIHourGlass_
0002:0002f4a0  WndDoInput_
0002:0002f4b0  DUIGetSourceLine_
0002:0002f4d0  DUICopyCopied_
0002:0002f4d0  DUICopySize_
0002:0002f500  DUIIsDBCS_
0002:0002f510  DUIEnvLkup_
0002:0002f520  DUIDirty_
0002:0002f530  DUISrcOrAsmInspect_
0002:0002f550  DUIAddrInspect_
0002:0002f570  DUIRemoveBreak_
0002:0002f580  StartupErr_
0002:0002f590* DUISymbolsCancelled_
0002:0002f590  DUICopyCancelled_
0002:0002f5a0  DUIImageLoaded_
Module: dbgwset.obj(/mnt/sda5/.user/root/src/openwatcom-1.9/bld/wv/c/dbgwset.c)
0002:0002f6a0  DClickSet_
0002:0002f700  DClickConf_
0002:0002f720  InputSet_
0002:0002f790  InputConf_
0002:0002f7d0  LookUpCtrlKey_
0002:0002f840  KeyName_
0002:0002fac0  MacAddDel_
0002:0002fc10  MacroSet_
0002:0002fcf0  MacroConf_
0002:0002fd80  FiniMacros_
0002:0002fdd0  TabIntervalGet_
0002:0002fde0  TabIntervalSet_
0002:0002fe00  TabSet_
0002:0002fe60  TabConf_
0002:0002fe90  SearchSet_
0002:0002ff70  SearchConf_
Module: dbginsp.obj(/mnt/sda5/.user/root/src/openwatcom-1.9/bld/wv/c/dbginsp.c)
0002:00030010  WndTmpFileInspect_
0002:00030120  WndFileInspect_
0002:00030200  WndFuncInspect_
0002:00030220  WndGblFuncInspect_
0002:00030250  WndGblVarInspect_
0002:00030280  WndMemInspect_
0002:000302d0  WndIOInspect_
0002:00030300  WndAddrInspect_
0002:00030320  WndAsmInspect_
0002:00030470  WndSrcInspect_
0002:000304a0  WndSrcOrAsmInspect_
0002:000304d0  WndNewSrcInspect_
0002:000304f0  WndModInspect_
0002:00030590  WndModListInspect_
0002:000306a0  WndInspectExprSP_
0002:000306d0  WndInspect_
0002:00030710  WndClassInspect_
0002:00030740  WndVarInspect_
Module: dbgicon.obj(/mnt/sda5/.user/root/src/openwatcom-1.9/bld/wv/c/dbgicon.c)
0003:00001a48  _MainIcon
0003:00001a50  _AsmIcon
0003:00001a58  _BrkIcon
0003:00001a60  _CallIcon
0003:00001a68  _FPUIcon
0003:00001a70  _MMXIcon
0003:00001a78  _XMMIcon
0003:00001a80  _FuncIcon
0003:00001a88  _GlobIcon
0003:00001a90  _AclIcon
0003:00001a98  _ImgIcon
0003:00001aa0  _IOIcon
0003:00001aa8  _LogIcon
0003:00001ab0  _MemIcon
0003:00001ab8  _ModIcon
0003:00001ac0  _RegIcon
0003:00001ac8  _RepIcon
0003:00001ad0  _SrcIcon
0003:00001ad8  _SrchIcon
0003:00001ae0  _StkIcon
0003:00001ae8  _TrdIcon
0003:00001af0  _VarIcon
0003:00001af8  _LocIcon
0003:00001b00  _WatIcon
Module: dbgdisp.obj(/mnt/sda5/.user/root/src/openwatcom-1.9/bld/wv/c/dbgdisp.c)
0003:00007a84+ _WndMainRect
0002:00030840  ScanStatus_
0002:000308d0  GetWndFont_
0002:00030900  WndFontHook_
0002:00030940  WndMainClientSize_
0002:00030960  WndMainResized_
0002:000309e0  WndResizeHook_
0002:00030a50  InitFont_
0002:00030a60  FiniFont_
0002:00030af0  ProcFont_
0002:00030c00  ConfigFont_
0002:00030c30* FontChange_
0002:00031080  ProcDisplay_
0002:00031180  ConfigDisp_
0003:00007b0c  _WndPosition
Module: dbgpaint.obj(/mnt/sda5/.user/root/src/openwatcom-1.9/bld/wv/c/dbgpaint.c)
0003:00001b54  _WndStatusColour
0003:00001b56  _WndPlainAttr
0003:00001b57  _WndSelectedAttr
0003:00001b58  _WndCursorAttr
0003:00001b6b  _WndColours
0003:00001b94  _WndNumColours
0002:00031480  WndMapTabAttr_
0002:00031560  ProcPaint_
0002:00031740  ProcPendingPaint_
0002:000317c0  FiniPaint_
0002:00031800  GetWndColours_
0002:00031ae0  ConfigPaint_
0002:00031b40  InitPaint_
0003:00001d10* _WndTabStopAttr
Module: dbgcap.obj(/mnt/sda5/.user/root/src/openwatcom-1.9/bld/wv/c/dbgcap.c)
0002:00031b50  CaptureError_
0002:00031bb0  ProcCapture_
Module: wndalloc.obj(/mnt/sda5/.user/root/src/openwatcom-1.9/bld/wv/c/wndalloc.c)
0002:00031c70  WndNoMemory_
0002:00031c90  WndAlloc_
0002:00031ca0  WndRealloc_
0002:00031cb0  WndFree_
0002:00031cc0* WndMemFini_
0002:00031cd0  WndMemInit_
Module: dlgambig.obj(/mnt/sda5/.user/root/src/openwatcom-1.9/bld/wv/c/dlgambig.c)
0002:00031cf0  DUIDisambiguate_
Module: dlgscomp.obj(/mnt/sda5/.user/root/src/openwatcom-1.9/bld/wv/c/dlgscomp.c)
0002:00031d80  DlgGetMatchString_
0002:00031df0  SymComplete_
Module: modcomp.obj(/mnt/sda5/.user/root/src/openwatcom-1.9/bld/wv/c/modcomp.c)
0002:00031f60  ModComplete_
Module: wndsys.obj(/mnt/sda5/.user/root/src/openwatcom-1.9/bld/wv/c/wndsys.c)
0003:00001d28  _WndGadgetHint
0003:00001d74  _WndGadgetArray
0003:00001eac  _WndGadgetArraySize
0003:00001eb0  _WndGadgetSecondary
0003:00001eb4  _WndGadgetAttr
0003:0000202c+ _WndNormal
0003:0000203c  _WndLong
0003:0000204c+ _WndMemMetrics
0003:0000205c+ _WndWide
0003:0000206c+ _WndWideLong
0003:0000207c+ _WndFileMetrics
0003:0000208c  _WndMetrics
0003:00002108* _NoMetrics
0002:00032120  DbgWndSearch_
0002:00032130+ ProcPUINYI_
0002:00032150  ProcWndSearch_
0002:00032170+ ProcWndTabLeft_
0002:00032180+ ProcWndTabRight_
0002:00032190  ProcSearchAll_
0002:000321c0+ ProcWndPopUp_
0002:000321d0  ProcWndFindNext_
0002:000321f0  ProcWndFindPrev_
0002:00032230  ProcWindow_
0002:00032260  WndSysStart_
0002:00032270  WndSysEnd_
0002:00032280  WndStop_
0002:00032290  WndUser_
0002:000322f0  WndDebug_
0002:000322f0  WndStartFreshAll_
0002:00032370  WndRedraw_
0002:00032470  WndProcMacro_
0002:00032510  WndSysInit_
0002:00032550  SetUnderLine_
0002:00032580  SetGadgetLine_
0002:00032590  FiniGadget_
0002:000325d0  InitGadget_
0002:00032650  OpenGadget_
0002:00032660  CheckOpenGadget_
0002:000326b0  WndEndFreshAll_
0002:000326c0  WndFlushKeys_
0002:000326d0  WndMsgBox_
0002:00032700  WndInfoBox_
0002:00032730  WndSetOpenNoShow_
0002:00032740  DbgTitleWndCreate_
0002:000328f0  DbgWndCreate_
0002:00032910  WndRXError_
0003:00007d6c  _MaxGadgetLength
Module: wnddump.obj(/mnt/sda5/.user/root/src/openwatcom-1.9/bld/wv/c/wnddump.c)
0002:00032bd0  WndDumpPrompt_
0002:00032bf0  WndDumpFile_
0002:00032c70  WndDumpLog_
Module: dlgabout.obj(/mnt/sda5/.user/root/src/openwatcom-1.9/bld/wv/c/dlgabout.c)
0002:00032ca0  DlgAbout_
Module: dlgstk.obj(/mnt/sda5/.user/root/src/openwatcom-1.9/bld/wv/c/dlgstk.c)
0002:00032dc0  DlgUpTheStack_
0002:00032dd0  DlgBackInTime_
0002:00032e00  DlgIncompleteUndo_
Module: dlgayn.obj(/mnt/sda5/.user/root/src/openwatcom-1.9/bld/wv/c/dlgayn.c)
0002:00032ea0  DlgAreYouNuts_
Module: dlgsrc.obj(/mnt/sda5/.user/root/src/openwatcom-1.9/bld/wv/c/dlgsrc.c)
0002:00032ed0  DlgSource_
Module: dlgdll.obj(/mnt/sda5/.user/root/src/openwatcom-1.9/bld/wv/c/dlgdll.c)
0002:00032f00  DlgBreakDLL_
Module: dlglist.obj(/mnt/sda5/.user/root/src/openwatcom-1.9/bld/wv/c/dlglist.c)
0002:00033230  DlgList_
Module: dlgfile.obj(/mnt/sda5/.user/root/src/openwatcom-1.9/bld/wv/c/dlgfile.c)
0002:00033410  SetLastExe_
0002:00033420* GetLastExe_
0002:00033430* SetLastCfg_
0002:00033490  InitBrowse_
0002:00033500  FiniBrowse_
0002:000335e0  ProcConfigFile_
0002:00033610  WndShutDownHook_
0002:000336a0  ConfigSave_
0002:00033710  BreakSave_
0002:00033770  ReplaySave_
0002:000337e0  FileBrowse_
0002:00033820  ExeBrowse_
0002:00033840  SymBrowse_
0002:00033860  AllBrowse_
0002:00033890  GetDmpName_
Module: dlgnewp.obj(/mnt/sda5/.user/root/src/openwatcom-1.9/bld/wv/c/dlgnewp.c)
0002:00033a50  DlgNewProg_
Module: dlgexpr.obj(/mnt/sda5/.user/root/src/openwatcom-1.9/bld/wv/c/dlgexpr.c)
0002:00033ad0  DlgGetLong_
0002:00033ae0  DlgGetCodeAddr_
0002:00033af0  DlgGetDataAddr_
0002:00033b00  DlgSetLong_
0002:00033b90  DlgLongExpr_
0002:00033bd0  DlgAnyExpr_
0002:00033c20  DlgCodeAddr_
0002:00033c60  DlgDataAddr_
0002:00033ca0  DlgGivenAddr_
0002:00033cd0  DlgModName_
0002:00033d20  DlgString_
0002:00033d50  DlgMadTypeExpr_
Module: dlgbreak.obj(/mnt/sda5/.user/root/src/openwatcom-1.9/bld/wv/c/dlgbreak.c)
0002:00034690  DlgBreak_
Module: dlgvarx.obj(/mnt/sda5/.user/root/src/openwatcom-1.9/bld/wv/c/dlgvarx.c)
0002:000348f0  DlgVarExpand_
Module: dlgcmd.obj(/mnt/sda5/.user/root/src/openwatcom-1.9/bld/wv/c/dlgcmd.c)
0002:00034a60  DlgCmd_
Module: dlgnewws.obj(/mnt/sda5/.user/root/src/openwatcom-1.9/bld/wv/c/dlgnewws.c)
0002:00034b40  DlgNewWithMod_
0002:00034b50  DlgNewWithSym_
Module: wndhelp.obj(/mnt/sda5/.user/root/src/openwatcom-1.9/bld/wv/c/wndhelp.c)
0002:00034ba0  InitHelp_
0002:00034bc0  FiniHelp_
0002:00034ce0  ProcHelp_
0002:00034cf0  DoProcHelp_
Module: wndmenu.obj(/mnt/sda5/.user/root/src/openwatcom-1.9/bld/wv/c/wndmenu.c)
0002:00034d60  PlayDead_
0002:00034e80  GetMenuLabel_
0002:00034f70  AccelMenuItem_
0002:00035130  ProcAccel_
0002:00035200  SetLogMenuItems_
0002:00035220  SetMADMenuItems_
0002:00035290  SetTargMenuItems_
0002:000352b0  InitMenus_
0002:00035300  SetBrkMenuItems_
0002:00035350  FiniMenus_
0002:000353a0  WndMenuSetHotKey_
0002:00035430  AddMenuAccel_
0002:00035560  WndMainMenuProc_
0003:000029cc  _WndMainMenu
0003:00002abc  _WndNumMenus
0003:00002ac0  _WndInfoTab
0003:00002b3c  _MainTab
Module: dbgwfpu.obj(/mnt/sda5/.user/root/src/openwatcom-1.9/bld/wv/c/dbgwfpu.c)
0002:00035f00  FPUChangeOptions_
0002:00035f20  WndFPUOpen_
Module: dbgwmac.obj(/mnt/sda5/.user/root/src/openwatcom-1.9/bld/wv/c/dbgwmac.c)
0002:00036110  MacKeyHit_
0002:00036a60  WndMacOpen_
0003:00002c6c  _MacInfo
Module: dbgwglob.obj(/mnt/sda5/.user/root/src/openwatcom-1.9/bld/wv/c/dbgwglob.c)
0002:00036b00+ GlobMenuItem_
0002:00036c20+ GlobNumRows_
0002:00036c30+ GlobGetLine_
0002:00036c70  GlobNewMod_
0002:00036c90+ GlobRefresh_
0002:00036ce0+ GlobEventProc_
0002:00036d30  GlobChangeOptions_
0002:00036d50  WndGlobOpen_
0002:00036d60  DoWndGlobOpen_
0003:00002ca4+ _GlobMenu
0003:00002d1c  _GlobInfo
Module: dbgwfunc.obj(/mnt/sda5/.user/root/src/openwatcom-1.9/bld/wv/c/dbgwfunc.c)
0002:00037160  FuncNewMod_
0002:00037310  FuncChangeOptions_
0002:00037330  DoWndFuncOpen_
0002:00037380  WndFuncOpen_
0002:00037390  WndGblFuncOpen_
0003:00002de4  _FuncInfo
Module: dbgwcall.obj(/mnt/sda5/.user/root/src/openwatcom-1.9/bld/wv/c/dbgwcall.c)
0002:00037700  WndCallOpen_
0003:00002eac  _CallInfo
Module: dbgwmod.obj(/mnt/sda5/.user/root/src/openwatcom-1.9/bld/wv/c/dbgwmod.c)
0002:00037c00  ModNewHandle_
0002:00037d70  ModChangeOptions_
0002:00037d90  WndModOpen_
0002:00037da0  DoWndModOpen_
0003:00002f8c  _ModInfo
Module: dbgwsrch.obj(/mnt/sda5/.user/root/src/openwatcom-1.9/bld/wv/c/dbgwsrch.c)
0002:00038430  WndSrchOpen_
0003:00002fdc  _SrchInfo
Module: dbgwdlg.obj(/mnt/sda5/.user/root/src/openwatcom-1.9/bld/wv/c/dbgwdlg.c)
0002:00038520  DlgInfoRelease_
0002:00038680  WndDlgTxt_
0002:000386d0  WndDlgFini_
0002:00038760  WndDlgOpen_
0003:00003024  _LogInfo
Module: dbgwfil.obj(/mnt/sda5/.user/root/src/openwatcom-1.9/bld/wv/c/dbgwfil.c)
0002:000387c0  SrcJoinAsm_
0002:000387d0  SrcNewAsmNotify_
0002:00038840  SrcFreeAsm_
0002:00038f90  FileOpenGadget_
0002:00038ff0  FileBreakGadget_
0002:00039610  SrcMoveDot_
0002:00039730  SrcWndFind_
0002:000397c0  SrcHasFileOpen_
0002:00039af0  DoWndFileOpen_
0002:00039cf0  DoWndSrcOpen_
0002:00039d30  WndSrcOpen_
0002:00039dd0  ProcView_
0003:000031ac  _FileInfo
Module: dbgwass.obj(/mnt/sda5/.user/root/src/openwatcom-1.9/bld/wv/c/dbgwass.c)
0002:0003a270  AsmJoinSrc_
0002:0003a280  AsmNewSrcNotify_
0002:0003a460  AsmMoveDot_
0002:0003a5b0  AsmWndFind_
0002:0003a5f0  AsmFreeSrc_
0002:0003a6e0  AsmOpenGadget_
0002:0003bc60  AsmChangeOptions_
0002:0003bc70  DoWndAsmOpen_
0002:0003bd50  WndAsmOpen_
0003:00003334  _AsmInfo
Module: dbgwimg.obj(/mnt/sda5/.user/root/src/openwatcom-1.9/bld/wv/c/dbgwimg.c)
0002:0003c110  WndImgOpen_
0003:000033fc  _ImgInfo
Module: dbgwbrk.obj(/mnt/sda5/.user/root/src/openwatcom-1.9/bld/wv/c/dbgwbrk.c)
0002:0003c570  WndBrkOpen_
0003:000034f4  _BrkInfo
Module: dbgwio.obj(/mnt/sda5/.user/root/src/openwatcom-1.9/bld/wv/c/dbgwio.c)
0002:0003ca80  SetIOMenuItems_
0002:0003caa0  InitIOWindow_
0002:0003cb80  FiniIOWindow_
0002:0003cbf0  IONewAddr_
0002:0003cc20  DoWndIOOpen_
0002:0003cce0  WndIOOpen_
0003:000035c0  _IOInfo
Module: dbgwrep.obj(/mnt/sda5/.user/root/src/openwatcom-1.9/bld/wv/c/dbgwrep.c)
0002:0003d010  WndRepOpen_
0003:00003640  _RepInfo
Module: dbgwmem.obj(/mnt/sda5/.user/root/src/openwatcom-1.9/bld/wv/c/dbgwmem.c)
0002:0003d590  MemSetLength_
0002:0003d5a0  MemSetFollow_
0002:0003e5d0  InitMemWindow_
0002:0003e6e0  FiniMemWindow_
0002:0003e860  DoWndMemOpen_
0002:0003e8e0  WndMemOpen_
0002:0003e900  WndStkOpen_
0002:0003e980  DoWndBinOpen_
0003:0000381c  _BinInfo
0003:00003854  _MemInfo
0003:0000388c+ _StkInfo
Module: dbgwregs.obj(/mnt/sda5/.user/root/src/openwatcom-1.9/bld/wv/c/dbgwregs.c)
0002:0003e9d0  RegChangeOptions_
0002:0003e9f0  WndRegOpen_
Module: dbgwmmx.obj(/mnt/sda5/.user/root/src/openwatcom-1.9/bld/wv/c/dbgwmmx.c)
0002:0003ea10  MMXChangeOptions_
0002:0003ea30  WndMMXOpen_
Module: dbgwxmm.obj(/mnt/sda5/.user/root/src/openwatcom-1.9/bld/wv/c/dbgwxmm.c)
0002:0003ea70  XMMChangeOptions_
0002:0003ea90  WndXMMOpen_
Module: dbgwmadr.obj(/mnt/sda5/.user/root/src/openwatcom-1.9/bld/wv/c/dbgwmadr.c)
0002:0003f540  MadRegChangeOptions_
0002:0003f560  WndMadRegOpen_
0003:0000390c  _MadRegInfo
Module: dbgwtogl.obj(/mnt/sda5/.user/root/src/openwatcom-1.9/bld/wv/c/dbgwtogl.c)
0002:0003f590  WndAppendToggles_
0002:0003f670  WndDeleteToggles_
Module: dbgwvar.obj(/mnt/sda5/.user/root/src/openwatcom-1.9/bld/wv/c/dbgwvar.c)
0002:0003f760  WndVarAdd_
0002:00040810  VarSaveWndToScope_
0002:00040840  VarRestoreWndFromScope_
0002:00040ab0  VarInfoRelease_
0002:00040ac0  VarUnMapScopes_
0002:00040ad0  VarFreeScopes_
0002:00040b20  VarReMapScopes_
0002:00040b40  VarChangeOptions_
0002:00040c20  WndVarOpen_
0002:00040c30  WndWatOpen_
0002:00040c40  WndLclOpen_
0002:00040c50  WndFSVOpen_
0002:00040d30  GraphicDisplay_
0003:00003ce0  _VarInfo
Module: dbgwthrd.obj(/mnt/sda5/.user/root/src/openwatcom-1.9/bld/wv/c/dbgwthrd.c)
0002:00040fd0  WndTrdOpen_
0003:00003d64  _TrdInfo
Module: dlgwind.obj(/mnt/sda5/.user/root/src/openwatcom-1.9/bld/wv/c/dlgwind.c)
0002:00041450  DlgWndSet_
Module: dbgwdata.obj(/mnt/sda5/.user/root/src/openwatcom-1.9/bld/wv/c/dbgwdata.c)
0003:00003d9c  _WndOpenTab
0003:00003e18  _WndNameTab
0003:0000862c  _WndMacroList
Module: dlgoptn.obj(/mnt/sda5/.user/root/src/openwatcom-1.9/bld/wv/c/dlgoptn.c)
0002:000417f0  DlgOptSet_
Module: dbgtool.obj(/mnt/sda5/.user/root/src/openwatcom-1.9/bld/wv/c/dbgtool.c)
0002:00041830  InitToolBar_
0002:00041870  FiniToolBar_
0002:00041890  WndToolOpen_
0002:000418c0  WndToolClose_
Module: dbgfing.obj(/mnt/sda5/.user/root/src/openwatcom-1.9/bld/wv/c/dbgfing.c)
0002:000418e0  FingClose_
0002:00041a60  FingOpen_
Module: /mnt/sda5/.user/root/src/openwatcom-1.9/bld/ui/os2/os2386/ui.lib(/mnt/sda5/.user/root/src/openwatcom-1.9/bld/ui/c/uiinit.c)
0002:00041ba0  uistart_
0002:00041bd3* uiinit_
0002:00041bef  uistop_
0002:00041bfe* uifini_
0002:00041c17  uiswap_
Module: /mnt/sda5/.user/root/src/openwatcom-1.9/bld/gui/ui/os2386/gui.lib(/mnt/sda5/.user/root/src/openwatcom-1.9/bld/gui/ui/c/guigmous.c)
0002:00041c30  GUIInitGraphicsMouse_
0002:00041c40  GUIInitMouse_
0002:00041c70  GUIFiniMouse_
0002:00041c90  GUIGMouseOn_
0002:00041ce0  GUIGMouseOff_
0002:00041d00  GUIHasCharRemap_
Module: /mnt/sda5/.user/root/src/openwatcom-1.9/bld/aui/os2386/aui.lib(/mnt/sda5/.user/root/src/openwatcom-1.9/bld/aui/c/wndmem.c)
0002:00041d10  WndMustAlloc_
0002:00041d30  WndMustRealloc_
Module: /mnt/sda5/.user/root/src/openwatcom-1.9/rel2/lib386/math387r.lib(ldcvt.c)
0002:00041e2a  _LDScale10x_
0002:000423d1  __LDcvt_
Module: /mnt/sda5/.user/root/src/openwatcom-1.9/rel2/lib386/math387r.lib(fchop87)
0002:00042820  __CHP
Module: /mnt/sda5/.user/root/src/openwatcom-1.9/rel2/lib386/os2/emu387.lib(386)
0002:00042838  __init_387_emulator
0002:00042839* __fini_387_emulator
Module: /mnt/sda5/.user/root/src/openwatcom-1.9/rel2/lib386/math387r.lib(gcvt.c)
0002:0004283a  gcvt_
Module: /mnt/sda5/.user/root/src/openwatcom-1.9/rel2/lib386/math387r.lib(strtod.c)
0002:00042e4c+ __Strtold_
0002:00042fb3  strtod_
Module: /mnt/sda5/.user/root/src/openwatcom-1.9/bld/aui/os2386/aui.lib(/mnt/sda5/.user/root/src/openwatcom-1.9/bld/aui/c/wndstat.c)
0002:00043100  WndCreateStatusWindow_
0002:00043130  WndHaveStatusWindow_
0002:00043150  WndCloseStatusWindow_
0002:00043190  WndStatusText_
0002:000431e0  GUIClearStatusText_
0002:00043200  WndResetStatusText_
0002:00043210  WndInternalStatusText_
0003:00008640+ _WndStatusString
Module: /mnt/sda5/.user/root/src/openwatcom-1.9/bld/aui/os2386/aui.lib(/mnt/sda5/.user/root/src/openwatcom-1.9/bld/aui/c/guimain.c)
0003:00008694  _WndScale
0003:0000869c  _WndMax
0003:000086a4  _WndScreen
0003:000086ac+ _WndClickHook
0003:000086b4  _WndMain
0003:000086b8* _WndSwitches
0003:00004090  _WndMaxDirtyRects
0003:00004094+ _WndDClick
0003:00004098  _WndIgnoreAllEvents
0002:00043260  WndGetDClick_
0002:00043270  WndSetDClick_
0002:000432f0* WndInitWithMenuRes_
0002:000433b0  WndInit_
0002:000433c0  WndShowWndMain_
0002:000433d0  WndFini_
0002:00043400* WndInitNumRows_
0002:00043570  WndInstallClickHook_
0002:00043db0  WndArrowCursor_
0002:00043de0* WndSetCursor_
0002:00043e10  WndHourGlass_
0002:00043e20* WndHourCursor_
0002:00043e60  WndMainEventProc_
Module: /mnt/sda5/.user/root/src/openwatcom-1.9/bld/aui/os2386/aui.lib(/mnt/sda5/.user/root/src/openwatcom-1.9/bld/aui/c/wndhist.c)
0002:00043e90  WndInitHistory_
0002:00043ed0  WndFiniHistory_
0002:00043f80  WndSaveToHistory_
0002:00044040  WndPrevFromHistory_
0002:00044120  WndNextFromHistory_
Module: /mnt/sda5/.user/root/src/openwatcom-1.9/bld/aui/os2386/aui.lib(/mnt/sda5/.user/root/src/openwatcom-1.9/bld/aui/c/wndcreat.c)
0002:000441d0* WndSetTitleSize_
0002:000441e0  WndSetTitle_
0002:000441f0  WndGetTitle_
0002:00044440  WndCreateWithStruct_
0002:00044470  WndCreateWithStructAndMenuRes_
0002:000444a0  WndInitCreateStruct_
0002:000444e0* WndCreate_
0002:00044510  WndDestroy_
0002:00044590  WndClose_
0002:000445b0  WndSetMainMenuText_
0002:000445e0  WndSetIcon_
0003:000040a4  _WndMainMenuPtr
0003:000086c4  _WndPopupMenuPtr
Module: /mnt/sda5/.user/root/src/openwatcom-1.9/bld/aui/os2386/aui.lib(/mnt/sda5/.user/root/src/openwatcom-1.9/bld/aui/c/wnddirt.c)
0002:00044740  WndDirtyScreenRange_
0002:00044760  WndDirtyScreenChar_
0002:00044780  WndDirtyScreenPiece_
0002:000447a0  WndAdjustDirt_
0002:000447d0  WndDirtyScreenRow_
0002:000447f0* WndDirtyRect_
0002:00044830  WndRowDirty_
0002:00044870  WndRowDirtyImmed_
0002:000448b0  WndPieceDirty_
0002:000448f0  WndStopRefresh_
0002:00044900+ WndPaintDirt_
0002:00044c70  WndFreshAll_
0003:000040a8  _WndDoingRefresh
Module: /mnt/sda5/.user/root/src/openwatcom-1.9/bld/aui/os2386/aui.lib(/mnt/sda5/.user/root/src/openwatcom-1.9/bld/aui/c/wndshrnk.c)
0002:00044ce0  WndShrinkToMouse_
0002:00044e70  WndMinimizeWindow_
0002:00044e80  WndMaximizeWindow_
0002:00044e90  WndIsMinimized_
0002:00044ed0  WndIsMaximized_
0002:00044ee0  WndRestoreWindow_
0002:00044ef0  WndGetRect_
0002:00044f00  WndShowWindow_
0002:00044f10  WndResizeWindow_
0002:00044f20  WndShowAll_
Module: /mnt/sda5/.user/root/src/openwatcom-1.9/bld/gui/ui/os2386/gui.lib(/mnt/sda5/.user/root/src/openwatcom-1.9/bld/gui/c/guiisgui.c)
0002:00044fa0  GUIIsGUI_
Module: /mnt/sda5/.user/root/src/openwatcom-1.9/bld/gui/ui/os2386/gui.lib(/mnt/sda5/.user/root/src/openwatcom-1.9/bld/gui/ui/c/guismetr.c)
0002:00044fb0  GUIGetSystemMetrics_
Module: /mnt/sda5/.user/root/src/openwatcom-1.9/bld/aui/os2386/aui.lib(/mnt/sda5/.user/root/src/openwatcom-1.9/bld/aui/c/wndmsg.c)
0002:00045050  WndDisplayMessage_
Module: /mnt/sda5/.user/root/src/openwatcom-1.9/bld/aui/os2386/aui.lib(/mnt/sda5/.user/root/src/openwatcom-1.9/bld/aui/c/wndldstr.c)
0002:00045080  WndLoadString_
Module: /mnt/sda5/.user/root/src/openwatcom-1.9/bld/gui/ui/os2386/gui.lib(/mnt/sda5/.user/root/src/openwatcom-1.9/bld/gui/ui/c/guiclen.c)
0002:000450e0  GUICharLen_
0002:000450f0  GUIIsDBCS_
Module: /mnt/sda5/.user/root/src/openwatcom-1.9/bld/aui/os2386/aui.lib(/mnt/sda5/.user/root/src/openwatcom-1.9/bld/aui/c/wndutil.c)
0002:00045100  WndCharCol_
0002:00045130  WndLastCharCol_
0002:00045150  WndPrevCharCol_
0002:00045160* WndPrevChar_
0002:00045170  WndCurrToGUIPoint_
0002:00045190  WndCoordToGUIPoint_
0002:00045200  WndPieceIsTab_
0002:00045230* WndPieceIsHot_
0002:00045260  WndFindActive_
0002:00045290  WndValid_
0002:000452c0  WndDirty_
0002:000452d0  WndZapped_
0002:000452f0  WndExtentX_
0002:00045310  WndFindClass_
0002:00045330  WndSetWndMax_
0002:00045380  WndNext_
0002:000453b0  WndForAllClass_
Module: /mnt/sda5/.user/root/src/openwatcom-1.9/bld/aui/os2386/aui.lib(/mnt/sda5/.user/root/src/openwatcom-1.9/bld/aui/c/wndfront.c)
0002:000453f0  WndToFront_
0002:00045400  WndRestoreToFront_
0002:00045430  WndNextNonIconToFront_
0002:00045450  WndChooseNew_
Module: /mnt/sda5/.user/root/src/openwatcom-1.9/bld/aui/os2386/aui.lib(/mnt/sda5/.user/root/src/openwatcom-1.9/bld/aui/c/dlgsrch.c)
0002:00045530+ RXEvent_
0002:00045580  DlgClickHistory_
0002:000455b0  DlgSetHistory_
0002:000456b0  DlgHistoryKey_
0002:00045800+ SrchEvent_
0002:000459a0  DlgSearch_
0002:000459b0  DlgSearchAll_
0003:000040ac  _SrchIgnoreCase
0003:000040ad  _SrchMagicChars
0003:000040c1  _SrchRX
0003:000040c2  _SrchIgnoreMagic
Module: /mnt/sda5/.user/root/src/openwatcom-1.9/bld/aui/os2386/aui.lib(/mnt/sda5/.user/root/src/openwatcom-1.9/bld/aui/c/wndcurr.c)
0002:000459e0  WndSetPoint_
0002:00045c80  WndGetCurrent_
0002:00045cb0  WndNewCurrent_
0002:00045ce0  WndMoveCurrent_
0002:00045d40  WndHasCurrent_
0002:00045d50  WndNoCurrent_
0002:00045d70* WndCurrRow_
0002:00045da0  WndNextCurrent_
0002:00045e80  WndPrevCurrent_
0002:00045fa0  WndFirstCurrent_
0002:00045fc0  WndLastCurrent_
0002:00046000  WndCheckCurrentValid_
0002:000460a0  WndCurrVisible_
0002:00046150  WndDirtyCurr_
0002:000461a0  WndDirtyCurrChar_
0002:000461d0  WndSetCurrCol_
Module: /mnt/sda5/.user/root/src/openwatcom-1.9/bld/aui/os2386/aui.lib(/mnt/sda5/.user/root/src/openwatcom-1.9/bld/aui/c/wndpaint.c)
0002:000465e0+ WndPaintRows_
0002:00046740  WndProcPaint_
0002:00046760  WndForcePaint_
Module: /mnt/sda5/.user/root/src/openwatcom-1.9/bld/aui/os2386/aui.lib(/mnt/sda5/.user/root/src/openwatcom-1.9/bld/aui/c/wndcrsr.c)
0002:00046790+ WndAtTop_
0002:00046930  WndScrollUp_
0002:00046980  WndScrollDown_
0002:000469d0  WndCursorUp_
0002:000469f0  WndCursorDown_
0002:00046a30  WndPageUp_
0002:00046a50  WndPageDown_
0002:00046a70  WndTabLeft_
0002:00046ad0  WndCursorLeft_
0002:00046b70  WndTabRight_
0002:00046bd0  WndCursorRight_
0002:00046c60  WndScrollTop_
0002:00046c80  WndScrollBottom_
0002:00046ca0  WndCursorStart_
0002:00046cb0  WndCursorEnd_
Module: /mnt/sda5/.user/root/src/openwatcom-1.9/bld/aui/os2386/aui.lib(/mnt/sda5/.user/root/src/openwatcom-1.9/bld/aui/c/wndfont.c)
0002:00046cc0  WndSetFontInfo_
0002:00046cf0  WndSetSysFont_
0002:00046d10  WndGetFontInfo_
Module: /mnt/sda5/.user/root/src/openwatcom-1.9/bld/gui/ui/os2386/gui.lib(/mnt/sda5/.user/root/src/openwatcom-1.9/bld/gui/c/guimem.c)
0002:00046d30* GUIMemPrintLine_
0002:00046d30* GUIMemPrtUsage_
0002:00046d30  GUIMemClose_
0002:00046d30  GUIMemOpen_
0002:00046d30* GUIMemRedirect_
0002:00046d40  GUIMemAlloc_
0002:00046d50  GUIMemFree_
0002:00046d60  GUIMemRealloc_
Module: /mnt/sda5/.user/root/src/openwatcom-1.9/bld/aui/os2386/aui.lib(/mnt/sda5/.user/root/src/openwatcom-1.9/bld/aui/c/wndrect.c)
0002:00046e80  WndPosToRect_
0002:00046ec0  WndRectToPos_
Module: /mnt/sda5/.user/root/src/openwatcom-1.9/bld/gui/ui/os2386/gui.lib(/mnt/sda5/.user/root/src/openwatcom-1.9/bld/gui/ui/c/guistub.c)
0002:00046ef0* GUIGetEditSelect_
0002:00046ef0* GUISetEditSelect_
0002:00046ef0* GUIIsControlEnabled_
0002:00046ef0  GUIEnableControl_
0002:00046ef0* GUISetHorizontalExtent_
0002:00046ef0  GUI3DDialogInit_
0002:00046ef0  GUIFontsSupported_
0002:00046ef0  GUISetSystemFont_
0002:00046ef0  GUISetFontInfo_
0002:00046ef0* GUIChangeFont_
0002:00046f00  GUISetMouseCursor_
0002:00046f00  GUIGetFontFromUser_
0002:00046f00  GUIGetFontInfo_
0002:00046f10* GUIScrollCaret_
0002:00046f10* GUIShowControl_
0002:00046f10* GUIHideControl_
0002:00046f10  GUIResetMouseCursor_
Module: /mnt/sda5/.user/root/src/openwatcom-1.9/bld/gui/ui/os2386/gui.lib(/mnt/sda5/.user/root/src/openwatcom-1.9/bld/gui/c/guimin.c)
0002:00046f20  GUIGetMinSize_
Module: /mnt/sda5/.user/root/src/openwatcom-1.9/bld/aui/os2386/aui.lib(/mnt/sda5/.user/root/src/openwatcom-1.9/bld/aui/c/wndtool.c)
0002:00046f40* WndCreateToolBar_
0002:00046fb0  WndCreateToolBarWithTips_
0002:00047020  WndHaveToolBar_
0002:00047030  WndCloseToolBar_
0002:00047050  WndToolHeight_
0002:00047060  WndToolFixed_
0002:00047070  WndSetToolBar_
0003:000086c8+ _ToolHeight
Module: /mnt/sda5/.user/root/src/openwatcom-1.9/bld/gui/ui/os2386/gui.lib(/mnt/sda5/.user/root/src/openwatcom-1.9/bld/gui/ui/c/guicolor.c)
0002:000470b0  GUIXSetColours_
0002:00047170* GUIGetBack_
0002:00047180* GUIGetFore_
0002:00047190  GUIMakeColour_
0002:000471a0  GUISetWindowColours_
0002:000471e0  GUISetDialColours_
0002:00047520  GUIResetDialColours_
0002:00047550  GUISetBackgroundColour_
0002:00047570  GUIGetDialogColours_
0002:000475c0  GUISetDialogColours_
0002:00047600+ GetColour_
0002:00047620  GUIXGetWindowColours_
0002:00047670* GUIGetRGBFromUser_
0002:00047670* GUIGetRGB_
0002:00047670* GUISetRGB_
0002:00047680* GUIGetWndColour_
0002:000476c0* GUISetWndColour_
Module: /mnt/sda5/.user/root/src/openwatcom-1.9/bld/aui/os2386/aui.lib(/mnt/sda5/.user/root/src/openwatcom-1.9/bld/aui/c/wndcolor.c)
0002:000476f0  WndSetColours_
0002:00047740* WndBackGround_
Module: /mnt/sda5/.user/root/src/openwatcom-1.9/bld/aui/os2386/aui.lib(/mnt/sda5/.user/root/src/openwatcom-1.9/bld/aui/c/dlgpick.c)
0002:000477c0  DlgPickWithRtn2_
0002:000477f0+ DoDlgPick_
0002:00047800  DlgPickWithRtn_
0002:00047820+ DlgPickText_
0002:00047830* DlgPick_
Module: /mnt/sda5/.user/root/src/openwatcom-1.9/bld/gui/ui/os2386/gui.lib(/mnt/sda5/.user/root/src/openwatcom-1.9/bld/gui/c/guipick.c)
0002:00047840  GUIPickEvent_
0002:000478e0  GUIDlgPickWithRtn_
0002:00047960  GUIDlgPick_
Module: /mnt/sda5/.user/root/src/openwatcom-1.9/bld/aui/os2386/aui.lib(/mnt/sda5/.user/root/src/openwatcom-1.9/bld/aui/c/wnddlg.c)
0002:000479f0  DlgGetParent_
0002:00047a20  DlgOpen_
0002:00047a60  ResDlgOpen_
Module: /mnt/sda5/.user/root/src/openwatcom-1.9/bld/gui/ui/os2386/gui.lib(/mnt/sda5/.user/root/src/openwatcom-1.9/bld/gui/c/guindlg.c)
0002:00047aa0  GUIDlgBuffGetText_
0002:00047e10* GUISetModalDlgs_
0002:00047e20  GUIDlgOpen_
0002:00047e50  GUIModalDlgOpen_
0002:00047e80* GUISysModalDlgOpen_
Module: /mnt/sda5/.user/root/src/openwatcom-1.9/bld/gui/ui/os2386/gui.lib(/mnt/sda5/.user/root/src/openwatcom-1.9/bld/gui/ui/c/guifocus.c)
0002:00047eb0  GUISetFocus_
Module: /mnt/sda5/.user/root/src/openwatcom-1.9/bld/gui/ui/os2386/gui.lib(/mnt/sda5/.user/root/src/openwatcom-1.9/bld/gui/ui/c/guixedit.c)
0002:00047ee0  GUISetEditText_
0002:00047f90  GUISetText_
0002:000480b0  GUIClearText_
0002:000480c0  GUISelectAll_
Module: /mnt/sda5/.user/root/src/openwatcom-1.9/bld/aui/os2386/aui.lib(/mnt/sda5/.user/root/src/openwatcom-1.9/bld/aui/c/wndsrch.c)
0002:000480d0  WndSetSrchItem_
0002:00048120  WndCompileRX_
0002:00048150  WndFreeRX_
0002:00048160  WndSetMagicStr_
0002:000481c0  WndRXFind_
0002:00048240  WndSearch_
0003:00004238  _WndDoingSearch
Module: /mnt/sda5/.user/root/src/openwatcom-1.9/bld/aui/os2386/aui.lib(/mnt/sda5/.user/root/src/openwatcom-1.9/bld/aui/c/wndpop.c)
0002:000487d0+ CalcMaxId_
0002:00048820  NullPopupMenu_
0002:000488b0  WndAddPopupMenu_
0002:000489b0  WndNullPopItem_
0002:00048ac0+ WndSelPopPiece_
0002:00048d00  WndSelPopItem_
0002:00048d40+ WndKeyPopItem_
0002:00048da0* WndPopUp_
0002:00048e20  WndChangeMenuAll_
0002:00048ea0  WndMenuEnableAll_
0002:00048ec0  WndMenuGrayAll_
0002:00048ef0* WndMenuIgnoreAll_
0002:00048f20* WndMenuRespectAll_
0002:00048f40+ DoMenuBitOn_
0002:00048fd0  WndMenuCheck_
0002:00048fe0  WndMenuEnable_
0002:00049000  WndMenuIgnore_
0002:00049010  WndCreateFloatingPopup_
0002:00049060  WndInvokePopUp_
0002:00049190  WndKeyPopUp_
0002:000491c0  WndRowPopUp_
0002:00049200* WndSetMainMenu_
0002:00049230  WndClick_
0002:00049300  WndSetPopup_
0002:00049390  WndEnableMainMenu_
0002:000493f0  WndCheckMainMenu_
Module: /mnt/sda5/.user/root/src/openwatcom-1.9/bld/gui/ui/os2386/gui.lib(/mnt/sda5/.user/root/src/openwatcom-1.9/bld/gui/ui/c/guispawn.c)
0002:00049440  GUISpawnStart_
0002:00049450  GUISpawnEnd_
Module: /mnt/sda5/.user/root/src/openwatcom-1.9/bld/aui/os2386/aui.lib(/mnt/sda5/.user/root/src/openwatcom-1.9/bld/aui/c/wndgadgt.c)
0002:00049490  WndGetGadgetSize_
0002:000494a0  WndSetGadgetLine_
0002:000494e0  WndGadgetInit_
Module: /mnt/sda5/.user/root/src/openwatcom-1.9/bld/gui/ui/os2386/gui.lib(/mnt/sda5/.user/root/src/openwatcom-1.9/bld/gui/c/guihot.c)
0002:00049520  GUIInitHotSpots_
0002:00049580* GUIGetNumHotSpots_
0002:00049590  GUIGetHotSpotSize_
0003:00008704  _GUINumHotSpots
Module: /mnt/sda5/.user/root/src/openwatcom-1.9/bld/gui/ui/os2386/gui.lib(/mnt/sda5/.user/root/src/openwatcom-1.9/bld/gui/ui/c/guiflush.c)
0002:000495d0  GUIFlushKeys_
Module: /mnt/sda5/.user/root/src/openwatcom-1.9/bld/aui/os2386/aui.lib(/mnt/sda5/.user/root/src/openwatcom-1.9/bld/aui/c/wndmeth.c)
0002:000495e0  NoScroll_
0002:000495e0  WndNoOpen_
0002:000495f0+ NoGetLine_
0002:00049600  NoEndPaint_
0002:00049600  NoBegPaint_
0002:00049600  NoNotify_
0002:00049600  NoModify_
0002:00049610  NoRefresh_
0002:00049620  NoMenuItem_
0002:00049630  NoNumRows_
0002:00049640  NoNextRow_
0002:00049650  NoEventProc_
0002:00049670  WndMenuItem_
0002:00049690  WndFiniCacheLines_
0002:000496c0  WndKillCacheEntries_
0002:00049720  WndKillCacheLines_
0002:000498d0  WndSetCache_
0002:00049920  WndGetLineAbs_
0002:00049930  WndGetLine_
0002:00049a40  WndFirstMenuItem_
0002:00049a60* WndNoRow_
0002:00049a70  WndModify_
0002:00049a90  WndNotify_
0002:00049ab0  WndBegPaint_
0002:00049ad0  WndEndPaint_
0002:00049af0  WndRefresh_
0002:00049b10  WndEvent_
0002:00049b20  WndNumRows_
0002:00049b30  WndNextRow_
0003:00004240  _NoInfo
0003:00008708+ _CacheLine
0003:00009838+ _CacheCurr
Module: /mnt/sda5/.user/root/src/openwatcom-1.9/bld/gui/ui/os2386/gui.lib(/mnt/sda5/.user/root/src/openwatcom-1.9/bld/gui/c/guiextra.c)
0002:00049b40  GUISetExtra_
0002:00049b50  GUIGetExtra_
Module: /mnt/sda5/.user/root/src/openwatcom-1.9/bld/gui/ui/os2386/gui.lib(/mnt/sda5/.user/root/src/openwatcom-1.9/bld/gui/ui/c/guixdlg.c)
0002:00049b60* GUISetJapanese_
0002:00049bb0  GUIDeleteDialog_
0002:00049bf0  GUIGetDlgByWnd_
0002:00049c60+ GUIGetControlId_
0002:00049cc0  GUIGetDialog_
0002:00049cd0  GUIGetField_
0002:00049d10  GUIPushControlEvents_
0002:00049d20  GUIPopControlEvents_
0002:00049d70  GUIInsertDialog_
0002:00049e00  GUIRefreshControl_
0002:00049e60  GUIGetList_
0002:00049eb0  GUIGetFocus_
0002:00049f20+ GUIDoFreeField_
0002:0004a080+ GUIDoAddControl_
0002:0004a370  GUIDeleteField_
0002:0004a4e0  GUIAddAControl_
0002:0004a5c0  GUIResizeDialog_
0002:0004a6c0  GUIFocusChangeNotify_
0002:0004a710  GUIProcessControlNotify_
0002:0004a7a0  GUIXCreateDialog_
0002:0004aa70  GUIFreeDialog_
0002:0004aac0  GUICloseDialog_
0002:0004aaf0  GUIGetDlgRect_
Module: /mnt/sda5/.user/root/src/openwatcom-1.9/bld/gui/ui/os2386/gui.lib(/mnt/sda5/.user/root/src/openwatcom-1.9/bld/gui/ui/c/guixaddt.c)
0002:0004ab50* GUIControlSetRedraw_
0002:0004abc0  GUIAddText_
0002:0004ac00  GUIAddTextList_
0002:0004ac40  GUIDeleteItem_
0002:0004ac70  GUIClearList_
0002:0004acd0  GUIGetCurrSelect_
0002:0004ad20  GUISetCurrSelect_
0002:0004ad70  GUIGetListSize_
0002:0004ada0* GUIInsertText_
0002:0004ade0* GUISetTopIndex_
0002:0004ae30* GUIGetTopIndex_
Module: /mnt/sda5/.user/root/src/openwatcom-1.9/bld/gui/ui/os2386/gui.lib(/mnt/sda5/.user/root/src/openwatcom-1.9/bld/gui/ui/c/guigtext.c)
0002:0004af40  GUIGetText_
0002:0004af60  GUIGetListItem_
Module: /mnt/sda5/.user/root/src/openwatcom-1.9/bld/gui/ui/os2386/gui.lib(/mnt/sda5/.user/root/src/openwatcom-1.9/bld/gui/ui/c/guistext.c)
0002:0004af70  GUISetWindowText_
0002:0004af90* GUIGetWindowTextLength_
0002:0004afc0  GUIGetWindowText_
Module: /mnt/sda5/.user/root/src/openwatcom-1.9/bld/aui/os2386/aui.lib(/mnt/sda5/.user/root/src/openwatcom-1.9/bld/aui/c/wndfdlg.c)
0002:0004b010+ DlgGetFileName_
0002:0004b040  DlgFileBrowse_
Module: /mnt/sda5/.user/root/src/openwatcom-1.9/bld/gui/ui/os2386/gui.lib(/mnt/sda5/.user/root/src/openwatcom-1.9/bld/gui/ui/c/guicontr.c)
0002:0004b170  GUIAddControl_
0002:0004b210  GUIGetControl_
0002:0004b230  GUIGetControlByIndex_
0002:0004b290  GUIInsertControl_
0002:0004b2e0* GUIDeleteControl_
0002:0004b350  GUIFreeAllControls_
0002:0004b3c0  GUILimitEditText_
0002:0004b3d0  GUIResizeControls_
0002:0004b420  GUIProcessControlEvent_
0002:0004b490* GUIEnumControls_
0002:0004b4c0* GUIGetControlClass_
0002:0004b4e0+ GUIGetControlRect_
0002:0004b530* GUIResizeControl_
0002:0004b5f0* GUIIsControlVisible_
Module: /mnt/sda5/.user/root/src/openwatcom-1.9/bld/aui/os2386/aui.lib(/mnt/sda5/.user/root/src/openwatcom-1.9/bld/aui/c/dlgnew.c)
0002:0004b600  DlgNewEvent_
0002:0004b680  DlgNewWithCtl_
0002:0004b6f0  DlgNew_
Module: /mnt/sda5/.user/root/src/openwatcom-1.9/bld/gui/ui/os2386/gui.lib(/mnt/sda5/.user/root/src/openwatcom-1.9/bld/gui/ui/c/guicheck.c)
0002:0004b750  GUIIsChecked_
0002:0004b7a0  GUISetChecked_
Module: /mnt/sda5/.user/root/src/openwatcom-1.9/bld/gui/ui/os2386/gui.lib(/mnt/sda5/.user/root/src/openwatcom-1.9/bld/gui/ui/c/guihelp.c)
0002:0004b820  GUIHelpInit_
0002:0004b830  GUIHelpFini_
0002:0004b850  GUIShowHelp_
0002:0004b8a0  GUIShowHtmlHelp_
0002:0004b8b0+ GUIDisplayHelp_
0002:0004b900* GUIDisplayHelpId_
Module: /mnt/sda5/.user/root/src/openwatcom-1.9/bld/aui/os2386/aui.lib(/mnt/sda5/.user/root/src/openwatcom-1.9/bld/aui/c/wndsel.c)
0002:0004b910  WndSelectEvent_
0002:0004b990  WndSelEnds_
0002:0004b9d0  WndSelected_
0002:0004bb10  WndSelSetStart_
0002:0004bb40  WndSelGetEndPiece_
0002:0004bb80* WndSelSetEnd_
0002:0004bba0  WndSelPieceChange_
0002:0004bc80  WndSelChange_
0002:0004bca0  WndNoSelect_
0002:0004bd30* WndSelRow_
0002:0004bd60  SetWndMenuRow_
0002:0004bdb0  WndToSelectMode_
0002:0004bdf0  WndEndSelectEvent_
0003:0000983c  _WndMenuRow
0003:00009840  _WndMenuPiece
Module: /mnt/sda5/.user/root/src/openwatcom-1.9/bld/aui/os2386/aui.lib(/mnt/sda5/.user/root/src/openwatcom-1.9/bld/aui/c/wndscrol.c)
0002:0004be00  WndFixedThumb_
0002:0004be30  WndSetThumbPercent_
0002:0004be40  WndSetThumbPos_
0002:0004be50  WndSetVScrollRange_
0002:0004be60  WndResetScroll_
0002:0004be70  WndVScrollWidth_
0002:0004be90* WndHasNumRows_
0002:0004bea0  WndSetThumb_
0002:0004c010  WndScrollAbs_
0002:0004c020  WndScroll_
0002:0004c040  WndSetHScroll_
0002:0004c090+ WndCurrHScrollPos_
0002:0004c110  WndHScrollToCurr_
0002:0004c130  WndHScrollNotify_
Module: /mnt/sda5/.user/root/src/openwatcom-1.9/bld/aui/os2386/aui.lib(/mnt/sda5/.user/root/src/openwatcom-1.9/bld/aui/c/wndchar.c)
0002:0004c170  WndSetIDChars_
0002:0004c180  WndIDChar_
0002:0004c1d0  WndKeyChar_
Module: /mnt/sda5/.user/root/src/openwatcom-1.9/bld/gui/ui/os2386/gui.lib(/mnt/sda5/.user/root/src/openwatcom-1.9/bld/gui/c/guiwnclr.c)
0002:0004c1e0  GUISetColours_
0002:0004c200  GUIFreeColours_
0002:0004c220  GUIGetNumWindowColours_
0002:0004c230  GUIGetWindowColours_
Module: /mnt/sda5/.user/root/src/openwatcom-1.9/bld/ui/os2/os2386/ui.lib(/mnt/sda5/.user/root/src/openwatcom-1.9/bld/ui/c/uialloc.c)
0002:0004c25a* UIMemPrintLine_
0002:0004c25a* UIMemPrtUsage_
0002:0004c25a  UIMemClose_
0002:0004c25a  UIMemOpen_
0002:0004c25a* UIMemRedirect_
0002:0004c25b  uicalloc_
0002:0004c260  uimalloc_
0002:0004c265  uifree_
0002:0004c26a  uirealloc_
Module: /mnt/sda5/.user/root/src/openwatcom-1.9/bld/ui/os2/os2386/ui.lib(/mnt/sda5/.user/root/src/openwatcom-1.9/bld/ui/os2/c/uibios.c)
0002:0004c26f* uiset80col_
0002:0004c272+ initmonitor_
0002:0004c389  initbios_
0002:0004c45c  uiclockdelay_
0002:0004c476  finibios_
0002:0004c480  physupdate_
0003:000043f8  __osmode
Module: /mnt/sda5/.user/root/src/openwatcom-1.9/bld/ui/os2/os2386/ui.lib(/mnt/sda5/.user/root/src/openwatcom-1.9/bld/ui/c/uigchar.c)
0002:0004c4ee  DBCSCharacterMap_
0003:000043fc  _UiGChar
0003:0000441e+ _UiDBCSChar
0003:00004440+ _UiNECChar
Module: /mnt/sda5/.user/root/src/openwatcom-1.9/bld/ui/os2/os2386/ui.lib(/mnt/sda5/.user/root/src/openwatcom-1.9/bld/ui/c/uidata.c)
0003:00004464  _UIData
Module: /mnt/sda5/.user/root/src/openwatcom-1.9/bld/ui/os2/os2386/ui.lib(/mnt/sda5/.user/root/src/openwatcom-1.9/bld/ui/c/uiattr.c)
0003:00004469+ _VGAcolours
0003:000044a9+ _ui_vga_colour_attrs
0003:000044ce+ _ui_colour_attrs
0003:000044f3+ _ui_bw_attrs
0003:00004518+ _ui_mono_attrs
0002:0004c595  uiattrs_
0002:0004c629* uivgaattrs_
0002:0004c664+ uisetblinkattr_
0002:0004c69d* uigetblinkattr_
Module: /mnt/sda5/.user/root/src/openwatcom-1.9/bld/ui/os2/os2386/ui.lib(/mnt/sda5/.user/root/src/openwatcom-1.9/bld/ui/c/uiback.c)
0002:0004c731  uirestorebackground_
0002:0004c75e  openbackground_
0002:0004c793  closebackground_
0002:0004c7a0+ uibackgroundbuffer_
0002:0004c7de* uiremovebackground_
0002:0004c817* uikeepbackground_
Module: /mnt/sda5/.user/root/src/openwatcom-1.9/bld/ui/os2/os2386/ui.lib(/mnt/sda5/.user/root/src/openwatcom-1.9/bld/ui/c/uiforce.c)
0002:0004c890  forceevfini_
0002:0004c890  forceevinit_
0002:0004c891  uiforceevadd_
0002:0004c8d3* uiforceevflush_
0002:0004c911  forcedevent_
Module: /mnt/sda5/.user/root/src/openwatcom-1.9/bld/ui/os2/os2386/ui.lib(/mnt/sda5/.user/root/src/openwatcom-1.9/bld/ui/os2/c/uimous.c)
0002:0004c941  mousespawnstart_
0002:0004c946  mousespawnend_
0002:0004ca26  checkmouse_
0002:0004cab7+ uimousespeed_
0002:0004cd66  initmouse_
0002:0004cd88  finimouse_
0002:0004cdd3  uisetmouseposn_
Module: /mnt/sda5/.user/root/src/openwatcom-1.9/bld/ui/os2/os2386/ui.lib(/mnt/sda5/.user/root/src/openwatcom-1.9/bld/ui/os2/c/uicurs.c)
0002:0004ce1c  uioffcursor_
0002:0004d166* uigetcursor_
0002:0004d25d  uisetcursor_
0002:0004d2a0  uiswapcursor_
0002:0004d2b4* uioncursor_
0002:0004d2b4  uifinicursor_
0002:0004d30a  uiinitcursor_
Module: /mnt/sda5/.user/root/src/openwatcom-1.9/bld/ui/os2/os2386/ui.lib(/mnt/sda5/.user/root/src/openwatcom-1.9/bld/ui/c/uimousev.c)
0003:00009864  _MouseCol
0003:00009866  _MouseRow
0003:00009868+ _MouseStatus
0003:0000986a  _MouseOn
0002:0004d33a* uivmouseinstalled_
0002:0004d33a  uimouseinstalled_
0002:0004d342  uimouseforceoff_
0002:0004d353* uimouseforceon_
0002:0004d35a  uionmouse_
0002:0004d392  uioffmouse_
0002:0004d399  uihidemouse_
0002:0004d3c0  mouseevent_
0002:0004d5a5  uimousepos_
0002:0004d688  uivmousepos_
0002:0004d6e7  uiswapmouse_
0002:0004d715* uigetmrow_
0002:0004d71c* uigetmcol_
0002:0004d723  uigetmouse_
0003:0000986c  _MouseInstalled
Module: /mnt/sda5/.user/root/src/openwatcom-1.9/rel2/lib386/math387r.lib(ldclass.c)
0002:0004d766  __LDClass_
0002:0004d7b6* _FLClass_
Module: /mnt/sda5/.user/root/src/openwatcom-1.9/rel2/lib386/math387r.lib(bufld386)
0002:0004d7c8  __ZBuf2LD
Module: /mnt/sda5/.user/root/src/openwatcom-1.9/rel2/lib386/math387r.lib(inf_nan.c)
0002:0004d86b* ___f_infinity
0002:0004d86f* ___f_posqnan
0002:0004d873  ___d_infinity
0002:0004d87b  ___d_posqnan
0002:0004d883* ___ld_infinity
0002:0004d88b* ___ld_posqnan
Module: /mnt/sda5/.user/root/src/openwatcom-1.9/bld/gui/ui/os2386/gui.lib(/mnt/sda5/.user/root/src/openwatcom-1.9/bld/gui/ui/c/guistat.c)
0002:0004d900  GUICreateStatusWindow_
0002:0004d980  GUIResizeStatusWindow_
0002:0004da00  GUIDrawStatus_
0002:0004da80  GUIDrawStatusText_
0002:0004dae0  GUIHasStatus_
0002:0004daf0  GUIFreeStatus_
0002:0004db30  GUIResizeStatus_
0002:0004db60  GUICloseStatusWindow_
Module: /mnt/sda5/.user/root/src/openwatcom-1.9/bld/aui/os2386/aui.lib(/mnt/sda5/.user/root/src/openwatcom-1.9/bld/aui/c/wndfref.c)
0002:0004dbd0  WndForceRefresh_
Module: /mnt/sda5/.user/root/src/openwatcom-1.9/bld/gui/ui/os2386/gui.lib(/mnt/sda5/.user/root/src/openwatcom-1.9/bld/gui/ui/c/guidbclk.c)
0002:0004dbe0  GUISetDClickRate_
Module: /mnt/sda5/.user/root/src/openwatcom-1.9/bld/gui/ui/os2386/gui.lib(/mnt/sda5/.user/root/src/openwatcom-1.9/bld/gui/c/guirscal.c)
0002:0004dc00  GUIGetRoundScale_
Module: /mnt/sda5/.user/root/src/openwatcom-1.9/bld/gui/ui/os2386/gui.lib(/mnt/sda5/.user/root/src/openwatcom-1.9/bld/gui/c/guiscale.c)
0002:0004dc60  GUISetScale_
0002:0004dc90  GUIGetScale_
0002:0004dcc0  GUISetScreen_
0002:0004dce0  GUIGetScreen_
0002:0004dd10+ GUIConvert_
0002:0004dda0  GUIConvertRect_
0002:0004dde0+ GUIConvertPoint_
0002:0004de30* GUIScaleToScreen_
0002:0004de50  GUIScaleToScreenR_
0002:0004de70* GUIScreenToScale_
0002:0004de90  GUIScreenToScaleR_
0002:0004deb0  GUIScaleToScreenRPt_
0002:0004ded0* GUIScreenToScaleRPt_
Module: /mnt/sda5/.user/root/src/openwatcom-1.9/bld/aui/os2386/aui.lib(/mnt/sda5/.user/root/src/openwatcom-1.9/bld/aui/c/wndstyle.c)
0003:000045dc  _WndStyle
Module: /mnt/sda5/.user/root/src/openwatcom-1.9/bld/gui/ui/os2386/gui.lib(/mnt/sda5/.user/root/src/openwatcom-1.9/bld/gui/ui/c/guixinit.c)
0002:0004df00  GUIGetWindowStyles_
0002:0004df10  GUIWndInit_
0002:0004e020* GUISetF10Menus_
0002:0004e040  GUIIsInit_
Module: /mnt/sda5/.user/root/src/openwatcom-1.9/bld/gui/ui/os2386/gui.lib(/mnt/sda5/.user/root/src/openwatcom-1.9/bld/gui/c/guiimmdi.c)
0002:0004e050  GUIMDIInitMenuOnly_
Module: /mnt/sda5/.user/root/src/openwatcom-1.9/bld/gui/ui/os2386/gui.lib(/mnt/sda5/.user/root/src/openwatcom-1.9/bld/gui/ui/c/guimenu.c)
0002:0004e1f0  GUIFreeMenuItems_
0002:0004e230+ GUIAllocMenuItems_
0002:0004e3f0  GUIGetMenuPopupCount_
0002:0004e430  GUIEnableMenuItem_
0002:0004e4a0  GUISetMenuText_
0002:0004e530  GUICheckMenuItem_
0002:0004e590  GUIChangeMenu_
0002:0004e610+ GUIGetNumIgnore_
0002:0004e640  GUICreateMenuItems_
0002:0004e6d0+ GUIAllocVBarMenu_
0002:0004ea00  GUICreateMenus_
0002:0004ea80+ GUIFreeVBarMenu_
0002:0004eab0  GUIFreeMenus_
0002:0004eaf0  GUISetBetweenTitles_
0002:0004eb00* GUIAppendMenuByOffset_
0002:0004ec40  GUIDeleteMenuItem_
0002:0004ecd0  GUIDeleteToolbarMenuItem_
0002:0004ed40  GUIResetMenus_
0002:0004ede0* GUIEnableMenus_
0002:0004ee70+ GUIInsertMenu_
0002:0004eef0* GUIInsertMenuByID_
0002:0004ef70* GUIAppendMenu_
0002:0004efc0  GUIAppendToolbarMenu_
0002:0004f010+ AddMenuItemToPopup_
0002:0004f0a0  GUIAppendMenuToPopup_
0002:0004f0c0  GUIInsertMenuToPopup_
Module: /mnt/sda5/.user/root/src/openwatcom-1.9/bld/aui/os2386/aui.lib(/mnt/sda5/.user/root/src/openwatcom-1.9/bld/aui/c/wndimain.c)
0002:0004f0e0  WndInitWndMain_
Module: /mnt/sda5/.user/root/src/openwatcom-1.9/bld/aui/os2386/aui.lib(/mnt/sda5/.user/root/src/openwatcom-1.9/bld/aui/c/wndmnsz.c)
0002:0004f0f0  WndSetWndMainSize_
Module: /mnt/sda5/.user/root/src/openwatcom-1.9/bld/aui/os2386/aui.lib(/mnt/sda5/.user/root/src/openwatcom-1.9/bld/aui/c/wndbgch.c)
0003:000045fc  _WndBackgroundChar
Module: /mnt/sda5/.user/root/src/openwatcom-1.9/bld/gui/ui/os2386/gui.lib(/mnt/sda5/.user/root/src/openwatcom-1.9/bld/gui/ui/c/guixdraw.c)
0002:0004f120  GUIInitDrawingChars_
0002:0004f2e0  GUIGetCharacter_
0002:0004f300* GUISetCharacter_
0002:0004fa90  GUIWndRfrshArea_
0002:0004fc30  GUIWndUpdate_
0003:00009890  _DrawingChars
Module: /mnt/sda5/.user/root/src/openwatcom-1.9/bld/gui/ui/os2386/gui.lib(/mnt/sda5/.user/root/src/openwatcom-1.9/bld/gui/ui/c/guixsys.c)
0002:0004fc90+ GUIWndGetEvent_
0002:0004fcb0  uistartevent_
0002:0004fcc0  uidoneevent_
0002:0004fd30+ GUICleanup_
0002:0004fdf0  GUIXMain_
0002:0004fe30  GUIXSetupWnd_
0002:0004fe60  GUISetBackgroundChar_
0002:0004fe70+ GUISetupStruct1_
0002:0004fe90+ GUISetupStruct2_
0002:0004ff60  GUISetupStruct_
0002:0004ff90  GUIXCreateWindow_
0003:00004638  _GUICurrWnd
0003:0000463c  _GUIAllEvents
Module: /mnt/sda5/.user/root/src/openwatcom-1.9/bld/gui/ui/os2386/gui.lib(/mnt/sda5/.user/root/src/openwatcom-1.9/bld/gui/ui/c/guixwind.c)
0002:000500e0* GUIWantPartialRows_
0002:00050100  GUIFreeWindowMemory_
0002:000502a0  GUIDestroyDialog_
0002:000502b0  GUICloseWnd_
0002:000502e0  GUIDestroyWnd_
0002:000502f0  GUIGetRow_
0002:00050320* GUIGetCol_
0002:00050350* GUIShowWindowNA_
0002:00050350  GUIShowWindow_
0002:00050360* GUIHideWindow_
0002:00050370* GUIIsWindowVisible_
0002:00050380* GUIIsFirstInstance_
Module: /mnt/sda5/.user/root/src/openwatcom-1.9/bld/gui/ui/os2386/gui.lib(/mnt/sda5/.user/root/src/openwatcom-1.9/bld/gui/ui/c/guigetnr.c)
0002:00050390  GUIGetNumRows_
Module: /mnt/sda5/.user/root/src/openwatcom-1.9/bld/gui/ui/os2386/gui.lib(/mnt/sda5/.user/root/src/openwatcom-1.9/bld/gui/ui/c/guitextm.c)
0002:000503a0  GUIGetTextMetrics_
0002:000503d0  GUIGetDlgTextMetrics_
0002:000503e0* GUIGetMaxDialogSize_
Module: /mnt/sda5/.user/root/src/openwatcom-1.9/bld/gui/ui/os2386/gui.lib(/mnt/sda5/.user/root/src/openwatcom-1.9/bld/gui/ui/c/guicrect.c)
0002:00050410  GUIGetClientRect_
0002:00050430* GUIGetPaintRect_
Module: /mnt/sda5/.user/root/src/openwatcom-1.9/bld/gui/ui/os2386/gui.lib(/mnt/sda5/.user/root/src/openwatcom-1.9/bld/gui/ui/c/guirange.c)
0002:00050490  GUISetHScrollRange_
0002:000504c0* GUISetVScrollRange_
0002:000504f0* GUISetHScrollRangeCols_
0002:00050510  GUISetVScrollRangeRows_
0002:00050530+ GUIGetVScrollRangeRows_
0002:00050550* GUIGetVScrollRange_
0002:00050580+ GUIGetHScrollRangeCols_
0002:000505a0* GUIGetHScrollRange_
Module: /mnt/sda5/.user/root/src/openwatcom-1.9/bld/aui/os2386/aui.lib(/mnt/sda5/.user/root/src/openwatcom-1.9/bld/aui/c/wndchoos.c)
0002:000505d0  WndChooseEvent_
0002:00050630* WndDoneChoose_
0002:00050640  WndKeyEscape_
0002:00050660* WndStartChoose_
0002:00050670  WndSayMatchMode_
0002:000507a0  WndKeyChoose_
0002:00050990  WndKeyRubOut_
Module: /mnt/sda5/.user/root/src/openwatcom-1.9/bld/aui/os2386/aui.lib(/mnt/sda5/.user/root/src/openwatcom-1.9/bld/aui/c/wndmouse.c)
0002:00050a30* WndGetMouseRow_
0002:00050af0  WndLButtonDown_
0002:00050bd0  WndLButtonUp_
0002:00050ca0  WndLDblClk_
0002:00050d20  WndRButtonDown_
0002:00050e20  WndRButtonUp_
0002:00050ea0  WndMouseButtonIsDown_
0002:00050ec0  WndIgnoreMouseMove_
0002:00050ee0  WndMouseMove_
Module: /mnt/sda5/.user/root/src/openwatcom-1.9/bld/aui/os2386/aui.lib(/mnt/sda5/.user/root/src/openwatcom-1.9/bld/aui/c/wndqryhk.c)
0002:00050f60  WndQueryEndSessionHook_
Module: /mnt/sda5/.user/root/src/openwatcom-1.9/bld/aui/os2386/aui.lib(/mnt/sda5/.user/root/src/openwatcom-1.9/bld/aui/c/wndendhk.c)
0002:00050f70  WndEndSessionHook_
Module: /mnt/sda5/.user/root/src/openwatcom-1.9/bld/gui/ui/os2386/gui.lib(/mnt/sda5/.user/root/src/openwatcom-1.9/bld/gui/c/guicreat.c)
0002:00050f80  GUICreateWindow_
0003:00004654  _GUIMDI
Module: /mnt/sda5/.user/root/src/openwatcom-1.9/bld/gui/ui/os2386/gui.lib(/mnt/sda5/.user/root/src/openwatcom-1.9/bld/gui/ui/c/guisicon.c)
0002:00050fe0  GUISetIcon_
Module: /mnt/sda5/.user/root/src/openwatcom-1.9/bld/gui/ui/os2386/gui.lib(/mnt/sda5/.user/root/src/openwatcom-1.9/bld/gui/ui/c/guidrect.c)
0002:00051030  GUIWndDirtyRect_
Module: /mnt/sda5/.user/root/src/openwatcom-1.9/bld/gui/ui/os2386/gui.lib(/mnt/sda5/.user/root/src/openwatcom-1.9/bld/gui/ui/c/guidrow.c)
0002:00051170  GUIWndDirtyRow_
Module: /mnt/sda5/.user/root/src/openwatcom-1.9/bld/gui/ui/os2386/gui.lib(/mnt/sda5/.user/root/src/openwatcom-1.9/bld/gui/ui/c/guiscrol.c)
0002:000511c0  GUIScroll_
0002:000512f0+ SetScroll_
0002:00051310  GUIInitHScroll_
0002:00051330* GUIInitHScrollCol_
0002:00051350* GUIInitVScroll_
0002:00051370  GUIInitVScrollRow_
0002:00051390  GUISetHScroll_
0002:000513b0* GUISetHScrollCol_
0002:000513d0* GUISetVScroll_
0002:000513f0* GUISetVScrollRow_
Module: /mnt/sda5/.user/root/src/openwatcom-1.9/bld/gui/ui/os2386/gui.lib(/mnt/sda5/.user/root/src/openwatcom-1.9/bld/gui/c/guidraw.c)
0002:00051410  GUIDrawText_
0002:00051460* GUIDrawTextPos_
0002:00051480  GUIDrawTextExtent_
0002:000514d0* GUIDrawTextExtentPos_
0002:000514f0* GUIDrawTextRGB_
0002:00051540* GUIDrawTextPosRGB_
0002:00051560* GUIDrawTextExtentRGB_
0002:000515b0* GUIDrawTextExtentPosRGB_
Module: /mnt/sda5/.user/root/src/openwatcom-1.9/bld/gui/ui/os2386/gui.lib(/mnt/sda5/.user/root/src/openwatcom-1.9/bld/gui/ui/c/guidoscr.c)
0002:00051740  GUIDoHScroll_
0002:00051760  GUIDoVScroll_
0002:00051780* GUIDoHScrollClip_
0002:00051790  GUIDoVScrollClip_
Module: /mnt/sda5/.user/root/src/openwatcom-1.9/bld/gui/ui/os2386/gui.lib(/mnt/sda5/.user/root/src/openwatcom-1.9/bld/gui/ui/c/guidirty.c)
0002:000517a0  GUIWndDirty_
Module: /mnt/sda5/.user/root/src/openwatcom-1.9/bld/gui/ui/os2386/gui.lib(/mnt/sda5/.user/root/src/openwatcom-1.9/bld/gui/c/guipixel.c)
0002:00051830  GUITruncToPixel_
Module: /mnt/sda5/.user/root/src/openwatcom-1.9/bld/gui/ui/os2386/gui.lib(/mnt/sda5/.user/root/src/openwatcom-1.9/bld/gui/ui/c/guixtent.c)
0002:00051850  GUIGetExtentX_
0002:000518a0* GUIGetControlExtentX_
0002:000518b0* GUIGetControlExtentY_
0002:000518c0* GUIGetExtentY_
Module: /mnt/sda5/.user/root/src/openwatcom-1.9/bld/gui/ui/os2386/gui.lib(/mnt/sda5/.user/root/src/openwatcom-1.9/bld/gui/ui/c/guirect.c)
0002:000518e0  GUIGetRect_
Module: /mnt/sda5/.user/root/src/openwatcom-1.9/bld/gui/ui/os2386/gui.lib(/mnt/sda5/.user/root/src/openwatcom-1.9/bld/gui/ui/c/guimouse.c)
0002:00051950  GUIGetMousePosn_
Module: /mnt/sda5/.user/root/src/openwatcom-1.9/bld/gui/ui/os2386/gui.lib(/mnt/sda5/.user/root/src/openwatcom-1.9/bld/gui/ui/c/guisize.c)
0002:00051b50* GUISetCheckResizeAreaForChildren_
0002:00051b70  GUICheckResizeAreaForChildren_
0002:00051c30  GUICheckResizeAreaForParent_
0002:00051f40  GUICheckMove_
0002:000520d0  GUICheckArea_
0002:00052220  GUIWndMoveSize_
0002:00052350+ GUICalcIconArea_
0002:00052520  GUIZoomWnd_
0002:00052660  GUIResizeWindow_
0002:00052700  GUISetRestoredSize_
0002:00052750* GUIGetRestoredSize_
0002:000527a0  GUIMinimizeWindow_
0002:000527c0  GUIMaximizeWindow_
0002:000527e0  GUIRestoreWindow_
0002:00052800  GUIIsMaximized_
0002:00052810  GUIIsMinimized_
Module: /mnt/sda5/.user/root/src/openwatcom-1.9/bld/gui/ui/os2386/gui.lib(/mnt/sda5/.user/root/src/openwatcom-1.9/bld/gui/c/guizlist.c)
0002:00052840  GUIDeleteFromList_
0002:00052880  GUIFrontOfList_
0002:000528a0  GUIGetFront_
0002:000528b0  GUIGetNextWindow_
0002:000528d0  GUIIsValidWindow_
Module: /mnt/sda5/.user/root/src/openwatcom-1.9/bld/gui/ui/os2386/gui.lib(/mnt/sda5/.user/root/src/openwatcom-1.9/bld/gui/ui/c/guixdisp.c)
0002:00052a20+ DisplayMessage_
0002:00052a50+ GUIStrnDup_
0002:00052ac0+ TabFilter_
0002:00052d20+ AdjustVert_
0002:00052e90  GUIDisplayMessage_
Module: /mnt/sda5/.user/root/src/openwatcom-1.9/bld/gui/ui/os2386/gui.lib(/mnt/sda5/.user/root/src/openwatcom-1.9/bld/gui/ui/c/guildstr.c)
0002:000530e0  GUIIsLoadStrInitialized_
0002:000530f0  GUILoadStrInit_
0002:000531b0  GUILoadStrFini_
0002:000531e0  GUILoadString_
0002:00053220  GUILoadDialogTemplate_
0002:00053270  GUILoadMenuTemplate_
0003:000048fc  _WResRtns
Module: /mnt/sda5/.user/root/src/openwatcom-1.9/bld/ui/os2/os2386/ui.lib(/mnt/sda5/.user/root/src/openwatcom-1.9/bld/ui/c/uichlen.c)
0002:000532b9  uicharlen_
0002:000532e0  uiisdbcs_
0002:000532e6  uionnec_
Module: /mnt/sda5/.user/root/src/openwatcom-1.9/bld/gui/ui/os2386/gui.lib(/mnt/sda5/.user/root/src/openwatcom-1.9/bld/gui/ui/c/guifront.c)
0002:000532f0  GUIBringToFront_
0002:000533a0* GUIActivateNC_
Module: /mnt/sda5/.user/root/src/openwatcom-1.9/bld/gui/ui/os2386/gui.lib(/mnt/sda5/.user/root/src/openwatcom-1.9/bld/gui/ui/c/guistrin.c)
0002:000533f0  GUIGetStringPos_
Module: /mnt/sda5/.user/root/src/openwatcom-1.9/bld/gui/ui/os2386/gui.lib(/mnt/sda5/.user/root/src/openwatcom-1.9/bld/gui/ui/c/guixbar.c)
0002:00053440  GUIDrawBar_
0002:000534b0  GUIDrawBarGroup_
Module: /mnt/sda5/.user/root/src/openwatcom-1.9/bld/gui/ui/os2386/gui.lib(/mnt/sda5/.user/root/src/openwatcom-1.9/bld/gui/ui/c/guidrawr.c)
0002:000537a0* GUIDrawRect_
0002:000537c0* GUIFillRect_
0002:000537e0  GUIFillBar_
0002:00053800  GUIDrawLine_
0002:000538c0* GUIDrawRectRGB_
0002:000538c0* GUIFillRectRGB_
0002:000538d0* GUIDrawLineRGB_
Module: /mnt/sda5/.user/root/src/openwatcom-1.9/bld/gui/ui/os2386/gui.lib(/mnt/sda5/.user/root/src/openwatcom-1.9/bld/gui/ui/c/guixhot.c)
0002:000538e0  GUIXInitHotSpots_
0002:00053970  GUIDrawHotSpot_
0002:000539b0  GUIXCleanupHotSpots_
0003:0000491c  _GUIHotSpots
Module: /mnt/sda5/.user/root/src/openwatcom-1.9/bld/gui/ui/os2386/gui.lib(/mnt/sda5/.user/root/src/openwatcom-1.9/bld/gui/ui/c/guitool.c)
0002:000539e0  GUIXCreateFixedToolbar_
0002:00053e40  GUIXCreateToolBar_
0002:00054000  GUIXCreateToolBarWithTips_
0002:00054030  GUIXCloseToolBar_
0002:00054110  GUIHasToolBar_
0002:00054120  GUIToolBarFixed_
0002:00054170* GUIChangeToolBar_
Module: /mnt/sda5/.user/root/src/openwatcom-1.9/bld/gui/ui/os2386/gui.lib(/mnt/sda5/.user/root/src/openwatcom-1.9/bld/gui/c/guihtool.c)
0002:000541b0* GUICreateFloatToolBar_
0002:00054210  GUICreateToolBar_
0002:00054270  GUICreateToolBarWithTips_
0002:000542d0  GUICloseToolBar_
Module: /mnt/sda5/.user/root/src/openwatcom-1.9/bld/ui/os2/os2386/ui.lib(/mnt/sda5/.user/root/src/openwatcom-1.9/bld/ui/c/uimenu.c)
0002:00054317  uisetbetweentitles_
0002:0005431d  uialtchar_
0002:000544c6  uidisplayitem_
0002:000547aa  uidrawmenu_
0002:0005480f  uiclosepopup_
0002:00054820  uiopenpopup_
0002:000549d1+ process_menuevent_
0002:00054f24* uigeteventfrompos_
0002:00054f90  menuevent_
0002:000550a7  uidescmenu_
0002:000552b7  uimenutitlebar_
0002:00055326* uienablemenuitem_
0002:0005535d* uimenuindicators_
0002:00055377  uisetmenudesc_
0002:00055403  uimenuson_
0002:0005540e  uimenuheight_
0002:00055426  uimenudisable_
0002:00055444  uimenuisdisabled_
0002:00055459* uimenugetaltpressed_
0002:0005546e  uimenusetaltpressed_
0002:0005548c  uinomenus_
0002:0005548e  uimenubar_
0002:000554ec* uimenus_
0002:00055529* uiactivatemenus_
0002:0005554b* uiignorealt_
0002:00055559  uigetcurrentmenu_
Module: /mnt/sda5/.user/root/src/openwatcom-1.9/bld/gui/ui/os2386/gui.lib(/mnt/sda5/.user/root/src/openwatcom-1.9/bld/gui/ui/c/guiwhole.c)
0002:00055590  GUIWholeWndDirty_
Module: /mnt/sda5/.user/root/src/openwatcom-1.9/bld/ui/os2/os2386/ui.lib(/mnt/sda5/.user/root/src/openwatcom-1.9/bld/ui/c/uigadget.c)
0003:000049fc  _VertScrollFrame
0003:000049fe  _HorzScrollFrame
0003:00004a00  _SliderChar
0003:00004a02  _LeftPoint
0003:00004a04  _RightPoint
0003:00004a06  _UpPoint
0003:00004a08  _DownPoint
0002:000555ba  uishowgadget_
0002:000557dc  uiinitgadget_
0002:000557ed  uidrawgadget_
0002:0005580f  uisetgadget_
0002:0005581b  uifinigadget_
0002:0005581c  uisetgadgetnodraw_
0002:00055821  uigadgetfilter_
Module: /mnt/sda5/.user/root/src/openwatcom-1.9/bld/gui/ui/os2386/gui.lib(/mnt/sda5/.user/root/src/openwatcom-1.9/bld/gui/c/guisdef.c)
0003:0000999c  ___LITApplIcon
0003:000099a0  ___LITEmpty
0003:000099a4  ___LITBrightGreen
0003:000099a8  ___LITOS2_Dialog_Font
0003:000099ac  ___LITBrightCyan
0003:000099b0  ___LITBrightBlue
0003:000099b4  ___LITBrightRed
0003:000099b8  ___LITBlank
0003:000099bc  ___LITBrightYellow
0003:000099c0  ___LITTable_of_Contents
0003:000099c4  ___LITInternal_Last_Message
0003:000099c8  ___LITBrightWhite
0003:000099cc  ___LITBrightMagenta
0003:000099d0  ___LITWhite
0003:000099d4  ___LITWindows_Dialog_Font
0003:000099d8  ___LITGrey
0003:000099dc  ___LITXNo
0003:000099e0  ___LITXIgnore
0003:000099e4  ___LITBlack
0003:000099e8  ___LITFix_Toolbar_Hint
0003:000099ec  ___LITCyan
0003:000099f0  ___LITBrown
0003:000099f4  ___LITBlue
0003:000099f8  ___LITGreen
0003:000099fc  ___LITExclamation
0003:00009a00  ___LITXAbort
0003:00009a04  ___LITWindow_Name_Hint
0003:00009a08  ___LITColour
0003:00009a0c  ___LITXFix_Toolbar
0003:00009a10  ___LITStop_Bang
0003:00009a14  ___LITMagenta
0003:00009a18  ___LITRed
0003:00009a1c  ___LITXRetry
0003:00009a20  ___LITSelect_Window
0003:00009a24  ___LITXYes
0003:00009a28  ___LITNexXt
0003:00009a2c  ___LITArrange_Icons_Hint
0003:00009a30  ___LITClose
0003:00009a34  ___LITFDlg_Open_Text
0003:00009a38  ___LITTile_Horz_Hint
0003:00009a3c  ___LITCascade_Hint
0003:00009a40  ___LITTile_XVert
0003:00009a44  ___LITTile_Vert_Hint
0003:00009a48  ___LITTile_XHorz
0003:00009a4c  ___LITRestore
0003:00009a50  ___LITMove
0003:00009a54  ___LITMore_Windows_Hint
0003:00009a58  ___LITXMore_Windows
0003:00009a5c  ___LITXClose
0003:00009a60  ___LITSize
0003:00009a64  ___LITXCascade
0003:00009a68  ___LITMinimize
0003:00009a6c  ___LITXArrange_Icons
0003:00009a70  ___LITMaximize
0003:00009a74  ___LITXFix_Tool_Bar
0003:00009a78  ___LITFile_Exists_Replace
0003:00009a7c  ___LITChange_XFont_
0003:00009a80  ___LITCancel
0003:00009a84  ___LITOpen_Failed
0003:00009a88  ___LITDrives_Colon
0003:00009a8c  ___LITFDlg_Save_Text
0003:00009a90  ___LITList_Files_of_Type_Colon
0003:00009a94  ___LITPen_Failed
0003:00009a98  ___LITFile_Name_Colon
0003:00009a9c  ___LITChange_Font_for_this_window
0003:00009aa0  ___LITMake_Tool_Bar_Fixed
0003:00009aa4  ___LITFloating_Toolbar
0003:00009aa8  ___LITInternal_First_Message
0003:00009aac  ___LITDirectories_Colon
0003:00009ab0  ___LITOK
Module: /mnt/sda5/.user/root/src/openwatcom-1.9/bld/gui/ui/os2386/gui.lib(/mnt/sda5/.user/root/src/openwatcom-1.9/bld/gui/c/guidlg.c)
0002:00055b50  GUICreateDialog_
0002:00055b60  GUICreateResDialog_
0002:00055b80  GUICreateSysModalDialog_
Module: /mnt/sda5/.user/root/src/openwatcom-1.9/bld/ui/os2/os2386/ui.lib(/mnt/sda5/.user/root/src/openwatcom-1.9/bld/ui/c/uidialog.c)
0002:000561a4  uiprintfield_
0002:000561e8+ ui_split_line_
0002:0005628a+ uiinitdialog_
0002:000563a0* uifinidialog_
0002:0005645e  uireinitdialog_
0002:000564f0  uigetdialogarea_
0002:00056505  uibegdialog_
0002:000565c9  uiupdatecombobox_
0002:00056636  uiupdateedit_
0002:000566d2+ pulldownfilter_
0002:000568d0+ uidialogexitcurr_
0002:000568e7  uidialogsetcurr_
0002:00056939  uimovefield_
0002:00056995  uiredrawdialog_
0002:000569d1  uiresizedialog_
0002:00056de3+ uihotkeyfilter_
0002:00056ee0  uiprocessdialogevent_
0002:000570bc  uidialog_
0002:000571c8  uifreedialog_
0002:00057214  uienddialog_
0002:0005722c* uidialogisdirty_
0002:0005723c* uidialogsetdirty_
Module: /mnt/sda5/.user/root/src/openwatcom-1.9/bld/gui/ui/os2386/gui.lib(/mnt/sda5/.user/root/src/openwatcom-1.9/bld/gui/c/guiutil.c)
0002:00057250* GUIStripTrailingBlanks_
0002:000572d0  GUIStrDup_
0002:00057350  GUIStoreArgs_
0002:00057370* GUIGetArgs_
0002:000573a0* GUIIsRootWindow_
0002:000573c0  GUIGetRootWindow_
Module: /mnt/sda5/.user/root/src/openwatcom-1.9/bld/gui/ui/os2386/gui.lib(/mnt/sda5/.user/root/src/openwatcom-1.9/bld/gui/ui/c/guihotsp.c)
0002:000573e0  GUICreateHot_
0002:00057460  GUIFreeHotSpot_
0002:00057480  GUISetHotSpotText_
Module: /mnt/sda5/.user/root/src/openwatcom-1.9/bld/aui/os2386/aui.lib(/mnt/sda5/.user/root/src/openwatcom-1.9/bld/aui/c/rxwrap.c)
0003:00009ad4  _RegExpError
0002:00057520  RegComp_
0002:00058150  RegExec_
0002:000586f0* RegAnchor_
0003:00004a80  _SrchMetaChars
0003:00004a8e+ _RealTabs
Module: /mnt/sda5/.user/root/src/openwatcom-1.9/bld/gui/ui/os2386/gui.lib(/mnt/sda5/.user/root/src/openwatcom-1.9/bld/gui/c/guihflt.c)
0002:00058700  GUICreateFloatingPopup_
Module: /mnt/sda5/.user/root/src/openwatcom-1.9/bld/ui/os2/os2386/ui.lib(/mnt/sda5/.user/root/src/openwatcom-1.9/bld/ui/os2/c/uispawn.c)
0002:0005876d  uispawnstart_
0002:00058796  uispawnend_
Module: /mnt/sda5/.user/root/src/openwatcom-1.9/bld/ui/os2/os2386/ui.lib(/mnt/sda5/.user/root/src/openwatcom-1.9/bld/ui/c/uiblank.c)
0002:0005880d* uiblankattr_
0002:00058820* uiblankarea_
0002:0005883a  uiblankscreen_
Module: /mnt/sda5/.user/root/src/openwatcom-1.9/bld/ui/os2/os2386/ui.lib(/mnt/sda5/.user/root/src/openwatcom-1.9/bld/ui/c/uidirty.c)
0002:00058847  dirtyarea_
0002:000588c9  dirtynext_
0002:00058919  uidirty_
Module: /mnt/sda5/.user/root/src/openwatcom-1.9/bld/gui/ui/os2386/gui.lib(/mnt/sda5/.user/root/src/openwatcom-1.9/bld/gui/c/guihook.c)
0002:00058940  GUISetHotSpotCleanup_
0002:00058950  GUICleanupHotSpots_
0002:00058970* GUISetXChangeTitle_
0002:00058980  GUIXChangeTitle_
0002:000589a0  GUISetXInitMDI_
0002:000589b0  GUIXInitMDI_
0002:000589d0  GUISetInitMDI_
0002:000589e0  GUIInitMDI_
0002:00058a00  GUIChangeMDITitle_
0002:00058a20  GUISetMDIChangeTitle_
0002:00058a30  GUISetMDIBroughtToFront_
0002:00058a40  GUIMDIBroughtToFront_
0002:00058a60  GUISetMDIDelete_
0002:00058a70  GUIMDIDelete_
0002:00058a90  GUISetMDIResetMenus_
0002:00058aa0  GUIMDIResetMenus_
0002:00058ac0  GUISetMDIDeleteMenuItem_
0002:00058ad0  GUIMDIDeleteMenuItem_
0002:00058af0* GUISetEnableMDIActions_
0002:00058b00  GUIEnableMDIActions_
0002:00058b20* GUISetAddMDIActions_
0002:00058b30  GUIAddMDIActions_
Module: /mnt/sda5/.user/root/src/openwatcom-1.9/bld/ui/os2/os2386/ui.lib(/mnt/sda5/.user/root/src/openwatcom-1.9/bld/ui/os2/c/uiget.c)
0002:00058b44  uiflush_
0002:00058b50  uiclock_
0002:00058bd3  uiget_
0002:00058bd8* uieventsource_
Module: /mnt/sda5/.user/root/src/openwatcom-1.9/bld/ui/os2/os2386/ui.lib(/mnt/sda5/.user/root/src/openwatcom-1.9/bld/ui/c/uilist.c)
0002:00058c20* uigetlist_
0002:00058c29* uiputlist_
0002:00058c36  uipushlist_
0002:00058c72* uichecklist_
0002:00058c94  uipoplist_
0002:00058cb8  uiinlist_
0002:00058d10* uiintoplist_
Module: /mnt/sda5/.user/root/src/openwatcom-1.9/bld/gui/ui/os2386/gui.lib(/mnt/sda5/.user/root/src/openwatcom-1.9/bld/gui/ui/c/guilistb.c)
0002:00058d70  GUIClearListBox_
0002:00058d90  GUIListBoxDeleteItem_
0002:00058e50  GUIFreeList_
0002:00058ec0  GUIFillInListBox_
0002:00058ee0  GUICreateListBox_
0002:00058f10  GUICreateEditMLE_
0002:00058fe0  GUIListSize_
0002:00059120  GUIListBoxAddText_
0002:00059180  GUIListBoxAddTextList_
0002:00059200  GUIGetListBoxText_
0002:00059230  GUIListCurr_
0002:00059270  GUIListBoxTopIndex_
0002:000592a0* GUISetListItemData_
0002:000592a0* GUIDropDown_
0002:000592b0* GUIGetListItemData_
Module: /mnt/sda5/.user/root/src/openwatcom-1.9/bld/gui/ui/os2386/gui.lib(/mnt/sda5/.user/root/src/openwatcom-1.9/bld/gui/ui/c/guixutil.c)
0002:000592c0* GUISetRedraw_
0002:000592d0  GUIIsOpen_
0002:000592e0  GUISetUseArea_
0002:00059330  GUISetUseWnd_
0002:00059340  GUIPtInRect_
0002:00059400  GUIOverlap_
0002:00059420  GUISetDialogArea_
0002:00059470  GUIAdjustDialogArea_
0002:00059480  GUIGetSAREA_
0002:000594b0  GUIGetClientSAREA_
0002:000594e0  GUISetArea_
0002:000596f0  GUIMakeEditCopy_
0002:00059740  GUIRedrawTitle_
0002:00059750  GUIMakeRelative_
0002:000597c0  GUIJustSetWindowText_
0002:000597f0* GUIInArea_
0002:00059830  GUIDirtyArea_
0002:00059840  GUIGetTopWnd_
0002:00059860  GUIGetFirstSibling_
0002:00059880  GUIGetParentWindow_
0002:00059890  GUIXGetRootWindow_
0002:000598b0  GUISetCursor_
0002:000598d0* GUIUnHookF1_
0002:000598d0* GUIHookF1_
Module: /mnt/sda5/.user/root/src/openwatcom-1.9/bld/gui/ui/os2386/gui.lib(/mnt/sda5/.user/root/src/openwatcom-1.9/bld/gui/c/guimkey.c)
0002:000598f0  GUIMapKey_
0002:00059d50  GUIGetKeyState_
0003:00004b3c  _KeyState
Module: /mnt/sda5/.user/root/src/openwatcom-1.9/bld/gui/ui/os2386/gui.lib(/mnt/sda5/.user/root/src/openwatcom-1.9/bld/gui/ui/c/guirdlg.c)
0002:00059d70+ GUIFreeDialogBoxControlPtrs_
0002:00059dc0+ GUIFreeDialogBoxHeader_
0002:0005a720  GUICreateDialogFromRes_
Module: /mnt/sda5/.user/root/src/openwatcom-1.9/bld/ui/os2/os2386/ui.lib(/mnt/sda5/.user/root/src/openwatcom-1.9/bld/ui/c/uiyield.c)
0002:0005a965  uiyield_
Module: /mnt/sda5/.user/root/src/openwatcom-1.9/bld/gui/ui/os2386/gui.lib(/mnt/sda5/.user/root/src/openwatcom-1.9/bld/gui/ui/c/guixloop.c)
0003:00004b48  _GUIUserEvents
0002:0005ac70  GUICreatePopup_
0002:0005b2d0  GUIGetMenuWindow_
0002:0005b440  GUIProcessEvent_
Module: /mnt/sda5/.user/root/src/openwatcom-1.9/bld/gui/ui/os2386/gui.lib(/mnt/sda5/.user/root/src/openwatcom-1.9/bld/gui/ui/c/guifdlg.c)
0002:0005be40+ Compare_
0002:0005ca30+ ProcessOKorDClick_
0002:0005cd40+ GetFileNameEvent_
0002:0005cf10  GUIGetFileName_
0002:0005cf70* GUIHookFileDlg_
Module: /mnt/sda5/.user/root/src/openwatcom-1.9/bld/gui/ui/os2386/gui.lib(/mnt/sda5/.user/root/src/openwatcom-1.9/bld/gui/ui/c/guixscal.c)
0002:0005d040  GUIGetScreenArea_
0002:0005d070  GUIMulDiv_
0002:0005d110  GUIScreenToScaleRect_
0002:0005d130  GUIScreenToScaleRectR_
0002:0005d150  GUIScaleToScreenRect_
0002:0005d170  GUIScaleToScreenRectR_
Module: /mnt/sda5/.user/root/src/openwatcom-1.9/bld/gui/ui/os2386/gui.lib(/mnt/sda5/.user/root/src/openwatcom-1.9/bld/help/c/helpopen.c)
0002:0005d340+ do_init_
0002:0005d460  helpinit_
0002:0005d520  help_reinit_
0002:0005d590  helpfini_
0003:00004d58  _HelpFiles
Module: /mnt/sda5/.user/root/src/openwatcom-1.9/bld/gui/ui/os2386/gui.lib(/mnt/sda5/.user/root/src/openwatcom-1.9/bld/help/c/help.c)
0002:0005d690+ hlp_ut_screen_area_
0002:0005d6e0+ hlp_ut_position_
0002:0005dd30+ help_next_field_
0002:0005dec0* Free_Stack_
0002:0005dee0+ help_in_tab_
0002:0005f340  showhelp_
0002:0005f5c0+ do_showhelp_
Module: /mnt/sda5/.user/root/src/openwatcom-1.9/bld/gui/ui/os2386/gui.lib(/mnt/sda5/.user/root/src/openwatcom-1.9/bld/gui/ui/c/guithumb.c)
0002:0005f850* GUISetHScrollThumb_
0002:0005f890  GUISetVScrollThumb_
Module: /mnt/sda5/.user/root/src/openwatcom-1.9/bld/gui/ui/os2386/gui.lib(/mnt/sda5/.user/root/src/openwatcom-1.9/bld/gui/ui/c/guigscrl.c)
0002:0005f8d0* GUIGetHScrollCol_
0002:0005f8f0* GUIGetVScrollRow_
0002:0005f910  GUIGetHScroll_
0002:0005f940* GUIGetVScroll_
Module: /mnt/sda5/.user/root/src/openwatcom-1.9/bld/ui/os2/os2386/ui.lib(/mnt/sda5/.user/root/src/openwatcom-1.9/bld/ui/os2/c/uikeyb.c)
0002:0005f969  uicheckshift_
0002:0005f9c1  flushkey_
0002:0005f9d3  kbdspawnstart_
0002:0005fa02  keyboardevent_
0002:0005fb52  initkeyboard_
0002:0005fb52  kbdspawnend_
0002:0005fbda  finikeyboard_
0003:00009c60+ _SaveStatus
Module: /mnt/sda5/.user/root/src/openwatcom-1.9/bld/ui/os2/os2386/ui.lib(/mnt/sda5/.user/root/src/openwatcom-1.9/bld/ui/c/uibfill.c)
0002:0005fc17  bfill_
Module: /mnt/sda5/.user/root/src/openwatcom-1.9/bld/ui/os2/os2386/ui.lib(/mnt/sda5/.user/root/src/openwatcom-1.9/bld/ui/c/uibcopy.c)
0002:0005fc4e  uibcopy_
Module: /mnt/sda5/.user/root/src/openwatcom-1.9/bld/ui/os2/os2386/ui.lib(/mnt/sda5/.user/root/src/openwatcom-1.9/bld/ui/c/uirefer.c)
0002:0005fc95  uirefresh_
Module: /mnt/sda5/.user/root/src/openwatcom-1.9/bld/ui/os2/os2386/ui.lib(/mnt/sda5/.user/root/src/openwatcom-1.9/bld/ui/c/uiwin.c)
0002:0005fcea+ findspot_
0002:0005fd4f  closewindow_
0002:0005fd99  openwindow_
0002:0005fdc4  movewindow_
0002:0005fdee  frontwindow_
Module: /mnt/sda5/.user/root/src/openwatcom-1.9/bld/ui/os2/os2386/ui.lib(/mnt/sda5/.user/root/src/openwatcom-1.9/bld/ui/c/uiballoc.c)
0002:0005fe1c  bframe_
0002:0005fe27  balloc_
0002:0005fe49  bunframe_
0002:0005fe54  bfree_
Module: /mnt/sda5/.user/root/src/openwatcom-1.9/bld/ui/os2/os2386/ui.lib(/mnt/sda5/.user/root/src/openwatcom-1.9/bld/ui/os2/c/uibmous.c)
0002:0005ff35  uisetmouse_
0002:0005ff5c  uimouse_
Module: /mnt/sda5/.user/root/src/openwatcom-1.9/bld/ui/os2/os2386/ui.lib(/mnt/sda5/.user/root/src/openwatcom-1.9/bld/ui/c/uivscrn.c)
0002:0005ff8c  findvscreen_
0002:0005ffe2  uivdirty_
0002:0005fff0  uivsetactive_
0002:00060008  uivsetcursor_
Module: /mnt/sda5/.user/root/src/openwatcom-1.9/bld/ui/os2/os2386/ui.lib(/mnt/sda5/.user/root/src/openwatcom-1.9/bld/ui/c/uivfill.c)
0002:0006003b  uivfill_
Module: /mnt/sda5/.user/root/src/openwatcom-1.9/bld/ui/os2/os2386/ui.lib(/mnt/sda5/.user/root/src/openwatcom-1.9/bld/ui/c/uivstr.c)
0002:000600a3  uitextfield_
0002:00060177  uivtextput_
0002:000601bd* uivrawput_
Module: /mnt/sda5/.user/root/src/openwatcom-1.9/bld/gui/ui/os2386/gui.lib(/mnt/sda5/.user/root/src/openwatcom-1.9/bld/gui/ui/c/guiximdi.c)
0002:00060290  XFakeInitMDI_
Module: /mnt/sda5/.user/root/src/openwatcom-1.9/bld/gui/ui/os2386/gui.lib(/mnt/sda5/.user/root/src/openwatcom-1.9/bld/gui/c/guimdi.c)
0003:00004ff4+ _GUIMDIMenuID
0003:00004ff8+ _Root
0002:000602c0* GUIGetRoot_
0002:00060550  MDIDeleteMenu_
0002:00060570  MDIResetMenus_
0002:000605f0* GUIEnableMDIMenus_
0002:00060680  InitMDI_
0002:000607d0  ChangeTitle_
0002:00060810  BroughtToFront_
0002:00060880+ FindNextMDIMenuWindowNotInArray_
0002:000608f0  MDIDelete_
0002:00060ba0+ GUIGetNumChildWindows_
0002:00060bd0* GUIGetNumIconicWindows_
0002:00060c50  GUIMDIMoreWindows_
0002:00060cb0  GUIMDIGetWindow_
Module: /mnt/sda5/.user/root/src/openwatcom-1.9/bld/gui/ui/os2386/gui.lib(/mnt/sda5/.user/root/src/openwatcom-1.9/bld/gui/ui/c/guifloat.c)
0002:00060d30  GUIProcessMenuCurr_
0002:00060e20  GUICreateMenuPopup_
0002:000610a0  GUIXCreateFloatingPopup_
0002:000610f0* GUITrackFloatingPopup_
0003:00005014  _GUIPopupMenu
Module: /mnt/sda5/.user/root/src/openwatcom-1.9/bld/gui/ui/os2386/gui.lib(/mnt/sda5/.user/root/src/openwatcom-1.9/bld/gui/c/guihint.c)
0002:00061270+ GUIHasHintType_
0002:000612a0  GUIDisplayHintText_
0002:00061310* GUISetHintText_
0002:00061330  GUIHasHintText_
0002:00061350  GUIDeleteHintText_
0002:00061440+ CountMenus_
0002:00061480+ InsertHint_
0002:000614e0  GUIAppendHintText_
0002:00061560  GUIInitHint_
0002:00061630  GUIInitToolbarHint_
0002:000616d0  GUIFreeHint_
Module: /mnt/sda5/.user/root/src/openwatcom-1.9/bld/gui/ui/os2386/gui.lib(/mnt/sda5/.user/root/src/openwatcom-1.9/bld/gui/ui/c/guisysme.c)
0002:00061730  GUISetSystemMenuFlags_
0002:000617e0  GUISetSystemMenu_
0002:000618e0  GUIProcessSysMenuEvent_
Module: /mnt/sda5/.user/root/src/openwatcom-1.9/bld/gui/ui/os2386/gui.lib(/mnt/sda5/.user/root/src/openwatcom-1.9/bld/gui/ui/c/guirmenu.c)
0002:00061cf0  GUIFreeGUIMenuStruct_
0002:00061ea0  GUICreateMenuStructFromRes_
Module: /mnt/sda5/.user/root/src/openwatcom-1.9/bld/gui/ui/os2386/gui.lib(/mnt/sda5/.user/root/src/openwatcom-1.9/bld/gui/ui/c/guigadgt.c)
0002:00061f60  GUIUseGadget_
0002:00061fc0  GUIDrawGadgetLine_
0002:00062150  GUISetShowGadget_
0002:000621f0  GUIGadgetFilter_
0002:000622c0  GUIInitGadget_
0002:00062300  GUICreateGadget_
0002:00062410  GUIGetScrollOffset_
Module: /mnt/sda5/.user/root/src/openwatcom-1.9/bld/gui/ui/os2386/gui.lib(/mnt/sda5/.user/root/src/openwatcom-1.9/bld/gui/ui/c/guiicon.c)
0002:00062420  GUIDrawIcon_
Module: /mnt/sda5/.user/root/src/openwatcom-1.9/bld/ui/os2/os2386/ui.lib(/mnt/sda5/.user/root/src/openwatcom-1.9/bld/ui/c/uimget.c)
0002:000624ef  uivgetevent_
0002:000624ef  uivget_
0002:000624f9* uiungetevent_
0002:00062509* uiflushevent_
Module: /mnt/sda5/.user/root/src/openwatcom-1.9/bld/gui/ui/os2386/gui.lib(/mnt/sda5/.user/root/src/openwatcom-1.9/bld/gui/ui/c/guiuiev.c)
0002:00062520  GUIUIProcessEvent_
Module: /mnt/sda5/.user/root/src/openwatcom-1.9/bld/gui/ui/os2386/gui.lib(/mnt/sda5/.user/root/src/openwatcom-1.9/bld/gui/c/guiev.c)
0002:00062530  GUIDoneEventProcessing_
0002:00062530  GUIStartEventProcessing_
Module: /mnt/sda5/.user/root/src/openwatcom-1.9/bld/gui/ui/os2386/gui.lib(/mnt/sda5/.user/root/src/openwatcom-1.9/bld/gui/c/guistr.c)
0002:00062590  GUIInitInternalStringTable_
0002:000629b0  GUIFiniInternalStringTable_
Module: /mnt/sda5/.user/root/src/openwatcom-1.9/bld/gui/ui/os2386/gui.lib(/mnt/sda5/.user/root/src/openwatcom-1.9/bld/gui/c/guideath.c)
0002:00062c70  GUIDeath_
Module: /mnt/sda5/.user/root/src/openwatcom-1.9/bld/gui/ui/os2386/gui.lib(/mnt/sda5/.user/root/src/openwatcom-1.9/bld/gui/c/guiextnm.c)
0002:00062c80  GUIGetExtName_
0002:00062ca0* GUISetExtName_
Module: /mnt/sda5/.user/root/src/openwatcom-1.9/bld/gui/ui/os2386/gui.lib(/mnt/sda5/.user/root/src/openwatcom-1.9/bld/gui/c/guidead.c)
0002:00062cf0  GUIDead_
Module: /mnt/sda5/.user/root/src/openwatcom-1.9/bld/gui/ui/os2386/gui.lib(/mnt/sda5/.user/root/src/openwatcom-1.9/bld/gui/ui/c/guixmain.c)
0002:00062d00  main_
0003:00005190  _GUIMainTouched
Module: /mnt/sda5/.user/root/src/openwatcom-1.9/bld/gui/ui/os2386/gui.lib(/mnt/sda5/.user/root/src/openwatcom-1.9/bld/gui/c/guifcrck.c)
0002:00062d10  GUIFirstCrack_
Module: /mnt/sda5/.user/root/src/openwatcom-1.9/bld/ui/os2/os2386/ui.lib(/mnt/sda5/.user/root/src/openwatcom-1.9/bld/ui/c/uivopen.c)
0002:00062d6f  uivopen_
0002:00062f35  uivclose_
0002:00062f6a  uivresize_
0002:0006307d  uivmove_
Module: /mnt/sda5/.user/root/src/openwatcom-1.9/bld/ui/os2/os2386/ui.lib(/mnt/sda5/.user/root/src/openwatcom-1.9/bld/ui/c/uivhide.c)
0002:000630c8  uivhide_
0002:000630ee  uivshow_
Module: /mnt/sda5/.user/root/src/openwatcom-1.9/bld/gui/ui/os2386/gui.lib(/mnt/sda5/.user/root/src/openwatcom-1.9/bld/gui/c/guisetup.c)
0002:00063110  GUISetupWnd_
Module: /mnt/sda5/.user/root/src/openwatcom-1.9/bld/gui/ui/os2386/gui.lib(/mnt/sda5/.user/root/src/openwatcom-1.9/bld/gui/ui/c/guidrawt.c)
0002:00063160  GUIXDrawText_
0002:00063470  GUIXDrawTextRGB_
Module: /mnt/sda5/.user/root/src/openwatcom-1.9/bld/ui/os2/os2386/ui.lib(/mnt/sda5/.user/root/src/openwatcom-1.9/bld/ui/c/uivmove.c)
0002:00063473  uivmoveblock_
Module: /mnt/sda5/.user/root/src/openwatcom-1.9/rel2/lib386/os2/clib3r.lib(strcspn.c)
0002:000635b0  strcspn_
Module: /mnt/sda5/.user/root/src/openwatcom-1.9/rel2/lib386/os2/clib3r.lib(strnset.c)
0002:00063600  strnset_
Module: /mnt/sda5/.user/root/src/openwatcom-1.9/rel2/lib386/os2/clib3r.lib(write.c)
0002:00063720  write_
Module: /mnt/sda5/.user/root/src/openwatcom-1.9/rel2/lib386/os2/clib3r.lib(tell.c)
0002:00063950  tell_
Module: /mnt/sda5/.user/root/src/openwatcom-1.9/bld/sdk/rc/wres/flat386/mf_r/wres.lib(loadfind.c)
0002:00063988  FindResources_
0003:00005194  _FileShift
Module: /mnt/sda5/.user/root/src/openwatcom-1.9/bld/sdk/rc/wres/flat386/mf_r/wres.lib(loadstr.c)
0002:00063bc8+ WResLoadString2_
0002:00063c78  WResLoadString_
0002:00063c90  OpenResFile_
0002:00063ca0+ InitResources2_
0002:00063cc8  InitResources_
0002:00063cd8* CloseResFile2_
0002:00063ce4  CloseResFile_
0002:00063cfc* LoadstrInitStatics_
0003:00009fe4  _MainDir
Module: /mnt/sda5/.user/root/src/openwatcom-1.9/rel2/lib386/os2/clib3r.lib(iob.c)
0003:00005198  ___iob
0003:000053a0  __fmode
0003:00009fe8  ___OpenStreams
0003:00009fec  ___ClosedStreams
Module: /mnt/sda5/.user/root/src/openwatcom-1.9/bld/sdk/rc/wres/flat386/mf_r/wres.lib(loadres.c)
0002:00063d44+ WResLoadResource2_
0002:00063e04  WResLoadResource_
Module: /mnt/sda5/.user/root/src/openwatcom-1.9/rel2/lib386/os2/clib3r.lib(mbisdbcs.c)
0003:00009ff0  ___IsDBCS
Module: /mnt/sda5/.user/root/src/openwatcom-1.9/rel2/lib386/os2/clib3r.lib(mbislead.c)
0002:00063e30* _ismbblead_
0003:00009ff4  ___MBCSIsTable
Module: /mnt/sda5/.user/root/src/openwatcom-1.9/rel2/lib386/os2/clib3r.lib(nonibm.c)
0002:00063e50* __is_nonIBM_
0003:000053a4  ___NonIBM
Module: /mnt/sda5/.user/root/src/openwatcom-1.9/bld/ui/os2/os2386/ui.lib(/mnt/sda5/.user/root/src/openwatcom-1.9/bld/ui/c/uibox.c)
0002:00063e68  drawbox_
0002:00063fae  blowup_
0002:00064086  uidrawbox_
Module: /mnt/sda5/.user/root/src/openwatcom-1.9/bld/ui/os2/os2386/ui.lib(/mnt/sda5/.user/root/src/openwatcom-1.9/bld/ui/c/uibstr.c)
0002:000640f4  bstring_
0002:00064127  braw_
Module: /mnt/sda5/.user/root/src/openwatcom-1.9/bld/ui/os2/os2386/ui.lib(/mnt/sda5/.user/root/src/openwatcom-1.9/bld/ui/c/uipopup.c)
0002:0006441a+ uicreatepopupdesc_
0002:00064605  uiposfloatingpopup_
0002:00064b54  uicreatepopupinarea_
0002:00064b77+ uicreatesubpopup_
0002:00064bbd  uicreatesubpopupinarea_
0002:00064bdd* uicreatepopup_
Module: /mnt/sda5/.user/root/src/openwatcom-1.9/bld/ui/os2/os2386/ui.lib(/mnt/sda5/.user/root/src/openwatcom-1.9/bld/ui/c/uivutil.c)
0002:00064c43  isdialogue_
0002:00064c53  isscreen_
0002:00064c85* uisetsnow_
Module: /mnt/sda5/.user/root/src/openwatcom-1.9/bld/gui/ui/os2386/gui.lib(/mnt/sda5/.user/root/src/openwatcom-1.9/bld/gui/ui/c/uimenucr.c)
0002:00064ca0  uimenucurr_
Module: /mnt/sda5/.user/root/src/openwatcom-1.9/bld/ui/os2/os2386/ui.lib(/mnt/sda5/.user/root/src/openwatcom-1.9/bld/ui/c/uipget.c)
0002:00064ca5  saveevent_
0002:00064ccb  getprime_
0002:00064cf3* uivgetprimevent_
0002:00064cf3* uivgetprime_
0003:0000a0f8  _Event
Module: /mnt/sda5/.user/root/src/openwatcom-1.9/bld/ui/os2/os2386/ui.lib(/mnt/sda5/.user/root/src/openwatcom-1.9/bld/ui/c/uiprot.c)
0002:00064cfa  uiunprotect_
0002:00064d21  uiprotect_
Module: /mnt/sda5/.user/root/src/openwatcom-1.9/bld/ui/os2/os2386/ui.lib(/mnt/sda5/.user/root/src/openwatcom-1.9/bld/ui/c/uiledit.c)
0002:00064da0  uiedittrim_
0002:00064db2* uieditmarking_
0002:00064de6  uibegedit_
0002:00064efa  uieditpushlist_
0002:00064f0e  uieditpoplist_
0002:00064f64  uiledit_
0002:00065058* uieditinsert_
0002:000650d4  uiendedit_
0002:0006511c  uieditisdirty_
0002:00065143* uieditautoclear_
0002:00065158* uieditcursor_
0002:00065169* uieditdirty_
0002:00065173* uieditclean_
0003:00005420+ _UIEdit
Module: /mnt/sda5/.user/root/src/openwatcom-1.9/bld/ui/os2/os2386/ui.lib(/mnt/sda5/.user/root/src/openwatcom-1.9/bld/ui/c/uimisc.c)
0002:0006517d  uisetscreenarea_
0002:000651b9  uisetarea_
0002:00065205  uiposition_
0002:0006525f  uiopen_
0002:0006529c  uiclose_
0002:000652ad  uicntrtext_
0002:000652f1  uinocursor_
0002:000652f9  uicursor_
Module: /mnt/sda5/.user/root/src/openwatcom-1.9/bld/ui/os2/os2386/ui.lib(/mnt/sda5/.user/root/src/openwatcom-1.9/bld/ui/c/uilstbox.c)
0002:00065304  uigetlistelement_
0002:0006533c  uipaintlistbox_
0002:00065480+ checkitem_
0002:000654f1  uiupdatelistbox_
0002:00065564  uiboxpushlist_
0002:0006556e  uiboxpoplist_
0002:0006559c  uilistsize_
0002:000655b4  uimovelistbox_
0002:000655d2  uibeglistbox_
0002:0006569d  uiendlistbox_
0002:00065746+ charselect_
0002:000657b3  uilistbox_
Module: /mnt/sda5/.user/root/src/openwatcom-1.9/bld/ui/os2/os2386/ui.lib(/mnt/sda5/.user/root/src/openwatcom-1.9/bld/ui/c/uihotspt.c)
0002:00065ba6  uidrawhottext_
0002:00065cb8  uihotspot_
0002:00065e62  uiposnhotspots_
0002:00065efd  uiprinthotspots_
0002:00065f21* uioffhotspots_
0002:00065f5c  uihotspotfilter_
0002:000660cb  uiisdefaulthotspot_
Module: /mnt/sda5/.user/root/src/openwatcom-1.9/rel2/lib386/os2/clib3r.lib(strncat.c)
0002:00066100  strncat_
Module: /mnt/sda5/.user/root/src/openwatcom-1.9/bld/gui/ui/os2386/gui.lib(/mnt/sda5/.user/root/src/openwatcom-1.9/bld/gui/ui/c/uidchfld.c)
0002:00066140  uidialogchangefield_
Module: /mnt/sda5/.user/root/src/openwatcom-1.9/bld/ui/os2/os2386/ui.lib(/mnt/sda5/.user/root/src/openwatcom-1.9/bld/ui/c/uidevent.c)
0002:00066145  uidialogevent_
Module: /mnt/sda5/.user/root/src/openwatcom-1.9/bld/gui/ui/os2386/gui.lib(/mnt/sda5/.user/root/src/openwatcom-1.9/bld/help/c/dialcb.c)
0002:00066150  uidialogcallback_
Module: /mnt/sda5/.user/root/src/openwatcom-1.9/rel2/lib386/os2/clib3r.lib(strncmp.c)
0002:00066160  strncmp_
Module: /mnt/sda5/.user/root/src/openwatcom-1.9/bld/ui/os2/os2386/ui.lib(/mnt/sda5/.user/root/src/openwatcom-1.9/bld/ui/c/uiarea.c)
0002:00066189  dividearea_
Module: /mnt/sda5/.user/root/src/openwatcom-1.9/bld/gui/ui/os2386/gui.lib(/mnt/sda5/.user/root/src/openwatcom-1.9/bld/gui/ui/c/guimapky.c)
0002:00066340  GUISetKeyState_
0002:00066370  GUIMapKeys_
Module: /mnt/sda5/.user/root/src/openwatcom-1.9/rel2/lib386/os2/clib3r.lib(itoa.c)
0002:00066850  utoa_
0002:000668a0  itoa_
Module: /mnt/sda5/.user/root/src/openwatcom-1.9/bld/gui/ui/os2386/gui.lib(/mnt/sda5/.user/root/src/openwatcom-1.9/bld/gui/ui/c/guismove.c)
0002:00066910  GUIStartMoveResize_
0002:00066940  GUIStartKeyboardMoveResize_
0002:00066c10* MoveResizeCancel_
0002:00066c20  GUIDoKeyboardMoveResize_
0002:00066d00  GUIDoMoveResize_
0002:00066d60  GUIDoMoveResizeCheck_
Module: /mnt/sda5/.user/root/src/openwatcom-1.9/bld/gui/ui/os2386/gui.lib(/mnt/sda5/.user/root/src/openwatcom-1.9/bld/gui/ui/c/guikey.c)
0002:00066db0  GUIProcessAltMenuEvent_
Module: /mnt/sda5/.user/root/src/openwatcom-1.9/bld/gui/ui/os2386/gui.lib(/mnt/sda5/.user/root/src/openwatcom-1.9/bld/gui/ui/c/guixhook.c)
0002:00066e40  GUISetMDIProcessEvent_
0002:00066e50  GUIMDIProcessEvent_
Module: /mnt/sda5/.user/root/src/openwatcom-1.9/rel2/lib386/os2/clib3r.lib(sdrveos2.c)
0002:00066e70  _dos_setdrive_
Module: /mnt/sda5/.user/root/src/openwatcom-1.9/rel2/lib386/os2/clib3r.lib(chdiros2.c)
0002:00066ec0  chdir_
Module: /mnt/sda5/.user/root/src/openwatcom-1.9/rel2/lib386/os2/clib3r.lib(_istrcc_.asm)
0002:00066edc  strcasecmp_
Module: /mnt/sda5/.user/root/src/openwatcom-1.9/rel2/lib386/os2/clib3r.lib(strtok.c)
0002:00066ef0  strtok_
Module: /mnt/sda5/.user/root/src/openwatcom-1.9/rel2/lib386/os2/clib3r.lib(gtcwdos2.c)
0002:00066fb0  getcwd_
Module: /mnt/sda5/.user/root/src/openwatcom-1.9/rel2/lib386/os2/clib3r.lib(diros2.c)
0002:00067120+ __opendir_
0002:000671d0+ _opendir_
0002:00067360  opendir_
0002:00067380  readdir_
0002:00067440  closedir_
0002:00067490* rewinddir_
Module: /mnt/sda5/.user/root/src/openwatcom-1.9/rel2/lib386/os2/clib3r.lib(statos2.c)
0002:00067527  stat_
Module: /mnt/sda5/.user/root/src/openwatcom-1.9/bld/gui/ui/os2386/gui.lib(/mnt/sda5/.user/root/src/openwatcom-1.9/bld/gui/ui/c/helpmem.c)
0002:000677b0  HelpMemFree_
0002:000677c0  HelpMemAlloc_
0002:000677d0  HelpMemRealloc_
Module: /mnt/sda5/.user/root/src/openwatcom-1.9/bld/gui/ui/os2386/gui.lib(/mnt/sda5/.user/root/src/openwatcom-1.9/bld/help/c/helpio.c)
0002:000677e0  HelpFileLen_
0002:000677f0  HelpRead_
0002:00067800* HelpWrite_
0002:00067810  HelpSeek_
0002:00067820  HelpTell_
0002:00067830  HelpOpen_
0002:00067890  HelpClose_
0002:000678a0  HelpAccess_
0002:000678d0  HelpGetCWD_
0002:000678e0  HelpSearchEnv_
Module: /mnt/sda5/.user/root/src/openwatcom-1.9/rel2/lib386/os2/clib3r.lib(splitpat.c)
0002:00067930  _splitpath_
Module: /mnt/sda5/.user/root/src/openwatcom-1.9/bld/gui/ui/os2386/gui.lib(/mnt/sda5/.user/root/src/openwatcom-1.9/bld/help/c/search.c)
0002:00067c80  HelpFindFirst_
0002:00067d10  HelpGetIndexedTopic_
0002:00067d80  HelpFindTopicOffset_
0002:00067df0  InitHelpSearch_
0002:00068040  GetDefTopic_
0002:00068050* GetDescrip_
0002:00068060  FiniHelpSearch_
0003:000054b4+ _curFile
0003:0000a100+ _curPage
0003:0000a500+ _pageIndex
0003:0000a504+ _pageHeader
0003:0000a508+ _stringBlock
Module: /mnt/sda5/.user/root/src/openwatcom-1.9/bld/ui/os2/os2386/ui.lib(/mnt/sda5/.user/root/src/openwatcom-1.9/bld/ui/c/uivattr.c)
0002:000680a0  uivattribute_
0002:000680e6* uivattrflip_
Module: /mnt/sda5/.user/root/src/openwatcom-1.9/bld/ui/os2/os2386/ui.lib(/mnt/sda5/.user/root/src/openwatcom-1.9/bld/ui/c/uitab.c)
0002:000681cf  uitabfilter_
Module: /mnt/sda5/.user/root/src/openwatcom-1.9/bld/gui/ui/os2386/gui.lib(/mnt/sda5/.user/root/src/openwatcom-1.9/bld/help/c/dlg.c)
0002:00068510+ GetListBoxItem_
0002:00068630  HelpDialogCallBack_
0002:000686c0  SearchDlgFini_
0002:000686f0  HelpSearch_
Module: /mnt/sda5/.user/root/src/openwatcom-1.9/bld/gui/ui/os2386/gui.lib(/mnt/sda5/.user/root/src/openwatcom-1.9/bld/help/c/helpscan.c)
0002:000689e0+ freeHyperlinkInfo_
0002:00068a00  ScanLine_
Module: /mnt/sda5/.user/root/src/openwatcom-1.9/rel2/lib386/os2/clib3r.lib(atoi.c)
0002:00068b90  atoi_
Module: /mnt/sda5/.user/root/src/openwatcom-1.9/bld/gui/ui/os2386/gui.lib(/mnt/sda5/.user/root/src/openwatcom-1.9/bld/help/c/vvscroll.c)
0002:00068be0  vvscroll_
Module: /mnt/sda5/.user/root/src/openwatcom-1.9/bld/gui/ui/os2386/gui.lib(/mnt/sda5/.user/root/src/openwatcom-1.9/bld/help/c/msgbox.c)
0002:00068ce0  ShowMsgBox_
0003:0000557c+ _helpMsgBox
Module: /mnt/sda5/.user/root/src/openwatcom-1.9/bld/ui/os2/os2386/ui.lib(/mnt/sda5/.user/root/src/openwatcom-1.9/bld/ui/os2/c/uisnow.c)
0002:00068d3b* vertretrace_
0002:00068d3c  issnow_
Module: /mnt/sda5/.user/root/src/openwatcom-1.9/bld/ui/os2/os2386/ui.lib(/mnt/sda5/.user/root/src/openwatcom-1.9/bld/ui/c/uifar.c)
0002:00068d4d  _farfill
0002:00068d69  _farcopy
0002:00068d85  _farstring
0002:00068dcb  _farattrib
0002:00068de7  _farattrflip
Module: /mnt/sda5/.user/root/src/openwatcom-1.9/bld/ui/os2/os2386/ui.lib(/mnt/sda5/.user/root/src/openwatcom-1.9/bld/ui/c/uirfrsh.c)
0002:00068ea3  uidorefresh_
Module: /mnt/sda5/.user/root/src/openwatcom-1.9/bld/ui/os2/os2386/ui.lib(/mnt/sda5/.user/root/src/openwatcom-1.9/bld/ui/c/uimem.c)
0002:00068f29  faralloc_
0002:00068f2e  farfree_
Module: /mnt/sda5/.user/root/src/openwatcom-1.9/bld/ui/os2/os2386/ui.lib(/mnt/sda5/.user/root/src/openwatcom-1.9/bld/ui/c/uicheck.c)
0002:00068f68  okarea_
0002:00068f96  oksubarea_
0002:00068fa9  okline_
0002:00068fcf  okopen_
Module: /mnt/sda5/.user/root/src/openwatcom-1.9/bld/gui/ui/os2386/gui.lib(/mnt/sda5/.user/root/src/openwatcom-1.9/bld/gui/ui/c/guienum.c)
0002:00068fe0  GUIEnumChildWindows_
Module: /mnt/sda5/.user/root/src/openwatcom-1.9/bld/sdk/rc/wres/flat386/mf_r/wres.lib(resmenu.c)
0002:00069010* ResWriteMenuHeader_
0002:00069040* ResWriteMenuExHeader_
0002:000690a4+ ResWriteMenuItemPopup_
0002:000690f4* ResWriteMenuExItemPopup_
0002:0006918c+ ResWriteMenuItemNormal_
0002:000691f0* ResWriteMenuExItemNormal_
0002:00069278* ResWriteMenuItem_
0002:0006929c+ ResReadMenuHeader_
0002:000692dc* ResReadMenuExtraBytes_
0002:00069318* ResIsMenuEx_
0002:00069344* ResIsHeaderMenuEx_
0002:00069350* ResReadMenuExItem_
0002:00069430* ResReadMenuItem_
0002:000694b0* ResReadMenuItem32_
0002:00069530  ResNewMenuItem_
0002:0006956c  ResFreeMenuItem_
Module: /mnt/sda5/.user/root/src/openwatcom-1.9/rel2/lib386/os2/clib3r.lib(cstart)
0002:000695a4  _cstart_
Module: /mnt/sda5/.user/root/src/openwatcom-1.9/rel2/lib386/os2/clib3r.lib(argcv.c)
0003:0000a524  __argc
0003:0000a528  __argv
0003:0000a52c  ___argc
0003:0000a530  ___argv
Module: /mnt/sda5/.user/root/src/openwatcom-1.9/bld/ui/os2/os2386/ui.lib(/mnt/sda5/.user/root/src/openwatcom-1.9/bld/ui/c/uibfake.c)
0002:00069600  bfake_
Module: /mnt/sda5/.user/root/src/openwatcom-1.9/rel2/lib386/os2/clib3r.lib(setbits.c)
0002:00069630  __setbits_
Module: /mnt/sda5/.user/root/src/openwatcom-1.9/rel2/lib386/os2/clib3r.lib(bits.c)
0002:00069670  __Bits
Module: /mnt/sda5/.user/root/src/openwatcom-1.9/rel2/lib386/os2/clib3r.lib(__lseek.c)
0002:00069680  __lseek_
Module: /mnt/sda5/.user/root/src/openwatcom-1.9/rel2/lib386/os2/clib3r.lib(dosret.c)
0002:000696b0* _dosretax_
0002:000696c0* _dosret0_
0002:000696d0  __set_errno_dos_
0002:00069700* __set_errno_dos_reterr_
Module: /mnt/sda5/.user/root/src/openwatcom-1.9/rel2/lib386/os2/clib3r.lib(seterrno.c)
0002:0006970c  __set_errno_
0002:0006971a* __set_EDOM_
0002:00069728  __set_ERANGE_
0002:00069736* __set_EINVAL_
0002:00069749  __set_doserrno_
Module: /mnt/sda5/.user/root/src/openwatcom-1.9/rel2/lib386/os2/clib3r.lib(iomode.c)
0002:00069760  __GetIOMode_
0002:00069780  __SetIOMode_nogrow_
0003:000056bc  ___NFiles
0003:000056c0  ___init_mode
0003:00005710  ___io_mode
Module: /mnt/sda5/.user/root/src/openwatcom-1.9/rel2/lib386/os2/clib3r.lib(maino32.c)
0003:00005714+ ___FirstThreadData
0003:00005718  ___GetThreadPtr
0003:0000571c  __AccessFileH
0003:00005720  __ReleaseFileH
0003:00005724  __AccessIOB
0003:00005728  __ReleaseIOB
0003:0000572c  __AccessNHeap
0003:00005730* __AccessFHeap
0003:00005734  __ReleaseNHeap
0003:00005738* __ReleaseFHeap
0002:000697a0  __threadstack_
0002:000697a7* __threadid_
0002:000697ae  __OS2MainInit_
0002:0006981d+ __OS2Init_
0002:0006985b* __OS2Fini_
0002:00069863* __shutdown_stack_checking_
0002:00069878  __exit_
0003:0000573c* __AccessTDList
0003:00005740* __ReleaseTDList
0003:00005744+ ___sig_init_rtn
0003:00005748* ___sig_fini_rtn
0003:0000574c  __threadstksize
0003:00005750  ___process_fini
0003:0000a534  ___Is_DLL
0003:0000a538+ ___saved_CS
Module: /mnt/sda5/.user/root/src/openwatcom-1.9/rel2/lib386/os2/clib3r.lib(stk)
0002:000698cd  __STK
0002:000698bd  __CHK
0002:000698fc  __GRO
0002:000698ec  __STKOVERFLOW_
Module: /mnt/sda5/.user/root/src/openwatcom-1.9/bld/sdk/rc/wres/flat386/mf_r/wres.lib(wriidfn.c)
0002:00069920  WResInitIDFromNum_
Module: /mnt/sda5/.user/root/src/openwatcom-1.9/bld/sdk/rc/wres/flat386/mf_r/wres.lib(wrfindrs.c)
0002:00069930  __FindType_
0002:00069954  __FindRes_
0002:00069978  __FindLang_
0002:000699b4  WResFindResource_
Module: /mnt/sda5/.user/root/src/openwatcom-1.9/bld/sdk/rc/wres/flat386/mf_r/wres.lib(wrgetli.c)
0002:00069a40  WResGetLangInfo_
0002:00069a54* WResGetFileInfo_
Module: /mnt/sda5/.user/root/src/openwatcom-1.9/bld/sdk/rc/wres/flat386/mf_r/wres.lib(ropenfro.c)
0002:00069a70  ResOpenFileRO_
Module: /mnt/sda5/.user/root/src/openwatcom-1.9/bld/sdk/rc/wres/flat386/mf_r/wres.lib(wrinitdi.c)
0002:00069ac0  WResInitDir_
Module: /mnt/sda5/.user/root/src/openwatcom-1.9/bld/sdk/rc/wres/flat386/mf_r/wres.lib(wrreaddi.c)
0002:0006a238  WResReadDir_
0002:0006a244+ WResReadDir2_
Module: /mnt/sda5/.user/root/src/openwatcom-1.9/bld/sdk/rc/wres/flat386/mf_r/wres.lib(wrfreedi.c)
0002:0006a300+ __FreeLangList_
0002:0006a32c+ __FreeResList_
0002:0006a364  __FreeTypeList_
0002:0006a39c  WResFreeDir_
Module: /mnt/sda5/.user/root/src/openwatcom-1.9/bld/sdk/rc/wres/flat386/mf_r/wres.lib(rclosef.c)
0002:0006a3c0  ResCloseFile_
Module: /mnt/sda5/.user/root/src/openwatcom-1.9/rel2/lib386/os2/clib3r.lib(initfile.c)
0002:0006a410  __InitFiles_
Module: /mnt/sda5/.user/root/src/openwatcom-1.9/rel2/lib386/os2/clib3r.lib(ioexit.c)
0002:0006a510* fcloseall_
0002:0006a520  __full_io_exit_
Module: /mnt/sda5/.user/root/src/openwatcom-1.9/rel2/lib386/os2/clib3r.lib(mbinit.c)
0002:0006a566  __mbinit_
0003:00005764  ___MBCodePage
Module: /mnt/sda5/.user/root/src/openwatcom-1.9/bld/ui/os2/os2386/ui.lib(/mnt/sda5/.user/root/src/openwatcom-1.9/bld/ui/c/uibpix.c)
0002:0006a65e  bpixel_
Module: /mnt/sda5/.user/root/src/openwatcom-1.9/bld/ui/os2/os2386/ui.lib(/mnt/sda5/.user/root/src/openwatcom-1.9/bld/ui/c/uivline.c)
0002:0006a7c5  uiveditevent_
0002:0006a951* uiveditline_
0002:0006a977  uiveditinit_
0002:0006a9c3  uiveditfini_
0003:00005768  _LineEvents
Module: /mnt/sda5/.user/root/src/openwatcom-1.9/rel2/lib386/os2/clib3r.lib(alphabet.c)
0003:00000038  ___Alphabet
Module: /mnt/sda5/.user/root/src/openwatcom-1.9/bld/ui/os2/os2386/ui.lib(/mnt/sda5/.user/root/src/openwatcom-1.9/bld/ui/c/uiband.c)
0002:0006a9f6  uibandinit_
0002:0006aa4a  uibandmove_
0002:0006aa6d  uibandfini_
Module: /mnt/sda5/.user/root/src/openwatcom-1.9/rel2/lib386/os2/clib3r.lib(mbsnextc.c)
0002:0006aa90  _mbsnextc_
Module: /mnt/sda5/.user/root/src/openwatcom-1.9/rel2/lib386/os2/clib3r.lib(mbsinc.c)
0002:0006aad0  _mbsinc_
Module: /mnt/sda5/.user/root/src/openwatcom-1.9/rel2/lib386/os2/clib3r.lib(strdup.c)
0002:0006ab00  __clib_strdup_
Module: /mnt/sda5/.user/root/src/openwatcom-1.9/rel2/lib386/os2/clib3r.lib(mbschr.c)
0002:0006ab40  _mbschr_
Module: /mnt/sda5/.user/root/src/openwatcom-1.9/rel2/lib386/os2/clib3r.lib(mbscmp.c)
0002:0006aba0  _mbscmp_
Module: /mnt/sda5/.user/root/src/openwatcom-1.9/rel2/lib386/os2/clib3r.lib(mbspbrk.c)
0002:0006ac10  _mbspbrk_
Module: /mnt/sda5/.user/root/src/openwatcom-1.9/rel2/lib386/os2/clib3r.lib(fullpath.c)
0002:0006ac60+ _sys_fullpath_
0002:0006ada0  _fullpath_
Module: /mnt/sda5/.user/root/src/openwatcom-1.9/rel2/lib386/os2/clib3r.lib(fstatos2.c)
0002:0006ae50  fstat_
Module: /mnt/sda5/.user/root/src/openwatcom-1.9/rel2/lib386/os2/clib3r.lib(errno.c)
0002:0006afd0  __get_errno_ptr_
0002:0006afe0* __get_doserrno_ptr_
Module: /mnt/sda5/.user/root/src/openwatcom-1.9/rel2/lib386/os2/clib3r.lib(d2ttime.c)
0002:0006aff0  _d2ttime_
Module: /mnt/sda5/.user/root/src/openwatcom-1.9/rel2/lib386/os2/clib3r.lib(filelen.c)
0002:0006b070  filelength_
Module: /mnt/sda5/.user/root/src/openwatcom-1.9/rel2/lib386/os2/clib3r.lib(accssos2.c)
0002:0006b0d0  access_
Module: /mnt/sda5/.user/root/src/openwatcom-1.9/rel2/lib386/os2/clib3r.lib(mbsnccnt.c)
0002:0006b130  _mbsnccnt_
Module: /mnt/sda5/.user/root/src/openwatcom-1.9/rel2/lib386/os2/clib3r.lib(mbsncpy.c)
0002:0006b160  _mbsncpy_
Module: /mnt/sda5/.user/root/src/openwatcom-1.9/rel2/lib386/os2/clib3r.lib(mbsnbcnt.c)
0002:0006b180  _mbsnbcnt_
Module: /mnt/sda5/.user/root/src/openwatcom-1.9/bld/ui/os2/os2386/ui.lib(/mnt/sda5/.user/root/src/openwatcom-1.9/bld/ui/c/uibattr.c)
0002:0006b1e1  battribute_
0002:0006b22f  battrflip_
Module: /mnt/sda5/.user/root/src/openwatcom-1.9/rel2/lib386/os2/clib3r.lib(fmemmove.c)
0002:0006b280  _fmemmove_
Module: /mnt/sda5/.user/root/src/openwatcom-1.9/bld/ui/os2/os2386/ui.lib(/mnt/sda5/.user/root/src/openwatcom-1.9/bld/ui/c/uibarf.c)
0002:0006b310  uibarf_
Module: /mnt/sda5/.user/root/src/openwatcom-1.9/bld/sdk/rc/wres/flat386/mf_r/wres.lib(wrerror.c)
0002:0006b320  WresRecordError_
Module: /mnt/sda5/.user/root/src/openwatcom-1.9/bld/sdk/rc/wres/flat386/mf_r/wres.lib(write.c)
0002:0006b35c  ResWriteUint8_
0002:0006b38c  ResWriteUint16_
0002:0006b3bc  ResWriteUint32_
0002:0006b3ec+ WResWriteWResIDNameUni_
0002:0006b4d4* WResWriteWResIDName_
0002:0006b4e0* WResWriteWResID_
0002:0006b528* WResWriteTypeRecord_
0002:0006b56c* WResWriteResRecord_
0002:0006b5b0* WResWriteLangRecord_
0002:0006b5e0* WResWriteHeaderRecord_
0002:0006b650* WResWriteExtHeader_
0002:0006b680+ ResWriteStringLen_
0002:0006b704  ResWriteString_
0002:0006b730+ ResWriteNameOrOrdinal_
0002:0006b824* MResWriteResourceHeader_
0002:0006b958* WriteInitStatics_
0003:00005794+ _ConvToUnicode
Module: /mnt/sda5/.user/root/src/openwatcom-1.9/bld/sdk/rc/wres/flat386/mf_r/wres.lib(resseek.c)
0002:0006b970* ResSeek_
0002:0006b990  ResPadDWord_
Module: /mnt/sda5/.user/root/src/openwatcom-1.9/bld/sdk/rc/wres/flat386/mf_r/wres.lib(rduint32.c)
0002:0006b9f0  ResReadUint32_
Module: /mnt/sda5/.user/root/src/openwatcom-1.9/bld/sdk/rc/wres/flat386/mf_r/wres.lib(rduint16.c)
0002:0006ba40  ResReadUint16_
Module: /mnt/sda5/.user/root/src/openwatcom-1.9/bld/sdk/rc/wres/flat386/mf_r/wres.lib(rrdstr.c)
0002:0006ba90  ResReadString_
0002:0006bb00  ResRead32String_
Module: /mnt/sda5/.user/root/src/openwatcom-1.9/rel2/lib386/os2/clib3r.lib(main2o32.c)
0002:0006bb80  __OS2Main
Module: /mnt/sda5/.user/root/src/openwatcom-1.9/rel2/lib386/os2/clib3r.lib(segdefns)
0002:00000003  ___begtext
0003:00000000* __nullarea
0003:00005a2c  __Start_XI
0003:00005a74  __End_XI
0003:00005a74  __Start_YI
0003:00005a92  __End_YI
Module: /mnt/sda5/.user/root/src/openwatcom-1.9/rel2/lib386/os2/clib3r.lib(initargv.c)
0002:0006bbf0  __Init_Argv_
0002:0006bc40+ _getargv_
0002:0006bde0  __Fini_Argv_
Module: /mnt/sda5/.user/root/src/openwatcom-1.9/rel2/lib386/os2/clib3r.lib(crwdata)
0003:000057dc  __osmajor
0003:000057dd  __osminor
0003:000057a8* __LpDllName
0003:000057ac* __LpwCmdLine
0003:000057b0* __LpwPgmName
0003:000057b4* __LpwDllName
0003:000057a0  __LpCmdLine
0003:000057a4  __LpPgmName
0003:00005798* __dynend
0003:0000579c  __curbrk
0003:000057b8* __STACKLOW
0003:000057bc* __STACKTOP
0003:000057c0  __ASTACKSIZ
0003:000057c4  __ASTACKPTR
0003:000057c8* __cbyte
0003:000057cc* __cbyte2
0003:000057d0* __child
0003:000057d6  __Envptr
0003:000057da* __Envseg
0003:000057d4  __no87
0003:000057de* ___FPE_handler
Module: /mnt/sda5/.user/root/src/openwatcom-1.9/rel2/lib386/os2/clib3r.lib(cinit.c)
0002:0006bdf0  __CommonInit_
0003:0000a86c  ___hmodule
Module: /mnt/sda5/.user/root/src/openwatcom-1.9/rel2/lib386/os2/clib3r.lib(initrtns.c)
0002:0006be10  __InitRtns
0002:0006be60  __FiniRtns
Module: /mnt/sda5/.user/root/src/openwatcom-1.9/rel2/lib386/os2/clib3r.lib(xmsgo32.c)
0002:0006bec0+ __exit_with_msg_
0002:0006bf10  __fatal_runtime_error_
Module: /mnt/sda5/.user/root/src/openwatcom-1.9/bld/sdk/rc/wres/flat386/mf_r/wres.lib(wridcmp.c)
0002:0006bf30  WResIDCmp_
Module: /mnt/sda5/.user/root/src/openwatcom-1.9/rel2/lib386/os2/clib3r.lib(setmd.c)
0002:0006bf70  setmode_
Module: /mnt/sda5/.user/root/src/openwatcom-1.9/bld/sdk/rc/wres/flat386/mf_r/wres.lib(ralliae.c)
0002:0006c050  ResAddLLItemAtEnd_
Module: /mnt/sda5/.user/root/src/openwatcom-1.9/bld/sdk/rc/wres/flat386/mf_r/wres.lib(wrrfrr.c)
0002:0006c080  WResReadFixedResRecord_
0002:0006c0c0  WResReadFixedResRecord1_
0002:0006c100  WResReadFixedResRecord2_
Module: /mnt/sda5/.user/root/src/openwatcom-1.9/bld/sdk/rc/wres/flat386/mf_r/wres.lib(wridexby.c)
0002:0006c180  WResIDExtraBytes_
Module: /mnt/sda5/.user/root/src/openwatcom-1.9/bld/sdk/rc/wres/flat386/mf_r/wres.lib(wrrewrid.c)
0002:0006c190  WResReadExtraWResID_
Module: /mnt/sda5/.user/root/src/openwatcom-1.9/bld/sdk/rc/wres/flat386/mf_r/wres.lib(wrrftr.c)
0002:0006c1f0  WResReadFixedTypeRecord_
0002:0006c238  WResReadFixedTypeRecord2_
Module: /mnt/sda5/.user/root/src/openwatcom-1.9/bld/sdk/rc/wres/flat386/mf_r/wres.lib(wrrhr.c)
0002:0006c2b0  WResReadHeaderRecord_
0002:0006c328  WResReadExtHeader_
Module: /mnt/sda5/.user/root/src/openwatcom-1.9/bld/sdk/rc/wres/flat386/mf_r/wres.lib(mrrdrh.c)
0002:0006c370  M32ResReadResourceHeader_
0002:0006c4dc  MResReadResourceHeader_
Module: /mnt/sda5/.user/root/src/openwatcom-1.9/bld/sdk/rc/wres/flat386/mf_r/wres.lib(wrfree.c)
0002:0006c580  MResFreeResourceHeader_
Module: /mnt/sda5/.user/root/src/openwatcom-1.9/bld/sdk/rc/wres/flat386/mf_r/wres.lib(wridfnoo.c)
0002:0006c5c0  WResIDFromNameOrOrd_
Module: /mnt/sda5/.user/root/src/openwatcom-1.9/bld/sdk/rc/wres/flat386/mf_r/wres.lib(wraddres.c)
0002:0006c730* WResAddResource_
0002:0006c78c  WResAddResource2_
Module: /mnt/sda5/.user/root/src/openwatcom-1.9/bld/sdk/rc/wres/flat386/mf_r/wres.lib(wriswrf.c)
0002:0006c8b0  WResFindResType_
0002:0006c948* WResIsWResFile_
Module: /mnt/sda5/.user/root/src/openwatcom-1.9/rel2/lib386/os2/clib3r.lib(nmalloc.c)
0002:0006c960  _nmalloc_
0002:0006c960  malloc_
0003:000057e4  ___nheapbeg
0003:000057e8  ___MiniHeapRover
0003:000057ec  ___LargestSizeB4MiniHeapRover
Module: /mnt/sda5/.user/root/src/openwatcom-1.9/rel2/lib386/os2/clib3r.lib(fclose.c)
0002:0006ca60+ __doclose_
0002:0006cb00  __shutdown_stream_
0002:0006cb20* fclose_
0003:0000a870+ ___RmTmpFileFn
Module: /mnt/sda5/.user/root/src/openwatcom-1.9/rel2/lib386/os2/clib3r.lib(freefp.c)
0002:0006cb70  __freefp_
0002:0006cbc0  __purgefp_
Module: /mnt/sda5/.user/root/src/openwatcom-1.9/bld/ui/os2/os2386/ui.lib(/mnt/sda5/.user/root/src/openwatcom-1.9/bld/ui/c/uipad.c)
0002:0006cbee  uipadblanks_
Module: /mnt/sda5/.user/root/src/openwatcom-1.9/bld/ui/os2/os2386/ui.lib(/mnt/sda5/.user/root/src/openwatcom-1.9/bld/ui/c/uivedit.c)
0002:0006cc5b+ secondbyte_
0002:0006cc76  uieditevent_
Module: /mnt/sda5/.user/root/src/openwatcom-1.9/rel2/lib386/os2/clib3r.lib(mbconv.c)
0002:0006d040  _mbvtop_
Module: /mnt/sda5/.user/root/src/openwatcom-1.9/rel2/lib386/os2/clib3r.lib(mbclen.c)
0002:0006d060  _mbclen_
Module: /mnt/sda5/.user/root/src/openwatcom-1.9/rel2/lib386/os2/clib3r.lib(mbterm.c)
0002:0006d090  _mbterm_
Module: /mnt/sda5/.user/root/src/openwatcom-1.9/rel2/lib386/os2/clib3r.lib(mbccmp.c)
0002:0006d0d0  _mbccmp_
Module: /mnt/sda5/.user/root/src/openwatcom-1.9/rel2/lib386/os2/clib3r.lib(mktime.c)
0002:0006d110  mktime_
Module: /mnt/sda5/.user/root/src/openwatcom-1.9/rel2/lib386/os2/clib3r.lib(mbsnbcpy.c)
0002:0006d1a0  _mbsnbcpy_
Module: /mnt/sda5/.user/root/src/openwatcom-1.9/bld/sdk/rc/wres/flat386/mf_r/wres.lib(varstr.c)
0002:0006d200  VarStringStart_
0002:0006d234  VarStringAddChar_
0002:0006d28c  VarStringEnd_
Module: /mnt/sda5/.user/root/src/openwatcom-1.9/bld/sdk/rc/wres/flat386/mf_r/wres.lib(rduint8.c)
0002:0006d320  ResReadUint8_
Module: /mnt/sda5/.user/root/src/openwatcom-1.9/rel2/lib386/os2/clib3r.lib(mthrdini.c)
0002:0006d370  __InitThreadData_
0003:000057f0  ___ThreadDataSize
Module: /mnt/sda5/.user/root/src/openwatcom-1.9/rel2/lib386/os2/clib3r.lib(cmain386.c)
0002:0006d390  __CMain
Module: /mnt/sda5/.user/root/src/openwatcom-1.9/rel2/lib386/os2/clib3r.lib(dosseg)
0000:00001234  __DOSseg__
Module: /mnt/sda5/.user/root/src/openwatcom-1.9/rel2/lib386/os2/clib3r.lib(histsplt.c)
0003:0000a874  ___historical_splitparms
Module: /mnt/sda5/.user/root/src/openwatcom-1.9/rel2/lib386/os2/clib3r.lib(___argc.c)
0003:0000a878  ____Argc
0003:0000a87c  ____Argv
Module: /mnt/sda5/.user/root/src/openwatcom-1.9/rel2/lib386/os2/clib3r.lib(amblksiz.c)
0003:000057f4  __amblksiz
Module: /mnt/sda5/.user/root/src/openwatcom-1.9/rel2/lib386/os2/clib3r.lib(enterdb.c)
0002:0006d3d0  __EnterWVIDEO_
0003:000057f8+ ___WD_Present
Module: /mnt/sda5/.user/root/src/openwatcom-1.9/bld/sdk/rc/wres/flat386/mf_r/wres.lib(wridnacm.c)
0002:0006d440  WResIDNameCmp_
Module: /mnt/sda5/.user/root/src/openwatcom-1.9/rel2/lib386/os2/clib3r.lib(stiomode.c)
0002:0006d490  __grow_iomode_
0002:0006d560+ __shrink_iomode_
0002:0006d5e0  __SetIOMode_
Module: /mnt/sda5/.user/root/src/openwatcom-1.9/bld/sdk/rc/wres/flat386/mf_r/wres.lib(rrnamoor.c)
0002:0006d650  ResReadNameOrOrdinal_
0002:0006d738  ResRead32NameOrOrdinal_
Module: /mnt/sda5/.user/root/src/openwatcom-1.9/bld/sdk/rc/wres/flat386/mf_r/wres.lib(wridfrst.c)
0002:0006d820  WResIDFromStr_
Module: /mnt/sda5/.user/root/src/openwatcom-1.9/bld/sdk/rc/wres/flat386/mf_r/wres.lib(wridfrnu.c)
0002:0006d890  WResIDFromNum_
Module: /mnt/sda5/.user/root/src/openwatcom-1.9/bld/sdk/rc/wres/flat386/mf_r/wres.lib(wrfirres.c)
0002:0006d8f0* WResFirstResource_
0002:0006d91c  WResSetEmptyWindow_
0002:0006d938  WResMakeWindow_
Module: /mnt/sda5/.user/root/src/openwatcom-1.9/rel2/lib386/os2/clib3r.lib(mem.c)
0002:0006d950  __MemAllocator
0002:0006da00  __MemFree
Module: /mnt/sda5/.user/root/src/openwatcom-1.9/rel2/lib386/os2/clib3r.lib(grownear.c)
0002:0006dca0  __ExpandDGROUP_
Module: /mnt/sda5/.user/root/src/openwatcom-1.9/rel2/lib386/os2/clib3r.lib(_clseos2.c)
0002:0006dcc0  __close_
Module: /mnt/sda5/.user/root/src/openwatcom-1.9/rel2/lib386/os2/clib3r.lib(flush.c)
0002:0006dd00  __flush_
Module: /mnt/sda5/.user/root/src/openwatcom-1.9/rel2/lib386/os2/clib3r.lib(locmktim.c)
0002:0006de00  __local_mktime_
Module: /mnt/sda5/.user/root/src/openwatcom-1.9/rel2/lib386/os2/clib3r.lib(gmtime.c)
0002:0006df80  __brktime_
0002:0006e080+ _gmtime_
0002:0006e0a0* gmtime_
Module: /mnt/sda5/.user/root/src/openwatcom-1.9/rel2/lib386/os2/clib3r.lib(tzset.c)
0003:000057fc  ___start_dst
0003:00005820  ___end_dst
0003:00005948* _tzname
0003:00005950  _timezone
0003:00005954  _daylight
0003:00005958  ___dst_adjust
0002:0006e110* __DontCacheOSTZ_
0002:0006e120* __CacheOSTZ_
0002:0006e600+ __parse_tz_
0002:0006e830  tzset_
Module: /mnt/sda5/.user/root/src/openwatcom-1.9/rel2/lib386/os2/clib3r.lib(timeutil.c)
0002:0006e9a0  __isindst_
Module: /mnt/sda5/.user/root/src/openwatcom-1.9/rel2/lib386/os2/clib3r.lib(exit.c)
0002:0006ecd0+ __null_int23_exit_
0002:0006ecd1  exit_
0002:0006ed21* _exit_
0003:00005960+ ___int23_exit
0003:00005964+ ___FPE_handler_exit
Module: /mnt/sda5/.user/root/src/openwatcom-1.9/rel2/lib386/os2/clib3r.lib(hdlman.c)
0002:0006ed40* __set_handles_
0002:0006ed50* _grow_handles_
0003:00005968  ___NHandles
Module: /mnt/sda5/.user/root/src/openwatcom-1.9/rel2/lib386/os2/clib3r.lib(iomodtty.c)
0002:0006edb0  __ChkTTYIOMode_
0002:0006edf0* __IOMode_
Module: /mnt/sda5/.user/root/src/openwatcom-1.9/rel2/lib386/os2/clib3r.lib(heapen.c)
0002:0006ee10* _heapenable_
0003:0000596c  ___heap_enabled
Module: /mnt/sda5/.user/root/src/openwatcom-1.9/rel2/lib386/os2/clib3r.lib(nfree.c)
0002:0006ee40  _nfree_
0002:0006ee40  free_
0003:0000a884  ___MiniHeapFreeRover
Module: /mnt/sda5/.user/root/src/openwatcom-1.9/rel2/lib386/os2/clib3r.lib(nheapmin.c)
0002:0006ef50  _nheapshrink_
0002:0006ef50* _nheapmin_
0002:0006ef50* _heapmin_
0002:0006ef50* _heapshrink_
Module: /mnt/sda5/.user/root/src/openwatcom-1.9/rel2/lib386/os2/clib3r.lib(fsync.c)
0002:0006f040  fsync_
Module: /mnt/sda5/.user/root/src/openwatcom-1.9/rel2/lib386/os2/clib3r.lib(qwrit.c)
0002:0006f070  __qwrite_
Module: /mnt/sda5/.user/root/src/openwatcom-1.9/rel2/lib386/os2/clib3r.lib(leapyear.c)
0002:0006f110  __leapyear_
0003:00000060  ___diyr
0003:0000007a  ___dilyr
Module: /mnt/sda5/.user/root/src/openwatcom-1.9/rel2/lib386/os2/clib3r.lib(isattos2.c)
0002:0006f150  isatty_
Module: /mnt/sda5/.user/root/src/openwatcom-1.9/rel2/lib386/os2/clib3r.lib(getenv.c)
0002:0006f180  getenv_
Module: /mnt/sda5/.user/root/src/openwatcom-1.9/rel2/lib386/os2/clib3r.lib(setenv.c)
0002:0006f210  setenv_
0002:0006f4a0  _setenv_
Module: /mnt/sda5/.user/root/src/openwatcom-1.9/rel2/lib386/os2/clib3r.lib(strstr.c)
0002:0006f6b0  strstr_
Module: /mnt/sda5/.user/root/src/openwatcom-1.9/rel2/lib386/os2/clib3r.lib(cmdname.c)
0002:0006f760  _cmdname_
Module: /mnt/sda5/.user/root/src/openwatcom-1.9/rel2/lib386/os2/clib3r.lib(gtcmd.c)
0002:0006f7d0  _bgetcmd_
0002:0006f840  getcmd_
Module: /mnt/sda5/.user/root/src/openwatcom-1.9/rel2/lib386/os2/os2386.lib(msgseg32.asm)
0002:000739fc* sig32
0002:00073a0e  DosGetMessage
0002:00073a0e* Dos32GetMessage
Module: /mnt/sda5/.user/root/src/openwatcom-1.9/rel2/lib386/os2/clib3r.lib(thunk)
0002:0006f868  __TNK
0002:0006f854* __TNC
Module: /mnt/sda5/.user/root/src/openwatcom-1.9/rel2/lib386/os2/clib3r.lib(far16fun)
0002:0006f8b8  __Far16Func2
0002:0006f901* __Far16Func
0002:0006f94f* __Far16Pascal2
0002:0006f996* __Far16Pascal
0002:0006f9e2* __Far16Cdecl2
0002:0006fa30* __Far16Cdecl
0002:0006fa83  __FlatToFar16
0002:0006fa8c  __Far16ToFlat
Module: /mnt/sda5/.user/root/src/openwatcom-1.9/rel2/lib386/os2/clib3r.lib(searchen.c)
0002:0006faa0  _searchenv_
Module: /mnt/sda5/.user/root/src/openwatcom-1.9/rel2/lib386/os2/clib3r.lib(memset.c)
0002:0006fbd0  memset_
Module: /mnt/sda5/.user/root/src/openwatcom-1.9/rel2/lib386/os2/clib3r.lib(memmove.c)
0002:0006fbf0  memmove_
Module: /mnt/sda5/.user/root/src/openwatcom-1.9/rel2/lib386/os2/clib3r.lib(istable.c)
0002:0006fc50  __IsTable
Module: /mnt/sda5/.user/root/src/openwatcom-1.9/rel2/lib386/os2/clib3r.lib(sprintf.c)
0002:0006fd60  sprintf_
Module: /mnt/sda5/.user/root/src/openwatcom-1.9/rel2/lib386/os2/clib3r.lib(setjmp)
0002:0006fd84  _setjmp_
0002:0006fdbd  longjmp_
Module: /mnt/sda5/.user/root/src/openwatcom-1.9/rel2/lib386/os2/clib3r.lib(_strcmp)
0002:0006fe40  strcmp_
Module: /mnt/sda5/.user/root/src/openwatcom-1.9/rel2/lib386/os2/clib3r.lib(stricmp.c)
0002:0006ff80  stricmp_
Module: /mnt/sda5/.user/root/src/openwatcom-1.9/rel2/lib386/os2/clib3r.lib(tolower.c)
0002:0006ffc0  tolower_
Module: /mnt/sda5/.user/root/src/openwatcom-1.9/rel2/lib386/os2/clib3r.lib(puts.c)
0002:0006ffd0  puts_
Module: /mnt/sda5/.user/root/src/openwatcom-1.9/rel2/lib386/os2/clib3r.lib(strtol.c)
0002:00070220  strtoul_
0002:00070230* strtol_
Module: /mnt/sda5/.user/root/src/openwatcom-1.9/rel2/lib386/os2/clib3r.lib(fltused.c)
0003:000059fc  _fltused_
Module: /mnt/sda5/.user/root/src/openwatcom-1.9/rel2/lib386/os2/clib3r.lib(_8087)
0003:00005a00  __8087
0003:00005a01  __real87
Module: /mnt/sda5/.user/root/src/openwatcom-1.9/rel2/lib386/os2/clib3r.lib(strlwr.c)
0002:00070240  strlwr_
Module: /mnt/sda5/.user/root/src/openwatcom-1.9/rel2/lib386/os2/clib3r.lib(toupper.c)
0002:00070260  toupper_
Module: /mnt/sda5/.user/root/src/openwatcom-1.9/rel2/lib386/os2/clib3r.lib(memicmp.c)
0002:00070270  memicmp_
Module: /mnt/sda5/.user/root/src/openwatcom-1.9/rel2/lib386/os2/clib3r.lib(strnicmp.c)
0002:000702b0  strnicmp_
Module: /mnt/sda5/.user/root/src/openwatcom-1.9/rel2/lib386/os2/clib3r.lib(memcmp.c)
0002:00070300  memcmp_
Module: /mnt/sda5/.user/root/src/openwatcom-1.9/rel2/lib386/os2/clib3r.lib(nrealloc.c)
0002:00070320* _nrealloc_
0002:00070320  realloc_
Module: /mnt/sda5/.user/root/src/openwatcom-1.9/rel2/lib386/os2/clib3r.lib(nheapwal.c)
0002:000703a0* _nheapwalk_
0002:000703a0  _heapwalk_
0002:000703d0+ __NHeapWalk_
Module: /mnt/sda5/.user/root/src/openwatcom-1.9/rel2/lib386/os2/clib3r.lib(qsort.c)
0002:000704d0  qsort_
Module: /mnt/sda5/.user/root/src/openwatcom-1.9/rel2/lib386/os2/clib3r.lib(openos2.c)
0002:00070d40  open_
0002:00070d60+ sopen_
Module: /mnt/sda5/.user/root/src/openwatcom-1.9/rel2/lib386/os2/clib3r.lib(close.c)
0002:00070d90  close_
Module: /mnt/sda5/.user/root/src/openwatcom-1.9/rel2/lib386/os2/clib3r.lib(read.c)
0002:00070da0  read_
Module: /mnt/sda5/.user/root/src/openwatcom-1.9/rel2/lib386/os2/clib3r.lib(lseek.c)
0002:00070f10  lseek_
Module: /mnt/sda5/.user/root/src/openwatcom-1.9/rel2/lib386/os2/clib3r.lib(strupr.c)
0002:00070f40  strupr_
Module: /mnt/sda5/.user/root/src/openwatcom-1.9/rel2/lib386/os2/clib3r.lib(hugeval.c)
0002:00070f60  __HugeValue
Module: /mnt/sda5/.user/root/src/openwatcom-1.9/rel2/lib386/os2/clib3r.lib(strncpy.c)
0002:00070f70  strncpy_
Module: /mnt/sda5/.user/root/src/openwatcom-1.9/rel2/lib386/os2/clib3r.lib(split2.c)
0002:00071000  _splitpath2_
Module: /mnt/sda5/.user/root/src/openwatcom-1.9/rel2/lib386/os2/clib3r.lib(makepath.c)
0002:00071170  _makepath_
Module: /mnt/sda5/.user/root/src/openwatcom-1.9/rel2/lib386/os2/clib3r.lib(calloc.c)
0002:00071320  calloc_
Module: /mnt/sda5/.user/root/src/openwatcom-1.9/rel2/lib386/os2/clib3r.lib(stack386.c)
0002:00071340  stackavail_
Module: /mnt/sda5/.user/root/src/openwatcom-1.9/rel2/lib386/os2/clib3r.lib(environ.c)
0003:0000a888  ___env_mask
0003:0000a88c  _environ
0003:0000a890  __wenviron
Module: /mnt/sda5/.user/root/src/openwatcom-1.9/rel2/lib386/os2/clib3r.lib(mbcupper.c)
0002:00071360  _mbctoupper_
Module: /mnt/sda5/.user/root/src/openwatcom-1.9/rel2/lib386/os2/clib3r.lib(mbslen.c)
0002:00071380  _mbslen_
Module: /mnt/sda5/.user/root/src/openwatcom-1.9/rel2/lib386/os2/clib3r.lib(mbstowcs.c)
0002:000713b0  mbstowcs_
Module: /mnt/sda5/.user/root/src/openwatcom-1.9/rel2/lib386/os2/clib3r.lib(usetenv.c)
0002:00071430* _wsetenv_
0002:00071660  __wsetenv_
Module: /mnt/sda5/.user/root/src/openwatcom-1.9/rel2/lib386/os2/clib3r.lib(itsto32.c)
0002:000717e0  __init_threadstksize_
Module: /mnt/sda5/.user/root/src/openwatcom-1.9/rel2/lib386/os2/clib3r.lib(strlen.c)
0002:000717f0  strlen_
Module: /mnt/sda5/.user/root/src/openwatcom-1.9/rel2/lib386/os2/clib3r.lib(strcat.c)
0002:00071810  strcat_
Module: /mnt/sda5/.user/root/src/openwatcom-1.9/rel2/lib386/os2/clib3r.lib(__stos)
0002:00071840  __STOSB
0002:00071877* __STOSD
Module: /mnt/sda5/.user/root/src/openwatcom-1.9/rel2/lib386/os2/clib3r.lib(vsprintf.c)
0002:00071910  vsprintf_
Module: /mnt/sda5/.user/root/src/openwatcom-1.9/rel2/lib386/os2/clib3r.lib(ljmphdl.c)
0003:00005a04  ___longjmp_handler
Module: /mnt/sda5/.user/root/src/openwatcom-1.9/rel2/lib386/os2/clib3r.lib(fputs.c)
0002:00071940  fputs_
Module: /mnt/sda5/.user/root/src/openwatcom-1.9/rel2/lib386/os2/clib3r.lib(fputc.c)
0002:000719e0  fputc_
Module: /mnt/sda5/.user/root/src/openwatcom-1.9/rel2/lib386/os2/clib3r.lib(setefg.c)
0002:00071ac0  __setEFGfmt_
Module: /mnt/sda5/.user/root/src/openwatcom-1.9/rel2/lib386/os2/clib3r.lib(chk8087.c)
0002:00071ae0* _fpreset_
0002:00071b00* __init_8087_
0002:00071b10  __chk8087_
Module: /mnt/sda5/.user/root/src/openwatcom-1.9/rel2/lib386/os2/clib3r.lib(nmsize.c)
0002:00071b60  _nmsize_
0002:00071b60* _msize_
Module: /mnt/sda5/.user/root/src/openwatcom-1.9/rel2/lib386/os2/clib3r.lib(nexpand.c)
0002:00071b70  _nexpand_
0002:00071b70* _expand_
0002:00071bb0+ __HeapManager_expand_
Module: /mnt/sda5/.user/root/src/openwatcom-1.9/rel2/lib386/os2/clib3r.lib(umaskval.c)
0003:00005a08  ___umaskval
Module: /mnt/sda5/.user/root/src/openwatcom-1.9/rel2/lib386/os2/clib3r.lib(os2fil64.c)
0003:00005a0c  ___os2_DosOpenL
0003:00005a10+ ___os2_DosSetFilePtrL
0003:00005a14+ ___os2_DosSetFileSizeL
0003:00005a18+ ___os2_DosSetFileLocksL
Module: /mnt/sda5/.user/root/src/openwatcom-1.9/rel2/lib386/os2/clib3r.lib(mbsdec.c)
0002:00071e60  _mbsdec_
Module: /mnt/sda5/.user/root/src/openwatcom-1.9/rel2/lib386/os2/clib3r.lib(setenvp.c)
0002:00071ee0  __setenvp_
0002:00071fa0  __freeenvp_
Module: /mnt/sda5/.user/root/src/openwatcom-1.9/rel2/lib386/os2/clib3r.lib(mbdtoupp.c)
0002:00071ff0  _mbdtoupper_
Module: /mnt/sda5/.user/root/src/openwatcom-1.9/rel2/lib386/os2/clib3r.lib(mbtowc.c)
0002:00072010  mbtowc_
Module: /mnt/sda5/.user/root/src/openwatcom-1.9/rel2/lib386/os2/clib3r.lib(crtwenv.c)
0002:000720d0  __create_wide_environment_
Module: /mnt/sda5/.user/root/src/openwatcom-1.9/rel2/lib386/os2/clib3r.lib(ugetenv.c)
0002:00072140  _wgetenv_
Module: /mnt/sda5/.user/root/src/openwatcom-1.9/rel2/lib386/os2/clib3r.lib(ustrlen.c)
0002:000721b6  wcslen_
Module: /mnt/sda5/.user/root/src/openwatcom-1.9/rel2/lib386/os2/clib3r.lib(wcstombs.c)
0002:000721d0  wcstombs_
Module: /mnt/sda5/.user/root/src/openwatcom-1.9/rel2/lib386/os2/clib3r.lib(utoupper.c)
0002:0007226f  towupper_
Module: /mnt/sda5/.user/root/src/openwatcom-1.9/rel2/lib386/os2/clib3r.lib(memcpy.c)
0002:00072280  memcpy_
Module: /mnt/sda5/.user/root/src/openwatcom-1.9/rel2/lib386/os2/clib3r.lib(ustrcpy.c)
0002:0007229f  wcscpy_
Module: /mnt/sda5/.user/root/src/openwatcom-1.9/rel2/lib386/os2/clib3r.lib(prtf.c)
0002:000722c0  __prtf_
Module: /mnt/sda5/.user/root/src/openwatcom-1.9/rel2/lib386/os2/clib3r.lib(ioalloc.c)
0002:00072f90  __ioalloc_
Module: /mnt/sda5/.user/root/src/openwatcom-1.9/rel2/lib386/os2/clib3r.lib(noefgfmt.c)
0003:00005a1c  ___EFG_printf
0003:00005a20  ___EFG_scanf
Module: /mnt/sda5/.user/root/src/openwatcom-1.9/rel2/lib386/math387r.lib(efgfmt.c)
0002:00073072  _EFG_Format_
Module: /mnt/sda5/.user/root/src/openwatcom-1.9/rel2/lib386/math387r.lib(cnvs2d.c)
0002:000731dc  __cnvs2d_
Module: /mnt/sda5/.user/root/src/openwatcom-1.9/rel2/lib386/os2/clib3r.lib(8087cw.c)
0003:00005a24  __8087cw
Module: /mnt/sda5/.user/root/src/openwatcom-1.9/rel2/lib386/os2/clib3r.lib(init8087)
0002:000731f0  __x87id
Module: /mnt/sda5/.user/root/src/openwatcom-1.9/rel2/lib386/os2/clib3r.lib(clearenv.c)
0002:00073230  clearenv_
Module: /mnt/sda5/.user/root/src/openwatcom-1.9/rel2/lib386/os2/clib3r.lib(uputenv.c)
0002:000732c0* _wputenv_
0002:00073400  __wputenv_
Module: /mnt/sda5/.user/root/src/openwatcom-1.9/rel2/lib386/os2/clib3r.lib(ustrnicm.c)
0002:000734f9  _wcsnicmp_
Module: /mnt/sda5/.user/root/src/openwatcom-1.9/rel2/lib386/os2/clib3r.lib(wctomb.c)
0002:00073560  wctomb_
Module: /mnt/sda5/.user/root/src/openwatcom-1.9/rel2/lib386/os2/clib3r.lib(lltoa.c)
0002:00073590  ulltoa_
0002:00073600* lltoa_
Module: /mnt/sda5/.user/root/src/openwatcom-1.9/rel2/lib386/os2/clib3r.lib(ltoa.c)
0002:00073630  ultoa_
0002:00073680* ltoa_
Module: /mnt/sda5/.user/root/src/openwatcom-1.9/rel2/lib386/os2/clib3r.lib(chktty.c)
0002:000736b0  __chktty_
Module: /mnt/sda5/.user/root/src/openwatcom-1.9/rel2/lib386/os2/clib3r.lib(rtcntrl.c)
0002:000736f0* _SetLD64bit_
0002:00073700* _SetLD80bit_
0002:00073710  _LDisDouble_
Module: /mnt/sda5/.user/root/src/openwatcom-1.9/rel2/lib386/os2/clib3r.lib(putenv.c)
0002:00073720* putenv_
0002:00073890  __putenv_


                        +---------------------+
                        |   Module Segments   |
                        +---------------------+

! = 32-bit segment
c = initialized communal data

Module          Segment               Class           Address         Size
======          =======               =====           =======         ====

/mnt/sda5/.user/root/src/openwatcom-1.9/bld/watcom/c/autoenv.c
                _TEXT                 CODE           0002:00000010  ! 000009a9
                CONST                 DATA           0003:00000004  ! 00000000
                CONST2                DATA           0003:00000094  ! 00000000
                _DATA                 DATA           0003:000000a0  ! 00000000
/mnt/sda5/.user/root/src/openwatcom-1.9/bld/wv/os2/c/os22ini.c
                _TEXT                 CODE           0002:000009c0  ! 000002d1
                CONST                 DATA           0003:00000004  ! 00000000
                CONST2                DATA           0003:00000094  ! 00000000
                _DATA                 DATA           0003:000000a0  ! 00000000
                _BSS                  BSS            0003:00005aa0  ! 00000005
/mnt/sda5/.user/root/src/openwatcom-1.9/bld/wv/os2/c/os2chk.c
                _TEXT                 CODE           0002:00000ca0  ! 00000011
                CONST                 DATA           0003:00000004  ! 00000000
                CONST2                DATA           0003:00000094  ! 00000000
                _DATA                 DATA           0003:000000a0  ! 00000000
/mnt/sda5/.user/root/src/openwatcom-1.9/bld/wv/os2/c/os2cmd.c
                _TEXT                 CODE           0002:00000cc0  ! 0000006c
                CONST                 DATA           0003:00000004  ! 00000000
                CONST2                DATA           0003:00000094  ! 00000000
                _DATA                 DATA           0003:000000a0  ! 00000000
/mnt/sda5/.user/root/src/openwatcom-1.9/bld/wv/os2/c/os22flio.c
                _TEXT                 CODE           0002:00000d30  ! 00000241
                CONST                 DATA           0003:00000004  ! 00000000
                CONST2                DATA           0003:00000094  ! 00000000
                _DATA                 DATA           0003:000000a0  ! 00000007
/mnt/sda5/.user/root/src/openwatcom-1.9/bld/wv/os2/c/os2scrn.c
                _TEXT                 CODE           0002:00000f80  ! 00000213
                CONST                 DATA           0003:00000004  ! 00000000
                CONST2                DATA           0003:00000094  ! 00000000
                _DATA                 DATA           0003:000000a8  ! 00000000
                _BSS                  BSS            0003:00005aa8  ! 0000002a
/mnt/sda5/.user/root/src/openwatcom-1.9/bld/wv/c/fingmsg.c
                _TEXT                 CODE           0002:000011a0  ! 00000295
                CONST                 DATA           0003:00000004  ! 00000000
                CONST2                DATA           0003:00000094  ! 00000000
                _DATA                 DATA           0003:000000a8  ! 00000044
/mnt/sda5/.user/root/src/openwatcom-1.9/bld/dig/c/dipman.c
                _TEXT                 CODE           0002:00001440  ! 00002197
                CONST                 DATA           0003:00000004  ! 00000000
                CONST2                DATA           0003:00000094  ! 00000000
                _DATA                 DATA           0003:000000ec  ! 00000076
                _BSS                  BSS            0003:00005ad4  ! 0000011c
/mnt/sda5/.user/root/src/openwatcom-1.9/bld/dig/c/os2v2/dipld.c
                _TEXT                 CODE           0002:000035e0  ! 0000039e
                CONST                 DATA           0003:00000004  ! 00000000
                CONST2                DATA           0003:00000094  ! 00000000
                _DATA                 DATA           0003:00000164  ! 00000000
/mnt/sda5/.user/root/src/openwatcom-1.9/bld/dig/c/madman.c
                _TEXT                 CODE           0002:00003980  ! 00002422
                CONST                 DATA           0003:00000004  ! 00000000
                CONST2                DATA           0003:00000094  ! 00000000
                _DATA                 DATA           0003:00000164  ! 00000190
                _BSS                  BSS            0003:00005bf0  ! 00000008
/mnt/sda5/.user/root/src/openwatcom-1.9/bld/dig/c/os2v2/madld.c
                _TEXT                 CODE           0002:00005db0  ! 0000039e
                CONST                 DATA           0003:00000004  ! 00000000
                CONST2                DATA           0003:00000094  ! 00000000
                _DATA                 DATA           0003:000002f4  ! 00000000
/mnt/sda5/.user/root/src/openwatcom-1.9/bld/watcom/c/i64.c
                _TEXT                 CODE           0002:00006150  ! 0000048e
                CONST                 DATA           0003:00000004  ! 00000000
                CONST2                DATA           0003:00000094  ! 00000000
                _DATA                 DATA           0003:000002f4  ! 00000000
/mnt/sda5/.user/root/src/openwatcom-1.9/bld/dig/c/trpsupp.c
                _TEXT                 CODE           0002:000065e0  ! 00000376
                CONST                 DATA           0003:00000004  ! 00000000
                CONST2                DATA           0003:00000094  ! 00000000
                _DATA                 DATA           0003:000002f4  ! 00000008
                _BSS                  BSS            0003:00005bf8  ! 00000008
/mnt/sda5/.user/root/src/openwatcom-1.9/bld/dig/c/os2v2/trpld.c
                _TEXT                 CODE           0002:00006960  ! 00000591
                CONST                 DATA           0003:00000004  ! 00000000
                CONST2                DATA           0003:00000094  ! 00000000
                _DATA                 DATA           0003:000002fc  ! 00000000
                _BSS                  BSS            0003:00005c00  ! 00000010
/mnt/sda5/.user/root/src/openwatcom-1.9/bld/dig/c/dumb.c
                _TEXT                 CODE           0002:00006f00  ! 000001e6
                CONST                 DATA           0003:00000004  ! 00000000
                CONST2                DATA           0003:00000094  ! 00000000
                _DATA                 DATA           0003:000002fc  ! 00000000
                _BSS                  BSS            0003:00005c10  ! 00000004
/mnt/sda5/.user/root/src/openwatcom-1.9/bld/wv/c/spawn.c
                _TEXT                 CODE           0002:000070f0  ! 00000110
                CONST                 DATA           0003:00000004  ! 00000000
                CONST2                DATA           0003:00000094  ! 00000000
                _DATA                 DATA           0003:000002fc  ! 00000000
                _BSS                  BSS            0003:00005c14  ! 00000004
/mnt/sda5/.user/root/src/openwatcom-1.9/bld/wv/c/dbgchain.c
                _TEXT                 CODE           0002:00007200  ! 000005ff
                CONST                 DATA           0003:00000004  ! 00000000
                CONST2                DATA           0003:00000094  ! 00000000
                _DATA                 DATA           0003:000002fc  ! 00000000
/mnt/sda5/.user/root/src/openwatcom-1.9/bld/wv/c/dbgvar.c
                _TEXT                 CODE           0002:00007800  ! 000035ac
                CONST                 DATA           0003:00000004  ! 00000000
                CONST2                DATA           0003:00000094  ! 00000000
                _DATA                 DATA           0003:000002fc  ! 00000004
                _BSS                  BSS            0003:00005c18  ! 0000001e
/mnt/sda5/.user/root/src/openwatcom-1.9/bld/wv/c/dbgvset.c
                _TEXT                 CODE           0002:0000adb0  ! 00000871
                CONST                 DATA           0003:00000004  ! 00000000
                CONST2                DATA           0003:00000094  ! 00000000
                _DATA                 DATA           0003:00000300  ! 000000c3
/mnt/sda5/.user/root/src/openwatcom-1.9/bld/wv/c/dbgass.c
                _TEXT                 CODE           0002:0000b630  ! 000000d0
                CONST                 DATA           0003:00000004  ! 00000000
                CONST2                DATA           0003:00000094  ! 00000000
                _DATA                 DATA           0003:000003c4  ! 00000000
/mnt/sda5/.user/root/src/openwatcom-1.9/bld/wv/c/dbgimg.c
                _TEXT                 CODE           0002:0000b700  ! 00000097
                CONST                 DATA           0003:00000004  ! 00000000
                CONST2                DATA           0003:00000094  ! 00000000
                _DATA                 DATA           0003:000003c4  ! 00000000
/mnt/sda5/.user/root/src/openwatcom-1.9/bld/wv/c/dbglist.c
                _TEXT                 CODE           0002:0000b7a0  ! 0000001a
                CONST                 DATA           0003:00000004  ! 00000000
                CONST2                DATA           0003:00000094  ! 00000000
                _DATA                 DATA           0003:000003c4  ! 00000000
/mnt/sda5/.user/root/src/openwatcom-1.9/bld/wv/c/dbgpend.c
                _TEXT                 CODE           0002:0000b7c0  ! 00000176
                CONST                 DATA           0003:00000004  ! 00000000
                CONST2                DATA           0003:00000094  ! 00000000
                _DATA                 DATA           0003:000003c4  ! 00000000
/mnt/sda5/.user/root/src/openwatcom-1.9/bld/wv/c/ambigsym.c
                _TEXT                 CODE           0002:0000b940  ! 00000240
                CONST                 DATA           0003:00000004  ! 00000000
                CONST2                DATA           0003:00000094  ! 00000000
                _DATA                 DATA           0003:000003c4  ! 00000000
/mnt/sda5/.user/root/src/openwatcom-1.9/bld/wv/c/addarith.c
                _TEXT                 CODE           0002:0000bb80  ! 000002f3
                CONST                 DATA           0003:00000004  ! 00000000
                CONST2                DATA           0003:00000094  ! 00000000
                _DATA                 DATA           0003:000003c4  ! 00000004
/mnt/sda5/.user/root/src/openwatcom-1.9/bld/wv/c/dbgbrk.c
                _TEXT                 CODE           0002:0000be80  ! 00002a27
                CONST                 DATA           0003:00000004  ! 00000000
                CONST2                DATA           0003:00000094  ! 00000000
                _DATA                 DATA           0003:000003c8  ! 000000c0
/mnt/sda5/.user/root/src/openwatcom-1.9/bld/wv/c/dbgcall.c
                _TEXT                 CODE           0002:0000e8b0  ! 0000063c
                CONST                 DATA           0003:00000004  ! 00000000
                CONST2                DATA           0003:00000094  ! 00000000
                _DATA                 DATA           0003:00000488  ! 00000000
                _BSS                  BSS            0003:00005c38  ! 0000002e
/mnt/sda5/.user/root/src/openwatcom-1.9/bld/wv/c/dbgcall2.c
                _TEXT                 CODE           0002:0000eef0  ! 00000296
                CONST                 DATA           0003:00000004  ! 00000000
                CONST2                DATA           0003:00000094  ! 00000000
                _DATA                 DATA           0003:00000488  ! 00000004
                _BSS                  BSS            0003:00005c68  ! 000000f4
/mnt/sda5/.user/root/src/openwatcom-1.9/bld/wv/c/dbgcmd.c
                _TEXT                 CODE           0002:0000f190  ! 0000007f
                CONST                 DATA           0003:00000004  ! 00000000
                CONST2                DATA           0003:00000094  ! 00000000
                _DATA                 DATA           0003:0000048c  ! 00000000
/mnt/sda5/.user/root/src/openwatcom-1.9/bld/wv/c/dbgcmdln.c
                _TEXT                 CODE           0002:0000f210  ! 0000096f
                CONST                 DATA           0003:00000004  ! 00000000
                CONST2                DATA           0003:00000094  ! 00000000
                _DATA                 DATA           0003:0000048c  ! 000000d1
                _BSS                  BSS            0003:00005d5c  ! 0000000e
/mnt/sda5/.user/root/src/openwatcom-1.9/bld/wv/c/dbgdot.c
                _TEXT                 CODE           0002:0000fb80  ! 0000011a
                CONST                 DATA           0003:00000004  ! 00000000
                CONST2                DATA           0003:00000094  ! 00000000
                _DATA                 DATA           0003:00000560  ! 00000000
                _BSS                  BSS            0003:00005d6c  ! 00000010
/mnt/sda5/.user/root/src/openwatcom-1.9/bld/wv/c/dbgexec.c
                _TEXT                 CODE           0002:0000fca0  ! 00000c8c
                CONST                 DATA           0003:00000004  ! 00000000
                CONST2                DATA           0003:00000094  ! 00000000
                _DATA                 DATA           0003:00000560  ! 00000008
                _BSS                  BSS            0003:00005d7c  ! 00000004
/mnt/sda5/.user/root/src/openwatcom-1.9/bld/wv/c/dbgexpr.c
                _TEXT                 CODE           0002:00010930  ! 00000f6e
                CONST                 DATA           0003:00000004  ! 00000000
                CONST2                DATA           0003:00000094  ! 00000000
                _DATA                 DATA           0003:00000570  ! 000000f4
/mnt/sda5/.user/root/src/openwatcom-1.9/bld/wv/c/dbgexpr2.c
                _TEXT                 CODE           0002:000118a0  ! 000009a1
                CONST                 DATA           0003:00000004  ! 00000000
                CONST2                DATA           0003:00000094  ! 00000000
                _DATA                 DATA           0003:00000664  ! 00000000
/mnt/sda5/.user/root/src/openwatcom-1.9/bld/wv/c/dbgexpr3.c
                _TEXT                 CODE           0002:00012250  ! 0000108a
                CONST                 DATA           0003:00000004  ! 00000000
                CONST2                DATA           0003:00000094  ! 00000000
                _DATA                 DATA           0003:00000664  ! 00000231
/mnt/sda5/.user/root/src/openwatcom-1.9/bld/wv/c/dbgexpr4.c
                _TEXT                 CODE           0002:000132e0  ! 00002095
                CONST                 DATA           0003:00000004  ! 00000000
                CONST2                DATA           0003:00000094  ! 00000000
                _DATA                 DATA           0003:00000898  ! 00000000
                _BSS                  BSS            0003:00005d80  ! 00000400
/mnt/sda5/.user/root/src/openwatcom-1.9/bld/wv/c/dbgfile.c
                _TEXT                 CODE           0002:00015380  ! 00000b84
                CONST                 DATA           0003:00000004  ! 00000000
                CONST2                DATA           0003:00000094  ! 00000000
                _DATA                 DATA           0003:00000898  ! 00000000
                _BSS                  BSS            0003:00006180  ! 000001c4
/mnt/sda5/.user/root/src/openwatcom-1.9/bld/wv/c/dbghook.c
                _TEXT                 CODE           0002:00015f10  ! 0000026e
                CONST                 DATA           0003:00000004  ! 00000000
                CONST2                DATA           0003:00000094  ! 00000000
                _DATA                 DATA           0003:00000898  ! 0000005f
                _BSS                  BSS            0003:00006344  ! 0000002d
/mnt/sda5/.user/root/src/openwatcom-1.9/bld/wv/c/dbginvk.c
                _TEXT                 CODE           0002:00016180  ! 00000652
                CONST                 DATA           0003:00000004  ! 00000000
                CONST2                DATA           0003:00000094  ! 00000000
                _DATA                 DATA           0003:000008f8  ! 00000000
                _BSS                  BSS            0003:00006374  ! 00000005
/mnt/sda5/.user/root/src/openwatcom-1.9/bld/wv/c/dbglkup.c
                _TEXT                 CODE           0002:000167e0  ! 00000a42
                CONST                 DATA           0003:00000004  ! 00000000
                CONST2                DATA           0003:00000094  ! 00000000
                _DATA                 DATA           0003:000008f8  ! 0000001c
                _BSS                  BSS            0003:0000637c  ! 00000008
/mnt/sda5/.user/root/src/openwatcom-1.9/bld/wv/c/dbgloc.c
                _TEXT                 CODE           0002:00017230  ! 00000c51
                CONST                 DATA           0003:00000004  ! 00000000
                CONST2                DATA           0003:00000094  ! 00000000
                _DATA                 DATA           0003:00000914  ! 00000000
/mnt/sda5/.user/root/src/openwatcom-1.9/bld/wv/c/dbglog.c
                _TEXT                 CODE           0002:00017e90  ! 00000225
                CONST                 DATA           0003:00000004  ! 00000000
                CONST2                DATA           0003:00000094  ! 00000000
                _DATA                 DATA           0003:00000914  ! 0000000e
                _BSS                  BSS            0003:00006384  ! 00000004
/mnt/sda5/.user/root/src/openwatcom-1.9/bld/wv/c/dbgmain.c
                _TEXT                 CODE           0002:000180c0  ! 00000876
                CONST                 DATA           0003:00000004  ! 00000000
                CONST2                DATA           0003:00000094  ! 00000000
                _DATA                 DATA           0003:00000924  ! 000000e8
                _BSS                  BSS            0003:00006388  ! 0000000d
/mnt/sda5/.user/root/src/openwatcom-1.9/bld/wv/c/dbgmem.c
                _TEXT                 CODE           0002:00018940  ! 000003e3
                CONST                 DATA           0003:00000004  ! 00000000
                CONST2                DATA           0003:00000094  ! 00000000
                _DATA                 DATA           0003:00000a0c  ! 00000064
/mnt/sda5/.user/root/src/openwatcom-1.9/bld/wv/c/memtypes.c
                _TEXT                 CODE           0002:00018d30  ! 00000295
                CONST                 DATA           0003:00000004  ! 00000000
                CONST2                DATA           0003:00000094  ! 00000000
                _DATA                 DATA           0003:00000a70  ! 00000000
/mnt/sda5/.user/root/src/openwatcom-1.9/bld/wv/c/dbgmisc.c
                _TEXT                 CODE           0002:00018fd0  ! 00000cd2
                CONST                 DATA           0003:00000004  ! 00000000
                CONST2                DATA           0003:00000094  ! 00000000
                _DATA                 DATA           0003:00000a70  ! 0000003a
/mnt/sda5/.user/root/src/openwatcom-1.9/bld/wv/c/dbgovl.c
                _TEXT                 CODE           0002:00019cb0  ! 000003b2
                CONST                 DATA           0003:00000004  ! 00000000
                CONST2                DATA           0003:00000094  ! 00000000
                _DATA                 DATA           0003:00000aac  ! 00000000
                _BSS                  BSS            0003:00006398  ! 0000000d
/mnt/sda5/.user/root/src/openwatcom-1.9/bld/wv/c/dbgparse.c
                _TEXT                 CODE           0002:0001a070  ! 000004a8
                CONST                 DATA           0003:00000004  ! 00000000
                CONST2                DATA           0003:00000094  ! 00000000
                _DATA                 DATA           0003:00000aac  ! 00000000
                _BSS                  BSS            0003:000063a8  ! 00000010
/mnt/sda5/.user/root/src/openwatcom-1.9/bld/wv/c/dbgprint.c
                _TEXT                 CODE           0002:0001a520  ! 0000161b
                CONST                 DATA           0003:00000004  ! 00000000
                CONST2                DATA           0003:00000094  ! 00000000
                _DATA                 DATA           0003:00000aac  ! 00000010
                _BSS                  BSS            0003:000063b8  ! 0000040e
/mnt/sda5/.user/root/src/openwatcom-1.9/bld/wv/c/dbgreg.c
                _TEXT                 CODE           0002:0001bb40  ! 00001431
                CONST                 DATA           0003:00000004  ! 00000000
                CONST2                DATA           0003:00000094  ! 00000000
                _DATA                 DATA           0003:00000abc  ! 00000008
                _BSS                  BSS            0003:000067c8  ! 0000000d
/mnt/sda5/.user/root/src/openwatcom-1.9/bld/wv/c/dbgscan.c
                _TEXT                 CODE           0002:0001cf80  ! 000010f5
                CONST                 DATA           0003:00000004  ! 00000000
                CONST2                DATA           0003:00000094  ! 00000000
                _DATA                 DATA           0003:00000ac4  ! 0000002d
                _BSS                  BSS            0003:000067e0  ! 00000020
/mnt/sda5/.user/root/src/openwatcom-1.9/bld/wv/c/dbgshow.c
                _TEXT                 CODE           0002:0001e080  ! 00000365
                CONST                 DATA           0003:00000004  ! 00000000
                CONST2                DATA           0003:00000094  ! 00000000
                _DATA                 DATA           0003:00000af4  ! 0000007c
/mnt/sda5/.user/root/src/openwatcom-1.9/bld/wv/c/dbgsrc.c
                _TEXT                 CODE           0002:0001e3f0  ! 000003f9
                CONST                 DATA           0003:00000004  ! 00000000
                CONST2                DATA           0003:00000094  ! 00000000
                _DATA                 DATA           0003:00000b70  ! 00000005
/mnt/sda5/.user/root/src/openwatcom-1.9/bld/wv/c/dbgstdio.c
                _TEXT                 CODE           0002:0001e7f0  ! 000000e7
                CONST                 DATA           0003:00000004  ! 00000000
                CONST2                DATA           0003:00000094  ! 00000000
                _DATA                 DATA           0003:00000b78  ! 00000000
/mnt/sda5/.user/root/src/openwatcom-1.9/bld/wv/c/dbgsys.c
                _TEXT                 CODE           0002:0001e8e0  ! 00000104
                CONST                 DATA           0003:00000004  ! 00000000
                CONST2                DATA           0003:00000094  ! 00000000
                _DATA                 DATA           0003:00000b78  ! 0000000e
/mnt/sda5/.user/root/src/openwatcom-1.9/bld/wv/c/dbgutil.c
                _TEXT                 CODE           0002:0001e9f0  ! 00000a98
                CONST                 DATA           0003:00000004  ! 00000000
                CONST2                DATA           0003:00000094  ! 00000000
                _DATA                 DATA           0003:00000b88  ! 00000000
/mnt/sda5/.user/root/src/openwatcom-1.9/bld/wv/c/dbg_dbg.c
                _TEXT                 CODE           0002:0001f490  ! 00000a2e
                CONST                 DATA           0003:00000004  ! 00000000
                CONST2                DATA           0003:00000094  ! 00000000
                _DATA                 DATA           0003:00000b88  ! 00000000
                _BSS                  BSS            0003:00006800  ! 00000004
/mnt/sda5/.user/root/src/openwatcom-1.9/bld/wv/c/dbgprog.c
                _TEXT                 CODE           0002:0001fec0  ! 00002366
                CONST                 DATA           0003:00000004  ! 00000000
                CONST2                DATA           0003:00000094  ! 00000000
                _DATA                 DATA           0003:00000b88  ! 0000002f
                _BSS                  BSS            0003:00006804  ! 00000810
/mnt/sda5/.user/root/src/openwatcom-1.9/bld/wv/c/strutil.c
                _TEXT                 CODE           0002:00022230  ! 000003a1
                CONST                 DATA           0003:00000004  ! 00000000
                CONST2                DATA           0003:00000094  ! 00000000
                _DATA                 DATA           0003:00000bb8  ! 00000000
/mnt/sda5/.user/root/src/openwatcom-1.9/bld/wv/c/stub.c
                _TEXT                 CODE           0002:000225e0  ! 00000017
                CONST                 DATA           0003:00000004  ! 00000000
                CONST2                DATA           0003:00000094  ! 00000000
                _DATA                 DATA           0003:00000bb8  ! 00000000
/mnt/sda5/.user/root/src/openwatcom-1.9/bld/wv/c/dbgwalk.c
                _TEXT                 CODE           0002:00022600  ! 000002f8
                CONST                 DATA           0003:00000004  ! 00000000
                CONST2                DATA           0003:00000094  ! 00000000
                _DATA                 DATA           0003:00000bb8  ! 00000000
                _BSS                  BSS            0003:00007014  ! 00000004
/mnt/sda5/.user/root/src/openwatcom-1.9/bld/wv/c/dynmem.c
                _TEXT                 CODE           0002:00022900  ! 00000249
                CONST                 DATA           0003:00000004  ! 00000000
                CONST2                DATA           0003:00000094  ! 00000000
                _DATA                 DATA           0003:00000bb8  ! 00000000
/mnt/sda5/.user/root/src/openwatcom-1.9/bld/wv/c/dbgsem.c
                _TEXT                 CODE           0002:00022b50  ! 00001e29
                CONST                 DATA           0003:00000004  ! 00000000
                CONST2                DATA           0003:00000094  ! 00000000
                _DATA                 DATA           0003:00000bb8  ! 00000001
                _BSS                  BSS            0003:00007018  ! 00000088
/mnt/sda5/.user/root/src/openwatcom-1.9/bld/wv/c/dbgtrace.c
                _TEXT                 CODE           0002:00024980  ! 00000f97
                CONST                 DATA           0003:00000004  ! 00000000
                CONST2                DATA           0003:00000094  ! 00000000
                _DATA                 DATA           0003:00000bbc  ! 00000028
                _BSS                  BSS            0003:000070a0  ! 00000058
/mnt/sda5/.user/root/src/openwatcom-1.9/bld/wv/c/dbgexins.c
                _TEXT                 CODE           0002:00025920  ! 0000005f
                CONST                 DATA           0003:00000004  ! 00000000
                CONST2                DATA           0003:00000094  ! 00000000
                _DATA                 DATA           0003:00000be4  ! 00000000
/mnt/sda5/.user/root/src/openwatcom-1.9/bld/wv/c/dbgexdat.c
                _TEXT                 CODE           0002:00025980  ! 00000190
                CONST                 DATA           0003:00000004  ! 00000000
                CONST2                DATA           0003:00000094  ! 00000000
                _DATA                 DATA           0003:00000be4  ! 00000011
/mnt/sda5/.user/root/src/openwatcom-1.9/bld/wv/c/dbgmodfy.c
                _TEXT                 CODE           0002:00025b10  ! 000001bd
                CONST                 DATA           0003:00000004  ! 00000000
                CONST2                DATA           0003:00000094  ! 00000000
                _DATA                 DATA           0003:00000bf8  ! 00000000
/mnt/sda5/.user/root/src/openwatcom-1.9/bld/wv/c/dbgtback.c
                _TEXT                 CODE           0002:00025cd0  ! 00000291
                CONST                 DATA           0003:00000004  ! 00000000
                CONST2                DATA           0003:00000094  ! 00000000
                _DATA                 DATA           0003:00000bf8  ! 00000000
                _BSS                  BSS            0003:000070f8  ! 00000004
/mnt/sda5/.user/root/src/openwatcom-1.9/bld/wv/c/dbgerr.c
                _TEXT                 CODE           0002:00025f70  ! 00000256
                CONST                 DATA           0003:00000004  ! 00000000
                CONST2                DATA           0003:00000094  ! 00000000
                _DATA                 DATA           0003:00000bf8  ! 00000000
/mnt/sda5/.user/root/src/openwatcom-1.9/bld/wv/c/namelist.c
                _TEXT                 CODE           0002:000261d0  ! 00000549
                CONST                 DATA           0003:00000004  ! 00000000
                CONST2                DATA           0003:00000094  ! 00000000
                _DATA                 DATA           0003:00000bf8  ! 00000000
/mnt/sda5/.user/root/src/openwatcom-1.9/bld/wv/c/modlist.c
                _TEXT                 CODE           0002:00026720  ! 00000363
                CONST                 DATA           0003:00000004  ! 00000000
                CONST2                DATA           0003:00000094  ! 00000000
                _DATA                 DATA           0003:00000bf8  ! 00000000
/mnt/sda5/.user/root/src/openwatcom-1.9/bld/watcom/c/sortlist.c
                _TEXT                 CODE           0002:00026a90  ! 000001d6
                CONST                 DATA           0003:00000004  ! 00000000
                CONST2                DATA           0003:00000094  ! 00000000
                _DATA                 DATA           0003:00000bf8  ! 00000000
/mnt/sda5/.user/root/src/openwatcom-1.9/bld/wv/c/remmisc.c
                _TEXT                 CODE           0002:00026c70  ! 00000325
                CONST                 DATA           0003:00000004  ! 00000000
                CONST2                DATA           0003:00000094  ! 00000000
                _DATA                 DATA           0003:00000bf8  ! 00000000
                _BSS                  BSS            0003:000070fc  ! 00000005
/mnt/sda5/.user/root/src/openwatcom-1.9/bld/wv/c/remcore.c
                _TEXT                 CODE           0002:00026fa0  ! 00000ef7
                CONST                 DATA           0003:00000004  ! 00000000
                CONST2                DATA           0003:00000094  ! 00000000
                _DATA                 DATA           0003:00000bf8  ! 00000004
                _BSS                  BSS            0003:00007104  ! 00000010
/mnt/sda5/.user/root/src/openwatcom-1.9/bld/wv/c/remfinfo.c
                _TEXT                 CODE           0002:00027ea0  ! 0000017a
                CONST                 DATA           0003:00000004  ! 00000000
                CONST2                DATA           0003:00000094  ! 00000000
                _DATA                 DATA           0003:00000bfc  ! 00000000
                _BSS                  BSS            0003:00007114  ! 00000004
/mnt/sda5/.user/root/src/openwatcom-1.9/bld/wv/c/remenv.c
                _TEXT                 CODE           0002:00028020  ! 00000184
                CONST                 DATA           0003:00000004  ! 00000000
                CONST2                DATA           0003:00000094  ! 00000000
                _DATA                 DATA           0003:00000bfc  ! 00000000
                _BSS                  BSS            0003:00007118  ! 00000004
/mnt/sda5/.user/root/src/openwatcom-1.9/bld/wv/c/remfile.c
                _TEXT                 CODE           0002:000281b0  ! 0000081f
                CONST                 DATA           0003:00000004  ! 00000000
                CONST2                DATA           0003:00000094  ! 00000000
                _DATA                 DATA           0003:00000bfc  ! 00000000
                _BSS                  BSS            0003:0000711c  ! 0000008a
/mnt/sda5/.user/root/src/openwatcom-1.9/bld/wv/c/remthrd.c
                _TEXT                 CODE           0002:000289d0  ! 00000212
                CONST                 DATA           0003:00000004  ! 00000000
                CONST2                DATA           0003:00000094  ! 00000000
                _DATA                 DATA           0003:00000bfc  ! 00000000
                _BSS                  BSS            0003:000071a8  ! 00000004
/mnt/sda5/.user/root/src/openwatcom-1.9/bld/wv/c/removl.c
                _TEXT                 CODE           0002:00028bf0  ! 00000391
                CONST                 DATA           0003:00000004  ! 00000000
                CONST2                DATA           0003:00000094  ! 00000000
                _DATA                 DATA           0003:00000bfc  ! 00000000
                _BSS                  BSS            0003:000071ac  ! 00000004
/mnt/sda5/.user/root/src/openwatcom-1.9/bld/wv/c/ldsupp.c
                _TEXT                 CODE           0002:00028f90  ! 000001f7
                CONST                 DATA           0003:00000004  ! 00000000
                CONST2                DATA           0003:00000094  ! 00000000
                _DATA                 DATA           0003:00000bfc  ! 00000000
/mnt/sda5/.user/root/src/openwatcom-1.9/bld/wv/c/doserr.c
                _TEXT                 CODE           0002:00029190  ! 00000033
                CONST                 DATA           0003:00000004  ! 00000000
                CONST2                DATA           0003:00000094  ! 00000000
                _DATA                 DATA           0003:00000bfc  ! 00000048
/mnt/sda5/.user/root/src/openwatcom-1.9/bld/wv/c/diginter.c
                _TEXT                 CODE           0002:000291d0  ! 000000c7
                CONST                 DATA           0003:00000004  ! 00000000
                CONST2                DATA           0003:00000094  ! 00000000
                _DATA                 DATA           0003:00000c44  ! 00000000
/mnt/sda5/.user/root/src/openwatcom-1.9/bld/wv/c/dipinter.c
                _TEXT                 CODE           0002:000292a0  ! 00000a7e
                CONST                 DATA           0003:00000004  ! 00000000
                CONST2                DATA           0003:00000094  ! 00000000
                _DATA                 DATA           0003:00000c44  ! 0000016c
/mnt/sda5/.user/root/src/openwatcom-1.9/bld/wv/c/madinter.c
                _TEXT                 CODE           0002:00029d20  ! 00000755
                CONST                 DATA           0003:00000004  ! 00000000
                CONST2                DATA           0003:00000094  ! 00000000
                _DATA                 DATA           0003:00000db0  ! 00000138
                _BSS                  BSS            0003:000071b0  ! 00000002
/mnt/sda5/.user/root/src/openwatcom-1.9/bld/wv/c/dbglit.c
                _TEXT                 CODE           0002:0002a480  ! 0000001a
                CONST                 DATA           0003:00000004  ! 00000000
                CONST2                DATA           0003:00000094  ! 00000000
                _DATA                 DATA           0003:00000ee8  ! 00000000
/mnt/sda5/.user/root/src/openwatcom-1.9/bld/wv/c/dbginsty.c
                _TEXT                 CODE           0002:0002a4a0  ! 00000307
                CONST                 DATA           0003:00000004  ! 00000000
                CONST2                DATA           0003:00000094  ! 00000000
                _DATA                 DATA           0003:00000ee8  ! 00000000
/mnt/sda5/.user/root/src/openwatcom-1.9/bld/wv/c/dbgdata.c
                _TEXT                 CODE           0002:0002a7b0  ! 00000000
                CONST                 DATA           0003:00000004  ! 00000000
                CONST2                DATA           0003:00000094  ! 00000000
                _DATA                 DATA           0003:00000ee8  ! 00000446
                _BSS                  BSS            0003:000071c0  ! 000002a8
/mnt/sda5/.user/root/src/openwatcom-1.9/bld/wv/c/dbgevent.c
                _TEXT                 CODE           0002:0002a7b0  ! 000005e0
                CONST                 DATA           0003:00000004  ! 00000000
                CONST2                DATA           0003:00000094  ! 00000000
                _DATA                 DATA           0003:00001330  ! 00000000
                _BSS                  BSS            0003:00007468  ! 00000008
/mnt/sda5/.user/root/src/openwatcom-1.9/bld/wv/c/dbgdll.c
                _TEXT                 CODE           0002:0002ad90  ! 000001c1
                CONST                 DATA           0003:00000004  ! 00000000
                CONST2                DATA           0003:00000094  ! 00000000
                _DATA                 DATA           0003:00001330  ! 00000000
                _BSS                  BSS            0003:00007470  ! 00000004
/mnt/sda5/.user/root/src/openwatcom-1.9/bld/wv/c/dlgscan.c
                _TEXT                 CODE           0002:0002af60  ! 0000020d
                CONST                 DATA           0003:00000004  ! 00000000
                CONST2                DATA           0003:00000094  ! 00000000
                _DATA                 DATA           0003:00001330  ! 00000000
/mnt/sda5/.user/root/src/openwatcom-1.9/bld/wv/c/dbgset.c
                _TEXT                 CODE           0002:0002b170  ! 000012a0
                CONST                 DATA           0003:00000004  ! 00000000
                CONST2                DATA           0003:00000094  ! 00000000
                _DATA                 DATA           0003:00001330  ! 0000024b
                _BSS                  BSS            0003:00007474  ! 00000018
/mnt/sda5/.user/root/src/openwatcom-1.9/bld/watcom/c/srcmgt.c
                _TEXT                 CODE           0002:0002c410  ! 0000053b
                CONST                 DATA           0003:00000004  ! 00000000
                CONST2                DATA           0003:00000094  ! 00000000
                _DATA                 DATA           0003:0000157c  ! 00000004
/mnt/sda5/.user/root/src/openwatcom-1.9/bld/wv/c/dbgupdt.c
                _TEXT                 CODE           0002:0002c950  ! 00000104
                CONST                 DATA           0003:00000004  ! 00000000
                CONST2                DATA           0003:00000094  ! 00000000
                _DATA                 DATA           0003:00001580  ! 00000000
/mnt/sda5/.user/root/src/openwatcom-1.9/bld/wv/c/symcomp.c
                _TEXT                 CODE           0002:0002ca60  ! 000001ed
                CONST                 DATA           0003:00000004  ! 00000000
                CONST2                DATA           0003:00000094  ! 00000000
                _DATA                 DATA           0003:00001580  ! 00000004
/mnt/sda5/.user/root/src/openwatcom-1.9/bld/wv/c/litengin.c
                _TEXT                 CODE           0002:0002cc50  ! 00001826
                CONST                 DATA           0003:00000004  ! 00000000
                CONST2                DATA           0003:00000094  ! 00000000
                _DATA                 DATA           0003:00001584  ! 00000000
                _BSS                  BSS            0003:0000748c  ! 000003dc
/mnt/sda5/.user/root/src/openwatcom-1.9/bld/wv/c/litwd.c
                _TEXT                 CODE           0002:0002e480  ! 00000cb4
                CONST                 DATA           0003:00000004  ! 00000000
                CONST2                DATA           0003:00000094  ! 00000000
                _DATA                 DATA           0003:00001584  ! 00000000
                _BSS                  BSS            0003:00007868  ! 00000208
/mnt/sda5/.user/root/src/openwatcom-1.9/bld/wv/c/dui.c
                _TEXT                 CODE           0002:0002f140  ! 000004a5
                CONST                 DATA           0003:00000004  ! 00000000
                CONST2                DATA           0003:00000094  ! 00000000
                _DATA                 DATA           0003:00001584  ! 00000000
/mnt/sda5/.user/root/src/openwatcom-1.9/bld/wv/c/dbgwset.c
                _TEXT                 CODE           0002:0002f5f0  ! 000009f6
                CONST                 DATA           0003:00000004  ! 00000000
                CONST2                DATA           0003:00000094  ! 00000000
                _DATA                 DATA           0003:00001584  ! 000004c4
                _BSS                  BSS            0003:00007a70  ! 00000014
/mnt/sda5/.user/root/src/openwatcom-1.9/bld/wv/c/dbginsp.c
                _TEXT                 CODE           0002:0002fff0  ! 00000791
                CONST                 DATA           0003:00000004  ! 00000000
                CONST2                DATA           0003:00000094  ! 00000000
                _DATA                 DATA           0003:00001a48  ! 00000000
/mnt/sda5/.user/root/src/openwatcom-1.9/bld/wv/c/dbgicon.c
                _TEXT                 CODE           0002:00030790  ! 00000064
                CONST                 DATA           0003:00000004  ! 00000000
                CONST2                DATA           0003:00000094  ! 00000000
                _DATA                 DATA           0003:00001a48  ! 000000c0
/mnt/sda5/.user/root/src/openwatcom-1.9/bld/wv/c/dbgdisp.c
                _TEXT                 CODE           0002:00030800  ! 00000c26
                CONST                 DATA           0003:00000004  ! 00000000
                CONST2                DATA           0003:00000094  ! 00000000
                _DATA                 DATA           0003:00001b08  ! 00000049
                _BSS                  BSS            0003:00007a84  ! 00000268
/mnt/sda5/.user/root/src/openwatcom-1.9/bld/wv/c/dbgpaint.c
                _TEXT                 CODE           0002:00031430  ! 00000711
                CONST                 DATA           0003:00000004  ! 00000000
                CONST2                DATA           0003:00000094  ! 00000000
                _DATA                 DATA           0003:00001b54  ! 000001bd
                _BSS                  BSS            0003:00007cec  ! 00000078
/mnt/sda5/.user/root/src/openwatcom-1.9/bld/wv/c/dbgcap.c
                _TEXT                 CODE           0002:00031b50  ! 0000011a
                CONST                 DATA           0003:00000004  ! 00000000
                CONST2                DATA           0003:00000094  ! 00000000
                _DATA                 DATA           0003:00001d14  ! 00000014
                _BSS                  BSS            0003:00007d64  ! 00000001
/mnt/sda5/.user/root/src/openwatcom-1.9/bld/wv/c/wndalloc.c
                _TEXT                 CODE           0002:00031c70  ! 00000065
                CONST                 DATA           0003:00000004  ! 00000000
                CONST2                DATA           0003:00000094  ! 00000000
                _DATA                 DATA           0003:00001d28  ! 00000000
/mnt/sda5/.user/root/src/openwatcom-1.9/bld/wv/c/dlgambig.c
                _TEXT                 CODE           0002:00031ce0  ! 00000059
                CONST                 DATA           0003:00000004  ! 00000000
                CONST2                DATA           0003:00000094  ! 00000000
                _DATA                 DATA           0003:00001d28  ! 00000000
/mnt/sda5/.user/root/src/openwatcom-1.9/bld/wv/c/dlgscomp.c
                _TEXT                 CODE           0002:00031d40  ! 000001e5
                CONST                 DATA           0003:00000004  ! 00000000
                CONST2                DATA           0003:00000094  ! 00000000
                _DATA                 DATA           0003:00001d28  ! 00000000
                _BSS                  BSS            0003:00007d68  ! 00000004
/mnt/sda5/.user/root/src/openwatcom-1.9/bld/wv/c/modcomp.c
                _TEXT                 CODE           0002:00031f30  ! 00000136
                CONST                 DATA           0003:00000004  ! 00000000
                CONST2                DATA           0003:00000094  ! 00000000
                _DATA                 DATA           0003:00001d28  ! 00000000
/mnt/sda5/.user/root/src/openwatcom-1.9/bld/wv/c/wndsys.c
                _TEXT                 CODE           0002:00032070  ! 000008b7
                CONST                 DATA           0003:00000004  ! 00000000
                CONST2                DATA           0003:00000094  ! 00000000
                _DATA                 DATA           0003:00001d28  ! 00000424
                _BSS                  BSS            0003:00007d6c  ! 00000004
/mnt/sda5/.user/root/src/openwatcom-1.9/bld/wv/c/wnddump.c
                _TEXT                 CODE           0002:00032930  ! 00000351
                CONST                 DATA           0003:00000004  ! 00000000
                CONST2                DATA           0003:00000094  ! 00000000
                _DATA                 DATA           0003:0000214c  ! 00000000
/mnt/sda5/.user/root/src/openwatcom-1.9/bld/wv/c/dbgintrn.c
                _TEXT                 CODE           0002:00032c90  ! 00000000
                CONST                 DATA           0003:00000004  ! 00000000
                CONST2                DATA           0003:00000094  ! 00000000
                _DATA                 DATA           0003:0000214c  ! 00000000
/mnt/sda5/.user/root/src/openwatcom-1.9/bld/wv/c/dlgabout.c
                _TEXT                 CODE           0002:00032c90  ! 00000072
                CONST                 DATA           0003:00000004  ! 00000000
                CONST2                DATA           0003:00000094  ! 00000000
                _DATA                 DATA           0003:0000214c  ! 00000000
/mnt/sda5/.user/root/src/openwatcom-1.9/bld/wv/c/dlgstk.c
                _TEXT                 CODE           0002:00032d10  ! 0000010f
                CONST                 DATA           0003:00000004  ! 00000000
                CONST2                DATA           0003:00000094  ! 00000000
                _DATA                 DATA           0003:0000214c  ! 00000000
/mnt/sda5/.user/root/src/openwatcom-1.9/bld/wv/c/dlgayn.c
                _TEXT                 CODE           0002:00032e20  ! 000000a7
                CONST                 DATA           0003:00000004  ! 00000000
                CONST2                DATA           0003:00000094  ! 00000000
                _DATA                 DATA           0003:0000214c  ! 00000000
/mnt/sda5/.user/root/src/openwatcom-1.9/bld/wv/c/dlgsrc.c
                _TEXT                 CODE           0002:00032ed0  ! 0000002f
                CONST                 DATA           0003:00000004  ! 00000000
                CONST2                DATA           0003:00000094  ! 00000000
                _DATA                 DATA           0003:0000214c  ! 00000000
/mnt/sda5/.user/root/src/openwatcom-1.9/bld/wv/c/dlgdll.c
                _TEXT                 CODE           0002:00032f00  ! 0000002f
                CONST                 DATA           0003:00000004  ! 00000000
                CONST2                DATA           0003:00000094  ! 00000000
                _DATA                 DATA           0003:0000214c  ! 00000000
/mnt/sda5/.user/root/src/openwatcom-1.9/bld/wv/c/dlglist.c
                _TEXT                 CODE           0002:00032f30  ! 00000336
                CONST                 DATA           0003:00000004  ! 00000000
                CONST2                DATA           0003:00000094  ! 00000000
                _DATA                 DATA           0003:0000214c  ! 00000000
/mnt/sda5/.user/root/src/openwatcom-1.9/bld/wv/c/dlgfile.c
                _TEXT                 CODE           0002:00033270  ! 00000651
                CONST                 DATA           0003:00000004  ! 00000000
                CONST2                DATA           0003:00000094  ! 00000000
                _DATA                 DATA           0003:0000214c  ! 00000015
                _BSS                  BSS            0003:00007d70  ! 00000018
/mnt/sda5/.user/root/src/openwatcom-1.9/bld/wv/c/dlgnewp.c
                _TEXT                 CODE           0002:000338d0  ! 000001b1
                CONST                 DATA           0003:00000004  ! 00000000
                CONST2                DATA           0003:00000094  ! 00000000
                _DATA                 DATA           0003:00002164  ! 00000000
                _BSS                  BSS            0003:00007d88  ! 00000800
/mnt/sda5/.user/root/src/openwatcom-1.9/bld/wv/c/dlgexpr.c
                _TEXT                 CODE           0002:00033a90  ! 0000034f
                CONST                 DATA           0003:00000004  ! 00000000
                CONST2                DATA           0003:00000094  ! 00000000
                _DATA                 DATA           0003:00002164  ! 00000000
/mnt/sda5/.user/root/src/openwatcom-1.9/bld/wv/c/dlgbreak.c
                _TEXT                 CODE           0002:00033de0  ! 000009ba
                CONST                 DATA           0003:00000004  ! 00000000
                CONST2                DATA           0003:00000094  ! 00000000
                _DATA                 DATA           0003:00002164  ! 00000000
/mnt/sda5/.user/root/src/openwatcom-1.9/bld/wv/c/dlgvarx.c
                _TEXT                 CODE           0002:000347a0  ! 0000019f
                CONST                 DATA           0003:00000004  ! 00000000
                CONST2                DATA           0003:00000094  ! 00000000
                _DATA                 DATA           0003:00002164  ! 00000000
/mnt/sda5/.user/root/src/openwatcom-1.9/bld/wv/c/dlgcmd.c
                _TEXT                 CODE           0002:00034940  ! 00000140
                CONST                 DATA           0003:00000004  ! 00000000
                CONST2                DATA           0003:00000094  ! 00000000
                _DATA                 DATA           0003:00002164  ! 00000000
/mnt/sda5/.user/root/src/openwatcom-1.9/bld/wv/c/dlgnewws.c
                _TEXT                 CODE           0002:00034a80  ! 000000da
                CONST                 DATA           0003:00000004  ! 00000000
                CONST2                DATA           0003:00000094  ! 00000000
                _DATA                 DATA           0003:00002164  ! 000000a0
                _BSS                  BSS            0003:00008588  ! 00000004
/mnt/sda5/.user/root/src/openwatcom-1.9/bld/wv/c/wndhelp.c
                _TEXT                 CODE           0002:00034b60  ! 000001f0
                CONST                 DATA           0003:00000004  ! 00000000
                CONST2                DATA           0003:00000094  ! 00000000
                _DATA                 DATA           0003:00002204  ! 00000000
                _BSS                  BSS            0003:0000858c  ! 00000004
/mnt/sda5/.user/root/src/openwatcom-1.9/bld/wv/c/wndmenu.c
                _TEXT                 CODE           0002:00034d50  ! 000011ad
                CONST                 DATA           0003:00000004  ! 00000000
                CONST2                DATA           0003:00000094  ! 00000000
                _DATA                 DATA           0003:00002204  ! 0000093e
                _BSS                  BSS            0003:00008590  ! 00000018
/mnt/sda5/.user/root/src/openwatcom-1.9/bld/wv/c/dbgwfpu.c
                _TEXT                 CODE           0002:00035f00  ! 00000058
                CONST                 DATA           0003:00000004  ! 00000000
                CONST2                DATA           0003:00000094  ! 00000000
                _DATA                 DATA           0003:00002b44  ! 00000000
/mnt/sda5/.user/root/src/openwatcom-1.9/bld/wv/c/dbgwmac.c
                _TEXT                 CODE           0002:00035f60  ! 00000b35
                CONST                 DATA           0003:00000004  ! 00000000
                CONST2                DATA           0003:00000094  ! 00000000
                _DATA                 DATA           0003:00002b44  ! 00000160
                _BSS                  BSS            0003:000085a8  ! 00000010
/mnt/sda5/.user/root/src/openwatcom-1.9/bld/wv/c/dbgwglob.c
                _TEXT                 CODE           0002:00036aa0  ! 000002f6
                CONST                 DATA           0003:00000004  ! 00000000
                CONST2                DATA           0003:00000094  ! 00000000
                _DATA                 DATA           0003:00002ca4  ! 000000b0
/mnt/sda5/.user/root/src/openwatcom-1.9/bld/wv/c/dbgwfunc.c
                _TEXT                 CODE           0002:00036da0  ! 000005ff
                CONST                 DATA           0003:00000004  ! 00000000
                CONST2                DATA           0003:00000094  ! 00000000
                _DATA                 DATA           0003:00002d54  ! 000000c8
/mnt/sda5/.user/root/src/openwatcom-1.9/bld/wv/c/dbgwcall.c
                _TEXT                 CODE           0002:000373a0  ! 00000391
                CONST                 DATA           0003:00000004  ! 00000000
                CONST2                DATA           0003:00000094  ! 00000000
                _DATA                 DATA           0003:00002e1c  ! 000000c8
/mnt/sda5/.user/root/src/openwatcom-1.9/bld/wv/c/dbgwmod.c
                _TEXT                 CODE           0002:00037740  ! 00000696
                CONST                 DATA           0003:00000004  ! 00000000
                CONST2                DATA           0003:00000094  ! 00000000
                _DATA                 DATA           0003:00002ee4  ! 000000e0
/mnt/sda5/.user/root/src/openwatcom-1.9/bld/wv/c/dbgwsrch.c
                _TEXT                 CODE           0002:00037de0  ! 00000661
                CONST                 DATA           0003:00000004  ! 00000000
                CONST2                DATA           0003:00000094  ! 00000000
                _DATA                 DATA           0003:00002fc4  ! 00000050
/mnt/sda5/.user/root/src/openwatcom-1.9/bld/wv/c/dbgwdlg.c
                _TEXT                 CODE           0002:00038450  ! 00000347
                CONST                 DATA           0003:00000004  ! 00000000
                CONST2                DATA           0003:00000094  ! 00000000
                _DATA                 DATA           0003:00003014  ! 00000048
                _BSS                  BSS            0003:000085b8  ! 00000004
/mnt/sda5/.user/root/src/openwatcom-1.9/bld/wv/c/dbgwfil.c
                _TEXT                 CODE           0002:000387a0  ! 000016f1
                CONST                 DATA           0003:00000004  ! 00000000
                CONST2                DATA           0003:00000094  ! 00000000
                _DATA                 DATA           0003:0000305c  ! 00000188
/mnt/sda5/.user/root/src/openwatcom-1.9/bld/wv/c/dbgwass.c
                _TEXT                 CODE           0002:00039ea0  ! 00001ef5
                CONST                 DATA           0003:00000004  ! 00000000
                CONST2                DATA           0003:00000094  ! 00000000
                _DATA                 DATA           0003:000031e4  ! 00000188
/mnt/sda5/.user/root/src/openwatcom-1.9/bld/wv/c/dbgwimg.c
                _TEXT                 CODE           0002:0003bda0  ! 00000396
                CONST                 DATA           0003:00000004  ! 00000000
                CONST2                DATA           0003:00000094  ! 00000000
                _DATA                 DATA           0003:0000336c  ! 000000c8
                _BSS                  BSS            0003:000085bc  ! 0000000c
/mnt/sda5/.user/root/src/openwatcom-1.9/bld/wv/c/dbgwbrk.c
                _TEXT                 CODE           0002:0003c140  ! 00000474
                CONST                 DATA           0003:00000004  ! 00000000
                CONST2                DATA           0003:00000094  ! 00000000
                _DATA                 DATA           0003:00003434  ! 000000f8
/mnt/sda5/.user/root/src/openwatcom-1.9/bld/wv/c/dbgwio.c
                _TEXT                 CODE           0002:0003c5c0  ! 00000771
                CONST                 DATA           0003:00000004  ! 00000000
                CONST2                DATA           0003:00000094  ! 00000000
                _DATA                 DATA           0003:0000352c  ! 000000cc
                _BSS                  BSS            0003:000085c8  ! 00000028
/mnt/sda5/.user/root/src/openwatcom-1.9/bld/wv/c/dbgwrep.c
                _TEXT                 CODE           0002:0003cd40  ! 000002f2
                CONST                 DATA           0003:00000004  ! 00000000
                CONST2                DATA           0003:00000094  ! 00000000
                _DATA                 DATA           0003:000035f8  ! 00000080
                _BSS                  BSS            0003:000085f0  ! 00000010
/mnt/sda5/.user/root/src/openwatcom-1.9/bld/wv/c/dbgwmem.c
                _TEXT                 CODE           0002:0003d040  ! 0000198e
                CONST                 DATA           0003:00000004  ! 00000000
                CONST2                DATA           0003:00000094  ! 00000000
                _DATA                 DATA           0003:00003678  ! 0000024c
                _BSS                  BSS            0003:00008600  ! 0000002c
/mnt/sda5/.user/root/src/openwatcom-1.9/bld/wv/c/dbgwregs.c
                _TEXT                 CODE           0002:0003e9d0  ! 00000039
                CONST                 DATA           0003:00000004  ! 00000000
                CONST2                DATA           0003:00000094  ! 00000000
                _DATA                 DATA           0003:000038c4  ! 00000000
/mnt/sda5/.user/root/src/openwatcom-1.9/bld/wv/c/dbgwmmx.c
                _TEXT                 CODE           0002:0003ea10  ! 00000058
                CONST                 DATA           0003:00000004  ! 00000000
                CONST2                DATA           0003:00000094  ! 00000000
                _DATA                 DATA           0003:000038c4  ! 00000000
/mnt/sda5/.user/root/src/openwatcom-1.9/bld/wv/c/dbgwxmm.c
                _TEXT                 CODE           0002:0003ea70  ! 00000058
                CONST                 DATA           0003:00000004  ! 00000000
                CONST2                DATA           0003:00000094  ! 00000000
                _DATA                 DATA           0003:000038c4  ! 00000000
/mnt/sda5/.user/root/src/openwatcom-1.9/bld/wv/c/dbgwmadr.c
                _TEXT                 CODE           0002:0003ead0  ! 00000abe
                CONST                 DATA           0003:00000004  ! 00000000
                CONST2                DATA           0003:00000094  ! 00000000
                _DATA                 DATA           0003:000038c4  ! 00000080
/mnt/sda5/.user/root/src/openwatcom-1.9/bld/wv/c/dbgwtogl.c
                _TEXT                 CODE           0002:0003f590  ! 0000010e
                CONST                 DATA           0003:00000004  ! 00000000
                CONST2                DATA           0003:00000094  ! 00000000
                _DATA                 DATA           0003:00003944  ! 00000000
/mnt/sda5/.user/root/src/openwatcom-1.9/bld/wv/c/dbgwvar.c
                _TEXT                 CODE           0002:0003f6a0  ! 0000169a
                CONST                 DATA           0003:00000004  ! 00000000
                CONST2                DATA           0003:00000094  ! 00000000
                _DATA                 DATA           0003:00003944  ! 000003d4
/mnt/sda5/.user/root/src/openwatcom-1.9/bld/wv/c/dbgwthrd.c
                _TEXT                 CODE           0002:00040d40  ! 000002b6
                CONST                 DATA           0003:00000004  ! 00000000
                CONST2                DATA           0003:00000094  ! 00000000
                _DATA                 DATA           0003:00003d18  ! 00000084
/mnt/sda5/.user/root/src/openwatcom-1.9/bld/wv/c/dlgwind.c
                _TEXT                 CODE           0002:00041000  ! 00000477
                CONST                 DATA           0003:00000004  ! 00000000
                CONST2                DATA           0003:00000094  ! 00000000
                _DATA                 DATA           0003:00003d9c  ! 00000000
/mnt/sda5/.user/root/src/openwatcom-1.9/bld/wv/c/dbgwdata.c
                _TEXT                 CODE           0002:00041480  ! 00000000
                CONST                 DATA           0003:00000004  ! 00000000
                CONST2                DATA           0003:00000094  ! 00000000
                _DATA                 DATA           0003:00003d9c  ! 00000154
                _BSS                  BSS            0003:0000862c  ! 00000004
/mnt/sda5/.user/root/src/openwatcom-1.9/bld/wv/c/dlgoptn.c
                _TEXT                 CODE           0002:00041480  ! 00000397
                CONST                 DATA           0003:00000004  ! 00000000
                CONST2                DATA           0003:00000094  ! 00000000
                _DATA                 DATA           0003:00003ef0  ! 00000000
/mnt/sda5/.user/root/src/openwatcom-1.9/bld/wv/c/dbgtool.c
                _TEXT                 CODE           0002:00041820  ! 000000ae
                CONST                 DATA           0003:00000004  ! 00000000
                CONST2                DATA           0003:00000094  ! 00000000
                _DATA                 DATA           0003:00003ef0  ! 000000b4
/mnt/sda5/.user/root/src/openwatcom-1.9/bld/wv/c/dbgfing.c
                _TEXT                 CODE           0002:000418d0  ! 000002d0
                CONST                 DATA           0003:00000004  ! 00000000
                CONST2                DATA           0003:00000094  ! 00000000
                _DATA                 DATA           0003:00003fa4  ! 0000003c
                _BSS                  BSS            0003:00008630  ! 00000010
/mnt/sda5/.user/root/src/openwatcom-1.9/bld/ui/c/uiinit.c
                _TEXT                 CODE           0002:00041ba0  ! 00000081
                CONST                 DATA           0003:00000004  ! 00000000
                CONST2                DATA           0003:00000094  ! 00000000
                _DATA                 DATA           0003:00003fe0  ! 00000000
/mnt/sda5/.user/root/src/openwatcom-1.9/bld/gui/ui/c/guigmous.c
                _TEXT                 CODE           0002:00041c30  ! 000000d6
                CONST                 DATA           0003:00000004  ! 00000000
                CONST2                DATA           0003:00000094  ! 00000000
                _DATA                 DATA           0003:00003fe0  ! 00000008
/mnt/sda5/.user/root/src/openwatcom-1.9/bld/aui/c/wndmem.c
                _TEXT                 CODE           0002:00041d10  ! 0000003b
                CONST                 DATA           0003:00000004  ! 00000000
                CONST2                DATA           0003:00000094  ! 00000000
                _DATA                 DATA           0003:00003fe8  ! 00000000
ldcvt.c         _TEXT                 CODE           0002:00041d4b  ! 00000ad3
                CONST                 DATA           0003:00000004  ! 00000000
                CONST2                DATA           0003:00000094  ! 00000000
                _DATA                 DATA           0003:00003fe8  ! 000000a8
fchop87         _TEXT                 CODE           0002:00042820  ! 00000017
                _DATA                 DATA           0003:00004090  ! 00000000
386             _TEXT                 CODE           0002:00042838  ! 00000002
                _DATA                 DATA           0003:00004090  ! 00000000
                XIB                   DATA           0003:00005a2c  ! 00000000
                XI                    DATA           0003:00005a2c  ! 00000006
                XIE                   DATA           0003:00005a74  ! 00000000
                YIB                   DATA           0003:00005a74  ! 00000000
                YI                    DATA           0003:00005a74  ! 00000006
                YIE                   DATA           0003:00005a92  ! 00000000
gcvt.c          _TEXT                 CODE           0002:0004283a  ! 000000fe
                CONST                 DATA           0003:00000004  ! 00000000
                CONST2                DATA           0003:00000094  ! 00000000
                _DATA                 DATA           0003:00004090  ! 00000000
strtod.c        _TEXT                 CODE           0002:00042938  ! 000007bf
                CONST                 DATA           0003:00000004  ! 00000000
                CONST2                DATA           0003:00000094  ! 00000000
                _DATA                 DATA           0003:00004090  ! 00000000
/mnt/sda5/.user/root/src/openwatcom-1.9/bld/aui/c/wndstat.c
                _TEXT                 CODE           0002:00043100  ! 0000015b
                CONST                 DATA           0003:00000004  ! 00000000
                CONST2                DATA           0003:00000094  ! 00000000
                _DATA                 DATA           0003:00004090  ! 00000000
                _BSS                  BSS            0003:00008640  ! 00000051
/mnt/sda5/.user/root/src/openwatcom-1.9/bld/aui/c/guimain.c
                _TEXT                 CODE           0002:00043260  ! 00000c2e
                CONST                 DATA           0003:00000004  ! 00000001
                CONST2                DATA           0003:00000094  ! 00000000
                _DATA                 DATA           0003:00004090  ! 00000012
                _BSS                  BSS            0003:00008694  ! 00000029
/mnt/sda5/.user/root/src/openwatcom-1.9/bld/aui/c/wndhist.c
                _TEXT                 CODE           0002:00043e90  ! 00000337
                CONST                 DATA           0003:00000008  ! 00000000
                CONST2                DATA           0003:00000094  ! 00000000
                _DATA                 DATA           0003:000040a4  ! 00000000
/mnt/sda5/.user/root/src/openwatcom-1.9/bld/aui/c/wndcreat.c
                _TEXT                 CODE           0002:000441d0  ! 00000417
                CONST                 DATA           0003:00000008  ! 00000001
                CONST2                DATA           0003:00000094  ! 00000000
                _DATA                 DATA           0003:000040a4  ! 00000004
                _BSS                  BSS            0003:000086c0  ! 00000008
/mnt/sda5/.user/root/src/openwatcom-1.9/bld/aui/c/wnddirt.c
                _TEXT                 CODE           0002:000445f0  ! 000006e3
                CONST                 DATA           0003:0000000c  ! 00000002
                CONST2                DATA           0003:00000094  ! 00000000
                _DATA                 DATA           0003:000040a8  ! 00000001
/mnt/sda5/.user/root/src/openwatcom-1.9/bld/aui/c/wndshrnk.c
                _TEXT                 CODE           0002:00044ce0  ! 000002b7
                CONST                 DATA           0003:00000010  ! 00000000
                CONST2                DATA           0003:00000094  ! 00000000
                _DATA                 DATA           0003:000040ac  ! 00000000
/mnt/sda5/.user/root/src/openwatcom-1.9/bld/gui/c/guiisgui.c
                _TEXT                 CODE           0002:00044fa0  ! 00000003
                CONST                 DATA           0003:00000010  ! 00000000
                CONST2                DATA           0003:00000094  ! 00000000
                _DATA                 DATA           0003:000040ac  ! 00000000
/mnt/sda5/.user/root/src/openwatcom-1.9/bld/gui/ui/c/guismetr.c
                _TEXT                 CODE           0002:00044fb0  ! 00000093
                CONST                 DATA           0003:00000010  ! 00000000
                CONST2                DATA           0003:00000094  ! 00000000
                _DATA                 DATA           0003:000040ac  ! 00000000
/mnt/sda5/.user/root/src/openwatcom-1.9/bld/aui/c/wndmsg.c
                _TEXT                 CODE           0002:00045050  ! 00000024
                CONST                 DATA           0003:00000010  ! 00000000
                CONST2                DATA           0003:00000094  ! 00000000
                _DATA                 DATA           0003:000040ac  ! 00000000
/mnt/sda5/.user/root/src/openwatcom-1.9/bld/aui/c/wndldstr.c
                _TEXT                 CODE           0002:00045080  ! 00000060
                CONST                 DATA           0003:00000010  ! 00000000
                CONST2                DATA           0003:00000094  ! 00000000
                _DATA                 DATA           0003:000040ac  ! 00000000
/mnt/sda5/.user/root/src/openwatcom-1.9/bld/gui/ui/c/guiclen.c
                _TEXT                 CODE           0002:000450e0  ! 00000015
                CONST                 DATA           0003:00000010  ! 00000000
                CONST2                DATA           0003:00000094  ! 00000000
                _DATA                 DATA           0003:000040ac  ! 00000000
/mnt/sda5/.user/root/src/openwatcom-1.9/bld/aui/c/wndutil.c
                _TEXT                 CODE           0002:00045100  ! 000002e1
                CONST                 DATA           0003:00000010  ! 00000000
                CONST2                DATA           0003:00000094  ! 00000000
                _DATA                 DATA           0003:000040ac  ! 00000000
/mnt/sda5/.user/root/src/openwatcom-1.9/bld/aui/c/wndfront.c
                _TEXT                 CODE           0002:000453f0  ! 00000098
                CONST                 DATA           0003:00000010  ! 00000000
                CONST2                DATA           0003:00000094  ! 00000000
                _DATA                 DATA           0003:000040ac  ! 00000000
/mnt/sda5/.user/root/src/openwatcom-1.9/bld/aui/c/dlgsrch.c
                _TEXT                 CODE           0002:00045490  ! 00000543
                CONST                 DATA           0003:00000010  ! 0000000e
                CONST2                DATA           0003:00000094  ! 00000000
                _DATA                 DATA           0003:000040ac  ! 0000002a
/mnt/sda5/.user/root/src/openwatcom-1.9/bld/aui/c/wndcurr.c
                _TEXT                 CODE           0002:000459e0  ! 000007f9
                CONST                 DATA           0003:00000020  ! 00000000
                CONST2                DATA           0003:00000094  ! 00000000
                _DATA                 DATA           0003:000040d8  ! 00000000
/mnt/sda5/.user/root/src/openwatcom-1.9/bld/aui/c/wndpaint.c
                _TEXT                 CODE           0002:000461e0  ! 000005af
                CONST                 DATA           0003:00000020  ! 00000002
                CONST2                DATA           0003:00000094  ! 00000000
                _DATA                 DATA           0003:000040d8  ! 00000000
/mnt/sda5/.user/root/src/openwatcom-1.9/bld/aui/c/wndcrsr.c
                _TEXT                 CODE           0002:00046790  ! 00000530
                CONST                 DATA           0003:00000024  ! 00000000
                CONST2                DATA           0003:00000094  ! 00000000
                _DATA                 DATA           0003:000040d8  ! 00000000
/mnt/sda5/.user/root/src/openwatcom-1.9/bld/aui/c/wndfont.c
                _TEXT                 CODE           0002:00046cc0  ! 00000069
                CONST                 DATA           0003:00000024  ! 00000000
                CONST2                DATA           0003:00000094  ! 00000000
                _DATA                 DATA           0003:000040d8  ! 00000000
/mnt/sda5/.user/root/src/openwatcom-1.9/bld/gui/c/guimem.c
                _TEXT                 CODE           0002:00046d30  ! 00000035
                CONST                 DATA           0003:00000024  ! 00000000
                CONST2                DATA           0003:00000094  ! 00000000
                _DATA                 DATA           0003:000040d8  ! 00000000
/mnt/sda5/.user/root/src/openwatcom-1.9/bld/aui/c/wndrect.c
                _TEXT                 CODE           0002:00046d70  ! 00000179
                CONST                 DATA           0003:00000024  ! 00000000
                CONST2                DATA           0003:00000094  ! 00000000
                _DATA                 DATA           0003:000040d8  ! 00000000
/mnt/sda5/.user/root/src/openwatcom-1.9/bld/gui/ui/c/guistub.c
                _TEXT                 CODE           0002:00046ef0  ! 00000021
                CONST                 DATA           0003:00000024  ! 00000000
                CONST2                DATA           0003:00000094  ! 00000000
                _DATA                 DATA           0003:000040d8  ! 00000000
/mnt/sda5/.user/root/src/openwatcom-1.9/bld/gui/c/guimin.c
                _TEXT                 CODE           0002:00046f20  ! 0000001c
                CONST                 DATA           0003:00000024  ! 00000000
                CONST2                DATA           0003:00000094  ! 00000000
                _DATA                 DATA           0003:000040d8  ! 00000000
/mnt/sda5/.user/root/src/openwatcom-1.9/bld/aui/c/wndtool.c
                _TEXT                 CODE           0002:00046f40  ! 00000144
                CONST                 DATA           0003:00000024  ! 00000000
                CONST2                DATA           0003:00000094  ! 00000000
                _DATA                 DATA           0003:000040d8  ! 00000001
                _BSS                  BSS            0003:000086c8  ! 00000004
/mnt/sda5/.user/root/src/openwatcom-1.9/bld/gui/ui/c/guicolor.c
                _TEXT                 CODE           0002:00047090  ! 0000065c
                CONST                 DATA           0003:00000024  ! 00000000
                CONST2                DATA           0003:00000094  ! 00000000
                _DATA                 DATA           0003:000040dc  ! 0000003b
/mnt/sda5/.user/root/src/openwatcom-1.9/bld/aui/c/wndcolor.c
                _TEXT                 CODE           0002:000476f0  ! 00000087
                CONST                 DATA           0003:00000024  ! 00000000
                CONST2                DATA           0003:00000094  ! 00000000
                _DATA                 DATA           0003:00004118  ! 00000000
/mnt/sda5/.user/root/src/openwatcom-1.9/bld/aui/c/dlgpick.c
                _TEXT                 CODE           0002:00047780  ! 000000bc
                CONST                 DATA           0003:00000024  ! 00000000
                CONST2                DATA           0003:00000094  ! 00000000
                _DATA                 DATA           0003:00004118  ! 00000000
                _BSS                  BSS            0003:000086cc  ! 00000010
/mnt/sda5/.user/root/src/openwatcom-1.9/bld/gui/c/guipick.c
                _TEXT                 CODE           0002:00047840  ! 0000012d
                CONST                 DATA           0003:00000024  ! 00000000
                CONST2                DATA           0003:00000094  ! 00000000
                _DATA                 DATA           0003:00004118  ! 00000078
/mnt/sda5/.user/root/src/openwatcom-1.9/bld/aui/c/wnddlg.c
                _TEXT                 CODE           0002:00047970  ! 00000121
                CONST                 DATA           0003:00000024  ! 00000000
                CONST2                DATA           0003:00000094  ! 00000000
                _DATA                 DATA           0003:00004190  ! 00000044
                _BSS                  BSS            0003:000086dc  ! 00000028
/mnt/sda5/.user/root/src/openwatcom-1.9/bld/gui/c/guindlg.c
                _TEXT                 CODE           0002:00047aa0  ! 00000408
                CONST                 DATA           0003:00000024  ! 00000000
                CONST2                DATA           0003:00000094  ! 00000000
                _DATA                 DATA           0003:000041d4  ! 00000061
/mnt/sda5/.user/root/src/openwatcom-1.9/bld/gui/ui/c/guifocus.c
                _TEXT                 CODE           0002:00047eb0  ! 00000029
                CONST                 DATA           0003:00000024  ! 00000000
                CONST2                DATA           0003:00000094  ! 00000000
                _DATA                 DATA           0003:00004238  ! 00000000
/mnt/sda5/.user/root/src/openwatcom-1.9/bld/gui/ui/c/guixedit.c
                _TEXT                 CODE           0002:00047ee0  ! 000001e3
                CONST                 DATA           0003:00000024  ! 00000000
                CONST2                DATA           0003:00000094  ! 00000000
                _DATA                 DATA           0003:00004238  ! 00000000
/mnt/sda5/.user/root/src/openwatcom-1.9/bld/aui/c/wndsrch.c
                _TEXT                 CODE           0002:000480d0  ! 000006fa
                CONST                 DATA           0003:00000024  ! 00000001
                CONST2                DATA           0003:00000094  ! 00000000
                _DATA                 DATA           0003:00004238  ! 00000001
/mnt/sda5/.user/root/src/openwatcom-1.9/bld/aui/c/wndpop.c
                _TEXT                 CODE           0002:000487d0  ! 00000c6b
                CONST                 DATA           0003:00000028  ! 00000000
                CONST2                DATA           0003:00000094  ! 00000000
                _DATA                 DATA           0003:0000423c  ! 00000000
/mnt/sda5/.user/root/src/openwatcom-1.9/bld/gui/ui/c/guispawn.c
                _TEXT                 CODE           0002:00049440  ! 00000041
                CONST                 DATA           0003:00000028  ! 00000000
                CONST2                DATA           0003:00000094  ! 00000000
                _DATA                 DATA           0003:0000423c  ! 00000000
/mnt/sda5/.user/root/src/openwatcom-1.9/bld/aui/c/wndgadgt.c
                _TEXT                 CODE           0002:00049490  ! 00000062
                CONST                 DATA           0003:00000028  ! 00000000
                CONST2                DATA           0003:00000094  ! 00000000
                _DATA                 DATA           0003:0000423c  ! 00000002
/mnt/sda5/.user/root/src/openwatcom-1.9/bld/gui/c/guihot.c
                _TEXT                 CODE           0002:00049500  ! 000000c9
                CONST                 DATA           0003:00000028  ! 00000000
                CONST2                DATA           0003:00000094  ! 00000000
                _DATA                 DATA           0003:00004240  ! 00000000
                _BSS                  BSS            0003:00008704  ! 00000004
/mnt/sda5/.user/root/src/openwatcom-1.9/bld/gui/ui/c/guiflush.c
                _TEXT                 CODE           0002:000495d0  ! 00000005
                CONST                 DATA           0003:00000028  ! 00000000
                CONST2                DATA           0003:00000094  ! 00000000
                _DATA                 DATA           0003:00004240  ! 00000000
/mnt/sda5/.user/root/src/openwatcom-1.9/bld/aui/c/wndmeth.c
                _TEXT                 CODE           0002:000495e0  ! 00000559
                CONST                 DATA           0003:00000028  ! 00000001
                CONST2                DATA           0003:00000094  ! 00000000
                _DATA                 DATA           0003:00004240  ! 00000038
                _BSS                  BSS            0003:00008708  ! 00001134
/mnt/sda5/.user/root/src/openwatcom-1.9/bld/gui/c/guiextra.c
                _TEXT                 CODE           0002:00049b40  ! 00000014
                CONST                 DATA           0003:0000002c  ! 00000000
                CONST2                DATA           0003:00000094  ! 00000000
                _DATA                 DATA           0003:00004278  ! 00000000
/mnt/sda5/.user/root/src/openwatcom-1.9/bld/gui/ui/c/guixdlg.c
                _TEXT                 CODE           0002:00049b60  ! 00000fe8
                CONST                 DATA           0003:0000002c  ! 00000000
                CONST2                DATA           0003:00000094  ! 00000000
                _DATA                 DATA           0003:00004278  ! 00000068
/mnt/sda5/.user/root/src/openwatcom-1.9/bld/gui/ui/c/guixaddt.c
                _TEXT                 CODE           0002:0004ab50  ! 0000031e
                CONST                 DATA           0003:0000002c  ! 00000000
                CONST2                DATA           0003:00000094  ! 00000000
                _DATA                 DATA           0003:000042e0  ! 00000000
/mnt/sda5/.user/root/src/openwatcom-1.9/bld/gui/ui/c/guigtext.c
                _TEXT                 CODE           0002:0004ae70  ! 000000fa
                CONST                 DATA           0003:0000002c  ! 00000000
                CONST2                DATA           0003:00000094  ! 00000000
                _DATA                 DATA           0003:000042e0  ! 00000000
/mnt/sda5/.user/root/src/openwatcom-1.9/bld/gui/ui/c/guistext.c
                _TEXT                 CODE           0002:0004af70  ! 0000009a
                CONST                 DATA           0003:0000002c  ! 00000000
                CONST2                DATA           0003:00000094  ! 00000000
                _DATA                 DATA           0003:000042e0  ! 00000000
/mnt/sda5/.user/root/src/openwatcom-1.9/bld/aui/c/wndfdlg.c
                _TEXT                 CODE           0002:0004b010  ! 0000015a
                CONST                 DATA           0003:0000002c  ! 00000002
                CONST2                DATA           0003:00000094  ! 00000000
                _DATA                 DATA           0003:000042e0  ! 00000000
/mnt/sda5/.user/root/src/openwatcom-1.9/bld/gui/ui/c/guicontr.c
                _TEXT                 CODE           0002:0004b170  ! 0000048b
                CONST                 DATA           0003:00000030  ! 00000000
                CONST2                DATA           0003:00000094  ! 00000000
                _DATA                 DATA           0003:000042e0  ! 00000000
/mnt/sda5/.user/root/src/openwatcom-1.9/bld/aui/c/dlgnew.c
                _TEXT                 CODE           0002:0004b600  ! 00000146
                CONST                 DATA           0003:00000030  ! 00000001
                CONST2                DATA           0003:00000094  ! 00000000
                _DATA                 DATA           0003:000042e0  ! 00000078
/mnt/sda5/.user/root/src/openwatcom-1.9/bld/gui/ui/c/guicheck.c
                _TEXT                 CODE           0002:0004b750  ! 000000c0
                CONST                 DATA           0003:00000034  ! 00000000
                CONST2                DATA           0003:00000094  ! 00000000
                _DATA                 DATA           0003:00004358  ! 00000000
/mnt/sda5/.user/root/src/openwatcom-1.9/bld/gui/ui/c/guihelp.c
                _TEXT                 CODE           0002:0004b810  ! 000000f3
                CONST                 DATA           0003:00000034  ! 00000000
                CONST2                DATA           0003:00000094  ! 00000000
                _DATA                 DATA           0003:00004358  ! 00000008
/mnt/sda5/.user/root/src/openwatcom-1.9/bld/aui/c/wndsel.c
                _TEXT                 CODE           0002:0004b910  ! 000004e5
                CONST                 DATA           0003:00000034  ! 00000000
                CONST2                DATA           0003:00000094  ! 00000000
                _DATA                 DATA           0003:00004360  ! 00000000
                _BSS                  BSS            0003:0000983c  ! 00000008
/mnt/sda5/.user/root/src/openwatcom-1.9/bld/aui/c/wndscrol.c
                _TEXT                 CODE           0002:0004be00  ! 00000370
                CONST                 DATA           0003:00000034  ! 00000000
                CONST2                DATA           0003:00000094  ! 00000000
                _DATA                 DATA           0003:00004360  ! 00000000
/mnt/sda5/.user/root/src/openwatcom-1.9/bld/aui/c/wndchar.c
                _TEXT                 CODE           0002:0004c170  ! 0000006c
                CONST                 DATA           0003:00000034  ! 00000004
                CONST2                DATA           0003:00000094  ! 00000000
                _DATA                 DATA           0003:00004360  ! 00000004
/mnt/sda5/.user/root/src/openwatcom-1.9/bld/gui/c/guiwnclr.c
                _TEXT                 CODE           0002:0004c1e0  ! 0000007a
                CONST                 DATA           0003:00000038  ! 00000000
                CONST2                DATA           0003:00000094  ! 00000000
                _DATA                 DATA           0003:00004364  ! 0000001c
/mnt/sda5/.user/root/src/openwatcom-1.9/bld/ui/c/uialloc.c
                _TEXT                 CODE           0002:0004c25a  ! 00000015
                CONST                 DATA           0003:00000038  ! 00000000
                CONST2                DATA           0003:00000094  ! 00000000
                _DATA                 DATA           0003:00004380  ! 00000000
/mnt/sda5/.user/root/src/openwatcom-1.9/bld/ui/os2/c/uibios.c
                _TEXT                 CODE           0002:0004c26f  ! 0000027f
                CONST                 DATA           0003:00000038  ! 00000000
                CONST2                DATA           0003:00000094  ! 00000000
                _DATA                 DATA           0003:00004380  ! 00000079
/mnt/sda5/.user/root/src/openwatcom-1.9/bld/ui/c/uigchar.c
                _TEXT                 CODE           0002:0004c4ee  ! 000000a7
                CONST                 DATA           0003:00000038  ! 00000000
                CONST2                DATA           0003:00000094  ! 00000000
                _DATA                 DATA           0003:000043fc  ! 00000066
/mnt/sda5/.user/root/src/openwatcom-1.9/bld/ui/c/uidata.c
                _TEXT                 CODE           0002:0004c595  ! 00000000
                CONST                 DATA           0003:00000038  ! 00000000
                CONST2                DATA           0003:00000094  ! 00000000
                _DATA                 DATA           0003:00004464  ! 00000004
/mnt/sda5/.user/root/src/openwatcom-1.9/bld/ui/c/uiattr.c
                _TEXT                 CODE           0002:0004c595  ! 0000010e
                CONST                 DATA           0003:00000038  ! 00000000
                CONST2                DATA           0003:00000094  ! 00000000
                _DATA                 DATA           0003:00004468  ! 000000fa
/mnt/sda5/.user/root/src/openwatcom-1.9/bld/ui/c/uiback.c
                _TEXT                 CODE           0002:0004c6a3  ! 000001bf
                CONST                 DATA           0003:00000038  ! 00000000
                CONST2                DATA           0003:00000094  ! 00000000
                _DATA                 DATA           0003:00004564  ! 00000000
/mnt/sda5/.user/root/src/openwatcom-1.9/bld/ui/c/uiforce.c
                _TEXT                 CODE           0002:0004c862  ! 000000df
                CONST                 DATA           0003:00000038  ! 00000000
                CONST2                DATA           0003:00000094  ! 00000000
                _DATA                 DATA           0003:00004564  ! 0000001c
/mnt/sda5/.user/root/src/openwatcom-1.9/bld/ui/os2/c/uimous.c
                _TEXT                 CODE           0002:0004c941  ! 000004db
                CONST                 DATA           0003:00000038  ! 00000000
                CONST2                DATA           0003:00000094  ! 00000000
                _DATA                 DATA           0003:00004580  ! 00000001
                _BSS                  BSS            0003:00009844  ! 00000006
/mnt/sda5/.user/root/src/openwatcom-1.9/bld/ui/os2/c/uicurs.c
                _TEXT                 CODE           0002:0004ce1c  ! 0000051e
                CONST                 DATA           0003:00000038  ! 00000000
                CONST2                DATA           0003:00000094  ! 00000000
                _DATA                 DATA           0003:00004584  ! 00000000
                _BSS                  BSS            0003:0000984c  ! 00000016
/mnt/sda5/.user/root/src/openwatcom-1.9/bld/ui/c/uimousev.c
                _TEXT                 CODE           0002:0004d33a  ! 0000042c
                CONST                 DATA           0003:00000038  ! 00000000
                CONST2                DATA           0003:00000094  ! 00000000
                _DATA                 DATA           0003:00004584  ! 00000056
                _BSS                  BSS            0003:00009864  ! 00000009
ldclass.c       _TEXT                 CODE           0002:0004d766  ! 0000005f
                CONST                 DATA           0003:00000038  ! 00000000
                CONST2                DATA           0003:00000094  ! 00000000
                _DATA                 DATA           0003:000045dc  ! 00000000
bufld386        _TEXT                 CODE           0002:0004d7c8  ! 000000a3
                _DATA                 DATA           0003:000045dc  ! 00000000
inf_nan.c       _TEXT                 CODE           0002:0004d86b  ! 00000028
                CONST                 DATA           0003:00000038  ! 00000000
                CONST2                DATA           0003:00000094  ! 00000000
                _DATA                 DATA           0003:000045dc  ! 00000000
/mnt/sda5/.user/root/src/openwatcom-1.9/bld/gui/ui/c/guistat.c
                _TEXT                 CODE           0002:0004d8a0  ! 00000329
                CONST                 DATA           0003:00000038  ! 00000000
                CONST2                DATA           0003:00000094  ! 00000000
                _DATA                 DATA           0003:000045dc  ! 00000000
/mnt/sda5/.user/root/src/openwatcom-1.9/bld/aui/c/wndfref.c
                _TEXT                 CODE           0002:0004dbd0  ! 0000000c
                CONST                 DATA           0003:00000038  ! 00000000
                CONST2                DATA           0003:00000094  ! 00000000
                _DATA                 DATA           0003:000045dc  ! 00000000
/mnt/sda5/.user/root/src/openwatcom-1.9/bld/gui/ui/c/guidbclk.c
                _TEXT                 CODE           0002:0004dbe0  ! 00000011
                CONST                 DATA           0003:00000038  ! 00000000
                CONST2                DATA           0003:00000094  ! 00000000
                _DATA                 DATA           0003:000045dc  ! 00000000
/mnt/sda5/.user/root/src/openwatcom-1.9/bld/gui/c/guirscal.c
                _TEXT                 CODE           0002:0004dc00  ! 00000060
                CONST                 DATA           0003:00000038  ! 00000000
                CONST2                DATA           0003:00000094  ! 00000000
                _DATA                 DATA           0003:000045dc  ! 00000000
/mnt/sda5/.user/root/src/openwatcom-1.9/bld/gui/c/guiscale.c
                _TEXT                 CODE           0002:0004dc60  ! 00000283
                CONST                 DATA           0003:00000038  ! 00000000
                CONST2                DATA           0003:00000094  ! 00000000
                _DATA                 DATA           0003:000045dc  ! 00000000
                _BSS                  BSS            0003:00009870  ! 00000020
/mnt/sda5/.user/root/src/openwatcom-1.9/bld/aui/c/wndstyle.c
                _TEXT                 CODE           0002:0004def0  ! 00000000
                CONST                 DATA           0003:00000038  ! 00000000
                CONST2                DATA           0003:00000094  ! 00000000
                _DATA                 DATA           0003:000045dc  ! 00000001
/mnt/sda5/.user/root/src/openwatcom-1.9/bld/gui/ui/c/guixinit.c
                _TEXT                 CODE           0002:0004def0  ! 00000156
                CONST                 DATA           0003:00000038  ! 00000000
                CONST2                DATA           0003:00000094  ! 00000000
                _DATA                 DATA           0003:000045e0  ! 00000002
/mnt/sda5/.user/root/src/openwatcom-1.9/bld/gui/c/guiimmdi.c
                _TEXT                 CODE           0002:0004e050  ! 0000004d
                CONST                 DATA           0003:00000038  ! 00000000
                CONST2                DATA           0003:00000094  ! 00000000
                _DATA                 DATA           0003:000045e4  ! 00000000
/mnt/sda5/.user/root/src/openwatcom-1.9/bld/gui/ui/c/guimenu.c
                _TEXT                 CODE           0002:0004e0a0  ! 00001034
                CONST                 DATA           0003:00000038  ! 00000000
                CONST2                DATA           0003:00000094  ! 00000000
                _DATA                 DATA           0003:000045e4  ! 00000018
/mnt/sda5/.user/root/src/openwatcom-1.9/bld/aui/c/wndimain.c
                _TEXT                 CODE           0002:0004f0e0  ! 00000005
                CONST                 DATA           0003:00000038  ! 00000000
                CONST2                DATA           0003:00000094  ! 00000000
                _DATA                 DATA           0003:000045fc  ! 00000000
/mnt/sda5/.user/root/src/openwatcom-1.9/bld/aui/c/wndmnsz.c
                _TEXT                 CODE           0002:0004f0f0  ! 00000023
                CONST                 DATA           0003:00000038  ! 00000000
                CONST2                DATA           0003:00000094  ! 00000000
                _DATA                 DATA           0003:000045fc  ! 00000000
/mnt/sda5/.user/root/src/openwatcom-1.9/bld/aui/c/wndbgch.c
                _TEXT                 CODE           0002:0004f120  ! 00000000
                CONST                 DATA           0003:00000038  ! 00000000
                CONST2                DATA           0003:00000094  ! 00000000
                _DATA                 DATA           0003:000045fc  ! 00000001
/mnt/sda5/.user/root/src/openwatcom-1.9/bld/gui/ui/c/guixdraw.c
                _TEXT                 CODE           0002:0004f120  ! 00000b6e
                CONST                 DATA           0003:00000038  ! 00000000
                CONST2                DATA           0003:00000094  ! 00000000
                _DATA                 DATA           0003:00004600  ! 00000038
                _BSS                  BSS            0003:00009890  ! 0000001e
/mnt/sda5/.user/root/src/openwatcom-1.9/bld/gui/ui/c/guixsys.c
                _TEXT                 CODE           0002:0004fc90  ! 0000041d
                CONST                 DATA           0003:00000038  ! 00000000
                CONST2                DATA           0003:00000094  ! 00000000
                _DATA                 DATA           0003:00004638  ! 0000001c
/mnt/sda5/.user/root/src/openwatcom-1.9/bld/gui/ui/c/guixwind.c
                _TEXT                 CODE           0002:000500b0  ! 000002d3
                CONST                 DATA           0003:00000038  ! 00000000
                CONST2                DATA           0003:00000094  ! 00000000
                _DATA                 DATA           0003:00004654  ! 00000000
/mnt/sda5/.user/root/src/openwatcom-1.9/bld/gui/ui/c/guigetnr.c
                _TEXT                 CODE           0002:00050390  ! 00000005
                CONST                 DATA           0003:00000038  ! 00000000
                CONST2                DATA           0003:00000094  ! 00000000
                _DATA                 DATA           0003:00004654  ! 00000000
/mnt/sda5/.user/root/src/openwatcom-1.9/bld/gui/ui/c/guitextm.c
                _TEXT                 CODE           0002:000503a0  ! 00000068
                CONST                 DATA           0003:00000038  ! 00000000
                CONST2                DATA           0003:00000094  ! 00000000
                _DATA                 DATA           0003:00004654  ! 00000000
/mnt/sda5/.user/root/src/openwatcom-1.9/bld/gui/ui/c/guicrect.c
                _TEXT                 CODE           0002:00050410  ! 0000004f
                CONST                 DATA           0003:00000038  ! 00000000
                CONST2                DATA           0003:00000094  ! 00000000
                _DATA                 DATA           0003:00004654  ! 00000000
/mnt/sda5/.user/root/src/openwatcom-1.9/bld/gui/ui/c/guirange.c
                _TEXT                 CODE           0002:00050460  ! 00000162
                CONST                 DATA           0003:00000038  ! 00000000
                CONST2                DATA           0003:00000094  ! 00000000
                _DATA                 DATA           0003:00004654  ! 00000000
/mnt/sda5/.user/root/src/openwatcom-1.9/bld/aui/c/wndchoos.c
                _TEXT                 CODE           0002:000505d0  ! 00000454
                CONST                 DATA           0003:00000038  ! 00000000
                CONST2                DATA           0003:00000094  ! 00000000
                _DATA                 DATA           0003:00004654  ! 00000000
/mnt/sda5/.user/root/src/openwatcom-1.9/bld/aui/c/wndmouse.c
                _TEXT                 CODE           0002:00050a30  ! 00000530
                CONST                 DATA           0003:00000038  ! 00000000
                CONST2                DATA           0003:00000094  ! 00000000
                _DATA                 DATA           0003:00004654  ! 00000000
                _BSS                  BSS            0003:000098b0  ! 0000003b
/mnt/sda5/.user/root/src/openwatcom-1.9/bld/aui/c/wndqryhk.c
                _TEXT                 CODE           0002:00050f60  ! 00000003
                CONST                 DATA           0003:00000038  ! 00000000
                CONST2                DATA           0003:00000094  ! 00000000
                _DATA                 DATA           0003:00004654  ! 00000000
/mnt/sda5/.user/root/src/openwatcom-1.9/bld/aui/c/wndendhk.c
                _TEXT                 CODE           0002:00050f70  ! 00000001
                CONST                 DATA           0003:00000038  ! 00000000
                CONST2                DATA           0003:00000094  ! 00000000
                _DATA                 DATA           0003:00004654  ! 00000000
/mnt/sda5/.user/root/src/openwatcom-1.9/bld/gui/c/guicreat.c
                _TEXT                 CODE           0002:00050f80  ! 00000051
                CONST                 DATA           0003:00000038  ! 00000000
                CONST2                DATA           0003:00000094  ! 00000000
                _DATA                 DATA           0003:00004654  ! 00000001
/mnt/sda5/.user/root/src/openwatcom-1.9/bld/gui/ui/c/guisicon.c
                _TEXT                 CODE           0002:00050fe0  ! 00000045
                CONST                 DATA           0003:00000038  ! 00000000
                CONST2                DATA           0003:00000094  ! 00000000
                _DATA                 DATA           0003:00004658  ! 00000000
/mnt/sda5/.user/root/src/openwatcom-1.9/bld/gui/ui/c/guidrect.c
                _TEXT                 CODE           0002:00051030  ! 00000137
                CONST                 DATA           0003:00000038  ! 00000000
                CONST2                DATA           0003:00000094  ! 00000000
                _DATA                 DATA           0003:00004658  ! 00000000
/mnt/sda5/.user/root/src/openwatcom-1.9/bld/gui/ui/c/guidrow.c
                _TEXT                 CODE           0002:00051170  ! 00000049
                CONST                 DATA           0003:00000038  ! 00000000
                CONST2                DATA           0003:00000094  ! 00000000
                _DATA                 DATA           0003:00004658  ! 00000000
/mnt/sda5/.user/root/src/openwatcom-1.9/bld/gui/ui/c/guiscrol.c
                _TEXT                 CODE           0002:000511c0  ! 00000244
                CONST                 DATA           0003:00000038  ! 00000000
                CONST2                DATA           0003:00000094  ! 00000000
                _DATA                 DATA           0003:00004658  ! 00000000
/mnt/sda5/.user/root/src/openwatcom-1.9/bld/gui/c/guidraw.c
                _TEXT                 CODE           0002:00051410  ! 000001bf
                CONST                 DATA           0003:00000038  ! 00000000
                CONST2                DATA           0003:00000094  ! 00000000
                _DATA                 DATA           0003:00004658  ! 00000000
/mnt/sda5/.user/root/src/openwatcom-1.9/bld/gui/ui/c/guidoscr.c
                _TEXT                 CODE           0002:000515d0  ! 000001ce
                CONST                 DATA           0003:00000038  ! 00000000
                CONST2                DATA           0003:00000094  ! 00000000
                _DATA                 DATA           0003:00004658  ! 00000000
/mnt/sda5/.user/root/src/openwatcom-1.9/bld/gui/ui/c/guidirty.c
                _TEXT                 CODE           0002:000517a0  ! 00000086
                CONST                 DATA           0003:00000038  ! 00000000
                CONST2                DATA           0003:00000094  ! 00000000
                _DATA                 DATA           0003:00004658  ! 00000000
/mnt/sda5/.user/root/src/openwatcom-1.9/bld/gui/c/guipixel.c
                _TEXT                 CODE           0002:00051830  ! 00000017
                CONST                 DATA           0003:00000038  ! 00000000
                CONST2                DATA           0003:00000094  ! 00000000
                _DATA                 DATA           0003:00004658  ! 00000000
/mnt/sda5/.user/root/src/openwatcom-1.9/bld/gui/ui/c/guixtent.c
                _TEXT                 CODE           0002:00051850  ! 0000008e
                CONST                 DATA           0003:00000038  ! 00000000
                CONST2                DATA           0003:00000094  ! 00000000
                _DATA                 DATA           0003:00004658  ! 00000000
/mnt/sda5/.user/root/src/openwatcom-1.9/bld/gui/ui/c/guirect.c
                _TEXT                 CODE           0002:000518e0  ! 0000006c
                CONST                 DATA           0003:00000038  ! 00000000
                CONST2                DATA           0003:00000094  ! 00000000
                _DATA                 DATA           0003:00004658  ! 00000000
/mnt/sda5/.user/root/src/openwatcom-1.9/bld/gui/ui/c/guimouse.c
                _TEXT                 CODE           0002:00051950  ! 00000057
                CONST                 DATA           0003:00000038  ! 00000000
                CONST2                DATA           0003:00000094  ! 00000000
                _DATA                 DATA           0003:00004658  ! 00000000
/mnt/sda5/.user/root/src/openwatcom-1.9/bld/gui/ui/c/guisize.c
                _TEXT                 CODE           0002:000519b0  ! 00000e68
                CONST                 DATA           0003:00000038  ! 00000000
                CONST2                DATA           0003:00000094  ! 00000000
                _DATA                 DATA           0003:00004658  ! 00000000
/mnt/sda5/.user/root/src/openwatcom-1.9/bld/gui/c/guizlist.c
                _TEXT                 CODE           0002:00052820  ! 000000d7
                CONST                 DATA           0003:00000038  ! 00000000
                CONST2                DATA           0003:00000094  ! 00000000
                _DATA                 DATA           0003:00004658  ! 00000004
/mnt/sda5/.user/root/src/openwatcom-1.9/bld/gui/ui/c/guixdisp.c
                _TEXT                 CODE           0002:00052900  ! 00000771
                CONST                 DATA           0003:00000038  ! 00000000
                CONST2                DATA           0003:00000094  ! 00000000
                _DATA                 DATA           0003:0000465c  ! 00000291
/mnt/sda5/.user/root/src/openwatcom-1.9/bld/gui/ui/c/guildstr.c
                _TEXT                 CODE           0002:00053080  ! 00000239
                CONST                 DATA           0003:00000038  ! 00000000
                CONST2                DATA           0003:00000094  ! 00000000
                _DATA                 DATA           0003:000048f0  ! 0000002c
/mnt/sda5/.user/root/src/openwatcom-1.9/bld/ui/c/uichlen.c
                _TEXT                 CODE           0002:000532b9  ! 00000033
                CONST                 DATA           0003:00000038  ! 00000000
                CONST2                DATA           0003:00000094  ! 00000000
                _DATA                 DATA           0003:0000491c  ! 00000000
/mnt/sda5/.user/root/src/openwatcom-1.9/bld/gui/ui/c/guifront.c
                _TEXT                 CODE           0002:000532f0  ! 000000fe
                CONST                 DATA           0003:00000038  ! 00000000
                CONST2                DATA           0003:00000094  ! 00000000
                _DATA                 DATA           0003:0000491c  ! 00000000
/mnt/sda5/.user/root/src/openwatcom-1.9/bld/gui/ui/c/guistrin.c
                _TEXT                 CODE           0002:000533f0  ! 00000049
                CONST                 DATA           0003:00000038  ! 00000000
                CONST2                DATA           0003:00000094  ! 00000000
                _DATA                 DATA           0003:0000491c  ! 00000000
/mnt/sda5/.user/root/src/openwatcom-1.9/bld/gui/ui/c/guixbar.c
                _TEXT                 CODE           0002:00053440  ! 000000e1
                CONST                 DATA           0003:00000038  ! 00000000
                CONST2                DATA           0003:00000094  ! 00000000
                _DATA                 DATA           0003:0000491c  ! 00000000
/mnt/sda5/.user/root/src/openwatcom-1.9/bld/gui/ui/c/guidrawr.c
                _TEXT                 CODE           0002:00053530  ! 000003a5
                CONST                 DATA           0003:00000038  ! 00000000
                CONST2                DATA           0003:00000094  ! 00000000
                _DATA                 DATA           0003:0000491c  ! 00000000
/mnt/sda5/.user/root/src/openwatcom-1.9/bld/gui/ui/c/guixhot.c
                _TEXT                 CODE           0002:000538e0  ! 000000fc
                CONST                 DATA           0003:00000038  ! 00000000
                CONST2                DATA           0003:00000094  ! 00000000
                _DATA                 DATA           0003:0000491c  ! 00000004
/mnt/sda5/.user/root/src/openwatcom-1.9/bld/gui/ui/c/guitool.c
                _TEXT                 CODE           0002:000539e0  ! 000007c2
                CONST                 DATA           0003:00000038  ! 00000000
                CONST2                DATA           0003:00000094  ! 00000000
                _DATA                 DATA           0003:00004920  ! 00000080
/mnt/sda5/.user/root/src/openwatcom-1.9/bld/gui/c/guihtool.c
                _TEXT                 CODE           0002:000541b0  ! 00000143
                CONST                 DATA           0003:00000038  ! 00000000
                CONST2                DATA           0003:00000094  ! 00000000
                _DATA                 DATA           0003:000049a0  ! 00000000
/mnt/sda5/.user/root/src/openwatcom-1.9/bld/ui/c/uimenu.c
                _TEXT                 CODE           0002:000542f3  ! 0000129a
                CONST                 DATA           0003:00000038  ! 00000000
                CONST2                DATA           0003:00000094  ! 00000000
                _DATA                 DATA           0003:000049a0  ! 00000059
                _BSS                  BSS            0003:000098ec  ! 000000b0
/mnt/sda5/.user/root/src/openwatcom-1.9/bld/gui/ui/c/guiwhole.c
                _TEXT                 CODE           0002:00055590  ! 0000002a
                CONST                 DATA           0003:00000038  ! 00000000
                CONST2                DATA           0003:00000094  ! 00000000
                _DATA                 DATA           0003:000049fc  ! 00000000
/mnt/sda5/.user/root/src/openwatcom-1.9/bld/ui/c/uigadget.c
                _TEXT                 CODE           0002:000555ba  ! 00000537
                CONST                 DATA           0003:00000038  ! 00000000
                CONST2                DATA           0003:00000094  ! 00000000
                _DATA                 DATA           0003:000049fc  ! 0000001b
/mnt/sda5/.user/root/src/openwatcom-1.9/bld/gui/c/guisdef.c
                _TEXT                 CODE           0002:00055b00  ! 00000000
                CONST                 DATA           0003:00000038  ! 00000000
                CONST2                DATA           0003:00000094  ! 00000000
                _DATA                 DATA           0003:00004a18  ! 00000000
                _BSS                  BSS            0003:0000999c  ! 00000118
/mnt/sda5/.user/root/src/openwatcom-1.9/bld/gui/c/guidlg.c
                _TEXT                 CODE           0002:00055b00  ! 0000008f
                CONST                 DATA           0003:00000038  ! 00000000
                CONST2                DATA           0003:00000094  ! 00000000
                _DATA                 DATA           0003:00004a18  ! 00000000
/mnt/sda5/.user/root/src/openwatcom-1.9/bld/ui/c/uidialog.c
                _TEXT                 CODE           0002:00055b8f  ! 000016bb
                CONST                 DATA           0003:00000038  ! 00000000
                CONST2                DATA           0003:00000094  ! 00000000
                _DATA                 DATA           0003:00004a18  ! 0000005a
/mnt/sda5/.user/root/src/openwatcom-1.9/bld/gui/c/guiutil.c
                _TEXT                 CODE           0002:00057250  ! 00000175
                CONST                 DATA           0003:00000038  ! 00000000
                CONST2                DATA           0003:00000094  ! 00000000
                _DATA                 DATA           0003:00004a74  ! 0000000c
/mnt/sda5/.user/root/src/openwatcom-1.9/bld/gui/ui/c/guihotsp.c
                _TEXT                 CODE           0002:000573d0  ! 000000f4
                CONST                 DATA           0003:00000038  ! 00000000
                CONST2                DATA           0003:00000094  ! 00000000
                _DATA                 DATA           0003:00004a80  ! 00000000
/mnt/sda5/.user/root/src/openwatcom-1.9/bld/aui/c/rxwrap.c
                _TEXT                 CODE           0002:000574d0  ! 0000122d
                CONST                 DATA           0003:00000038  ! 00000000
                CONST2                DATA           0003:00000094  ! 00000000
                _DATA                 DATA           0003:00004a80  ! 0000000f
                _BSS                  BSS            0003:00009ab4  ! 00000025
/mnt/sda5/.user/root/src/openwatcom-1.9/bld/gui/c/guihflt.c
                _TEXT                 CODE           0002:00058700  ! 0000006d
                CONST                 DATA           0003:00000038  ! 00000000
                CONST2                DATA           0003:00000094  ! 00000000
                _DATA                 DATA           0003:00004a90  ! 00000000
/mnt/sda5/.user/root/src/openwatcom-1.9/bld/ui/os2/c/uispawn.c
                _TEXT                 CODE           0002:0005876d  ! 00000038
                CONST                 DATA           0003:00000038  ! 00000000
                CONST2                DATA           0003:00000094  ! 00000000
                _DATA                 DATA           0003:00004a90  ! 00000000
/mnt/sda5/.user/root/src/openwatcom-1.9/bld/ui/c/uiblank.c
                _TEXT                 CODE           0002:000587a5  ! 000000a2
                CONST                 DATA           0003:00000038  ! 00000000
                CONST2                DATA           0003:00000094  ! 00000000
                _DATA                 DATA           0003:00004a90  ! 00000000
/mnt/sda5/.user/root/src/openwatcom-1.9/bld/ui/c/uidirty.c
                _TEXT                 CODE           0002:00058847  ! 000000ed
                CONST                 DATA           0003:00000038  ! 00000000
                CONST2                DATA           0003:00000094  ! 00000000
                _DATA                 DATA           0003:00004a90  ! 00000000
/mnt/sda5/.user/root/src/openwatcom-1.9/bld/gui/c/guihook.c
                _TEXT                 CODE           0002:00058940  ! 00000204
                CONST                 DATA           0003:00000038  ! 00000000
                CONST2                DATA           0003:00000094  ! 00000000
                _DATA                 DATA           0003:00004a90  ! 0000002c
/mnt/sda5/.user/root/src/openwatcom-1.9/bld/ui/os2/c/uiget.c
                _TEXT                 CODE           0002:00058b44  ! 000000dc
                CONST                 DATA           0003:00000038  ! 00000000
                CONST2                DATA           0003:00000094  ! 00000000
                _DATA                 DATA           0003:00004abc  ! 00000004
/mnt/sda5/.user/root/src/openwatcom-1.9/bld/ui/c/uilist.c
                _TEXT                 CODE           0002:00058c20  ! 0000010b
                CONST                 DATA           0003:00000038  ! 00000000
                CONST2                DATA           0003:00000094  ! 00000000
                _DATA                 DATA           0003:00004ac0  ! 0000007c
/mnt/sda5/.user/root/src/openwatcom-1.9/bld/gui/ui/c/guilistb.c
                _TEXT                 CODE           0002:00058d30  ! 00000583
                CONST                 DATA           0003:00000038  ! 00000000
                CONST2                DATA           0003:00000094  ! 00000000
                _DATA                 DATA           0003:00004b3c  ! 00000000
/mnt/sda5/.user/root/src/openwatcom-1.9/bld/gui/ui/c/guixutil.c
                _TEXT                 CODE           0002:000592c0  ! 00000627
                CONST                 DATA           0003:00000038  ! 00000000
                CONST2                DATA           0003:00000094  ! 00000000
                _DATA                 DATA           0003:00004b3c  ! 00000000
/mnt/sda5/.user/root/src/openwatcom-1.9/bld/gui/c/guimkey.c
                _TEXT                 CODE           0002:000598f0  ! 00000477
                CONST                 DATA           0003:00000038  ! 00000000
                CONST2                DATA           0003:00000094  ! 00000000
                _DATA                 DATA           0003:00004b3c  ! 00000001
/mnt/sda5/.user/root/src/openwatcom-1.9/bld/gui/ui/c/guirdlg.c
                _TEXT                 CODE           0002:00059d70  ! 00000bf5
                CONST                 DATA           0003:00000038  ! 00000000
                CONST2                DATA           0003:00000094  ! 00000000
                _DATA                 DATA           0003:00004b40  ! 00000000
/mnt/sda5/.user/root/src/openwatcom-1.9/bld/ui/c/uiyield.c
                _TEXT                 CODE           0002:0005a965  ! 00000001
                CONST                 DATA           0003:00000038  ! 00000000
                CONST2                DATA           0003:00000094  ! 00000000
                _DATA                 DATA           0003:00004b40  ! 00000000
/mnt/sda5/.user/root/src/openwatcom-1.9/bld/gui/ui/c/guixloop.c
                _TEXT                 CODE           0002:0005a970  ! 00001038
                CONST                 DATA           0003:00000038  ! 00000000
                CONST2                DATA           0003:00000094  ! 00000000
                _DATA                 DATA           0003:00004b40  ! 00000034
                _BSS                  BSS            0003:00009adc  ! 00000001
/mnt/sda5/.user/root/src/openwatcom-1.9/bld/gui/ui/c/guifdlg.c
                _TEXT                 CODE           0002:0005b9b0  ! 00001682
                CONST                 DATA           0003:00000038  ! 00000000
                CONST2                DATA           0003:00000094  ! 00000000
                _DATA                 DATA           0003:00004b74  ! 000001e1
/mnt/sda5/.user/root/src/openwatcom-1.9/bld/gui/ui/c/guixscal.c
                _TEXT                 CODE           0002:0005d040  ! 0000014b
                CONST                 DATA           0003:00000038  ! 00000000
                CONST2                DATA           0003:00000094  ! 00000000
                _DATA                 DATA           0003:00004d58  ! 00000000
/mnt/sda5/.user/root/src/openwatcom-1.9/bld/help/c/helpopen.c
                _TEXT                 CODE           0002:0005d190  ! 0000043e
                CONST                 DATA           0003:00000038  ! 00000000
                CONST2                DATA           0003:00000094  ! 00000000
                _DATA                 DATA           0003:00004d58  ! 00000078
                _BSS                  BSS            0003:00009ae0  ! 00000004
/mnt/sda5/.user/root/src/openwatcom-1.9/bld/help/c/help.c
                _TEXT                 CODE           0002:0005d5d0  ! 000021fa
                CONST                 DATA           0003:00000038  ! 00000000
                CONST2                DATA           0003:00000094  ! 00000000
                _DATA                 DATA           0003:00004dd0  ! 000001b8
                _BSS                  BSS            0003:00009ae4  ! 00000175
/mnt/sda5/.user/root/src/openwatcom-1.9/bld/gui/ui/c/guithumb.c
                _TEXT                 CODE           0002:0005f7d0  ! 000000fc
                CONST                 DATA           0003:00000038  ! 00000000
                CONST2                DATA           0003:00000094  ! 00000000
                _DATA                 DATA           0003:00004f88  ! 00000000
/mnt/sda5/.user/root/src/openwatcom-1.9/bld/gui/ui/c/guigscrl.c
                _TEXT                 CODE           0002:0005f8d0  ! 00000099
                CONST                 DATA           0003:00000038  ! 00000000
                CONST2                DATA           0003:00000094  ! 00000000
                _DATA                 DATA           0003:00004f88  ! 00000000
/mnt/sda5/.user/root/src/openwatcom-1.9/bld/ui/os2/c/uikeyb.c
                _TEXT                 CODE           0002:0005f969  ! 000002ae
                CONST                 DATA           0003:00000038  ! 00000000
                CONST2                DATA           0003:00000094  ! 00000000
                _DATA                 DATA           0003:00004f88  ! 00000038
                _BSS                  BSS            0003:00009c5c  ! 0000000e
/mnt/sda5/.user/root/src/openwatcom-1.9/bld/ui/c/uibfill.c
                _TEXT                 CODE           0002:0005fc17  ! 00000037
                CONST                 DATA           0003:00000038  ! 00000000
                CONST2                DATA           0003:00000094  ! 00000000
                _DATA                 DATA           0003:00004fc0  ! 00000000
/mnt/sda5/.user/root/src/openwatcom-1.9/bld/ui/c/uibcopy.c
                _TEXT                 CODE           0002:0005fc4e  ! 00000047
                CONST                 DATA           0003:00000038  ! 00000000
                CONST2                DATA           0003:00000094  ! 00000000
                _DATA                 DATA           0003:00004fc0  ! 00000000
/mnt/sda5/.user/root/src/openwatcom-1.9/bld/ui/c/uirefer.c
                _TEXT                 CODE           0002:0005fc95  ! 00000005
                CONST                 DATA           0003:00000038  ! 00000000
                CONST2                DATA           0003:00000094  ! 00000000
                _DATA                 DATA           0003:00004fc0  ! 00000000
/mnt/sda5/.user/root/src/openwatcom-1.9/bld/ui/c/uiwin.c
                _TEXT                 CODE           0002:0005fc9a  ! 00000182
                CONST                 DATA           0003:00000038  ! 00000000
                CONST2                DATA           0003:00000094  ! 00000000
                _DATA                 DATA           0003:00004fc0  ! 00000000
/mnt/sda5/.user/root/src/openwatcom-1.9/bld/ui/c/uiballoc.c
                _TEXT                 CODE           0002:0005fe1c  ! 0000003f
                CONST                 DATA           0003:00000038  ! 00000000
                CONST2                DATA           0003:00000094  ! 00000000
                _DATA                 DATA           0003:00004fc0  ! 00000000
/mnt/sda5/.user/root/src/openwatcom-1.9/bld/ui/os2/c/uibmous.c
                _TEXT                 CODE           0002:0005fe5b  ! 00000131
                CONST                 DATA           0003:00000038  ! 00000000
                CONST2                DATA           0003:00000094  ! 00000000
                _DATA                 DATA           0003:00004fc0  ! 00000003
                _BSS                  BSS            0003:00009c6c  ! 00000003
/mnt/sda5/.user/root/src/openwatcom-1.9/bld/ui/c/uivscrn.c
                _TEXT                 CODE           0002:0005ff8c  ! 000000af
                CONST                 DATA           0003:00000038  ! 00000000
                CONST2                DATA           0003:00000094  ! 00000000
                _DATA                 DATA           0003:00004fc4  ! 00000000
/mnt/sda5/.user/root/src/openwatcom-1.9/bld/ui/c/uivfill.c
                _TEXT                 CODE           0002:0006003b  ! 00000068
                CONST                 DATA           0003:00000038  ! 00000000
                CONST2                DATA           0003:00000094  ! 00000000
                _DATA                 DATA           0003:00004fc4  ! 00000000
/mnt/sda5/.user/root/src/openwatcom-1.9/bld/ui/c/uivstr.c
                _TEXT                 CODE           0002:000600a3  ! 00000181
                CONST                 DATA           0003:00000038  ! 00000000
                CONST2                DATA           0003:00000094  ! 00000000
                _DATA                 DATA           0003:00004fc4  ! 00000000
/mnt/sda5/.user/root/src/openwatcom-1.9/bld/gui/ui/c/guiximdi.c
                _TEXT                 CODE           0002:00060230  ! 00000076
                CONST                 DATA           0003:00000038  ! 00000000
                CONST2                DATA           0003:00000094  ! 00000000
                _DATA                 DATA           0003:00004fc4  ! 00000000
/mnt/sda5/.user/root/src/openwatcom-1.9/bld/gui/c/guimdi.c
                _TEXT                 CODE           0002:000602b0  ! 00000a15
                CONST                 DATA           0003:00000038  ! 00000000
                CONST2                DATA           0003:00000094  ! 00000000
                _DATA                 DATA           0003:00004fc4  ! 00000048
                _BSS                  BSS            0003:00009c70  ! 000002f4
/mnt/sda5/.user/root/src/openwatcom-1.9/bld/gui/ui/c/guifloat.c
                _TEXT                 CODE           0002:00060cd0  ! 00000449
                CONST                 DATA           0003:00000038  ! 00000000
                CONST2                DATA           0003:00000094  ! 00000000
                _DATA                 DATA           0003:0000500c  ! 0000000c
/mnt/sda5/.user/root/src/openwatcom-1.9/bld/gui/c/guihint.c
                _TEXT                 CODE           0002:00061120  ! 000005e8
                CONST                 DATA           0003:00000038  ! 00000000
                CONST2                DATA           0003:00000094  ! 00000000
                _DATA                 DATA           0003:00005018  ! 00000000
/mnt/sda5/.user/root/src/openwatcom-1.9/bld/gui/ui/c/guisysme.c
                _TEXT                 CODE           0002:00061710  ! 00000224
                CONST                 DATA           0003:00000038  ! 00000000
                CONST2                DATA           0003:00000094  ! 00000000
                _DATA                 DATA           0003:00005018  ! 00000070
/mnt/sda5/.user/root/src/openwatcom-1.9/bld/gui/ui/c/guirmenu.c
                _TEXT                 CODE           0002:00061940  ! 00000611
                CONST                 DATA           0003:00000038  ! 00000000
                CONST2                DATA           0003:00000094  ! 00000000
                _DATA                 DATA           0003:00005088  ! 00000000
/mnt/sda5/.user/root/src/openwatcom-1.9/bld/gui/ui/c/guigadgt.c
                _TEXT                 CODE           0002:00061f60  ! 000004b6
                CONST                 DATA           0003:00000038  ! 00000000
                CONST2                DATA           0003:00000094  ! 00000000
                _DATA                 DATA           0003:00005088  ! 00000004
/mnt/sda5/.user/root/src/openwatcom-1.9/bld/gui/ui/c/guiicon.c
                _TEXT                 CODE           0002:00062420  ! 000000cf
                CONST                 DATA           0003:00000038  ! 00000000
                CONST2                DATA           0003:00000094  ! 00000000
                _DATA                 DATA           0003:0000508c  ! 00000000
/mnt/sda5/.user/root/src/openwatcom-1.9/bld/ui/c/uimget.c
                _TEXT                 CODE           0002:000624ef  ! 00000026
                CONST                 DATA           0003:00000038  ! 00000000
                CONST2                DATA           0003:00000094  ! 00000000
                _DATA                 DATA           0003:0000508c  ! 00000000
/mnt/sda5/.user/root/src/openwatcom-1.9/bld/gui/ui/c/guiuiev.c
                _TEXT                 CODE           0002:00062520  ! 00000001
                CONST                 DATA           0003:00000038  ! 00000000
                CONST2                DATA           0003:00000094  ! 00000000
                _DATA                 DATA           0003:0000508c  ! 00000000
/mnt/sda5/.user/root/src/openwatcom-1.9/bld/gui/c/guiev.c
                _TEXT                 CODE           0002:00062530  ! 00000001
                CONST                 DATA           0003:00000038  ! 00000000
                CONST2                DATA           0003:00000094  ! 00000000
                _DATA                 DATA           0003:0000508c  ! 00000000
/mnt/sda5/.user/root/src/openwatcom-1.9/bld/gui/c/guistr.c
                _TEXT                 CODE           0002:00062540  ! 0000072f
                CONST                 DATA           0003:00000038  ! 00000000
                CONST2                DATA           0003:00000094  ! 00000000
                _DATA                 DATA           0003:0000508c  ! 00000000
                _BSS                  BSS            0003:00009f64  ! 00000080
/mnt/sda5/.user/root/src/openwatcom-1.9/bld/gui/c/guideath.c
                _TEXT                 CODE           0002:00062c70  ! 00000006
                CONST                 DATA           0003:00000038  ! 00000000
                CONST2                DATA           0003:00000094  ! 00000000
                _DATA                 DATA           0003:0000508c  ! 00000000
/mnt/sda5/.user/root/src/openwatcom-1.9/bld/gui/c/guiextnm.c
                _TEXT                 CODE           0002:00062c80  ! 00000064
                CONST                 DATA           0003:00000038  ! 00000000
                CONST2                DATA           0003:00000094  ! 00000000
                _DATA                 DATA           0003:0000508c  ! 00000104
/mnt/sda5/.user/root/src/openwatcom-1.9/bld/gui/c/guidead.c
                _TEXT                 CODE           0002:00062cf0  ! 00000006
                CONST                 DATA           0003:00000038  ! 00000000
                CONST2                DATA           0003:00000094  ! 00000000
                _DATA                 DATA           0003:00005190  ! 00000000
/mnt/sda5/.user/root/src/openwatcom-1.9/bld/gui/ui/c/guixmain.c
                _TEXT                 CODE           0002:00062d00  ! 00000005
                CONST                 DATA           0003:00000038  ! 00000000
                CONST2                DATA           0003:00000094  ! 00000000
                _DATA                 DATA           0003:00005190  ! 00000001
/mnt/sda5/.user/root/src/openwatcom-1.9/bld/gui/c/guifcrck.c
                _TEXT                 CODE           0002:00062d10  ! 00000003
                CONST                 DATA           0003:00000038  ! 00000000
                CONST2                DATA           0003:00000094  ! 00000000
                _DATA                 DATA           0003:00005194  ! 00000000
/mnt/sda5/.user/root/src/openwatcom-1.9/bld/ui/c/uivopen.c
                _TEXT                 CODE           0002:00062d13  ! 000003b5
                CONST                 DATA           0003:00000038  ! 00000000
                CONST2                DATA           0003:00000094  ! 00000000
                _DATA                 DATA           0003:00005194  ! 00000000
/mnt/sda5/.user/root/src/openwatcom-1.9/bld/ui/c/uivhide.c
                _TEXT                 CODE           0002:000630c8  ! 00000046
                CONST                 DATA           0003:00000038  ! 00000000
                CONST2                DATA           0003:00000094  ! 00000000
                _DATA                 DATA           0003:00005194  ! 00000000
/mnt/sda5/.user/root/src/openwatcom-1.9/bld/gui/c/guisetup.c
                _TEXT                 CODE           0002:00063110  ! 00000048
                CONST                 DATA           0003:00000038  ! 00000000
                CONST2                DATA           0003:00000094  ! 00000000
                _DATA                 DATA           0003:00005194  ! 00000000
/mnt/sda5/.user/root/src/openwatcom-1.9/bld/gui/ui/c/guidrawt.c
                _TEXT                 CODE           0002:00063160  ! 00000313
                CONST                 DATA           0003:00000038  ! 00000000
                CONST2                DATA           0003:00000094  ! 00000000
                _DATA                 DATA           0003:00005194  ! 00000000
/mnt/sda5/.user/root/src/openwatcom-1.9/bld/ui/c/uivmove.c
                _TEXT                 CODE           0002:00063473  ! 00000136
                CONST                 DATA           0003:00000038  ! 00000000
                CONST2                DATA           0003:00000094  ! 00000000
                _DATA                 DATA           0003:00005194  ! 00000000
strcspn.c       _TEXT                 CODE           0002:000635b0  ! 00000048
                CONST                 DATA           0003:00000038  ! 00000000
                CONST2                DATA           0003:00000094  ! 00000000
                _DATA                 DATA           0003:00005194  ! 00000000
strnset.c       _TEXT                 CODE           0002:00063600  ! 00000017
                CONST                 DATA           0003:00000038  ! 00000000
                CONST2                DATA           0003:00000094  ! 00000000
                _DATA                 DATA           0003:00005194  ! 00000000
write.c         _TEXT                 CODE           0002:00063620  ! 0000032d
                CONST                 DATA           0003:00000038  ! 00000000
                CONST2                DATA           0003:00000094  ! 00000000
                _DATA                 DATA           0003:00005194  ! 00000000
tell.c          _TEXT                 CODE           0002:00063950  ! 00000011
                CONST                 DATA           0003:00000038  ! 00000000
                CONST2                DATA           0003:00000094  ! 00000000
                _DATA                 DATA           0003:00005194  ! 00000000
loadfind.c      _TEXT                 CODE           0002:00063970  ! 00000119
                CONST                 DATA           0003:00000038  ! 00000000
                CONST2                DATA           0003:00000094  ! 00000000
                _DATA                 DATA           0003:00005194  ! 00000004
loadstr.c       _TEXT                 CODE           0002:00063a90  ! 00000274
                CONST                 DATA           0003:00000038  ! 00000000
                CONST2                DATA           0003:00000094  ! 00000000
                _DATA                 DATA           0003:00005198  ! 00000000
                _BSS                  BSS            0003:00009fe4  ! 00000004
iob.c           _TEXT                 CODE           0002:00063d10  ! 00000000
                CONST                 DATA           0003:00000038  ! 00000000
                CONST2                DATA           0003:00000094  ! 00000000
                _DATA                 DATA           0003:00005198  ! 0000020c
                _BSS                  BSS            0003:00009fe8  ! 00000008
                XIB                   DATA           0003:00005a2c  ! 00000000
                XI                    DATA           0003:00005a32  ! 00000006
                XIE                   DATA           0003:00005a74  ! 00000000
                YIB                   DATA           0003:00005a74  ! 00000000
                YI                    DATA           0003:00005a7a  ! 00000006
                YIE                   DATA           0003:00005a92  ! 00000000
loadres.c       _TEXT                 CODE           0002:00063d10  ! 00000111
                CONST                 DATA           0003:00000038  ! 00000000
                CONST2                DATA           0003:00000094  ! 00000000
                _DATA                 DATA           0003:000053a4  ! 00000000
mbisdbcs.c      _TEXT                 CODE           0002:00063e30  ! 00000000
                CONST                 DATA           0003:00000038  ! 00000000
                CONST2                DATA           0003:00000094  ! 00000000
                _DATA                 DATA           0003:000053a4  ! 00000000
                _BSS                  BSS            0003:00009ff0  ! 00000004
mbislead.c      _TEXT                 CODE           0002:00063e30  ! 00000017
                CONST                 DATA           0003:00000038  ! 00000000
                CONST2                DATA           0003:00000094  ! 00000000
                _DATA                 DATA           0003:000053a4  ! 00000000
                _BSS                  BSS            0003:00009ff4  ! 00000101
                XIB                   DATA           0003:00005a2c  ! 00000000
                XI                    DATA           0003:00005a38  ! 00000006
                XIE                   DATA           0003:00005a74  ! 00000000
nonibm.c        _TEXT                 CODE           0002:00063e50  ! 00000018
                CONST                 DATA           0003:00000038  ! 00000000
                CONST2                DATA           0003:00000094  ! 00000000
                _DATA                 DATA           0003:000053a4  ! 00000004
                XIB                   DATA           0003:00005a2c  ! 00000000
                XI                    DATA           0003:00005a3e  ! 00000006
                XIE                   DATA           0003:00005a74  ! 00000000
/mnt/sda5/.user/root/src/openwatcom-1.9/bld/ui/c/uibox.c
                _TEXT                 CODE           0002:00063e68  ! 0000028c
                CONST                 DATA           0003:00000038  ! 00000000
                CONST2                DATA           0003:00000094  ! 00000000
                _DATA                 DATA           0003:000053a8  ! 00000000
/mnt/sda5/.user/root/src/openwatcom-1.9/bld/ui/c/uibstr.c
                _TEXT                 CODE           0002:000640f4  ! 00000062
                CONST                 DATA           0003:00000038  ! 00000000
                CONST2                DATA           0003:00000094  ! 00000000
                _DATA                 DATA           0003:000053a8  ! 00000000
/mnt/sda5/.user/root/src/openwatcom-1.9/bld/ui/c/uipopup.c
                _TEXT                 CODE           0002:00064156  ! 00000aed
                CONST                 DATA           0003:00000038  ! 00000000
                CONST2                DATA           0003:00000094  ! 00000000
                _DATA                 DATA           0003:000053a8  ! 00000078
/mnt/sda5/.user/root/src/openwatcom-1.9/bld/ui/c/uivutil.c
                _TEXT                 CODE           0002:00064c43  ! 00000052
                CONST                 DATA           0003:00000038  ! 00000000
                CONST2                DATA           0003:00000094  ! 00000000
                _DATA                 DATA           0003:00005420  ! 00000000
/mnt/sda5/.user/root/src/openwatcom-1.9/bld/gui/ui/c/uimenucr.c
                _TEXT                 CODE           0002:00064ca0  ! 00000005
                CONST                 DATA           0003:00000038  ! 00000000
                CONST2                DATA           0003:00000094  ! 00000000
                _DATA                 DATA           0003:00005420  ! 00000000
/mnt/sda5/.user/root/src/openwatcom-1.9/bld/ui/c/uipget.c
                _TEXT                 CODE           0002:00064ca5  ! 00000055
                CONST                 DATA           0003:00000038  ! 00000000
                CONST2                DATA           0003:00000094  ! 00000000
                _DATA                 DATA           0003:00005420  ! 00000000
                _BSS                  BSS            0003:0000a0f8  ! 00000004
/mnt/sda5/.user/root/src/openwatcom-1.9/bld/ui/c/uiprot.c
                _TEXT                 CODE           0002:00064cfa  ! 00000047
                CONST                 DATA           0003:00000038  ! 00000000
                CONST2                DATA           0003:00000094  ! 00000000
                _DATA                 DATA           0003:00005420  ! 00000000
/mnt/sda5/.user/root/src/openwatcom-1.9/bld/ui/c/uiledit.c
                _TEXT                 CODE           0002:00064d41  ! 0000043c
                CONST                 DATA           0003:00000038  ! 00000000
                CONST2                DATA           0003:00000094  ! 00000000
                _DATA                 DATA           0003:00005420  ! 0000001c
/mnt/sda5/.user/root/src/openwatcom-1.9/bld/ui/c/uimisc.c
                _TEXT                 CODE           0002:0006517d  ! 00000186
                CONST                 DATA           0003:00000038  ! 00000000
                CONST2                DATA           0003:00000094  ! 00000000
                _DATA                 DATA           0003:0000543c  ! 00000000
/mnt/sda5/.user/root/src/openwatcom-1.9/bld/ui/c/uilstbox.c
                _TEXT                 CODE           0002:00065303  ! 0000089a
                CONST                 DATA           0003:00000038  ! 00000000
                CONST2                DATA           0003:00000094  ! 00000000
                _DATA                 DATA           0003:0000543c  ! 0000004e
/mnt/sda5/.user/root/src/openwatcom-1.9/bld/ui/c/uihotspt.c
                _TEXT                 CODE           0002:00065b9d  ! 00000557
                CONST                 DATA           0003:00000038  ! 00000000
                CONST2                DATA           0003:00000094  ! 00000000
                _DATA                 DATA           0003:0000548c  ! 00000004
strncat.c       _TEXT                 CODE           0002:00066100  ! 00000039
                CONST                 DATA           0003:00000038  ! 00000000
                CONST2                DATA           0003:00000094  ! 00000000
                _DATA                 DATA           0003:00005490  ! 00000000
/mnt/sda5/.user/root/src/openwatcom-1.9/bld/gui/ui/c/uidchfld.c
                _TEXT                 CODE           0002:00066140  ! 00000005
                CONST                 DATA           0003:00000038  ! 00000000
                CONST2                DATA           0003:00000094  ! 00000000
                _DATA                 DATA           0003:00005490  ! 00000000
/mnt/sda5/.user/root/src/openwatcom-1.9/bld/ui/c/uidevent.c
                _TEXT                 CODE           0002:00066145  ! 00000005
                CONST                 DATA           0003:00000038  ! 00000000
                CONST2                DATA           0003:00000094  ! 00000000
                _DATA                 DATA           0003:00005490  ! 00000000
/mnt/sda5/.user/root/src/openwatcom-1.9/bld/help/c/dialcb.c
                _TEXT                 CODE           0002:00066150  ! 00000008
                CONST                 DATA           0003:00000038  ! 00000000
                CONST2                DATA           0003:00000094  ! 00000000
                _DATA                 DATA           0003:00005490  ! 00000000
strncmp.c       _TEXT                 CODE           0002:00066160  ! 00000029
                CONST                 DATA           0003:00000038  ! 00000000
                CONST2                DATA           0003:00000094  ! 00000000
                _DATA                 DATA           0003:00005490  ! 00000000
/mnt/sda5/.user/root/src/openwatcom-1.9/bld/ui/c/uiarea.c
                _TEXT                 CODE           0002:00066189  ! 000001b4
                CONST                 DATA           0003:00000038  ! 00000000
                CONST2                DATA           0003:00000094  ! 00000000
                _DATA                 DATA           0003:00005490  ! 00000000
/mnt/sda5/.user/root/src/openwatcom-1.9/bld/gui/ui/c/guimapky.c
                _TEXT                 CODE           0002:00066340  ! 0000050b
                CONST                 DATA           0003:00000038  ! 00000000
                CONST2                DATA           0003:00000094  ! 00000000
                _DATA                 DATA           0003:00005490  ! 00000000
itoa.c          _TEXT                 CODE           0002:00066850  ! 00000074
                CONST                 DATA           0003:00000038  ! 00000000
                CONST2                DATA           0003:00000094  ! 00000000
                _DATA                 DATA           0003:00005490  ! 00000000
/mnt/sda5/.user/root/src/openwatcom-1.9/bld/gui/ui/c/guismove.c
                _TEXT                 CODE           0002:000668d0  ! 000004d6
                CONST                 DATA           0003:00000038  ! 00000000
                CONST2                DATA           0003:00000094  ! 00000000
                _DATA                 DATA           0003:00005490  ! 00000014
                _BSS                  BSS            0003:0000a0fc  ! 00000001
/mnt/sda5/.user/root/src/openwatcom-1.9/bld/gui/ui/c/guikey.c
                _TEXT                 CODE           0002:00066db0  ! 0000008f
                CONST                 DATA           0003:00000038  ! 00000000
                CONST2                DATA           0003:00000094  ! 00000000
                _DATA                 DATA           0003:000054a4  ! 00000000
/mnt/sda5/.user/root/src/openwatcom-1.9/bld/gui/ui/c/guixhook.c
                _TEXT                 CODE           0002:00066e40  ! 00000023
                CONST                 DATA           0003:00000038  ! 00000000
                CONST2                DATA           0003:00000094  ! 00000000
                _DATA                 DATA           0003:000054a4  ! 00000004
sdrveos2.c      _TEXT                 CODE           0002:00066e70  ! 0000004d
                CONST                 DATA           0003:00000038  ! 00000000
                CONST2                DATA           0003:00000094  ! 00000000
                _DATA                 DATA           0003:000054a8  ! 00000000
chdiros2.c      _TEXT                 CODE           0002:00066ec0  ! 0000001a
                CONST                 DATA           0003:00000038  ! 00000000
                CONST2                DATA           0003:00000094  ! 00000000
                _DATA                 DATA           0003:000054a8  ! 00000000
_istrcc_.asm    _TEXT                 CODE           0002:00066edc  ! 00000005
                _DATA                 DATA           0003:000054a8  ! 00000000
strtok.c        _TEXT                 CODE           0002:00066ef0  ! 000000be
                CONST                 DATA           0003:00000038  ! 00000000
                CONST2                DATA           0003:00000094  ! 00000000
                _DATA                 DATA           0003:000054a8  ! 00000000
gtcwdos2.c      _TEXT                 CODE           0002:00066fb0  ! 000000bc
                CONST                 DATA           0003:00000038  ! 00000000
                CONST2                DATA           0003:00000094  ! 00000000
                _DATA                 DATA           0003:000054a8  ! 00000000
diros2.c        _TEXT                 CODE           0002:00067070  ! 00000457
                CONST                 DATA           0003:00000038  ! 00000000
                CONST2                DATA           0003:00000094  ! 00000000
                _DATA                 DATA           0003:000054a8  ! 00000000
statos2.c       _TEXT                 CODE           0002:000674c7  ! 000002e0
                CONST                 DATA           0003:00000038  ! 00000000
                CONST2                DATA           0003:00000094  ! 00000000
                _DATA                 DATA           0003:000054a8  ! 00000000
/mnt/sda5/.user/root/src/openwatcom-1.9/bld/gui/ui/c/helpmem.c
                _TEXT                 CODE           0002:000677b0  ! 00000025
                CONST                 DATA           0003:00000038  ! 00000000
                CONST2                DATA           0003:00000094  ! 00000000
                _DATA                 DATA           0003:000054a8  ! 00000000
/mnt/sda5/.user/root/src/openwatcom-1.9/bld/help/c/helpio.c
                _TEXT                 CODE           0002:000677e0  ! 00000105
                CONST                 DATA           0003:00000038  ! 00000000
                CONST2                DATA           0003:00000094  ! 00000000
                _DATA                 DATA           0003:000054a8  ! 0000000c
splitpat.c      _TEXT                 CODE           0002:000678f0  ! 0000010b
                CONST                 DATA           0003:00000038  ! 00000000
                CONST2                DATA           0003:00000094  ! 00000000
                _DATA                 DATA           0003:000054b4  ! 00000000
/mnt/sda5/.user/root/src/openwatcom-1.9/bld/help/c/search.c
                _TEXT                 CODE           0002:00067a00  ! 000006a0
                CONST                 DATA           0003:00000038  ! 00000000
                CONST2                DATA           0003:00000094  ! 00000000
                _DATA                 DATA           0003:000054b4  ! 00000004
                _BSS                  BSS            0003:0000a100  ! 0000040c
/mnt/sda5/.user/root/src/openwatcom-1.9/bld/ui/c/uivattr.c
                _TEXT                 CODE           0002:000680a0  ! 0000008a
                CONST                 DATA           0003:00000038  ! 00000000
                CONST2                DATA           0003:00000094  ! 00000000
                _DATA                 DATA           0003:000054b8  ! 00000000
/mnt/sda5/.user/root/src/openwatcom-1.9/bld/ui/c/uitab.c
                _TEXT                 CODE           0002:0006812a  ! 00000359
                CONST                 DATA           0003:00000038  ! 00000000
                CONST2                DATA           0003:00000094  ! 00000000
                _DATA                 DATA           0003:000054b8  ! 00000000
/mnt/sda5/.user/root/src/openwatcom-1.9/bld/help/c/dlg.c
                _TEXT                 CODE           0002:00068490  ! 00000390
                CONST                 DATA           0003:00000038  ! 00000000
                CONST2                DATA           0003:00000094  ! 00000000
                _DATA                 DATA           0003:000054b8  ! 00000098
                _BSS                  BSS            0003:0000a50c  ! 00000014
/mnt/sda5/.user/root/src/openwatcom-1.9/bld/help/c/helpscan.c
                _TEXT                 CODE           0002:00068820  ! 00000367
                CONST                 DATA           0003:00000038  ! 00000000
                CONST2                DATA           0003:00000094  ! 00000000
                _DATA                 DATA           0003:00005550  ! 00000011
atoi.c          _TEXT                 CODE           0002:00068b90  ! 00000049
                CONST                 DATA           0003:00000038  ! 00000000
                CONST2                DATA           0003:00000094  ! 00000000
                _DATA                 DATA           0003:00005564  ! 00000000
/mnt/sda5/.user/root/src/openwatcom-1.9/bld/help/c/vvscroll.c
                _TEXT                 CODE           0002:00068be0  ! 000000ec
                CONST                 DATA           0003:00000038  ! 00000000
                CONST2                DATA           0003:00000094  ! 00000000
                _DATA                 DATA           0003:00005564  ! 00000000
/mnt/sda5/.user/root/src/openwatcom-1.9/bld/help/c/msgbox.c
                _TEXT                 CODE           0002:00068cd0  ! 0000006b
                CONST                 DATA           0003:00000038  ! 00000000
                CONST2                DATA           0003:00000094  ! 00000000
                _DATA                 DATA           0003:00005564  ! 00000054
                _BSS                  BSS            0003:0000a520  ! 00000004
/mnt/sda5/.user/root/src/openwatcom-1.9/bld/ui/os2/c/uisnow.c
                _TEXT                 CODE           0002:00068d3b  ! 00000012
                CONST                 DATA           0003:00000038  ! 00000000
                CONST2                DATA           0003:00000094  ! 00000000
                _DATA                 DATA           0003:000055b8  ! 00000000
/mnt/sda5/.user/root/src/openwatcom-1.9/bld/ui/c/uifar.c
                _TEXT                 CODE           0002:00068d4d  ! 000000b6
                CONST                 DATA           0003:00000038  ! 00000000
                CONST2                DATA           0003:00000094  ! 00000000
                _DATA                 DATA           0003:000055b8  ! 00000000
/mnt/sda5/.user/root/src/openwatcom-1.9/bld/ui/c/uirfrsh.c
                _TEXT                 CODE           0002:00068e03  ! 00000126
                CONST                 DATA           0003:00000038  ! 00000000
                CONST2                DATA           0003:00000094  ! 00000000
                _DATA                 DATA           0003:000055b8  ! 00000000
/mnt/sda5/.user/root/src/openwatcom-1.9/bld/ui/c/uimem.c
                _TEXT                 CODE           0002:00068f29  ! 0000000a
                CONST                 DATA           0003:00000038  ! 00000000
                CONST2                DATA           0003:00000094  ! 00000000
                _DATA                 DATA           0003:000055b8  ! 00000000
/mnt/sda5/.user/root/src/openwatcom-1.9/bld/ui/c/uicheck.c
                _TEXT                 CODE           0002:00068f33  ! 000000a7
                CONST                 DATA           0003:00000038  ! 00000000
                CONST2                DATA           0003:00000094  ! 00000000
                _DATA                 DATA           0003:000055b8  ! 00000000
/mnt/sda5/.user/root/src/openwatcom-1.9/bld/gui/ui/c/guienum.c
                _TEXT                 CODE           0002:00068fe0  ! 00000021
                CONST                 DATA           0003:00000038  ! 00000000
                CONST2                DATA           0003:00000094  ! 00000000
                _DATA                 DATA           0003:000055b8  ! 00000000
resmenu.c       _TEXT                 CODE           0002:00069010  ! 00000594
                CONST                 DATA           0003:00000038  ! 00000000
                CONST2                DATA           0003:00000094  ! 00000000
                _DATA                 DATA           0003:000055b8  ! 00000000
cstart          _TEXT                 CODE           0002:000695a4  ! 0000005c
                _DATA                 DATA           0003:000055b8  ! 00000000
argcv.c         _TEXT                 CODE           0002:00069600  ! 00000000
                CONST                 DATA           0003:00000038  ! 00000000
                CONST2                DATA           0003:00000094  ! 00000000
                _DATA                 DATA           0003:000055b8  ! 00000000
                _BSS                  BSS            0003:0000a524  ! 00000010
                XIB                   DATA           0003:00005a2c  ! 00000000
                XI                    DATA           0003:00005a44  ! 00000006
                XIE                   DATA           0003:00005a74  ! 00000000
                YIB                   DATA           0003:00005a74  ! 00000000
                YI                    DATA           0003:00005a80  ! 00000006
                YIE                   DATA           0003:00005a92  ! 00000000
/mnt/sda5/.user/root/src/openwatcom-1.9/bld/ui/c/uibfake.c
                _TEXT                 CODE           0002:00069600  ! 0000002c
                CONST                 DATA           0003:00000038  ! 00000000
                CONST2                DATA           0003:00000094  ! 00000000
                _DATA                 DATA           0003:000055b8  ! 00000000
setbits.c       _TEXT                 CODE           0002:00069630  ! 00000037
                CONST                 DATA           0003:00000038  ! 00000000
                CONST2                DATA           0003:00000094  ! 00000000
                _DATA                 DATA           0003:000055b8  ! 00000000
bits.c          _TEXT                 CODE           0002:00069670  ! 00000008
                CONST                 DATA           0003:00000038  ! 00000000
                CONST2                DATA           0003:00000094  ! 00000000
                _DATA                 DATA           0003:000055b8  ! 00000000
__lseek.c       _TEXT                 CODE           0002:00069680  ! 00000028
                CONST                 DATA           0003:00000038  ! 00000000
                CONST2                DATA           0003:00000094  ! 00000000
                _DATA                 DATA           0003:000055b8  ! 00000000
dosret.c        _TEXT                 CODE           0002:000696b0  ! 0000005c
                CONST                 DATA           0003:00000038  ! 00000000
                CONST2                DATA           0003:00000094  ! 00000000
                _DATA                 DATA           0003:000055b8  ! 00000101
seterrno.c      _TEXT                 CODE           0002:0006970c  ! 0000004b
                CONST                 DATA           0003:00000038  ! 00000000
                CONST2                DATA           0003:00000094  ! 00000000
                _DATA                 DATA           0003:000056bc  ! 00000000
iomode.c        _TEXT                 CODE           0002:00069760  ! 0000003a
                CONST                 DATA           0003:00000038  ! 00000000
                CONST2                DATA           0003:00000094  ! 00000000
                _DATA                 DATA           0003:000056bc  ! 00000058
maino32.c       _TEXT                 CODE           0002:0006979a  ! 00000122
                CONST                 DATA           0003:00000038  ! 00000000
                CONST2                DATA           0003:00000094  ! 00000000
                _DATA                 DATA           0003:00005714  ! 00000040
                _BSS                  BSS            0003:0000a534  ! 00000106
stk             _TEXT                 CODE           0002:000698bc  ! 00000060
                _DATA                 DATA           0003:00005754  ! 00000010
                XIB                   DATA           0003:00005a2c  ! 00000000
                XI                    DATA           0003:00005a4a  ! 00000006
                XIE                   DATA           0003:00005a74  ! 00000000
                YIB                   DATA           0003:00005a74  ! 00000000
                YI                    DATA           0003:00005a86  ! 00000000
                YIE                   DATA           0003:00005a92  ! 00000000
wriidfn.c       _TEXT                 CODE           0002:00069920  ! 00000008
                CONST                 DATA           0003:00000038  ! 00000000
                CONST2                DATA           0003:00000094  ! 00000000
                _DATA                 DATA           0003:00005764  ! 00000000
wrfindrs.c      _TEXT                 CODE           0002:00069930  ! 0000010f
                CONST                 DATA           0003:00000038  ! 00000000
                CONST2                DATA           0003:00000094  ! 00000000
                _DATA                 DATA           0003:00005764  ! 00000000
wrgetli.c       _TEXT                 CODE           0002:00069a40  ! 00000025
                CONST                 DATA           0003:00000038  ! 00000000
                CONST2                DATA           0003:00000094  ! 00000000
                _DATA                 DATA           0003:00005764  ! 00000000
ropenfro.c      _TEXT                 CODE           0002:00069a70  ! 00000041
                CONST                 DATA           0003:00000038  ! 00000000
                CONST2                DATA           0003:00000094  ! 00000000
                _DATA                 DATA           0003:00005764  ! 00000000
wrinitdi.c      _TEXT                 CODE           0002:00069ac0  ! 0000003e
                CONST                 DATA           0003:00000038  ! 00000000
                CONST2                DATA           0003:00000094  ! 00000000
                _DATA                 DATA           0003:00005764  ! 00000000
wrreaddi.c      _TEXT                 CODE           0002:00069b00  ! 000007f6
                CONST                 DATA           0003:00000038  ! 00000000
                CONST2                DATA           0003:00000094  ! 00000000
                _DATA                 DATA           0003:00005764  ! 00000000
wrfreedi.c      _TEXT                 CODE           0002:0006a300  ! 000000b4
                CONST                 DATA           0003:00000038  ! 00000000
                CONST2                DATA           0003:00000094  ! 00000000
                _DATA                 DATA           0003:00005764  ! 00000000
rclosef.c       _TEXT                 CODE           0002:0006a3c0  ! 00000020
                CONST                 DATA           0003:00000038  ! 00000000
                CONST2                DATA           0003:00000094  ! 00000000
                _DATA                 DATA           0003:00005764  ! 00000000
initfile.c      _TEXT                 CODE           0002:0006a3e0  ! 000000c4
                CONST                 DATA           0003:00000038  ! 00000000
                CONST2                DATA           0003:00000094  ! 00000000
                _DATA                 DATA           0003:00005764  ! 00000000
ioexit.c        _TEXT                 CODE           0002:0006a4b0  ! 0000007c
                CONST                 DATA           0003:00000038  ! 00000000
                CONST2                DATA           0003:00000094  ! 00000000
                _DATA                 DATA           0003:00005764  ! 00000000
mbinit.c        _TEXT                 CODE           0002:0006a52c  ! 00000132
                CONST                 DATA           0003:00000038  ! 00000000
                CONST2                DATA           0003:00000094  ! 00000000
                _DATA                 DATA           0003:00005764  ! 00000004
/mnt/sda5/.user/root/src/openwatcom-1.9/bld/ui/c/uibpix.c
                _TEXT                 CODE           0002:0006a65e  ! 0000003a
                CONST                 DATA           0003:00000038  ! 00000000
                CONST2                DATA           0003:00000094  ! 00000000
                _DATA                 DATA           0003:00005768  ! 00000000
/mnt/sda5/.user/root/src/openwatcom-1.9/bld/ui/c/uivline.c
                _TEXT                 CODE           0002:0006a698  ! 0000032e
                CONST                 DATA           0003:00000038  ! 00000000
                CONST2                DATA           0003:00000094  ! 00000000
                _DATA                 DATA           0003:00005768  ! 0000002c
alphabet.c      _TEXT                 CODE           0002:0006a9d0  ! 00000000
                CONST                 DATA           0003:00000038  ! 00000025
                CONST2                DATA           0003:00000094  ! 00000000
                _DATA                 DATA           0003:00005794  ! 00000000
/mnt/sda5/.user/root/src/openwatcom-1.9/bld/ui/c/uiband.c
                _TEXT                 CODE           0002:0006a9d0  ! 000000b9
                CONST                 DATA           0003:00000060  ! 00000000
                CONST2                DATA           0003:00000094  ! 00000000
                _DATA                 DATA           0003:00005794  ! 00000000
                _BSS                  BSS            0003:0000a63c  ! 00000029
mbsnextc.c      _TEXT                 CODE           0002:0006aa90  ! 00000037
                CONST                 DATA           0003:00000060  ! 00000000
                CONST2                DATA           0003:00000094  ! 00000000
                _DATA                 DATA           0003:00005794  ! 00000000
mbsinc.c        _TEXT                 CODE           0002:0006aad0  ! 0000002d
                CONST                 DATA           0003:00000060  ! 00000000
                CONST2                DATA           0003:00000094  ! 00000000
                _DATA                 DATA           0003:00005794  ! 00000000
strdup.c        _TEXT                 CODE           0002:0006ab00  ! 00000040
                CONST                 DATA           0003:00000060  ! 00000000
                CONST2                DATA           0003:00000094  ! 00000000
                _DATA                 DATA           0003:00005794  ! 00000000
mbschr.c        _TEXT                 CODE           0002:0006ab40  ! 0000005f
                CONST                 DATA           0003:00000060  ! 00000000
                CONST2                DATA           0003:00000094  ! 00000000
                _DATA                 DATA           0003:00005794  ! 00000000
mbscmp.c        _TEXT                 CODE           0002:0006aba0  ! 0000006b
                CONST                 DATA           0003:00000060  ! 00000000
                CONST2                DATA           0003:00000094  ! 00000000
                _DATA                 DATA           0003:00005794  ! 00000000
mbspbrk.c       _TEXT                 CODE           0002:0006ac10  ! 00000048
                CONST                 DATA           0003:00000060  ! 00000000
                CONST2                DATA           0003:00000094  ! 00000000
                _DATA                 DATA           0003:00005794  ! 00000000
fullpath.c      _TEXT                 CODE           0002:0006ac60  ! 000001b1
                CONST                 DATA           0003:00000060  ! 00000000
                CONST2                DATA           0003:00000094  ! 00000000
                _DATA                 DATA           0003:00005794  ! 00000000
fstatos2.c      _TEXT                 CODE           0002:0006ae20  ! 000001a7
                CONST                 DATA           0003:00000060  ! 00000000
                CONST2                DATA           0003:00000094  ! 00000000
                _DATA                 DATA           0003:00005794  ! 00000000
errno.c         _TEXT                 CODE           0002:0006afd0  ! 0000001a
                CONST                 DATA           0003:00000060  ! 00000000
                CONST2                DATA           0003:00000094  ! 00000000
                _DATA                 DATA           0003:00005794  ! 00000000
d2ttime.c       _TEXT                 CODE           0002:0006aff0  ! 00000079
                CONST                 DATA           0003:00000060  ! 00000000
                CONST2                DATA           0003:00000094  ! 00000000
                _DATA                 DATA           0003:00005794  ! 00000000
filelen.c       _TEXT                 CODE           0002:0006b070  ! 0000005d
                CONST                 DATA           0003:00000060  ! 00000000
                CONST2                DATA           0003:00000094  ! 00000000
                _DATA                 DATA           0003:00005794  ! 00000000
accssos2.c      _TEXT                 CODE           0002:0006b0d0  ! 00000052
                CONST                 DATA           0003:00000060  ! 00000000
                CONST2                DATA           0003:00000094  ! 00000000
                _DATA                 DATA           0003:00005794  ! 00000000
mbsnccnt.c      _TEXT                 CODE           0002:0006b130  ! 0000002c
                CONST                 DATA           0003:00000060  ! 00000000
                CONST2                DATA           0003:00000094  ! 00000000
                _DATA                 DATA           0003:00005794  ! 00000000
mbsncpy.c       _TEXT                 CODE           0002:0006b160  ! 00000020
                CONST                 DATA           0003:00000060  ! 00000000
                CONST2                DATA           0003:00000094  ! 00000000
                _DATA                 DATA           0003:00005794  ! 00000000
mbsnbcnt.c      _TEXT                 CODE           0002:0006b180  ! 00000061
                CONST                 DATA           0003:00000060  ! 00000000
                CONST2                DATA           0003:00000094  ! 00000000
                _DATA                 DATA           0003:00005794  ! 00000000
/mnt/sda5/.user/root/src/openwatcom-1.9/bld/ui/c/uibattr.c
                _TEXT                 CODE           0002:0006b1e1  ! 00000097
                CONST                 DATA           0003:00000060  ! 00000000
                CONST2                DATA           0003:00000094  ! 00000000
                _DATA                 DATA           0003:00005794  ! 00000000
fmemmove.c      _TEXT                 CODE           0002:0006b280  ! 00000090
                CONST                 DATA           0003:00000060  ! 00000000
                CONST2                DATA           0003:00000094  ! 00000000
                _DATA                 DATA           0003:00005794  ! 00000000
/mnt/sda5/.user/root/src/openwatcom-1.9/bld/ui/c/uibarf.c
                _TEXT                 CODE           0002:0006b310  ! 00000001
                CONST                 DATA           0003:00000060  ! 00000000
                CONST2                DATA           0003:00000094  ! 00000000
                _DATA                 DATA           0003:00005794  ! 00000000
wrerror.c       _TEXT                 CODE           0002:0006b320  ! 00000001
                CONST                 DATA           0003:00000060  ! 00000000
                CONST2                DATA           0003:00000094  ! 00000000
                _DATA                 DATA           0003:00005794  ! 00000000
write.c         _TEXT                 CODE           0002:0006b330  ! 0000063e
                CONST                 DATA           0003:00000060  ! 00000000
                CONST2                DATA           0003:00000094  ! 00000000
                _DATA                 DATA           0003:00005794  ! 00000004
                _BSS                  BSS            0003:0000a668  ! 00000200
resseek.c       _TEXT                 CODE           0002:0006b970  ! 00000080
                CONST                 DATA           0003:00000060  ! 00000000
                CONST2                DATA           0003:00000094  ! 00000000
                _DATA                 DATA           0003:00005798  ! 00000000
rduint32.c      _TEXT                 CODE           0002:0006b9f0  ! 0000004b
                CONST                 DATA           0003:00000060  ! 00000000
                CONST2                DATA           0003:00000094  ! 00000000
                _DATA                 DATA           0003:00005798  ! 00000000
rduint16.c      _TEXT                 CODE           0002:0006ba40  ! 0000004b
                CONST                 DATA           0003:00000060  ! 00000000
                CONST2                DATA           0003:00000094  ! 00000000
                _DATA                 DATA           0003:00005798  ! 00000000
rrdstr.c        _TEXT                 CODE           0002:0006ba90  ! 000000e3
                CONST                 DATA           0003:00000060  ! 00000000
                CONST2                DATA           0003:00000094  ! 00000000
                _DATA                 DATA           0003:00005798  ! 00000000
main2o32.c      _TEXT                 CODE           0002:0006bb80  ! 00000064
                CONST                 DATA           0003:00000060  ! 00000000
                CONST2                DATA           0003:00000094  ! 00000000
                _DATA                 DATA           0003:00005798  ! 00000000
segdefns        _TEXT                 CODE           0002:0006bbe4  ! 00000000
                _DATA                 DATA           0003:00005798  ! 00000000
                BEGTEXT               CODE           0002:00000000  ! 00000007
                _NULL                 BEGDATA        0003:00000000  ! 00000004
                _AFTERNULL            BEGDATA        0003:00000004  ! 00000000
                CONST                 DATA           0003:00000060  ! 00000000
                TIB                   DATA           0003:00005a92  ! 00000000
                TI                    DATA           0003:00005a92  ! 00000000
                TIE                   DATA           0003:00005a92  ! 00000000
                XIB                   DATA           0003:00005a2c  ! 00000000
                XI                    DATA           0003:00005a50  ! 00000000
                XIE                   DATA           0003:00005a74  ! 00000000
                YIB                   DATA           0003:00005a74  ! 00000000
                YI                    DATA           0003:00005a86  ! 00000000
                YIE                   DATA           0003:00005a92  ! 00000000
                DATA                  DATA           0003:00005a92  ! 00000000
                _BSS                  BSS            0003:0000a868  ! 00000000
                STACK                 STACK          0003:0000a8a0  ! 00010000
initargv.c      _TEXT                 CODE           0002:0006bbf0  ! 000001fe
                CONST                 DATA           0003:00000060  ! 00000000
                CONST2                DATA           0003:00000094  ! 00000000
                _DATA                 DATA           0003:00005798  ! 00000000
                _BSS                  BSS            0003:0000a868  ! 00000004
crwdata         _TEXT                 CODE           0002:0006bdee  ! 00000001
                _DATA                 DATA           0003:00005798  ! 0000004a
cinit.c         _TEXT                 CODE           0002:0006bdf0  ! 0000000b
                CONST                 DATA           0003:00000060  ! 00000000
                CONST2                DATA           0003:00000094  ! 00000000
                _DATA                 DATA           0003:000057e4  ! 00000000
                _BSS                  BSS            0003:0000a86c  ! 00000004
initrtns.c      _TEXT                 CODE           0002:0006be00  ! 000000b3
                CONST                 DATA           0003:00000060  ! 00000000
                CONST2                DATA           0003:00000094  ! 00000000
                _DATA                 DATA           0003:000057e4  ! 00000000
xmsgo32.c       _TEXT                 CODE           0002:0006bec0  ! 00000070
                CONST                 DATA           0003:00000060  ! 00000000
                CONST2                DATA           0003:00000094  ! 00000000
                _DATA                 DATA           0003:000057e4  ! 00000000
wridcmp.c       _TEXT                 CODE           0002:0006bf30  ! 00000031
                CONST                 DATA           0003:00000060  ! 00000000
                CONST2                DATA           0003:00000094  ! 00000000
                _DATA                 DATA           0003:000057e4  ! 00000000
setmd.c         _TEXT                 CODE           0002:0006bf70  ! 000000d9
                CONST                 DATA           0003:00000060  ! 00000000
                CONST2                DATA           0003:00000094  ! 00000000
                _DATA                 DATA           0003:000057e4  ! 00000000
ralliae.c       _TEXT                 CODE           0002:0006c050  ! 00000029
                CONST                 DATA           0003:00000060  ! 00000000
                CONST2                DATA           0003:00000094  ! 00000000
                _DATA                 DATA           0003:000057e4  ! 00000000
wrrfrr.c        _TEXT                 CODE           0002:0006c080  ! 000000f9
                CONST                 DATA           0003:00000060  ! 00000000
                CONST2                DATA           0003:00000094  ! 00000000
                _DATA                 DATA           0003:000057e4  ! 00000000
wridexby.c      _TEXT                 CODE           0002:0006c180  ! 0000000e
                CONST                 DATA           0003:00000060  ! 00000000
                CONST2                DATA           0003:00000094  ! 00000000
                _DATA                 DATA           0003:000057e4  ! 00000000
wrrewrid.c      _TEXT                 CODE           0002:0006c190  ! 0000005a
                CONST                 DATA           0003:00000060  ! 00000000
                CONST2                DATA           0003:00000094  ! 00000000
                _DATA                 DATA           0003:000057e4  ! 00000000
wrrftr.c        _TEXT                 CODE           0002:0006c1f0  ! 000000be
                CONST                 DATA           0003:00000060  ! 00000000
                CONST2                DATA           0003:00000094  ! 00000000
                _DATA                 DATA           0003:000057e4  ! 00000000
wrrhr.c         _TEXT                 CODE           0002:0006c2b0  ! 000000b6
                CONST                 DATA           0003:00000060  ! 00000000
                CONST2                DATA           0003:00000094  ! 00000000
                _DATA                 DATA           0003:000057e4  ! 00000000
mrrdrh.c        _TEXT                 CODE           0002:0006c370  ! 0000020c
                CONST                 DATA           0003:00000060  ! 00000000
                CONST2                DATA           0003:00000094  ! 00000000
                _DATA                 DATA           0003:000057e4  ! 00000000
wrfree.c        _TEXT                 CODE           0002:0006c580  ! 00000033
                CONST                 DATA           0003:00000060  ! 00000000
                CONST2                DATA           0003:00000094  ! 00000000
                _DATA                 DATA           0003:000057e4  ! 00000000
wridfnoo.c      _TEXT                 CODE           0002:0006c5c0  ! 00000012
                CONST                 DATA           0003:00000060  ! 00000000
                CONST2                DATA           0003:00000094  ! 00000000
                _DATA                 DATA           0003:000057e4  ! 00000000
wraddres.c      _TEXT                 CODE           0002:0006c5e0  ! 000002d0
                CONST                 DATA           0003:00000060  ! 00000000
                CONST2                DATA           0003:00000094  ! 00000000
                _DATA                 DATA           0003:000057e4  ! 00000000
wriswrf.c       _TEXT                 CODE           0002:0006c8b0  ! 000000a6
                CONST                 DATA           0003:00000060  ! 00000000
                CONST2                DATA           0003:00000094  ! 00000000
                _DATA                 DATA           0003:000057e4  ! 00000000
nmalloc.c       _TEXT                 CODE           0002:0006c960  ! 000000fa
                CONST                 DATA           0003:00000060  ! 00000000
                CONST2                DATA           0003:00000094  ! 00000000
                _DATA                 DATA           0003:000057e4  ! 0000000c
fclose.c        _TEXT                 CODE           0002:0006ca60  ! 00000101
                CONST                 DATA           0003:00000060  ! 00000000
                CONST2                DATA           0003:00000094  ! 00000000
                _DATA                 DATA           0003:000057f0  ! 00000000
                _BSS                  BSS            0003:0000a870  ! 00000004
freefp.c        _TEXT                 CODE           0002:0006cb70  ! 0000007e
                CONST                 DATA           0003:00000060  ! 00000000
                CONST2                DATA           0003:00000094  ! 00000000
                _DATA                 DATA           0003:000057f0  ! 00000000
/mnt/sda5/.user/root/src/openwatcom-1.9/bld/ui/c/uipad.c
                _TEXT                 CODE           0002:0006cbee  ! 0000001c
                CONST                 DATA           0003:00000060  ! 00000000
                CONST2                DATA           0003:00000094  ! 00000000
                _DATA                 DATA           0003:000057f0  ! 00000000
/mnt/sda5/.user/root/src/openwatcom-1.9/bld/ui/c/uivedit.c
                _TEXT                 CODE           0002:0006cc0a  ! 00000428
                CONST                 DATA           0003:00000060  ! 00000000
                CONST2                DATA           0003:00000094  ! 00000000
                _DATA                 DATA           0003:000057f0  ! 00000000
mbconv.c        _TEXT                 CODE           0002:0006d040  ! 0000001a
                CONST                 DATA           0003:00000060  ! 00000000
                CONST2                DATA           0003:00000094  ! 00000000
                _DATA                 DATA           0003:000057f0  ! 00000000
mbclen.c        _TEXT                 CODE           0002:0006d060  ! 0000002b
                CONST                 DATA           0003:00000060  ! 00000000
                CONST2                DATA           0003:00000094  ! 00000000
                _DATA                 DATA           0003:000057f0  ! 00000000
mbterm.c        _TEXT                 CODE           0002:0006d090  ! 0000003c
                CONST                 DATA           0003:00000060  ! 00000000
                CONST2                DATA           0003:00000094  ! 00000000
                _DATA                 DATA           0003:000057f0  ! 00000000
mbccmp.c        _TEXT                 CODE           0002:0006d0d0  ! 0000003b
                CONST                 DATA           0003:00000060  ! 00000000
                CONST2                DATA           0003:00000094  ! 00000000
                _DATA                 DATA           0003:000057f0  ! 00000000
mktime.c        _TEXT                 CODE           0002:0006d110  ! 00000084
                CONST                 DATA           0003:00000060  ! 00000000
                CONST2                DATA           0003:00000094  ! 00000000
                _DATA                 DATA           0003:000057f0  ! 00000000
mbsnbcpy.c      _TEXT                 CODE           0002:0006d1a0  ! 00000060
                CONST                 DATA           0003:00000060  ! 00000000
                CONST2                DATA           0003:00000094  ! 00000000
                _DATA                 DATA           0003:000057f0  ! 00000000
varstr.c        _TEXT                 CODE           0002:0006d200  ! 0000011b
                CONST                 DATA           0003:00000060  ! 00000000
                CONST2                DATA           0003:00000094  ! 00000000
                _DATA                 DATA           0003:000057f0  ! 00000000
rduint8.c       _TEXT                 CODE           0002:0006d320  ! 0000004b
                CONST                 DATA           0003:00000060  ! 00000000
                CONST2                DATA           0003:00000094  ! 00000000
                _DATA                 DATA           0003:000057f0  ! 00000000
mthrdini.c      _TEXT                 CODE           0002:0006d370  ! 0000001e
                CONST                 DATA           0003:00000060  ! 00000000
                CONST2                DATA           0003:00000094  ! 00000000
                _DATA                 DATA           0003:000057f0  ! 00000004
cmain386.c      _TEXT                 CODE           0002:0006d390  ! 0000003e
                CONST                 DATA           0003:00000060  ! 00000000
                CONST2                DATA           0003:00000094  ! 00000000
                _DATA                 DATA           0003:000057f4  ! 00000000
dosseg          _TEXT                 CODE           0002:0006d3d0  ! 00000000
                _DATA                 DATA           0003:000057f4  ! 00000000
histsplt.c      _TEXT                 CODE           0002:0006d3d0  ! 00000000
                CONST                 DATA           0003:00000060  ! 00000000
                CONST2                DATA           0003:00000094  ! 00000000
                _DATA                 DATA           0003:000057f4  ! 00000000
                _BSS                  BSS            0003:0000a874  ! 00000004
___argc.c       _TEXT                 CODE           0002:0006d3d0  ! 00000000
                CONST                 DATA           0003:00000060  ! 00000000
                CONST2                DATA           0003:00000094  ! 00000000
                _DATA                 DATA           0003:000057f4  ! 00000000
                _BSS                  BSS            0003:0000a878  ! 00000008
amblksiz.c      _TEXT                 CODE           0002:0006d3d0  ! 00000000
                CONST                 DATA           0003:00000060  ! 00000000
                CONST2                DATA           0003:00000094  ! 00000000
                _DATA                 DATA           0003:000057f4  ! 00000004
enterdb.c       _TEXT                 CODE           0002:0006d3d0  ! 00000026
                CONST                 DATA           0003:00000060  ! 00000000
                CONST2                DATA           0003:00000094  ! 00000000
                _DATA                 DATA           0003:000057f8  ! 00000001
wridnacm.c      _TEXT                 CODE           0002:0006d400  ! 0000008b
                CONST                 DATA           0003:00000060  ! 00000000
                CONST2                DATA           0003:00000094  ! 00000000
                _DATA                 DATA           0003:000057fc  ! 00000000
stiomode.c      _TEXT                 CODE           0002:0006d490  ! 000001b2
                CONST                 DATA           0003:00000060  ! 00000000
                CONST2                DATA           0003:00000094  ! 00000000
                _DATA                 DATA           0003:000057fc  ! 00000000
                _BSS                  BSS            0003:0000a880  ! 00000004
                YIB                   DATA           0003:00005a74  ! 00000000
                YI                    DATA           0003:00005a86  ! 00000006
                YIE                   DATA           0003:00005a92  ! 00000000
                XIB                   DATA           0003:00005a2c  ! 00000000
                XI                    DATA           0003:00005a50  ! 00000006
                XIE                   DATA           0003:00005a74  ! 00000000
rrnamoor.c      _TEXT                 CODE           0002:0006d650  ! 000001ce
                CONST                 DATA           0003:00000060  ! 00000000
                CONST2                DATA           0003:00000094  ! 00000000
                _DATA                 DATA           0003:000057fc  ! 00000000
wridfrst.c      _TEXT                 CODE           0002:0006d820  ! 0000006b
                CONST                 DATA           0003:00000060  ! 00000000
                CONST2                DATA           0003:00000094  ! 00000000
                _DATA                 DATA           0003:000057fc  ! 00000000
wridfrnu.c      _TEXT                 CODE           0002:0006d890  ! 00000055
                CONST                 DATA           0003:00000060  ! 00000000
                CONST2                DATA           0003:00000094  ! 00000000
                _DATA                 DATA           0003:000057fc  ! 00000000
wrfirres.c      _TEXT                 CODE           0002:0006d8f0  ! 00000056
                CONST                 DATA           0003:00000060  ! 00000000
                CONST2                DATA           0003:00000094  ! 00000000
                _DATA                 DATA           0003:000057fc  ! 00000000
mem.c           _TEXT                 CODE           0002:0006d950  ! 000001e6
                CONST                 DATA           0003:00000060  ! 00000000
                CONST2                DATA           0003:00000094  ! 00000000
                _DATA                 DATA           0003:000057fc  ! 00000000
grownear.c      _TEXT                 CODE           0002:0006db40  ! 00000171
                CONST                 DATA           0003:00000060  ! 00000000
                CONST2                DATA           0003:00000094  ! 00000000
                _DATA                 DATA           0003:000057fc  ! 00000000
_clseos2.c      _TEXT                 CODE           0002:0006dcc0  ! 0000003c
                CONST                 DATA           0003:00000060  ! 00000000
                CONST2                DATA           0003:00000094  ! 00000000
                _DATA                 DATA           0003:000057fc  ! 00000000
flush.c         _TEXT                 CODE           0002:0006dd00  ! 000000fc
                CONST                 DATA           0003:00000060  ! 00000000
                CONST2                DATA           0003:00000094  ! 00000000
                _DATA                 DATA           0003:000057fc  ! 00000000
locmktim.c      _TEXT                 CODE           0002:0006de00  ! 00000131
                CONST                 DATA           0003:00000060  ! 00000000
                CONST2                DATA           0003:00000094  ! 00000000
                _DATA                 DATA           0003:000057fc  ! 00000000
gmtime.c        _TEXT                 CODE           0002:0006df40  ! 00000177
                CONST                 DATA           0003:00000060  ! 00000000
                CONST2                DATA           0003:00000094  ! 00000000
                _DATA                 DATA           0003:000057fc  ! 00000000
tzset.c         _TEXT                 CODE           0002:0006e0c0  ! 00000795
                CONST                 DATA           0003:00000060  ! 00000000
                CONST2                DATA           0003:00000094  ! 00000000
                _DATA                 DATA           0003:000057fc  ! 00000164
timeutil.c      _TEXT                 CODE           0002:0006e860  ! 00000470
                CONST                 DATA           0003:00000060  ! 00000000
                CONST2                DATA           0003:00000094  ! 00000000
                _DATA                 DATA           0003:00005960  ! 00000000
exit.c          _TEXT                 CODE           0002:0006ecd0  ! 00000067
                CONST                 DATA           0003:00000060  ! 00000000
                CONST2                DATA           0003:00000094  ! 00000000
                _DATA                 DATA           0003:00005960  ! 00000008
hdlman.c        _TEXT                 CODE           0002:0006ed40  ! 00000067
                CONST                 DATA           0003:00000060  ! 00000000
                CONST2                DATA           0003:00000094  ! 00000000
                _DATA                 DATA           0003:00005968  ! 00000004
iomodtty.c      _TEXT                 CODE           0002:0006edb0  ! 00000051
                CONST                 DATA           0003:00000060  ! 00000000
                CONST2                DATA           0003:00000094  ! 00000000
                _DATA                 DATA           0003:0000596c  ! 00000000
heapen.c        _TEXT                 CODE           0002:0006ee10  ! 00000021
                CONST                 DATA           0003:00000060  ! 00000000
                CONST2                DATA           0003:00000094  ! 00000000
                _DATA                 DATA           0003:0000596c  ! 00000004
nfree.c         _TEXT                 CODE           0002:0006ee40  ! 00000108
                CONST                 DATA           0003:00000060  ! 00000000
                CONST2                DATA           0003:00000094  ! 00000000
                _DATA                 DATA           0003:00005970  ! 00000000
                _BSS                  BSS            0003:0000a884  ! 00000004
nheapmin.c      _TEXT                 CODE           0002:0006ef50  ! 000000e2
                CONST                 DATA           0003:00000060  ! 00000000
                CONST2                DATA           0003:00000094  ! 00000000
                _DATA                 DATA           0003:00005970  ! 00000000
fsync.c         _TEXT                 CODE           0002:0006f040  ! 0000002d
                CONST                 DATA           0003:00000060  ! 00000000
                CONST2                DATA           0003:00000094  ! 00000000
                _DATA                 DATA           0003:00005970  ! 00000000
qwrit.c         _TEXT                 CODE           0002:0006f070  ! 00000097
                CONST                 DATA           0003:00000060  ! 00000000
                CONST2                DATA           0003:00000094  ! 00000000
                _DATA                 DATA           0003:00005970  ! 00000000
leapyear.c      _TEXT                 CODE           0002:0006f110  ! 00000032
                CONST                 DATA           0003:00000060  ! 00000034
                CONST2                DATA           0003:00000094  ! 00000000
                _DATA                 DATA           0003:00005970  ! 00000000
isattos2.c      _TEXT                 CODE           0002:0006f150  ! 0000002f
                CONST                 DATA           0003:00000094  ! 00000000
                CONST2                DATA           0003:00000094  ! 00000000
                _DATA                 DATA           0003:00005970  ! 00000000
getenv.c        _TEXT                 CODE           0002:0006f180  ! 00000089
                CONST                 DATA           0003:00000094  ! 00000000
                CONST2                DATA           0003:00000094  ! 00000000
                _DATA                 DATA           0003:00005970  ! 00000000
setenv.c        _TEXT                 CODE           0002:0006f210  ! 00000498
                CONST                 DATA           0003:00000094  ! 00000000
                CONST2                DATA           0003:00000094  ! 00000000
                _DATA                 DATA           0003:00005970  ! 00000000
strstr.c        _TEXT                 CODE           0002:0006f6b0  ! 000000ad
                CONST                 DATA           0003:00000094  ! 00000000
                CONST2                DATA           0003:00000094  ! 00000000
                _DATA                 DATA           0003:00005970  ! 00000000
cmdname.c       _TEXT                 CODE           0002:0006f760  ! 0000002b
                CONST                 DATA           0003:00000094  ! 00000000
                CONST2                DATA           0003:00000094  ! 00000000
                _DATA                 DATA           0003:00005970  ! 00000000
gtcmd.c         _TEXT                 CODE           0002:0006f790  ! 000000c3
                CONST                 DATA           0003:00000094  ! 00000000
                CONST2                DATA           0003:00000094  ! 00000000
                _DATA                 DATA           0003:00005970  ! 00000000
msgseg32.asm    _TEXT                 CODE           0002:0006f854  ! 00000000
                _DATA                 DATA           0003:00005970  ! 00000000
                _MSGSEG32             CODE           0002:000739fc  ! 00000030
thunk           _TEXT                 CODE           0002:0006f854  ! 00000063
                _DATA                 DATA           0003:00005970  ! 00000000
                STACK                 STACK          0003:0001a8a0  ! 00002000
far16fun        _TEXT                 CODE           0002:0006f8b8  ! 000001dd
                _DATA                 DATA           0003:00005970  ! 00000000
                _TEXT16               CODE           0001:00000000    00000068
searchen.c      _TEXT                 CODE           0002:0006faa0  ! 0000012f
                CONST                 DATA           0003:00000094  ! 00000000
                CONST2                DATA           0003:00000094  ! 00000000
                _DATA                 DATA           0003:00005970  ! 00000000
memset.c        _TEXT                 CODE           0002:0006fbd0  ! 00000018
                CONST                 DATA           0003:00000094  ! 00000000
                CONST2                DATA           0003:00000094  ! 00000000
                _DATA                 DATA           0003:00005970  ! 00000000
memmove.c       _TEXT                 CODE           0002:0006fbf0  ! 00000053
                CONST                 DATA           0003:00000094  ! 00000000
                CONST2                DATA           0003:00000094  ! 00000000
                _DATA                 DATA           0003:00005970  ! 00000000
istable.c       _TEXT                 CODE           0002:0006fc50  ! 00000101
                CONST                 DATA           0003:00000094  ! 00000000
                CONST2                DATA           0003:00000094  ! 00000000
                _DATA                 DATA           0003:00005970  ! 00000000
sprintf.c       _TEXT                 CODE           0002:0006fd60  ! 00000021
                CONST                 DATA           0003:00000094  ! 00000000
                CONST2                DATA           0003:00000094  ! 00000000
                _DATA                 DATA           0003:00005970  ! 00000000
setjmp          _TEXT                 CODE           0002:0006fd84  ! 000000b6
                _DATA                 DATA           0003:00005970  ! 00000000
_strcmp         _TEXT                 CODE           0002:0006fe40  ! 0000013e
                _DATA                 DATA           0003:00005970  ! 00000000
stricmp.c       _TEXT                 CODE           0002:0006ff80  ! 0000003b
                CONST                 DATA           0003:00000094  ! 00000000
                CONST2                DATA           0003:00000094  ! 00000000
                _DATA                 DATA           0003:00005970  ! 00000000
tolower.c       _TEXT                 CODE           0002:0006ffc0  ! 0000000e
                CONST                 DATA           0003:00000094  ! 00000000
                CONST2                DATA           0003:00000094  ! 00000000
                _DATA                 DATA           0003:00005970  ! 00000000
puts.c          _TEXT                 CODE           0002:0006ffd0  ! 00000030
                CONST                 DATA           0003:00000094  ! 00000000
                CONST2                DATA           0003:00000094  ! 00000000
                _DATA                 DATA           0003:00005970  ! 00000000
strtol.c        _TEXT                 CODE           0002:00070000  ! 0000023d
                CONST                 DATA           0003:00000094  ! 00000000
                CONST2                DATA           0003:00000094  ! 00000000
                _DATA                 DATA           0003:00005970  ! 0000008c
fltused.c       _TEXT                 CODE           0002:00070240  ! 00000000
                CONST                 DATA           0003:00000094  ! 00000000
                CONST2                DATA           0003:00000094  ! 00000000
                _DATA                 DATA           0003:000059fc  ! 00000004
                XIB                   DATA           0003:00005a2c  ! 00000000
                XI                    DATA           0003:00005a56  ! 00000006
                XIE                   DATA           0003:00005a74  ! 00000000
_8087           _TEXT                 CODE           0002:00070240  ! 00000000
                _DATA                 DATA           0003:00005a00  ! 00000002
                XIB                   DATA           0003:00005a2c  ! 00000000
                XI                    DATA           0003:00005a5c  ! 00000006
                XIE                   DATA           0003:00005a74  ! 00000000
                YIB                   DATA           0003:00005a74  ! 00000000
                YI                    DATA           0003:00005a8c  ! 00000000
                YIE                   DATA           0003:00005a92  ! 00000000
strlwr.c        _TEXT                 CODE           0002:00070240  ! 00000020
                CONST                 DATA           0003:00000094  ! 00000000
                CONST2                DATA           0003:00000094  ! 00000000
                _DATA                 DATA           0003:00005a04  ! 00000000
toupper.c       _TEXT                 CODE           0002:00070260  ! 0000000e
                CONST                 DATA           0003:00000094  ! 00000000
                CONST2                DATA           0003:00000094  ! 00000000
                _DATA                 DATA           0003:00005a04  ! 00000000
memicmp.c       _TEXT                 CODE           0002:00070270  ! 00000040
                CONST                 DATA           0003:00000094  ! 00000000
                CONST2                DATA           0003:00000094  ! 00000000
                _DATA                 DATA           0003:00005a04  ! 00000000
strnicmp.c      _TEXT                 CODE           0002:000702b0  ! 00000044
                CONST                 DATA           0003:00000094  ! 00000000
                CONST2                DATA           0003:00000094  ! 00000000
                _DATA                 DATA           0003:00005a04  ! 00000000
memcmp.c        _TEXT                 CODE           0002:00070300  ! 00000018
                CONST                 DATA           0003:00000094  ! 00000000
                CONST2                DATA           0003:00000094  ! 00000000
                _DATA                 DATA           0003:00005a04  ! 00000000
nrealloc.c      _TEXT                 CODE           0002:00070320  ! 0000007a
                CONST                 DATA           0003:00000094  ! 00000000
                CONST2                DATA           0003:00000094  ! 00000000
                _DATA                 DATA           0003:00005a04  ! 00000000
nheapwal.c      _TEXT                 CODE           0002:000703a0  ! 000000d4
                CONST                 DATA           0003:00000094  ! 00000000
                CONST2                DATA           0003:00000094  ! 00000000
                _DATA                 DATA           0003:00005a04  ! 00000000
qsort.c         _TEXT                 CODE           0002:00070480  ! 000006f8
                CONST                 DATA           0003:00000094  ! 00000000
                CONST2                DATA           0003:00000094  ! 00000000
                _DATA                 DATA           0003:00005a04  ! 00000000
openos2.c       _TEXT                 CODE           0002:00070b80  ! 00000207
                CONST                 DATA           0003:00000094  ! 00000000
                CONST2                DATA           0003:00000094  ! 00000000
                _DATA                 DATA           0003:00005a04  ! 00000000
close.c         _TEXT                 CODE           0002:00070d90  ! 00000005
                CONST                 DATA           0003:00000094  ! 00000000
                CONST2                DATA           0003:00000094  ! 00000000
                _DATA                 DATA           0003:00005a04  ! 00000000
read.c          _TEXT                 CODE           0002:00070da0  ! 00000161
                CONST                 DATA           0003:00000094  ! 00000000
                CONST2                DATA           0003:00000094  ! 00000000
                _DATA                 DATA           0003:00005a04  ! 00000000
lseek.c         _TEXT                 CODE           0002:00070f10  ! 0000002b
                CONST                 DATA           0003:00000094  ! 00000000
                CONST2                DATA           0003:00000094  ! 00000000
                _DATA                 DATA           0003:00005a04  ! 00000000
strupr.c        _TEXT                 CODE           0002:00070f40  ! 00000020
                CONST                 DATA           0003:00000094  ! 00000000
                CONST2                DATA           0003:00000094  ! 00000000
                _DATA                 DATA           0003:00005a04  ! 00000000
hugeval.c       _TEXT                 CODE           0002:00070f60  ! 00000008
                CONST                 DATA           0003:00000094  ! 00000000
                CONST2                DATA           0003:00000094  ! 00000000
                _DATA                 DATA           0003:00005a04  ! 00000000
strncpy.c       _TEXT                 CODE           0002:00070f70  ! 00000036
                CONST                 DATA           0003:00000094  ! 00000000
                CONST2                DATA           0003:00000094  ! 00000000
                _DATA                 DATA           0003:00005a04  ! 00000000
split2.c        _TEXT                 CODE           0002:00070fb0  ! 00000197
                CONST                 DATA           0003:00000094  ! 00000000
                CONST2                DATA           0003:00000094  ! 00000000
                _DATA                 DATA           0003:00005a04  ! 00000000
makepath.c      _TEXT                 CODE           0002:00071150  ! 000001ca
                CONST                 DATA           0003:00000094  ! 00000000
                CONST2                DATA           0003:00000094  ! 00000000
                _DATA                 DATA           0003:00005a04  ! 00000000
calloc.c        _TEXT                 CODE           0002:00071320  ! 0000001a
                CONST                 DATA           0003:00000094  ! 00000000
                CONST2                DATA           0003:00000094  ! 00000000
                _DATA                 DATA           0003:00005a04  ! 00000000
stack386.c      _TEXT                 CODE           0002:00071340  ! 00000011
                CONST                 DATA           0003:00000094  ! 00000000
                CONST2                DATA           0003:00000094  ! 00000000
                _DATA                 DATA           0003:00005a04  ! 00000000
environ.c       _TEXT                 CODE           0002:00071360  ! 00000000
                CONST                 DATA           0003:00000094  ! 00000000
                CONST2                DATA           0003:00000094  ! 00000000
                _DATA                 DATA           0003:00005a04  ! 00000000
                _BSS                  BSS            0003:0000a888  ! 0000000c
                XIB                   DATA           0003:00005a2c  ! 00000000
                XI                    DATA           0003:00005a62  ! 00000006
                XIE                   DATA           0003:00005a74  ! 00000000
                YIB                   DATA           0003:00005a74  ! 00000000
                YI                    DATA           0003:00005a8c  ! 00000006
                YIE                   DATA           0003:00005a92  ! 00000000
mbcupper.c      _TEXT                 CODE           0002:00071360  ! 0000001a
                CONST                 DATA           0003:00000094  ! 00000000
                CONST2                DATA           0003:00000094  ! 00000000
                _DATA                 DATA           0003:00005a04  ! 00000000
mbslen.c        _TEXT                 CODE           0002:00071380  ! 00000030
                CONST                 DATA           0003:00000094  ! 00000000
                CONST2                DATA           0003:00000094  ! 00000000
                _DATA                 DATA           0003:00005a04  ! 00000000
mbstowcs.c      _TEXT                 CODE           0002:000713b0  ! 00000073
                CONST                 DATA           0003:00000094  ! 00000000
                CONST2                DATA           0003:00000094  ! 00000000
                _DATA                 DATA           0003:00005a04  ! 00000000
usetenv.c       _TEXT                 CODE           0002:00071430  ! 000003a4
                CONST                 DATA           0003:00000094  ! 00000000
                CONST2                DATA           0003:00000094  ! 00000000
                _DATA                 DATA           0003:00005a04  ! 00000000
itsto32.c       _TEXT                 CODE           0002:000717e0  ! 0000000b
                CONST                 DATA           0003:00000094  ! 00000000
                CONST2                DATA           0003:00000094  ! 00000000
                _DATA                 DATA           0003:00005a04  ! 00000000
                XIB                   DATA           0003:00005a2c  ! 00000000
                XI                    DATA           0003:00005a68  ! 00000006
                XIE                   DATA           0003:00005a74  ! 00000000
strlen.c        _TEXT                 CODE           0002:000717f0  ! 00000013
                CONST                 DATA           0003:00000094  ! 00000000
                CONST2                DATA           0003:00000094  ! 00000000
                _DATA                 DATA           0003:00005a04  ! 00000000
strcat.c        _TEXT                 CODE           0002:00071810  ! 0000002f
                CONST                 DATA           0003:00000094  ! 00000000
                CONST2                DATA           0003:00000094  ! 00000000
                _DATA                 DATA           0003:00005a04  ! 00000000
__stos          _TEXT                 CODE           0002:00071840  ! 000000a3
                _DATA                 DATA           0003:00005a04  ! 00000000
vsprintf.c      _TEXT                 CODE           0002:000718f0  ! 00000035
                CONST                 DATA           0003:00000094  ! 00000000
                CONST2                DATA           0003:00000094  ! 00000000
                _DATA                 DATA           0003:00005a04  ! 00000000
ljmphdl.c       _TEXT                 CODE           0002:00071930  ! 00000001
                CONST                 DATA           0003:00000094  ! 00000000
                CONST2                DATA           0003:00000094  ! 00000000
                _DATA                 DATA           0003:00005a04  ! 00000004
fputs.c         _TEXT                 CODE           0002:00071940  ! 00000093
                CONST                 DATA           0003:00000094  ! 00000000
                CONST2                DATA           0003:00000094  ! 00000000
                _DATA                 DATA           0003:00005a08  ! 00000000
fputc.c         _TEXT                 CODE           0002:000719e0  ! 000000d5
                CONST                 DATA           0003:00000094  ! 00000000
                CONST2                DATA           0003:00000094  ! 00000000
                _DATA                 DATA           0003:00005a08  ! 00000000
setefg.c        _TEXT                 CODE           0002:00071ac0  ! 00000015
                CONST                 DATA           0003:00000094  ! 00000000
                CONST2                DATA           0003:00000094  ! 00000000
                _DATA                 DATA           0003:00005a08  ! 00000000
chk8087.c       _TEXT                 CODE           0002:00071ae0  ! 0000007a
                CONST                 DATA           0003:00000094  ! 00000000
                CONST2                DATA           0003:00000094  ! 00000000
                _DATA                 DATA           0003:00005a08  ! 00000000
nmsize.c        _TEXT                 CODE           0002:00071b60  ! 0000000b
                CONST                 DATA           0003:00000094  ! 00000000
                CONST2                DATA           0003:00000094  ! 00000000
                _DATA                 DATA           0003:00005a08  ! 00000000
nexpand.c       _TEXT                 CODE           0002:00071b70  ! 000001f7
                CONST                 DATA           0003:00000094  ! 00000000
                CONST2                DATA           0003:00000094  ! 00000000
                _DATA                 DATA           0003:00005a08  ! 00000000
umaskval.c      _TEXT                 CODE           0002:00071d70  ! 00000000
                CONST                 DATA           0003:00000094  ! 00000000
                CONST2                DATA           0003:00000094  ! 00000000
                _DATA                 DATA           0003:00005a08  ! 00000004
os2fil64.c      _TEXT                 CODE           0002:00071d70  ! 000000e7
                CONST                 DATA           0003:00000094  ! 00000000
                CONST2                DATA           0003:00000094  ! 00000000
                _DATA                 DATA           0003:00005a0c  ! 00000010
                XIB                   DATA           0003:00005a2c  ! 00000000
                XI                    DATA           0003:00005a6e  ! 00000006
                XIE                   DATA           0003:00005a74  ! 00000000
mbsdec.c        _TEXT                 CODE           0002:00071e60  ! 0000007d
                CONST                 DATA           0003:00000094  ! 00000000
                CONST2                DATA           0003:00000094  ! 00000000
                _DATA                 DATA           0003:00005a1c  ! 00000000
setenvp.c       _TEXT                 CODE           0002:00071ee0  ! 0000010d
                CONST                 DATA           0003:00000094  ! 00000000
                CONST2                DATA           0003:00000094  ! 00000000
                _DATA                 DATA           0003:00005a1c  ! 00000000
                _BSS                  BSS            0003:0000a894  ! 00000004
mbdtoupp.c      _TEXT                 CODE           0002:00071ff0  ! 00000012
                CONST                 DATA           0003:00000094  ! 00000000
                CONST2                DATA           0003:00000094  ! 00000000
                _DATA                 DATA           0003:00005a1c  ! 00000000
mbtowc.c        _TEXT                 CODE           0002:00072010  ! 000000bc
                CONST                 DATA           0003:00000094  ! 00000000
                CONST2                DATA           0003:00000094  ! 00000000
                _DATA                 DATA           0003:00005a1c  ! 00000000
crtwenv.c       _TEXT                 CODE           0002:000720d0  ! 00000068
                CONST                 DATA           0003:00000094  ! 00000000
                CONST2                DATA           0003:00000094  ! 00000000
                _DATA                 DATA           0003:00005a1c  ! 00000000
ugetenv.c       _TEXT                 CODE           0002:00072140  ! 00000076
                CONST                 DATA           0003:00000094  ! 00000000
                CONST2                DATA           0003:00000094  ! 00000000
                _DATA                 DATA           0003:00005a1c  ! 00000000
ustrlen.c       _TEXT                 CODE           0002:000721b6  ! 00000013
                CONST                 DATA           0003:00000094  ! 00000000
                CONST2                DATA           0003:00000094  ! 00000000
                _DATA                 DATA           0003:00005a1c  ! 00000000
wcstombs.c      _TEXT                 CODE           0002:000721d0  ! 0000009f
                CONST                 DATA           0003:00000094  ! 00000000
                CONST2                DATA           0003:00000094  ! 00000000
                _DATA                 DATA           0003:00005a1c  ! 00000000
utoupper.c      _TEXT                 CODE           0002:0007226f  ! 00000010
                CONST                 DATA           0003:00000094  ! 00000000
                CONST2                DATA           0003:00000094  ! 00000000
                _DATA                 DATA           0003:00005a1c  ! 00000000
memcpy.c        _TEXT                 CODE           0002:00072280  ! 0000001f
                CONST                 DATA           0003:00000094  ! 00000000
                CONST2                DATA           0003:00000094  ! 00000000
                _DATA                 DATA           0003:00005a1c  ! 00000000
ustrcpy.c       _TEXT                 CODE           0002:0007229f  ! 00000018
                CONST                 DATA           0003:00000094  ! 00000000
                CONST2                DATA           0003:00000094  ! 00000000
                _DATA                 DATA           0003:00005a1c  ! 00000000
prtf.c          _TEXT                 CODE           0002:000722c0  ! 00000cc4
                CONST                 DATA           0003:00000094  ! 00000000
                CONST2                DATA           0003:00000094  ! 00000000
                _DATA                 DATA           0003:00005a1c  ! 00000000
ioalloc.c       _TEXT                 CODE           0002:00072f90  ! 00000096
                CONST                 DATA           0003:00000094  ! 00000000
                CONST2                DATA           0003:00000094  ! 00000000
                _DATA                 DATA           0003:00005a1c  ! 00000000
noefgfmt.c      _TEXT                 CODE           0002:00073030  ! 00000042
                CONST                 DATA           0003:00000094  ! 00000000
                CONST2                DATA           0003:00000094  ! 00000000
                _DATA                 DATA           0003:00005a1c  ! 00000008
efgfmt.c        _TEXT                 CODE           0002:00073072  ! 0000016a
                CONST                 DATA           0003:00000094  ! 00000000
                CONST2                DATA           0003:00000094  ! 00000000
                _DATA                 DATA           0003:00005a24  ! 00000000
cnvs2d.c        _TEXT                 CODE           0002:000731dc  ! 0000000e
                CONST                 DATA           0003:00000094  ! 00000000
                CONST2                DATA           0003:00000094  ! 00000000
                _DATA                 DATA           0003:00005a24  ! 00000000
8087cw.c        _TEXT                 CODE           0002:000731f0  ! 00000000
                CONST                 DATA           0003:00000094  ! 00000000
                CONST2                DATA           0003:00000094  ! 00000000
                _DATA                 DATA           0003:00005a24  ! 00000002
init8087        _TEXT                 CODE           0002:000731f0  ! 00000033
                _DATA                 DATA           0003:00005a28  ! 00000000
clearenv.c      _TEXT                 CODE           0002:00073230  ! 00000090
                CONST                 DATA           0003:00000094  ! 00000000
                CONST2                DATA           0003:00000094  ! 00000000
                _DATA                 DATA           0003:00005a28  ! 00000000
uputenv.c       _TEXT                 CODE           0002:000732c0  ! 00000239
                CONST                 DATA           0003:00000094  ! 00000000
                CONST2                DATA           0003:00000094  ! 00000000
                _DATA                 DATA           0003:00005a28  ! 00000000
ustrnicm.c      _TEXT                 CODE           0002:000734f9  ! 0000005b
                CONST                 DATA           0003:00000094  ! 00000000
                CONST2                DATA           0003:00000094  ! 00000000
                _DATA                 DATA           0003:00005a28  ! 00000000
wctomb.c        _TEXT                 CODE           0002:00073560  ! 0000002e
                CONST                 DATA           0003:00000094  ! 00000000
                CONST2                DATA           0003:00000094  ! 00000000
                _DATA                 DATA           0003:00005a28  ! 00000000
lltoa.c         _TEXT                 CODE           0002:00073590  ! 00000099
                CONST                 DATA           0003:00000094  ! 00000000
                CONST2                DATA           0003:00000094  ! 00000000
                _DATA                 DATA           0003:00005a28  ! 00000000
ltoa.c          _TEXT                 CODE           0002:00073630  ! 00000074
                CONST                 DATA           0003:00000094  ! 00000000
                CONST2                DATA           0003:00000094  ! 00000000
                _DATA                 DATA           0003:00005a28  ! 00000000
chktty.c        _TEXT                 CODE           0002:000736b0  ! 00000032
                CONST                 DATA           0003:00000094  ! 00000000
                CONST2                DATA           0003:00000094  ! 00000000
                _DATA                 DATA           0003:00005a28  ! 00000000
rtcntrl.c       _TEXT                 CODE           0002:000736f0  ! 00000030
                CONST                 DATA           0003:00000094  ! 00000000
                CONST2                DATA           0003:00000094  ! 00000000
                _DATA                 DATA           0003:00005a28  ! 00000001
putenv.c        _TEXT                 CODE           0002:00073720  ! 000002d9
                CONST                 DATA           0003:00000094  ! 00000000
                CONST2                DATA           0003:00000094  ! 00000000
                _DATA                 DATA           0003:00005a2c  ! 00000000


                        +----------------------+
                        |   Imported Symbols   |
                        +----------------------+

Symbol                              Module
======                              ======

DosLoadModule                       DOSCALLS
DosQueryProcAddr                    DOSCALLS
DosExit                             DOSCALLS
DosDupHandle                        DOSCALLS
DosOpen                             DOSCALLS
DosClose                            DOSCALLS
DosExecPgm                          DOSCALLS
DosRead                             DOSCALLS
DosWrite                            DOSCALLS
DosSetFilePtr                       DOSCALLS
DosDelete                           DOSCALLS
DosBeep                             DOSCALLS
VIO16GETMODE                        VIOCALLS
VIO16SETMODE                        VIOCALLS
DosFreeModule                       DOSCALLS
VIO16GETCONFIG                      VIOCALLS
VIO16GETBUF                         VIOCALLS
VIO16SHOWBUF                        VIOCALLS
MOU16GETNUMQUEEL                    MOUCALLS
MOU16READEVENTQUE                   MOUCALLS
MOU16OPEN                           MOUCALLS
MOU16GETNUMBUTTONS                  MOUCALLS
MOU16SETEVENTMASK                   MOUCALLS
DosGetInfoBlocks                    DOSCALLS
MOU16CLOSE                          MOUCALLS
VIO16GETCURTYPE                     VIOCALLS
VIO16SETCURTYPE                     VIOCALLS
VIO16SETCURPOS                      VIOCALLS
VIO16GETCURPOS                      VIOCALLS
VIO16READCELLSTR                    VIOCALLS
VIO16WRTNCELL                       VIOCALLS
DosQuerySysInfo                     DOSCALLS
DosSleep                            DOSCALLS
DosQueryCurrentDisk                 DOSCALLS
DosError                            DOSCALLS
KBD16CHARIN                         KBDCALLS
KBD16SETSTATUS                      KBDCALLS
KBD16GETSTATUS                      KBDCALLS
DosSetDefaultDisk                   DOSCALLS
DosSetCurrentDir                    DOSCALLS
DosQueryCurrentDir                  DOSCALLS
DosFindClose                        DOSCALLS
DosFindFirst                        DOSCALLS
DosFindNext                         DOSCALLS
DosQueryDBCSEnv                     NLS
DosQueryCp                          DOSCALLS
DosQueryPathInfo                    DOSCALLS
DosQueryHType                       DOSCALLS
DosQueryFileInfo                    DOSCALLS
DosSetRelMaxFH                      DOSCALLS
DosAllocMem                         DOSCALLS
DosFreeMem                          DOSCALLS
DosResetBuffer                      DOSCALLS
DOS32TRUEGETMESSAGE                 MSG
DosFlatToSel                        DOSCALLS
DosSelToFlat                        DOSCALLS
DosUnwindException                  DOSCALLS
DosDevConfig                        DOSCALLS
DosQueryModuleHandle                DOSCALLS


                        +--------------------+
                        |   Libraries Used   |
                        +--------------------+

/mnt/sda5/.user/root/src/openwatcom-1.9/bld/aui/os2386/aui.lib
/mnt/sda5/.user/root/src/openwatcom-1.9/bld/gui/ui/os2386/gui.lib
/mnt/sda5/.user/root/src/openwatcom-1.9/bld/ui/os2/os2386/ui.lib
/mnt/sda5/.user/root/src/openwatcom-1.9/bld/sdk/rc/wres/flat386/mf_r/wres.lib
/mnt/sda5/.user/root/src/openwatcom-1.9/rel2/lib386/math387r.lib
/mnt/sda5/.user/root/src/openwatcom-1.9/rel2/lib386/os2/emu387.lib
/mnt/sda5/.user/root/src/openwatcom-1.9/rel2/lib386/os2/clib3r.lib
/mnt/sda5/.user/root/src/openwatcom-1.9/rel2/lib386/os2/os2386.lib


                        +-----------------------+
                        |   Linker Statistics   |
                        +-----------------------+

Stack size:  00012000 (73728.)
Memory size:  00090334 (590644.)
Entry point address: 0002:000695a4
Link time: 00:00.00
