Open Watcom Linker Version 1.9
Portions Copyright (c) 1985-2002 Sybase, Inc. All Rights Reserved.
Created on:       12/12/16 02:40:09
Executable Image: parserv.exe
creating a Windows NT windowed executable


                        +------------+
                        |   Groups   |
                        +------------+

Group                           Address              Size
=====                           =======              ====

.idata                          00409000             000006ab
DGROUP                          0040a000             000077b0



                        +--------------+
                        |   Segments   |
                        +--------------+

Segment                Class          Group          Address         Size
=======                =====          =====          =======         ====

BEGTEXT                CODE           AUTO           00401000        00000007
_TEXT                  CODE           AUTO           00401010        0000741f
TRANSFER CODE          CODE           AUTO           00408430        00000174
.idata                 .idata         .idata         00409000        000006ab
_NULL                  BEGDATA        DGROUP         0040a000        00000004
_AFTERNULL             BEGDATA        DGROUP         0040a004        00000000
CONST                  DATA           DGROUP         0040a004        00000210
CONST2                 DATA           DGROUP         0040a214        00000000
_DATA                  DATA           DGROUP         0040a214        0000033c
TIB                    DATA           DGROUP         0040a550        00000000
TI                     DATA           DGROUP         0040a550        00000000
TIE                    DATA           DGROUP         0040a550        00000000
XIB                    DATA           DGROUP         0040a550        00000000
XI                     DATA           DGROUP         0040a550        00000018
XIE                    DATA           DGROUP         0040a568        00000000
YIB                    DATA           DGROUP         0040a568        00000000
YI                     DATA           DGROUP         0040a568        00000012
YIE                    DATA           DGROUP         0040a57a        00000000
DATA                   DATA           DGROUP         0040a57a        00000000
_BSS                   BSS            DGROUP         0040b000        000017a8
STACK                  STACK          DGROUP         0040c7b0        00005000


                        +----------------+
                        |   Memory Map   |
                        +----------------+

* = unreferenced symbol
+ = symbol only referenced locally

Address        Symbol
=======        ======

Module: mxutil.obj(/mnt/sda5/.user/root/src/openwatcom-1.9/bld/trap/common/mxutil.c)
00401010       GetInPtr_
00401040       GetOutPtr_
00401070*      GetTotalSize_
0040b000       _In_Mx_Ptr
0040b004       _Out_Mx_Ptr
0040b008       _Out_Mx_Num
0040b009       _In_Mx_Num
Module: wserver.obj(/mnt/sda5/.user/root/src/openwatcom-1.9/bld/trap/common/wserver.c)
0040b00c       _TrapParm
0040b40c+      _TrapFile
0040b810+      _Instance
004010b0       _WinMain@16
00401340+      _AboutDlgProc@16
004013a0+      _WindowProc@16
004016d0       ServError_
00401700       StartupErr_
00401720*      ServMessage_
00401730       WantUsage_
00401740+      Output_
Module: options.obj(/mnt/sda5/.user/root/src/openwatcom-1.9/bld/trap/par/c/options.c)
00401760       _OptionsDlgProc@16
Module: servacc.obj(/mnt/sda5/.user/root/src/openwatcom-1.9/bld/trap/common/servacc.c)
00401bf0       Session_
00401d00       TrapClientString_
0040b828       _RWBuff
0040bc28       _TrapVersion
Module: servcmd.obj(/mnt/sda5/.user/root/src/openwatcom-1.9/bld/trap/common/servcmd.c)
00401df0       ParseCommandLine_
Module: servname.obj(/mnt/sda5/.user/root/src/openwatcom-1.9/bld/trap/par/c/servname.c)
0040a238       _ServUsage
0040a277       _ServName
Module: trpsupp.obj(/mnt/sda5/.user/root/src/openwatcom-1.9/bld/dig/c/trpsupp.c)
00401f60*      TrapSetFailCallBack_
00401f70*      TrapSetAccessCallBack_
00401f80*      TrapFailAllRequests_
00401f90*      TrapSimpAccess_
00401fe0       TrapAccess_
00402020*      ReqFuncProxy_
0040bc2c       _ReqFunc
0040bc30       _TrapVer
Module: trpld.obj(/mnt/sda5/.user/root/src/openwatcom-1.9/bld/dig/c/nt/trpld.c)
00402040       TellHWND_
00402060       KillTrap_
004020c0       LoadTrap_
Module: ntnoth.obj(/mnt/sda5/.user/root/src/openwatcom-1.9/bld/trap/common/nt/ntnoth.c)
004022d0       NothingToDo_
Module: packet.obj(/mnt/sda5/.user/root/src/openwatcom-1.9/bld/trap/common/packet.c)
004022e0*      StartPacket_
004022f0*      PutPacket_
00402310       PutBuffPacket_
00402330*      AddPacket_
00402380       GetPacket_
004023a0*      RemovePacket_
004023f0       GetPacketBuffPtr_
00402400       MaxPacketSize_
Module: parlink.obj(/mnt/sda5/.user/root/src/openwatcom-1.9/bld/trap/par/c/parlink.c)
00402d30       RemoteGet_
00402d80       RemotePut_
00402fe0       RemoteConnect_
00403090       RemoteDisco_
004030e0       RemoteLink_
00403210       RemoteUnLink_
Module: parnt.obj(/mnt/sda5/.user/root/src/openwatcom-1.9/bld/trap/par/c/parnt.c)
00403230*      Terminate_
00403240       NumPrinters_
00403250       PrnAddress_
00403260       AccessPorts_
00403270       FreePorts_
004032c0       InitSys_
00403360       FiniSys_
00403390       Ticks_
Module: /mnt/sda5/.user/root/src/openwatcom-1.9/rel2/lib386/nt/clib3r.lib(cstrtwwt)
004033a4       _wstart_
004033a4*      _wstart2_
004033a4*      WinMainCRTStartup
Module: /mnt/sda5/.user/root/src/openwatcom-1.9/rel2/lib386/nt/clib3r.lib(itoa.c)
00403400       utoa_
00403450       itoa_
Module: /mnt/sda5/.user/root/src/openwatcom-1.9/rel2/lib386/nt/clib3r.lib(isalpha.c)
00403480       isalpha_
Module: /mnt/sda5/.user/root/src/openwatcom-1.9/rel2/lib386/nt/clib3r.lib(strnicmp.c)
004034a0       strnicmp_
Module: /mnt/sda5/.user/root/src/openwatcom-1.9/rel2/lib386/nt/clib3r.lib(sprintf.c)
004034f0       sprintf_
Module: /mnt/sda5/.user/root/src/openwatcom-1.9/rel2/lib386/nt/clib3r.lib(outp.c)
00403520       outp_
Module: /mnt/sda5/.user/root/src/openwatcom-1.9/rel2/lib386/nt/clib3r.lib(inp.c)
00403530       inp_
Module: /mnt/sda5/.user/root/src/openwatcom-1.9/rel2/lib386/nt/clib3r.lib(wmainwnt.c)
00403540       __WinMain
Module: /mnt/sda5/.user/root/src/openwatcom-1.9/rel2/lib386/nt/clib3r.lib(segdefns)
00401003       ___begtext
0040a000*      __nullarea
0040a550       __Start_XI
0040a568       __End_XI
0040a568       __Start_YI
0040a57a       __End_YI
Module: /mnt/sda5/.user/root/src/openwatcom-1.9/rel2/lib386/nt/clib3r.lib(alphabet.c)
0040a1ec       ___Alphabet
Module: /mnt/sda5/.user/root/src/openwatcom-1.9/rel2/lib386/nt/clib3r.lib(istable.c)
004035f0       __IsTable
Module: /mnt/sda5/.user/root/src/openwatcom-1.9/rel2/lib386/nt/clib3r.lib(vsprintf.c)
00403720       vsprintf_
Module: /mnt/sda5/.user/root/src/openwatcom-1.9/rel2/lib386/nt/clib3r.lib(initrtns.c)
00403750       __InitRtns
004037a0       __FiniRtns
Module: /mnt/sda5/.user/root/src/openwatcom-1.9/rel2/lib386/nt/clib3r.lib(mthrdini.c)
00403800       __InitThreadData_
0040a2dc       ___ThreadDataSize
Module: /mnt/sda5/.user/root/src/openwatcom-1.9/rel2/lib386/nt/clib3r.lib(memset.c)
00403830       memset_
Module: /mnt/sda5/.user/root/src/openwatcom-1.9/rel2/lib386/nt/clib3r.lib(mainwnt.c)
0040a2e0*      ___TlsIndex
0040a2e4+      ___FirstThreadData
0040a2e8       ___GetThreadPtr
0040a2ec       __AccessFileH
0040a2f0       __ReleaseFileH
0040a2f4       __AccessIOB
0040a2f8       __ReleaseIOB
0040a2fc       __AccessNHeap
0040a300*      __AccessFHeap
0040a304       __ReleaseNHeap
00403860*      __threadid_
00403880+      __sig_null_rtn_
00403890+      __NTInit_
00403a70+      __NTFini_
00403ad0       __NTMainInit_
00403b30       __exit_
0040a308*      __ReleaseFHeap
0040a30c*      __AccessTDList
0040a310*      __ReleaseTDList
0040a314       __AccessFList
0040a318       __ReleaseFList
0040a31c+      __ThreadExitRtn
0040a320       ___sig_init_rtn
0040a324       ___sig_fini_rtn
0040a328       ___process_fini
0040c064       ___Is_DLL
Module: /mnt/sda5/.user/root/src/openwatcom-1.9/rel2/lib386/nt/clib3r.lib(crwdata)
0040a370       __osmajor
0040a371       __osminor
0040a372       __osbuild
0040a374       __osver
0040a378       __winmajor
0040a37c       __winminor
0040a380       __winver
0040a33c       __LpDllName
0040a340       __LpwCmdLine
0040a344       __LpwPgmName
0040a348       __LpwDllName
0040a334       __LpCmdLine
0040a338       __LpPgmName
0040a32c*      __dynend
0040a330       __curbrk
0040a34c*      __STACKLOW
0040a350       __STACKTOP
0040a354       __ASTACKSIZ
0040a358       __ASTACKPTR
0040a35c*      __cbyte
0040a360*      __cbyte2
0040a364*      __child
0040a36a       __Envptr
0040a36e*      __Envseg
0040a368*      __no87
0040a384       ___FPE_handler
Module: /mnt/sda5/.user/root/src/openwatcom-1.9/rel2/lib386/nt/clib3r.lib(stackwnt.c)
00403b90       stackavail_
Module: /mnt/sda5/.user/root/src/openwatcom-1.9/rel2/lib386/nt/clib3r.lib(cinit.c)
00403ba0       __CommonInit_
Module: /mnt/sda5/.user/root/src/openwatcom-1.9/rel2/lib386/nt/clib3r.lib(exit.c)
00403ba1+      __null_int23_exit_
00403ba2       exit_
00403bf2*      _exit_
0040a388+      ___int23_exit
0040a38c+      ___FPE_handler_exit
Module: /mnt/sda5/.user/root/src/openwatcom-1.9/rel2/lib386/nt/clib3r.lib(stk)
00403c09*      __CHK
00403c19*      __STK
00403c38*      __STKOVERFLOW_
00403c48       __GRO
00403c68*      __alloca_probe
Module: /mnt/sda5/.user/root/src/openwatcom-1.9/rel2/lib386/nt/clib3r.lib(dosseg)
00001234       __DOSseg__
Module: /mnt/sda5/.user/root/src/openwatcom-1.9/rel2/lib386/nt/clib3r.lib(prtf.c)
00403c80       __prtf_
Module: /mnt/sda5/.user/root/src/openwatcom-1.9/rel2/lib386/nt/clib3r.lib(stklmwnt.c)
00404950       __init_stack_limits_
Module: /mnt/sda5/.user/root/src/openwatcom-1.9/rel2/lib386/nt/clib3r.lib(__stos)
004049c0       __STOSB
004049f7*      __STOSD
Module: /mnt/sda5/.user/root/src/openwatcom-1.9/rel2/lib386/nt/clib3r.lib(hdlman.c)
0040a3a0+      ___NHandles
0040a3a4+      ___OSHandles
0040a3a8+      ___FakeHandles
00404a70+      __growPOSIXHandles_
00404b10+      __allocPOSIXHandle_
00404bd0*      __freePOSIXHandle_
00404bf0       __getOSHandle_
00404c00       __setOSHandle_
00404c50+      __NTGetFakeHandle_
00404cc0       __initPOSIXHandles_
00404da0*      __set_handles_
00404db0*      _grow_handles_
Module: /mnt/sda5/.user/root/src/openwatcom-1.9/rel2/lib386/nt/clib3r.lib(environ.c)
0040c680       ___env_mask
0040c684       _environ
0040c688       __wenviron
Module: /mnt/sda5/.user/root/src/openwatcom-1.9/rel2/lib386/nt/clib3r.lib(getmodfn.c)
00404df0       __lib_GetModuleFileNameW_
Module: /mnt/sda5/.user/root/src/openwatcom-1.9/rel2/lib386/nt/clib3r.lib(strdup.c)
00404e90       __clib_strdup_
Module: /mnt/sda5/.user/root/src/openwatcom-1.9/rel2/lib386/nt/clib3r.lib(ustrdup.c)
00404ed0       __clib_wcsdup_
Module: /mnt/sda5/.user/root/src/openwatcom-1.9/rel2/lib386/nt/clib3r.lib(nfree.c)
00404f00       _nfree_
00404f00       free_
0040c68c       ___MiniHeapFreeRover
Module: /mnt/sda5/.user/root/src/openwatcom-1.9/rel2/lib386/nt/clib3r.lib(excptwnt.c)
00405670+      ___ReportException@4
00405ac0       __DefaultExceptionHandler_
00405b00+      ___ExceptionFilter
00405d10       __NewExceptionFilter_
00405d40       __DoneExceptionFilter_
0040a3b4       ___oscode_check_func
0040a3b8       ___raise_func
0040c690*      _sw
0040c694+      ___ExceptionHandled
0040c695+      ___ReportInvoked
Module: /mnt/sda5/.user/root/src/openwatcom-1.9/rel2/lib386/nt/clib3r.lib(xmsgwnt.c)
00405d80+      __exit_with_msg_
00405de0       __fatal_runtime_error_
Module: /mnt/sda5/.user/root/src/openwatcom-1.9/rel2/lib386/nt/clib3r.lib(wctomb.c)
00405e00       wctomb_
Module: /mnt/sda5/.user/root/src/openwatcom-1.9/rel2/lib386/nt/clib3r.lib(strupr.c)
00405e40       strupr_
Module: /mnt/sda5/.user/root/src/openwatcom-1.9/rel2/lib386/nt/clib3r.lib(noefgfmt.c)
0040a3d0       ___EFG_printf
0040a3d4*      ___EFG_scanf
Module: /mnt/sda5/.user/root/src/openwatcom-1.9/rel2/lib386/nt/clib3r.lib(lltoa.c)
00405eb0       ulltoa_
00405f20*      lltoa_
Module: /mnt/sda5/.user/root/src/openwatcom-1.9/rel2/lib386/nt/clib3r.lib(ltoa.c)
00405f50       ultoa_
00405fa0*      ltoa_
Module: /mnt/sda5/.user/root/src/openwatcom-1.9/rel2/lib386/nt/clib3r.lib(mbisdbcs.c)
0040c698       ___IsDBCS
Module: /mnt/sda5/.user/root/src/openwatcom-1.9/rel2/lib386/nt/clib3r.lib(mbislead.c)
00405fd0*      _ismbblead_
0040c69c       ___MBCSIsTable
Module: /mnt/sda5/.user/root/src/openwatcom-1.9/rel2/lib386/nt/clib3r.lib(nmalloc.c)
00405ff0       _nmalloc_
00405ff0       malloc_
0040a3d8       ___nheapbeg
0040a3dc       ___MiniHeapRover
0040a3e0       ___LargestSizeB4MiniHeapRover
Module: /mnt/sda5/.user/root/src/openwatcom-1.9/rel2/lib386/nt/clib3r.lib(seterrno.c)
004060ea       __set_errno_
004060f8*      __set_EDOM_
00406106*      __set_ERANGE_
00406114*      __set_EINVAL_
00406127*      __set_doserrno_
Module: /mnt/sda5/.user/root/src/openwatcom-1.9/rel2/lib386/nt/clib3r.lib(nrealloc.c)
00406140*      _nrealloc_
00406140       realloc_
Module: /mnt/sda5/.user/root/src/openwatcom-1.9/rel2/lib386/nt/clib3r.lib(iomode.c)
004061c0       __GetIOMode_
004061e0*      __SetIOMode_nogrow_
0040a3e4       ___NFiles
0040a3e8       ___init_mode
0040a438       ___io_mode
Module: /mnt/sda5/.user/root/src/openwatcom-1.9/rel2/lib386/nt/clib3r.lib(stiomode.c)
00406200       __grow_iomode_
004062d0+      __shrink_iomode_
00406310       __SetIOMode_
Module: /mnt/sda5/.user/root/src/openwatcom-1.9/rel2/lib386/nt/clib3r.lib(setenvp.c)
00406380       __setenvp_
00406440       __freeenvp_
Module: /mnt/sda5/.user/root/src/openwatcom-1.9/rel2/lib386/nt/clib3r.lib(ustrlen.c)
0040648d       wcslen_
Module: /mnt/sda5/.user/root/src/openwatcom-1.9/rel2/lib386/nt/clib3r.lib(memcpy.c)
004064a0       memcpy_
Module: /mnt/sda5/.user/root/src/openwatcom-1.9/rel2/lib386/nt/clib3r.lib(mem.c)
004064c0       __MemAllocator
00406570       __MemFree
Module: /mnt/sda5/.user/root/src/openwatcom-1.9/rel2/lib386/nt/clib3r.lib(conutwnt.c)
004066c0*      __NTRealKey_
00406770*      __NTConsoleInput_
00406780       __NTConsoleOutput_
Module: /mnt/sda5/.user/root/src/openwatcom-1.9/rel2/lib386/nt/clib3r.lib(fclex387.c)
00406790       _ClearFPE_
Module: /mnt/sda5/.user/root/src/openwatcom-1.9/rel2/lib386/nt/clib3r.lib(signlwnt.c)
0040a444+      __SignalTable
004067a0+      __SetSignalFunc_
004067f0+      __GetSignalFunc_
00406820+      __GetSignalOSCode_
00406850+      __CheckSignalExCode_
00406990+      __sigabort_
004069a0       __sigfpe_handler_
004069f0*      signal_
00406a80+      raise_
00406af0+      __SigInit_
00406b40+      __SigFini_
00406b80+      __sig_init_
Module: /mnt/sda5/.user/root/src/openwatcom-1.9/rel2/lib386/nt/clib3r.lib(enterdb.c)
00406ba0       __EnterWVIDEO_
0040a4b0+      ___WD_Present
Module: /mnt/sda5/.user/root/src/openwatcom-1.9/rel2/lib386/nt/clib3r.lib(mbinit.c)
00406c00       __mbinit_
0040a4b4       ___MBCodePage
Module: /mnt/sda5/.user/root/src/openwatcom-1.9/rel2/lib386/nt/clib3r.lib(nmemneed.c)
00406cf0       __nmemneed_
Module: /mnt/sda5/.user/root/src/openwatcom-1.9/rel2/lib386/nt/clib3r.lib(grownear.c)
00406e60       __ExpandDGROUP_
Module: /mnt/sda5/.user/root/src/openwatcom-1.9/rel2/lib386/nt/clib3r.lib(nmsize.c)
00406e80       _nmsize_
00406e80*      _msize_
Module: /mnt/sda5/.user/root/src/openwatcom-1.9/rel2/lib386/nt/clib3r.lib(nexpand.c)
00406e90       _nexpand_
00406e90*      _expand_
00406ed0+      __HeapManager_expand_
Module: /mnt/sda5/.user/root/src/openwatcom-1.9/rel2/lib386/nt/clib3r.lib(iomodtty.c)
00407090       __ChkTTYIOMode_
004070d0*      __IOMode_
Module: /mnt/sda5/.user/root/src/openwatcom-1.9/rel2/lib386/nt/clib3r.lib(dofilstr.c)
00407110       __ParsePosixHandleStr_
Module: /mnt/sda5/.user/root/src/openwatcom-1.9/rel2/lib386/nt/clib3r.lib(clearenv.c)
00407230       clearenv_
Module: /mnt/sda5/.user/root/src/openwatcom-1.9/rel2/lib386/nt/clib3r.lib(abort.c)
004072d5*      abort_
004072e7       __terminate_
0040a4b8       ___abort
Module: /mnt/sda5/.user/root/src/openwatcom-1.9/rel2/lib386/nt/clib3r.lib(amblksiz.c)
0040a4bc       __amblksiz
Module: /mnt/sda5/.user/root/src/openwatcom-1.9/rel2/lib386/nt/clib3r.lib(heapen.c)
00407300*      _heapenable_
0040a4c0       ___heap_enabled
Module: /mnt/sda5/.user/root/src/openwatcom-1.9/rel2/lib386/nt/clib3r.lib(nheapmin.c)
00407330       _nheapshrink_
00407330*      _nheapmin_
00407330*      _heapmin_
00407330*      _heapshrink_
Module: /mnt/sda5/.user/root/src/openwatcom-1.9/rel2/lib386/nt/clib3r.lib(isattwnt.c)
00407420       isatty_
Module: /mnt/sda5/.user/root/src/openwatcom-1.9/rel2/lib386/nt/clib3r.lib(getenv.c)
00407440       getenv_
Module: /mnt/sda5/.user/root/src/openwatcom-1.9/rel2/lib386/nt/clib3r.lib(strncpy.c)
004074d0       strncpy_
Module: /mnt/sda5/.user/root/src/openwatcom-1.9/rel2/lib386/nt/clib3r.lib(strtol.c)
00407730*      strtoul_
00407740       strtol_
Module: /mnt/sda5/.user/root/src/openwatcom-1.9/rel2/lib386/nt/clib3r.lib(putenv.c)
00407750       putenv_
004079e0       __putenv_
Module: /mnt/sda5/.user/root/src/openwatcom-1.9/rel2/lib386/nt/clib3r.lib(mbterm.c)
00407b50       _mbterm_
Module: /mnt/sda5/.user/root/src/openwatcom-1.9/rel2/lib386/nt/clib3r.lib(mbsnextc.c)
00407b90       _mbsnextc_
Module: /mnt/sda5/.user/root/src/openwatcom-1.9/rel2/lib386/nt/clib3r.lib(mbcupper.c)
00407bd0       _mbctoupper_
Module: /mnt/sda5/.user/root/src/openwatcom-1.9/rel2/lib386/nt/clib3r.lib(mbsinc.c)
00407c00       _mbsinc_
Module: /mnt/sda5/.user/root/src/openwatcom-1.9/rel2/lib386/nt/clib3r.lib(tolower.c)
00407c30       tolower_
Module: /mnt/sda5/.user/root/src/openwatcom-1.9/rel2/lib386/nt/clib3r.lib(mbschr.c)
00407c40       _mbschr_
Module: /mnt/sda5/.user/root/src/openwatcom-1.9/rel2/lib386/nt/clib3r.lib(mbslen.c)
00407ca0       _mbslen_
Module: /mnt/sda5/.user/root/src/openwatcom-1.9/rel2/lib386/nt/clib3r.lib(mbstowcs.c)
00407cd0       mbstowcs_
Module: /mnt/sda5/.user/root/src/openwatcom-1.9/rel2/lib386/nt/clib3r.lib(uputenv.c)
00407d50*      _wputenv_
00407f70       __wputenv_
Module: /mnt/sda5/.user/root/src/openwatcom-1.9/rel2/lib386/nt/clib3r.lib(toupper.c)
00408070       toupper_
Module: /mnt/sda5/.user/root/src/openwatcom-1.9/rel2/lib386/nt/clib3r.lib(memmove.c)
00408080       memmove_
Module: /mnt/sda5/.user/root/src/openwatcom-1.9/rel2/lib386/nt/clib3r.lib(mbconv.c)
004080e0       _mbvtop_
Module: /mnt/sda5/.user/root/src/openwatcom-1.9/rel2/lib386/nt/clib3r.lib(mbclen.c)
00408100       _mbclen_
Module: /mnt/sda5/.user/root/src/openwatcom-1.9/rel2/lib386/nt/clib3r.lib(mbccmp.c)
00408130       _mbccmp_
Module: /mnt/sda5/.user/root/src/openwatcom-1.9/rel2/lib386/nt/clib3r.lib(mbtowc.c)
00408170       mbtowc_
Module: /mnt/sda5/.user/root/src/openwatcom-1.9/rel2/lib386/nt/clib3r.lib(ustrchr.c)
00408200       wcschr_
Module: /mnt/sda5/.user/root/src/openwatcom-1.9/rel2/lib386/nt/clib3r.lib(setenvar.c)
00408220       __lib_SetEnvironmentVariableW_
Module: /mnt/sda5/.user/root/src/openwatcom-1.9/rel2/lib386/nt/clib3r.lib(crtwenv.c)
00408310       __create_wide_environment_
Module: /mnt/sda5/.user/root/src/openwatcom-1.9/rel2/lib386/nt/clib3r.lib(wcstombs.c)
00408380       wcstombs_
Module: /mnt/sda5/.user/root/src/openwatcom-1.9/rel2/lib386/nt/clib3r.lib(utoupper.c)
0040841f       towupper_


                        +----------------------+
                        |   Imported Symbols   |
                        +----------------------+

Symbol                              Module
======                              ======

_GetMessageA@16                     USER32.DLL
_TranslateMessage@4                 USER32.DLL
_DispatchMessageA@4                 USER32.DLL
_LoadIconA@8                        USER32.DLL
_LoadCursorA@8                      USER32.DLL
_GetStockObject@4                   GDI32.DLL
_RegisterClassA@4                   USER32.DLL
_GetMenu@4                          USER32.DLL
_EnableMenuItem@12                  USER32.DLL
_DrawMenuBar@4                      USER32.DLL
_CreateWindowExA@48                 USER32.DLL
_ShowWindow@8                       USER32.DLL
_UpdateWindow@4                     USER32.DLL
_SendMessageA@16                    USER32.DLL
_EndDialog@8                        USER32.DLL
_DialogBoxParamA@20                 USER32.DLL
_PostQuitMessage@4                  USER32.DLL
_SetCursor@4                        USER32.DLL
_PeekMessageA@20                    USER32.DLL
_GetVersionExA@4                    KERNEL32.DLL
_DefWindowProcA@16                  USER32.DLL
_MessageBoxA@16                     USER32.DLL
_GetDlgItem@8                       USER32.DLL
_SendDlgItemMessageA@20             USER32.DLL
_EnableWindow@8                     USER32.DLL
_SetDlgItemTextA@12                 USER32.DLL
_GetDlgItemTextA@16                 USER32.DLL
_FreeLibrary@4                      KERNEL32.DLL
_LoadLibraryA@4                     KERNEL32.DLL
_GetProcAddress@8                   KERNEL32.DLL
_GetVersion@0                       KERNEL32.DLL
_CreateFileA@28                     KERNEL32.DLL
_CloseHandle@4                      KERNEL32.DLL
_GetTickCount@0                     KERNEL32.DLL
_GetModuleHandleA@4                 KERNEL32.DLL
_GetCurrentThreadId@0               KERNEL32.DLL
_GetEnvironmentStringsA@0           KERNEL32.DLL
_GetModuleFileNameA@12              KERNEL32.DLL
_GetCommandLineA@0                  KERNEL32.DLL
_GetCommandLineW@0                  KERNEL32.DLL
_FreeEnvironmentStringsA@4          KERNEL32.DLL
_ExitProcess@4                      KERNEL32.DLL
_VirtualQuery@12                    KERNEL32.DLL
_SetStdHandle@8                     KERNEL32.DLL
_CreateEventA@16                    KERNEL32.DLL
_GetStdHandle@4                     KERNEL32.DLL
_GetModuleFileNameW@12              KERNEL32.DLL
_MultiByteToWideChar@24             KERNEL32.DLL
_WriteFile@20                       KERNEL32.DLL
_SetUnhandledExceptionFilter@4      KERNEL32.DLL
_UnhandledExceptionFilter@4         KERNEL32.DLL
_WideCharToMultiByte@32             KERNEL32.DLL
_SetConsoleCtrlHandler@8            KERNEL32.DLL
_GetACP@0                           KERNEL32.DLL
_GetOEMCP@0                         KERNEL32.DLL
_GetCPInfo@8                        KERNEL32.DLL
_VirtualAlloc@16                    KERNEL32.DLL
_VirtualFree@12                     KERNEL32.DLL
_GetFileType@4                      KERNEL32.DLL
_SetEnvironmentVariableA@8          KERNEL32.DLL
_CharUpperA@4                       USER32.DLL
_SetEnvironmentVariableW@8          KERNEL32.DLL


                        +--------------------+
                        |   Libraries Used   |
                        +--------------------+

/mnt/sda5/.user/root/src/openwatcom-1.9/rel2/lib386/nt/kernel32.lib
/mnt/sda5/.user/root/src/openwatcom-1.9/rel2/lib386/nt/user32.lib
/mnt/sda5/.user/root/src/openwatcom-1.9/rel2/lib386/nt/gdi32.lib
/mnt/sda5/.user/root/src/openwatcom-1.9/rel2/lib386/nt/clib3r.lib


                        +-----------------------+
                        |   Linker Statistics   |
                        +-----------------------+

Stack size:  5000 (20480.)
Memory size:  f3ff (62463.)
Entry point address: 004033a4
Link time: 00:00.00
