Open Watcom Linker Version 1.9
Portions Copyright (c) 1985-2002 Sybase, Inc. All Rights Reserved.
Created on:       12/12/16 02:39:39
Executable Image: whelp.exe
creating an OS/2 32-bit executable


                        +------------+
                        |   Groups   |
                        +------------+

Group                           Address              Size
=====                           =======              ====

DGROUP                          0003:00000000        00013610



                        +--------------+
                        |   Segments   |
                        +--------------+

Segment                Class          Group          Address         Size
=======                =====          =====          =======         ====

_TEXT16                CODE           AUTO           0001:00000000   00000068
BEGTEXT                CODE           AUTO           0002:00000000   00000007
_TEXT                  CODE           AUTO           0002:00000010   00011ed0
_NULL                  BEGDATA        DGROUP         0003:00000000   00000004
_AFTERNULL             BEGDATA        DGROUP         0003:00000004   00000000
CONST                  DATA           DGROUP         0003:00000004   00000025
CONST2                 DATA           DGROUP         0003:0000002c   00000000
_DATA                  DATA           DGROUP         0003:0000002c   00000ca4
XIB                    DATA           DGROUP         0003:00000cd0   00000000
XI                     DATA           DGROUP         0003:00000cd0   00000036
XIE                    DATA           DGROUP         0003:00000d06   00000000
YIB                    DATA           DGROUP         0003:00000d06   00000000
YI                     DATA           DGROUP         0003:00000d06   00000018
YIE                    DATA           DGROUP         0003:00000d1e   00000000
TIB                    DATA           DGROUP         0003:00000d1e   00000000
TI                     DATA           DGROUP         0003:00000d1e   00000000
TIE                    DATA           DGROUP         0003:00000d1e   00000000
DATA                   DATA           DGROUP         0003:00000d1e   00000000
_BSS                   BSS            DGROUP         0003:00000d20   000008f0
stack                  STACK          DGROUP         0003:00001610   00012000


                        +----------------+
                        |   Memory Map   |
                        +----------------+

* = unreferenced symbol
+ = symbol only referenced locally

Address        Symbol
=======        ======

Module: main.obj(/mnt/sda5/.user/root/src/openwatcom-1.9/bld/help/c/main.c)
0002:00000440  main_
Module: filelist.obj(/mnt/sda5/.user/root/src/openwatcom-1.9/bld/help/c/filelist.c)
0002:00000b00  PrintHelpFiles_
Module: help.obj(/mnt/sda5/.user/root/src/openwatcom-1.9/bld/help/c/help.c)
0002:00000bf0+ hlp_ut_screen_area_
0002:00000c40+ hlp_ut_position_
0002:00001290+ help_next_field_
0002:00001420* Free_Stack_
0002:00001440+ help_in_tab_
0002:000028a0  showhelp_
0002:00002b20+ do_showhelp_
Module: vvscroll.obj(/mnt/sda5/.user/root/src/openwatcom-1.9/bld/help/c/vvscroll.c)
0002:00002d30  vvscroll_
Module: helpmem.obj(/mnt/sda5/.user/root/src/openwatcom-1.9/bld/help/c/helpmem.c)
0002:00002e20  HelpMemAlloc_
0002:00002e30  HelpMemRealloc_
0002:00002e40  HelpMemFree_
Module: helpopen.obj(/mnt/sda5/.user/root/src/openwatcom-1.9/bld/help/c/helpopen.c)
0002:00003000+ do_init_
0002:00003120  helpinit_
0002:000031e0  help_reinit_
0002:00003250  helpfini_
0003:000001f8  _HelpFiles
Module: helpio.obj(/mnt/sda5/.user/root/src/openwatcom-1.9/bld/help/c/helpio.c)
0002:00003290  HelpFileLen_
0002:000032a0  HelpRead_
0002:000032b0* HelpWrite_
0002:000032c0  HelpSeek_
0002:000032d0  HelpTell_
0002:000032e0  HelpOpen_
0002:00003340  HelpClose_
0002:00003350  HelpAccess_
0002:00003380  HelpGetCWD_
0002:00003390  HelpSearchEnv_
Module: helpscan.obj(/mnt/sda5/.user/root/src/openwatcom-1.9/bld/help/c/helpscan.c)
0002:00003560+ freeHyperlinkInfo_
0002:00003580  ScanLine_
Module: dlg.obj(/mnt/sda5/.user/root/src/openwatcom-1.9/bld/help/c/dlg.c)
0002:00003790+ GetListBoxItem_
0002:000038b0  HelpDialogCallBack_
0002:00003940  SearchDlgFini_
0002:00003970  HelpSearch_
Module: msgbox.obj(/mnt/sda5/.user/root/src/openwatcom-1.9/bld/help/c/msgbox.c)
0002:00003ab0  ShowMsgBox_
0003:00000340+ _helpMsgBox
Module: search.obj(/mnt/sda5/.user/root/src/openwatcom-1.9/bld/help/c/search.c)
0002:00003d90  HelpFindFirst_
0002:00003e20  HelpGetIndexedTopic_
0002:00003e90  HelpFindTopicOffset_
0002:00003f00  InitHelpSearch_
0002:00004150  GetDefTopic_
0002:00004160  GetDescrip_
0002:00004170  FiniHelpSearch_
0003:0000037c+ _curFile
0003:00000eb8+ _curPage
0003:000012b8+ _pageIndex
0003:000012bc+ _pageHeader
0003:000012c0+ _stringBlock
Module: dialcb.obj(/mnt/sda5/.user/root/src/openwatcom-1.9/bld/help/c/dialcb.c)
0002:000041b0  uidialogcallback_
Module: /mnt/sda5/.user/root/src/openwatcom-1.9/rel2/lib386/os2/clib3r.lib(splitpat.c)
0002:00004200  _splitpath_
Module: /mnt/sda5/.user/root/src/openwatcom-1.9/rel2/lib386/os2/clib3r.lib(printf.c)
0002:000042d0  printf_
Module: /mnt/sda5/.user/root/src/openwatcom-1.9/rel2/lib386/os2/clib3r.lib(makepath.c)
0002:00004320  _makepath_
Module: /mnt/sda5/.user/root/src/openwatcom-1.9/rel2/lib386/os2/clib3r.lib(_strcmp)
0002:000044d0  strcmp_
Module: /mnt/sda5/.user/root/src/openwatcom-1.9/rel2/lib386/os2/clib3r.lib(strlwr.c)
0002:00004610  strlwr_
Module: /mnt/sda5/.user/root/src/openwatcom-1.9/bld/ui/os2/os2386/ui.lib(/mnt/sda5/.user/root/src/openwatcom-1.9/bld/ui/c/uiinit.c)
0002:00004630  uistart_
0002:00004663* uiinit_
0002:0000467f* uistop_
0002:0000468e  uifini_
0002:000046a7* uiswap_
Module: /mnt/sda5/.user/root/src/openwatcom-1.9/bld/ui/os2/os2386/ui.lib(/mnt/sda5/.user/root/src/openwatcom-1.9/bld/ui/os2/c/uimous.c)
0002:000046b1* mousespawnstart_
0002:000046b6* mousespawnend_
0002:00004796  checkmouse_
0002:00004827+ uimousespeed_
0002:00004ad6  initmouse_
0002:00004af8  finimouse_
0002:00004b43+ uisetmouseposn_
Module: /mnt/sda5/.user/root/src/openwatcom-1.9/bld/ui/os2/os2386/ui.lib(/mnt/sda5/.user/root/src/openwatcom-1.9/bld/ui/c/uiback.c)
0002:00004c1a  uirestorebackground_
0002:00004c47  openbackground_
0002:00004c7c  closebackground_
0002:00004c89+ uibackgroundbuffer_
0002:00004cc7* uiremovebackground_
0002:00004d00* uikeepbackground_
Module: /mnt/sda5/.user/root/src/openwatcom-1.9/rel2/lib386/os2/clib3r.lib(cstart)
0002:00004d4c  _cstart_
Module: /mnt/sda5/.user/root/src/openwatcom-1.9/rel2/lib386/os2/clib3r.lib(argcv.c)
0003:000012cc  __argc
0003:000012d0  __argv
0003:000012d4  ___argc
0003:000012d8  ___argv
Module: /mnt/sda5/.user/root/src/openwatcom-1.9/rel2/lib386/os2/clib3r.lib(qsort.c)
0002:00004e00  qsort_
Module: /mnt/sda5/.user/root/src/openwatcom-1.9/rel2/lib386/os2/clib3r.lib(diros2.c)
0002:00005560+ __opendir_
0002:00005610+ _opendir_
0002:000057a0  opendir_
0002:000057c0  readdir_
0002:00005880  closedir_
0002:000058d0* rewinddir_
Module: /mnt/sda5/.user/root/src/openwatcom-1.9/rel2/lib386/os2/clib3r.lib(stricmp.c)
0002:00005910  stricmp_
Module: /mnt/sda5/.user/root/src/openwatcom-1.9/rel2/lib386/os2/clib3r.lib(getenv.c)
0002:00005950  getenv_
Module: /mnt/sda5/.user/root/src/openwatcom-1.9/bld/ui/os2/os2386/ui.lib(/mnt/sda5/.user/root/src/openwatcom-1.9/bld/ui/c/uidata.c)
0003:00000384  _UIData
Module: /mnt/sda5/.user/root/src/openwatcom-1.9/bld/ui/os2/os2386/ui.lib(/mnt/sda5/.user/root/src/openwatcom-1.9/bld/ui/c/uimenu.c)
0002:000059fd* uisetbetweentitles_
0002:00005a03  uialtchar_
0002:00005bac  uidisplayitem_
0002:00005e90  uidrawmenu_
0002:00005ef5  uiclosepopup_
0002:00005f06  uiopenpopup_
0002:000060b7+ process_menuevent_
0002:0000660a* uigeteventfrompos_
0002:00006676  menuevent_
0002:0000678d  uidescmenu_
0002:0000699d+ uimenutitlebar_
0002:00006a0c* uienablemenuitem_
0002:00006a43* uimenuindicators_
0002:00006a5d+ uisetmenudesc_
0002:00006ae9  uimenuson_
0002:00006af4  uimenuheight_
0002:00006b0c  uimenudisable_
0002:00006b2a  uimenuisdisabled_
0002:00006b3f* uimenugetaltpressed_
0002:00006b54  uimenusetaltpressed_
0002:00006b72* uinomenus_
0002:00006b74+ uimenubar_
0002:00006bd2* uimenus_
0002:00006c0f* uiactivatemenus_
0002:00006c31* uiignorealt_
0002:00006c3f* uigetcurrentmenu_
Module: /mnt/sda5/.user/root/src/openwatcom-1.9/rel2/lib386/os2/clib3r.lib(strnicmp.c)
0002:00006c80  strnicmp_
Module: /mnt/sda5/.user/root/src/openwatcom-1.9/bld/ui/os2/os2386/ui.lib(/mnt/sda5/.user/root/src/openwatcom-1.9/bld/ui/c/uivattr.c)
0002:00006cc4  uivattribute_
0002:00006d0a* uivattrflip_
Module: /mnt/sda5/.user/root/src/openwatcom-1.9/bld/ui/os2/os2386/ui.lib(/mnt/sda5/.user/root/src/openwatcom-1.9/bld/ui/c/uilist.c)
0002:00006d4e* uigetlist_
0002:00006d57* uiputlist_
0002:00006d64  uipushlist_
0002:00006da0* uichecklist_
0002:00006dc2  uipoplist_
0002:00006de6  uiinlist_
0002:00006e3e* uiintoplist_
Module: /mnt/sda5/.user/root/src/openwatcom-1.9/bld/ui/os2/os2386/ui.lib(/mnt/sda5/.user/root/src/openwatcom-1.9/bld/ui/c/uimget.c)
0002:00006e59  uivgetevent_
0002:00006e59  uivget_
0002:00006e63* uiungetevent_
0002:00006e73* uiflushevent_
Module: /mnt/sda5/.user/root/src/openwatcom-1.9/bld/ui/os2/os2386/ui.lib(/mnt/sda5/.user/root/src/openwatcom-1.9/bld/ui/c/uigadget.c)
0003:00000460  _VertScrollFrame
0003:00000462  _HorzScrollFrame
0003:00000464  _SliderChar
0003:00000466  _LeftPoint
0003:00000468  _RightPoint
0003:0000046a  _UpPoint
0003:0000046c  _DownPoint
0002:00006e7f* uishowgadget_
0002:000070a1  uiinitgadget_
0002:000070b2  uidrawgadget_
0002:000070d4  uisetgadget_
0002:000070e0  uifinigadget_
0002:000070e1* uisetgadgetnodraw_
0002:000070e6  uigadgetfilter_
Module: /mnt/sda5/.user/root/src/openwatcom-1.9/bld/ui/os2/os2386/ui.lib(/mnt/sda5/.user/root/src/openwatcom-1.9/bld/ui/c/uitab.c)
0002:0000745b  uitabfilter_
Module: /mnt/sda5/.user/root/src/openwatcom-1.9/bld/ui/os2/os2386/ui.lib(/mnt/sda5/.user/root/src/openwatcom-1.9/bld/ui/c/uihotspt.c)
0002:00007718  uidrawhottext_
0002:0000782a  uihotspot_
0002:000079d4  uiposnhotspots_
0002:00007a6f  uiprinthotspots_
0002:00007a93* uioffhotspots_
0002:00007ace  uihotspotfilter_
0002:00007c3d  uiisdefaulthotspot_
Module: /mnt/sda5/.user/root/src/openwatcom-1.9/bld/ui/os2/os2386/ui.lib(/mnt/sda5/.user/root/src/openwatcom-1.9/bld/ui/c/uiforce.c)
0002:00007c94  forceevfini_
0002:00007c94  forceevinit_
0002:00007c95  uiforceevadd_
0002:00007cd7* uiforceevflush_
0002:00007d15  forcedevent_
Module: /mnt/sda5/.user/root/src/openwatcom-1.9/rel2/lib386/os2/clib3r.lib(atoi.c)
0002:00007d50  atoi_
Module: /mnt/sda5/.user/root/src/openwatcom-1.9/rel2/lib386/os2/clib3r.lib(strtok.c)
0002:00007da0  strtok_
Module: /mnt/sda5/.user/root/src/openwatcom-1.9/bld/ui/os2/os2386/ui.lib(/mnt/sda5/.user/root/src/openwatcom-1.9/bld/ui/c/uivstr.c)
0002:00007e5e  uitextfield_
0002:00007f32  uivtextput_
0002:00007f78* uivrawput_
Module: /mnt/sda5/.user/root/src/openwatcom-1.9/bld/ui/os2/os2386/ui.lib(/mnt/sda5/.user/root/src/openwatcom-1.9/bld/ui/c/uigchar.c)
0002:00007fdf  DBCSCharacterMap_
0003:0000049c  _UiGChar
0003:000004be+ _UiDBCSChar
0003:000004e0+ _UiNECChar
Module: /mnt/sda5/.user/root/src/openwatcom-1.9/bld/ui/os2/os2386/ui.lib(/mnt/sda5/.user/root/src/openwatcom-1.9/bld/ui/c/uivfill.c)
0002:00008086  uivfill_
Module: /mnt/sda5/.user/root/src/openwatcom-1.9/bld/ui/os2/os2386/ui.lib(/mnt/sda5/.user/root/src/openwatcom-1.9/bld/ui/c/uirefer.c)
0002:000080ee  uirefresh_
Module: /mnt/sda5/.user/root/src/openwatcom-1.9/rel2/lib386/os2/clib3r.lib(strncmp.c)
0002:00008100  strncmp_
Module: /mnt/sda5/.user/root/src/openwatcom-1.9/bld/ui/os2/os2386/ui.lib(/mnt/sda5/.user/root/src/openwatcom-1.9/bld/ui/c/uivopen.c)
0002:00008185  uivopen_
0002:0000834b  uivclose_
0002:00008380* uivresize_
0002:00008493  uivmove_
Module: /mnt/sda5/.user/root/src/openwatcom-1.9/bld/ui/os2/os2386/ui.lib(/mnt/sda5/.user/root/src/openwatcom-1.9/bld/ui/c/uimousev.c)
0003:0000138c  _MouseCol
0003:0000138e  _MouseRow
0003:00001390+ _MouseStatus
0003:00001392  _MouseOn
0002:000084de* uivmouseinstalled_
0002:000084de  uimouseinstalled_
0002:000084e6  uimouseforceoff_
0002:000084f7* uimouseforceon_
0002:000084fe  uionmouse_
0002:00008536  uioffmouse_
0002:0000853d  uihidemouse_
0002:00008564  mouseevent_
0002:00008749  uimousepos_
0002:0000882c  uivmousepos_
0002:0000888b  uiswapmouse_
0002:000088b9* uigetmrow_
0002:000088c0* uigetmcol_
0002:000088c7  uigetmouse_
0003:00001394  _MouseInstalled
Module: /mnt/sda5/.user/root/src/openwatcom-1.9/rel2/lib386/os2/clib3r.lib(sprintf.c)
0002:00008910  sprintf_
Module: /mnt/sda5/.user/root/src/openwatcom-1.9/rel2/lib386/os2/clib3r.lib(strncpy.c)
0002:00008940  strncpy_
Module: /mnt/sda5/.user/root/src/openwatcom-1.9/bld/ui/os2/os2386/ui.lib(/mnt/sda5/.user/root/src/openwatcom-1.9/bld/ui/c/uivmove.c)
0002:00008976  uivmoveblock_
Module: /mnt/sda5/.user/root/src/openwatcom-1.9/rel2/lib386/os2/clib3r.lib(nmalloc.c)
0002:00008ab0  _nmalloc_
0002:00008ab0  malloc_
0003:0000055c  ___nheapbeg
0003:00000560  ___MiniHeapRover
0003:00000564  ___LargestSizeB4MiniHeapRover
Module: /mnt/sda5/.user/root/src/openwatcom-1.9/rel2/lib386/os2/clib3r.lib(nrealloc.c)
0002:00008bb0* _nrealloc_
0002:00008bb0  realloc_
Module: /mnt/sda5/.user/root/src/openwatcom-1.9/rel2/lib386/os2/clib3r.lib(nfree.c)
0002:00008c30  _nfree_
0002:00008c30  free_
0003:00001398  ___MiniHeapFreeRover
Module: /mnt/sda5/.user/root/src/openwatcom-1.9/rel2/lib386/os2/clib3r.lib(filelen.c)
0002:00008d40  filelength_
Module: /mnt/sda5/.user/root/src/openwatcom-1.9/rel2/lib386/os2/clib3r.lib(read.c)
0002:00008da0  read_
Module: /mnt/sda5/.user/root/src/openwatcom-1.9/rel2/lib386/os2/clib3r.lib(write.c)
0002:00009010  write_
Module: /mnt/sda5/.user/root/src/openwatcom-1.9/rel2/lib386/os2/clib3r.lib(lseek.c)
0002:00009240  lseek_
Module: /mnt/sda5/.user/root/src/openwatcom-1.9/rel2/lib386/os2/clib3r.lib(tell.c)
0002:00009270  tell_
Module: /mnt/sda5/.user/root/src/openwatcom-1.9/rel2/lib386/os2/clib3r.lib(openos2.c)
0002:00009450  open_
0002:00009470+ sopen_
Module: /mnt/sda5/.user/root/src/openwatcom-1.9/rel2/lib386/os2/clib3r.lib(close.c)
0002:000094a0  close_
Module: /mnt/sda5/.user/root/src/openwatcom-1.9/rel2/lib386/os2/clib3r.lib(accssos2.c)
0002:000094b0  access_
Module: /mnt/sda5/.user/root/src/openwatcom-1.9/rel2/lib386/os2/clib3r.lib(gtcwdos2.c)
0002:00009510  getcwd_
Module: /mnt/sda5/.user/root/src/openwatcom-1.9/rel2/lib386/os2/clib3r.lib(searchen.c)
0002:000095d0  _searchenv_
Module: /mnt/sda5/.user/root/src/openwatcom-1.9/rel2/lib386/os2/clib3r.lib(strcspn.c)
0002:00009700  strcspn_
Module: /mnt/sda5/.user/root/src/openwatcom-1.9/bld/ui/os2/os2386/ui.lib(/mnt/sda5/.user/root/src/openwatcom-1.9/bld/ui/c/uilstbox.c)
0002:00009749  uigetlistelement_
0002:00009781  uipaintlistbox_
0002:000098c5+ checkitem_
0002:00009936  uiupdatelistbox_
0002:000099a9  uiboxpushlist_
0002:000099b3  uiboxpoplist_
0002:000099e1+ uilistsize_
0002:000099f9  uimovelistbox_
0002:00009a17  uibeglistbox_
0002:00009ae2  uiendlistbox_
0002:00009b8b+ charselect_
0002:00009bf8  uilistbox_
Module: /mnt/sda5/.user/root/src/openwatcom-1.9/bld/ui/os2/os2386/ui.lib(/mnt/sda5/.user/root/src/openwatcom-1.9/bld/ui/c/uialloc.c)
0002:00009fe2* UIMemPrintLine_
0002:00009fe2* UIMemPrtUsage_
0002:00009fe2  UIMemClose_
0002:00009fe2  UIMemOpen_
0002:00009fe2* UIMemRedirect_
0002:00009fe3  uicalloc_
0002:00009fe8  uimalloc_
0002:00009fed  uifree_
0002:00009ff2  uirealloc_
Module: /mnt/sda5/.user/root/src/openwatcom-1.9/bld/ui/os2/os2386/ui.lib(/mnt/sda5/.user/root/src/openwatcom-1.9/bld/ui/c/uidialog.c)
0002:0000a60c  uiprintfield_
0002:0000a650+ ui_split_line_
0002:0000a6f2+ uiinitdialog_
0002:0000a808* uifinidialog_
0002:0000a8c6+ uireinitdialog_
0002:0000a958* uigetdialogarea_
0002:0000a96d  uibegdialog_
0002:0000aa31+ uiupdatecombobox_
0002:0000aa9e  uiupdateedit_
0002:0000ab3a+ pulldownfilter_
0002:0000ad38+ uidialogexitcurr_
0002:0000ad4f+ uidialogsetcurr_
0002:0000ada1+ uimovefield_
0002:0000adfd* uiredrawdialog_
0002:0000ae39+ uiresizedialog_
0002:0000b24b+ uihotkeyfilter_
0002:0000b348+ uiprocessdialogevent_
0002:0000b524  uidialog_
0002:0000b630+ uifreedialog_
0002:0000b67c  uienddialog_
0002:0000b694* uidialogisdirty_
0002:0000b6a4* uidialogsetdirty_
Module: /mnt/sda5/.user/root/src/openwatcom-1.9/rel2/lib386/os2/clib3r.lib(istable.c)
0002:0000b6c0  __IsTable
Module: /mnt/sda5/.user/root/src/openwatcom-1.9/rel2/lib386/os2/clib3r.lib(mbsnccnt.c)
0002:0000b7d0  _mbsnccnt_
Module: /mnt/sda5/.user/root/src/openwatcom-1.9/rel2/lib386/os2/clib3r.lib(mbsncpy.c)
0002:0000b800  _mbsncpy_
Module: /mnt/sda5/.user/root/src/openwatcom-1.9/rel2/lib386/os2/clib3r.lib(mbsnbcnt.c)
0002:0000b820  _mbsnbcnt_
Module: /mnt/sda5/.user/root/src/openwatcom-1.9/rel2/lib386/os2/clib3r.lib(mbsnextc.c)
0002:0000b890  _mbsnextc_
Module: /mnt/sda5/.user/root/src/openwatcom-1.9/rel2/lib386/os2/clib3r.lib(mbsinc.c)
0002:0000b8d0  _mbsinc_
Module: /mnt/sda5/.user/root/src/openwatcom-1.9/rel2/lib386/os2/clib3r.lib(iob.c)
0003:00000614  ___iob
0003:0000081c  __fmode
0003:0000139c  ___OpenStreams
0003:000013a0  ___ClosedStreams
Module: /mnt/sda5/.user/root/src/openwatcom-1.9/rel2/lib386/os2/clib3r.lib(fprtf.c)
0002:0000b920  __fprtf_
Module: /mnt/sda5/.user/root/src/openwatcom-1.9/rel2/lib386/os2/clib3r.lib(mbconv.c)
0002:0000b9e0  _mbvtop_
Module: /mnt/sda5/.user/root/src/openwatcom-1.9/rel2/lib386/os2/clib3r.lib(mbclen.c)
0002:0000ba00  _mbclen_
Module: /mnt/sda5/.user/root/src/openwatcom-1.9/rel2/lib386/os2/clib3r.lib(mbsdec.c)
0002:0000ba30  _mbsdec_
Module: /mnt/sda5/.user/root/src/openwatcom-1.9/bld/ui/os2/os2386/ui.lib(/mnt/sda5/.user/root/src/openwatcom-1.9/bld/ui/os2/c/uibios.c)
0002:0000baad* uiset80col_
0002:0000bab0+ initmonitor_
0002:0000bbc7  initbios_
0002:0000bc9a* uiclockdelay_
0002:0000bcb4  finibios_
0002:0000bcbe  physupdate_
0003:00000898  __osmode
Module: /mnt/sda5/.user/root/src/openwatcom-1.9/bld/ui/os2/os2386/ui.lib(/mnt/sda5/.user/root/src/openwatcom-1.9/bld/ui/c/uiattr.c)
0003:0000089d+ _VGAcolours
0003:000008dd+ _ui_vga_colour_attrs
0003:00000902+ _ui_colour_attrs
0003:00000927+ _ui_bw_attrs
0003:0000094c+ _ui_mono_attrs
0002:0000bd2c  uiattrs_
0002:0000bdc0* uivgaattrs_
0002:0000bdfb+ uisetblinkattr_
0002:0000be34* uigetblinkattr_
Module: /mnt/sda5/.user/root/src/openwatcom-1.9/bld/ui/os2/os2386/ui.lib(/mnt/sda5/.user/root/src/openwatcom-1.9/bld/ui/os2/c/uicurs.c)
0002:0000be3a  uioffcursor_
0002:0000c184* uigetcursor_
0002:0000c27b  uisetcursor_
0002:0000c2be  uiswapcursor_
0002:0000c2d2* uioncursor_
0002:0000c2d2  uifinicursor_
0002:0000c328  uiinitcursor_
Module: /mnt/sda5/.user/root/src/openwatcom-1.9/rel2/lib386/os2/clib3r.lib(thunk)
0002:0000c36c  __TNK
0002:0000c358* __TNC
Module: /mnt/sda5/.user/root/src/openwatcom-1.9/rel2/lib386/os2/clib3r.lib(far16fun)
0002:0000c3bc  __Far16Func2
0002:0000c405* __Far16Func
0002:0000c453* __Far16Pascal2
0002:0000c49a* __Far16Pascal
0002:0000c4e6* __Far16Cdecl2
0002:0000c534* __Far16Cdecl
0002:0000c587  __FlatToFar16
0002:0000c590  __Far16ToFlat
Module: /mnt/sda5/.user/root/src/openwatcom-1.9/bld/ui/os2/os2386/ui.lib(/mnt/sda5/.user/root/src/openwatcom-1.9/bld/ui/os2/c/uiget.c)
0002:0000c599  uiflush_
0002:0000c5a5  uiclock_
0002:0000c628  uiget_
0002:0000c62d* uieventsource_
Module: /mnt/sda5/.user/root/src/openwatcom-1.9/bld/ui/os2/os2386/ui.lib(/mnt/sda5/.user/root/src/openwatcom-1.9/bld/ui/os2/c/uibmous.c)
0002:0000c74f  uisetmouse_
0002:0000c776  uimouse_
Module: /mnt/sda5/.user/root/src/openwatcom-1.9/bld/ui/os2/os2386/ui.lib(/mnt/sda5/.user/root/src/openwatcom-1.9/bld/ui/c/uibfill.c)
0002:0000c7a6  bfill_
Module: /mnt/sda5/.user/root/src/openwatcom-1.9/bld/ui/os2/os2386/ui.lib(/mnt/sda5/.user/root/src/openwatcom-1.9/bld/ui/c/uibcopy.c)
0002:0000c7dd  uibcopy_
Module: /mnt/sda5/.user/root/src/openwatcom-1.9/bld/ui/os2/os2386/ui.lib(/mnt/sda5/.user/root/src/openwatcom-1.9/bld/ui/c/uidirty.c)
0002:0000c824  dirtyarea_
0002:0000c8a6  dirtynext_
0002:0000c8f6  uidirty_
Module: /mnt/sda5/.user/root/src/openwatcom-1.9/bld/ui/os2/os2386/ui.lib(/mnt/sda5/.user/root/src/openwatcom-1.9/bld/ui/c/uiwin.c)
0002:0000c961+ findspot_
0002:0000c9c6  closewindow_
0002:0000ca10  openwindow_
0002:0000ca3b  movewindow_
0002:0000ca65  frontwindow_
Module: /mnt/sda5/.user/root/src/openwatcom-1.9/bld/ui/os2/os2386/ui.lib(/mnt/sda5/.user/root/src/openwatcom-1.9/bld/ui/c/uiballoc.c)
0002:0000ca93  bframe_
0002:0000ca9e  balloc_
0002:0000cac0  bunframe_
0002:0000cacb  bfree_
Module: /mnt/sda5/.user/root/src/openwatcom-1.9/rel2/lib386/os2/clib3r.lib(main2o32.c)
0002:0000cae0  __OS2Main
Module: /mnt/sda5/.user/root/src/openwatcom-1.9/rel2/lib386/os2/clib3r.lib(segdefns)
0002:00000003  ___begtext
0003:00000000* __nullarea
0003:00000cd0  __Start_XI
0003:00000d06  __End_XI
0003:00000d06  __Start_YI
0003:00000d1e  __End_YI
Module: /mnt/sda5/.user/root/src/openwatcom-1.9/rel2/lib386/os2/clib3r.lib(initargv.c)
0002:0000cb50  __Init_Argv_
0002:0000cba0+ _getargv_
0002:0000cd40  __Fini_Argv_
Module: /mnt/sda5/.user/root/src/openwatcom-1.9/rel2/lib386/os2/clib3r.lib(dosret.c)
0002:0000cd50* _dosretax_
0002:0000cd60* _dosret0_
0002:0000cd70  __set_errno_dos_
0002:0000cda0* __set_errno_dos_reterr_
Module: /mnt/sda5/.user/root/src/openwatcom-1.9/rel2/lib386/os2/clib3r.lib(strdup.c)
0002:0000cdb0  __clib_strdup_
Module: /mnt/sda5/.user/root/src/openwatcom-1.9/rel2/lib386/os2/clib3r.lib(environ.c)
0003:000013c4  ___env_mask
0003:000013c8  _environ
0003:000013cc* __wenviron
Module: /mnt/sda5/.user/root/src/openwatcom-1.9/rel2/lib386/os2/clib3r.lib(mbterm.c)
0002:0000cdf0  _mbterm_
Module: /mnt/sda5/.user/root/src/openwatcom-1.9/rel2/lib386/os2/clib3r.lib(mbcupper.c)
0002:0000ce30  _mbctoupper_
Module: /mnt/sda5/.user/root/src/openwatcom-1.9/bld/ui/os2/os2386/ui.lib(/mnt/sda5/.user/root/src/openwatcom-1.9/bld/ui/c/uibstr.c)
0002:0000ce4a  bstring_
0002:0000ce7d  braw_
Module: /mnt/sda5/.user/root/src/openwatcom-1.9/bld/ui/os2/os2386/ui.lib(/mnt/sda5/.user/root/src/openwatcom-1.9/bld/ui/c/uibox.c)
0002:0000ceac  drawbox_
0002:0000cff2  blowup_
0002:0000d0ca  uidrawbox_
Module: /mnt/sda5/.user/root/src/openwatcom-1.9/rel2/lib386/os2/clib3r.lib(tolower.c)
0002:0000d140  tolower_
Module: /mnt/sda5/.user/root/src/openwatcom-1.9/bld/ui/os2/os2386/ui.lib(/mnt/sda5/.user/root/src/openwatcom-1.9/bld/ui/c/uipopup.c)
0002:0000d412+ uicreatepopupdesc_
0002:0000d5fd+ uiposfloatingpopup_
0002:0000db4c+ uicreatepopupinarea_
0002:0000db6f+ uicreatesubpopup_
0002:0000dbb5  uicreatesubpopupinarea_
0002:0000dbd5* uicreatepopup_
Module: /mnt/sda5/.user/root/src/openwatcom-1.9/bld/ui/os2/os2386/ui.lib(/mnt/sda5/.user/root/src/openwatcom-1.9/bld/ui/c/uivutil.c)
0002:0000dc3b  isdialogue_
0002:0000dc4b  isscreen_
0002:0000dc7d* uisetsnow_
Module: /mnt/sda5/.user/root/src/openwatcom-1.9/bld/ui/os2/os2386/ui.lib(/mnt/sda5/.user/root/src/openwatcom-1.9/bld/ui/c/uimenucr.c)
0002:0000dc8d  uimenucurr_
Module: /mnt/sda5/.user/root/src/openwatcom-1.9/bld/ui/os2/os2386/ui.lib(/mnt/sda5/.user/root/src/openwatcom-1.9/bld/ui/c/uipget.c)
0002:0000dc8e  saveevent_
0002:0000dcb4  getprime_
0002:0000dcdc* uivgetprimevent_
0002:0000dcdc* uivgetprime_
0003:000013d0  _Event
Module: /mnt/sda5/.user/root/src/openwatcom-1.9/bld/ui/os2/os2386/ui.lib(/mnt/sda5/.user/root/src/openwatcom-1.9/bld/ui/c/uicheck.c)
0002:0000dd18  okarea_
0002:0000dd46  oksubarea_
0002:0000dd59  okline_
0002:0000dd7f  okopen_
Module: /mnt/sda5/.user/root/src/openwatcom-1.9/bld/ui/os2/os2386/ui.lib(/mnt/sda5/.user/root/src/openwatcom-1.9/bld/ui/c/uibattr.c)
0002:0000dd8a  battribute_
0002:0000ddd8  battrflip_
Module: /mnt/sda5/.user/root/src/openwatcom-1.9/bld/ui/os2/os2386/ui.lib(/mnt/sda5/.user/root/src/openwatcom-1.9/bld/ui/c/uivscrn.c)
0002:0000de21  findvscreen_
0002:0000de77  uivdirty_
0002:0000de85  uivsetactive_
0002:0000de9d  uivsetcursor_
Module: /mnt/sda5/.user/root/src/openwatcom-1.9/bld/ui/os2/os2386/ui.lib(/mnt/sda5/.user/root/src/openwatcom-1.9/bld/ui/c/uiprot.c)
0002:0000ded0  uiunprotect_
0002:0000def7  uiprotect_
Module: /mnt/sda5/.user/root/src/openwatcom-1.9/rel2/lib386/os2/clib3r.lib(memset.c)
0002:0000df20  memset_
Module: /mnt/sda5/.user/root/src/openwatcom-1.9/rel2/lib386/os2/clib3r.lib(setbits.c)
0002:0000df40  __setbits_
Module: /mnt/sda5/.user/root/src/openwatcom-1.9/rel2/lib386/os2/clib3r.lib(bits.c)
0002:0000df80  __Bits
Module: /mnt/sda5/.user/root/src/openwatcom-1.9/rel2/lib386/os2/clib3r.lib(maino32.c)
0003:00000b1c+ ___FirstThreadData
0003:00000b20  ___GetThreadPtr
0003:00000b24  __AccessFileH
0003:00000b28  __ReleaseFileH
0003:00000b2c  __AccessIOB
0003:00000b30  __ReleaseIOB
0003:00000b34  __AccessNHeap
0003:00000b38* __AccessFHeap
0003:00000b3c  __ReleaseNHeap
0003:00000b40* __ReleaseFHeap
0002:0000df8e  __threadstack_
0002:0000df95* __threadid_
0002:0000df9c  __OS2MainInit_
0002:0000e00b+ __OS2Init_
0002:0000e049* __OS2Fini_
0002:0000e051* __shutdown_stack_checking_
0002:0000e066  __exit_
0003:00000b44* __AccessTDList
0003:00000b48* __ReleaseTDList
0003:00000b4c+ ___sig_init_rtn
0003:00000b50* ___sig_fini_rtn
0003:00000b54  __threadstksize
0003:00000b58  ___process_fini
0003:000013d4  ___Is_DLL
0003:000013d8+ ___saved_CS
Module: /mnt/sda5/.user/root/src/openwatcom-1.9/bld/ui/os2/os2386/ui.lib(/mnt/sda5/.user/root/src/openwatcom-1.9/bld/ui/c/uichlen.c)
0002:0000e0aa  uicharlen_
0002:0000e0d1  uiisdbcs_
0002:0000e0d7  uionnec_
Module: /mnt/sda5/.user/root/src/openwatcom-1.9/bld/ui/os2/os2386/ui.lib(/mnt/sda5/.user/root/src/openwatcom-1.9/bld/ui/c/uirfrsh.c)
0002:0000e17d  uidorefresh_
Module: /mnt/sda5/.user/root/src/openwatcom-1.9/bld/ui/os2/os2386/ui.lib(/mnt/sda5/.user/root/src/openwatcom-1.9/bld/ui/c/uibfake.c)
0002:0000e203  bfake_
Module: /mnt/sda5/.user/root/src/openwatcom-1.9/bld/ui/os2/os2386/ui.lib(/mnt/sda5/.user/root/src/openwatcom-1.9/bld/ui/os2/c/uikeyb.c)
0002:0000e22f* uicheckshift_
0002:0000e287  flushkey_
0002:0000e299* kbdspawnstart_
0002:0000e2c8  keyboardevent_
0002:0000e418  initkeyboard_
0002:0000e418* kbdspawnend_
0002:0000e4a0  finikeyboard_
0003:000014e0+ _SaveStatus
Module: /mnt/sda5/.user/root/src/openwatcom-1.9/rel2/lib386/os2/clib3r.lib(vsprintf.c)
0002:0000e500  vsprintf_
Module: /mnt/sda5/.user/root/src/openwatcom-1.9/rel2/lib386/os2/clib3r.lib(nmemneed.c)
0002:0000e520  __nmemneed_
Module: /mnt/sda5/.user/root/src/openwatcom-1.9/rel2/lib386/os2/clib3r.lib(mem.c)
0002:0000e530  __MemAllocator
0002:0000e5e0  __MemFree
Module: /mnt/sda5/.user/root/src/openwatcom-1.9/rel2/lib386/os2/clib3r.lib(grownear.c)
0002:0000e880  __ExpandDGROUP_
Module: /mnt/sda5/.user/root/src/openwatcom-1.9/rel2/lib386/os2/clib3r.lib(nmsize.c)
0002:0000e8a0  _nmsize_
0002:0000e8a0* _msize_
Module: /mnt/sda5/.user/root/src/openwatcom-1.9/rel2/lib386/os2/clib3r.lib(nexpand.c)
0002:0000e8b0  _nexpand_
0002:0000e8b0* _expand_
0002:0000e8f0+ __HeapManager_expand_
Module: /mnt/sda5/.user/root/src/openwatcom-1.9/rel2/lib386/os2/clib3r.lib(__lseek.c)
0002:0000eab0  __lseek_
Module: /mnt/sda5/.user/root/src/openwatcom-1.9/rel2/lib386/os2/clib3r.lib(iomodtty.c)
0002:0000eae0  __ChkTTYIOMode_
0002:0000eb20* __IOMode_
Module: /mnt/sda5/.user/root/src/openwatcom-1.9/rel2/lib386/os2/clib3r.lib(iomode.c)
0002:0000eb40  __GetIOMode_
0002:0000eb60  __SetIOMode_nogrow_
0003:00000b94  ___NFiles
0003:00000b98  ___init_mode
0003:00000be8  ___io_mode
Module: /mnt/sda5/.user/root/src/openwatcom-1.9/rel2/lib386/os2/clib3r.lib(seterrno.c)
0002:0000eb7a  __set_errno_
0002:0000eb88* __set_EDOM_
0002:0000eb96* __set_ERANGE_
0002:0000eba4* __set_EINVAL_
0002:0000ebb7  __set_doserrno_
Module: /mnt/sda5/.user/root/src/openwatcom-1.9/rel2/lib386/os2/clib3r.lib(stack386.c)
0002:0000ebd0  stackavail_
Module: /mnt/sda5/.user/root/src/openwatcom-1.9/rel2/lib386/os2/clib3r.lib(stk)
0002:0000ebf5  __STK
0002:0000ebe5* __CHK
0002:0000ec24* __GRO
0002:0000ec14  __STKOVERFLOW_
Module: /mnt/sda5/.user/root/src/openwatcom-1.9/rel2/lib386/os2/clib3r.lib(stiomode.c)
0002:0000ec50  __grow_iomode_
0002:0000ed20+ __shrink_iomode_
0002:0000eda0  __SetIOMode_
Module: /mnt/sda5/.user/root/src/openwatcom-1.9/rel2/lib386/os2/clib3r.lib(umaskval.c)
0003:00000bfc  ___umaskval
Module: /mnt/sda5/.user/root/src/openwatcom-1.9/rel2/lib386/os2/clib3r.lib(os2fil64.c)
0003:00000c00  ___os2_DosOpenL
0003:00000c04+ ___os2_DosSetFilePtrL
0003:00000c08+ ___os2_DosSetFileSizeL
0003:00000c0c+ ___os2_DosSetFileLocksL
Module: /mnt/sda5/.user/root/src/openwatcom-1.9/rel2/lib386/os2/clib3r.lib(isattos2.c)
0002:0000ef00  isatty_
Module: /mnt/sda5/.user/root/src/openwatcom-1.9/rel2/lib386/os2/clib3r.lib(_clseos2.c)
0002:0000ef30  __close_
Module: /mnt/sda5/.user/root/src/openwatcom-1.9/rel2/lib386/os2/clib3r.lib(strlen.c)
0002:0000ef70  strlen_
Module: /mnt/sda5/.user/root/src/openwatcom-1.9/rel2/lib386/os2/clib3r.lib(strncat.c)
0002:0000ef90  strncat_
Module: /mnt/sda5/.user/root/src/openwatcom-1.9/rel2/lib386/os2/clib3r.lib(strcat.c)
0002:0000efd0  strcat_
Module: /mnt/sda5/.user/root/src/openwatcom-1.9/bld/ui/os2/os2386/ui.lib(/mnt/sda5/.user/root/src/openwatcom-1.9/bld/ui/c/uimisc.c)
0002:0000efff  uisetscreenarea_
0002:0000f03b  uisetarea_
0002:0000f087  uiposition_
0002:0000f0e1  uiopen_
0002:0000f11e  uiclose_
0002:0000f12f  uicntrtext_
0002:0000f173  uinocursor_
0002:0000f17b* uicursor_
Module: /mnt/sda5/.user/root/src/openwatcom-1.9/rel2/lib386/os2/clib3r.lib(calloc.c)
0002:0000f190  calloc_
Module: /mnt/sda5/.user/root/src/openwatcom-1.9/bld/ui/os2/os2386/ui.lib(/mnt/sda5/.user/root/src/openwatcom-1.9/bld/ui/c/uiledit.c)
0002:0000f209  uiedittrim_
0002:0000f21b* uieditmarking_
0002:0000f24f  uibegedit_
0002:0000f363  uieditpushlist_
0002:0000f377  uieditpoplist_
0002:0000f3cd  uiledit_
0002:0000f4c1* uieditinsert_
0002:0000f53d  uiendedit_
0002:0000f585  uieditisdirty_
0002:0000f5ac* uieditautoclear_
0002:0000f5c1* uieditcursor_
0002:0000f5d2* uieditdirty_
0002:0000f5dc* uieditclean_
0003:00000c10+ _UIEdit
Module: /mnt/sda5/.user/root/src/openwatcom-1.9/bld/ui/os2/os2386/ui.lib(/mnt/sda5/.user/root/src/openwatcom-1.9/bld/ui/c/uidchfld.c)
0002:0000f5e6  uidialogchangefield_
Module: /mnt/sda5/.user/root/src/openwatcom-1.9/bld/ui/os2/os2386/ui.lib(/mnt/sda5/.user/root/src/openwatcom-1.9/bld/ui/c/uidevent.c)
0002:0000f5e7  uidialogevent_
Module: /mnt/sda5/.user/root/src/openwatcom-1.9/rel2/lib386/os2/clib3r.lib(mbsnbcpy.c)
0002:0000f5f0  _mbsnbcpy_
Module: /mnt/sda5/.user/root/src/openwatcom-1.9/rel2/lib386/os2/clib3r.lib(mbisdbcs.c)
0003:000014f0  ___IsDBCS
Module: /mnt/sda5/.user/root/src/openwatcom-1.9/rel2/lib386/os2/clib3r.lib(mbislead.c)
0002:0000f650* _ismbblead_
0003:000014f4  ___MBCSIsTable
Module: /mnt/sda5/.user/root/src/openwatcom-1.9/rel2/lib386/os2/clib3r.lib(initfile.c)
0002:0000f6a0  __InitFiles_
Module: /mnt/sda5/.user/root/src/openwatcom-1.9/rel2/lib386/os2/clib3r.lib(ioexit.c)
0002:0000f7a0* fcloseall_
0002:0000f7b0  __full_io_exit_
Module: /mnt/sda5/.user/root/src/openwatcom-1.9/rel2/lib386/os2/clib3r.lib(fputc.c)
0002:0000f7c0  fputc_
Module: /mnt/sda5/.user/root/src/openwatcom-1.9/rel2/lib386/os2/clib3r.lib(ioalloc.c)
0002:0000f8a0  __ioalloc_
Module: /mnt/sda5/.user/root/src/openwatcom-1.9/rel2/lib386/os2/clib3r.lib(prtf.c)
0002:0000f940  __prtf_
Module: /mnt/sda5/.user/root/src/openwatcom-1.9/rel2/lib386/os2/clib3r.lib(flush.c)
0002:00010610  __flush_
Module: /mnt/sda5/.user/root/src/openwatcom-1.9/rel2/lib386/os2/clib3r.lib(itsto32.c)
0002:00010710  __init_threadstksize_
Module: /mnt/sda5/.user/root/src/openwatcom-1.9/bld/ui/os2/os2386/ui.lib(/mnt/sda5/.user/root/src/openwatcom-1.9/bld/ui/os2/c/uisnow.c)
0002:0001071b* vertretrace_
0002:0001071c  issnow_
Module: /mnt/sda5/.user/root/src/openwatcom-1.9/bld/ui/os2/os2386/ui.lib(/mnt/sda5/.user/root/src/openwatcom-1.9/bld/ui/c/uifar.c)
0002:0001072d  _farfill
0002:00010749  _farcopy
0002:00010765  _farstring
0002:000107ab  _farattrib
0002:000107c7  _farattrflip
Module: /mnt/sda5/.user/root/src/openwatcom-1.9/bld/ui/os2/os2386/ui.lib(/mnt/sda5/.user/root/src/openwatcom-1.9/bld/ui/c/uiarea.c)
0002:000107e3  dividearea_
Module: /mnt/sda5/.user/root/src/openwatcom-1.9/bld/ui/os2/os2386/ui.lib(/mnt/sda5/.user/root/src/openwatcom-1.9/bld/ui/c/uimem.c)
0002:00010997  faralloc_
0002:0001099c  farfree_
Module: /mnt/sda5/.user/root/src/openwatcom-1.9/rel2/lib386/os2/clib3r.lib(initrtns.c)
0002:000109c0  __InitRtns
0002:00010a10  __FiniRtns
Module: /mnt/sda5/.user/root/src/openwatcom-1.9/rel2/lib386/os2/clib3r.lib(mthrdini.c)
0002:00010a70  __InitThreadData_
0003:00000c2c  ___ThreadDataSize
Module: /mnt/sda5/.user/root/src/openwatcom-1.9/rel2/lib386/os2/clib3r.lib(cmain386.c)
0002:00010a90  __CMain
Module: /mnt/sda5/.user/root/src/openwatcom-1.9/rel2/lib386/os2/clib3r.lib(dosseg)
0000:00001234  __DOSseg__
Module: /mnt/sda5/.user/root/src/openwatcom-1.9/rel2/lib386/os2/clib3r.lib(crwdata)
0003:00000c74  __osmajor
0003:00000c75  __osminor
0003:00000c40* __LpDllName
0003:00000c44* __LpwCmdLine
0003:00000c48* __LpwPgmName
0003:00000c4c* __LpwDllName
0003:00000c38  __LpCmdLine
0003:00000c3c  __LpPgmName
0003:00000c30* __dynend
0003:00000c34  __curbrk
0003:00000c50* __STACKLOW
0003:00000c54* __STACKTOP
0003:00000c58  __ASTACKSIZ
0003:00000c5c  __ASTACKPTR
0003:00000c60* __cbyte
0003:00000c64* __cbyte2
0003:00000c68* __child
0003:00000c6e  __Envptr
0003:00000c72* __Envseg
0003:00000c6c* __no87
0003:00000c76* ___FPE_handler
Module: /mnt/sda5/.user/root/src/openwatcom-1.9/rel2/lib386/os2/clib3r.lib(histsplt.c)
0003:000015f8  ___historical_splitparms
Module: /mnt/sda5/.user/root/src/openwatcom-1.9/rel2/lib386/os2/clib3r.lib(___argc.c)
0003:000015fc  ____Argc
0003:00001600  ____Argv
Module: /mnt/sda5/.user/root/src/openwatcom-1.9/rel2/lib386/os2/clib3r.lib(setenvp.c)
0002:00010ae0  __setenvp_
0002:00010ba0  __freeenvp_
Module: /mnt/sda5/.user/root/src/openwatcom-1.9/rel2/lib386/os2/clib3r.lib(toupper.c)
0002:00010bf0  toupper_
Module: /mnt/sda5/.user/root/src/openwatcom-1.9/rel2/lib386/os2/clib3r.lib(mbinit.c)
0002:00010c38  __mbinit_
0003:00000c7c  ___MBCodePage
Module: /mnt/sda5/.user/root/src/openwatcom-1.9/rel2/lib386/os2/clib3r.lib(mbdtoupp.c)
0002:00010d30  _mbdtoupper_
Module: /mnt/sda5/.user/root/src/openwatcom-1.9/bld/ui/os2/os2386/ui.lib(/mnt/sda5/.user/root/src/openwatcom-1.9/bld/ui/c/uibpix.c)
0002:00010d42  bpixel_
Module: /mnt/sda5/.user/root/src/openwatcom-1.9/bld/ui/os2/os2386/ui.lib(/mnt/sda5/.user/root/src/openwatcom-1.9/bld/ui/c/uiev.c)
0002:00010d7c  uidoneevent_
0002:00010d7c  uistartevent_
Module: /mnt/sda5/.user/root/src/openwatcom-1.9/bld/ui/os2/os2386/ui.lib(/mnt/sda5/.user/root/src/openwatcom-1.9/bld/ui/c/uibarf.c)
0002:00010d7d  uibarf_
Module: /mnt/sda5/.user/root/src/openwatcom-1.9/rel2/lib386/os2/clib3r.lib(__stos)
0002:00010d80  __STOSB
0002:00010db7* __STOSD
Module: /mnt/sda5/.user/root/src/openwatcom-1.9/rel2/lib386/os2/clib3r.lib(cinit.c)
0002:00010e30  __CommonInit_
0003:00001608  ___hmodule
Module: /mnt/sda5/.user/root/src/openwatcom-1.9/rel2/lib386/os2/clib3r.lib(nonibm.c)
0002:00010e40* __is_nonIBM_
0003:00000c80  ___NonIBM
Module: /mnt/sda5/.user/root/src/openwatcom-1.9/rel2/lib386/os2/clib3r.lib(amblksiz.c)
0003:00000c84  __amblksiz
Module: /mnt/sda5/.user/root/src/openwatcom-1.9/rel2/lib386/os2/clib3r.lib(heapen.c)
0002:00010e60* _heapenable_
0003:00000c88  ___heap_enabled
Module: /mnt/sda5/.user/root/src/openwatcom-1.9/rel2/lib386/os2/clib3r.lib(nheapmin.c)
0002:00010e90  _nheapshrink_
0002:00010e90* _nheapmin_
0002:00010e90* _heapmin_
0002:00010e90* _heapshrink_
Module: /mnt/sda5/.user/root/src/openwatcom-1.9/rel2/lib386/os2/clib3r.lib(xmsgo32.c)
0002:00010f80+ __exit_with_msg_
0002:00010fd0  __fatal_runtime_error_
Module: /mnt/sda5/.user/root/src/openwatcom-1.9/rel2/lib386/os2/clib3r.lib(hdlman.c)
0002:00010ff0* __set_handles_
0002:00011000* _grow_handles_
0003:00000c8c  ___NHandles
Module: /mnt/sda5/.user/root/src/openwatcom-1.9/bld/ui/os2/os2386/ui.lib(/mnt/sda5/.user/root/src/openwatcom-1.9/bld/ui/c/uivline.c)
0002:00011184  uiveditevent_
0002:00011310* uiveditline_
0002:00011336  uiveditinit_
0002:00011382  uiveditfini_
0003:00000c90  _LineEvents
Module: /mnt/sda5/.user/root/src/openwatcom-1.9/rel2/lib386/os2/clib3r.lib(memmove.c)
0002:00011390  memmove_
Module: /mnt/sda5/.user/root/src/openwatcom-1.9/rel2/lib386/os2/clib3r.lib(fclose.c)
0002:000113f0+ __doclose_
0002:00011490  __shutdown_stream_
0002:000114b0* fclose_
0003:0000160c+ ___RmTmpFileFn
Module: /mnt/sda5/.user/root/src/openwatcom-1.9/rel2/lib386/os2/clib3r.lib(freefp.c)
0002:00011500  __freefp_
0002:00011550  __purgefp_
Module: /mnt/sda5/.user/root/src/openwatcom-1.9/rel2/lib386/os2/clib3r.lib(chktty.c)
0002:00011580  __chktty_
Module: /mnt/sda5/.user/root/src/openwatcom-1.9/rel2/lib386/os2/clib3r.lib(wctomb.c)
0002:000115c0  wctomb_
Module: /mnt/sda5/.user/root/src/openwatcom-1.9/rel2/lib386/os2/clib3r.lib(itoa.c)
0002:000115f0+ utoa_
0002:00011640  itoa_
Module: /mnt/sda5/.user/root/src/openwatcom-1.9/rel2/lib386/os2/clib3r.lib(strupr.c)
0002:00011670  strupr_
Module: /mnt/sda5/.user/root/src/openwatcom-1.9/rel2/lib386/os2/clib3r.lib(noefgfmt.c)
0003:00000cbc  ___EFG_printf
0003:00000cc0* ___EFG_scanf
Module: /mnt/sda5/.user/root/src/openwatcom-1.9/rel2/lib386/os2/clib3r.lib(lltoa.c)
0002:000116e0  ulltoa_
0002:00011750* lltoa_
Module: /mnt/sda5/.user/root/src/openwatcom-1.9/rel2/lib386/os2/clib3r.lib(ltoa.c)
0002:00011780  ultoa_
0002:000117d0* ltoa_
Module: /mnt/sda5/.user/root/src/openwatcom-1.9/rel2/lib386/os2/clib3r.lib(fsync.c)
0002:00011800  fsync_
Module: /mnt/sda5/.user/root/src/openwatcom-1.9/rel2/lib386/os2/clib3r.lib(qwrit.c)
0002:00011830  __qwrite_
Module: /mnt/sda5/.user/root/src/openwatcom-1.9/rel2/lib386/os2/clib3r.lib(fmemmove.c)
0002:000118d0  _fmemmove_
Module: /mnt/sda5/.user/root/src/openwatcom-1.9/bld/ui/os2/os2386/ui.lib(/mnt/sda5/.user/root/src/openwatcom-1.9/bld/ui/c/uifmem.c)
0002:00011960  uifaralloc_
0002:00011968  uifarfree_
Module: /mnt/sda5/.user/root/src/openwatcom-1.9/rel2/lib386/os2/clib3r.lib(exit.c)
0002:0001196d+ __null_int23_exit_
0002:0001196e  exit_
0002:000119be* _exit_
0003:00000cc4+ ___int23_exit
0003:00000cc8+ ___FPE_handler_exit
Module: /mnt/sda5/.user/root/src/openwatcom-1.9/rel2/lib386/os2/clib3r.lib(clearenv.c)
0002:000119e0  clearenv_
Module: /mnt/sda5/.user/root/src/openwatcom-1.9/rel2/lib386/os2/clib3r.lib(enterdb.c)
0002:00011a70  __EnterWVIDEO_
0003:00000ccc+ ___WD_Present
Module: /mnt/sda5/.user/root/src/openwatcom-1.9/bld/ui/os2/os2386/ui.lib(/mnt/sda5/.user/root/src/openwatcom-1.9/bld/ui/c/uipad.c)
0002:00011a96  uipadblanks_
Module: /mnt/sda5/.user/root/src/openwatcom-1.9/bld/ui/os2/os2386/ui.lib(/mnt/sda5/.user/root/src/openwatcom-1.9/bld/ui/c/uivedit.c)
0002:00011b03+ secondbyte_
0002:00011b1e  uieditevent_
Module: /mnt/sda5/.user/root/src/openwatcom-1.9/rel2/lib386/os2/clib3r.lib(alphabet.c)
0003:00000004  ___Alphabet


                        +----------------------+
                        |   Imported Symbols   |
                        +----------------------+

Symbol                              Module
======                              ======

MOU16GETNUMQUEEL                    MOUCALLS
MOU16READEVENTQUE                   MOUCALLS
MOU16OPEN                           MOUCALLS
MOU16GETNUMBUTTONS                  MOUCALLS
MOU16SETEVENTMASK                   MOUCALLS
DosGetInfoBlocks                    DOSCALLS
MOU16CLOSE                          MOUCALLS
DosFindClose                        DOSCALLS
DosFindFirst                        DOSCALLS
DosFindNext                         DOSCALLS
DosRead                             DOSCALLS
DosWrite                            DOSCALLS
DosSetFilePtr                       DOSCALLS
DosOpen                             DOSCALLS
DosClose                            DOSCALLS
DosQueryPathInfo                    DOSCALLS
DosQueryCurrentDir                  DOSCALLS
DosQueryCurrentDisk                 DOSCALLS
VIO16GETMODE                        VIOCALLS
VIO16GETCONFIG                      VIOCALLS
VIO16GETBUF                         VIOCALLS
VIO16SHOWBUF                        VIOCALLS
VIO16GETCURTYPE                     VIOCALLS
VIO16SETCURTYPE                     VIOCALLS
VIO16SETCURPOS                      VIOCALLS
VIO16GETCURPOS                      VIOCALLS
VIO16READCELLSTR                    VIOCALLS
VIO16WRTNCELL                       VIOCALLS
DosFlatToSel                        DOSCALLS
DosSelToFlat                        DOSCALLS
DosQuerySysInfo                     DOSCALLS
DosSleep                            DOSCALLS
DosExit                             DOSCALLS
KBD16CHARIN                         KBDCALLS
KBD16SETSTATUS                      KBDCALLS
KBD16GETSTATUS                      KBDCALLS
DosAllocMem                         DOSCALLS
DosSetRelMaxFH                      DOSCALLS
DosQueryModuleHandle                DOSCALLS
DosQueryProcAddr                    DOSCALLS
DosQueryHType                       DOSCALLS
DosQueryDBCSEnv                     NLS
DosQueryCp                          DOSCALLS
DosFreeMem                          DOSCALLS
DosResetBuffer                      DOSCALLS


                        +--------------------+
                        |   Libraries Used   |
                        +--------------------+

/mnt/sda5/.user/root/src/openwatcom-1.9/bld/ui/os2/os2386/ui.lib
/mnt/sda5/.user/root/src/openwatcom-1.9/rel2/lib386/os2/clib3r.lib
/mnt/sda5/.user/root/src/openwatcom-1.9/rel2/lib386/os2/os2386.lib


                        +-----------------------+
                        |   Linker Statistics   |
                        +-----------------------+

Stack size:  00012000 (73728.)
Memory size:  00025558 (152920.)
Entry point address: 0002:00004d4c
Link time: 00:00.00
