Open Watcom Linker Version 1.9
Portions Copyright (c) 1985-2002 Sybase, Inc. All Rights Reserved.
Created on:       12/12/16 02:39:56
Executable Image: net.dll
creating a Windows 16-bit dynamic link library


                        +------------+
                        |   Groups   |
                        +------------+

Group                           Address              Size
=====                           =======              ====

DGROUP                          0002:0000            0000052d



                        +--------------+
                        |   Segments   |
                        +--------------+

Segment                Class          Group          Address         Size
=======                =====          =====          =======         ====

_TEXT                  CODE           AUTO           0001:0000       000008a8
FAR_DATA               FAR_DATA       AUTO           0002:0000       00000000
_NULL                  BEGDATA        DGROUP         0002:0000       00000010
_DATA                  DATA           DGROUP         0002:0010       0000004c
XIB                    DATA           DGROUP         0002:005c       00000000
XI                     DATA           DGROUP         0002:005c       00000000
XIE                    DATA           DGROUP         0002:005c       00000000
YIB                    DATA           DGROUP         0002:005c       00000000
YI                     DATA           DGROUP         0002:005c       00000000
YIE                    DATA           DGROUP         0002:005c       00000000
DATA                   DATA           DGROUP         0002:005c       00000000
CONST                  DATA           DGROUP         0002:005c       0000006e
STRINGS                DATA           DGROUP         0002:00ca       00000000
CONST2                 DATA           DGROUP         0002:00ca       00000000
_BSS                   BSS            DGROUP         0002:00d0       0000045d


                        +----------------+
                        |   Memory Map   |
                        +----------------+

* = unreferenced symbol
+ = symbol only referenced locally

Address        Symbol
=======        ======

Module: /mnt/sda5/.user/root/src/openwatcom-1.9/rel2/lib286/win/libentry.obj(/mnt/sda5/.user/root/src/openwatcom-1.9/bld/clib/startup/a/libentry.asm)
0000:0006*     pLocalHeap
0000:0008*     pAtomTable
0000:000a*     pStackTop
0000:000c*     pStackMin
0000:000e*     pStackBot
0002:0000*     __nullarea
0002:0012*     __curbrk
0002:0014*     __psp
0002:0016*     __osmajor
0002:0017*     __osminor
0002:0018*     __osmode
0002:000a*     __STACKLOW
0002:000c*     __STACKTOP
0002:001a*     __cbyte
0002:001c*     __child
0002:001e*     __no87
0002:0019*     __HShift
0002:0020*     __get_ovl_stack
0002:0024*     __restore_ovl_stack
0002:0028*     ___FPE_handler
0002:002c*     __LpCmdLine
0000:0000*     _large_code_
0001:0000*     LibEntry
0001:0000      __DLLstart_
0001:005a*     __exit_
0001:0073      __GETDS
Module: winstrt.obj(/mnt/sda5/.user/root/src/openwatcom-1.9/bld/trap/common/win/winstrt.c)
0001:0080      LIBMAIN
0001:00ae      WEP
0002:00d0+     _WindowsFlags
0002:00d4+     _DesktopWindow
0002:00d6+     _Instance
Module: mxutil.obj(/mnt/sda5/.user/root/src/openwatcom-1.9/bld/trap/common/mxutil.c)
0001:00d0*     GetInPtr_
0001:00fc      GetOutPtr_
0001:0128*     GetTotalSize_
0002:00e0      _In_Mx_Ptr
0002:00e4      _Out_Mx_Ptr
0002:00e8      _Out_Mx_Num
0002:00e9      _In_Mx_Num
Module: remote.obj(/mnt/sda5/.user/root/src/openwatcom-1.9/bld/trap/common/remote.c)
0001:02a2      TRAPINIT
0001:0348      TRAPREQUEST
0001:03c2      TRAPFINI
Module: winstub.obj(/mnt/sda5/.user/root/src/openwatcom-1.9/bld/trap/common/win/winstub.c)
0001:03e0      INFOFUNCTION
0001:03f0      INPUTHOOK
0001:0400      HARDMODECHECK
0001:0410      GETHWNDFUNC
0001:0420      SETHARDMODE
0001:0430      UNLOCKINPUT
Module: packet.obj(/mnt/sda5/.user/root/src/openwatcom-1.9/bld/trap/common/packet.c)
0001:0440      StartPacket_
0001:0446      PutPacket_
0001:045e*     PutBuffPacket_
0001:0472      AddPacket_
0001:04bc      GetPacket_
0001:04d2      RemovePacket_
0001:0512*     GetPacketBuffPtr_
0001:051c      MaxPacketSize_
Module: netlink.obj(/mnt/sda5/.user/root/src/openwatcom-1.9/bld/trap/net/c/netlink.c)
0002:0034+     _DefLinkName
0001:0520+     GetLanaNum_
0001:058e      RemoteGet_
0001:05ae      RemotePut_
0001:05ec      RemoteConnect_
0001:060e      RemoteDisco_
0001:0622      RemoteLink_
0001:074a      RemoteUnLink_
0002:04ea+     _NetCtlBlk
0002:052a+     _SkipEnum
0002:052c+     _LanaNum
Module: /mnt/sda5/.user/root/src/openwatcom-1.9/rel2/lib286/win/clibc.lib(wallflgs.c)
0002:0054      ___win_alloc_flags
0002:0058      ___win_realloc_flags
Module: /mnt/sda5/.user/root/src/openwatcom-1.9/rel2/lib286/win/clibc.lib(initrtns.c)
0001:07d4      __FInitRtns
0001:07de+     __InitRtns
0001:083a      __FFiniRtns
0001:0844+     __FiniRtns
Module: /mnt/sda5/.user/root/src/openwatcom-1.9/rel2/lib286/win/clibc.lib(cmodel)
0001:08a8      _small_code_
0001:08a8*     CodeModelMismatch
Module: /mnt/sda5/.user/root/src/openwatcom-1.9/rel2/lib286/win/clibc.lib(sgdef086)
0002:005c      __Start_XI
0002:005c      __End_XI
0002:005c      __Start_YI
0002:005c      __End_YI


                        +----------------------+
                        |   Imported Symbols   |
                        +----------------------+

Symbol                              Module
======                              ======

__AHSHIFT                           KERNEL
LOCALINIT                           KERNEL
GETDESKTOPWINDOW                    USER
GETWINFLAGS                         KERNEL
NETBIOSCALL                         KERNEL


                        +--------------------+
                        |   Libraries Used   |
                        +--------------------+

/mnt/sda5/.user/root/src/openwatcom-1.9/rel2/lib286/win/windows.lib
/mnt/sda5/.user/root/src/openwatcom-1.9/rel2/lib286/win/clibc.lib


                        +-----------------------+
                        |   Linker Statistics   |
                        +-----------------------+

Stack size:  0000 (0.)
Memory size:  0dd5 (3541.)
Link time: 00:00.00
