Open Watcom Linker Version 1.9
Portions Copyright (c) 1985-2002 Sybase, Inc. All Rights Reserved.
Created on:       12/12/16 02:21:36
Executable Image: mt7r19d.dll
creating a Windows NT character-mode dynamic link library


                        +------------+
                        |   Groups   |
                        +------------+

Group                           Address              Size
=====                           =======              ====

.idata                          6ff08000             00000320
DGROUP                          6ff09000             00001720



                        +--------------+
                        |   Segments   |
                        +--------------+

Segment                Class          Group          Address         Size
=======                =====          =====          =======         ====

BEGTEXT                CODE           AUTO           6ff01000        00000007
_TEXT                  CODE           AUTO           6ff01010        000068c8
TRANSFER CODE          CODE           AUTO           6ff078d8        000000b4
.idata                 .idata         .idata         6ff08000        00000320
_NULL                  BEGDATA        DGROUP         6ff09000        00000004
_AFTERNULL             BEGDATA        DGROUP         6ff09004        00000000
CONST                  DATA           DGROUP         6ff09004        0000013c
CONST2                 DATA           DGROUP         6ff09140        00000000
_DATA                  DATA           DGROUP         6ff09140        000001f8
TIB                    DATA           DGROUP         6ff09338        00000000
TI                     DATA           DGROUP         6ff09338        00000000
TIE                    DATA           DGROUP         6ff09338        00000000
XIB                    DATA           DGROUP         6ff09338        00000000
XI                     DATA           DGROUP         6ff09338        00000000
XIE                    DATA           DGROUP         6ff09338        00000000
YIB                    DATA           DGROUP         6ff09338        00000000
YI                     DATA           DGROUP         6ff09338        00000000
YIE                    DATA           DGROUP         6ff09338        00000000
DATA                   DATA           DGROUP         6ff09338        00000000
_BSS                   BSS            DGROUP         6ff0a000        00000714
STACK                  STACK          DGROUP         6ff0a720        00000000


                        +----------------+
                        |   Memory Map   |
                        +----------------+

* = unreferenced symbol
+ = symbol only referenced locally

Address        Symbol
=======        ======

Module: /mnt/sda5/.user/root/src/openwatcom-1.9/bld/clib/startup/library/winnt.386/mf_rd/clibdwnt.obj(/mnt/sda5/.user/root/src/openwatcom-1.9/bld/clib/startup/c/clibdwnt.c)
6ff01010       _LibMain@12
Module: ../../../clib/winnt.386/mf_rd/clbrdlld.lib(dstrt386)
6ff01030       __DLLstart_
6ff01030*      __DLLstartw_
6ff01030*      _DllMainCRTStartup@12
6ff01030*      _wDllMainCRTStartup@12
Module: /mnt/sda5/.user/root/src/openwatcom-1.9/bld/mathlib/library/winnt.387/mf_rd.dll/math387r.lib(/mnt/sda5/.user/root/src/openwatcom-1.9/bld/mathlib/a/__87ldi2.asm)
6ff0108c       __87LDI2
6ff0108c       __87LDI2_
Module: /mnt/sda5/.user/root/src/openwatcom-1.9/bld/mathlib/library/winnt.387/mf_rd.dll/math387r.lib(/mnt/sda5/.user/root/src/openwatcom-1.9/bld/mathlib/a/__87ldi4.asm)
6ff010ac       __87LDI4
6ff010ac       __87LDI4_
Module: /mnt/sda5/.user/root/src/openwatcom-1.9/bld/mathlib/library/winnt.387/mf_rd.dll/math387r.lib(/mnt/sda5/.user/root/src/openwatcom-1.9/bld/mathlib/a/acosl87.asm)
6ff010cc       acosl_
Module: /mnt/sda5/.user/root/src/openwatcom-1.9/bld/mathlib/library/winnt.387/mf_rd.dll/math387r.lib(/mnt/sda5/.user/root/src/openwatcom-1.9/bld/mathlib/a/asinl87.asm)
6ff010d8       asinl_
Module: /mnt/sda5/.user/root/src/openwatcom-1.9/bld/mathlib/library/winnt.387/mf_rd.dll/math387r.lib(/mnt/sda5/.user/root/src/openwatcom-1.9/bld/mathlib/a/atanl87.asm)
6ff010e4       atanl_
6ff010f0       atan2l_
Module: /mnt/sda5/.user/root/src/openwatcom-1.9/bld/mathlib/library/winnt.387/mf_rd.dll/math387r.lib(/mnt/sda5/.user/root/src/openwatcom-1.9/bld/mathlib/c/atof.c)
6ff01100       atof_
Module: /mnt/sda5/.user/root/src/openwatcom-1.9/bld/mathlib/library/winnt.387/mf_rd.dll/math387r.lib(/mnt/sda5/.user/root/src/openwatcom-1.9/bld/mathlib/c/cabs.c)
6ff0112b       cabs_
Module: /mnt/sda5/.user/root/src/openwatcom-1.9/bld/mathlib/library/winnt.387/mf_rd.dll/math387r.lib(/mnt/sda5/.user/root/src/openwatcom-1.9/bld/mathlib/c/ceil.c)
6ff01166       ceil_
Module: /mnt/sda5/.user/root/src/openwatcom-1.9/bld/mathlib/library/winnt.387/mf_rd.dll/math387r.lib(/mnt/sda5/.user/root/src/openwatcom-1.9/bld/mathlib/a/fchop87.asm)
6ff0119c       __CHP
Module: /mnt/sda5/.user/root/src/openwatcom-1.9/bld/mathlib/library/winnt.387/mf_rd.dll/math387r.lib(/mnt/sda5/.user/root/src/openwatcom-1.9/bld/mathlib/c/clear87.c)
6ff011b3       _status87_
6ff011e7       _clear87_
Module: /mnt/sda5/.user/root/src/openwatcom-1.9/bld/mathlib/library/winnt.387/mf_rd.dll/math387r.lib(/mnt/sda5/.user/root/src/openwatcom-1.9/bld/mathlib/c/cnvd2f.c)
6ff01221       __cnvd2f_
Module: /mnt/sda5/.user/root/src/openwatcom-1.9/bld/mathlib/library/winnt.387/mf_rd.dll/math387r.lib(/mnt/sda5/.user/root/src/openwatcom-1.9/bld/mathlib/c/cnvd2ld.c)
6ff012e5       __cnvd2ld_
6ff0130b       __get__cnvd2ld_
Module: /mnt/sda5/.user/root/src/openwatcom-1.9/bld/mathlib/library/winnt.387/mf_rd.dll/math387r.lib(/mnt/sda5/.user/root/src/openwatcom-1.9/bld/mathlib/c/cnvs2d.c)
6ff0132d       __cnvs2d_
6ff01358       __get__cnvs2d_
Module: /mnt/sda5/.user/root/src/openwatcom-1.9/bld/mathlib/library/winnt.387/mf_rd.dll/math387r.lib(/mnt/sda5/.user/root/src/openwatcom-1.9/bld/mathlib/a/exp87.asm)
6ff013e3       exp_
6ff0137c       __@DEXP1
6ff01384       IF@EXP
6ff01384       IF@DEXP
6ff01386       __@DEXP
Module: /mnt/sda5/.user/root/src/openwatcom-1.9/bld/mathlib/library/winnt.387/mf_rd.dll/math387r.lib(/mnt/sda5/.user/root/src/openwatcom-1.9/bld/mathlib/c/difftime.c)
6ff013ef       difftime_
Module: /mnt/sda5/.user/root/src/openwatcom-1.9/bld/mathlib/library/winnt.387/mf_rd.dll/math387r.lib(/mnt/sda5/.user/root/src/openwatcom-1.9/bld/mathlib/c/inf_nan.c)
6ff01433       ___f_infinity
6ff01437       ___f_posqnan
6ff0143b       ___d_infinity
6ff01443       ___d_posqnan
6ff0144b       ___ld_infinity
6ff01453       ___ld_posqnan
Module: /mnt/sda5/.user/root/src/openwatcom-1.9/bld/mathlib/library/winnt.387/mf_rd.dll/math387r.lib(/mnt/sda5/.user/root/src/openwatcom-1.9/bld/mathlib/a/sqrt87.asm)
6ff0145c       sqrt_
6ff0148c       IF@SQRT
6ff0148c       IF@DSQRT
6ff0148e       __@DSQRT
Module: /mnt/sda5/.user/root/src/openwatcom-1.9/bld/mathlib/library/winnt.387/mf_rd.dll/math387r.lib(/mnt/sda5/.user/root/src/openwatcom-1.9/bld/mathlib/alias/a/_i__ecvt.asm)
6ff014c0       __ecvt_
Module: /mnt/sda5/.user/root/src/openwatcom-1.9/bld/mathlib/library/winnt.387/mf_rd.dll/math387r.lib(/mnt/sda5/.user/root/src/openwatcom-1.9/bld/mathlib/alias/a/_i_ecvt_.asm)
6ff014c8       _ecvt_
Module: /mnt/sda5/.user/root/src/openwatcom-1.9/bld/mathlib/library/winnt.387/mf_rd.dll/math387r.lib(/mnt/sda5/.user/root/src/openwatcom-1.9/bld/mathlib/c/efcvt.c)
6ff01548       ecvt_
6ff0159e       fcvt_
Module: /mnt/sda5/.user/root/src/openwatcom-1.9/bld/mathlib/library/winnt.387/mf_rd.dll/math387r.lib(/mnt/sda5/.user/root/src/openwatcom-1.9/bld/mathlib/c/efgfmt.c)
6ff015f9       _EFG_Format_
6ff017ac       __get_EFG_Format_
Module: /mnt/sda5/.user/root/src/openwatcom-1.9/bld/mathlib/library/winnt.387/mf_rd.dll/math387r.lib(/mnt/sda5/.user/root/src/openwatcom-1.9/bld/mathlib/c/evalpoly.c)
6ff017ce       _EvalPoly_
6ff01827       _OddPoly_
Module: /mnt/sda5/.user/root/src/openwatcom-1.9/bld/mathlib/library/winnt.387/mf_rd.dll/math387r.lib(/mnt/sda5/.user/root/src/openwatcom-1.9/bld/mathlib/alias/a/_i__fcvt.asm)
6ff01868       __fcvt_
Module: /mnt/sda5/.user/root/src/openwatcom-1.9/bld/mathlib/library/winnt.387/mf_rd.dll/math387r.lib(/mnt/sda5/.user/root/src/openwatcom-1.9/bld/mathlib/alias/a/_i_fcvt_.asm)
6ff01870       _fcvt_
Module: /mnt/sda5/.user/root/src/openwatcom-1.9/bld/mathlib/library/winnt.387/mf_rd.dll/math387r.lib(/mnt/sda5/.user/root/src/openwatcom-1.9/bld/mathlib/c/fdclass.c)
6ff01875       _FDClass_
Module: /mnt/sda5/.user/root/src/openwatcom-1.9/bld/mathlib/library/winnt.387/mf_rd.dll/math387r.lib(/mnt/sda5/.user/root/src/openwatcom-1.9/bld/mathlib/c/fdsign.c)
6ff01909       _FDSign_
Module: /mnt/sda5/.user/root/src/openwatcom-1.9/bld/mathlib/library/winnt.387/mf_rd.dll/math387r.lib(/mnt/sda5/.user/root/src/openwatcom-1.9/bld/mathlib/c/finite.c)
6ff0193b       _finite_
Module: /mnt/sda5/.user/root/src/openwatcom-1.9/bld/mathlib/library/winnt.387/mf_rd.dll/math387r.lib(/mnt/sda5/.user/root/src/openwatcom-1.9/bld/mathlib/alias/a/_i_finit.asm)
6ff0197c       finite_
Module: /mnt/sda5/.user/root/src/openwatcom-1.9/bld/mathlib/library/winnt.387/mf_rd.dll/math387r.lib(/mnt/sda5/.user/root/src/openwatcom-1.9/bld/mathlib/c/ldclass.c)
6ff01981       __LDClass_
6ff01a0e       _FLClass_
Module: /mnt/sda5/.user/root/src/openwatcom-1.9/bld/mathlib/library/winnt.387/mf_rd.dll/math387r.lib(/mnt/sda5/.user/root/src/openwatcom-1.9/bld/mathlib/c/floor.c)
6ff01a36       floor_
Module: /mnt/sda5/.user/root/src/openwatcom-1.9/bld/mathlib/library/winnt.387/mf_rd.dll/math387r.lib(/mnt/sda5/.user/root/src/openwatcom-1.9/bld/mathlib/c/flsign.c)
6ff01a8c*      __LDSign_
6ff01ab7       _FLSign_
Module: /mnt/sda5/.user/root/src/openwatcom-1.9/bld/mathlib/library/winnt.387/mf_rd.dll/math387r.lib(/mnt/sda5/.user/root/src/openwatcom-1.9/bld/mathlib/c/frexp.c)
6ff01aed       frexp_
Module: /mnt/sda5/.user/root/src/openwatcom-1.9/bld/mathlib/library/winnt.387/mf_rd.dll/math387r.lib(/mnt/sda5/.user/root/src/openwatcom-1.9/bld/mathlib/c/fsclass.c)
6ff01b66       _FSClass_
Module: /mnt/sda5/.user/root/src/openwatcom-1.9/bld/mathlib/library/winnt.387/mf_rd.dll/math387r.lib(/mnt/sda5/.user/root/src/openwatcom-1.9/bld/mathlib/c/fssign.c)
6ff01be4       _FSSign_
Module: /mnt/sda5/.user/root/src/openwatcom-1.9/bld/mathlib/library/winnt.387/mf_rd.dll/math387r.lib(/mnt/sda5/.user/root/src/openwatcom-1.9/bld/mathlib/alias/a/_i__gcvt.asm)
6ff01c10       __gcvt_
Module: /mnt/sda5/.user/root/src/openwatcom-1.9/bld/mathlib/library/winnt.387/mf_rd.dll/math387r.lib(/mnt/sda5/.user/root/src/openwatcom-1.9/bld/mathlib/alias/a/_i_gcvt_.asm)
6ff01c18       _gcvt_
Module: /mnt/sda5/.user/root/src/openwatcom-1.9/bld/mathlib/library/winnt.387/mf_rd.dll/math387r.lib(/mnt/sda5/.user/root/src/openwatcom-1.9/bld/mathlib/c/gcvt.c)
6ff01c1d       gcvt_
Module: /mnt/sda5/.user/root/src/openwatcom-1.9/bld/mathlib/library/winnt.387/mf_rd.dll/math387r.lib(/mnt/sda5/.user/root/src/openwatcom-1.9/bld/mathlib/c/hypot.c)
6ff01d0a       hypot_
Module: /mnt/sda5/.user/root/src/openwatcom-1.9/bld/mathlib/library/winnt.387/mf_rd.dll/math387r.lib(/mnt/sda5/.user/root/src/openwatcom-1.9/bld/mathlib/a/fabs87.asm)
6ff01d48       fabs_
6ff01d55       IF@DABS
6ff01d55       IF@ABS
Module: /mnt/sda5/.user/root/src/openwatcom-1.9/bld/mathlib/library/winnt.387/mf_rd.dll/math387r.lib(/mnt/sda5/.user/root/src/openwatcom-1.9/bld/mathlib/a/acos87.asm)
6ff01d97       acos_
6ff01d58       IF@DACOS
6ff01d58       IF@ACOS
Module: /mnt/sda5/.user/root/src/openwatcom-1.9/bld/mathlib/library/winnt.387/mf_rd.dll/math387r.lib(/mnt/sda5/.user/root/src/openwatcom-1.9/bld/mathlib/a/acosh87.asm)
6ff01dde       acosh_
6ff01da4       IF@DACOSH
6ff01da4       IF@ACOSH
Module: /mnt/sda5/.user/root/src/openwatcom-1.9/bld/mathlib/library/winnt.387/mf_rd.dll/math387r.lib(/mnt/sda5/.user/root/src/openwatcom-1.9/bld/mathlib/a/asin87.asm)
6ff01e07       asin_
6ff01dec       IF@DASIN
6ff01dec       IF@ASIN
Module: /mnt/sda5/.user/root/src/openwatcom-1.9/bld/mathlib/library/winnt.387/mf_rd.dll/math387r.lib(/mnt/sda5/.user/root/src/openwatcom-1.9/bld/mathlib/a/asinh87.asm)
6ff01e45       asinh_
6ff01e14       IF@DASINH
6ff01e14       IF@ASINH
Module: /mnt/sda5/.user/root/src/openwatcom-1.9/bld/mathlib/library/winnt.387/mf_rd.dll/math387r.lib(/mnt/sda5/.user/root/src/openwatcom-1.9/bld/mathlib/a/atan87.asm)
6ff01e7e       atan_
6ff01e8a       atan2_
6ff01e54       IF@ATAN
6ff01e54       IF@DATAN
6ff01e69       IF@ATAN2
6ff01e69       IF@DATAN2
Module: /mnt/sda5/.user/root/src/openwatcom-1.9/bld/mathlib/library/winnt.387/mf_rd.dll/math387r.lib(/mnt/sda5/.user/root/src/openwatcom-1.9/bld/mathlib/a/atanh87.asm)
6ff01ef3       atanh_
6ff01e9c       IF@DATANH
6ff01e9c       IF@ATANH
Module: /mnt/sda5/.user/root/src/openwatcom-1.9/bld/mathlib/library/winnt.387/mf_rd.dll/math387r.lib(/mnt/sda5/.user/root/src/openwatcom-1.9/bld/mathlib/c/divc16.c)
6ff01eff       IF@C16Div
Module: /mnt/sda5/.user/root/src/openwatcom-1.9/bld/mathlib/library/winnt.387/mf_rd.dll/math387r.lib(/mnt/sda5/.user/root/src/openwatcom-1.9/bld/mathlib/c/mulc16.c)
6ff02023       IF@C16Mul
Module: /mnt/sda5/.user/root/src/openwatcom-1.9/bld/mathlib/library/winnt.387/mf_rd.dll/math387r.lib(/mnt/sda5/.user/root/src/openwatcom-1.9/bld/mathlib/c/powc16.c)
6ff02081       IF@C16Pow
Module: /mnt/sda5/.user/root/src/openwatcom-1.9/bld/mathlib/library/winnt.387/mf_rd.dll/math387r.lib(/mnt/sda5/.user/root/src/openwatcom-1.9/bld/mathlib/c/powic16.c)
6ff02225       IF@C16PowI
Module: /mnt/sda5/.user/root/src/openwatcom-1.9/bld/mathlib/library/winnt.387/mf_rd.dll/math387r.lib(/mnt/sda5/.user/root/src/openwatcom-1.9/bld/mathlib/c/divc20.c)
6ff02403       IF@C32Div
Module: /mnt/sda5/.user/root/src/openwatcom-1.9/bld/mathlib/library/winnt.387/mf_rd.dll/math387r.lib(/mnt/sda5/.user/root/src/openwatcom-1.9/bld/mathlib/c/mulc20.c)
6ff02527       IF@C32Mul
Module: /mnt/sda5/.user/root/src/openwatcom-1.9/bld/mathlib/library/winnt.387/mf_rd.dll/math387r.lib(/mnt/sda5/.user/root/src/openwatcom-1.9/bld/mathlib/c/powc20.c)
6ff02585       IF@C32Pow
Module: /mnt/sda5/.user/root/src/openwatcom-1.9/bld/mathlib/library/winnt.387/mf_rd.dll/math387r.lib(/mnt/sda5/.user/root/src/openwatcom-1.9/bld/mathlib/c/powic32.c)
6ff025f7       IF@C32PowI
Module: /mnt/sda5/.user/root/src/openwatcom-1.9/bld/mathlib/library/winnt.387/mf_rd.dll/math387r.lib(/mnt/sda5/.user/root/src/openwatcom-1.9/bld/mathlib/c/divc8.c)
6ff02663       IF@C8Div
Module: /mnt/sda5/.user/root/src/openwatcom-1.9/bld/mathlib/library/winnt.387/mf_rd.dll/math387r.lib(/mnt/sda5/.user/root/src/openwatcom-1.9/bld/mathlib/c/mulc8.c)
6ff0275c       IF@C8Mul
Module: /mnt/sda5/.user/root/src/openwatcom-1.9/bld/mathlib/library/winnt.387/mf_rd.dll/math387r.lib(/mnt/sda5/.user/root/src/openwatcom-1.9/bld/mathlib/c/powc8.c)
6ff027b6       IF@C8Pow
Module: /mnt/sda5/.user/root/src/openwatcom-1.9/bld/mathlib/library/winnt.387/mf_rd.dll/math387r.lib(/mnt/sda5/.user/root/src/openwatcom-1.9/bld/mathlib/c/powic8.c)
6ff02917       IF@C8PowI
Module: /mnt/sda5/.user/root/src/openwatcom-1.9/bld/mathlib/library/winnt.387/mf_rd.dll/math387r.lib(/mnt/sda5/.user/root/src/openwatcom-1.9/bld/mathlib/c/ifcdabs.c)
6ff02a96       IF@CDABS
Module: /mnt/sda5/.user/root/src/openwatcom-1.9/bld/mathlib/library/winnt.387/mf_rd.dll/math387r.lib(/mnt/sda5/.user/root/src/openwatcom-1.9/bld/mathlib/c/ifcdcos.c)
6ff02b6b       IF@CDCOS
Module: /mnt/sda5/.user/root/src/openwatcom-1.9/bld/mathlib/library/winnt.387/mf_rd.dll/math387r.lib(/mnt/sda5/.user/root/src/openwatcom-1.9/bld/mathlib/c/ifcdexp.c)
6ff02bed       IF@CDEXP
Module: /mnt/sda5/.user/root/src/openwatcom-1.9/bld/mathlib/library/winnt.387/mf_rd.dll/math387r.lib(/mnt/sda5/.user/root/src/openwatcom-1.9/bld/mathlib/c/ifcdlog.c)
6ff02c68       IF@CDLOG
Module: /mnt/sda5/.user/root/src/openwatcom-1.9/bld/mathlib/library/winnt.387/mf_rd.dll/math387r.lib(/mnt/sda5/.user/root/src/openwatcom-1.9/bld/mathlib/c/ifcdsin.c)
6ff02cda       IF@CDSIN
Module: /mnt/sda5/.user/root/src/openwatcom-1.9/bld/mathlib/library/winnt.387/mf_rd.dll/math387r.lib(/mnt/sda5/.user/root/src/openwatcom-1.9/bld/mathlib/c/ifcdsqrt.c)
6ff02d5a       IF@CDSQRT
Module: /mnt/sda5/.user/root/src/openwatcom-1.9/bld/mathlib/library/winnt.387/mf_rd.dll/math387r.lib(/mnt/sda5/.user/root/src/openwatcom-1.9/bld/mathlib/a/trig87.asm)
6ff03015       sin_
6ff03009       cos_
6ff03036       tan_
6ff02fc8       IF@COS
6ff02fc8       IF@DCOS
6ff02fd2       IF@SIN
6ff02fd2       IF@DSIN
6ff03021       IF@TAN
6ff03021       IF@DTAN
Module: /mnt/sda5/.user/root/src/openwatcom-1.9/bld/mathlib/library/winnt.387/mf_rd.dll/math387r.lib(/mnt/sda5/.user/root/src/openwatcom-1.9/bld/mathlib/a/trigh87.asm)
6ff03142       sinh_
6ff03136       cosh_
6ff0314e       tanh_
6ff03044       IF@DSINH
6ff03044       IF@SINH
6ff03078       IF@DCOSH
6ff03078       IF@COSH
6ff030b2       IF@DTANH
6ff030b2       IF@TANH
Module: /mnt/sda5/.user/root/src/openwatcom-1.9/bld/mathlib/library/winnt.387/mf_rd.dll/math387r.lib(/mnt/sda5/.user/root/src/openwatcom-1.9/bld/mathlib/a/cotan87.asm)
6ff0315c       IF@DCOTAN
6ff0315c       IF@COTAN
Module: /mnt/sda5/.user/root/src/openwatcom-1.9/bld/mathlib/library/winnt.387/mf_rd.dll/math387r.lib(/mnt/sda5/.user/root/src/openwatcom-1.9/bld/mathlib/a/fmod87.asm)
6ff031a3       fmod_
6ff03188       IF@DFMOD
6ff03188       IF@FMOD
Module: /mnt/sda5/.user/root/src/openwatcom-1.9/bld/mathlib/library/winnt.387/mf_rd.dll/math387r.lib(/mnt/sda5/.user/root/src/openwatcom-1.9/bld/mathlib/a/log87.asm)
6ff03208       log_
6ff03220       log2_
6ff03214       log10_
6ff031b4       IF@LOG
6ff031b4       IF@DLOG
6ff031f4       IF@LOG2
6ff031f4       IF@DLOG2
6ff031fe       IF@LOG10
6ff031fe       IF@DLOG10
Module: /mnt/sda5/.user/root/src/openwatcom-1.9/bld/mathlib/library/winnt.387/mf_rd.dll/math387r.lib(/mnt/sda5/.user/root/src/openwatcom-1.9/bld/mathlib/a/pow87.asm)
6ff03385       pow_
6ff0322c       IF@DPOW
6ff0322c       IF@POW
Module: /mnt/sda5/.user/root/src/openwatcom-1.9/bld/mathlib/library/winnt.387/mf_rd.dll/math387r.lib(/mnt/sda5/.user/root/src/openwatcom-1.9/bld/mathlib/c/powri.c)
6ff03395       IF@POWI
6ff033c4       IF@DPOWI
6ff034cd       IF@PowRI
Module: /mnt/sda5/.user/root/src/openwatcom-1.9/bld/mathlib/library/winnt.387/mf_rd.dll/math387r.lib(/mnt/sda5/.user/root/src/openwatcom-1.9/bld/mathlib/c/powii.c)
6ff034fc       IF@IPOW
6ff035da       IF@PowII
Module: /mnt/sda5/.user/root/src/openwatcom-1.9/bld/mathlib/library/winnt.387/mf_rd.dll/math387r.lib(/mnt/sda5/.user/root/src/openwatcom-1.9/bld/mathlib/c/powrr.c)
6ff03607       IF@PowRR
Module: /mnt/sda5/.user/root/src/openwatcom-1.9/bld/mathlib/library/winnt.387/mf_rd.dll/math387r.lib(/mnt/sda5/.user/root/src/openwatcom-1.9/bld/mathlib/c/powxi.c)
6ff03691       IF@PowXI
Module: /mnt/sda5/.user/root/src/openwatcom-1.9/bld/mathlib/library/winnt.387/mf_rd.dll/math387r.lib(/mnt/sda5/.user/root/src/openwatcom-1.9/bld/mathlib/c/j0.c)
6ff037f5       __P0P
6ff0381d       __P0Q
6ff0384d       __Q0P
6ff03875       __Q0Q
6ff038a5       j0_
Module: /mnt/sda5/.user/root/src/openwatcom-1.9/bld/mathlib/library/winnt.387/mf_rd.dll/math387r.lib(/mnt/sda5/.user/root/src/openwatcom-1.9/bld/mathlib/c/j1.c)
6ff03af4       __P1P
6ff03b1c       __P1Q
6ff03b4c       __Q1P
6ff03b74       __Q1Q
6ff03b9c       j1_
Module: /mnt/sda5/.user/root/src/openwatcom-1.9/bld/mathlib/library/winnt.387/mf_rd.dll/math387r.lib(/mnt/sda5/.user/root/src/openwatcom-1.9/bld/mathlib/c/jn.c)
6ff03d7c       jn_
Module: /mnt/sda5/.user/root/src/openwatcom-1.9/bld/mathlib/library/winnt.387/mf_rd.dll/math387r.lib(/mnt/sda5/.user/root/src/openwatcom-1.9/bld/mathlib/c/ldcvt.c)
6ff04107       _LDScale10x_
6ff046e1       __LDcvt_
Module: /mnt/sda5/.user/root/src/openwatcom-1.9/bld/mathlib/library/winnt.387/mf_rd.dll/math387r.lib(/mnt/sda5/.user/root/src/openwatcom-1.9/bld/mathlib/c/ldexp.c)
6ff04cf7       ldexp_
Module: /mnt/sda5/.user/root/src/openwatcom-1.9/bld/mathlib/library/winnt.387/mf_rd.dll/math387r.lib(/mnt/sda5/.user/root/src/openwatcom-1.9/bld/mathlib/c/math2err.c)
6ff04e40       __math1err_
6ff04e70       __math2err_
Module: /mnt/sda5/.user/root/src/openwatcom-1.9/bld/mathlib/library/winnt.387/mf_rd.dll/math387r.lib(/mnt/sda5/.user/root/src/openwatcom-1.9/bld/mathlib/a/__mtherr.asm)
6ff04fb8       __matherr
Module: /mnt/sda5/.user/root/src/openwatcom-1.9/bld/mathlib/library/winnt.387/mf_rd.dll/math387r.lib(/mnt/sda5/.user/root/src/openwatcom-1.9/bld/mathlib/c/_matherr.c)
6ff05063       _set_matherr_
6ff05086       __rterrmsg_
6ff050ed       _matherr_
6ff09278+      ___matherr_handler
Module: /mnt/sda5/.user/root/src/openwatcom-1.9/bld/mathlib/library/winnt.387/mf_rd.dll/math387r.lib(/mnt/sda5/.user/root/src/openwatcom-1.9/bld/mathlib/c/matherr.c)
6ff05156       matherr_
Module: /mnt/sda5/.user/root/src/openwatcom-1.9/bld/mathlib/library/winnt.387/mf_rd.dll/math387r.lib(/mnt/sda5/.user/root/src/openwatcom-1.9/bld/mathlib/c/qmatherr.c)
6ff051e7       __qmath1err_
6ff0522c       __qmath2err_
Module: /mnt/sda5/.user/root/src/openwatcom-1.9/bld/mathlib/library/winnt.387/mf_rd.dll/math387r.lib(/mnt/sda5/.user/root/src/openwatcom-1.9/bld/mathlib/c/strtod.c)
6ff05998       __Strtold_
6ff05b63       strtod_
Module: /mnt/sda5/.user/root/src/openwatcom-1.9/bld/mathlib/library/winnt.387/mf_rd.dll/math387r.lib(/mnt/sda5/.user/root/src/openwatcom-1.9/bld/mathlib/alias/a/_iwtof__.asm)
6ff05cf8       _watof_
Module: /mnt/sda5/.user/root/src/openwatcom-1.9/bld/mathlib/library/winnt.387/mf_rd.dll/math387r.lib(/mnt/sda5/.user/root/src/openwatcom-1.9/bld/mathlib/c/_ustrtod.c)
6ff0644e       __wStrtold_
6ff06640       wcstod_
Module: /mnt/sda5/.user/root/src/openwatcom-1.9/bld/mathlib/library/winnt.387/mf_rd.dll/math387r.lib(/mnt/sda5/.user/root/src/openwatcom-1.9/bld/mathlib/c/_uefcvt.c)
6ff0684e       _wecvt_
6ff068b1       _wfcvt_
Module: /mnt/sda5/.user/root/src/openwatcom-1.9/bld/mathlib/library/winnt.387/mf_rd.dll/math387r.lib(/mnt/sda5/.user/root/src/openwatcom-1.9/bld/mathlib/c/_ugcvt.c)
6ff06919       _wgcvt_
Module: /mnt/sda5/.user/root/src/openwatcom-1.9/bld/mathlib/library/winnt.387/mf_rd.dll/math387r.lib(/mnt/sda5/.user/root/src/openwatcom-1.9/bld/mathlib/c/_uatof.c)
6ff0695b       _wtof_
Module: /mnt/sda5/.user/root/src/openwatcom-1.9/bld/mathlib/library/winnt.387/mf_rd.dll/math387r.lib(/mnt/sda5/.user/root/src/openwatcom-1.9/bld/mathlib/c/y0.c)
6ff06a0e       y0_
Module: /mnt/sda5/.user/root/src/openwatcom-1.9/bld/mathlib/library/winnt.387/mf_rd.dll/math387r.lib(/mnt/sda5/.user/root/src/openwatcom-1.9/bld/mathlib/c/y1.c)
6ff06ca6       y1_
Module: /mnt/sda5/.user/root/src/openwatcom-1.9/bld/mathlib/library/winnt.387/mf_rd.dll/math387r.lib(/mnt/sda5/.user/root/src/openwatcom-1.9/bld/mathlib/c/yn.c)
6ff06ee0       yn_
Module: /mnt/sda5/.user/root/src/openwatcom-1.9/bld/mathlib/library/winnt.387/mf_rd.dll/math387r.lib(/mnt/sda5/.user/root/src/openwatcom-1.9/bld/mathlib/a/bufld386.asm)
6ff06fc8       __ZBuf2LD
Module: /mnt/sda5/.user/root/src/openwatcom-1.9/bld/mathlib/library/winnt.387/mf_rd.dll/math387r.lib(/mnt/sda5/.user/root/src/openwatcom-1.9/bld/mathlib/c/zmatherr.c)
6ff070d7       __zmath1err_
6ff07118       __zmath2err_
Module: /mnt/sda5/.user/root/src/openwatcom-1.9/bld/mathlib/library/winnt.387/mf_rd.dll/math387r.lib(/mnt/sda5/.user/root/src/openwatcom-1.9/bld/mathlib/a/modf87.asm)
6ff07188       modf_
Module: /mnt/sda5/.user/root/src/openwatcom-1.9/bld/mathlib/library/winnt.387/mf_rd.dll/math387r.lib(/mnt/sda5/.user/root/src/openwatcom-1.9/bld/mathlib/a/trigl87.asm)
6ff071a4       _cosl_
6ff071b0       _sinl_
6ff071bc       _tanl_
Module: ../../../clib/winnt.386/mf_rd/clbrdlld.lib(/mnt/sda5/.user/root/src/openwatcom-1.9/bld/clib/startup/c/dmndwnt.c)
6ff071e0       __LibMain@12
Module: ../../../clib/winnt.386/mf_rd/clbrdlld.lib(segdefns)
6ff01003       ___begtext
6ff09000*      __nullarea
6ff09338       __Start_XI
6ff09338       __End_XI
6ff09338       __Start_YI
6ff09338       __End_YI
Module: /mnt/sda5/.user/root/src/openwatcom-1.9/bld/mathlib/library/winnt.387/mf_rd.dll/math387r.lib(/mnt/sda5/.user/root/src/openwatcom-1.9/bld/mathlib/c/math87e.c)
6ff07380       __math87_err_
Module: /mnt/sda5/.user/root/src/openwatcom-1.9/bld/mathlib/library/winnt.387/mf_rd.dll/math387r.lib(/mnt/sda5/.user/root/src/openwatcom-1.9/bld/mathlib/c/cvt.c)
6ff0741f       __cvt_
Module: /mnt/sda5/.user/root/src/openwatcom-1.9/bld/mathlib/library/winnt.387/mf_rd.dll/math387r.lib(/mnt/sda5/.user/root/src/openwatcom-1.9/bld/mathlib/c/log87e.c)
6ff074ad       __log87_err_
Module: /mnt/sda5/.user/root/src/openwatcom-1.9/bld/mathlib/library/winnt.387/mf_rd.dll/math387r.lib(/mnt/sda5/.user/root/src/openwatcom-1.9/bld/mathlib/c/pow87e.c)
6ff0750f       __pow87_err_
Module: ../../../clib/winnt.386/mf_rd/clbrdlld.lib(/mnt/sda5/.user/root/src/openwatcom-1.9/bld/clib/startup/c/ddgrpwnt.c)
6ff076c0       __disallow_single_dgroup_
Module: ../../../clib/winnt.386/mf_rd/clbrdlld.lib(/mnt/sda5/.user/root/src/openwatcom-1.9/bld/clib/startup/c/dllnmwnt.c)
6ff0a708       ___Is_DLL
6ff0a70c       __LpwDllName
6ff0a710       __LpDllName
Module: ../../../clib/winnt.386/mf_rd/clbrdlld.lib(/mnt/sda5/.user/root/src/openwatcom-1.9/bld/clib/startup/c/initrtns.c)
6ff07790       __InitRtns
6ff07820       __FiniRtns
Module: ../../../clib/winnt.386/mf_rd/clbrdlld.lib(/mnt/sda5/.user/root/src/openwatcom-1.9/bld/clib/startup/c/rdllmwnt.c)
6ff09334       __pRawDllMain
Module: ../../../clib/winnt.386/mf_rd/clbrdlld.lib(/mnt/sda5/.user/root/src/openwatcom-1.9/bld/clib/startup/c/dcinit.c)
6ff078c0       __CommonInit_
Module: ../../../clib/winnt.386/mf_rd/clbrdlld.lib(dosseg)
00001234       __DOSseg__


                        +---------------------+
                        |   Module Segments   |
                        +---------------------+

! = 32-bit segment
c = initialized communal data

Module          Segment               Class           Address         Size
======          =======               =====           =======         ====

/mnt/sda5/.user/root/src/openwatcom-1.9/bld/clib/startup/c/clibdwnt.c
                _TEXT                 CODE           6ff01010  !      0000001f
                CONST                 DATA           6ff09004  !      00000000
                CONST2                DATA           6ff09140  !      00000000
                _DATA                 DATA           6ff09140  !      00000000
LINKER MODULE   TRANSFER CODE         CODE           6ff078d8  !      000000b4
                .idata                .idata         6ff08000  !      00000320
dstrt386        _TEXT                 CODE           6ff01030  !      0000005c
                _DATA                 DATA           6ff09140  !      00000000
/mnt/sda5/.user/root/src/openwatcom-1.9/bld/mathlib/a/__87ldi2.asm
                _TEXT                 CODE           6ff0108c  !      0000001e
                _DATA                 DATA           6ff09140  !      00000000
/mnt/sda5/.user/root/src/openwatcom-1.9/bld/mathlib/a/__87ldi4.asm
                _TEXT                 CODE           6ff010ac  !      0000001d
                _DATA                 DATA           6ff09140  !      00000000
/mnt/sda5/.user/root/src/openwatcom-1.9/bld/mathlib/a/acosl87.asm
                _TEXT                 CODE           6ff010cc  !      0000000c
                _DATA                 DATA           6ff09140  !      00000000
/mnt/sda5/.user/root/src/openwatcom-1.9/bld/mathlib/a/asinl87.asm
                _TEXT                 CODE           6ff010d8  !      0000000c
                _DATA                 DATA           6ff09140  !      00000000
/mnt/sda5/.user/root/src/openwatcom-1.9/bld/mathlib/a/atanl87.asm
                _TEXT                 CODE           6ff010e4  !      0000001c
                _DATA                 DATA           6ff09140  !      00000000
/mnt/sda5/.user/root/src/openwatcom-1.9/bld/mathlib/c/atof.c
                _TEXT                 CODE           6ff01100  !      0000002b
                CONST                 DATA           6ff09004  !      00000000
                CONST2                DATA           6ff09140  !      00000000
                _DATA                 DATA           6ff09140  !      00000000
/mnt/sda5/.user/root/src/openwatcom-1.9/bld/mathlib/c/cabs.c
                _TEXT                 CODE           6ff0112b  !      0000003b
                CONST                 DATA           6ff09004  !      00000000
                CONST2                DATA           6ff09140  !      00000000
                _DATA                 DATA           6ff09140  !      00000000
/mnt/sda5/.user/root/src/openwatcom-1.9/bld/mathlib/c/ceil.c
                _TEXT                 CODE           6ff01166  !      00000034
                CONST                 DATA           6ff09004  !      00000000
                CONST2                DATA           6ff09140  !      00000000
                _DATA                 DATA           6ff09140  !      00000000
/mnt/sda5/.user/root/src/openwatcom-1.9/bld/mathlib/a/fchop87.asm
                _TEXT                 CODE           6ff0119c  !      00000017
                _DATA                 DATA           6ff09140  !      00000000
/mnt/sda5/.user/root/src/openwatcom-1.9/bld/mathlib/c/clear87.c
                _TEXT                 CODE           6ff011b3  !      0000006e
                CONST                 DATA           6ff09004  !      00000000
                CONST2                DATA           6ff09140  !      00000000
                _DATA                 DATA           6ff09140  !      00000000
/mnt/sda5/.user/root/src/openwatcom-1.9/bld/mathlib/c/cnvd2f.c
                _TEXT                 CODE           6ff01221  !      000000c4
                CONST                 DATA           6ff09004  !      00000020
                CONST2                DATA           6ff09140  !      00000000
                _DATA                 DATA           6ff09140  !      00000000
/mnt/sda5/.user/root/src/openwatcom-1.9/bld/mathlib/c/cnvd2ld.c
                _TEXT                 CODE           6ff012e5  !      00000048
                CONST                 DATA           6ff09024  !      00000000
                CONST2                DATA           6ff09140  !      00000000
                _DATA                 DATA           6ff09140  !      00000000
/mnt/sda5/.user/root/src/openwatcom-1.9/bld/mathlib/c/cnvs2d.c
                _TEXT                 CODE           6ff0132d  !      0000004d
                CONST                 DATA           6ff09024  !      00000000
                CONST2                DATA           6ff09140  !      00000000
                _DATA                 DATA           6ff09140  !      00000000
/mnt/sda5/.user/root/src/openwatcom-1.9/bld/mathlib/a/exp87.asm
                _TEXT                 CODE           6ff0137c  !      00000073
                _DATA                 DATA           6ff09140  !      00000010
/mnt/sda5/.user/root/src/openwatcom-1.9/bld/mathlib/c/difftime.c
                _TEXT                 CODE           6ff013ef  !      00000044
                CONST                 DATA           6ff09024  !      00000000
                CONST2                DATA           6ff09140  !      00000000
                _DATA                 DATA           6ff09150  !      00000000
/mnt/sda5/.user/root/src/openwatcom-1.9/bld/mathlib/c/inf_nan.c
                _TEXT                 CODE           6ff01433  !      00000028
                CONST                 DATA           6ff09024  !      00000000
                CONST2                DATA           6ff09140  !      00000000
                _DATA                 DATA           6ff09150  !      00000000
/mnt/sda5/.user/root/src/openwatcom-1.9/bld/mathlib/a/sqrt87.asm
                _TEXT                 CODE           6ff0145c  !      00000063
                _DATA                 DATA           6ff09150  !      00000000
/mnt/sda5/.user/root/src/openwatcom-1.9/bld/mathlib/alias/a/_i__ecvt.asm
                _TEXT                 CODE           6ff014c0  !      00000005
                _DATA                 DATA           6ff09150  !      00000000
/mnt/sda5/.user/root/src/openwatcom-1.9/bld/mathlib/alias/a/_i_ecvt_.asm
                _TEXT                 CODE           6ff014c8  !      00000005
                _DATA                 DATA           6ff09150  !      00000000
/mnt/sda5/.user/root/src/openwatcom-1.9/bld/mathlib/c/efcvt.c
                _TEXT                 CODE           6ff014cd  !      0000012c
                CONST                 DATA           6ff09024  !      00000000
                CONST2                DATA           6ff09140  !      00000000
                _DATA                 DATA           6ff09150  !      00000000
/mnt/sda5/.user/root/src/openwatcom-1.9/bld/mathlib/c/efgfmt.c
                _TEXT                 CODE           6ff015f9  !      000001d5
                CONST                 DATA           6ff09024  !      00000000
                CONST2                DATA           6ff09140  !      00000000
                _DATA                 DATA           6ff09150  !      00000000
/mnt/sda5/.user/root/src/openwatcom-1.9/bld/mathlib/c/evalpoly.c
                _TEXT                 CODE           6ff017ce  !      00000097
                CONST                 DATA           6ff09024  !      00000000
                CONST2                DATA           6ff09140  !      00000000
                _DATA                 DATA           6ff09150  !      00000000
/mnt/sda5/.user/root/src/openwatcom-1.9/bld/mathlib/alias/a/_i__fcvt.asm
                _TEXT                 CODE           6ff01868  !      00000005
                _DATA                 DATA           6ff09150  !      00000000
/mnt/sda5/.user/root/src/openwatcom-1.9/bld/mathlib/alias/a/_i_fcvt_.asm
                _TEXT                 CODE           6ff01870  !      00000005
                _DATA                 DATA           6ff09150  !      00000000
/mnt/sda5/.user/root/src/openwatcom-1.9/bld/mathlib/c/fdclass.c
                _TEXT                 CODE           6ff01875  !      00000094
                CONST                 DATA           6ff09024  !      00000000
                CONST2                DATA           6ff09140  !      00000000
                _DATA                 DATA           6ff09150  !      00000000
/mnt/sda5/.user/root/src/openwatcom-1.9/bld/mathlib/c/fdsign.c
                _TEXT                 CODE           6ff01909  !      00000032
                CONST                 DATA           6ff09024  !      00000000
                CONST2                DATA           6ff09140  !      00000000
                _DATA                 DATA           6ff09150  !      00000000
/mnt/sda5/.user/root/src/openwatcom-1.9/bld/mathlib/c/finite.c
                _TEXT                 CODE           6ff0193b  !      00000041
                CONST                 DATA           6ff09024  !      00000000
                CONST2                DATA           6ff09140  !      00000000
                _DATA                 DATA           6ff09150  !      00000000
/mnt/sda5/.user/root/src/openwatcom-1.9/bld/mathlib/alias/a/_i_finit.asm
                _TEXT                 CODE           6ff0197c  !      00000005
                _DATA                 DATA           6ff09150  !      00000000
/mnt/sda5/.user/root/src/openwatcom-1.9/bld/mathlib/c/ldclass.c
                _TEXT                 CODE           6ff01981  !      000000b5
                CONST                 DATA           6ff09024  !      00000000
                CONST2                DATA           6ff09140  !      00000000
                _DATA                 DATA           6ff09150  !      00000000
/mnt/sda5/.user/root/src/openwatcom-1.9/bld/mathlib/c/floor.c
                _TEXT                 CODE           6ff01a36  !      00000056
                CONST                 DATA           6ff09024  !      00000008
                CONST2                DATA           6ff09140  !      00000000
                _DATA                 DATA           6ff09150  !      00000000
/mnt/sda5/.user/root/src/openwatcom-1.9/bld/mathlib/c/flsign.c
                _TEXT                 CODE           6ff01a8c  !      00000061
                CONST                 DATA           6ff0902c  !      00000000
                CONST2                DATA           6ff09140  !      00000000
                _DATA                 DATA           6ff09150  !      00000000
/mnt/sda5/.user/root/src/openwatcom-1.9/bld/mathlib/c/frexp.c
                _TEXT                 CODE           6ff01aed  !      00000079
                CONST                 DATA           6ff0902c  !      00000000
                CONST2                DATA           6ff09140  !      00000000
                _DATA                 DATA           6ff09150  !      00000000
/mnt/sda5/.user/root/src/openwatcom-1.9/bld/mathlib/c/fsclass.c
                _TEXT                 CODE           6ff01b66  !      0000007e
                CONST                 DATA           6ff0902c  !      00000000
                CONST2                DATA           6ff09140  !      00000000
                _DATA                 DATA           6ff09150  !      00000000
/mnt/sda5/.user/root/src/openwatcom-1.9/bld/mathlib/c/fssign.c
                _TEXT                 CODE           6ff01be4  !      0000002c
                CONST                 DATA           6ff0902c  !      00000000
                CONST2                DATA           6ff09140  !      00000000
                _DATA                 DATA           6ff09150  !      00000000
/mnt/sda5/.user/root/src/openwatcom-1.9/bld/mathlib/alias/a/_i__gcvt.asm
                _TEXT                 CODE           6ff01c10  !      00000005
                _DATA                 DATA           6ff09150  !      00000000
/mnt/sda5/.user/root/src/openwatcom-1.9/bld/mathlib/alias/a/_i_gcvt_.asm
                _TEXT                 CODE           6ff01c18  !      00000005
                _DATA                 DATA           6ff09150  !      00000000
/mnt/sda5/.user/root/src/openwatcom-1.9/bld/mathlib/c/gcvt.c
                _TEXT                 CODE           6ff01c1d  !      000000ed
                CONST                 DATA           6ff0902c  !      00000000
                CONST2                DATA           6ff09140  !      00000000
                _DATA                 DATA           6ff09150  !      00000000
/mnt/sda5/.user/root/src/openwatcom-1.9/bld/mathlib/c/hypot.c
                _TEXT                 CODE           6ff01d0a  !      0000003b
                CONST                 DATA           6ff0902c  !      00000000
                CONST2                DATA           6ff09140  !      00000000
                _DATA                 DATA           6ff09150  !      00000000
/mnt/sda5/.user/root/src/openwatcom-1.9/bld/mathlib/a/fabs87.asm
                _TEXT                 CODE           6ff01d48  !      00000010
                _DATA                 DATA           6ff09150  !      00000000
/mnt/sda5/.user/root/src/openwatcom-1.9/bld/mathlib/a/acos87.asm
                _TEXT                 CODE           6ff01d58  !      0000004b
                _DATA                 DATA           6ff09150  !      0000000a
/mnt/sda5/.user/root/src/openwatcom-1.9/bld/mathlib/a/acosh87.asm
                _TEXT                 CODE           6ff01da4  !      00000046
                _DATA                 DATA           6ff0915c  !      00000000
/mnt/sda5/.user/root/src/openwatcom-1.9/bld/mathlib/a/asin87.asm
                _TEXT                 CODE           6ff01dec  !      00000027
                _DATA                 DATA           6ff0915c  !      00000000
/mnt/sda5/.user/root/src/openwatcom-1.9/bld/mathlib/a/asinh87.asm
                _TEXT                 CODE           6ff01e14  !      0000003d
                _DATA                 DATA           6ff0915c  !      00000000
/mnt/sda5/.user/root/src/openwatcom-1.9/bld/mathlib/a/atan87.asm
                _TEXT                 CODE           6ff01e54  !      00000046
                _DATA                 DATA           6ff0915c  !      00000000
/mnt/sda5/.user/root/src/openwatcom-1.9/bld/mathlib/a/atanh87.asm
                _TEXT                 CODE           6ff01e9c  !      00000063
                _DATA                 DATA           6ff0915c  !      00000002
/mnt/sda5/.user/root/src/openwatcom-1.9/bld/mathlib/c/divc16.c
                _TEXT                 CODE           6ff01eff  !      00000124
                CONST                 DATA           6ff0902c  !      00000000
                CONST2                DATA           6ff09140  !      00000000
                _DATA                 DATA           6ff09160  !      00000000
/mnt/sda5/.user/root/src/openwatcom-1.9/bld/mathlib/c/mulc16.c
                _TEXT                 CODE           6ff02023  !      0000005e
                CONST                 DATA           6ff0902c  !      00000000
                CONST2                DATA           6ff09140  !      00000000
                _DATA                 DATA           6ff09160  !      00000000
/mnt/sda5/.user/root/src/openwatcom-1.9/bld/mathlib/c/powc16.c
                _TEXT                 CODE           6ff02081  !      000001a4
                CONST                 DATA           6ff0902c  !      00000008
                CONST2                DATA           6ff09140  !      00000000
                _DATA                 DATA           6ff09160  !      00000000
/mnt/sda5/.user/root/src/openwatcom-1.9/bld/mathlib/c/powic16.c
                _TEXT                 CODE           6ff02225  !      000001de
                CONST                 DATA           6ff09034  !      00000008
                CONST2                DATA           6ff09140  !      00000000
                _DATA                 DATA           6ff09160  !      00000000
/mnt/sda5/.user/root/src/openwatcom-1.9/bld/mathlib/c/divc20.c
                _TEXT                 CODE           6ff02403  !      00000124
                CONST                 DATA           6ff0903c  !      00000000
                CONST2                DATA           6ff09140  !      00000000
                _DATA                 DATA           6ff09160  !      00000000
/mnt/sda5/.user/root/src/openwatcom-1.9/bld/mathlib/c/mulc20.c
                _TEXT                 CODE           6ff02527  !      0000005e
                CONST                 DATA           6ff0903c  !      00000000
                CONST2                DATA           6ff09140  !      00000000
                _DATA                 DATA           6ff09160  !      00000000
/mnt/sda5/.user/root/src/openwatcom-1.9/bld/mathlib/c/powc20.c
                _TEXT                 CODE           6ff02585  !      00000072
                CONST                 DATA           6ff0903c  !      00000000
                CONST2                DATA           6ff09140  !      00000000
                _DATA                 DATA           6ff09160  !      00000000
/mnt/sda5/.user/root/src/openwatcom-1.9/bld/mathlib/c/powic32.c
                _TEXT                 CODE           6ff025f7  !      0000006c
                CONST                 DATA           6ff0903c  !      00000000
                CONST2                DATA           6ff09140  !      00000000
                _DATA                 DATA           6ff09160  !      00000000
/mnt/sda5/.user/root/src/openwatcom-1.9/bld/mathlib/c/divc8.c
                _TEXT                 CODE           6ff02663  !      000000f9
                CONST                 DATA           6ff0903c  !      00000000
                CONST2                DATA           6ff09140  !      00000000
                _DATA                 DATA           6ff09160  !      00000000
/mnt/sda5/.user/root/src/openwatcom-1.9/bld/mathlib/c/mulc8.c
                _TEXT                 CODE           6ff0275c  !      0000005a
                CONST                 DATA           6ff0903c  !      00000000
                CONST2                DATA           6ff09140  !      00000000
                _DATA                 DATA           6ff09160  !      00000000
/mnt/sda5/.user/root/src/openwatcom-1.9/bld/mathlib/c/powc8.c
                _TEXT                 CODE           6ff027b6  !      00000161
                CONST                 DATA           6ff0903c  !      00000008
                CONST2                DATA           6ff09140  !      00000000
                _DATA                 DATA           6ff09160  !      00000000
/mnt/sda5/.user/root/src/openwatcom-1.9/bld/mathlib/c/powic8.c
                _TEXT                 CODE           6ff02917  !      0000017f
                CONST                 DATA           6ff09044  !      00000004
                CONST2                DATA           6ff09140  !      00000000
                _DATA                 DATA           6ff09160  !      00000000
/mnt/sda5/.user/root/src/openwatcom-1.9/bld/mathlib/c/ifcdabs.c
                _TEXT                 CODE           6ff02a96  !      000000d5
                CONST                 DATA           6ff09048  !      00000000
                CONST2                DATA           6ff09140  !      00000000
                _DATA                 DATA           6ff09160  !      00000000
/mnt/sda5/.user/root/src/openwatcom-1.9/bld/mathlib/c/ifcdcos.c
                _TEXT                 CODE           6ff02b6b  !      00000082
                CONST                 DATA           6ff09048  !      00000000
                CONST2                DATA           6ff09140  !      00000000
                _DATA                 DATA           6ff09160  !      00000000
/mnt/sda5/.user/root/src/openwatcom-1.9/bld/mathlib/c/ifcdexp.c
                _TEXT                 CODE           6ff02bed  !      0000007b
                CONST                 DATA           6ff09048  !      00000000
                CONST2                DATA           6ff09140  !      00000000
                _DATA                 DATA           6ff09160  !      00000000
/mnt/sda5/.user/root/src/openwatcom-1.9/bld/mathlib/c/ifcdlog.c
                _TEXT                 CODE           6ff02c68  !      00000072
                CONST                 DATA           6ff09048  !      00000008
                CONST2                DATA           6ff09140  !      00000000
                _DATA                 DATA           6ff09160  !      00000000
/mnt/sda5/.user/root/src/openwatcom-1.9/bld/mathlib/c/ifcdsin.c
                _TEXT                 CODE           6ff02cda  !      00000080
                CONST                 DATA           6ff09050  !      00000000
                CONST2                DATA           6ff09140  !      00000000
                _DATA                 DATA           6ff09160  !      00000000
/mnt/sda5/.user/root/src/openwatcom-1.9/bld/mathlib/c/ifcdsqrt.c
                _TEXT                 CODE           6ff02d5a  !      0000026c
                CONST                 DATA           6ff09050  !      00000030
                CONST2                DATA           6ff09140  !      00000000
                _DATA                 DATA           6ff09160  !      00000000
/mnt/sda5/.user/root/src/openwatcom-1.9/bld/mathlib/a/trig87.asm
                _TEXT                 CODE           6ff02fc8  !      0000007a
                _DATA                 DATA           6ff09160  !      0000000a
/mnt/sda5/.user/root/src/openwatcom-1.9/bld/mathlib/a/trigh87.asm
                _TEXT                 CODE           6ff03044  !      00000116
                _DATA                 DATA           6ff0916c  !      00000008
/mnt/sda5/.user/root/src/openwatcom-1.9/bld/mathlib/a/cotan87.asm
                _TEXT                 CODE           6ff0315c  !      0000002a
                _DATA                 DATA           6ff09174  !      00000000
/mnt/sda5/.user/root/src/openwatcom-1.9/bld/mathlib/a/fmod87.asm
                _TEXT                 CODE           6ff03188  !      0000002b
                _DATA                 DATA           6ff09174  !      00000000
/mnt/sda5/.user/root/src/openwatcom-1.9/bld/mathlib/a/log87.asm
                _TEXT                 CODE           6ff031b4  !      00000078
                _DATA                 DATA           6ff09174  !      00000000
/mnt/sda5/.user/root/src/openwatcom-1.9/bld/mathlib/a/pow87.asm
                _TEXT                 CODE           6ff0322c  !      00000169
                _DATA                 DATA           6ff09174  !      00000000
/mnt/sda5/.user/root/src/openwatcom-1.9/bld/mathlib/c/powri.c
                _TEXT                 CODE           6ff03395  !      00000167
                CONST                 DATA           6ff09080  !      00000000
                CONST2                DATA           6ff09140  !      00000000
                _DATA                 DATA           6ff09174  !      00000000
/mnt/sda5/.user/root/src/openwatcom-1.9/bld/mathlib/c/powii.c
                _TEXT                 CODE           6ff034fc  !      0000010b
                CONST                 DATA           6ff09080  !      00000000
                CONST2                DATA           6ff09140  !      00000000
                _DATA                 DATA           6ff09174  !      00000000
/mnt/sda5/.user/root/src/openwatcom-1.9/bld/mathlib/c/powrr.c
                _TEXT                 CODE           6ff03607  !      0000008a
                CONST                 DATA           6ff09080  !      00000000
                CONST2                DATA           6ff09140  !      00000000
                _DATA                 DATA           6ff09174  !      00000000
/mnt/sda5/.user/root/src/openwatcom-1.9/bld/mathlib/c/powxi.c
                _TEXT                 CODE           6ff03691  !      000000e4
                CONST                 DATA           6ff09080  !      00000000
                CONST2                DATA           6ff09140  !      00000000
                _DATA                 DATA           6ff09174  !      00000000
/mnt/sda5/.user/root/src/openwatcom-1.9/bld/mathlib/c/j0.c
                _TEXT                 CODE           6ff03775  !      000002ff
                CONST                 DATA           6ff09080  !      00000020
                CONST2                DATA           6ff09140  !      00000000
                _DATA                 DATA           6ff09174  !      00000000
/mnt/sda5/.user/root/src/openwatcom-1.9/bld/mathlib/c/j1.c
                _TEXT                 CODE           6ff03a74  !      00000308
                CONST                 DATA           6ff090a0  !      00000020
                CONST2                DATA           6ff09140  !      00000000
                _DATA                 DATA           6ff09174  !      00000000
/mnt/sda5/.user/root/src/openwatcom-1.9/bld/mathlib/c/jn.c
                _TEXT                 CODE           6ff03d7c  !      00000273
                CONST                 DATA           6ff090c0  !      00000028
                CONST2                DATA           6ff09140  !      00000000
                _DATA                 DATA           6ff09174  !      00000000
/mnt/sda5/.user/root/src/openwatcom-1.9/bld/mathlib/c/ldcvt.c
                _TEXT                 CODE           6ff03fef  !      00000d08
                CONST                 DATA           6ff090e8  !      00000000
                CONST2                DATA           6ff09140  !      00000000
                _DATA                 DATA           6ff09174  !      000000a8
/mnt/sda5/.user/root/src/openwatcom-1.9/bld/mathlib/c/ldexp.c
                _TEXT                 CODE           6ff04cf7  !      000000dd
                CONST                 DATA           6ff090e8  !      00000000
                CONST2                DATA           6ff09140  !      00000000
                _DATA                 DATA           6ff0921c  !      00000000
/mnt/sda5/.user/root/src/openwatcom-1.9/bld/mathlib/c/math2err.c
                _TEXT                 CODE           6ff04dd4  !      000001e1
                CONST                 DATA           6ff090e8  !      00000000
                CONST2                DATA           6ff09140  !      00000000
                _DATA                 DATA           6ff0921c  !      0000005c
/mnt/sda5/.user/root/src/openwatcom-1.9/bld/mathlib/a/__mtherr.asm
                _TEXT                 CODE           6ff04fb8  !      00000005
                _DATA                 DATA           6ff09278  !      00000000
/mnt/sda5/.user/root/src/openwatcom-1.9/bld/mathlib/c/_matherr.c
                _TEXT                 CODE           6ff04fbd  !      00000199
                CONST                 DATA           6ff090e8  !      00000000
                CONST2                DATA           6ff09140  !      00000000
                _DATA                 DATA           6ff09278  !      00000004
/mnt/sda5/.user/root/src/openwatcom-1.9/bld/mathlib/c/matherr.c
                _TEXT                 CODE           6ff05156  !      00000025
                CONST                 DATA           6ff090e8  !      00000000
                CONST2                DATA           6ff09140  !      00000000
                _DATA                 DATA           6ff0927c  !      00000000
/mnt/sda5/.user/root/src/openwatcom-1.9/bld/mathlib/c/qmatherr.c
                _TEXT                 CODE           6ff0517b  !      00000132
                CONST                 DATA           6ff090e8  !      00000000
                CONST2                DATA           6ff09140  !      00000000
                _DATA                 DATA           6ff0927c  !      0000005c
/mnt/sda5/.user/root/src/openwatcom-1.9/bld/mathlib/c/strtod.c
                _TEXT                 CODE           6ff052ad  !      00000a49
                CONST                 DATA           6ff090e8  !      00000000
                CONST2                DATA           6ff09140  !      00000000
                _DATA                 DATA           6ff092d8  !      00000000
/mnt/sda5/.user/root/src/openwatcom-1.9/bld/mathlib/alias/a/_iwtof__.asm
                _TEXT                 CODE           6ff05cf8  !      00000005
                _DATA                 DATA           6ff092d8  !      00000000
/mnt/sda5/.user/root/src/openwatcom-1.9/bld/mathlib/c/_ustrtod.c
                _TEXT                 CODE           6ff05cfd  !      00000ad6
                CONST                 DATA           6ff090e8  !      00000000
                CONST2                DATA           6ff09140  !      00000000
                _DATA                 DATA           6ff092d8  !      00000000
/mnt/sda5/.user/root/src/openwatcom-1.9/bld/mathlib/c/_uefcvt.c
                _TEXT                 CODE           6ff067d3  !      00000146
                CONST                 DATA           6ff090e8  !      00000000
                CONST2                DATA           6ff09140  !      00000000
                _DATA                 DATA           6ff092d8  !      00000000
/mnt/sda5/.user/root/src/openwatcom-1.9/bld/mathlib/c/_ugcvt.c
                _TEXT                 CODE           6ff06919  !      00000042
                CONST                 DATA           6ff090e8  !      00000000
                CONST2                DATA           6ff09140  !      00000000
                _DATA                 DATA           6ff092d8  !      00000000
/mnt/sda5/.user/root/src/openwatcom-1.9/bld/mathlib/c/_uatof.c
                _TEXT                 CODE           6ff0695b  !      0000002b
                CONST                 DATA           6ff090e8  !      00000000
                CONST2                DATA           6ff09140  !      00000000
                _DATA                 DATA           6ff092d8  !      00000000
/mnt/sda5/.user/root/src/openwatcom-1.9/bld/mathlib/c/y0.c
                _TEXT                 CODE           6ff06986  !      000002a0
                CONST                 DATA           6ff090e8  !      00000028
                CONST2                DATA           6ff09140  !      00000000
                _DATA                 DATA           6ff092d8  !      00000000
/mnt/sda5/.user/root/src/openwatcom-1.9/bld/mathlib/c/y1.c
                _TEXT                 CODE           6ff06c26  !      000002ba
                CONST                 DATA           6ff09110  !      00000028
                CONST2                DATA           6ff09140  !      00000000
                _DATA                 DATA           6ff092d8  !      00000000
/mnt/sda5/.user/root/src/openwatcom-1.9/bld/mathlib/c/yn.c
                _TEXT                 CODE           6ff06ee0  !      000000e6
                CONST                 DATA           6ff09138  !      00000008
                CONST2                DATA           6ff09140  !      00000000
                _DATA                 DATA           6ff092d8  !      00000000
/mnt/sda5/.user/root/src/openwatcom-1.9/bld/mathlib/a/bufld386.asm
                _TEXT                 CODE           6ff06fc8  !      000000a3
                _DATA                 DATA           6ff092d8  !      00000000
/mnt/sda5/.user/root/src/openwatcom-1.9/bld/mathlib/c/zmatherr.c
                _TEXT                 CODE           6ff0706b  !      0000011c
                CONST                 DATA           6ff09140  !      00000000
                CONST2                DATA           6ff09140  !      00000000
                _DATA                 DATA           6ff092d8  !      0000005c
/mnt/sda5/.user/root/src/openwatcom-1.9/bld/mathlib/a/modf87.asm
                _TEXT                 CODE           6ff07188  !      00000019
                _DATA                 DATA           6ff09334  !      00000000
/mnt/sda5/.user/root/src/openwatcom-1.9/bld/mathlib/a/trigl87.asm
                _TEXT                 CODE           6ff071a4  !      00000024
                _DATA                 DATA           6ff09334  !      00000000
/mnt/sda5/.user/root/src/openwatcom-1.9/bld/clib/startup/c/dmndwnt.c
                _TEXT                 CODE           6ff071d0  !      000001af
                CONST                 DATA           6ff09140  !      00000000
                CONST2                DATA           6ff09140  !      00000000
                _DATA                 DATA           6ff09334  !      00000000
                _BSS                  BSS            6ff0a000  !      00000310
segdefns        _TEXT                 CODE           6ff07380  !      00000000
                _DATA                 DATA           6ff09334  !      00000000
                BEGTEXT               CODE           6ff01000  !      00000007
                _NULL                 BEGDATA        6ff09000  !      00000004
                _AFTERNULL            BEGDATA        6ff09004  !      00000000
                CONST                 DATA           6ff09140  !      00000000
                TIB                   DATA           6ff09338  !      00000000
                TI                    DATA           6ff09338  !      00000000
                TIE                   DATA           6ff09338  !      00000000
                XIB                   DATA           6ff09338  !      00000000
                XI                    DATA           6ff09338  !      00000000
                XIE                   DATA           6ff09338  !      00000000
                YIB                   DATA           6ff09338  !      00000000
                YI                    DATA           6ff09338  !      00000000
                YIE                   DATA           6ff09338  !      00000000
                DATA                  DATA           6ff09338  !      00000000
                _BSS                  BSS            6ff0a310  !      00000000
                STACK                 STACK          6ff0a720  !      00010000
/mnt/sda5/.user/root/src/openwatcom-1.9/bld/mathlib/c/math87e.c
                _TEXT                 CODE           6ff07380  !      0000009f
                CONST                 DATA           6ff09140  !      00000000
                CONST2                DATA           6ff09140  !      00000000
                _DATA                 DATA           6ff09334  !      00000000
/mnt/sda5/.user/root/src/openwatcom-1.9/bld/mathlib/c/cvt.c
                _TEXT                 CODE           6ff0741f  !      0000008e
                CONST                 DATA           6ff09140  !      00000000
                CONST2                DATA           6ff09140  !      00000000
                _DATA                 DATA           6ff09334  !      00000000
/mnt/sda5/.user/root/src/openwatcom-1.9/bld/mathlib/c/log87e.c
                _TEXT                 CODE           6ff074ad  !      00000062
                CONST                 DATA           6ff09140  !      00000000
                CONST2                DATA           6ff09140  !      00000000
                _DATA                 DATA           6ff09334  !      00000000
/mnt/sda5/.user/root/src/openwatcom-1.9/bld/mathlib/c/pow87e.c
                _TEXT                 CODE           6ff0750f  !      000000b2
                CONST                 DATA           6ff09140  !      00000000
                CONST2                DATA           6ff09140  !      00000000
                _DATA                 DATA           6ff09334  !      00000000
/mnt/sda5/.user/root/src/openwatcom-1.9/bld/clib/startup/c/ddgrpwnt.c
                _TEXT                 CODE           6ff075d0  !      00000186
                CONST                 DATA           6ff09140  !      00000000
                CONST2                DATA           6ff09140  !      00000000
                _DATA                 DATA           6ff09334  !      00000000
                _BSS                  BSS            6ff0a310  !      000003f5
/mnt/sda5/.user/root/src/openwatcom-1.9/bld/clib/startup/c/dllnmwnt.c
                _TEXT                 CODE           6ff07760  !      00000000
                CONST                 DATA           6ff09140  !      00000000
                CONST2                DATA           6ff09140  !      00000000
                _DATA                 DATA           6ff09334  !      00000000
                _BSS                  BSS            6ff0a708  !      0000000c
/mnt/sda5/.user/root/src/openwatcom-1.9/bld/clib/startup/c/initrtns.c
                _TEXT                 CODE           6ff07760  !      0000015a
                CONST                 DATA           6ff09140  !      00000000
                CONST2                DATA           6ff09140  !      00000000
                _DATA                 DATA           6ff09334  !      00000000
/mnt/sda5/.user/root/src/openwatcom-1.9/bld/clib/startup/c/rdllmwnt.c
                _TEXT                 CODE           6ff078c0  !      00000000
                CONST                 DATA           6ff09140  !      00000000
                CONST2                DATA           6ff09140  !      00000000
                _DATA                 DATA           6ff09334  !      00000004
/mnt/sda5/.user/root/src/openwatcom-1.9/bld/clib/startup/c/dcinit.c
                _TEXT                 CODE           6ff078c0  !      00000017
                CONST                 DATA           6ff09140  !      00000000
                CONST2                DATA           6ff09140  !      00000000
                _DATA                 DATA           6ff09338  !      00000000
dosseg          _TEXT                 CODE           6ff078d8  !      00000000
                _DATA                 DATA           6ff09338  !      00000000


                        +----------------------+
                        |   Imported Symbols   |
                        +----------------------+

Symbol                              Module
======                              ======

__8087                              clbr19d.dll
__CVTBuffer_                        clbr19d.dll
_LDisDouble_                        clbr19d.dll
__chipbug                           clbr19d.dll
__fpatan_wrap                       clbr19d.dll
__fdiv_fpr                          clbr19d.dll
__fdiv_m64                          clbr19d.dll
__fdiv_m32                          clbr19d.dll
__fdiv_m64r                         clbr19d.dll
__fptan_chk                         clbr19d.dll
__fprem_chk                         clbr19d.dll
__real87                            clbr19d.dll
__IsTable_br                        clbr19d.dll
memcpy_                             clbr19d.dll
memset_                             clbr19d.dll
__set_ERANGE_                       clbr19d.dll
__HugeValue_br                      clbr19d.dll
__get_std_stream_                   clbr19d.dll
fputs_                              clbr19d.dll
fputc_                              clbr19d.dll
__set_EDOM_                         clbr19d.dll
strlen_                             clbr19d.dll
tolower_                            clbr19d.dll
wcstombs_                           clbr19d.dll
_atouni_                            clbr19d.dll
strcat_                             clbr19d.dll
_GetModuleFileNameA@12              KERNEL32.DLL
__lib_GetModuleFileNameW_           clbr19d.dll
___sig_init_rtn                     clbr19d.dll
_MessageBoxA@16                     USER32.DLL


                        +--------------------+
                        |   Libraries Used   |
                        +--------------------+

/mnt/sda5/.user/root/src/openwatcom-1.9/rel2/lib386/nt/kernel32.lib
/mnt/sda5/.user/root/src/openwatcom-1.9/rel2/lib386/nt/user32.lib
/mnt/sda5/.user/root/src/openwatcom-1.9/bld/mathlib/library/winnt.387/mf_rd.dll/math387r.lib
../../../clib/winnt.386/mf_rd/clbrdlld.lib


                        +-----------------------+
                        |   Linker Statistics   |
                        +-----------------------+

Stack size:  0000 (0.)
Memory size:  83cc (33740.)
Entry point address: 6ff01030
Link time: 00:00.00
