Open Watcom Linker Version 1.9
Portions Copyright (c) 1985-2002 Sybase, Inc. All Rights Reserved.
Created on:       12/12/16 02:41:03
Executable Image: trap2txt.exe
creating a Windows NT character-mode executable


                        +------------+
                        |   Groups   |
                        +------------+

Group                           Address              Size
=====                           =======              ====

.idata                          0040c000             00000498
DGROUP                          0040d000             00011c70



                        +--------------+
                        |   Segments   |
                        +--------------+

Segment                Class          Group          Address         Size
=======                =====          =====          =======         ====

BEGTEXT                CODE           AUTO           00401000        00000007
_TEXT                  CODE           AUTO           00401010        0000a38f
TRANSFER CODE          CODE           AUTO           0040b3a0        000000f6
.idata                 .idata         .idata         0040c000        00000498
_NULL                  BEGDATA        DGROUP         0040d000        00000004
_AFTERNULL             BEGDATA        DGROUP         0040d004        00000000
CONST                  DATA           DGROUP         0040d004        0000015c
CONST2                 DATA           DGROUP         0040d160        00000000
_DATA                  DATA           DGROUP         0040d160        00000714
XIB                    DATA           DGROUP         0040d874        00000000
XI                     DATA           DGROUP         0040d874        00000024
XIE                    DATA           DGROUP         0040d898        00000000
YIB                    DATA           DGROUP         0040d898        00000000
YI                     DATA           DGROUP         0040d898        0000001e
YIE                    DATA           DGROUP         0040d8b6        00000000
TIB                    DATA           DGROUP         0040d8b6        00000000
TI                     DATA           DGROUP         0040d8b6        00000000
TIE                    DATA           DGROUP         0040d8b6        00000000
DATA                   DATA           DGROUP         0040d8b6        00000000
_BSS                   BSS            DGROUP         0040e000        00000c69
STACK                  STACK          DGROUP         0040ec70        00010000


                        +----------------+
                        |   Memory Map   |
                        +----------------+

* = unreferenced symbol
+ = symbol only referenced locally

Address        Symbol
=======        ======

Module: trap2txt.obj(/mnt/sda5/.user/root/src/openwatcom-1.9/bld/wv/utils/trap2txt/c/trap2txt.cpp)
0040d160+      W?MyHandlers$n[]pn(pnucus)i
0040d200+      W?MyReplyHandlers$n[]pn(pnucus)i
0040e000+      W?read_mad_handle$nus
0040e008+      W?last_service_name$n[]a
0040e408+      W?services$npn$tagServiceNameAndId$$
0040e40c+      W?last_service$npn$tagServiceNameAndId$$
00401010+      W?get_supp_service_decoder$n(pnxa)pn(ipnucus)i
004010b0       main_
004014c0+      W?to_char$n(uc)uc
004014d0+      W?DumpPacket$n(pnucusi)v
00401830+      W?handle_REQ_CONNECT$n(pnucus)i
00401890+      W?handle_REQ_CONNECT_REPLY$n(pnucus)i
004018e0+      W?handle_REQ_DISCONNECT$n(pnucus)i
00401900+      W?handle_REQ_WRITE_REGS_REPLY$n(pnucus)i
00401900+      W?handle_REQ_GET_ERR_TEXT_REPLY$n(pnucus)i
00401900+      W?handle_REQ_SET_DEBUG_SCREEN_REPLY$n(pnucus)i
00401900+      W?handle_REQ_SET_USER_SCREEN_REPLY$n(pnucus)i
00401900+      W?handle_REQ_CLEAR_BREAK_REPLY$n(pnucus)i
00401900+      W?handle_REQ_CLEAR_WATCH_REPLY$n(pnucus)i
00401900+      W?handle_REQ_WRITE_FPU_REPLY$n(pnucus)i
00401900+      W?handle_REQ_WRITE_CPU_REPLY$n(pnucus)i
00401900+      W?handle_REQ_READ_FPU_REPLY$n(pnucus)i
00401900+      W?handle_REQ_READ_CPU_REPLY$n(pnucus)i
00401900+      W?handle_REQ_RESUME_REPLY$n(pnucus)i
00401900+      W?handle_REQ_SUSPEND_REPLY$n(pnucus)i
00401900+      W?handle_REQ_DISCONNECT_REPLY$n(pnucus)i
00401910+      W?handle_REQ_SUSPEND$n(pnucus)i
00401930+      W?handle_REQ_RESUME$n(pnucus)i
00401950+      W?handle_REQ_GET_SUPPLEMENTARY_SERVICE$n(pnucus)i
004019a0+      W?handle_REQ_GET_SUPPLEMENTARY_SERVICE_REPLY$n(pnucus)i
00401a20+      W?handle_REQ_PERFORM_SUPPLEMENTARY_SERVICE$n(pnucus)i
00401af0+      W?handle_REQ_PERFORM_SUPPLEMENTARY_SERVICE_REPLY$n(pnucus)i
00401b50+      W?handle_REQ_GET_SYS_CONFIG$n(pnucus)i
00401b70+      W?handle_REQ_GET_SYS_CONFIG_REPLY$n(pnucus)i
00401c50+      W?handle_REQ_MAP_ADDR$n(pnucus)i
00401cd0+      W?handle_REQ_MAP_ADDR_REPLY$n(pnucus)i
00401d20+      W?handle_REQ_ADDR_INFO$n(pnucus)i
00401d50+      W?handle_REQ_ADDR_INFO_REPLY$n(pnucus)i
00401d80+      W?handle_REQ_CHECKSUM_MEM$n(pnucus)i
00401dc0+      W?handle_REQ_CHECKSUM_MEM_REPLY$n(pnucus)i
00401df0+      W?handle_REQ_READ_MEM$n(pnucus)i
00401e30+      W?handle_REQ_READ_MEM_REPLY$n(pnucus)i
00401e90+      W?handle_REQ_WRITE_MEM$n(pnucus)i
00401f00+      W?handle_REQ_WRITE_MEM_REPLY$n(pnucus)i
00401f30+      W?handle_REQ_READ_IO$n(pnucus)i
00401f70+      W?handle_REQ_READ_IO_REPLY$n(pnucus)i
00401fd0+      W?handle_REQ_WRITE_IO$n(pnucus)i
00402030+      W?handle_REQ_WRITE_IO_REPLY$n(pnucus)i
00402060+      W?handle_REQ_READ_CPU$n(pnucus)i
00402080+      W?handle_REQ_READ_FPU$n(pnucus)i
004020a0+      W?handle_REQ_WRITE_CPU$n(pnucus)i
004020c0+      W?handle_REQ_WRITE_FPU$n(pnucus)i
004020e0+      W?handle_REQ_PROG_GO$n(pnucus)i
00402100+      W?PrintConditions$n(us)v
00402240+      W?handle_REQ_PROG_GO_REPLY$n(pnucus)i
00402290+      W?handle_REQ_PROG_STEP$n(pnucus)i
004022b0+      W?handle_REQ_PROG_STEP_REPLY$n(pnucus)i
00402300+      W?handle_REQ_PROG_LOAD$n(pnucus)i
004023b0+      W?handle_REQ_PROG_LOAD_REPLY$n(pnucus)i
004024b0+      W?handle_REQ_PROG_KILL$n(pnucus)i
004024e0+      W?handle_REQ_PROG_KILL_REPLY$n(pnucus)i
00402510+      W?handle_REQ_SET_WATCH$n(pnucus)i
00402550+      W?handle_REQ_SET_WATCH_REPLY$n(pnucus)i
004025b0+      W?handle_REQ_CLEAR_WATCH$n(pnucus)i
004025f0+      W?handle_REQ_SET_BREAK$n(pnucus)i
00402620+      W?handle_REQ_SET_BREAK_REPLY$n(pnucus)i
00402650+      W?handle_REQ_CLEAR_BREAK$n(pnucus)i
00402690+      W?handle_REQ_GET_NEXT_ALIAS$n(pnucus)i
004026c0+      W?handle_REQ_GET_NEXT_ALIAS_REPLY$n(pnucus)i
00402730+      W?handle_REQ_SET_USER_SCREEN$n(pnucus)i
00402750+      W?handle_REQ_SET_DEBUG_SCREEN$n(pnucus)i
00402770+      W?handle_REQ_READ_USER_KEYBOARD$n(pnucus)i
004027a0+      W?handle_REQ_READ_USER_KEYBOARD_REPLY$n(pnucus)i
004027d0+      W?handle_REQ_GET_LIB_NAME$n(pnucus)i
00402800+      W?handle_REQ_GET_LIB_NAME_REPLY$n(pnucus)i
00402870+      W?handle_REQ_GET_ERR_TEXT$n(pnucus)i
004028a0+      W?handle_REQ_GET_MESSAGE_TEXT$n(pnucus)i
004028c0+      W?handle_REQ_GET_MESSAGE_TEXT_REPLY$n(pnucus)i
00402900+      W?handle_REQ_REDIRECT_STDIN$n(pnucus)i
00402930+      W?handle_REQ_REDIRECT_STDIN_REPLY$n(pnucus)i
00402960+      W?handle_REQ_REDIRECT_STDOUT$n(pnucus)i
00402990+      W?handle_REQ_REDIRECT_STDOUT_REPLY$n(pnucus)i
004029c0+      W?handle_REQ_SPLIT_CMD$n(pnucus)i
004029f0+      W?handle_REQ_SPLIT_CMD_REPLY$n(pnucus)i
00402a30+      W?handle_REQ_READ_REGS$n(pnucus)i
00402a50+      W?DumpRegistersMAX_X86$n(pn$mad_registers$$)v
00402b20+      W?DumpRegisters$n(pn$mad_registers$$)v
00402b60+      W?handle_REQ_READ_REGS_REPLY$n(pnucus)i
00402b80+      W?handle_REQ_WRITE_REGS$n(pnucus)i
00402ba0+      W?handle_REQ_MACHINE_DATA$n(pnucus)i
00402c20+      W?handle_REQ_MACHINE_DATA_REPLY$n(pnucus)i
Module: trsp_cap.obj(/mnt/sda5/.user/root/src/openwatcom-1.9/bld/wv/utils/trap2txt/c/trsp_cap.cpp)
00404470       W?SSD_Capabilities$n(ipnucus)i
Module: trsp_env.obj(/mnt/sda5/.user/root/src/openwatcom-1.9/bld/wv/utils/trap2txt/c/trsp_env.cpp)
004044a0       W?SSD_Environment$n(ipnucus)i
Module: trspfinf.obj(/mnt/sda5/.user/root/src/openwatcom-1.9/bld/wv/utils/trap2txt/c/trspfinf.cpp)
004044d0       W?SSD_FileInfo$n(ipnucus)i
Module: trspfile.obj(/mnt/sda5/.user/root/src/openwatcom-1.9/bld/wv/utils/trap2txt/c/trspfile.cpp)
00404530       W?SSD_Files$n(ipnucus)i
Module: trsp_ovl.obj(/mnt/sda5/.user/root/src/openwatcom-1.9/bld/wv/utils/trap2txt/c/trsp_ovl.cpp)
004046c0       W?SSD_Overlays$n(ipnucus)i
Module: trsp_thr.obj(/mnt/sda5/.user/root/src/openwatcom-1.9/bld/wv/utils/trap2txt/c/trsp_thr.cpp)
004046f0       W?SSD_Threads$n(ipnucus)i
Module: trap_x86.obj(/mnt/sda5/.user/root/src/openwatcom-1.9/bld/wv/utils/trap2txt/c/trap_x86.cpp)
00404720*      W?DumpRegistersMAD_X86$n(pn$mad_registers$$)v
Module: /mnt/sda5/.user/root/src/openwatcom-1.9/rel2/lib386/nt/clib3r.lib(stricmp.c)
00404900       stricmp_
Module: /mnt/sda5/.user/root/src/openwatcom-1.9/rel2/lib386/nt/clib3r.lib(fopen.c)
00404940+      __open_flags_
00404b50+      _fsopen_
00404ba0       fopen_
00404c30*      freopen_
Module: /mnt/sda5/.user/root/src/openwatcom-1.9/rel2/lib386/nt/clib3r.lib(fread.c)
00404ca0       fread_
Module: /mnt/sda5/.user/root/src/openwatcom-1.9/rel2/lib386/nt/clib3r.lib(iob.c)
0040d2f4       ___iob
0040d4fc       __fmode
0040e4c0       ___OpenStreams
0040e4c4       ___ClosedStreams
Module: /mnt/sda5/.user/root/src/openwatcom-1.9/rel2/lib386/nt/clib3r.lib(fprintf.c)
00404e80       fprintf_
Module: /mnt/sda5/.user/root/src/openwatcom-1.9/rel2/lib386/nt/clib3r.lib(fclose.c)
00404eb0       __doclose_
00404f50       __shutdown_stream_
00404f70       fclose_
0040e4c8+      ___RmTmpFileFn
Module: /mnt/sda5/.user/root/src/openwatcom-1.9/rel2/lib386/nt/clib3r.lib(feof.c)
00404fc0       feof_
Module: /mnt/sda5/.user/root/src/openwatcom-1.9/rel2/lib386/nt/clib3r.lib(printf.c)
00404fd0       printf_
Module: /mnt/sda5/.user/root/src/openwatcom-1.9/rel2/lib386/nt/clib3r.lib(exit.c)
00404ff2+      __null_int23_exit_
00404ff3       exit_
00405043*      _exit_
0040d500+      ___int23_exit
0040d504+      ___FPE_handler_exit
Module: /mnt/sda5/.user/root/src/openwatcom-1.9/rel2/lib386/nt/clib3r.lib(sprintf.c)
00405060       sprintf_
Module: /mnt/sda5/.user/root/src/openwatcom-1.9/rel2/lib386/nt/clib3r.lib(calloc.c)
00405090       calloc_
Module: /mnt/sda5/.user/root/src/openwatcom-1.9/rel2/lib386/nt/clib3r.lib(_icstrdu.asm)
004050ac       strdup_
Module: /mnt/sda5/.user/root/src/openwatcom-1.9/rel2/lib386/nt/clib3r.lib(cstrtwnt)
004050b2       _cstart_
004050b2*      mainCRTStartup
Module: /mnt/sda5/.user/root/src/openwatcom-1.9/rel2/lib386/nt/clib3r.lib(argcv.c)
0040e4cc       __argc
0040e4d0       __argv
0040e4d4       ___argv
0040e4d8       ___argc
Module: /mnt/sda5/.user/root/src/openwatcom-1.9/rel2/lib386/nt/plib3r.lib(fsroot.cpp)
0040d880       ___wcpp_4_data_init_fs_root_
Module: /mnt/sda5/.user/root/src/openwatcom-1.9/rel2/lib386/nt/clib3r.lib(comtflag.c)
00405120*      __set_commode_
0040d508       __commode
Module: /mnt/sda5/.user/root/src/openwatcom-1.9/rel2/lib386/nt/clib3r.lib(seterrno.c)
0040512b       __set_errno_
00405139*      __set_EDOM_
00405147*      __set_ERANGE_
00405155*      __set_EINVAL_
00405168       __set_doserrno_
Module: /mnt/sda5/.user/root/src/openwatcom-1.9/rel2/lib386/nt/clib3r.lib(tolower.c)
00405180       tolower_
Module: /mnt/sda5/.user/root/src/openwatcom-1.9/rel2/lib386/nt/clib3r.lib(openwnt.c)
00405390*      open_
004053b0       sopen_
Module: /mnt/sda5/.user/root/src/openwatcom-1.9/rel2/lib386/nt/clib3r.lib(fseek.c)
00405430       fseek_
Module: /mnt/sda5/.user/root/src/openwatcom-1.9/rel2/lib386/nt/clib3r.lib(chktty.c)
00405540       __chktty_
Module: /mnt/sda5/.user/root/src/openwatcom-1.9/rel2/lib386/nt/clib3r.lib(freefp.c)
00405580       __freefp_
004055d0       __purgefp_
Module: /mnt/sda5/.user/root/src/openwatcom-1.9/rel2/lib386/nt/clib3r.lib(allocfp.c)
00405600       __allocfp_
Module: /mnt/sda5/.user/root/src/openwatcom-1.9/rel2/lib386/nt/clib3r.lib(mainwnt.c)
0040d50c*      ___TlsIndex
0040d510+      ___FirstThreadData
0040d514       ___GetThreadPtr
0040d518       __AccessFileH
0040d51c       __ReleaseFileH
0040d520       __AccessIOB
0040d524       __ReleaseIOB
0040d528       __AccessNHeap
0040d52c*      __AccessFHeap
0040d530       __ReleaseNHeap
004056e0*      __threadid_
00405700+      __sig_null_rtn_
00405710+      __NTInit_
004058f0+      __NTFini_
00405950       __NTMainInit_
004059b0       __exit_
0040d534*      __ReleaseFHeap
0040d538*      __AccessTDList
0040d53c*      __ReleaseTDList
0040d540       __AccessFList
0040d544       __ReleaseFList
0040d548+      __ThreadExitRtn
0040d54c       ___sig_init_rtn
0040d550       ___sig_fini_rtn
0040d554       ___process_fini
0040e4e4       ___Is_DLL
Module: /mnt/sda5/.user/root/src/openwatcom-1.9/rel2/lib386/nt/clib3r.lib(qread.c)
00405a00       __qread_
Module: /mnt/sda5/.user/root/src/openwatcom-1.9/rel2/lib386/nt/clib3r.lib(ioalloc.c)
00405a70       __ioalloc_
Module: /mnt/sda5/.user/root/src/openwatcom-1.9/rel2/lib386/nt/clib3r.lib(fgetc.c)
00405b10       __fill_buffer_
00405c10*      fgetc_
Module: /mnt/sda5/.user/root/src/openwatcom-1.9/rel2/lib386/nt/clib3r.lib(initfile.c)
00405d00       __InitFiles_
Module: /mnt/sda5/.user/root/src/openwatcom-1.9/rel2/lib386/nt/clib3r.lib(ioexit.c)
00405e00*      fcloseall_
00405e10       __full_io_exit_
Module: /mnt/sda5/.user/root/src/openwatcom-1.9/rel2/lib386/nt/clib3r.lib(fprtf.c)
00405e40       __fprtf_
Module: /mnt/sda5/.user/root/src/openwatcom-1.9/rel2/lib386/nt/clib3r.lib(__lseek.c)
00405f00       __lseek_
Module: /mnt/sda5/.user/root/src/openwatcom-1.9/rel2/lib386/nt/clib3r.lib(_clsewnt.c)
00405f40       __close_
Module: /mnt/sda5/.user/root/src/openwatcom-1.9/rel2/lib386/nt/clib3r.lib(nfree.c)
00405fa0       _nfree_
00405fa0       free_
0040eb00       ___MiniHeapFreeRover
Module: /mnt/sda5/.user/root/src/openwatcom-1.9/rel2/lib386/nt/clib3r.lib(flush.c)
004060b0       __flush_
Module: /mnt/sda5/.user/root/src/openwatcom-1.9/rel2/lib386/nt/clib3r.lib(initrtns.c)
004061c0       __InitRtns
00406210       __FiniRtns
Module: /mnt/sda5/.user/root/src/openwatcom-1.9/rel2/lib386/nt/clib3r.lib(vsprintf.c)
00406290       vsprintf_
Module: /mnt/sda5/.user/root/src/openwatcom-1.9/rel2/lib386/nt/clib3r.lib(nmalloc.c)
004062b0       _nmalloc_
004062b0       malloc_
0040d558       ___nheapbeg
0040d55c       ___MiniHeapRover
0040d560       ___LargestSizeB4MiniHeapRover
Module: /mnt/sda5/.user/root/src/openwatcom-1.9/rel2/lib386/nt/clib3r.lib(memset.c)
004063b0       memset_
Module: /mnt/sda5/.user/root/src/openwatcom-1.9/rel2/lib386/nt/clib3r.lib(strdup.c)
004063d0       __clib_strdup_
Module: /mnt/sda5/.user/root/src/openwatcom-1.9/rel2/lib386/nt/clib3r.lib(main2wnt.c)
00406410       __NTMain
Module: /mnt/sda5/.user/root/src/openwatcom-1.9/rel2/lib386/nt/clib3r.lib(segdefns)
00401003       ___begtext
0040d000*      __nullarea
0040d874       __Start_XI
0040d898       __End_XI
0040d898       __Start_YI
0040d8b6       __End_YI
Module: /mnt/sda5/.user/root/src/openwatcom-1.9/rel2/lib386/nt/clib3r.lib(initargv.c)
00406470       __Init_Argv_
004064c0+      _getargv_
00406660       __Fini_Argv_
Module: /mnt/sda5/.user/root/src/openwatcom-1.9/rel2/lib386/nt/plib3r.lib(cppdata.cpp)
0040eb08       __wint_thread_data
0040eb2c*      __compiled_under_NT
Module: /mnt/sda5/.user/root/src/openwatcom-1.9/rel2/lib386/nt/clib3r.lib(hdlman.c)
0040d564+      ___NHandles
0040d568+      ___OSHandles
0040d56c+      ___FakeHandles
00406670+      __growPOSIXHandles_
00406710       __allocPOSIXHandle_
004067d0       __freePOSIXHandle_
004067f0       __getOSHandle_
00406800       __setOSHandle_
00406850+      __NTGetFakeHandle_
004068c0       __initPOSIXHandles_
004069a0*      __set_handles_
004069b0*      _grow_handles_
Module: /mnt/sda5/.user/root/src/openwatcom-1.9/rel2/lib386/nt/clib3r.lib(ntfio.c)
004069f0*      __GetNTCreateAttr_
00406a30       __GetNTAccessAttr_
00406a60       __GetNTShareAttr_
Module: /mnt/sda5/.user/root/src/openwatcom-1.9/rel2/lib386/nt/clib3r.lib(umaskval.c)
0040d578       ___umaskval
Module: /mnt/sda5/.user/root/src/openwatcom-1.9/rel2/lib386/nt/clib3r.lib(isattwnt.c)
00406ac0       isatty_
Module: /mnt/sda5/.user/root/src/openwatcom-1.9/rel2/lib386/nt/clib3r.lib(stiomode.c)
00406ae0       __grow_iomode_
00406bb0+      __shrink_iomode_
00406bf0       __SetIOMode_
Module: /mnt/sda5/.user/root/src/openwatcom-1.9/rel2/lib386/nt/clib3r.lib(dosret.c)
00406c60*      _dosretax_
00406c70*      _dosret0_
00406c80       __set_errno_dos_
00406cb0*      __set_errno_dos_reterr_
00406cc0       __set_errno_nt_
00406cd0*      __set_errno_nt_reterr_
Module: /mnt/sda5/.user/root/src/openwatcom-1.9/rel2/lib386/nt/clib3r.lib(lseek.c)
00406cf0       lseek_
Module: /mnt/sda5/.user/root/src/openwatcom-1.9/rel2/lib386/nt/clib3r.lib(tell.c)
00406d40       tell_
Module: /mnt/sda5/.user/root/src/openwatcom-1.9/rel2/lib386/nt/clib3r.lib(crwdata)
0040d6c4       __osmajor
0040d6c5       __osminor
0040d6c6       __osbuild
0040d6c8       __osver
0040d6cc       __winmajor
0040d6d0       __winminor
0040d6d4       __winver
0040d690       __LpDllName
0040d694       __LpwCmdLine
0040d698       __LpwPgmName
0040d69c       __LpwDllName
0040d688       __LpCmdLine
0040d68c       __LpPgmName
0040d680*      __dynend
0040d684       __curbrk
0040d6a0*      __STACKLOW
0040d6a4       __STACKTOP
0040d6a8       __ASTACKSIZ
0040d6ac       __ASTACKPTR
0040d6b0       __cbyte
0040d6b4*      __cbyte2
0040d6b8*      __child
0040d6be       __Envptr
0040d6c2*      __Envseg
0040d6bc*      __no87
0040d6d8       ___FPE_handler
Module: /mnt/sda5/.user/root/src/openwatcom-1.9/rel2/lib386/nt/clib3r.lib(environ.c)
0040eb34       ___env_mask
0040eb38       _environ
0040eb3c       __wenviron
Module: /mnt/sda5/.user/root/src/openwatcom-1.9/rel2/lib386/nt/clib3r.lib(getmodfn.c)
00406d60       __lib_GetModuleFileNameW_
Module: /mnt/sda5/.user/root/src/openwatcom-1.9/rel2/lib386/nt/clib3r.lib(istable.c)
00406e00       __IsTable
Module: /mnt/sda5/.user/root/src/openwatcom-1.9/rel2/lib386/nt/clib3r.lib(ustrdup.c)
00406f01       __clib_wcsdup_
Module: /mnt/sda5/.user/root/src/openwatcom-1.9/rel2/lib386/nt/clib3r.lib(excptwnt.c)
00407590+      ___ReportException@4
004079e0       __DefaultExceptionHandler_
00407a20+      ___ExceptionFilter
00407c30       __NewExceptionFilter_
00407c60       __DoneExceptionFilter_
0040d6dc       ___oscode_check_func
0040d6e0       ___raise_func
0040eb40*      _sw
0040eb44+      ___ExceptionHandled
0040eb45+      ___ReportInvoked
Module: /mnt/sda5/.user/root/src/openwatcom-1.9/rel2/lib386/nt/clib3r.lib(stklmwnt.c)
00407ca0       __init_stack_limits_
Module: /mnt/sda5/.user/root/src/openwatcom-1.9/rel2/lib386/nt/clib3r.lib(iomode.c)
00407d10       __GetIOMode_
00407d30       __SetIOMode_nogrow_
0040d6f8       ___NFiles
0040d6fc       ___init_mode
0040d74c       ___io_mode
Module: /mnt/sda5/.user/root/src/openwatcom-1.9/rel2/lib386/nt/clib3r.lib(flushall.c)
00407d50       __flushall_
00407d90*      flushall_
Module: /mnt/sda5/.user/root/src/openwatcom-1.9/rel2/lib386/nt/clib3r.lib(gtchewnt.c)
00407da0       getche_
Module: /mnt/sda5/.user/root/src/openwatcom-1.9/rel2/lib386/nt/clib3r.lib(xmsgwnt.c)
00407dd0+      __exit_with_msg_
00407e30       __fatal_runtime_error_
Module: /mnt/sda5/.user/root/src/openwatcom-1.9/rel2/lib386/nt/clib3r.lib(fputc.c)
00407e50       fputc_
Module: /mnt/sda5/.user/root/src/openwatcom-1.9/rel2/lib386/nt/clib3r.lib(prtf.c)
00407f30       __prtf_
Module: /mnt/sda5/.user/root/src/openwatcom-1.9/rel2/lib386/nt/clib3r.lib(mem.c)
00408c00       __MemAllocator
00408cb0       __MemFree
Module: /mnt/sda5/.user/root/src/openwatcom-1.9/rel2/lib386/nt/clib3r.lib(fsync.c)
00408df0       fsync_
Module: /mnt/sda5/.user/root/src/openwatcom-1.9/rel2/lib386/nt/clib3r.lib(qwrit.c)
00408e40       __qwrite_
Module: /mnt/sda5/.user/root/src/openwatcom-1.9/rel2/lib386/nt/clib3r.lib(nmemneed.c)
00408f20       __nmemneed_
Module: /mnt/sda5/.user/root/src/openwatcom-1.9/rel2/lib386/nt/clib3r.lib(grownear.c)
00409090       __ExpandDGROUP_
Module: /mnt/sda5/.user/root/src/openwatcom-1.9/rel2/lib386/nt/clib3r.lib(__stos)
004090b0       __STOSB
004090e7*      __STOSD
Module: /mnt/sda5/.user/root/src/openwatcom-1.9/rel2/lib386/nt/clib3r.lib(mthrdini.c)
00409160       __InitThreadData_
0040d750       ___ThreadDataSize
Module: /mnt/sda5/.user/root/src/openwatcom-1.9/rel2/lib386/nt/clib3r.lib(cmain386.c)
00409190       __CMain
Module: /mnt/sda5/.user/root/src/openwatcom-1.9/rel2/lib386/nt/clib3r.lib(dosseg)
00001234       __DOSseg__
Module: /mnt/sda5/.user/root/src/openwatcom-1.9/rel2/lib386/nt/clib3r.lib(histsplt.c)
0040eb48       ___historical_splitparms
Module: /mnt/sda5/.user/root/src/openwatcom-1.9/rel2/lib386/nt/clib3r.lib(___argc.c)
0040eb4c       ____Argc
0040eb50       ____Argv
Module: /mnt/sda5/.user/root/src/openwatcom-1.9/rel2/lib386/nt/clib3r.lib(nrealloc.c)
004091d0*      _nrealloc_
004091d0       realloc_
Module: /mnt/sda5/.user/root/src/openwatcom-1.9/rel2/lib386/nt/clib3r.lib(iomodtty.c)
00409250       __ChkTTYIOMode_
00409290*      __IOMode_
Module: /mnt/sda5/.user/root/src/openwatcom-1.9/rel2/lib386/nt/clib3r.lib(setenvp.c)
004092b0       __setenvp_
00409370       __freeenvp_
Module: /mnt/sda5/.user/root/src/openwatcom-1.9/rel2/lib386/nt/clib3r.lib(ustrlen.c)
004093bd       wcslen_
Module: /mnt/sda5/.user/root/src/openwatcom-1.9/rel2/lib386/nt/clib3r.lib(memcpy.c)
004093d0       memcpy_
Module: /mnt/sda5/.user/root/src/openwatcom-1.9/rel2/lib386/nt/clib3r.lib(conutwnt.c)
00409400       __NTRealKey_
004094b0       __NTConsoleInput_
004094c0       __NTConsoleOutput_
Module: /mnt/sda5/.user/root/src/openwatcom-1.9/rel2/lib386/nt/clib3r.lib(fclex387.c)
004094d0       _ClearFPE_
Module: /mnt/sda5/.user/root/src/openwatcom-1.9/rel2/lib386/nt/clib3r.lib(signlwnt.c)
0040d75c+      __SignalTable
004094e0+      __SetSignalFunc_
00409530+      __GetSignalFunc_
00409560+      __GetSignalOSCode_
00409590+      __CheckSignalExCode_
004096d0+      __sigabort_
004096e0       __sigfpe_handler_
00409730*      signal_
004097c0+      raise_
00409830+      __SigInit_
00409880+      __SigFini_
004098c0+      __sig_init_
Module: /mnt/sda5/.user/root/src/openwatcom-1.9/rel2/lib386/nt/clib3r.lib(getchwnt.c)
004099e0       getch_
Module: /mnt/sda5/.user/root/src/openwatcom-1.9/rel2/lib386/nt/clib3r.lib(putchwnt.c)
00409a50       putch_
Module: /mnt/sda5/.user/root/src/openwatcom-1.9/rel2/lib386/nt/clib3r.lib(enterdb.c)
00409aa0       __EnterWVIDEO_
0040d7cc+      ___WD_Present
Module: /mnt/sda5/.user/root/src/openwatcom-1.9/rel2/lib386/nt/clib3r.lib(wctomb.c)
00409ad0       wctomb_
Module: /mnt/sda5/.user/root/src/openwatcom-1.9/rel2/lib386/nt/clib3r.lib(itoa.c)
00409b10+      utoa_
00409b60       itoa_
Module: /mnt/sda5/.user/root/src/openwatcom-1.9/rel2/lib386/nt/clib3r.lib(strupr.c)
00409b90       strupr_
Module: /mnt/sda5/.user/root/src/openwatcom-1.9/rel2/lib386/nt/clib3r.lib(noefgfmt.c)
0040d7d0       ___EFG_printf
0040d7d4*      ___EFG_scanf
Module: /mnt/sda5/.user/root/src/openwatcom-1.9/rel2/lib386/nt/clib3r.lib(lltoa.c)
00409c00       ulltoa_
00409c70*      lltoa_
Module: /mnt/sda5/.user/root/src/openwatcom-1.9/rel2/lib386/nt/clib3r.lib(ltoa.c)
00409ca0       ultoa_
00409cf0*      ltoa_
Module: /mnt/sda5/.user/root/src/openwatcom-1.9/rel2/lib386/nt/clib3r.lib(mbisdbcs.c)
0040eb64       ___IsDBCS
Module: /mnt/sda5/.user/root/src/openwatcom-1.9/rel2/lib386/nt/clib3r.lib(mbislead.c)
00409d20*      _ismbblead_
0040eb68       ___MBCSIsTable
Module: /mnt/sda5/.user/root/src/openwatcom-1.9/rel2/lib386/nt/clib3r.lib(amblksiz.c)
0040d7d8       __amblksiz
Module: /mnt/sda5/.user/root/src/openwatcom-1.9/rel2/lib386/nt/clib3r.lib(heapen.c)
00409d40*      _heapenable_
0040d7dc       ___heap_enabled
Module: /mnt/sda5/.user/root/src/openwatcom-1.9/rel2/lib386/nt/clib3r.lib(nheapmin.c)
00409d70       _nheapshrink_
00409d70*      _nheapmin_
00409d70*      _heapmin_
00409d70*      _heapshrink_
Module: /mnt/sda5/.user/root/src/openwatcom-1.9/rel2/lib386/nt/clib3r.lib(cinit.c)
00409e60       __CommonInit_
Module: /mnt/sda5/.user/root/src/openwatcom-1.9/rel2/lib386/nt/clib3r.lib(nmsize.c)
00409e70       _nmsize_
00409e70*      _msize_
Module: /mnt/sda5/.user/root/src/openwatcom-1.9/rel2/lib386/nt/clib3r.lib(nexpand.c)
00409e80       _nexpand_
00409e80*      _expand_
00409ec0+      __HeapManager_expand_
Module: /mnt/sda5/.user/root/src/openwatcom-1.9/rel2/lib386/nt/clib3r.lib(dofilstr.c)
0040a0a0       __ParsePosixHandleStr_
Module: /mnt/sda5/.user/root/src/openwatcom-1.9/rel2/lib386/nt/clib3r.lib(clearenv.c)
0040a1c0       clearenv_
Module: /mnt/sda5/.user/root/src/openwatcom-1.9/rel2/lib386/nt/clib3r.lib(abort.c)
0040a265*      abort_
0040a277       __terminate_
0040d7e0       ___abort
Module: /mnt/sda5/.user/root/src/openwatcom-1.9/rel2/lib386/nt/clib3r.lib(mbinit.c)
0040a2c3       __mbinit_
0040d7e4       ___MBCodePage
Module: /mnt/sda5/.user/root/src/openwatcom-1.9/rel2/lib386/nt/clib3r.lib(alphabet.c)
0040d138       ___Alphabet
Module: /mnt/sda5/.user/root/src/openwatcom-1.9/rel2/lib386/nt/clib3r.lib(getenv.c)
0040a3c0       getenv_
Module: /mnt/sda5/.user/root/src/openwatcom-1.9/rel2/lib386/nt/clib3r.lib(strncpy.c)
0040a450       strncpy_
Module: /mnt/sda5/.user/root/src/openwatcom-1.9/rel2/lib386/nt/clib3r.lib(strtol.c)
0040a6b0*      strtoul_
0040a6c0       strtol_
Module: /mnt/sda5/.user/root/src/openwatcom-1.9/rel2/lib386/nt/clib3r.lib(putenv.c)
0040a6d0       putenv_
0040a960       __putenv_
Module: /mnt/sda5/.user/root/src/openwatcom-1.9/rel2/lib386/nt/clib3r.lib(mbterm.c)
0040aad0       _mbterm_
Module: /mnt/sda5/.user/root/src/openwatcom-1.9/rel2/lib386/nt/clib3r.lib(mbsnextc.c)
0040ab10       _mbsnextc_
Module: /mnt/sda5/.user/root/src/openwatcom-1.9/rel2/lib386/nt/clib3r.lib(mbcupper.c)
0040ab50       _mbctoupper_
Module: /mnt/sda5/.user/root/src/openwatcom-1.9/rel2/lib386/nt/clib3r.lib(mbsinc.c)
0040ab80       _mbsinc_
Module: /mnt/sda5/.user/root/src/openwatcom-1.9/rel2/lib386/nt/clib3r.lib(mbschr.c)
0040abb0       _mbschr_
Module: /mnt/sda5/.user/root/src/openwatcom-1.9/rel2/lib386/nt/clib3r.lib(mbslen.c)
0040ac10       _mbslen_
Module: /mnt/sda5/.user/root/src/openwatcom-1.9/rel2/lib386/nt/clib3r.lib(mbstowcs.c)
0040ac40       mbstowcs_
Module: /mnt/sda5/.user/root/src/openwatcom-1.9/rel2/lib386/nt/clib3r.lib(uputenv.c)
0040acc0*      _wputenv_
0040aee0       __wputenv_
Module: /mnt/sda5/.user/root/src/openwatcom-1.9/rel2/lib386/nt/clib3r.lib(toupper.c)
0040afe0       toupper_
Module: /mnt/sda5/.user/root/src/openwatcom-1.9/rel2/lib386/nt/clib3r.lib(memmove.c)
0040aff0       memmove_
Module: /mnt/sda5/.user/root/src/openwatcom-1.9/rel2/lib386/nt/clib3r.lib(mbconv.c)
0040b050       _mbvtop_
Module: /mnt/sda5/.user/root/src/openwatcom-1.9/rel2/lib386/nt/clib3r.lib(mbclen.c)
0040b070       _mbclen_
Module: /mnt/sda5/.user/root/src/openwatcom-1.9/rel2/lib386/nt/clib3r.lib(mbccmp.c)
0040b0a0       _mbccmp_
Module: /mnt/sda5/.user/root/src/openwatcom-1.9/rel2/lib386/nt/clib3r.lib(mbtowc.c)
0040b0e0       mbtowc_
Module: /mnt/sda5/.user/root/src/openwatcom-1.9/rel2/lib386/nt/clib3r.lib(ustrchr.c)
0040b170       wcschr_
Module: /mnt/sda5/.user/root/src/openwatcom-1.9/rel2/lib386/nt/clib3r.lib(setenvar.c)
0040b190       __lib_SetEnvironmentVariableW_
Module: /mnt/sda5/.user/root/src/openwatcom-1.9/rel2/lib386/nt/clib3r.lib(crtwenv.c)
0040b280       __create_wide_environment_
Module: /mnt/sda5/.user/root/src/openwatcom-1.9/rel2/lib386/nt/clib3r.lib(wcstombs.c)
0040b2f0       wcstombs_
Module: /mnt/sda5/.user/root/src/openwatcom-1.9/rel2/lib386/nt/clib3r.lib(utoupper.c)
0040b38f       towupper_


                        +----------------------+
                        |   Imported Symbols   |
                        +----------------------+

Symbol                              Module
======                              ======

_CreateFileA@28                     KERNEL32.DLL
_GetEnvironmentStringsA@0           KERNEL32.DLL
_GetVersion@0                       KERNEL32.DLL
_GetModuleFileNameA@12              KERNEL32.DLL
_GetCommandLineA@0                  KERNEL32.DLL
_GetCommandLineW@0                  KERNEL32.DLL
_FreeEnvironmentStringsA@4          KERNEL32.DLL
_GetModuleHandleA@4                 KERNEL32.DLL
_ExitProcess@4                      KERNEL32.DLL
_ReadFile@20                        KERNEL32.DLL
_GetLastError@0                     KERNEL32.DLL
_SetFilePointer@16                  KERNEL32.DLL
_CloseHandle@4                      KERNEL32.DLL
_SetStdHandle@8                     KERNEL32.DLL
_CreateEventA@16                    KERNEL32.DLL
_GetStdHandle@4                     KERNEL32.DLL
_GetFileType@4                      KERNEL32.DLL
_GetModuleFileNameW@12              KERNEL32.DLL
_MultiByteToWideChar@24             KERNEL32.DLL
_LoadLibraryA@4                     KERNEL32.DLL
_GetProcAddress@8                   KERNEL32.DLL
_WriteFile@20                       KERNEL32.DLL
_SetUnhandledExceptionFilter@4      KERNEL32.DLL
_UnhandledExceptionFilter@4         KERNEL32.DLL
_VirtualQuery@12                    KERNEL32.DLL
_FlushFileBuffers@4                 KERNEL32.DLL
_VirtualAlloc@16                    KERNEL32.DLL
_GetCurrentThreadId@0               KERNEL32.DLL
_SetConsoleCtrlHandler@8            KERNEL32.DLL
_ReadConsoleInputA@16               KERNEL32.DLL
_GetConsoleMode@8                   KERNEL32.DLL
_SetConsoleMode@8                   KERNEL32.DLL
_WriteConsoleA@20                   KERNEL32.DLL
_WideCharToMultiByte@32             KERNEL32.DLL
_VirtualFree@12                     KERNEL32.DLL
_GetACP@0                           KERNEL32.DLL
_GetOEMCP@0                         KERNEL32.DLL
_GetCPInfo@8                        KERNEL32.DLL
_SetEnvironmentVariableA@8          KERNEL32.DLL
_CharUpperA@4                       USER32.DLL
_SetEnvironmentVariableW@8          KERNEL32.DLL


                        +--------------------+
                        |   Libraries Used   |
                        +--------------------+

/mnt/sda5/.user/root/src/openwatcom-1.9/rel2/lib386/nt/kernel32.lib
/mnt/sda5/.user/root/src/openwatcom-1.9/rel2/lib386/nt/user32.lib
/mnt/sda5/.user/root/src/openwatcom-1.9/rel2/lib386/nt/clib3r.lib
/mnt/sda5/.user/root/src/openwatcom-1.9/rel2/lib386/nt/plib3r.lib


                        +-----------------------+
                        |   Linker Statistics   |
                        +-----------------------+

Stack size:  00010000 (65536.)
Memory size:  0001c59e (116126.)
Entry point address: 004050b2
Link time: 00:00.00
