Open Watcom Linker Version 1.9
Portions Copyright (c) 1985-2002 Sybase, Inc. All Rights Reserved.
Created on:       12/12/16 02:41:31
Executable Image: wv.exe
creating an OS/2 32-bit Presentation Manager executable


                        +------------+
                        |   Groups   |
                        +------------+

Group                           Address              Size
=====                           =======              ====

DGROUP                          0002:00000000        00019800



                        +--------------+
                        |   Segments   |
                        +--------------+

Segment                Class          Group          Address         Size
=======                =====          =====          =======         ====

BEGTEXT                CODE           AUTO           0001:00000000   00000007
_TEXT                  CODE           AUTO           0001:00000010   00066357
_MSGSEG32              CODE           AUTO           0001:00066368   00000030
_NULL                  BEGDATA        DGROUP         0002:00000000   00000004
_AFTERNULL             BEGDATA        DGROUP         0002:00000004   00000000
CONST                  DATA           DGROUP         0002:00000004   0000005c
CONST2                 DATA           DGROUP         0002:00000060   00000000
_DATA                  DATA           DGROUP         0002:00000060   00004d44
XIB                    DATA           DGROUP         0002:00004da4   00000000
XI                     DATA           DGROUP         0002:00004da4   0000003c
XIE                    DATA           DGROUP         0002:00004de0   00000000
YIB                    DATA           DGROUP         0002:00004de0   00000000
YI                     DATA           DGROUP         0002:00004de0   0000001e
YIE                    DATA           DGROUP         0002:00004dfe   00000000
TIB                    DATA           DGROUP         0002:00004dfe   00000000
TI                     DATA           DGROUP         0002:00004dfe   00000000
TIE                    DATA           DGROUP         0002:00004dfe   00000000
DATA                   DATA           DGROUP         0002:00004dfe   00000000
_BSS                   BSS            DGROUP         0002:00004e00   000049f4
STACK                  STACK          DGROUP         0002:00009800   00010000


                        +----------------+
                        |   Memory Map   |
                        +----------------+

* = unreferenced symbol
+ = symbol only referenced locally

Address        Symbol
=======        ======

Module: autoenv.obj(/mnt/sda5/.user/root/src/openwatcom-1.9/bld/watcom/c/autoenv.c)
0001:000007d0  watcom_setup_env_
Module: os22ini.obj(/mnt/sda5/.user/root/src/openwatcom-1.9/bld/wv/os2/c/os22ini.c)
0002:00004e00+ _CmdData
0001:000009d0  GUImain_
0001:00000a10  GUISysInit_
0001:00000a20  WndCleanUp_
0001:00000a30  GUISysFini_
0001:00000a40  GetCmdArg_
0001:00000a50  SetCmdArgStart_
0001:00000a60  KillDebugger_
0001:00000a70  RestoreHandlers_
0001:00000a70  GrabHandlers_
0001:00000a80  EnvLkup_
0001:00000aa0  _fork_
0001:00000c80  TBreak_
0001:00000c90  SysSetMemLimit_
0001:00000c90* _set_errno_
Module: os2chk.obj(/mnt/sda5/.user/root/src/openwatcom-1.9/bld/wv/os2/c/os2chk.c)
0001:00000ca0  CheckPointMem_
0001:00000cb0  CheckPointRestore_
Module: os2cmd.obj(/mnt/sda5/.user/root/src/openwatcom-1.9/bld/wv/os2/c/os2cmd.c)
0001:00000cc0  OptDelim_
0001:00000cd0  ProcSysOption_
0001:00000ce0  SetNumLines_
0001:00000d00  SetNumColumns_
0001:00000d20  ProcSysOptInit_
Module: os22flio.obj(/mnt/sda5/.user/root/src/openwatcom-1.9/bld/wv/os2/c/os22flio.c)
0001:00000d40  LocalErrMsg_
0001:00000df0  LocalOpen_
0001:00000e70  LocalRead_
0001:00000eb0  LocalWrite_
0001:00000ef0  LocalSeek_
0001:00000f30  LocalClose_
0001:00000f50  LocalErase_
0001:00000f70  LocalHandle_
0002:00000060  _LclFile
0002:00000066  _LclPathSep
Module: pmscrn2.obj(/mnt/sda5/.user/root/src/openwatcom-1.9/bld/wv/os2/c/pmscrn2.c)
0001:00000fa0  WndInitWndMain_
0001:00000fb0  TellWinHandle_
0001:00000fc0* ToggleHardMode_
0001:00000ff0  RingBell_
0001:00001010  ConfigScreen_
0001:00001020  GetSystemDir_
0001:000010f0+ PumpMessageQueue_
0001:000011f0  InitScreen_
0001:00001260  UsrScrnMode_
0001:00001270* DbgScrnMode_
0001:00001280  DebugScreen_
0001:00001310  SysGUI_
0001:00001310  DebugScreenRecover_
0001:00001320  UserScreen_
0001:00001360  SaveMainWindowPos_
0001:00001370  FiniScreen_
0001:000013a0* uifaralloc_
0001:000013b0* uifarfree_
0001:000013c0  PopErrBox_
0001:000013f0  OnAnotherThread_
0002:00000068+ _ToldWinHandle
0002:0000006c+ _PumpMessageSem
0002:00000070+ _PumpMessageDoneSem
0002:00004e10* _ForceHardMode
0002:00004e14  _NumLines
0002:00004e18  _NumColumns
Module: fingmsg.obj(/mnt/sda5/.user/root/src/openwatcom-1.9/bld/wv/c/fingmsg.c)
0001:00001560  InitAboutMessage_
0001:000015b0  FiniAboutMessage_
0002:00000074  _AboutMessage
0002:00000084  _FingMessageSize
0002:00000088  _AboutSize
Module: dipman.obj(/mnt/sda5/.user/root/src/openwatcom-1.9/bld/dig/c/dipman.c)
0001:000015e0  DCSymCreate_
0001:000015e0+ XDIPCliSymCreate_
0001:00001600  DIPInit_
0001:00001650  DIPLoad_
0001:000016e0  DIPRegister_
0001:00001740* DIPFiniLatest_
0001:000017a0  DIPFini_
0001:000017f0  DIPHandleSize_
0001:00001810  DIPMoreMem_
0001:00001850  DIPCancel_
0001:000018d0+ FindImageMapSlot_
0001:00001a00  DIPCreateProcess_
0001:00001b50* DIPSetProcess_
0001:00001b60  DIPDestroyProcess_
0001:00001b90  DIPPriority_
0001:00001be0  DIPLoadInfo_
0001:00001cf0  DIPMapInfo_
0001:00001d50  DIPUnloadInfo_
0001:00001da0  DIPImagePriority_
0001:00001df0  WalkImageList_
0001:00001eb0  WalkModList_
0001:00001f10* WalkTypeList_
0001:000021a0+ WalkSymListEx_
0001:000021d0  WalkSymList_
0001:000021f0  WalkFileList_
0001:000022a0  ImageExtra_
0001:000022f0  ImageDIP_
0001:00002340  ModName_
0001:000023a0  ModSrcLang_
0001:00002400  ModHasInfo_
0001:00002470  ModDefault_
0001:000024e0  ModAddr_
0001:00002550  TypeMod_
0001:000025a0  TypeInfo_
0001:00002640  TypeCreate_
0001:00002660  TypePointer_
0001:000026e0  TypeBase_
0001:00002790* TypeAddRef_
0001:000027e0* TypeRelease_
0001:00002830* TypeFreeAll_
0001:00002870  TypeArrayInfo_
0001:000028f0  TypeProcInfo_
0001:00002950  TypePtrAddrSpace_
0001:000029b0  TypeThunkAdjust_
0001:00002a10* TypeCmp_
0001:00002a70  TypeName_
0001:00002ac0  SymMod_
0001:00002b00  SymName_
0001:00002b50  SymType_
0001:00002ba0  SymLocation_
0001:00002be0  SymValue_
0001:00002c20  SymInfo_
0001:00002c70  SymParmLocation_
0001:00002cc0  SymObjType_
0001:00002d10  SymObjLocation_
0001:00002d60* SymCmp_
0001:00002dc0* SymAddRef_
0001:00002e10* SymRelease_
0001:00002e60* SymFreeAll_
0001:00002ea0  CueMod_
0001:00002ef0  CueFile_
0001:00002f30  CueFileId_
0001:00002f70  CueAdjust_
0001:00002fd0  CueLine_
0001:00003010  CueColumn_
0001:00003050  CueAddr_
0001:000030c0  LineCue_
0001:00003150  AddrCue_
0001:00003200* CueCmp_
0001:00003260  AddrMod_
0001:00003320  AddrSym_
0001:000033e0+ LookupSymEx_
0001:00003630  LookupSym_
0001:00003640  AddrScope_
0001:000036e0  ScopeOuter_
0002:00000090  _DIPDefaults
0002:000000b6+ _DIPClientInterface
Module: dipld.obj(/mnt/sda5/.user/root/src/openwatcom-1.9/bld/dig/c/os2v2/dipld.c)
0001:00003990  DIPSysLoad_
0001:00003b00  DIPSysUnload_
Module: madman.obj(/mnt/sda5/.user/root/src/openwatcom-1.9/bld/dig/c/madman.c)
0002:00000104+ _MADClientInterface
0001:00003cc0  MADTypeInfoForHost_
0001:00003d50  MADInit_
0001:00003da0  MADRegister_
0001:00003f20  MADLoad_
0001:000040b0+ MADUnload_
0001:00004100  MADLoaded_
0001:00004140  MADActiveSet_
0001:00004170* MADStateCreate_
0001:000041d0* MADStateSet_
0001:00004240* MADStateCopy_
0001:00004260+ MADStateDestroy_
0001:000042b0  MADFini_
0001:000042e0  MADWalk_
0001:00004310  MADNameFile_
0001:00004380  MADNameDescription_
0001:00004400  MADAddrAdd_
0001:00004440  MADAddrComp_
0001:00004470  MADAddrDiff_
0001:000044a0  MADAddrMap_
0001:000044b0  MADAddrFlat_
0001:000044c0  MADAddrInterrupt_
0001:000044f0  MADTypeWalk_
0001:00004520  MADTypeName_
0001:00004540  MADTypePreferredRadix_
0001:00004570  MADTypeForDIPType_
0001:00004590  MADTypeInfo_
0001:000046a0  MADTypeDefault_
0001:00004fd0  MADTypeConvert_
0001:000054d0  MADTypeToString_
0001:00005560  MADTypeHandleToString_
0001:00005590  MADRegistersSize_
0001:000055a0  MADRegistersHost_
0001:000055b0  MADRegistersTarget_
0001:000055d0  MADRegSetWalk_
0001:00005600  MADRegSetName_
0001:00005630  MADRegSetLevel_
0001:00005640  MADRegSetDisplayGrouping_
0001:00005660  MADRegSetDisplayGetPiece_
0001:000056b0  MADRegSetDisplayModify_
0001:000056d0  MADRegSetDisplayToggleList_
0001:000056e0  MADRegSetDisplayToggle_
0001:000056f0  MADRegModified_
0001:00005710  MADRegInspectAddr_
0001:00005760  MADRegWalk_
0001:000058f0  MADRegFullName_
0001:00005950  MADRegSpecialGet_
0001:00005980  MADRegSpecialSet_
0001:000059b0  MADRegSpecialName_
0001:000059e0  MADRegFromContextItem_
0001:00005a10  MADRegUpdateStart_
0001:00005a40  MADRegUpdateEnd_
0001:00005a60  MADCallStackGrowsUp_
0001:00005a80  MADCallTypeList_
0001:00005aa0  MADCallBuildFrame_
0001:00005af0  MADCallReturnReg_
0001:00005b30  MADCallParmRegList_
0001:00005b60  MADCallUpStackSize_
0001:00005b70  MADCallUpStackInit_
0001:00005ba0  MADCallUpStackLevel_
0001:00005be0  MADDisasmDataSize_
0001:00005c00  MADDisasmNameMax_
0001:00005c20  MADDisasm_
0001:00005c90  MADDisasmFormat_
0001:00005cb0  MADDisasmInsSize_
0001:00005cd0  MADDisasmInsUndoable_
0001:00005d00  MADDisasmControl_
0001:00005d20  MADDisasmInsNext_
0001:00005d50  MADDisasmInspectAddr_
0001:00005da0  MADDisasmMemRefWalk_
0001:00005dd0  MADDisasmToggleList_
0001:00005de0  MADDisasmToggle_
0001:00005e00  MADTraceSize_
0001:00005e20  MADTraceInit_
0001:00005e50  MADTraceOne_
0001:00005e80  MADTraceHaveRecursed_
0001:00005eb0  MADTraceSimulate_
0001:00005ee0  MADTraceFini_
0001:00005f20  MADUnexpectedBreak_
Module: madld.obj(/mnt/sda5/.user/root/src/openwatcom-1.9/bld/dig/c/os2v2/madld.c)
0001:00006160  MADSysLoad_
0001:000062d0  MADSysUnload_
Module: i64.obj(/mnt/sda5/.user/root/src/openwatcom-1.9/bld/watcom/c/i64.c)
0001:000062e0  I32ToI64_
0001:000062f0  U32ToU64_
0001:00006300  U64Neg_
0001:00006330  U64Add_
0001:00006350* U64IncDec_
0001:00006380  U64Sub_
0001:000063a0  U64Mul_
0001:00006410  U64Div_
0001:00006510  I64Div_
0001:000065c0  U64Cmp_
0001:00006600  U64Test_
0001:00006620  I64Cmp_
0001:00006650  I64Test_
0001:00006680  I64ShiftR_
0001:000066d0  U64ShiftR_
0001:00006730* U64Shift_
0001:00006740  U64ShiftL_
Module: trpsupp.obj(/mnt/sda5/.user/root/src/openwatcom-1.9/bld/dig/c/trpsupp.c)
0001:00006770  TrapSetFailCallBack_
0001:00006780* TrapSetAccessCallBack_
0001:00006790* TrapFailAllRequests_
0001:000067a0  TrapSimpAccess_
0001:000067f0  TrapAccess_
0001:00006ad0* ReqFuncProxy_
0002:00004f40  _ReqFunc
0002:00004f44  _TrapVer
Module: trpld.obj(/mnt/sda5/.user/root/src/openwatcom-1.9/bld/dig/c/os2v2/trpld.c)
0001:00006d10  IsTrapFilePumpingMessageQueue_
0001:00006d20  TellHandles_
0001:00006d40* TellHardMode_
0001:00006d60  KillTrap_
0001:00006d90  LoadTrap_
Module: dumb.obj(/mnt/sda5/.user/root/src/openwatcom-1.9/bld/dig/c/dumb.c)
0001:00007130+ ReqConnect_
0001:00007150+ ReqSimpleStub_
0001:00007160+ ReqGet_supplementary_service_
0001:00007180+ ReqMap_addr_
0001:000071b0+ ReqSplit_cmd_
0001:000071b0+ ReqGet_lib_name_
0001:000071b0+ ReqGet_next_alias_
0001:000071b0+ ReqSet_break_
0001:000071b0+ ReqProg_kill_
0001:000071b0+ ReqChecksum_mem_
0001:000071d0+ ReqProg_load_
0001:000071f0+ ReqSet_watch_
0001:00007210+ ReqRead_user_keyboard_
0001:00007220+ ReqRedirect_stdout_
0001:00007220+ ReqRedirect_stdin_
0001:00007240+ DumbRequest_
0001:00007260  LoadDumbTrap_
0002:00004f58+ _Out_Mx_Ptr
Module: spawn.obj(/mnt/sda5/.user/root/src/openwatcom-1.9/bld/wv/c/spawn.c)
0001:000072a0  Spawn_
0001:000072e0  SpawnP_
0001:00007320  SpawnPP_
0001:00007370  Suicide_
Module: dbgchain.obj(/mnt/sda5/.user/root/src/openwatcom-1.9/bld/wv/c/dbgchain.c)
0001:000073a0  FindNextIns_
0001:000077b0  InitTraceBack_
0001:000077d0  FiniTraceBack_
0001:00007810  UpdateTraceBack_
0001:00007880  GetCallChain_
0001:000078a0  ShowCalls_
0001:00007940  UnWindToFrame_
Module: dbgvar.obj(/mnt/sda5/.user/root/src/openwatcom-1.9/bld/wv/c/dbgvar.c)
0002:00004f78  _TypeDisplay
0001:00007a30  VarDisplayIsStruct_
0001:00007a70  VarDisplayIsHidden_
0001:00007a90  VarDisplaySetHidden_
0001:00007ac0  VarDisplayFlipHide_
0001:00007b10  VarDisplayUpdate_
0001:00007b40  VarDisplayShowMembers_
0001:00007b50  VarDisplaySetMembers_
0001:00007b70+ VarDisplaySetBits_
0001:00007b90+ VarDisplayFindParent_
0001:00007bc0  VarDisplayDirty_
0001:00007be0  VarDisplayInit_
0001:00007bf0  VarDisplayedOnTop_
0001:00007c10  VarDisplayOnTop_
0001:00007cd0  VarDisplayFini_
0001:00007d90  VarDisplayAddStruct_
0001:00007e50  VarDisplayAddField_
0001:00007ef0  VarDisplayAlias_
0001:00007f60  VarDisplayType_
0001:00008070  VarErrState_
0001:00008090  VarOldErrState_
0001:00008130* VarNodeInvalid_
0001:000087c0  VarExpand_
0001:00008b70+ VarExpandNode_
0001:00008b90+ VarFirstExpandNode_
0001:00008c20* VarFirstNode_
0001:00008c80+ VarNextRowNode_
0001:00008cb0  VarNextVisibleSibling_
0001:00009040  VarFindRowNode_
0001:00009070  VarRowTotal_
0001:000090e0  VarFindRoot_
0001:000091e0  VarFindRow_
0001:00009250  VarDoneRow_
0001:000093e0+ VarBaseName_
0001:00009460  VarBuildName_
0001:000096f0  VarDeExpand_
0001:00009770  VarAllNodesInvalid_
0001:000097a0  VarAdd1_
0001:00009850  VarExpandRow_
0001:000098d0  VarExpandRowNoCollapse_
0001:00009950  VarGetStackClass_
0001:00009980  VarExpandable_
0001:00009990  VarIsPointer_
0001:000099a0  VarPrintText_
0001:00009a40  VarDelete_
0001:00009b10* VarDisplayIsHex_
0001:00009b20  VarDisplaySetHex_
0001:00009b50  VarDisplaySetArrayHex_
0001:00009b90* VarDisplayIsDecimal_
0001:00009ba0  VarDisplaySetDecimal_
0001:00009bd0  VarDisplaySetArrayDec_
0001:00009c10* VarDisplayIsChar_
0001:00009c20  VarDisplaySetChar_
0001:00009c40* VarDisplayIsString_
0001:00009c50  VarDisplaySetString_
0001:00009c70* VarDisplayIsPointer_
0001:00009c80  VarDisplaySetPointer_
0001:00009ca0  VarBreakOnWrite_
0001:00009cd0  VarAddWatch_
0001:00009d00  VarAddNodeToScope_
0001:00009d60* VarFindRootRow_
0001:00009dd0  VarNewCurrRadix_
0001:00009de0* VarNewDisplayRadix_
0001:00009df0* VarGetOnTop_
0001:00009e10+ VarGetGadget_
0001:00009ea0* VarSetGadget_
0001:00009eb0* VarSetOnTop_
0001:0000a0b0+ VarGetValue_
0001:0000a330+ VarSetValue_
0001:0000a660  VarDeleteAllScopes_
0001:0000a690  VarDeleteAScope_
0001:0000a700  VarUnMap_
0001:0000a780  VarReMap_
0001:0000a820  VarInitInfo_
0001:0000a850  VarFiniInfo_
0001:0000a880  VarOkToCache_
0001:0000a890  VarKillExprSPCache_
0001:0000a8c0  VarInfoRefresh_
0001:0000aa40  VarInspectPointer_
0001:0000aa80  VarInspectMemory_
0001:0000aab0* VarInspectCode_
0001:0000aae0  VarIsLValue_
0001:0000ab10+ VarGetDepths_
0001:0000ab40  VarRefreshVisible_
0001:0000aca0  VarDoAssign_
0001:0000ad50  VarGetDisplayPiece_
0001:0000aee0  VarParentIsArray_
0002:00004f7d  _VarError
Module: dbgvset.obj(/mnt/sda5/.user/root/src/openwatcom-1.9/bld/wv/c/dbgvset.c)
0001:0000af60+ Attributes_
0001:0000b540  TypeSet_
0001:0000b680  TypeConf_
Module: dbgass.obj(/mnt/sda5/.user/root/src/openwatcom-1.9/bld/wv/c/dbgass.c)
0001:0000b860  InsMemRef_
Module: dbgimg.obj(/mnt/sda5/.user/root/src/openwatcom-1.9/bld/wv/c/dbgimg.c)
0001:0000b890  ImgSymName_
0001:0000b900  ImgSort_
Module: dbglist.obj(/mnt/sda5/.user/root/src/openwatcom-1.9/bld/wv/c/dbglist.c)
0001:0000b930  ConfigEvent_
0001:0000b940  ConfigCalls_
Module: dbgpend.obj(/mnt/sda5/.user/root/src/openwatcom-1.9/bld/wv/c/dbgpend.c)
0001:0000ba50  DoProcPending_
0001:0000ba70  ProcInput_
0001:0000baa0  DoInput_
Module: ambigsym.obj(/mnt/sda5/.user/root/src/openwatcom-1.9/bld/wv/c/ambigsym.c)
0001:0000bae0  SymPickText_
0001:0000bb80  Disambiguate_
Module: addarith.obj(/mnt/sda5/.user/root/src/openwatcom-1.9/bld/wv/c/addarith.c)
0001:0000bd10  AddAliasInfo_
0001:0000bd60  FreeAliasInfo_
0001:0000bd90  DeAlias_
0001:0000bdc0  AddrComp_
0001:0000be90  AddrAdd_
0001:0000bed0  AddrAddWrap_
0001:0000bf10  AddrDiff_
0001:0000bf50  SameAddrSpace_
Module: dbgbrk.obj(/mnt/sda5/.user/root/src/openwatcom-1.9/bld/wv/c/dbgbrk.c)
0001:0000c070  InitBPs_
0001:0000c120  InsertBPs_
0001:0000c2e0  RemoveBPs_
0001:0000c340  GetBPAddr_
0001:0000c3c0  GetBPText_
0001:0000c480  FindBreakByLine_
0001:0000c510  FindBreak_
0001:0000c680  DispBPMsg_
0001:0000cbc0  ActPoint_
0001:0000cbe0  BrkEnableAll_
0001:0000cc10  BrkDisableAll_
0001:0000cc40  RemovePoint_
0001:0000ccc0  RemoveBreak_
0001:0000ccf0  BrkClearAll_
0001:0000cd20  BPsDeac_
0001:0000cd70  BPsUnHit_
0001:0000cdb0  RecordNewPoint_
0001:0000cdd0  RecordPointStart_
0001:0000ce00  RecordClearPoint_
0001:0000ce20  GetBreakOnImageCmd_
0001:0000cea0+ ShowBPs_
0001:0000cf00  ProcBreak_
0001:0000d2e0  CopySourceLine_
0001:0000d320  GetBPSymAddr_
0001:0000d3a0  SetPointAddr_
0001:0000d5a0  BrkCheckWatchLimit_
0001:0000d820  AddBreak_
0001:0000d8b0  ToggleBreak_
0001:0000d970  BrkAddrRefresh_
0001:0000d9d0+ SetBPCountDown_
0001:0000d9f0* GetBPAutoDestruct_
0001:0000da00* SetBPAutoDestruct_
0001:0000da10* SetBPCondition_
0001:0000da60* SetBPPatch_
0001:0000dae0* SetBPResume_
0001:0000daf0* GetBPCountDown_
0001:0000db00* GetBPCondition_
0001:0000db20* GetBPPatch_
0001:0000db60* GetBPResume_
0001:0000dfb0  BreakWrite_
0001:0000e100* BreakOnRawMemory_
0001:0000e140  BreakOnExprSP_
0001:0000e1c0  PointFini_
0001:0000e2a0  CheckBPErrors_
0001:0000e2e0  BrkCmdError_
0001:0000e310  CheckBPs_
0001:0000e6a0  UpdateWPs_
0001:0000e700  InsertWPs_
0001:0000e780  SaveBreaksToFile_
0001:0000e7b0  RestoreBreaksFromFile_
0001:0000e800  FindFirstCue_
0001:0000e830  BreakAllModEntries_
0001:0000e940  ClearAllModBreaks_
0001:0000e990* GetRowAddrDirectly_
0001:0000ea10* GetBPAt_
0001:0000ea30* GetBPsCount_
Module: dbgcall.obj(/mnt/sda5/.user/root/src/openwatcom-1.9/bld/wv/c/dbgcall.c)
0001:0000ea70  FiniCall_
0001:0000ed40  CallSet_
0001:0000ed50  CallConf_
0001:0000ee20  ProcCall_
Module: dbgcall2.obj(/mnt/sda5/.user/root/src/openwatcom-1.9/bld/wv/c/dbgcall2.c)
0001:0000f080  FreezeRegs_
0001:0000f0c0  UnFreezeRegs_
0001:0000f180  PerformExplicitCall_
0001:0000f2e0  PerformCall_
Module: dbgcmd.obj(/mnt/sda5/.user/root/src/openwatcom-1.9/bld/wv/c/dbgcmd.c)
0001:0000f390  DoCmd_
Module: dbgcmdln.obj(/mnt/sda5/.user/root/src/openwatcom-1.9/bld/wv/c/dbgcmdln.c)
0002:000050b0  _DownLoadTask
0001:0000f3b0+ SetupChar_
0001:0000f400* NextChar_
0001:0000f410+ OptError_
0001:0000f4a0* HasEquals_
0001:0000f4c0+ WantEquals_
0001:0000f4f0* SkipSpaces_
0001:0000f500+ GetValueLong_
0001:0000f560+ GetValue_
0001:0000f590+ GetMemory_
0001:0000f670* GetItem_
0001:0000f680+ GetFileName_
0001:0000f6c0+ GetRawItem_
0001:0000fb80  ProcCmd_
Module: dbgdot.obj(/mnt/sda5/.user/root/src/openwatcom-1.9/bld/wv/c/dbgdot.c)
0001:0000fca0  GetDotAddr_
0001:0000fce0  SetCodeLoc_
0001:0000fd00* SetDataLoc_
0001:0000fd20  SetCodeDot_
0001:0000fd50  SetDataDot_
0001:0000fd80  GetCodeDot_
0001:0000fda0  GetDataDot_
Module: dbgexec.obj(/mnt/sda5/.user/root/src/openwatcom-1.9/bld/wv/c/dbgexec.c)
0001:0000fe70  SetProgState_
0001:0000ff90  SetMsgText_
0001:000103f0  ExecProg_
0001:00010750  ReportTrap_
0001:00010890  Execute_
0001:000109e0  Go_
Module: dbgexpr.obj(/mnt/sda5/.user/root/src/openwatcom-1.9/bld/wv/c/dbgexpr.c)
0001:00010a50  InitLC_
0001:00010b30  CreateLC_
0001:00010b70+ FreeLC_
0001:00010bb0  MoveLC_
0001:00010be0+ DupLC_
0001:00010c00  CreateEntry_
0001:00010c70  AllocatedString_
0001:00010cd0  DeleteEntry_
0001:00010d10  StkEntry_
0001:00010d80  MoveSP_
0001:00010d90  SwapStack_
0001:00010e10  FreezeStack_
0001:00010e50  UnFreezeStack_
0001:00010ec0+ DupStringVal_
0001:00010f20  DupStack_
0001:00011000  PushName_
0001:00011030  PushNum_
0001:00011060  PushNum64_
0001:00011080  PushRealNum_
0001:000110b0  PushSymHandle_
0001:000110d0  ExprSetAddrInfo_
0001:00011130  PushAddr_
0001:00011160  PushLocation_
0001:000111a0  CombineEntries_
0001:00011200  MoveTH_
0001:00011240  PushType_
0001:000112a0  PushInt_
0001:00011300  PushString_
0001:00011350  PopEntry_
0001:00011420  TstEQ_
0001:00011530  TstLT_
0001:00011650  TstTrue_
0001:00011680  TstExist_
0001:000116e0  MakeAddr_
0001:00011780  FreePgmStack_
0001:00011820  ExprPurge_
0001:00011880  MarkArrayOrder_
0001:000118a0  StartSubscript_
0001:000118b0  AddSubscript_
0001:00011980  EndSubscript_
0002:00000600  _ExprSP
Module: dbgexpr2.obj(/mnt/sda5/.user/root/src/openwatcom-1.9/bld/wv/c/dbgexpr2.c)
0001:00011a60  ClassifyType_
0001:00011a80  ClassifyEntry_
0001:00011b50  ExprGetSymList_
0001:00011bc0  ExprSymbol_
0001:00011c30  NameResolve_
0001:00011c90  SymResolve_
0001:00011db0  LValue_
0001:00011e00  ClassNum_
0001:00011f60  ExprResolve_
0001:000120e0  LRValue_
0001:00012310  RValue_
0001:00012330  ExprValue_
Module: dbgexpr3.obj(/mnt/sda5/.user/root/src/openwatcom-1.9/bld/wv/c/dbgexpr3.c)
0001:00012410+ ConvIdx_
0001:00012540  FromItem_
0001:00012770  ToItem_
0001:00012f60  ConvertTo_
0001:000132d0  BinOp_
0001:000132f0  AddOp_
0001:00013310  ToItemMAD_
Module: dbgexpr4.obj(/mnt/sda5/.user/root/src/openwatcom-1.9/bld/wv/c/dbgexpr4.c)
0001:00013420  DoPlus_
0001:00013590  DoMinus_
0001:00013730  DoMul_
0001:00013870  DoDiv_
0001:00013a90  DoMod_
0001:00013b40  DoAnd_
0001:00013bb0  DoOr_
0001:00013c20  DoXor_
0001:00013c90  DoShift_
0001:00013d40  DoAddr_
0001:00013df0  DoAPoints_
0001:00013f10  DoPoints_
0001:000140a0  DoConvert_
0001:000140e0  DoLConvert_
0001:00014190  DoMakeComplex_
0001:00014270  DoStringConcat_
0001:00014350  DoGivenField_
0001:00014420  DoField_
0001:00014680  DoScope_
0001:000147b0  DoAssign_
0001:00014df0  DoCall_
Module: dbgfile.obj(/mnt/sda5/.user/root/src/openwatcom-1.9/bld/wv/c/dbgfile.c)
0001:000154b0  RealFName_
0001:00015530  FileLoc_
0001:000155d0  ReadStream_
0001:000155d0  ReadText_
0001:000155f0  WriteStream_
0001:00015610  WriteText_
0001:00015650  SeekStream_
0001:00015680  FileOpen_
0001:00015720  FileClose_
0001:00015750  FileRemove_
0001:00015780  WriteToPgmScreen_
0001:000157a0  FileHandleInfo_
0001:000157b0  SysErrMsg_
0001:00015800  StashErrCode_
0001:00015840* GetLastErr_
0001:00015850* GetSystemErrCode_
0001:00015860* GetSystemHandle_
0001:00015870  IsAbsolutePath_
0001:000158d0  AppendPathDelim_
0001:00015920  SkipPathInfo_
0001:00015960  ExtPointer_
0001:000159b0  MakeFileName_
0001:00015ad0  LclStringToFullName_
0001:00015cd0  FullPathOpen_
0001:00015ce0  LocalFullPathOpen_
0001:00015d60  FindWritable_
0001:00015ed0  PathOpen_
0001:00015ee0  LocalPathOpen_
0001:00015ef0  SysFileInit_
0001:00015f40  PathFini_
0001:00015fd0  PathInit_
Module: dbghook.obj(/mnt/sda5/.user/root/src/openwatcom-1.9/bld/wv/c/dbghook.c)
0001:00016040  InitHook_
0001:00016050  FiniHook_
0001:00016080  ProcHook_
0001:00016100  ConfigHook_
0001:00016180  HookNotify_
0001:000161f0  HookPendingPush_
Module: dbginvk.obj(/mnt/sda5/.user/root/src/openwatcom-1.9/bld/wv/c/dbginvk.c)
0001:000162b0  ImplicitSet_
0001:000162e0  ImplicitConf_
0001:000166c0  Invoke_
0001:00016760  ProfileInvoke_
0001:00016870  CreateInvokeFile_
0001:00016890  InvokeAFile_
0001:000168a0  ProcInvoke_
Module: dbglkup.obj(/mnt/sda5/.user/root/src/openwatcom-1.9/bld/wv/c/dbglkup.c)
0001:000169e0  InitLook_
0001:00016a30  FiniLook_
0001:00016a40  LookCaseSet_
0001:00016a80  LookSet_
0001:00016cc0  LookConf_
0001:00016d50  Lookup_
0001:00016e50  LookupModName_
0001:00016f20  LookupImageName_
0001:00016fa0  LookupSymList_
0001:00017180  FreeSymHandle_
0001:000171b0  PurgeSymHandles_
0001:000172d0  FindNullSym_
0001:000172f0  SetWDPresent_
Module: dbgloc.obj(/mnt/sda5/.user/root/src/openwatcom-1.9/bld/wv/c/dbgloc.c)
0001:00017350  LocationCreate_
0001:00017390  LocationAppend_
0001:000173d0  LocationSet_
0001:00017400  LocationAdd_
0001:00017ee0  LocationAssign_
Module: dbglog.obj(/mnt/sda5/.user/root/src/openwatcom-1.9/bld/wv/c/dbglog.c)
0001:00017fc0  LogInit_
0001:00017fd0  LogFini_
0001:00017ff0  LogLine_
0001:000180a0  LogStart_
0001:000180b0  LogEnd_
0001:00018100  ProcLog_
Module: dbgmain.obj(/mnt/sda5/.user/root/src/openwatcom-1.9/bld/wv/c/dbgmain.c)
0001:00018290  GetCmdName_
0001:000182b0+ DebugInit_
0001:000183e0  ReportTask_
0001:00018470  ChkBreak_
0001:00018490  ProcACmd_
0001:00018650  DebugMain_
0001:000186d0  DebugExit_
0001:000186e0  DebugFini_
0001:00018780  InitCapabilities_
0001:000187e0+ CapabilitiesGet8ByteBreakpointSupport_
0001:00018870+ CapabilitiesSet8ByteBreakpointSupport_
0001:00018910+ CapabilitiesGetExactBreakpointSupport_
0001:000189a0  CapabilitiesSetExactBreakpointSupport_
0002:000009a8+ _SuppCapabilitiesId
Module: dbgmem.obj(/mnt/sda5/.user/root/src/openwatcom-1.9/bld/wv/c/dbgmem.c)
0001:00018a60  ChangeMemUndoable_
0001:00018b00  ProgPeekWrap_
0001:00018ba0  ItemSize_
0001:00018de0  ItemGetMAD_
0001:00018e10  ItemPutMAD_
Module: memtypes.obj(/mnt/sda5/.user/root/src/openwatcom-1.9/bld/wv/c/memtypes.c)
0001:00018f50  MemInitTypes_
0001:00018fc0  MemFiniTypes_
0001:00019010  GetMADMaxFormatWidth_
Module: dbgmisc.obj(/mnt/sda5/.user/root/src/openwatcom-1.9/bld/wv/c/dbgmisc.c)
0001:000190e0  Flip_
0001:00019110  ProcFlip_
0001:00019170  ConfigFlip_
0001:000191c0  ProcRemark_
0001:000191f0  ProcDo_
0001:00019200  ProcAssign_
0001:00019270  GoToAddr_
0001:000192c0  StepIntoFunction_
0001:00019300  SkipToAddr_
0001:00019350  GoToReturn_
0001:000193b0  ProcGo_
0001:00019640  ProcSkip_
0001:00019670  ProcIf_
0001:00019750  ProcWhile_
0001:000197d0  ProcError_
0001:00019830  ProcQuit_
0001:000198b0  MakeThdCurr_
0001:000199d0  IsThdCurr_
0001:00019ab0  GetNextTID_
0001:00019b00  NameThread_
0001:00019bd0  CheckForNewThreads_
0001:00019c40  FindThread_
0001:00019c60  ProcThread_
0001:00019d90  FreeThreads_
Module: dbgovl.obj(/mnt/sda5/.user/root/src/openwatcom-1.9/bld/wv/c/dbgovl.c)
0001:00019dc0  InitOvlState_
0001:00019e90  FiniOvlState_
0001:00019ed0  InvalidateTblCache_
0001:00019ee0  SectIsLoaded_
0001:00019f70  SectLoad_
0001:00019ff0  SectTblRead_
0001:0001a010  SetStateOvlSect_
0001:0001a030  TransOvlRetAddr_
0001:0001a050  RemapSection_
0001:0001a070  AddrSection_
0001:0001a0f0  AddrFix_
0001:0001a130  AddrFloat_
Module: dbgparse.obj(/mnt/sda5/.user/root/src/openwatcom-1.9/bld/wv/c/dbgparse.c)
0001:0001a1e0  SetUpExpr_
0001:0001a1f0  EvalLValExpr_
0001:0001a210  EvalExpr_
0001:0001a230  NormalExpr_
0001:0001a250  ChkExpr_
0001:0001a270  ReqU64Expr_
0001:0001a2d0  ReqLongExpr_
0001:0001a2f0  ReqExpr_
0001:0001a310  OptExpr_
0001:0001a350  MakeMemoryAddr_
0001:0001a3f0  ReqMemAddr_
0001:0001a440  CallExpr_
0001:0001a490  OptMemAddr_
0001:0001a4c0  SetTokens_
0001:0001a4e0  LangInit_
0001:0001a500  LangFini_
0001:0001a600  LangLoad_
Module: dbgprint.obj(/mnt/sda5/.user/root/src/openwatcom-1.9/bld/wv/c/dbgprint.c)
0001:0001a640  StartPrintBuff_
0001:0001a6d0  EndPrintBuff_
0001:0001ad70  PrintChar_
0001:0001ae90  PrintString_
0001:0001aea0  ForcePrintString_
0001:0001b810  PrintValue_
0001:0001bb10  DoPrintList_
0001:0001bb40  ChkPrintList_
0001:0001bbb0  ProcPrint_
Module: dbgreg.obj(/mnt/sda5/.user/root/src/openwatcom-1.9/bld/wv/c/dbgreg.c)
0001:0001bc60  DefAddr_
0001:0001bce0  GetRegIP_
0001:0001bd10  SetRegIP_
0001:0001bd50  RecordSetRegIP_
0001:0001bda0  SetRegSP_
0001:0001bdd0+ SetRegBP_
0001:0001be00  GetRegSP_
0001:0001be40  GetRegBP_
0001:0001bf70  SetMemBefore_
0001:0001bfa0  SetMemAfter_
0001:0001c0e0  ResizeRegData_
0001:0001c2d0  ClearMachState_
0001:0001c360  InitMachState_
0001:0001c3b0  FiniMachState_
0001:0001c3e0  SetupMachState_
0001:0001c470  CopyMachState_
0001:0001c4d0  AllocMachState_
0001:0001c530  FreeMachState_
0001:0001c550  CollapseMachState_
0001:0001c5f0  CheckStackPos_
0001:0001c670  AdvMachState_
0001:0001c780  ChangeMem_
0001:0001c860  UndoLevel_
0001:0001c8b0  SetStackPos_
0001:0001c9a0  GetStackPos_
0001:0001caa0  LastMachState_
0001:0001cab0  PosMachState_
0001:0001cc20  LastStackPos_
0001:0001cc30  MoveStackPos_
0001:0001cc60  ProcRegister_
0001:0001cca0  ProcUndo_
0001:0001cd00* GetActionString_
0001:0001cd40* GetUndoString_
0001:0001cd60* GetRedoString_
0001:0001cd90  ProcStackPos_
0001:0001cdd0  GoHome_
0001:0001ce10  ParseRegSet_
0001:0001cf00  RegValue_
0001:0001cf50  RegNewValue_
0002:00000a60  _CurrRegSize
Module: dbgscan.obj(/mnt/sda5/.user/root/src/openwatcom-1.9/bld/wv/c/dbgscan.c)
0001:0001d170  InitScan_
0001:0001d1c0  FiniScan_
0001:0001d1f0  ScanPos_
0001:0001d200  ScanLen_
0001:0001d210  ScanCmd_
0001:0001d3a0  ScanType_
0001:0001d410  ScanCall_
0001:0001d490  ScanEOC_
0001:0001d500  TokenName_
0001:0001d5e0  Recog_
0001:0001d640  ScanQuote_
0001:0001d6b0  ScanItem_
0001:0001d770  ReqEOC_
0001:0001d7a0  FlushEOC_
0001:0001dae0  NamePos_
0001:0001daf0  NameLen_
0001:0001dc60  ScanExpr_
0001:0001dc90  AddChar_
0001:0001dca0  AddCEscapeChar_
0001:0001dcc0  AddActualChar_
0001:0001de30  RawScanInit_
0001:0001de50  RawScanChar_
0001:0001de60  RawScanAdvance_
0001:0001de80  RawScanFini_
0001:0001de90  Scan_
0001:0001dec0  IntNumVal_
0001:0001dee0  RealNumVal_
0001:0001df00  NewCurrRadix_
0001:0001df20  SetCurrRadix_
0001:0001df40  RestoreRadix_
0001:0001df60  ReScan_
0001:0001df80  DefaultRadixSet_
0001:0001dfa0  RadixSet_
0001:0001e040  RadixConf_
0001:0001e070  FindRadixSpec_
0001:0001e0b0  AddHexSpec_
0001:0001e110  ForceSym2Num_
0002:00000a76  _scan_string
0002:00000a78  _StringStart
0002:00000a7c  _StringLength
0002:00000a80  _ScanCCharNum
Module: dbgshow.obj(/mnt/sda5/.user/root/src/openwatcom-1.9/bld/wv/c/dbgshow.c)
0001:0001e1a0  GetCmdEntry_
0001:0001e1e0  ConfigCmdList_
0001:0001e2f0  ConfigLine_
0001:0001e350  DoConfig_
0001:0001e480  ProcShow_
0001:0001e4e0  SaveConfigToFile_
0001:0001e4f0  RestoreConfigFromFile_
Module: dbgsrc.obj(/mnt/sda5/.user/root/src/openwatcom-1.9/bld/wv/c/dbgsrc.c)
0001:0001e510  FreeRing_
0001:0001e530  InitSource_
0001:0001e540  FiniSource_
0001:0001e560  DeleteRing_
0001:0001e5b0  InsertRing_
0001:0001e600  RingEnd_
0001:0001e610  AddSourceSpec_
0001:0001e640  SourceName_
0001:0001e650  NextSourceSpec_
0001:0001e660  SourceSet_
0001:0001e730  SourceConf_
0001:0001e790  OpenSrcFile_
Module: dbgstdio.obj(/mnt/sda5/.user/root/src/openwatcom-1.9/bld/wv/c/dbgstdio.c)
0001:0001e9d0  StdInNew_
0001:0001e9e0  StdOutNew_
Module: dbgsys.obj(/mnt/sda5/.user/root/src/openwatcom-1.9/bld/wv/c/dbgsys.c)
0001:0001e9f0+ DoSystem_
0001:0001ea80  ProcSystem_
Module: dbgutil.obj(/mnt/sda5/.user/root/src/openwatcom-1.9/bld/wv/c/dbgutil.c)
0001:0001eb00  DefaultSize_
0001:0001ec20  CnvULongHex_
0001:0001ec40  CnvLongDec_
0001:0001ec60  CnvULongDec_
0001:0001ec80  CnvLong_
0001:0001eca0  CnvULong_
0001:0001ecc0  AddrTypeToString_
0001:0001ed30  AddrToIOString_
0001:0001ed70  AddrToString_
0001:0001edb0  QualifiedSymName_
0001:0001ee90  CnvAddr_
0001:0001eff0  CnvNearestAddr_
0001:0001f040  StrAddr_
0001:0001f070  UniqStrAddr_
0001:0001f0a0  LineAddr_
0001:0001f140  Ring_
0001:0001f150  Warn_
0001:0001f1a0  AllocCmdList_
0001:0001f1e0  FreeCmdList_
0001:0001f200  LockCmdList_
0001:0001f210  TypeInpStack_
0001:0001f230  ClearInpStack_
0001:0001f250  SetInpStack_
0001:0001f270  PopInpStack_
0001:0001f2d0  PushInpStack_
0001:0001f3a0  CopyInpFlags_
0001:0001f400  PushCmdList_
0001:0001f420  PurgeInpStack_
0001:0001f460  FreezeInpStack_
0001:0001f480  UnAsm_
0001:0001f4d0  ModImageName_
0001:0001f500  DupStrLen_
0001:0001f550  DupStr_
0001:0001f580  RegFindData_
Module: dbg_dbg.obj(/mnt/sda5/.user/root/src/openwatcom-1.9/bld/wv/c/dbg_dbg.c)
0001:0001fab0  LookupRegName_
0001:0001fb10  LookupInternalName_
0001:0001fb90  LookupUserName_
0001:0001fbf0  PurgeUserNames_
0001:0001fc30  CreateSym_
0001:0001fdb0  InternalValue_
Module: dbgprog.obj(/mnt/sda5/.user/root/src/openwatcom-1.9/bld/wv/c/dbgprog.c)
0001:00020020  InitCmd_
0001:000201b0  FindLocalDebugInfo_
0001:00020360* DownLoadCode_
0001:00020370  FiniCmd_
0001:00020380  InitLocalInfo_
0001:00020390  FiniLocalInfo_
0001:000203b0  ImagePrimary_
0001:000203c0  ImageEntry_
0001:000203d0  DefAddrSpaceForMod_
0001:00020430  DefAddrSpaceForAddr_
0001:000204c0  MapAddrForImage_
0001:00020590  UnMapAddress_
0001:00020690  UnMapPoints_
0001:000206d0  FreeImage_
0001:00020850  GetLastImageName_
0001:00020cc0  UnLoadSymInfo_
0001:00020d00  ReLoadSymInfo_
0001:00020d30  ReMapImageAddress_
0001:00020da0+ ReMapAddress_
0001:00020f60  ReMapPoints_
0001:00021020* LoadDeferredSymbols_
0001:00021080  AddLibInfo_
0001:00021190  SetProgStartHook_
0001:00021390  LoadProg_
0001:00021420  ReleaseProgOvlay_
0001:000214d0  InitMappableAddr_
0001:000214e0  FiniMappableAddr_
0001:00021500  GetProgName_
0001:00021690  GetProgArgs_
0001:000216a0* SetSymName_
0001:00021790  LoadNewProg_
0001:00021b00  ReStart_
0001:00022120  SymUserModLoad_
0001:00022200  SymUserModUnload_
0001:00022250  ProcNew_
0001:00022280  RecordNewProg_
0002:00005b50+ _LocalDebugInfo
Module: strutil.obj(/mnt/sda5/.user/root/src/openwatcom-1.9/bld/wv/c/strutil.c)
0001:00022340  StrCopy_
0001:00022360  StrTrim_
0001:000223a0  FmtStr_
0001:000226c0  Format_
Module: stub.obj(/mnt/sda5/.user/root/src/openwatcom-1.9/bld/wv/c/stub.c)
0001:000226f0* __RAISE
0001:00022700* _matherr_
Module: dbgwalk.obj(/mnt/sda5/.user/root/src/openwatcom-1.9/bld/wv/c/dbgwalk.c)
0001:000227c0  SSLWalk_
Module: dynmem.obj(/mnt/sda5/.user/root/src/openwatcom-1.9/bld/wv/c/dynmem.c)
0001:00022a60  __nmemneed_
0001:00022a90  ExtraAlloc_
0001:00022a90  DbgAlloc_
0001:00022aa0  DbgMustAlloc_
0001:00022ad0* ExtraRealloc_
0001:00022ad0  DbgRealloc_
0001:00022ae0  DbgFree_
0001:00022af0  ChkAlloc_
0001:00022b10  MemFini_
0001:00022bf0* MemExpand_
0001:00022bf0  MemInit_
0001:00022c50  ExtraFree_
Module: dbgsem.obj(/mnt/sda5/.user/root/src/openwatcom-1.9/bld/wv/c/dbgsem.c)
0002:000063d4  _ScanSavePtr
0001:000242e0* SemAllowClosestLine_
0001:00024850  SSLSemantic_
0001:00024910  SSLError_
0001:00024940  SSLOutToken_
0001:00024a70  SSLNextToken_
0001:00024a80  SSLCurrToken_
Module: dbgtrace.obj(/mnt/sda5/.user/root/src/openwatcom-1.9/bld/wv/c/dbgtrace.c)
0001:00024aa0  ResizeTraceData_
0001:00024ba0  TraceStart_
0001:00024bc0  TraceHow_
0001:00024ce0  TraceSimulate_
0001:00024d20  TraceModifications_
0001:00024d70  TraceStop_
0001:00024d80  TraceKill_
0001:00024dd0  SourceStep_
0001:00025010+ CheckForDLLThunk_
0001:000250a0  TraceCheck_
0001:000254f0+ PerformTrace_
0001:00025700  HasLineInfo_
0001:00025750  ExecTrace_
0001:00025870  ProcTrace_
0001:00025970  FiniTrace_
0001:000259b0  LevelSet_
0001:00025a00  LevelConf_
Module: dbgexins.obj(/mnt/sda5/.user/root/src/openwatcom-1.9/bld/wv/c/dbgexins.c)
0001:00025a30  AsmExam_
0001:00025a60  SrcExam_
Module: dbgexdat.obj(/mnt/sda5/.user/root/src/openwatcom-1.9/bld/wv/c/dbgexdat.c)
0001:00025be0  ProcExamine_
Module: dbgmodfy.obj(/mnt/sda5/.user/root/src/openwatcom-1.9/bld/wv/c/dbgmodfy.c)
0001:00025d40  ProcModify_
Module: dbgtback.obj(/mnt/sda5/.user/root/src/openwatcom-1.9/bld/wv/c/dbgtback.c)
0001:00025de0  FixOvlRetAddr_
0001:00025e20  WalkCallChain_
0001:00026040  ReturnAddress_
Module: dbgerr.obj(/mnt/sda5/.user/root/src/openwatcom-1.9/bld/wv/c/dbgerr.c)
0001:00026090  Error_
0001:000262c0  PrevError_
Module: namelist.obj(/mnt/sda5/.user/root/src/openwatcom-1.9/bld/wv/c/namelist.c)
0001:00026640  NameListAddModules_
0001:00026710  NameListInit_
0001:00026730  NameListFree_
0001:00026760  NameListNumRows_
0001:00026770  NameListName_
0001:000267d0  NameListAddr_
0001:00026820  NameListHandle_
Module: modlist.obj(/mnt/sda5/.user/root/src/openwatcom-1.9/bld/wv/c/modlist.c)
0001:00026830  ModHasSourceInfo_
0001:00026900  ModCompare_
0001:000269b0  ModListAddModules_
0001:00026a40  ModListInit_
0001:00026a80  ModListFree_
0001:00026ab0  ModListNumRows_
0001:00026ac0  ModListMod_
0001:00026ae0  ModListName_
0001:00026b10  ModFirstAddr_
Module: sortlist.obj(/mnt/sda5/.user/root/src/openwatcom-1.9/bld/watcom/c/sortlist.c)
0001:00026d50  SortLinkedList_
Module: remmisc.obj(/mnt/sda5/.user/root/src/openwatcom-1.9/bld/wv/c/remmisc.c)
0002:0000643c  _MaxPacketLen
0001:00026da0  InitSuppServices_
0001:00026dd0  FiniSuppServices_
0001:00026de0  InitTrap_
0001:00026f60  GetSuppId_
0001:00026fe0  RemoteSuspend_
0001:00027010  RemoteResume_
0001:00027040  RemoteErrMsg_
0001:00027070  FiniTrap_
Module: remcore.obj(/mnt/sda5/.user/root/src/openwatcom-1.9/bld/wv/c/remcore.c)
0001:000271d0  FiniCache_
0001:000271f0  InitCache_
0001:00027250* HaveCache_
0001:000272f0  ProgPeek_
0001:00027330  ProgPoke_
0001:00027430* ProgChkSum_
0001:00027490  PortPeek_
0001:000274d0  PortPoke_
0001:00027580  ReadDbgRegs_
0001:000275b0  WriteDbgRegs_
0001:00027620+ ArgsLen_
0001:00027640  ClearMachineDataCache_
0001:00027660  DoLoad_
0001:000277c0  KillProgOvlay_
0001:00027850  MakeProgRun_
0001:00027930  Redirect_
0001:000279b0  RemoteMapAddr_
0001:00027a10  RemoteSetUserScreen_
0001:00027a40  RemoteSetDebugScreen_
0001:00027a70  RemoteReadUserKey_
0001:00027aa0  RemoteGetLibName_
0001:00027b00  RemoteGetMsgText_
0001:00027b60  RemoteMachineData_
0001:00027cd0  RemoteSetBreak_
0001:00027d20  RemoteRestoreBreak_
0001:00027d70  RemoteSetWatch_
0001:00027dd0  RemoteRestoreWatch_
0001:00027e20  RemoteSplitCmd_
0001:00027ea0  CheckSegAlias_
0001:00027ef0  GetSysConfig_
0001:00027f20  InitCoreSupp_
0001:00027f70  FiniCoreSupp_
0001:00027fa0  TrapClientString_
Module: remfinfo.obj(/mnt/sda5/.user/root/src/openwatcom-1.9/bld/wv/c/remfinfo.c)
0001:00027fe0  InitFileInfoSupp_
0001:00028000  RemoteGetFileDate_
0001:000280b0  RemoteSetFileDate_
Module: remenv.obj(/mnt/sda5/.user/root/src/openwatcom-1.9/bld/wv/c/remenv.c)
0001:00028160  InitEnvSupp_
0001:00028180* RemoteSetEnvironmentVariable_
0001:00028230* RemoteGetEnvironmentVariable_
Module: remfile.obj(/mnt/sda5/.user/root/src/openwatcom-1.9/bld/wv/c/remfile.c)
0001:000282f0+ GetCachedHandle_
0001:00028330+ InitHandleCache_
0001:00028360+ AddCachedHandle_
0001:000283a0+ DelCachedHandle_
0001:000283f0  InitFileSupp_
0001:00028440  HaveRemoteFiles_
0001:00028450  RemoteStringToFullName_
0001:00028540  RemoteOpen_
0001:000286e0  MaxRemoteWriteSize_
0001:00028760  RemoteWrite_
0001:00028780  RemoteWriteConsole_
0001:00028840* MaxRemoteReadSize_
0001:00028850  RemoteRead_
0001:000288e0  RemoteSeek_
0001:00028970  RemoteClose_
0001:000289f0  RemoteErase_
0001:00028a80  RemoteFork_
0002:000064e0  _RemFile
Module: remthrd.obj(/mnt/sda5/.user/root/src/openwatcom-1.9/bld/wv/c/remthrd.c)
0001:00028b10  InitThreadSupp_
0001:00028b30  RemoteGetNextThread_
0001:00028ba0  RemoteSetThreadWithErr_
0001:00028c20  RemoteSetThread_
0001:00028c30  RemoteFreezeThread_
0001:00028c80  RemoteThawThread_
0001:00028cd0  RemoteThdName_
0002:000064e8+ _SuppThreadId
Module: removl.obj(/mnt/sda5/.user/root/src/openwatcom-1.9/bld/wv/c/removl.c)
0001:00028d30  InitOvlSupp_
0001:00028d50  RemoteOvlSectSize_
0001:00028da0  RemoteOvlSectPos_
0001:00028ea0  RemoteSectTblRead_
0001:00028ee0  RemoteSectTblWrite_
0001:00028f40  RemoteOvlTransAddr_
0001:00029000  RemoteOvlRetAddr_
Module: ldsupp.obj(/mnt/sda5/.user/root/src/openwatcom-1.9/bld/wv/c/ldsupp.c)
0001:000290f0  LDToD_
0001:00029120  DToLD_
0001:00029150  LDToS_
0001:000291a0  SToLD_
0001:000291c0  LDCmp_
0001:00029200  LDAdd_
0001:00029230  LDSub_
0001:00029260  LDMul_
0001:00029290  LDDiv_
Module: doserr.obj(/mnt/sda5/.user/root/src/openwatcom-1.9/bld/wv/c/doserr.c)
0001:000292d0  GetDOSErrMsg_
0002:00000b9c+ _DosErrMsgs
Module: diginter.obj(/mnt/sda5/.user/root/src/openwatcom-1.9/bld/wv/c/diginter.c)
0001:00029300  DIGCliAlloc_
0001:00029310  DIGCliRealloc_
0001:00029320  DIGCliFree_
0001:00029330  DIGCliOpen_
0001:00029340  DIGCliSeek_
0001:00029350  DIGCliRead_
0001:00029360  DIGCliWrite_
0001:00029370  DIGCliClose_
0001:00029380  DIGCliRemove_
0001:00029390  DIGCliMachineData_
Module: dipinter.obj(/mnt/sda5/.user/root/src/openwatcom-1.9/bld/wv/c/dipinter.c)
0001:000293f0  DIPCliImageUnload_
0001:00029410  DIPCliMapAddr_
0001:00029420  DIPCliSymCreate_
0001:00029450  MadTypeToDipTypeInfo_
0001:000294c0  RegLocation_
0001:00029520  DIPCliItemLocation_
0001:00029790  DIPCliAssignLocation_
0001:000297a0  DIPCliSameAddrSpace_
0001:000297d0  DIPCliAddrSection_
0001:000297e0  DIPCliStatus_
0001:000297f0  DIPCliCurrMAD_
0001:00029800  DeAliasAddrMod_
0001:00029830  DeAliasAddrSym_
0001:00029860  DeAliasAddrScope_
0001:00029890  DeAliasAddrCue_
0001:00029b20+ WVSymFreeAll_
0001:00029b20+ WVSymRelease_
0001:00029b20+ WVSymAddRef_
0001:00029b20+ WVTypeFreeAll_
0001:00029b20+ WVTypeRelease_
0001:00029b20+ WVTypeAddRef_
0001:00029c80  DIPMsgText_
0001:00029d00  InitDbgInfo_
0001:00029e10  FiniDbgInfo_
0001:00029e20  IsInternalMod_
0001:00029e30  IsInternalModName_
Module: madinter.obj(/mnt/sda5/.user/root/src/openwatcom-1.9/bld/wv/c/madinter.c)
0001:00029e60  MADCliAddrSection_
0001:00029e70  MADCliAddrOvlReturn_
0001:00029e80  MADCliAddrToString_
0001:00029ef0  MADCliMemExpr_
0001:00029f50  MADCliReadMem_
0001:00029f80  MADCliWriteMem_
0001:00029fb0  MADCliString_
0001:0002a010  MADCliAddString_
0001:0002a020  MADCliRadixPrefix_
0001:0002a0c0  MADCliNotify_
0001:0002a120  MADCliSystemConfig_
0001:0002a130  InitMADInfo_
0001:0002a150  FiniMADInfo_
0001:0002a160  GetMADTypeHandleDefaultAt_
0001:0002a190  GetMADTypeDefaultAt_
0001:0002a1c0  GetMADTypeDefault_
0001:0002a220  ReportMADFailure_
0001:0002a330  CheckMADChange_
0001:0002a460  GetMADNormalizedString_
0001:0002a480  GetMADTypeNameForCmd_
0001:0002a4d0  FindMADTypeHandle_
0001:0002a580  FindMAD_
Module: dbglit.obj(/mnt/sda5/.user/root/src/openwatcom-1.9/bld/wv/c/dbglit.c)
0001:0002a5b0  InitLiterals_
0001:0002a5c0  FiniLiterals_
Module: dbginsty.obj(/mnt/sda5/.user/root/src/openwatcom-1.9/bld/wv/c/dbginsty.c)
0001:0002a5e0  BreakOnSelected_
0001:0002a610  ScanSelectedExpr_
0001:0002a660  WndGetExprSPInspectType_
0001:0002a7f0  WndEvalInspectExpr_
Module: dbgdata.obj(/mnt/sda5/.user/root/src/openwatcom-1.9/bld/wv/c/dbgdata.c)
0002:00006500  _DbgTmpBrk
0002:00006570  _SysConfig
0002:00006578  _UserTmpBrk
0002:000065e8  _NilAddr
0002:000065f0  _PgmStackUsage
0002:00006618  _DipFiles
0002:00006640  _Context
0002:00006730  _TxtBuff
0002:00006734  _NameBuff
0002:00006738  _SrchHistory
0002:0000673c  _InpStack
0002:00006740  _ContextMod
0002:00006744  _CodeAddrMod
0002:00006748  _ExecThd
0002:0000674c  _MemSize
0002:00006750  _OvlSize
0002:00006754  _CheckSize
0002:00006758  _CmdStart
0002:0000675c  _CmdHistory
0002:00006760  _DbgImageList
0002:00006764  _TaskId
0002:00006768  _SkipCount
0002:0000676c  _BrkList
0002:00006770  _HeadThd
0002:00006774  _InvCount
0002:00006778  _InvokeFile
0002:0000677c  _DbgRegs
0002:00006780  _SrcSpec
0002:00006784  _ExprAddrDepth
0002:00006788  _PrevRegs
0002:0000678c  _TrpFile
0002:00006790  _InitCmdList
0002:00006794  _DbgSwitches
0002:000067a0  _DIPStatus
0002:000067a2  _CurrRadix
0002:000067a3  _DbgLevel
0002:000067a4  _ActiveWindowLevel
0002:00000e88  _Supports8ByteBreakpoints
0002:00000e8c  _SupportsExactBreakpoints
0002:00000e90  _Language
0002:00000e94  _NestedCallLevel
0002:00000e98  _WndFlags
0002:00000e9c  _DbgBuffers
0002:000012c6  _OnOffNameTab
0002:000067a5  _DefRadix
0002:000067a6  _CurrToken
0002:000067a7  _ScrnState
Module: dbgevent.obj(/mnt/sda5/.user/root/src/openwatcom-1.9/bld/wv/c/dbgevent.c)
0001:0002a950  RecordInit_
0001:0002a960  RecordFini_
0001:0002a990  ShowReplay_
0001:0002a9e0  OkToSaveReplay_
0001:0002aa00  SaveReplayToFile_
0001:0002aa10  RestoreReplayFromFile_
0001:0002aac0  ProcRecord_
0001:0002ab40  RecordStart_
0001:0002ab70  ReplayTo_
0001:0002ac40  CheckEventRecorded_
0001:0002ac70  RecordEvent_
0001:0002ada0  RecordAsynchEvent_
0001:0002adc0  RecordGo_
0001:0002adf0  RecordCommand_
0001:0002ae40  SetRecord_
0001:0002ae60  GetEventAddress_
0002:000067ac  _EventList
Module: dbgdll.obj(/mnt/sda5/.user/root/src/openwatcom-1.9/bld/wv/c/dbgdll.c)
0001:0002aec0  DLLMatch_
0001:0002af30  DLLListName_
0001:0002af40  NextDLLList_
0001:0002af50  AddDLLList_
0001:0002af80  BreakOnImageLoad_
0001:0002afe0  InitDLLList_
0001:0002aff0  FiniDLLList_
0001:0002b010  RecordClearDLLBreaks_
0001:0002b050  RecordSetDLLBreaks_
0002:000067b0  _DLLList
Module: dlgscan.obj(/mnt/sda5/.user/root/src/openwatcom-1.9/bld/wv/c/dlgscan.c)
0001:0002b1f0  DlgScanLong_
0001:0002b200* DlgScanSyntax_
0001:0002b220  DlgScanCodeAddr_
0001:0002b230  DlgScanDataAddr_
0001:0002b240  DlgScanGivenAddr_
0001:0002b250  DlgScanAny_
0001:0002b260  DlgScanString_
0001:0002b290  DlgScanModName_
Module: dbgset.obj(/mnt/sda5/.user/root/src/openwatcom-1.9/bld/wv/c/dbgset.c)
0001:0002b320  SwitchOnOff_
0001:0002b380  ProcSet_
0001:0002b3a0  ConfigSet_
0001:0002b550  ShowSwitch_
0001:0002b580  LangSetInit_
0001:0002b5d0  LangSetFini_
0001:0002b5e0  NewLang_
0001:0002bc60  PendingToggles_
0001:0002c390  SupportFini_
0001:0002c4f0  IsSupportRoutine_
Module: srcmgt.obj(/mnt/sda5/.user/root/src/openwatcom-1.9/bld/watcom/c/srcmgt.c)
0001:0002c5d0  FClearOpenSourceCache_
0001:0002c5f0  FOpenSource_
0001:0002c680  FSize_
0001:0002c6b0  FLastOffset_
0001:0002c6d0  FileIsRemote_
0001:0002c6f0  FGetName_
0001:0002c700  FDoneSource_
0001:0002c910  FCurrLine_
0001:0002c920  FReadLine_
0002:0000151c+ _FileList
Module: dbgupdt.obj(/mnt/sda5/.user/root/src/openwatcom-1.9/bld/wv/c/dbgupdt.c)
0001:0002ca80  DbgUpdate_
Module: symcomp.obj(/mnt/sda5/.user/root/src/openwatcom-1.9/bld/wv/c/symcomp.c)
0001:0002cb90  SymCompInit_
0001:0002cca0  SymCompFini_
0001:0002ccd0  SymCompMatches_
0002:00001520+ _SortedNames
Module: litengin.obj(/mnt/sda5/.user/root/src/openwatcom-1.9/bld/wv/c/litengin.c)
0002:000067cc  __LITMSTR_REG_USER
0002:000067d0  __LITMSTR_SIGNED
0002:000067d4  __LITMSTR_HALF
0002:000067d8  __LITMSTR_HWORD
0002:000067dc  __LITMSTR_MMX
0002:000067e0  __LITMSTR_XMM
0002:000067e4  __LITMSTR_UNSIGNED
0002:000067e8  __LITMSTR_DBLW
0002:000067ec  __LITMSTR_INT
0002:000067f0  __LITMSTR_MPSEUDOINS
0002:000067f4  __LITMSTR_REG_SYMBOLIC
0002:000067f8  __LITMSTR_MVAX
0002:000067fc  __LITMSTR_F_FLOAT
0002:00006800  __LITMSTR_G_FLOAT
0002:00006804  __LITMSTR_D_FLOAT
0002:00006808  __LITMSTR_VAX
0002:0000680c  __LITMSTR_REG_NUMERIC
0002:00006810  __LITMSTR_IEEE
0002:00006814  __LITMSTR_PSEUDOINS
0002:00006818  __LITMSTR_MSYMBOLIC
0002:0000681c  __LITMSTR_INT64
0002:00006820  __LITMSTR_N64_PTR
0002:00006824  __LITMSTR_AFFINE
0002:00006828  __LITMSTR_PROJECTIVE
0002:0000682c  __LITMSTR_RAWINS
0002:00006830  __LITMSTR_MOS
0002:00006834  __LITMSTR_REG_OS
0002:00006838  __LITMSTR_UNSIGNED64
0002:0000683c  __LITMSTR_PCDOUBLE
0002:00006840  __LITMSTR_DOWN
0002:00006844  __LITMSTR_UP
0002:00006848  __LITMSTR_CHOP
0002:0000684c  __LITMSTR_ZERO
0002:00006850  __LITMSTR_PCEXTENDED
0002:00006854  __LITMSTR_EMPTY
0002:00006858  __LITMSTR_HEX
0002:0000685c  __LITMSTR_REG_NORMAL
0002:00006860  __LITMSTR_REG_EXTENDED
0002:00006864  __LITMSTR_PCZERO
0002:00006868  __LITMSTR_VALID
0002:0000686c  __LITMSTR_MHEX
0002:00006870  __LITMSTR_SPECIAL
0002:00006874  __LITMSTR_PCSINGLE
0002:00006878  __LITMSTR_EMULATOR
0002:0000687c  __LITMSTR_DECIMAL
0002:00006880  __LITMSTR_MEXTENDED
0002:00006884  __LITMSTR_NEAREST
0002:00006888  __LITMSTR_UPPER
0002:0000688c  __LITMSTR_MINSIDE
0002:00006890  __LITMSTR_OUTSIDE
0002:00006894  __LITMSTR_MUPPER
0002:00006898  __LITMSTR_INSIDE
0002:0000689c  __LITMSTR_FPU
0002:000068a0  __LITMSTR_FAR
0002:000068a4  __LITMSTR_LOWER
0002:000068a8  __LITMSTR_INTERRUPT
0002:000068ac  __LITMSTR_FLOAT
0002:000068b0  __LITMSTR_N32_PTR
0002:000068b4  __LITMSTR_CPU
0002:000068b8  __LITMSTR_F32_PTR
0002:000068bc  __LITMSTR_N16_PTR
0002:000068c0  __LITMSTR_NONE
0002:000068c4  __LITMSTR_F16_PTR
0002:000068c8  __LITMSTR_EXTENDED
0002:000068cc  __LITMSTR_DOUBLE
0002:000068d0  __LITMSTR_NEAR
0002:000068d4  __LITERR_CANT_RESTART
0002:000068d8  __LITMSTR_CHAR
0002:000068dc  __LITMSTR_UCHAR
0002:000068e0  __LITMSTR_QWORD
0002:000068e4  __LITERR_NEAR_TOKEN
0002:000068e8  __LITERR_AMBIG_SRC_FILE
0002:000068ec  __LITMSTR_NIL
0002:000068f0  __LITMSTR_LWORD
0002:000068f4  __LITERR_NO_SRC_FILE
0002:000068f8  __LITMSTR_LONG
0002:000068fc  __LITERR_BAD_PARSE_VERSION
0002:00006900  __LITMSTR_ULONG
0002:00006904  __LITERR_WANT_MODULE
0002:00006908  __LITERR_REMOTE_LINK_BROKEN
0002:0000690c  __LITMSTR_WORD
0002:00006910  __LITMSTR_DWORD
0002:00006914  __LITMSTR_SHORT
0002:00006918  __LITMSTR_BYTE
0002:0000691c  __LITMSTR_USHORT
0002:00006920  __LITERR_NO_RETURN_ADDRESS
0002:00006924  __LITERR_CALL_NOT_ALLOWED
0002:00006928  __LITERR_NO_ACCESS
0002:0000692c  __LITERR_NO_OBJECT_FOR_CALL
0002:00006930  __LITERR_CANT_KILL_PROGRAM
0002:00006934  __LITERR_NO_IMAGE
0002:00006938  __LITERR_EXECUTING_AT
0002:0000693c  __LITERR_NOT_PRINTABLE
0002:00006940  __LITERR_STK_UNDERFL
0002:00006944  __LITERR_TOO_MANY_SCANRESTORE
0002:00006948  __LITERR_PARSE_FILE
0002:0000694c  __LITERR_INVALID_OPERATOR
0002:00006950  __LITERR_NOT_WATCH_SIZE
0002:00006954  __LITERR_CALLED_FROM
0002:00006958  __LITERR_STK_OVERFL
0002:0000695c  __LITERR_NEAR_END_OF_LINE
0002:00006960  __LITERR_BAD_HOOK
0002:00006964  __LITERR_NEAR_END_OF_COMMAND
0002:00006968  __LITERR_TOO_MANY_SCANSAVE
0002:0000696c  __LITERR_CHAR_STAR_STAR
0002:00006970  __LITERR_BAD_SUBSTRING_INDEX
0002:00006974  __LITERR_WANT_END_STRING
0002:00006978  __LITERR_EXPR_TOO_LONG
0002:0000697c  __LITERR_NO_OVL_STATE
0002:00006980  __LITERR_NO_READ_PORT
0002:00006984  __LITERR_ZERO_MOD
0002:00006988  __LITERR_NO_LANG
0002:0000698c  __LITERR_NO_WRITE_MEM
0002:00006990  __LITERR_ZERO_DIV
0002:00006994  __LITERR_NO_WRITE_PORT
0002:00006998  __LITERR_NO_MAKE_CURR_THREAD
0002:0000699c  __LITERR_WANT_COMMAND_LIST
0002:000069a0  __LITERR_NO_READ_MEM
0002:000069a4  __LITERR_TOO_MANY_CALLS
0002:000069a8  __LITERR_NO_SUCH_THREAD
0002:000069ac  __LITERR_EXPR_STACK_OVER
0002:000069b0  __LITERR_CANT_SET_ALL_THREADS
0002:000069b4  __LITERR_DBG_INTERRUPT
0002:000069b8  __LITERR_UNKNOWN_SYMBOL
0002:000069bc  __LITERR_NO_SUCH_POINT
0002:000069c0  __LITERR_VOID_BASE
0002:000069c4  __LITERR_NO_SOURCE_INFO
0002:000069c8  __LITERR_SYS_FAIL
0002:000069cc  __LITERR_CANNOT_RESTORE_STDOUT
0002:000069d0  __LITERR_FILE_NOT_OPEN
0002:000069d4  __LITERR_NEED_ADDRESS
0002:000069d8  __LITERR_SYM_NOT_CREATED
0002:000069dc  __LITERR_INCONSISTENT_GO
0002:000069e0  __LITERR_NO_ROUTINE
0002:000069e4  __LITERR_POINT_EXISTS
0002:000069e8  __LITERR_TOO_MANY_PARMS
0002:000069ec  __LITERR_DUPLICATE_TYPE_SPEC
0002:000069f0  __LITERR_ILL_TYPE
0002:000069f4  __LITERR_CANNOT_RESTORE_STDIN
0002:000069f8  __LITERR_ILLEGAL_TYPE_SPEC
0002:000069fc  __LITERR_NO_MODULE
0002:00006a00  __LITERR_TYPE_CONVERSION
0002:00006a04  __LITERR_WANT_EOC
0002:00006a08  __LITERR_NO_MEMORY_FOR_EXPR
0002:00006a0c  __LITERR_NO_MEMORY_FOR_DEBUG
0002:00006a10  __LITERR_LOG_NOT_STARTED
0002:00006a14  __LITERR_LOG_STARTED
0002:00006a18  __LITERR_NO_MEMORY
0002:00006a1c  __LITERR_WANT_ON_OFF
0002:00006a20  __LITERR_WANT_REG_NAME
0002:00006a24  __LITERR_NO_MEMORY_FOR_WINDOW
0002:00006a28  __LITERR_WANT_TOKEN
0002:00006a2c  __LITERR_WANT_NAME
0002:00006a30  __LITERR_BAD_SUBCOMMAND
0002:00006a34  __LITERR_BAD_OPTION
0002:00006a38  __LITERR_NO_CODE
0002:00006a3c  __LITERR_WANT_OPERAND
0002:00006a40+ __LITERR_BAD_TYPE_NAME
0002:00006a44  __LITERR_WANT_FILENAME
0002:00006a48  __LITERR_BAD_CALL_TYPE
0002:00006a4c  __LITERR_WANT_LOOKUP_ITEM
0002:00006a50  __LITLDS_INFO_BAD_VERSION
0002:00006a54  __LITIO
0002:00006a58  __LITBAD_TRAP_FILE
0002:00006a5c  __LITLDS_INFO_INVALID
0002:00006a60  __LITDIP_load_failed
0002:00006a64  __LITNo_DIPs_Found
0002:00006a68  __LITLMS_FREAD_FAILED
0002:00006a6c  __LITSym_Info_Load_Failed
0002:00006a70  __LITERR_GENERIC
0002:00006a74  __LITLMS_INVALID_MAD_VERSION
0002:00006a78  __LITLDS_INVALID_DIP
0002:00006a7c  __LITERR_BAD_COMMAND
0002:00006a80  __LITOUT_OF_DOS_MEMORY
0002:00006a84  __LITINCORRECT_TRAP_FILE_VERSION
0002:00006a88  __LITLMS_UNREGISTERED_MAD
0002:00006a8c  __LITERR_BAD_RADIX
0002:00006a90  __LITLMS_INVALID_MAD
0002:00006a94  __LITCANT_LOAD_TRAP_FILE
0002:00006a98  __LITLMS_RECURSIVE_MAD_FAILURE
0002:00006a9c  __LITStr_ACTION_MODIFY_REGISTER
0002:00006aa0  __LITUnknown_type
0002:00006aa4  __LITLDS_INVALID_DIP_VERSION
0002:00006aa8  __LITStr_ACTION_MODIFY_MEMORY
0002:00006aac  __LITfield
0002:00006ab0  __LITinherited_members
0002:00006ab4  __LITLDS_FSEEK_FAILED
0002:00006ab8  __LITLDS_FREAD_FAILED
0002:00006abc  __LITLDS_FWRITE_FAILED
0002:00006ac0  __LITStr_ACTION_THREAD_CHANGE
0002:00006ac4  __LITLDS_TOO_MANY_DIPS
0002:00006ac8  __LITStr_ACTION_MODIFY_IP
0002:00006acc  __LITLDS_NO_MEM
0002:00006ad0  __LITStr_ACTION_ASSIGNMENT
0002:00006ad4  __LITStr_ACTION_MODIFY_VARIABLE
0002:00006ad8  __LITStr_ACTION_EXECUTE
0002:00006adc  __LITImage_Not_Loaded
0002:00006ae0  __LITLDS_FOPEN_FAILED
0002:00006ae4  __LITStruct
0002:00006ae8  __LITTask_Exception
0002:00006aec  __LITUser_Interupt
0002:00006af0  __LITDead
0002:00006af4  __LITNo_Visible_Members
0002:00006af8  __LITBottom_Of_Stack
0002:00006afc  __LITThread_Not_Exist
0002:00006b00  __LITRunnable
0002:00006b04  __LITTop_Of_Stack
0002:00006b08  __LITDLL_UnLoaded
0002:00006b0c  __LITFrozen
0002:00006b10  __LITArray
0002:00006b14  __LITNew_Task
0002:00006b18  __LITNo_More_Undos
0002:00006b1c  __LITCurrent
0002:00006b20  __LITNo_Task
0002:00006b24  __LITDLL_Loaded
0002:00006b28  __LITTask_Completed
0002:00006b2c  __LITBreak_on_DLL_Load
0002:00006b30  __LITTask_Not_Loaded
0002:00006b34  __LITSTARTUP_No_Recog_Optn
0002:00006b38  __LITEnd_Of_Line
0002:00006b3c  __LITDebugger_Startup_Error
0002:00006b40+ __LITMSG_Unexpected_Break
0002:00006b44  __LITMap_Selector
0002:00006b48  __LITSTARTUP_Expect_Eql
0002:00006b4c  __LITInternal_Error
0002:00006b50  __LITNewVal
0002:00006b54  __LITSTARTUP_MAD_Not_Init
0002:00006b58  __LITSTARTUP_Num_Too_Big
0002:00006b5c  __LITSTARTUP_Expect_End_Env_Str
0002:00006b60  __LITMap_Named_Selector
0002:00006b64  __LITBreak_on_execute
0002:00006b68  __LITNum_Name
0002:00006b6c  __LITBreak_on_write
0002:00006b70  __LITOldVal
0002:00006b74  __LITNew_Expression
0002:00006b78  __LITSym_Name_Name
0002:00006b7c  __LITSTARTUP_Invalid_Num
0002:00006b80  __LITWARN_ONLY_MAX_EXPAND_ARRAY_ELEMENTS
0002:00006b84  __LITQuest_Marks
0002:00006b88  __LITEmpty
0002:00006b8c  __LITSTARTUP_Expect_Brace
0002:00006b90  __LITSTARTUP_Loading_PRS
0002:00006b94  __LITSTARTUP_Invalid_Option
0002:00006b98  __LITSTARTUP_DIP_Not_Init
0002:00006b9c  __LITSTARTUP_DIP_Not_Register
0002:00006ba0+ __LITWARN_Unable_To_Remap_Tmp
0001:0002cd80  InitEngineLiterals_
0001:0002dc00  FiniEngineLiterals_
0002:00006ba4  __LITWARN_No_Nxt_Src_Ln
Module: litwd.obj(/mnt/sda5/.user/root/src/openwatcom-1.9/bld/wv/c/litwd.c)
0002:00006ba8  __LITDOS_invalid_drive
0002:00006bac+ __LITUnable_to_get_rm_sel
0002:00006bb0+ __LITUnable_to_alloc_DOS_mem
0002:00006bb4  __LITDOS_remove_cd
0002:00006bb8  __LITDOS_invalid_data
0002:00006bbc  __LITDOS_not_same_device
0002:00006bc0  __LITDOS_access_denied
0002:00006bc4  __LITDOS_too_many_open_files
0002:00006bc8  __LITDOS_invalid_format
0002:00006bcc  __LITDOS_memory_control
0002:00006bd0  __LITDOS_invalid_address
0002:00006bd4+ __LITERR_NOT_PROCEDURE
0002:00006bd8  __LITDOS_invalid_environment
0002:00006bdc  __LITDOS_path_not_found
0002:00006be0+ __LITERR_CANT_GET_RV
0002:00006be4  __LITDOS_invalid_handle
0002:00006be8  __LITDOS_invalid_access_code
0002:00006bec  __LITDOS_insufficient_memory
0002:00006bf0  __LITDOS_invalid_function
0002:00006bf4  __LITERR_RX_10
0002:00006bf8  __LITERR_RX_11
0002:00006bfc  __LITERR_RX_12
0002:00006c00  __LITERR_RX_13
0002:00006c04  __LITDOS_file_not_found
0002:00006c08  __LITERR_RX_9
0002:00006c0c  __LITERR_RX_7
0002:00006c10  __LITERR_RX_4
0002:00006c14  __LITERR_RX_5
0002:00006c18  __LITERR_RX_2
0002:00006c1c  __LITERR_RX_3
0002:00006c20  __LITERR_RX_1
0002:00006c24  __LITERR_MACRO_NOT_VALID
0002:00006c28  __LITERR_WANT_MENU_ITEM
0002:00006c2c+ __LITUnable_to_init_ui
0002:00006c30  __LITERR_BAD_TAB
0002:00006c34  __LITERR_BAD_DCLICK
0002:00006c38  __LITERR_BAD_ARRAY_INDEX
0002:00006c3c  __LITERR_WIND_NOT_OPEN
0002:00006c40  __LITERR_BAD_WINDOW_ATTR
0002:00006c44  __LITERR_BAD_COLOUR_ATTR
0002:00006c48  __LITERR_BAD_WIND_NAME
0002:00006c4c  __LITERR_MATCH_NOT_SUPPORTED
0002:00006c50  __LITERR_RX_8
0002:00006c54  __LITERR_RX_6
0002:00006c58  __LITWindowXMM
0002:00006c5c  __LITID
0002:00006c60  __LITWindowReplay
0002:00006c64  __LITNo_Source_Line
0002:00006c68  __LITWindowFPU
0002:00006c6c  __LITWindowGlobals
0002:00006c70  __LITNo_text_to_complete
0002:00006c74  __LITWindowAccelerator
0002:00006c78  __LITWindowModules
0002:00006c7c  __LITWindowSearch
0002:00006c80  __LITWindowMMX
0002:00006c84  __LITWindowGlobal_Functions
0002:00006c88  __LITWindowCalls
0002:00006c8c  __LITExecutable_File
0002:00006c90  __LITWindowFunctions
0002:00006c94  __LITDebug_Information_Type
0002:00006c98  __LITDebug_Information
0002:00006c9c  __LITNo_Match_Found
0002:00006ca0  __LITState
0002:00006ca4  __LITWindowLocals
0002:00006ca8  __LITWindowAssembly
0002:00006cac  __LITWindowWatches
0002:00006cb0  __LITWindowStack
0002:00006cb4  __LITWindowRegisters
0002:00006cb8  __LITWindowCurrent
0002:00006cbc  __LITWindowLog
0002:00006cc0  __LITWindowImages
0002:00006cc4  __LITWindowFile_Variables
0002:00006cc8  __LITWindowFileView
0002:00006ccc  __LITWindowVariable
0002:00006cd0  __LITWindowThreads
0002:00006cd4  __LITWindowBinary
0002:00006cd8  __LITWindowMemory
0002:00006cdc  __LITWindowSource
0002:00006ce0  __LITWindowAll
0002:00006ce4  __LITWindowIO_Ports
0002:00006ce8  __LITWindowTmpFile
0002:00006cec  __LITWindowBrk
0002:00006cf0  __LITBreakpoint_File_Name
0002:00006cf4  __LITDLL_Name
0002:00006cf8  __LITCancel
0002:00006cfc  __LITEnter_Window
0002:00006d00  __LITSymbol_List
0002:00006d04  __LITConfiguration_File_Name
0002:00006d08  __LITSymbol_File
0002:00006d0c  __LITThe_WATCOM_Debugger
0002:00006d10  __LITOK
0002:00006d14  __LITError
0002:00006d18  __LITAbout_The_WATCOM_Debugger
0002:00006d1c  __LITModules
0002:00006d20  __LITDlgBreak
0002:00006d24  __LITReplay_File_Name
0002:00006d28  __LITXModule_
0002:00006d2c  __LITNew_Source
0002:00006d30  __LITProgram_Name
0002:00006d34  __LITGoWhere
0002:00006d38  __LITXSymbol_
0002:00006d3c  __LITEnter_New_Command
0002:00006d40  __LITmac_main_menu
0002:00006d44+ __LITThe_WATCOM_Debugger_for_PowerBuilder
0002:00006d48+ __LITPowerBuilder_Debugger_Already_Running
0002:00006d4c  __LITMacro_Type
0002:00006d50  __LITmac_command_string
0002:00006d54  __LITMac_Window
0002:00006d58  __LITRedefine_Key
0002:00006d5c  __LITmac_popup_menu
0002:00006d60  __LITNew_Offset
0002:00006d64  __LITDefinition
0002:00006d68  __LITNew_Port_Addr
0002:00006d6c  __LITNew_Line
0002:00006d70  __LITPress_the_Key
0002:00006d74  __LITNew_Addr
0002:00006d78  __LITMem_Addr
0002:00006d7c  __LITNew_Module
0002:00006d80  __LITEnter_File_Name
0002:00006d84  __LITKey_Name
0002:00006d88+ __LITPowerBuilder_Not_Running
0002:00006d8c  __LITWARN_Asynch_Event
0002:00006d90  __LITWARN_Cycle_Detected
0002:00006d94  __LITWARN_Losing_Redo
0002:00006d98  __LITWARN_Incomplete_Undo
0002:00006d9c  __LITWARN_Program_Will_Slow
0002:00006da0+ __LITWARN_Unable_To_Remap
0002:00006da4  __LITWARN_Kill_PowerBuilder
0002:00006da8+ __LITFirst_UI_Message
0001:0002e5b0  DUIInitLiterals_
0001:0002ed50  DUIFiniLiterals_
0002:00006dac  __LITWARN_Source_Not_Available
Module: dui.obj(/mnt/sda5/.user/root/src/openwatcom-1.9/bld/wv/c/dui.c)
0001:0002f280  DUIUpdate_
0001:0002f2a0  DUIStatusText_
0001:0002f2b0  DUIMsgBox_
0001:0002f2c0  DUIDlgTxt_
0001:0002f2d0  DUIInfoBox_
0001:0002f2e0  DUIStop_
0001:0002f2f0  DUIClose_
0001:0002f300  DUIInit_
0001:0002f380  DUIFini_
0001:0002f3d0  DUIFreshAll_
0001:0002f3e0  DUIStopRefresh_
0001:0002f3f0  DUIShow_
0001:0002f430  DUIWndUser_
0001:0002f440  DUIWndDebug_
0001:0002f450  DUIShowLogWindow_
0001:0002f460  ReqWndName_
0001:0002f490  DUIGetMonitorType_
0001:0002f4c0  DUIScreenSizeY_
0001:0002f4d0  DUIScreenSizeX_
0001:0002f4e0  DUIErrorBox_
0001:0002f500  DUIArrowCursor_
0001:0002f510  DUILoadString_
0001:0002f520  DUIAskIfAsynchOk_
0001:0002f540  DUIFlushKeys_
0001:0002f550  DUIPlayDead_
0001:0002f560  DUISysEnd_
0001:0002f570  DUISysStart_
0001:0002f580  DUIRingBell_
0001:0002f590  DUIProcPendingPaint_
0001:0002f5a0  DUIInfoRelease_
0001:0002f5c0  DUIExitCriticalSection_
0001:0002f5c0  DUIEnterCriticalSection_
0001:0002f5d0  DUIHourGlass_
0001:0002f5e0  WndDoInput_
0001:0002f5f0  DUIGetSourceLine_
0001:0002f610  DUICopyCopied_
0001:0002f610  DUICopySize_
0001:0002f640  DUIIsDBCS_
0001:0002f650  DUIEnvLkup_
0001:0002f660  DUIDirty_
0001:0002f670  DUISrcOrAsmInspect_
0001:0002f690  DUIAddrInspect_
0001:0002f6b0  DUIRemoveBreak_
0001:0002f6c0  StartupErr_
0001:0002f6d0* DUISymbolsCancelled_
0001:0002f6d0  DUICopyCancelled_
0001:0002f6e0  DUIImageLoaded_
Module: dbgwset.obj(/mnt/sda5/.user/root/src/openwatcom-1.9/bld/wv/c/dbgwset.c)
0001:0002f7e0  DClickSet_
0001:0002f840  DClickConf_
0001:0002f860  InputSet_
0001:0002f8d0  InputConf_
0001:0002f910  LookUpCtrlKey_
0001:0002f980  KeyName_
0001:0002fc00  MacAddDel_
0001:0002fd50  MacroSet_
0001:0002fe30  MacroConf_
0001:0002fec0  FiniMacros_
0001:0002ff10  TabIntervalGet_
0001:0002ff20  TabIntervalSet_
0001:0002ff40  TabSet_
0001:0002ffa0  TabConf_
0001:0002ffd0  SearchSet_
0001:000300b0  SearchConf_
Module: dbginsp.obj(/mnt/sda5/.user/root/src/openwatcom-1.9/bld/wv/c/dbginsp.c)
0001:00030150  WndTmpFileInspect_
0001:00030260  WndFileInspect_
0001:00030340  WndFuncInspect_
0001:00030360  WndGblFuncInspect_
0001:00030390  WndGblVarInspect_
0001:000303c0  WndMemInspect_
0001:00030410  WndIOInspect_
0001:00030440  WndAddrInspect_
0001:00030460  WndAsmInspect_
0001:000305b0  WndSrcInspect_
0001:000305e0  WndSrcOrAsmInspect_
0001:00030610  WndNewSrcInspect_
0001:00030630  WndModInspect_
0001:000306d0  WndModListInspect_
0001:000307e0  WndInspectExprSP_
0001:00030810  WndInspect_
0001:00030850  WndClassInspect_
0001:00030880  WndVarInspect_
Module: dbgicon.obj(/mnt/sda5/.user/root/src/openwatcom-1.9/bld/wv/c/dbgicon.c)
0002:000019e8  _MainIcon
0002:000019f0  _AsmIcon
0002:000019f8  _BrkIcon
0002:00001a00  _CallIcon
0002:00001a08  _FPUIcon
0002:00001a10  _MMXIcon
0002:00001a18  _XMMIcon
0002:00001a20  _FuncIcon
0002:00001a28  _GlobIcon
0002:00001a30  _AclIcon
0002:00001a38  _ImgIcon
0002:00001a40  _IOIcon
0002:00001a48  _LogIcon
0002:00001a50  _MemIcon
0002:00001a58  _ModIcon
0002:00001a60  _RegIcon
0002:00001a68  _RepIcon
0002:00001a70  _SrcIcon
0002:00001a78  _SrchIcon
0002:00001a80  _StkIcon
0002:00001a88  _TrdIcon
0002:00001a90  _VarIcon
0002:00001a98  _LocIcon
0002:00001aa0  _WatIcon
Module: dbgdisp.obj(/mnt/sda5/.user/root/src/openwatcom-1.9/bld/wv/c/dbgdisp.c)
0002:00006dc4  _WndMainRect
0001:00030980  ScanStatus_
0001:00030a10  GetWndFont_
0001:00030a40  WndFontHook_
0001:00030a80  WndMainClientSize_
0001:00030aa0  WndMainResized_
0001:00030b20  WndResizeHook_
0001:00030b90  InitFont_
0001:00030ba0  FiniFont_
0001:00030c30  ProcFont_
0001:00030d40  ConfigFont_
0001:00030d70  FontChange_
0001:000311c0  ProcDisplay_
0001:000312c0  ConfigDisp_
0002:00006e4c  _WndPosition
Module: dbgpaint.obj(/mnt/sda5/.user/root/src/openwatcom-1.9/bld/wv/c/dbgpaint.c)
0002:00001af4  _WndStatusColour
0002:00001af6  _WndPlainAttr
0002:00001af7  _WndSelectedAttr
0002:00001af8  _WndCursorAttr
0002:00001b0b  _WndColours
0002:00001b34  _WndNumColours
0001:000315c0  WndMapTabAttr_
0001:000316a0  ProcPaint_
0001:00031880  ProcPendingPaint_
0001:00031900  FiniPaint_
0001:00031940  GetWndColours_
0001:00031c20  ConfigPaint_
0001:00031c80  InitPaint_
0002:00001cb0* _WndTabStopAttr
Module: dbgcap.obj(/mnt/sda5/.user/root/src/openwatcom-1.9/bld/wv/c/dbgcap.c)
0001:00031c90  CaptureError_
0001:00031cf0  ProcCapture_
Module: wndalloc.obj(/mnt/sda5/.user/root/src/openwatcom-1.9/bld/wv/c/wndalloc.c)
0001:00031db0  WndNoMemory_
0001:00031dd0  WndAlloc_
0001:00031de0  WndRealloc_
0001:00031df0  WndFree_
0001:00031e00* WndMemFini_
0001:00031e10  WndMemInit_
Module: dlgambig.obj(/mnt/sda5/.user/root/src/openwatcom-1.9/bld/wv/c/dlgambig.c)
0001:00031e30  DUIDisambiguate_
Module: dlgscomp.obj(/mnt/sda5/.user/root/src/openwatcom-1.9/bld/wv/c/dlgscomp.c)
0001:00031ec0  DlgGetMatchString_
0001:00031f30  SymComplete_
Module: modcomp.obj(/mnt/sda5/.user/root/src/openwatcom-1.9/bld/wv/c/modcomp.c)
0001:000320a0  ModComplete_
Module: wndsys.obj(/mnt/sda5/.user/root/src/openwatcom-1.9/bld/wv/c/wndsys.c)
0002:00001cc8  _WndGadgetHint
0002:00001d14  _WndGadgetArray
0002:00001e4c  _WndGadgetArraySize
0002:00001e50  _WndGadgetSecondary
0002:00001e54  _WndGadgetAttr
0002:00001fcc+ _WndNormal
0002:00001fdc  _WndLong
0002:00001fec+ _WndMemMetrics
0002:00001ffc+ _WndWide
0002:0000200c+ _WndWideLong
0002:0000201c+ _WndFileMetrics
0002:0000202c  _WndMetrics
0002:000020a8* _NoMetrics
0001:00032260  DbgWndSearch_
0001:00032270+ ProcPUINYI_
0001:00032290  ProcWndSearch_
0001:000322b0+ ProcWndTabLeft_
0001:000322c0+ ProcWndTabRight_
0001:000322d0  ProcSearchAll_
0001:00032300+ ProcWndPopUp_
0001:00032310  ProcWndFindNext_
0001:00032330  ProcWndFindPrev_
0001:00032370  ProcWindow_
0001:000323a0  WndSysStart_
0001:000323b0  WndSysEnd_
0001:000323c0  WndStop_
0001:000323d0  WndUser_
0001:00032430  WndDebug_
0001:00032430  WndStartFreshAll_
0001:000324b0  WndRedraw_
0001:000325b0  WndProcMacro_
0001:00032650  WndSysInit_
0001:00032690  SetUnderLine_
0001:000326c0  SetGadgetLine_
0001:000326d0  FiniGadget_
0001:00032710  InitGadget_
0001:00032790  OpenGadget_
0001:000327a0  CheckOpenGadget_
0001:000327f0  WndEndFreshAll_
0001:00032800  WndFlushKeys_
0001:00032810  WndMsgBox_
0001:00032840  WndInfoBox_
0001:00032870  WndSetOpenNoShow_
0001:00032880  DbgTitleWndCreate_
0001:00032a30  DbgWndCreate_
0001:00032a50  WndRXError_
0001:00032ab0  SaveMainScreen_
0001:00032b10  RestoreMainScreen_
0001:00032b70  WndSetWndMainSize_
0002:000070ac  _MaxGadgetLength
Module: wnddump.obj(/mnt/sda5/.user/root/src/openwatcom-1.9/bld/wv/c/wnddump.c)
0001:00032e30  WndDumpPrompt_
0001:00032e50  WndDumpFile_
0001:00032ed0  WndDumpLog_
Module: dlgabout.obj(/mnt/sda5/.user/root/src/openwatcom-1.9/bld/wv/c/dlgabout.c)
0001:00032f00  DlgAbout_
Module: dlgstk.obj(/mnt/sda5/.user/root/src/openwatcom-1.9/bld/wv/c/dlgstk.c)
0001:00033020  DlgUpTheStack_
0001:00033030  DlgBackInTime_
0001:00033060  DlgIncompleteUndo_
Module: dlgayn.obj(/mnt/sda5/.user/root/src/openwatcom-1.9/bld/wv/c/dlgayn.c)
0001:00033100  DlgAreYouNuts_
Module: dlgsrc.obj(/mnt/sda5/.user/root/src/openwatcom-1.9/bld/wv/c/dlgsrc.c)
0001:00033130  DlgSource_
Module: dlgdll.obj(/mnt/sda5/.user/root/src/openwatcom-1.9/bld/wv/c/dlgdll.c)
0001:00033160  DlgBreakDLL_
Module: dlglist.obj(/mnt/sda5/.user/root/src/openwatcom-1.9/bld/wv/c/dlglist.c)
0001:00033490  DlgList_
Module: dlgfile.obj(/mnt/sda5/.user/root/src/openwatcom-1.9/bld/wv/c/dlgfile.c)
0001:00033670  SetLastExe_
0001:00033680* GetLastExe_
0001:00033690* SetLastCfg_
0001:000336f0  InitBrowse_
0001:00033760  FiniBrowse_
0001:00033840  ProcConfigFile_
0001:00033870  WndShutDownHook_
0001:00033910  ConfigSave_
0001:00033980  BreakSave_
0001:000339e0  ReplaySave_
0001:00033a50  FileBrowse_
0001:00033a90  ExeBrowse_
0001:00033ab0  SymBrowse_
0001:00033ad0  AllBrowse_
0001:00033b00  GetDmpName_
Module: dlgnewp.obj(/mnt/sda5/.user/root/src/openwatcom-1.9/bld/wv/c/dlgnewp.c)
0001:00033cc0  DlgNewProg_
Module: dlgexpr.obj(/mnt/sda5/.user/root/src/openwatcom-1.9/bld/wv/c/dlgexpr.c)
0001:00033d40  DlgGetLong_
0001:00033d50  DlgGetCodeAddr_
0001:00033d60  DlgGetDataAddr_
0001:00033d70  DlgSetLong_
0001:00033e00  DlgLongExpr_
0001:00033e40  DlgAnyExpr_
0001:00033e90  DlgCodeAddr_
0001:00033ed0  DlgDataAddr_
0001:00033f10  DlgGivenAddr_
0001:00033f40  DlgModName_
0001:00033f90  DlgString_
0001:00033fc0  DlgMadTypeExpr_
Module: dlgbreak.obj(/mnt/sda5/.user/root/src/openwatcom-1.9/bld/wv/c/dlgbreak.c)
0001:00034900  DlgBreak_
Module: dlgvarx.obj(/mnt/sda5/.user/root/src/openwatcom-1.9/bld/wv/c/dlgvarx.c)
0001:00034b60  DlgVarExpand_
Module: dlgcmd.obj(/mnt/sda5/.user/root/src/openwatcom-1.9/bld/wv/c/dlgcmd.c)
0001:00034cd0  DlgCmd_
Module: dlgnewws.obj(/mnt/sda5/.user/root/src/openwatcom-1.9/bld/wv/c/dlgnewws.c)
0001:00034db0  DlgNewWithMod_
0001:00034dc0  DlgNewWithSym_
Module: wndhelp.obj(/mnt/sda5/.user/root/src/openwatcom-1.9/bld/wv/c/wndhelp.c)
0001:00034e00  InitHelp_
0001:00034e20  FiniHelp_
0001:00034e60  ProcHelp_
0001:00034e70  DoProcHelp_
Module: wndmenu.obj(/mnt/sda5/.user/root/src/openwatcom-1.9/bld/wv/c/wndmenu.c)
0001:00034ef0  PlayDead_
0001:00035010  GetMenuLabel_
0001:00035100  AccelMenuItem_
0001:000352c0  ProcAccel_
0001:00035390  SetLogMenuItems_
0001:000353b0  SetMADMenuItems_
0001:00035420  SetTargMenuItems_
0001:00035450  InitMenus_
0001:000354a0  SetBrkMenuItems_
0001:000354f0  FiniMenus_
0001:00035540  WndMenuSetHotKey_
0001:000355d0  AddMenuAccel_
0001:00035700  WndMainMenuProc_
0002:0000299c  _WndMainMenu
0002:00002a8c  _WndNumMenus
0002:00002a90  _WndInfoTab
0002:00002b0c  _MainTab
Module: dbgwfpu.obj(/mnt/sda5/.user/root/src/openwatcom-1.9/bld/wv/c/dbgwfpu.c)
0001:000360d0  FPUChangeOptions_
0001:000360f0  WndFPUOpen_
Module: dbgwmac.obj(/mnt/sda5/.user/root/src/openwatcom-1.9/bld/wv/c/dbgwmac.c)
0001:000362e0  MacKeyHit_
0001:00036c30  WndMacOpen_
0002:00002c3c  _MacInfo
Module: dbgwglob.obj(/mnt/sda5/.user/root/src/openwatcom-1.9/bld/wv/c/dbgwglob.c)
0001:00036cd0+ GlobMenuItem_
0001:00036df0+ GlobNumRows_
0001:00036e00+ GlobGetLine_
0001:00036e40  GlobNewMod_
0001:00036e60+ GlobRefresh_
0001:00036eb0+ GlobEventProc_
0001:00036f00  GlobChangeOptions_
0001:00036f20  WndGlobOpen_
0001:00036f30  DoWndGlobOpen_
0002:00002c74+ _GlobMenu
0002:00002cec  _GlobInfo
Module: dbgwfunc.obj(/mnt/sda5/.user/root/src/openwatcom-1.9/bld/wv/c/dbgwfunc.c)
0001:00037330  FuncNewMod_
0001:000374e0  FuncChangeOptions_
0001:00037500  DoWndFuncOpen_
0001:00037550  WndFuncOpen_
0001:00037560  WndGblFuncOpen_
0002:00002db4  _FuncInfo
Module: dbgwcall.obj(/mnt/sda5/.user/root/src/openwatcom-1.9/bld/wv/c/dbgwcall.c)
0001:000378d0  WndCallOpen_
0002:00002e7c  _CallInfo
Module: dbgwmod.obj(/mnt/sda5/.user/root/src/openwatcom-1.9/bld/wv/c/dbgwmod.c)
0001:00037dd0  ModNewHandle_
0001:00037f40  ModChangeOptions_
0001:00037f60  WndModOpen_
0001:00037f70  DoWndModOpen_
0002:00002f5c  _ModInfo
Module: dbgwsrch.obj(/mnt/sda5/.user/root/src/openwatcom-1.9/bld/wv/c/dbgwsrch.c)
0001:00038600  WndSrchOpen_
0002:00002fac  _SrchInfo
Module: dbgwdlg.obj(/mnt/sda5/.user/root/src/openwatcom-1.9/bld/wv/c/dbgwdlg.c)
0001:000386f0  DlgInfoRelease_
0001:00038850  WndDlgTxt_
0001:000388a0  WndDlgFini_
0001:00038930  WndDlgOpen_
0002:00002ff4  _LogInfo
Module: dbgwfil.obj(/mnt/sda5/.user/root/src/openwatcom-1.9/bld/wv/c/dbgwfil.c)
0001:00038990  SrcJoinAsm_
0001:000389a0  SrcNewAsmNotify_
0001:00038a10  SrcFreeAsm_
0001:00039160  FileOpenGadget_
0001:000391c0  FileBreakGadget_
0001:000397e0  SrcMoveDot_
0001:00039900  SrcWndFind_
0001:00039990  SrcHasFileOpen_
0001:00039cc0  DoWndFileOpen_
0001:00039ec0  DoWndSrcOpen_
0001:00039f00  WndSrcOpen_
0001:00039fa0  ProcView_
0002:0000317c  _FileInfo
Module: dbgwass.obj(/mnt/sda5/.user/root/src/openwatcom-1.9/bld/wv/c/dbgwass.c)
0001:0003a440  AsmJoinSrc_
0001:0003a450  AsmNewSrcNotify_
0001:0003a630  AsmMoveDot_
0001:0003a780  AsmWndFind_
0001:0003a7c0  AsmFreeSrc_
0001:0003a8b0  AsmOpenGadget_
0001:0003be30  AsmChangeOptions_
0001:0003be40  DoWndAsmOpen_
0001:0003bf20  WndAsmOpen_
0002:00003304  _AsmInfo
Module: dbgwimg.obj(/mnt/sda5/.user/root/src/openwatcom-1.9/bld/wv/c/dbgwimg.c)
0001:0003c2e0  WndImgOpen_
0002:000033cc  _ImgInfo
Module: dbgwbrk.obj(/mnt/sda5/.user/root/src/openwatcom-1.9/bld/wv/c/dbgwbrk.c)
0001:0003c740  WndBrkOpen_
0002:000034c4  _BrkInfo
Module: dbgwio.obj(/mnt/sda5/.user/root/src/openwatcom-1.9/bld/wv/c/dbgwio.c)
0001:0003cc50  SetIOMenuItems_
0001:0003cc70  InitIOWindow_
0001:0003cd50  FiniIOWindow_
0001:0003cdc0  IONewAddr_
0001:0003cdf0  DoWndIOOpen_
0001:0003ceb0  WndIOOpen_
0002:00003590  _IOInfo
Module: dbgwrep.obj(/mnt/sda5/.user/root/src/openwatcom-1.9/bld/wv/c/dbgwrep.c)
0001:0003d1e0  WndRepOpen_
0002:00003610  _RepInfo
Module: dbgwmem.obj(/mnt/sda5/.user/root/src/openwatcom-1.9/bld/wv/c/dbgwmem.c)
0001:0003d760  MemSetLength_
0001:0003d770  MemSetFollow_
0001:0003e7a0  InitMemWindow_
0001:0003e8b0  FiniMemWindow_
0001:0003ea30  DoWndMemOpen_
0001:0003eab0  WndMemOpen_
0001:0003ead0  WndStkOpen_
0001:0003eb50  DoWndBinOpen_
0002:000037ec  _BinInfo
0002:00003824  _MemInfo
0002:0000385c+ _StkInfo
Module: dbgwregs.obj(/mnt/sda5/.user/root/src/openwatcom-1.9/bld/wv/c/dbgwregs.c)
0001:0003eba0  RegChangeOptions_
0001:0003ebc0  WndRegOpen_
Module: dbgwmmx.obj(/mnt/sda5/.user/root/src/openwatcom-1.9/bld/wv/c/dbgwmmx.c)
0001:0003ebe0  MMXChangeOptions_
0001:0003ec00  WndMMXOpen_
Module: dbgwxmm.obj(/mnt/sda5/.user/root/src/openwatcom-1.9/bld/wv/c/dbgwxmm.c)
0001:0003ec40  XMMChangeOptions_
0001:0003ec60  WndXMMOpen_
Module: dbgwmadr.obj(/mnt/sda5/.user/root/src/openwatcom-1.9/bld/wv/c/dbgwmadr.c)
0001:0003f710  MadRegChangeOptions_
0001:0003f730  WndMadRegOpen_
0002:000038dc  _MadRegInfo
Module: dbgwtogl.obj(/mnt/sda5/.user/root/src/openwatcom-1.9/bld/wv/c/dbgwtogl.c)
0001:0003f760  WndAppendToggles_
0001:0003f840  WndDeleteToggles_
Module: dbgwvar.obj(/mnt/sda5/.user/root/src/openwatcom-1.9/bld/wv/c/dbgwvar.c)
0001:0003f930  WndVarAdd_
0001:000409e0  VarSaveWndToScope_
0001:00040a10  VarRestoreWndFromScope_
0001:00040c80  VarInfoRelease_
0001:00040c90  VarUnMapScopes_
0001:00040ca0  VarFreeScopes_
0001:00040cf0  VarReMapScopes_
0001:00040d10  VarChangeOptions_
0001:00040df0  WndVarOpen_
0001:00040e00  WndWatOpen_
0001:00040e10  WndLclOpen_
0001:00040e20  WndFSVOpen_
0001:00040f00  GraphicDisplay_
0002:00003cb0  _VarInfo
Module: dbgwthrd.obj(/mnt/sda5/.user/root/src/openwatcom-1.9/bld/wv/c/dbgwthrd.c)
0001:000411a0  WndTrdOpen_
0002:00003d34  _TrdInfo
Module: dlgwind.obj(/mnt/sda5/.user/root/src/openwatcom-1.9/bld/wv/c/dlgwind.c)
0001:00041620  DlgWndSet_
Module: dbgwdata.obj(/mnt/sda5/.user/root/src/openwatcom-1.9/bld/wv/c/dbgwdata.c)
0002:00003d6c  _WndOpenTab
0002:00003de8  _WndNameTab
0002:0000796c  _WndMacroList
Module: dlgoptn.obj(/mnt/sda5/.user/root/src/openwatcom-1.9/bld/wv/c/dlgoptn.c)
0001:000419c0  DlgOptSet_
Module: dbgtool.obj(/mnt/sda5/.user/root/src/openwatcom-1.9/bld/wv/c/dbgtool.c)
0001:00041a00  InitToolBar_
0001:00041a40  FiniToolBar_
0001:00041a60  WndToolOpen_
0001:00041a90  WndToolClose_
Module: dbgfing.obj(/mnt/sda5/.user/root/src/openwatcom-1.9/bld/wv/c/dbgfing.c)
0001:00041ab0  FingClose_
0001:00041c30  FingOpen_
Module: /mnt/sda5/.user/root/src/openwatcom-1.9/bld/aui/os2386.pm/aui.lib(/mnt/sda5/.user/root/src/openwatcom-1.9/bld/aui/c/wndcreat.c)
0001:00041d70* WndSetTitleSize_
0001:00041d80  WndSetTitle_
0001:00041d90  WndGetTitle_
0001:00041fe0  WndCreateWithStruct_
0001:00042010  WndCreateWithStructAndMenuRes_
0001:00042040  WndInitCreateStruct_
0001:00042080* WndCreate_
0001:000420b0  WndDestroy_
0001:00042130  WndClose_
0001:00042150  WndSetMainMenuText_
0001:00042180  WndSetIcon_
0002:00003fb0  _WndMainMenuPtr
0002:00007984  _WndPopupMenuPtr
Module: /mnt/sda5/.user/root/src/openwatcom-1.9/bld/aui/os2386.pm/aui.lib(/mnt/sda5/.user/root/src/openwatcom-1.9/bld/aui/c/guimain.c)
0002:00007988  _WndScale
0002:00007990  _WndMax
0002:00007998  _WndScreen
0002:000079a0+ _WndClickHook
0002:000079a8  _WndMain
0002:000079ac* _WndSwitches
0002:00003fb4  _WndMaxDirtyRects
0002:00003fb8+ _WndDClick
0002:00003fbc  _WndIgnoreAllEvents
0001:00042190  WndGetDClick_
0001:000421a0  WndSetDClick_
0001:00042220* WndInitWithMenuRes_
0001:000422e0  WndInit_
0001:000422f0  WndShowWndMain_
0001:00042300  WndFini_
0001:00042330* WndInitNumRows_
0001:000424a0  WndInstallClickHook_
0001:00042ce0  WndArrowCursor_
0001:00042d10* WndSetCursor_
0001:00042d40  WndHourGlass_
0001:00042d50* WndHourCursor_
0001:00042d90  WndMainEventProc_
Module: /mnt/sda5/.user/root/src/openwatcom-1.9/bld/gui/win/os2386/gui.lib(/mnt/sda5/.user/root/src/openwatcom-1.9/bld/gui/win/c/guigsysh.c)
0001:00042dc0  GUIGetSysHandle_
0001:00042dd0* GUIGetHInst_
0001:00042df0  GUIGetHAB_
Module: /mnt/sda5/.user/root/src/openwatcom-1.9/bld/gui/win/os2386/gui.lib(/mnt/sda5/.user/root/src/openwatcom-1.9/bld/gui/win/c/guixwind.c)
0002:000079b4  _GUIMainHInst
0002:000079bc  _GUIClass
0002:000079fc  _GUIPMmq
0002:00003fc8  _EditControlHasFocus
0002:00003fd4  _GUICurrWnd
0002:00003fd8+ _GUIDialogClass
0002:00004018  _GUIDefaultClassName
0001:00042e00  GUIXSetupWnd_
0001:00042e50* GUIWantPartialRows_
0001:00042e70* GUISetCheckResizeAreaForChildren_
0001:00042e80  GUIDestroyWnd_
0001:00042fa0* GUICleanup_
0001:00042fd0  GUIXMain_
0001:00043110  GUIShowWindow_
0001:00043140  GUIShowWindowNA_
0001:00043180  GUIWndInit_
0001:000432e0  GUIXCreateWindow_
0001:000435d0  SendPointEvent_
0001:00043650  GUIResizeBackground_
0001:000437a0* SetFocusToParent_
0001:00043820  GUIDoResize_
0001:00043950+ GUIWindowProc
0001:000441b0+ GUIFrameProc
0001:00044230* GUISetF10Menus_
0001:00044330* GUIIsFirstInstance_
Module: /mnt/sda5/.user/root/src/openwatcom-1.9/bld/aui/os2386.pm/aui.lib(/mnt/sda5/.user/root/src/openwatcom-1.9/bld/aui/c/wndmem.c)
0001:00044340  WndMustAlloc_
0001:00044360  WndMustRealloc_
Module: /mnt/sda5/.user/root/src/openwatcom-1.9/rel2/lib386/math387r.lib(ldcvt.c)
0001:0004445a  _LDScale10x_
0001:00044a01  __LDcvt_
Module: /mnt/sda5/.user/root/src/openwatcom-1.9/rel2/lib386/math387r.lib(fchop87)
0001:00044e50  __CHP
Module: /mnt/sda5/.user/root/src/openwatcom-1.9/rel2/lib386/os2/emu387.lib(386)
0001:00044e68  __init_387_emulator
0001:00044e69* __fini_387_emulator
Module: /mnt/sda5/.user/root/src/openwatcom-1.9/rel2/lib386/math387r.lib(gcvt.c)
0001:00044e6a  gcvt_
Module: /mnt/sda5/.user/root/src/openwatcom-1.9/rel2/lib386/math387r.lib(strtod.c)
0001:0004547c+ __Strtold_
0001:000455e3  strtod_
Module: /mnt/sda5/.user/root/src/openwatcom-1.9/bld/aui/os2386.pm/aui.lib(/mnt/sda5/.user/root/src/openwatcom-1.9/bld/aui/c/wndstat.c)
0001:00045730  WndCreateStatusWindow_
0001:00045760  WndHaveStatusWindow_
0001:00045780  WndCloseStatusWindow_
0001:000457c0  WndStatusText_
0001:00045810  GUIClearStatusText_
0001:00045830  WndResetStatusText_
0001:00045840  WndInternalStatusText_
0002:00007a08+ _WndStatusString
Module: /mnt/sda5/.user/root/src/openwatcom-1.9/bld/aui/os2386.pm/aui.lib(/mnt/sda5/.user/root/src/openwatcom-1.9/bld/aui/c/wndhist.c)
0001:00045890  WndInitHistory_
0001:000458d0  WndFiniHistory_
0001:00045980  WndSaveToHistory_
0001:00045a40  WndPrevFromHistory_
0001:00045b20  WndNextFromHistory_
Module: /mnt/sda5/.user/root/src/openwatcom-1.9/bld/aui/os2386.pm/aui.lib(/mnt/sda5/.user/root/src/openwatcom-1.9/bld/aui/c/wnddirt.c)
0001:00045d20  WndDirtyScreenRange_
0001:00045d40  WndDirtyScreenChar_
0001:00045d60  WndDirtyScreenPiece_
0001:00045d80  WndAdjustDirt_
0001:00045db0  WndDirtyScreenRow_
0001:00045dd0* WndDirtyRect_
0001:00045e10  WndRowDirty_
0001:00045e50  WndRowDirtyImmed_
0001:00045e90  WndPieceDirty_
0001:00045ed0  WndStopRefresh_
0001:00045ee0+ WndPaintDirt_
0001:00046250  WndFreshAll_
0002:000040d4  _WndDoingRefresh
Module: /mnt/sda5/.user/root/src/openwatcom-1.9/bld/aui/os2386.pm/aui.lib(/mnt/sda5/.user/root/src/openwatcom-1.9/bld/aui/c/wndshrnk.c)
0001:000462c0  WndShrinkToMouse_
0001:00046450  WndMinimizeWindow_
0001:00046460  WndMaximizeWindow_
0001:00046470  WndIsMinimized_
0001:000464b0  WndIsMaximized_
0001:000464c0  WndRestoreWindow_
0001:000464d0  WndGetRect_
0001:000464e0  WndShowWindow_
0001:000464f0  WndResizeWindow_
0001:00046500  WndShowAll_
Module: /mnt/sda5/.user/root/src/openwatcom-1.9/bld/gui/win/os2386/gui.lib(/mnt/sda5/.user/root/src/openwatcom-1.9/bld/gui/c/guiisgui.c)
0001:00046580  GUIIsGUI_
Module: /mnt/sda5/.user/root/src/openwatcom-1.9/bld/gui/win/os2386/gui.lib(/mnt/sda5/.user/root/src/openwatcom-1.9/bld/gui/win/c/guismetr.c)
0001:00046590  GUIGetSystemMetrics_
Module: /mnt/sda5/.user/root/src/openwatcom-1.9/bld/aui/os2386.pm/aui.lib(/mnt/sda5/.user/root/src/openwatcom-1.9/bld/aui/c/wndmsg.c)
0001:00046710  WndDisplayMessage_
Module: /mnt/sda5/.user/root/src/openwatcom-1.9/bld/aui/os2386.pm/aui.lib(/mnt/sda5/.user/root/src/openwatcom-1.9/bld/aui/c/wndldstr.c)
0001:00046740  WndLoadString_
Module: /mnt/sda5/.user/root/src/openwatcom-1.9/bld/gui/win/os2386/gui.lib(/mnt/sda5/.user/root/src/openwatcom-1.9/bld/gui/win/c/guiclen.c)
0002:00007a5c+ ___CharLenTable
0001:00046820  GUICharLen_
0001:00046850  GUIIsDBCS_
Module: /mnt/sda5/.user/root/src/openwatcom-1.9/bld/aui/os2386.pm/aui.lib(/mnt/sda5/.user/root/src/openwatcom-1.9/bld/aui/c/wndutil.c)
0001:00046880  WndCharCol_
0001:000468b0  WndLastCharCol_
0001:000468d0  WndPrevCharCol_
0001:000468e0* WndPrevChar_
0001:000468f0  WndCurrToGUIPoint_
0001:00046910  WndCoordToGUIPoint_
0001:00046980  WndPieceIsTab_
0001:000469b0* WndPieceIsHot_
0001:000469e0  WndFindActive_
0001:00046a10  WndValid_
0001:00046a40  WndDirty_
0001:00046a50  WndZapped_
0001:00046a70  WndExtentX_
0001:00046a90  WndFindClass_
0001:00046ab0  WndSetWndMax_
0001:00046b00  WndNext_
0001:00046b30  WndForAllClass_
Module: /mnt/sda5/.user/root/src/openwatcom-1.9/bld/aui/os2386.pm/aui.lib(/mnt/sda5/.user/root/src/openwatcom-1.9/bld/aui/c/wndfront.c)
0001:00046b70  WndToFront_
0001:00046b80  WndRestoreToFront_
0001:00046bb0  WndNextNonIconToFront_
0001:00046bd0  WndChooseNew_
Module: /mnt/sda5/.user/root/src/openwatcom-1.9/bld/aui/os2386.pm/aui.lib(/mnt/sda5/.user/root/src/openwatcom-1.9/bld/aui/c/dlgsrch.c)
0001:00046cb0+ RXEvent_
0001:00046d00  DlgClickHistory_
0001:00046d30  DlgSetHistory_
0001:00046e30  DlgHistoryKey_
0001:00046f80+ SrchEvent_
0001:00047120  DlgSearch_
0001:00047130  DlgSearchAll_
0002:000040d8  _SrchIgnoreCase
0002:000040d9  _SrchMagicChars
0002:000040ed  _SrchRX
0002:000040ee  _SrchIgnoreMagic
Module: /mnt/sda5/.user/root/src/openwatcom-1.9/bld/aui/os2386.pm/aui.lib(/mnt/sda5/.user/root/src/openwatcom-1.9/bld/aui/c/wndcurr.c)
0001:00047160  WndSetPoint_
0001:00047400  WndGetCurrent_
0001:00047430  WndNewCurrent_
0001:00047460  WndMoveCurrent_
0001:000474c0  WndHasCurrent_
0001:000474d0  WndNoCurrent_
0001:000474f0* WndCurrRow_
0001:00047520  WndNextCurrent_
0001:00047600  WndPrevCurrent_
0001:00047720  WndFirstCurrent_
0001:00047740  WndLastCurrent_
0001:00047780  WndCheckCurrentValid_
0001:00047820  WndCurrVisible_
0001:000478d0  WndDirtyCurr_
0001:00047920  WndDirtyCurrChar_
0001:00047950  WndSetCurrCol_
Module: /mnt/sda5/.user/root/src/openwatcom-1.9/bld/aui/os2386.pm/aui.lib(/mnt/sda5/.user/root/src/openwatcom-1.9/bld/aui/c/wndpaint.c)
0001:00047d60+ WndPaintRows_
0001:00047ec0  WndProcPaint_
0001:00047ee0  WndForcePaint_
Module: /mnt/sda5/.user/root/src/openwatcom-1.9/bld/aui/os2386.pm/aui.lib(/mnt/sda5/.user/root/src/openwatcom-1.9/bld/aui/c/wndcrsr.c)
0001:00047f10+ WndAtTop_
0001:000480b0  WndScrollUp_
0001:00048100  WndScrollDown_
0001:00048150  WndCursorUp_
0001:00048170  WndCursorDown_
0001:000481b0  WndPageUp_
0001:000481d0  WndPageDown_
0001:000481f0  WndTabLeft_
0001:00048250  WndCursorLeft_
0001:000482f0  WndTabRight_
0001:00048350  WndCursorRight_
0001:000483e0  WndScrollTop_
0001:00048400  WndScrollBottom_
0001:00048420  WndCursorStart_
0001:00048430  WndCursorEnd_
Module: /mnt/sda5/.user/root/src/openwatcom-1.9/bld/aui/os2386.pm/aui.lib(/mnt/sda5/.user/root/src/openwatcom-1.9/bld/aui/c/wndfont.c)
0001:00048440  WndSetFontInfo_
0001:00048470  WndSetSysFont_
0001:00048490  WndGetFontInfo_
Module: /mnt/sda5/.user/root/src/openwatcom-1.9/bld/gui/win/os2386/gui.lib(/mnt/sda5/.user/root/src/openwatcom-1.9/bld/gui/c/guimem.c)
0001:000484b0* GUIMemPrintLine_
0001:000484b0* GUIMemPrtUsage_
0001:000484b0  GUIMemClose_
0001:000484b0  GUIMemOpen_
0001:000484b0* GUIMemRedirect_
0001:000484c0  GUIMemAlloc_
0001:000484d0  GUIMemFree_
0001:000484e0  GUIMemRealloc_
Module: /mnt/sda5/.user/root/src/openwatcom-1.9/bld/aui/os2386.pm/aui.lib(/mnt/sda5/.user/root/src/openwatcom-1.9/bld/aui/c/wndrect.c)
0001:00048600  WndPosToRect_
0001:00048640  WndRectToPos_
Module: /mnt/sda5/.user/root/src/openwatcom-1.9/bld/gui/win/os2386/gui.lib(/mnt/sda5/.user/root/src/openwatcom-1.9/bld/gui/win/c/guifont.c)
0001:00048670  GUISetSystemFont_
0001:00048670  GUIFontsSupported_
0001:00048670  GUISetFontInfo_
0001:00048670  GUIChangeFont_
0001:00048670* GUIChooseFont_
0001:00048680  GUIGetFontFromUser_
0001:00048680  GUIGetFontInfo_
Module: /mnt/sda5/.user/root/src/openwatcom-1.9/bld/gui/win/os2386/gui.lib(/mnt/sda5/.user/root/src/openwatcom-1.9/bld/gui/c/guimin.c)
0001:00048690  GUIGetMinSize_
Module: /mnt/sda5/.user/root/src/openwatcom-1.9/bld/aui/os2386.pm/aui.lib(/mnt/sda5/.user/root/src/openwatcom-1.9/bld/aui/c/wndtool.c)
0001:000486b0* WndCreateToolBar_
0001:00048720  WndCreateToolBarWithTips_
0001:00048790  WndHaveToolBar_
0001:000487a0  WndCloseToolBar_
0001:000487c0  WndToolHeight_
0001:000487d0  WndToolFixed_
0001:000487e0  WndSetToolBar_
0002:00007b60+ _ToolHeight
Module: /mnt/sda5/.user/root/src/openwatcom-1.9/bld/gui/win/os2386/gui.lib(/mnt/sda5/.user/root/src/openwatcom-1.9/bld/gui/win/c/guistub.c)
0001:00048800  GUISetBetweenTitles_
0001:00048810  GUISetBackgroundChar_
0001:00048810* GUISetCursorType_
0001:00048810* GUIGetCursorType_
0001:00048810* GUISetCursorPos_
0001:00048810* GUIGetCursorPos_
0001:00048820* GUISetCharacter_
0001:00048820  GUIGetDialogColours_
0001:00048820  GUISetDialogColours_
0001:00048820  GUISetBackgroundColour_
0001:00048820  GUIGMouseOff_
0001:00048820  GUIGMouseOn_
0001:00048830  GUIGetCharacter_
Module: /mnt/sda5/.user/root/src/openwatcom-1.9/bld/aui/os2386.pm/aui.lib(/mnt/sda5/.user/root/src/openwatcom-1.9/bld/aui/c/wndcolor.c)
0001:00048840  WndSetColours_
0001:00048890* WndBackGround_
Module: /mnt/sda5/.user/root/src/openwatcom-1.9/bld/aui/os2386.pm/aui.lib(/mnt/sda5/.user/root/src/openwatcom-1.9/bld/aui/c/dlgpick.c)
0001:00048910  DlgPickWithRtn2_
0001:00048940+ DoDlgPick_
0001:00048950  DlgPickWithRtn_
0001:00048970+ DlgPickText_
0001:00048980* DlgPick_
Module: /mnt/sda5/.user/root/src/openwatcom-1.9/bld/gui/win/os2386/gui.lib(/mnt/sda5/.user/root/src/openwatcom-1.9/bld/gui/c/guipick.c)
0001:00048990  GUIPickEvent_
0001:00048a30  GUIDlgPickWithRtn_
0001:00048ab0  GUIDlgPick_
Module: /mnt/sda5/.user/root/src/openwatcom-1.9/bld/aui/os2386.pm/aui.lib(/mnt/sda5/.user/root/src/openwatcom-1.9/bld/aui/c/wnddlg.c)
0001:00048b40  DlgGetParent_
0001:00048b70  DlgOpen_
0001:00048bb0  ResDlgOpen_
Module: /mnt/sda5/.user/root/src/openwatcom-1.9/bld/gui/win/os2386/gui.lib(/mnt/sda5/.user/root/src/openwatcom-1.9/bld/gui/c/guindlg.c)
0001:00048bf0  GUIDlgBuffGetText_
0001:00048f80* GUISetModalDlgs_
0001:00048f90  GUIDlgOpen_
0001:00048fc0  GUIModalDlgOpen_
0001:00048ff0* GUISysModalDlgOpen_
Module: /mnt/sda5/.user/root/src/openwatcom-1.9/bld/gui/win/os2386/gui.lib(/mnt/sda5/.user/root/src/openwatcom-1.9/bld/gui/win/c/guifocus.c)
0001:00049020  GUISetFocus_
0001:000490a0  GUIGetFocus_
Module: /mnt/sda5/.user/root/src/openwatcom-1.9/bld/gui/win/os2386/gui.lib(/mnt/sda5/.user/root/src/openwatcom-1.9/bld/gui/win/c/guixtext.c)
0001:00049120+ GUIControlSetRedraw_
0001:00049140  GUIAddText_
0001:00049190  GUIAddTextList_
0001:000491f0* GUIInsertText_
0001:00049200* GUISetHorizontalExtent_
0001:00049220* GUISetTopIndex_
0001:00049240* GUIGetTopIndex_
0001:00049260  GUIGetListSize_
0001:00049280  GUIDeleteItem_
0001:000492c0  GUIClearList_
0001:000492e0  GUISetText_
0001:00049340  GUIGetText_
0001:000493f0  GUIGetCurrSelect_
0001:00049420  GUISetCurrSelect_
0001:00049440  GUIGetListItem_
0001:000494b0* GUISetListItemData_
0001:000494d0* GUIGetListItemData_
Module: /mnt/sda5/.user/root/src/openwatcom-1.9/bld/aui/os2386.pm/aui.lib(/mnt/sda5/.user/root/src/openwatcom-1.9/bld/aui/c/wndsrch.c)
0001:000494f0  WndSetSrchItem_
0001:00049540  WndCompileRX_
0001:00049570  WndFreeRX_
0001:00049580  WndSetMagicStr_
0001:000495e0  WndRXFind_
0001:00049660  WndSearch_
0002:00004228  _WndDoingSearch
Module: /mnt/sda5/.user/root/src/openwatcom-1.9/bld/aui/os2386.pm/aui.lib(/mnt/sda5/.user/root/src/openwatcom-1.9/bld/aui/c/wndpop.c)
0001:00049bf0+ CalcMaxId_
0001:00049c40  NullPopupMenu_
0001:00049cd0  WndAddPopupMenu_
0001:00049dd0  WndNullPopItem_
0001:00049ee0+ WndSelPopPiece_
0001:0004a120  WndSelPopItem_
0001:0004a160+ WndKeyPopItem_
0001:0004a1c0* WndPopUp_
0001:0004a240  WndChangeMenuAll_
0001:0004a2c0  WndMenuEnableAll_
0001:0004a2e0  WndMenuGrayAll_
0001:0004a310* WndMenuIgnoreAll_
0001:0004a340* WndMenuRespectAll_
0001:0004a360+ DoMenuBitOn_
0001:0004a3f0  WndMenuCheck_
0001:0004a400  WndMenuEnable_
0001:0004a420  WndMenuIgnore_
0001:0004a430  WndCreateFloatingPopup_
0001:0004a480  WndInvokePopUp_
0001:0004a5b0  WndKeyPopUp_
0001:0004a5e0  WndRowPopUp_
0001:0004a620* WndSetMainMenu_
0001:0004a650  WndClick_
0001:0004a720  WndSetPopup_
0001:0004a7b0  WndEnableMainMenu_
0001:0004a810  WndCheckMainMenu_
Module: /mnt/sda5/.user/root/src/openwatcom-1.9/bld/gui/win/os2386/gui.lib(/mnt/sda5/.user/root/src/openwatcom-1.9/bld/gui/win/c/guispawn.c)
0001:0004a860  GUISpawnEnd_
0001:0004a860  GUISpawnStart_
Module: /mnt/sda5/.user/root/src/openwatcom-1.9/bld/aui/os2386.pm/aui.lib(/mnt/sda5/.user/root/src/openwatcom-1.9/bld/aui/c/wndgadgt.c)
0001:0004a870  WndGetGadgetSize_
0001:0004a880  WndSetGadgetLine_
0001:0004a8c0  WndGadgetInit_
Module: /mnt/sda5/.user/root/src/openwatcom-1.9/bld/gui/win/os2386/gui.lib(/mnt/sda5/.user/root/src/openwatcom-1.9/bld/gui/c/guihot.c)
0001:0004a900  GUIInitHotSpots_
0001:0004a960* GUIGetNumHotSpots_
0001:0004a970  GUIGetHotSpotSize_
0002:00007b9c  _GUINumHotSpots
Module: /mnt/sda5/.user/root/src/openwatcom-1.9/bld/gui/win/os2386/gui.lib(/mnt/sda5/.user/root/src/openwatcom-1.9/bld/gui/win/c/guiflush.c)
0001:0004a9b0  GUIFlushKeys_
Module: /mnt/sda5/.user/root/src/openwatcom-1.9/bld/aui/os2386.pm/aui.lib(/mnt/sda5/.user/root/src/openwatcom-1.9/bld/aui/c/wndmeth.c)
0001:0004aa00  NoScroll_
0001:0004aa00  WndNoOpen_
0001:0004aa10+ NoGetLine_
0001:0004aa20  NoEndPaint_
0001:0004aa20  NoBegPaint_
0001:0004aa20  NoNotify_
0001:0004aa20  NoModify_
0001:0004aa30  NoRefresh_
0001:0004aa40  NoMenuItem_
0001:0004aa50  NoNumRows_
0001:0004aa60  NoNextRow_
0001:0004aa70  NoEventProc_
0001:0004aa90  WndMenuItem_
0001:0004aab0  WndFiniCacheLines_
0001:0004aae0  WndKillCacheEntries_
0001:0004ab40  WndKillCacheLines_
0001:0004acf0  WndSetCache_
0001:0004ad40  WndGetLineAbs_
0001:0004ad50  WndGetLine_
0001:0004ae60  WndFirstMenuItem_
0001:0004ae80* WndNoRow_
0001:0004ae90  WndModify_
0001:0004aeb0  WndNotify_
0001:0004aed0  WndBegPaint_
0001:0004aef0  WndEndPaint_
0001:0004af10  WndRefresh_
0001:0004af30  WndEvent_
0001:0004af40  WndNumRows_
0001:0004af50  WndNextRow_
0002:00004230  _NoInfo
0002:00007ba0+ _CacheLine
0002:00008cd0+ _CacheCurr
Module: /mnt/sda5/.user/root/src/openwatcom-1.9/bld/gui/win/os2386/gui.lib(/mnt/sda5/.user/root/src/openwatcom-1.9/bld/gui/c/guiextra.c)
0001:0004af60  GUISetExtra_
0001:0004af70  GUIGetExtra_
Module: /mnt/sda5/.user/root/src/openwatcom-1.9/bld/gui/win/os2386/gui.lib(/mnt/sda5/.user/root/src/openwatcom-1.9/bld/gui/win/c/guixdlg.c)
0001:0004af90* GUISetJapanese_
0001:0004afa0  GUIInitControl_
0001:0004b0a0  GUIProcessControlNotification_
0001:0004b260  GUIProcessControlMsg_
0001:0004b290  GUIDialogFunc
0001:0004b7c0+ GUIDlgCalcLocation_
0001:0004b7f0  GUIXCreateDialog_
0001:0004ba70  GUICloseDialog_
0001:0004ba90+ GUIInitDialogFunc
0001:0004bb30  GUIFiniDialog_
0001:0004bb50  GUIInitDialog_
0001:0004bc30  GUIGetDlgTextMetrics_
Module: /mnt/sda5/.user/root/src/openwatcom-1.9/bld/gui/win/os2386/gui.lib(/mnt/sda5/.user/root/src/openwatcom-1.9/bld/gui/win/c/guiclear.c)
0001:0004bc50  GUIClearText_
0001:0004bc80  GUIEnableControl_
0001:0004bcb0* GUIIsControlEnabled_
Module: /mnt/sda5/.user/root/src/openwatcom-1.9/bld/gui/win/os2386/gui.lib(/mnt/sda5/.user/root/src/openwatcom-1.9/bld/gui/win/c/guistext.c)
0001:0004bce0  GUISetWindowText_
0001:0004bd00  GUIGetWindowText_
0001:0004bd20* GUIGetWindowTextLength_
Module: /mnt/sda5/.user/root/src/openwatcom-1.9/bld/aui/os2386.pm/aui.lib(/mnt/sda5/.user/root/src/openwatcom-1.9/bld/aui/c/wndfdlg.c)
0001:0004bd40+ DlgGetFileName_
0001:0004bd70  DlgFileBrowse_
Module: /mnt/sda5/.user/root/src/openwatcom-1.9/bld/gui/win/os2386/gui.lib(/mnt/sda5/.user/root/src/openwatcom-1.9/bld/gui/win/c/guicontr.c)
0002:00004280  _GUIControls
0001:0004bea0  GUIInsertCtrlWnd_
0001:0004bed0  GUIGetCtrlWnd_
0001:0004bf50  GUIGetControlByID_
0001:0004bf70  GUIGetControlByHwnd_
0001:0004bf90  GUIControlInsert_
0001:0004bff0  GUIControlInsertByHWND_
0001:0004c090+ GUIControlDelete_
0001:0004c0f0  GUIControlDeleteAll_
0001:0004c120+ GUIEditFunc
0001:0004c240+ GUIGroupBoxFunc
0001:0004c2d0  GUIDoSubClass_
0001:0004c320  GUISetControlStyle_
0001:0004c490* GUIAddControl_
0001:0004c540* GUIEnumControls_
0001:0004c570  GUICheckRadioButton_
0001:0004c640* GUIDeleteControl_
0001:0004c680  GUILimitEditText_
0001:0004c710* GUIHideControl_
0001:0004c720* GUIShowControl_
0001:0004c730* GUIIsControlVisible_
Module: /mnt/sda5/.user/root/src/openwatcom-1.9/bld/aui/os2386.pm/aui.lib(/mnt/sda5/.user/root/src/openwatcom-1.9/bld/aui/c/dlgnew.c)
0001:0004c760  DlgNewEvent_
0001:0004c7e0  DlgNewWithCtl_
0001:0004c850  DlgNew_
Module: /mnt/sda5/.user/root/src/openwatcom-1.9/bld/gui/win/os2386/gui.lib(/mnt/sda5/.user/root/src/openwatcom-1.9/bld/gui/win/c/guicheck.c)
0001:0004c8b0  GUIIsChecked_
0001:0004c8d0  GUISetChecked_
Module: /mnt/sda5/.user/root/src/openwatcom-1.9/bld/gui/win/os2386/gui.lib(/mnt/sda5/.user/root/src/openwatcom-1.9/bld/gui/win/c/guihelp.c)
0001:0004c9c0+ DisplayContents_
0001:0004c9e0+ DisplayHelpOnHelp_
0001:0004ca00+ DisplayHelpSearch_
0001:0004ca20+ DisplayHelpKey_
0001:0004ca50+ DisplayHelpContext_
0001:0004ca70  GUIHelpInit_
0001:0004ca90  GUIHelpFini_
0001:0004cad0  GUIShowHelp_
0001:0004cb40  GUIShowHtmlHelp_
0001:0004cb50* GUIDisplayHelpId_
0001:0004cb50* GUIDisplayHelpWin4_
0001:0004cb50* GUIDisplayHelp_
Module: /mnt/sda5/.user/root/src/openwatcom-1.9/bld/aui/os2386.pm/aui.lib(/mnt/sda5/.user/root/src/openwatcom-1.9/bld/aui/c/wndsel.c)
0001:0004cb60  WndSelectEvent_
0001:0004cbe0  WndSelEnds_
0001:0004cc20  WndSelected_
0001:0004cd60  WndSelSetStart_
0001:0004cd90  WndSelGetEndPiece_
0001:0004cdd0* WndSelSetEnd_
0001:0004cdf0  WndSelPieceChange_
0001:0004ced0  WndSelChange_
0001:0004cef0  WndNoSelect_
0001:0004cf80* WndSelRow_
0001:0004cfb0  SetWndMenuRow_
0001:0004d000  WndToSelectMode_
0001:0004d040  WndEndSelectEvent_
0002:00008dbc  _WndMenuRow
0002:00008dc0  _WndMenuPiece
Module: /mnt/sda5/.user/root/src/openwatcom-1.9/bld/aui/os2386.pm/aui.lib(/mnt/sda5/.user/root/src/openwatcom-1.9/bld/aui/c/wndscrol.c)
0001:0004d050  WndFixedThumb_
0001:0004d080  WndSetThumbPercent_
0001:0004d090  WndSetThumbPos_
0001:0004d0a0  WndSetVScrollRange_
0001:0004d0b0  WndResetScroll_
0001:0004d0c0  WndVScrollWidth_
0001:0004d0e0* WndHasNumRows_
0001:0004d0f0  WndSetThumb_
0001:0004d260  WndScrollAbs_
0001:0004d270  WndScroll_
0001:0004d290  WndSetHScroll_
0001:0004d2e0+ WndCurrHScrollPos_
0001:0004d360  WndHScrollToCurr_
0001:0004d380  WndHScrollNotify_
Module: /mnt/sda5/.user/root/src/openwatcom-1.9/bld/aui/os2386.pm/aui.lib(/mnt/sda5/.user/root/src/openwatcom-1.9/bld/aui/c/wndchar.c)
0001:0004d3c0  WndSetIDChars_
0001:0004d3d0  WndIDChar_
0001:0004d420  WndKeyChar_
Module: /mnt/sda5/.user/root/src/openwatcom-1.9/bld/gui/win/os2386/gui.lib(/mnt/sda5/.user/root/src/openwatcom-1.9/bld/gui/c/guiwnclr.c)
0001:0004d430  GUISetColours_
0001:0004d450  GUIFreeColours_
0001:0004d470* GUIGetNumWindowColours_
0001:0004d480  GUIGetWindowColours_
Module: /mnt/sda5/.user/root/src/openwatcom-1.9/bld/gui/win/os2386/gui.lib(/mnt/sda5/.user/root/src/openwatcom-1.9/bld/gui/win/c/guicolor.c)
0001:0004d4b0* InitSystemRGB_
0001:0004d4c0* GUISetRGB_
0001:0004d540+ GUIGetRGB_
0001:0004d550* GUIGetRGBFromUser_
0001:0004d570+ GUIGetWndColour_
0001:0004d5a0+ SetBKBrush_
0001:0004d610* GUICheckBKBrush_
0001:0004d660* GUISetWndColour_
0001:0004d6a0  GUIXSetColours_
0001:0004d6f0  GUIXGetWindowColours_
0001:0004d720  GUIFreeBKBrush_
0001:0004d750  GUISetWindowColours_
0001:0004d770  GUIGetFore_
0001:0004d790  GUIGetBack_
0002:000043b0+ _GUIColours
Module: /mnt/sda5/.user/root/src/openwatcom-1.9/bld/gui/win/os2386/gui.lib(/mnt/sda5/.user/root/src/openwatcom-1.9/bld/gui/c/guicreat.c)
0001:0004d7b0  GUICreateWindow_
0002:00004400  _GUIMDI
Module: /mnt/sda5/.user/root/src/openwatcom-1.9/bld/gui/win/os2386/gui.lib(/mnt/sda5/.user/root/src/openwatcom-1.9/bld/gui/win/c/guimenus.c)
0001:0004d810  GUIInitGUIMenuHint_
0001:0004d980+ GetStateForMenu_
0001:0004d9f0* GUIIsMenuItemChecked_
0001:0004da10* GUIIsMenuItemEnabled_
0001:0004da30  GUISetMenu_
0001:0004dbb0  GUIDeleteFloatingPopups_
0001:0004dc00  GUIFreePopupList_
0001:0004dc30  GUISetGUIHint_
0001:0004dc50+ GUIGetHMENU_
0001:0004dcf0  GUIGetMenuPopupCount_
0001:0004dda0  GUIDeleteMenuItem_
0001:0004de40* CheckItem_
0001:0004de50* CheckPopup_
0001:0004de60  GUICheckMenuItem_
0001:0004def0* EnableItem_
0001:0004df00* EnablePopup_
0001:0004df10  GUIEnableSysMenuItem_
0001:0004df40  GUIEnableMenuItem_
0001:0004dfd0  GUISetMenuText_
0001:0004e060+ GUICreateMenuFlags_
0001:0004e090  GUICreateSubMenu_
0001:0004e1e0  GUICreateMenus_
0001:0004e230  GUIAddToSystemMenu_
0001:0004e480  GUIProcessMenuSelect_
0001:0004e4e0  GUIProcessInitMenuPopup_
0001:0004e690* GUIInsertMenu_
0001:0004e700* GUIInsertMenuByID_
0001:0004e7c0* GUIAppendMenu_
0001:0004e820* GUIAppendMenuByOffset_
0001:0004ea00  GUIInsertMenuToPopup_
0001:0004ea20  GUIAppendMenuToPopup_
0002:00004404  _GUIHint
0002:00004434  _GUIHFloatingPopup
Module: /mnt/sda5/.user/root/src/openwatcom-1.9/bld/gui/win/os2386/gui.lib(/mnt/sda5/.user/root/src/openwatcom-1.9/bld/gui/win/c/guisicon.c)
0001:0004ea30  GUISetIcon_
Module: /mnt/sda5/.user/root/src/openwatcom-1.9/bld/gui/win/os2386/gui.lib(/mnt/sda5/.user/root/src/openwatcom-1.9/bld/gui/win/c/guidbclk.c)
0001:0004eac0  GUISetDClickRate_
Module: /mnt/sda5/.user/root/src/openwatcom-1.9/bld/gui/win/os2386/gui.lib(/mnt/sda5/.user/root/src/openwatcom-1.9/bld/gui/c/guirscal.c)
0001:0004eae0  GUIGetRoundScale_
Module: /mnt/sda5/.user/root/src/openwatcom-1.9/bld/gui/win/os2386/gui.lib(/mnt/sda5/.user/root/src/openwatcom-1.9/bld/gui/c/guiscale.c)
0001:0004eb40  GUISetScale_
0001:0004eb70  GUIGetScale_
0001:0004eba0  GUISetScreen_
0001:0004ebc0  GUIGetScreen_
0001:0004ebf0+ GUIConvert_
0001:0004ec80  GUIConvertRect_
0001:0004ecc0+ GUIConvertPoint_
0001:0004ed00  GUIScaleToScreen_
0001:0004ed20  GUIScaleToScreenR_
0001:0004ed40  GUIScreenToScale_
0001:0004ed60  GUIScreenToScaleR_
0001:0004ed80  GUIScaleToScreenRPt_
0001:0004eda0  GUIScreenToScaleRPt_
Module: /mnt/sda5/.user/root/src/openwatcom-1.9/bld/aui/os2386.pm/aui.lib(/mnt/sda5/.user/root/src/openwatcom-1.9/bld/aui/c/wndstyle.c)
0002:00004438  _WndStyle
Module: /mnt/sda5/.user/root/src/openwatcom-1.9/bld/gui/win/os2386/gui.lib(/mnt/sda5/.user/root/src/openwatcom-1.9/bld/gui/c/guiimmdi.c)
0001:0004edc0  GUIMDIInitMenuOnly_
Module: /mnt/sda5/.user/root/src/openwatcom-1.9/bld/gui/win/os2386/gui.lib(/mnt/sda5/.user/root/src/openwatcom-1.9/bld/gui/win/c/gui3ddlg.c)
0001:0004ee10  GUI3DDialogInit_
Module: /mnt/sda5/.user/root/src/openwatcom-1.9/bld/aui/os2386.pm/aui.lib(/mnt/sda5/.user/root/src/openwatcom-1.9/bld/aui/c/wndbgch.c)
0002:0000443c  _WndBackgroundChar
Module: /mnt/sda5/.user/root/src/openwatcom-1.9/bld/gui/win/os2386/gui.lib(/mnt/sda5/.user/root/src/openwatcom-1.9/bld/gui/win/c/guigetnr.c)
0001:0004ee20  GUIGetNumRows_
Module: /mnt/sda5/.user/root/src/openwatcom-1.9/bld/gui/win/os2386/gui.lib(/mnt/sda5/.user/root/src/openwatcom-1.9/bld/gui/win/c/guitextm.c)
0001:0004ee30  GUISetMetrics_
0001:0004ee70  GUIGetTextMetrics_
Module: /mnt/sda5/.user/root/src/openwatcom-1.9/bld/gui/win/os2386/gui.lib(/mnt/sda5/.user/root/src/openwatcom-1.9/bld/gui/win/c/guicrect.c)
0001:0004ee90  GUIGetClientRect_
0001:0004ef40* GUIGetPaintRect_
Module: /mnt/sda5/.user/root/src/openwatcom-1.9/bld/gui/win/os2386/gui.lib(/mnt/sda5/.user/root/src/openwatcom-1.9/bld/gui/win/c/guirange.c)
0001:0004f060* GUISetHScrollRangeCols_
0001:0004f080  GUISetVScrollRangeRows_
0001:0004f0a0  GUISetHScrollRange_
0001:0004f0d0* GUISetVScrollRange_
0001:0004f110* GUIGetHScrollRange_
0001:0004f130* GUIGetVScrollRange_
0001:0004f160* GUIGetVScrollRangeRows_
0001:0004f180* GUIGetHScrollRangeCols_
Module: /mnt/sda5/.user/root/src/openwatcom-1.9/bld/gui/win/os2386/gui.lib(/mnt/sda5/.user/root/src/openwatcom-1.9/bld/gui/win/c/guicursr.c)
0001:0004f1a0  GUISetMouseCursor_
0001:0004f1e0  GUIResetMouseCursor_
Module: /mnt/sda5/.user/root/src/openwatcom-1.9/bld/aui/os2386.pm/aui.lib(/mnt/sda5/.user/root/src/openwatcom-1.9/bld/aui/c/wndchoos.c)
0001:0004f1f0  WndChooseEvent_
0001:0004f250* WndDoneChoose_
0001:0004f260  WndKeyEscape_
0001:0004f280* WndStartChoose_
0001:0004f290  WndSayMatchMode_
0001:0004f3c0  WndKeyChoose_
0001:0004f5b0  WndKeyRubOut_
Module: /mnt/sda5/.user/root/src/openwatcom-1.9/bld/aui/os2386.pm/aui.lib(/mnt/sda5/.user/root/src/openwatcom-1.9/bld/aui/c/wndmouse.c)
0001:0004f650* WndGetMouseRow_
0001:0004f710  WndLButtonDown_
0001:0004f7f0  WndLButtonUp_
0001:0004f8c0  WndLDblClk_
0001:0004f940  WndRButtonDown_
0001:0004fa40  WndRButtonUp_
0001:0004fac0  WndMouseButtonIsDown_
0001:0004fae0  WndIgnoreMouseMove_
0001:0004fb00  WndMouseMove_
Module: /mnt/sda5/.user/root/src/openwatcom-1.9/bld/gui/win/os2386/gui.lib(/mnt/sda5/.user/root/src/openwatcom-1.9/bld/gui/win/c/guistat.c)
0001:0004fd40  GUICreateStatusWindow_
0001:0004fdd0  GUIDrawStatusText_
0001:0004fe50  GUIHasStatus_
0001:0004fe60  GUICloseStatusWindow_
0001:0004fea0  GUIResizeStatusWindow_
Module: /mnt/sda5/.user/root/src/openwatcom-1.9/bld/aui/os2386.pm/aui.lib(/mnt/sda5/.user/root/src/openwatcom-1.9/bld/aui/c/wndqryhk.c)
0001:0004ff30  WndQueryEndSessionHook_
Module: /mnt/sda5/.user/root/src/openwatcom-1.9/bld/aui/os2386.pm/aui.lib(/mnt/sda5/.user/root/src/openwatcom-1.9/bld/aui/c/wndendhk.c)
0001:0004ff40  WndEndSessionHook_
Module: /mnt/sda5/.user/root/src/openwatcom-1.9/bld/gui/win/os2386/gui.lib(/mnt/sda5/.user/root/src/openwatcom-1.9/bld/gui/win/c/guixutil.c)
0001:0004ffa0  GUIMaximizeZoomedChildren_
0001:0004ffc0  GUIIsOpen_
0001:0004fff0+ GUIIsParentADialog_
0001:00050010  GUIIsRectInUpdateRect_
0001:00050080  GUICalcLocation_
0001:00050120  GUISetupStruct_
0001:000501b0  GUIError_
0001:000501e0* GUIFindWindowFromHWND_
0001:00050210* GUIIsGUIChild_
0001:00050240  GUISetRedraw_
0001:00050260  GUIBringNewToFront_
0001:000502b0  GUIXGetRootWindow_
0001:000502d0+ GUIFindFirstChild_
0001:00050300+ GUIFindFirstPopupWithNoParent_
0001:00050360  GUIDestroyAllChildren_
0001:00050390  GUIDestroyAllPopupsWithNoParent_
0001:000503b0  GUIFreeWindowMemory_
0001:00050520  GUIScrollOn_
0001:00050540  GUISetRowCol_
0001:000505a0  GUIInvalidateResize_
0001:00050670  GUISendMessage_
0001:00050690  GUISendDlgItemMessage_
0001:000506c0  GUIMakeRelative_
0001:000507a0  GUIGetScrollHWND_
0001:000507c0  GUISetScrollPos_
0001:00050800  GUIGetScrollPos_
0001:00050820  GUISetScrollRange_
0001:000508a0  GUIGetScrollRange_
0001:000508c0* GUISetRangePos_
0001:00050910  GUIRedrawScroll_
0001:00050a20  GUIGetParentHWND_
0001:00050a40  GUIGetParentFrameHWND_
0001:00050a60  GUIGetTopParentHWND_
0001:00050a80  GUIGetTopGUIWindow_
0001:00050a90  GUIGetWindow_
0001:00050ab0  GUIGetParentWindow_
0001:00050ac0  GUIParentHasFlags_
0001:00050af0  GUIGetFirstSibling_
0001:00050b10  GUIGetSystemFont_
Module: /mnt/sda5/.user/root/src/openwatcom-1.9/bld/gui/win/os2386/gui.lib(/mnt/sda5/.user/root/src/openwatcom-1.9/bld/gui/win/c/guiclass.c)
0001:00050b50  GUIGetWindowClassName_
Module: /mnt/sda5/.user/root/src/openwatcom-1.9/bld/gui/win/os2386/gui.lib(/mnt/sda5/.user/root/src/openwatcom-1.9/bld/gui/c/guizlist.c)
0001:00050b90  GUIDeleteFromList_
0001:00050be0  GUIFrontOfList_
0001:00050c00  GUIGetFront_
0001:00050c10  GUIGetNextWindow_
0001:00050c30  GUIIsValidWindow_
Module: /mnt/sda5/.user/root/src/openwatcom-1.9/bld/gui/win/os2386/gui.lib(/mnt/sda5/.user/root/src/openwatcom-1.9/bld/wpi/c/wpi_os2.c)
0001:00050d8c  _wpi_menutext2win_
0001:00050da4* _wpi_getmenuitemid_
0001:00050ecc* GetWindowRect_
0001:00050ecc  _wpi_getwindowrect_
0001:00050ef0  GetClientRect_
0001:00050f6c  _wpi_showwindow_
0001:00050fbc  _wpi_bitblt_
0001:00051008  _wpi_createcompatiblebitmap_
0001:0005108c  _wpi_createcompatiblepres_
0001:000510f4  _wpi_createos2normpres_
0001:00051134  _wpi_deletecompatiblepres_
0001:00051150  _wpi_deleteos2normpres_
0001:00051170* _wpi_deletepres_
0001:0005118c  _wpi_dialogbox_
0001:000511d4* _wpi_drawfocusrect_
0001:00051264* _wpi_ellipse_
0001:000512ec  _wpi_fillrect_
0001:00051320  _wpi_getbitmapdim_
0001:00051354* _wpi_getclassinfo_
0001:000513a0* _wpi_getcurrenttask_
0001:000513c8* _wpi_getdlgitemint_
0001:00051428  _wpi_getpaintrect_
0001:00051444* _wpi_getpixel_
0001:00051460  _wpi_getpres_
0001:00051488* _wpi_hitrect_
0001:000514a8  _wpi_iszoomed_
0001:000514cc  _wpi_isiconic_
0001:000514f0* _wpi_patblt_
0001:0005156c* _wpi_polygon_
0001:000515a8* _wpi_preparemono_
0001:000515e4  _wpi_rectangle_
0001:00051640  _wpi_releasepres_
0001:0005165c  _wpi_selectbitmap_
0001:00051694  _wpi_getoldbitmap_
0001:000516bc  _wpi_deletebitmap_
0001:000516e4* _wpi_setmodhandle_
0001:00051708* _wpi_setpixel_
0001:00051790  _wpi_setpoint_
0001:00051798  _wpi_stretchblt_
0001:000517fc  _wpi_ptinrect_
0001:0005182c  _wpi_insertmenu_
0001:000518f0  _wpi_appendmenu_
0001:0005190c  _wpi_getmenustate_
0001:00051954  _wpi_getmenuflagsfromstate_
0001:00051964  _wpi_modifymenu_
0001:000519dc  _wpi_getsubmenu_
0001:00051a28  _wpi_getsystemmenu_
0001:00051a6c  _wpi_setmenu_
0001:00051afc  _wpi_deletemenu_
0001:00051b44  _wpi_checkmenuitem_
0001:00051b88  _wpi_enablemenuitem_
0001:00051bcc  _wpi_setmenutext_
0001:00051c14  _wpi_getmenutext_
0001:00051c70  _wpi_selectfont_
0001:00052150+ _wpi_getfontattrs_
0001:000521dc  _wpi_setscrollpos_
0001:00052204* _wpi_getscrollpos_
0001:00052228  _wpi_setscrollrange_
0001:0005227c* _wpi_getscrollrange_
0001:000522bc  _wpi_drawtext_
0001:000522e0  _wpi_getsystemfont_
0001:00052430  _wpi_drawmenubar_
0001:00052444  _wpi_getparent_
0001:0005248c  _wpi_setcursor_
0001:000524b0  _wpi_enddialog_
0001:000524c0* _wpi_createnullbrush_
0001:000524f0  _wpi_createpatternbrush_
0001:00052518  _wpi_createsolidbrush_
0001:00052550  _wpi_getoldbrush_
0001:00052580* _wpi_setlogbrushsolid_
0001:00052590* _wpi_setlogbrushnull_
0001:000525a0* _wpi_setlogbrushhollow_
0001:000525b0* _wpi_createbrush_
0001:0005261c  _wpi_selectbrush_
0001:000526ec  __wpi_selectobject_
0001:00052808  _wpi_deleteobject_
0001:00052834* _wpi_createnullpen_
0001:0005286c  _wpi_createpen_
0001:000528b4  _wpi_selectpen_
0001:00052914  _wpi_getoldpen_
0001:00052934* _wpi_enumfonts_
0001:000529d8  _wpi_enumchildwindows_
0001:00052a28* _wpi_checkradiobutton_
0001:00052a94  _wpi_menutext2pm_
0001:00052afc* _wpi_getbitmapbits_
0001:00052c3c* _wpi_setbitmapbits_
0001:00052d84  _wpi_movewindow_
0001:00052dac* _wpi_recttowpirect_
0001:00052dc8* _wpi_wpirecttorect_
0001:00052de4  _wpi_setrop2_
0001:00052e08  _wpi_loadbitmap_
0001:00052e5c* _wpi_createbitmap_
0001:00052f40* _wpi_createdibitmap_
0001:00052f7c* _wpi_setclipboarddata_
0001:00053024  _wpi_trackpopupmenu_
0001:00053298* _wpi_getclipboarddata_
0001:000532e4  _wpi_iswindow_
0001:00053330* _wpi_extfloodfill_
0001:0005336c* _wpi_getbitmapparms_
0001:000533e0  _wpi_getbitmapstruct_
0001:000533fc* _wpi_setqmsgvalues_
0001:00053428  _wpi_getqmsgvalues_
0001:000534a0* _wpi_setintrectvalues_
0001:000534a0  _wpi_setrectvalues_
0001:000534b4  _wpi_getrectvalues_
0001:00053500* _wpi_setintwrectvalues_
0001:00053500  _wpi_setwrectvalues_
0001:00053514  _wpi_getwrectvalues_
0001:00053560* _wpi_getintrectvalues_
0001:000535ac* _wpi_getintwrectvalues_
0001:000535f8* _wpi_equalrect_
0001:00053624* _wpi_suspendthread_
0001:00053630  _wpi_getdevicecaps_
0001:00053658+ _wpi_devicecapableinch_
0001:0005369c  _wpi_setmaxtracksize_
0001:000536a4  _wpi_setmintracksize_
0001:000536ac  _wpi_setwpiinst_
0001:000536b4* _wpi_getdlgitemshort_
0001:000536d0  _wpi_settextcolor_
0001:00053708  _wpi_setbackcolour_
0001:0005372c* _wpi_palettergb_
0001:00053758* _wpi_getdibits_
0001:00053870* _wpi_createwindow_
0001:000538e4* _wpi_createobjwindow_
0001:00053940* _wpi_selectcliprgn_
0001:00053958  _wpi_textout_
0001:0005397c* _wpi_exttextout_
0001:000539ac* _wpi_intersectcliprect_
0001:000539d4* _wpi_setviewportorg_
0001:00053a0c* _wpi_getbmphdrvalues_
0001:00053ad8* _wpi_setbmphdrvalues_
0001:00053b20* _wpi_bmptorgb_
0001:00053b54* _wpi_setimagemode_
0001:00053b74* _wpi_setimagebackmode_
0001:00053b94* _wpi_imagemode_
0001:00053bb0* _wpi_imagebackmode_
0001:00053bcc* _wpi_deletesysmenupos_
0001:00053c28  _wpi_gettextextent_
0001:00053d3c  _wpi_getrestoredrect_
0001:00053e00* _wpi_setrgbquadvalues_
0001:00053e14* _wpi_gettextface_
0001:00053e74* _wpi_cvth_rect_
0001:00053e88* _wpi_cvth_wanchor_
0001:00053e90  _wpi_cvtc_y_
0001:00053eb4  _wpi_cvtc_rect_
0001:00053ee4* _wpi_cvts_wanchor_
0001:00053efc* _wpi_getclipbox_
0001:00053f14* _wpi_dlg_command_
0001:00053f64* _wpi_getmetricpointsize_
0001:00053f90* _wpi_getmessagepos_
Module: /mnt/sda5/.user/root/src/openwatcom-1.9/bld/gui/win/os2386/gui.lib(/mnt/sda5/.user/root/src/openwatcom-1.9/bld/gui/c/guideath.c)
0001:00053fc0  GUIDeath_
Module: /mnt/sda5/.user/root/src/openwatcom-1.9/bld/gui/win/os2386/gui.lib(/mnt/sda5/.user/root/src/openwatcom-1.9/bld/gui/c/guihook.c)
0001:00053fd0  GUISetHotSpotCleanup_
0001:00053fe0  GUICleanupHotSpots_
0001:00054000* GUISetXChangeTitle_
0001:00054010  GUIXChangeTitle_
0001:00054030  GUISetXInitMDI_
0001:00054040  GUIXInitMDI_
0001:00054060  GUISetInitMDI_
0001:00054070  GUIInitMDI_
0001:00054090  GUIChangeMDITitle_
0001:000540b0  GUISetMDIChangeTitle_
0001:000540c0  GUISetMDIBroughtToFront_
0001:000540d0  GUIMDIBroughtToFront_
0001:000540f0  GUISetMDIDelete_
0001:00054100  GUIMDIDelete_
0001:00054120  GUISetMDIResetMenus_
0001:00054130  GUIMDIResetMenus_
0001:00054150  GUISetMDIDeleteMenuItem_
0001:00054160  GUIMDIDeleteMenuItem_
0001:00054180* GUISetEnableMDIActions_
0001:00054190  GUIEnableMDIActions_
0001:000541b0* GUISetAddMDIActions_
0001:000541c0  GUIAddMDIActions_
Module: /mnt/sda5/.user/root/src/openwatcom-1.9/bld/gui/win/os2386/gui.lib(/mnt/sda5/.user/root/src/openwatcom-1.9/bld/gui/win/c/guixhook.c)
0001:000541e0  GUISetMDIProcessMessage_
0001:000541f0  GUIMDIProcessMessage_
0001:00054220  GUIMDIMaximized_
0001:00054240* GUISetMDIMaximized_
0001:00054250  GUIMDIUpdatedMenu_
0001:00054270* GUISetMDIUpdatedMenu_
0001:00054280* GUISetIsMDIChildWindow_
0001:00054290  GUIIsMDIChildWindow_
0001:000542b0  GUIResizeStatus_
0001:000542d0  GUISetResizeStatus_
0001:000542e0  GUIFreeStatus_
0001:00054300  GUISetFreeStatus_
0001:00054310* GUISetMDINewWindow_
0001:00054320  GUIMDINewWindow_
0001:00054330* GUICtl3dCtlColorEx_
0001:00054330  GUICtl3dColorChange_
0001:00054330  GUICtl3dSubclassCtl_
0001:00054340* GUISetMDIMaximize_
0001:00054350  GUIMDIMaximize_
0001:00054370* GUISetSetMDIRestoredSize_
0001:00054380  GUISetMDIRestoredSize_
Module: /mnt/sda5/.user/root/src/openwatcom-1.9/bld/gui/win/os2386/gui.lib(/mnt/sda5/.user/root/src/openwatcom-1.9/bld/gui/c/guistr.c)
0001:000543f0  GUIInitInternalStringTable_
0001:00054810  GUIFiniInternalStringTable_
Module: /mnt/sda5/.user/root/src/openwatcom-1.9/bld/gui/win/os2386/gui.lib(/mnt/sda5/.user/root/src/openwatcom-1.9/bld/gui/win/c/guildstr.c)
0001:00054ad0  GUIIsLoadStrInitialized_
0001:00054ae0  GUILoadStrInit_
0001:00054b10  GUILoadStrFini_
0001:00054b30  GUILoadString_
Module: /mnt/sda5/.user/root/src/openwatcom-1.9/bld/gui/win/os2386/gui.lib(/mnt/sda5/.user/root/src/openwatcom-1.9/bld/gui/win/c/guixmain.c)
0001:00054b70  main_
0002:000044b8  _GUIMainTouched
Module: /mnt/sda5/.user/root/src/openwatcom-1.9/bld/gui/win/os2386/gui.lib(/mnt/sda5/.user/root/src/openwatcom-1.9/bld/gui/win/c/guirdlg.c)
0001:00054ba0  GUIGetControlClassFromHWND_
0001:00054c50  GUIGetControlStylesFromHWND_
0001:00054d00+ InsertResDlgCntlFunc
0001:00054d20  GUIInsertResDialogControls_
0001:00054d40  GUIDoCreateResDialog_
0001:00054d80* GUICreateDialogFromRes_
0002:00008ed8  _GUIResHInst
Module: /mnt/sda5/.user/root/src/openwatcom-1.9/bld/gui/win/os2386/gui.lib(/mnt/sda5/.user/root/src/openwatcom-1.9/bld/gui/c/guiutil.c)
0001:00054d90* GUIStripTrailingBlanks_
0001:00054e10  GUIStrDup_
0001:00054e90  GUIStoreArgs_
0001:00054eb0* GUIGetArgs_
0001:00054ee0* GUIIsRootWindow_
0001:00054f00  GUIGetRootWindow_
Module: /mnt/sda5/.user/root/src/openwatcom-1.9/bld/gui/win/os2386/gui.lib(/mnt/sda5/.user/root/src/openwatcom-1.9/bld/gui/c/guifcrck.c)
0001:00054f10  GUIFirstCrack_
Module: /mnt/sda5/.user/root/src/openwatcom-1.9/bld/gui/win/os2386/gui.lib(/mnt/sda5/.user/root/src/openwatcom-1.9/bld/gui/win/c/guiwinlp.c)
0001:00054f20  GUIWinMessageLoop_
Module: /mnt/sda5/.user/root/src/openwatcom-1.9/bld/gui/win/os2386/gui.lib(/mnt/sda5/.user/root/src/openwatcom-1.9/bld/gui/c/guidead.c)
0001:00054f90  GUIDead_
Module: /mnt/sda5/.user/root/src/openwatcom-1.9/bld/gui/win/os2386/gui.lib(/mnt/sda5/.user/root/src/openwatcom-1.9/bld/gui/c/guisdef.c)
0002:00008ee0  ___LITApplIcon
0002:00008ee4  ___LITEmpty
0002:00008ee8  ___LITBrightGreen
0002:00008eec  ___LITOS2_Dialog_Font
0002:00008ef0  ___LITBrightCyan
0002:00008ef4  ___LITBrightBlue
0002:00008ef8  ___LITBrightRed
0002:00008efc  ___LITBlank
0002:00008f00  ___LITBrightYellow
0002:00008f04  ___LITTable_of_Contents
0002:00008f08  ___LITInternal_Last_Message
0002:00008f0c  ___LITBrightWhite
0002:00008f10  ___LITBrightMagenta
0002:00008f14  ___LITWhite
0002:00008f18  ___LITWindows_Dialog_Font
0002:00008f1c  ___LITGrey
0002:00008f20  ___LITXNo
0002:00008f24  ___LITXIgnore
0002:00008f28  ___LITBlack
0002:00008f2c  ___LITFix_Toolbar_Hint
0002:00008f30  ___LITCyan
0002:00008f34  ___LITBrown
0002:00008f38  ___LITBlue
0002:00008f3c  ___LITGreen
0002:00008f40  ___LITExclamation
0002:00008f44  ___LITXAbort
0002:00008f48  ___LITWindow_Name_Hint
0002:00008f4c  ___LITColour
0002:00008f50  ___LITXFix_Toolbar
0002:00008f54  ___LITStop_Bang
0002:00008f58  ___LITMagenta
0002:00008f5c  ___LITRed
0002:00008f60  ___LITXRetry
0002:00008f64  ___LITSelect_Window
0002:00008f68  ___LITXYes
0002:00008f6c  ___LITNexXt
0002:00008f70  ___LITArrange_Icons_Hint
0002:00008f74  ___LITClose
0002:00008f78  ___LITFDlg_Open_Text
0002:00008f7c  ___LITTile_Horz_Hint
0002:00008f80  ___LITCascade_Hint
0002:00008f84  ___LITTile_XVert
0002:00008f88  ___LITTile_Vert_Hint
0002:00008f8c  ___LITTile_XHorz
0002:00008f90  ___LITRestore
0002:00008f94  ___LITMove
0002:00008f98  ___LITMore_Windows_Hint
0002:00008f9c  ___LITXMore_Windows
0002:00008fa0  ___LITXClose
0002:00008fa4  ___LITSize
0002:00008fa8  ___LITXCascade
0002:00008fac  ___LITMinimize
0002:00008fb0  ___LITXArrange_Icons
0002:00008fb4  ___LITMaximize
0002:00008fb8  ___LITXFix_Tool_Bar
0002:00008fbc  ___LITFile_Exists_Replace
0002:00008fc0  ___LITChange_XFont_
0002:00008fc4  ___LITCancel
0002:00008fc8  ___LITOpen_Failed
0002:00008fcc  ___LITDrives_Colon
0002:00008fd0  ___LITFDlg_Save_Text
0002:00008fd4  ___LITList_Files_of_Type_Colon
0002:00008fd8  ___LITPen_Failed
0002:00008fdc  ___LITFile_Name_Colon
0002:00008fe0  ___LITChange_Font_for_this_window
0002:00008fe4  ___LITMake_Tool_Bar_Fixed
0002:00008fe8  ___LITFloating_Toolbar
0002:00008fec  ___LITInternal_First_Message
0002:00008ff0  ___LITDirectories_Colon
0002:00008ff4  ___LITOK
Module: /mnt/sda5/.user/root/src/openwatcom-1.9/bld/gui/win/os2386/gui.lib(/mnt/sda5/.user/root/src/openwatcom-1.9/bld/gui/win/c/guipaint.c)
0001:00054fa0  GUIPaint_
0001:00055140  GUIInvalidatePaintHandles_
0001:00055150  GUIFreeWndPaintHandles_
0001:00055180+ GUIFreePaintHandles_
Module: /mnt/sda5/.user/root/src/openwatcom-1.9/bld/gui/win/os2386/gui.lib(/mnt/sda5/.user/root/src/openwatcom-1.9/bld/gui/c/guihint.c)
0001:00055350+ GUIHasHintType_
0001:00055380  GUIDisplayHintText_
0001:000553f0* GUISetHintText_
0001:00055400* GUIHasHintText_
0001:00055420  GUIDeleteHintText_
0001:000554f0+ CountMenus_
0001:00055530+ InsertHint_
0001:00055590  GUIAppendHintText_
0001:00055610  GUIInitHint_
0001:000556e0  GUIInitToolbarHint_
0001:00055780  GUIFreeHint_
Module: /mnt/sda5/.user/root/src/openwatcom-1.9/bld/gui/win/os2386/gui.lib(/mnt/sda5/.user/root/src/openwatcom-1.9/bld/gui/win/c/guisize.c)
0001:000557c0+ GUIResizeWindow_
0001:000558d0  GUISetRestoredSize_
0001:000559a0* GUIGetRestoredSize_
0001:00055a10  GUIMinimizeWindow_
0001:00055a40  GUIMaximizeWindow_
0001:00055a90* GUIHideWindow_
0001:00055ab0* GUIIsWindowVisible_
0001:00055ae0  GUIRestoreWindow_
0001:00055b30  GUIIsMaximized_
0001:00055b50  GUIIsMinimized_
Module: /mnt/sda5/.user/root/src/openwatcom-1.9/bld/gui/win/os2386/gui.lib(/mnt/sda5/.user/root/src/openwatcom-1.9/bld/gui/win/c/guitool.c)
0001:00055b60  GUIXCloseToolBar_
0001:00055c30+ GUIToolBarHelp_
0001:00055c70+ GUIToolBarProc_
0001:00055e10  GUIXCreateToolBarWithTips_
0001:00056350  GUIXCreateToolBar_
0001:00056380  GUIResizeToolBar_
0001:00056480  GUIHasToolBar_
0001:00056490+ GUIChangeToolBar_
0001:000565c0* GUIToolBarFixed_
Module: /mnt/sda5/.user/root/src/openwatcom-1.9/bld/gui/win/os2386/gui.lib(/mnt/sda5/.user/root/src/openwatcom-1.9/bld/gui/win/c/guiscrol.c)
0001:000565e0  GUIGetScrollScreenSize_
0001:00056670* GUIGetScrollInc_
0001:000566a0+ GUIScroll_
0001:000567b0* GUISetVScrollRow_
0001:000567d0* GUISetHScrollCol_
0001:000567f0* GUISetVScroll_
0001:00056830  GUISetHScroll_
0001:00056990  GUIProcessScrollMsg_
0001:00056c00  GUISetScroll_
Module: /mnt/sda5/.user/root/src/openwatcom-1.9/bld/gui/win/os2386/gui.lib(/mnt/sda5/.user/root/src/openwatcom-1.9/bld/gui/win/c/guifront.c)
0001:00056c80  ActivateNC_
0001:00056cc0  GUIBringToFront_
0001:00056de0* GUIActivateNC_
Module: /mnt/sda5/.user/root/src/openwatcom-1.9/bld/gui/win/os2386/gui.lib(/mnt/sda5/.user/root/src/openwatcom-1.9/bld/gui/c/guihtool.c)
0001:00056df0* GUICreateFloatToolBar_
0001:00056e50  GUICreateToolBar_
0001:00056eb0  GUICreateToolBarWithTips_
0001:00056f10  GUICloseToolBar_
Module: /mnt/sda5/.user/root/src/openwatcom-1.9/bld/gui/win/os2386/gui.lib(/mnt/sda5/.user/root/src/openwatcom-1.9/bld/gui/win/c/guimapky.c)
0001:00057490  GUISetKeyState_
0001:00057570  GUIWindowsMapKey_
0001:00057660  GUIProcesskey_
Module: /mnt/sda5/.user/root/src/openwatcom-1.9/bld/gui/win/os2386/gui.lib(/mnt/sda5/.user/root/src/openwatcom-1.9/bld/gui/win/c/guisystr.c)
0001:00057710  WndSizeChange_
0001:00057710  TrayCallBack_
Module: /mnt/sda5/.user/root/src/openwatcom-1.9/rel2/lib386/math387r.lib(ldclass.c)
0001:00057711  __LDClass_
0001:00057761* _FLClass_
Module: /mnt/sda5/.user/root/src/openwatcom-1.9/rel2/lib386/math387r.lib(bufld386)
0001:00057770  __ZBuf2LD
Module: /mnt/sda5/.user/root/src/openwatcom-1.9/rel2/lib386/os2/clib3r.lib(seterrno.c)
0001:00057813  __set_errno_
0001:00057821* __set_EDOM_
0001:0005782f  __set_ERANGE_
0001:0005783d* __set_EINVAL_
0001:00057850  __set_doserrno_
Module: /mnt/sda5/.user/root/src/openwatcom-1.9/rel2/lib386/math387r.lib(inf_nan.c)
0001:0005785e* ___f_infinity
0001:00057862* ___f_posqnan
0001:00057866  ___d_infinity
0001:0005786e  ___d_posqnan
0001:00057876* ___ld_infinity
0001:0005787e* ___ld_posqnan
Module: /mnt/sda5/.user/root/src/openwatcom-1.9/rel2/lib386/os2/clib3r.lib(hugeval.c)
0001:00057890  __HugeValue
Module: /mnt/sda5/.user/root/src/openwatcom-1.9/bld/aui/os2386.pm/aui.lib(/mnt/sda5/.user/root/src/openwatcom-1.9/bld/aui/c/wndfref.c)
0001:000578a0  WndForceRefresh_
Module: /mnt/sda5/.user/root/src/openwatcom-1.9/bld/gui/win/os2386/gui.lib(/mnt/sda5/.user/root/src/openwatcom-1.9/bld/gui/win/c/guidrect.c)
0001:000578b0  GUIWndDirtyRect_
Module: /mnt/sda5/.user/root/src/openwatcom-1.9/bld/gui/win/os2386/gui.lib(/mnt/sda5/.user/root/src/openwatcom-1.9/bld/gui/win/c/guidrow.c)
0001:00057960  GUIWndDirtyRow_
Module: /mnt/sda5/.user/root/src/openwatcom-1.9/bld/gui/win/os2386/gui.lib(/mnt/sda5/.user/root/src/openwatcom-1.9/bld/gui/win/c/guiiscrl.c)
0001:00057aa0  GUIInitVScrollRow_
0001:00057ac0* GUIInitHScrollCol_
0001:00057ae0* GUIInitVScroll_
0001:00057b20  GUIInitHScroll_
Module: /mnt/sda5/.user/root/src/openwatcom-1.9/bld/gui/win/os2386/gui.lib(/mnt/sda5/.user/root/src/openwatcom-1.9/bld/gui/c/guidraw.c)
0001:00057b60  GUIDrawText_
0001:00057bb0* GUIDrawTextPos_
0001:00057bd0  GUIDrawTextExtent_
0001:00057c20* GUIDrawTextExtentPos_
0001:00057c40* GUIDrawTextRGB_
0001:00057c90* GUIDrawTextPosRGB_
0001:00057cb0* GUIDrawTextExtentRGB_
0001:00057d00* GUIDrawTextExtentPosRGB_
Module: /mnt/sda5/.user/root/src/openwatcom-1.9/bld/gui/win/os2386/gui.lib(/mnt/sda5/.user/root/src/openwatcom-1.9/bld/gui/win/c/guidoscr.c)
0001:00057ec0* GUIDoVScroll_
0001:00057ee0* GUIDoHScroll_
0001:00057f00  GUIDoVScrollClip_
0001:00057f10* GUIDoHScrollClip_
0001:00057f20  GUIDoScroll_
Module: /mnt/sda5/.user/root/src/openwatcom-1.9/bld/gui/win/os2386/gui.lib(/mnt/sda5/.user/root/src/openwatcom-1.9/bld/gui/win/c/guidirty.c)
0001:00057f60  GUIWndDirty_
0001:00057fc0  GUIControlDirty_
Module: /mnt/sda5/.user/root/src/openwatcom-1.9/bld/gui/win/os2386/gui.lib(/mnt/sda5/.user/root/src/openwatcom-1.9/bld/gui/c/guipixel.c)
0001:00057ff0  GUITruncToPixel_
Module: /mnt/sda5/.user/root/src/openwatcom-1.9/bld/gui/win/os2386/gui.lib(/mnt/sda5/.user/root/src/openwatcom-1.9/bld/gui/win/c/guixtent.c)
0001:00058010+ GetExtent_
0001:00058080  GUIGetExtentX_
0001:000580a0* GUIGetExtentY_
0001:000580d0+ GetControlInfo_
0001:00058100+ GetControlExtent_
0001:000581b0* GUIGetControlExtentX_
0001:000581d0* GUIGetControlExtentY_
Module: /mnt/sda5/.user/root/src/openwatcom-1.9/bld/gui/win/os2386/gui.lib(/mnt/sda5/.user/root/src/openwatcom-1.9/bld/gui/win/c/guirect.c)
0001:00058200  DoGetRelRect_
0001:00058340+ GUIGetRelRect_
0001:00058370  GUIGetRect_
Module: /mnt/sda5/.user/root/src/openwatcom-1.9/bld/gui/win/os2386/gui.lib(/mnt/sda5/.user/root/src/openwatcom-1.9/bld/gui/win/c/guimouse.c)
0001:00058390  GUIGetMousePosn_
Module: /mnt/sda5/.user/root/src/openwatcom-1.9/bld/gui/win/os2386/gui.lib(/mnt/sda5/.user/root/src/openwatcom-1.9/bld/gui/win/c/guixdisp.c)
0001:00058430  GUIDisplayMessage_
Module: /mnt/sda5/.user/root/src/openwatcom-1.9/bld/gui/win/os2386/gui.lib(/mnt/sda5/.user/root/src/openwatcom-1.9/bld/gui/win/c/guissel.c)
0001:00058580  GUISelectAll_
0001:000585b0* GUISetEditSelect_
0001:000585d0* GUIGetEditSelect_
0001:00058630* GUIScrollCaret_
Module: /mnt/sda5/.user/root/src/openwatcom-1.9/bld/gui/win/os2386/gui.lib(/mnt/sda5/.user/root/src/openwatcom-1.9/bld/gui/win/c/guigetrc.c)
0001:00058670  GUIGetRow_
0001:000586b0* GUIGetCol_
Module: /mnt/sda5/.user/root/src/openwatcom-1.9/bld/gui/win/os2386/gui.lib(/mnt/sda5/.user/root/src/openwatcom-1.9/bld/gui/win/c/guistrin.c)
0001:00058770  GUIGetStringPos_
Module: /mnt/sda5/.user/root/src/openwatcom-1.9/bld/gui/win/os2386/gui.lib(/mnt/sda5/.user/root/src/openwatcom-1.9/bld/gui/win/c/guixbar.c)
0001:00058890+ DrawSimpleBar_
0001:000589f0+ DrawShadowBar_
0001:00058ba0  GUIDrawBar_
0001:00058cc0  GUIDrawBarGroup_
Module: /mnt/sda5/.user/root/src/openwatcom-1.9/bld/gui/win/os2386/gui.lib(/mnt/sda5/.user/root/src/openwatcom-1.9/bld/gui/win/c/guidrawr.c)
0001:00058f00* GUIFillRect_
0001:00058f30* GUIDrawRect_
0001:00058f60* GUIFillRectRGB_
0001:00058fa0* GUIDrawRectRGB_
0001:000591c0  GUIDrawLine_
0001:000591f0* GUIDrawLineRGB_
Module: /mnt/sda5/.user/root/src/openwatcom-1.9/bld/gui/win/os2386/gui.lib(/mnt/sda5/.user/root/src/openwatcom-1.9/bld/gui/win/c/guixhot.c)
0001:00059250  GUIXInitHotSpots_
0001:000592b0  GUIXCleanupHotSpots_
0001:000592e0  GUIDrawHotSpot_
0001:00059350  GUIDrawBitmap_
0002:00008ff8  _GUIHotSpots
Module: /mnt/sda5/.user/root/src/openwatcom-1.9/bld/gui/win/os2386/gui.lib(/mnt/sda5/.user/root/src/openwatcom-1.9/bld/gui/c/guidlg.c)
0001:00059430  GUICreateDialog_
0001:00059440  GUICreateResDialog_
0001:00059460  GUICreateSysModalDialog_
Module: /mnt/sda5/.user/root/src/openwatcom-1.9/bld/gui/win/os2386/gui.lib(/mnt/sda5/.user/root/src/openwatcom-1.9/bld/gui/win/c/guicutil.c)
0001:00059470  GUIToControl_
0001:000594d0  GUIToComboList_
0001:00059560  GUIGetControlClass_
Module: /mnt/sda5/.user/root/src/openwatcom-1.9/bld/gui/win/os2386/gui.lib(/mnt/sda5/.user/root/src/openwatcom-1.9/bld/gui/win/c/wpimem.c)
0001:00059580  _wpi_free_
0001:00059590  _wpi_malloc_
0001:000595a0* _wpi_realloc_
Module: /mnt/sda5/.user/root/src/openwatcom-1.9/bld/aui/os2386.pm/aui.lib(/mnt/sda5/.user/root/src/openwatcom-1.9/bld/aui/c/rxwrap.c)
0002:0000901c  _RegExpError
0001:00059600  RegComp_
0001:0005a230  RegExec_
0001:0005a7d0* RegAnchor_
0002:0000472c  _SrchMetaChars
0002:0000473a+ _RealTabs
Module: /mnt/sda5/.user/root/src/openwatcom-1.9/bld/gui/win/os2386/gui.lib(/mnt/sda5/.user/root/src/openwatcom-1.9/bld/gui/c/guihflt.c)
0001:0005a7e0  GUICreateFloatingPopup_
Module: /mnt/sda5/.user/root/src/openwatcom-1.9/bld/gui/win/os2386/gui.lib(/mnt/sda5/.user/root/src/openwatcom-1.9/bld/gui/win/c/guireset.c)
0001:0005a8c0  GUIResetMenus_
Module: /mnt/sda5/.user/root/src/openwatcom-1.9/bld/gui/win/os2386/gui.lib(/mnt/sda5/.user/root/src/openwatcom-1.9/bld/gui/c/guimkey.c)
0001:0005a990  GUIMapKey_
0001:0005adf0  GUIGetKeyState_
0002:0000473c  _KeyState
Module: /mnt/sda5/.user/root/src/openwatcom-1.9/bld/gui/win/os2386/gui.lib(/mnt/sda5/.user/root/src/openwatcom-1.9/bld/gui/win/c/os2dlg.c)
0001:0005b110  DoneAddingControls_
0001:0005b230  DialogTemplate_
0001:0005b380  AddControl_
0001:0005b400  DynamicDialogBox_
Module: /mnt/sda5/.user/root/src/openwatcom-1.9/rel2/lib386/os2/clib3r.lib(strrchr.c)
0001:0005b420  strrchr_
Module: /mnt/sda5/.user/root/src/openwatcom-1.9/rel2/lib386/os2/clib3r.lib(atoi.c)
0001:0005b440  atoi_
Module: /mnt/sda5/.user/root/src/openwatcom-1.9/bld/gui/win/os2386/gui.lib(/mnt/sda5/.user/root/src/openwatcom-1.9/bld/gui/win/c/guifdlg.c)
0001:0005b490* GUIHookFileDlg_
0001:0005b4a0  GUIGetFileName_
Module: /mnt/sda5/.user/root/src/openwatcom-1.9/rel2/lib386/os2/clib3r.lib(split2.c)
0001:0005b910  _splitpath2_
Module: /mnt/sda5/.user/root/src/openwatcom-1.9/rel2/lib386/os2/clib3r.lib(makepath.c)
0001:0005ba80  _makepath_
Module: /mnt/sda5/.user/root/src/openwatcom-1.9/bld/gui/win/os2386/gui.lib(/mnt/sda5/.user/root/src/openwatcom-1.9/bld/gui/win/c/guicombo.c)
0001:0005bc30+ GUIEnumFunc
0001:0005bc70  GUISubClassEditCombobox_
Module: /mnt/sda5/.user/root/src/openwatcom-1.9/bld/gui/win/os2386/gui.lib(/mnt/sda5/.user/root/src/openwatcom-1.9/bld/gui/win/c/guithumb.c)
0001:0005bd40  GUISetVScrollThumb_
0001:0005bd50* GUISetHScrollThumb_
Module: /mnt/sda5/.user/root/src/openwatcom-1.9/bld/gui/win/os2386/gui.lib(/mnt/sda5/.user/root/src/openwatcom-1.9/bld/gui/win/c/guigscrl.c)
0001:0005bd80* GUIGetHScrollCol_
0001:0005bda0  GUIGetVScrollRow_
0001:0005bdf0  GUIGetHScroll_
0001:0005be00* GUIGetVScroll_
Module: /mnt/sda5/.user/root/src/openwatcom-1.9/bld/gui/win/os2386/gui.lib(/mnt/sda5/.user/root/src/openwatcom-1.9/bld/gui/c/guisetup.c)
0001:0005be10  GUISetupWnd_
Module: /mnt/sda5/.user/root/src/openwatcom-1.9/bld/gui/win/os2386/gui.lib(/mnt/sda5/.user/root/src/openwatcom-1.9/bld/gui/win/c/guifloat.c)
0002:00004744+ _CurrItem
0001:0005be60+ GUITrackFloatingPopup_
0001:0005bfc0  GUIXCreateFloatingPopup_
0001:0005c030  GUIPopupMenuSelect_
Module: /mnt/sda5/.user/root/src/openwatcom-1.9/bld/gui/win/os2386/gui.lib(/mnt/sda5/.user/root/src/openwatcom-1.9/bld/gui/win/c/guiximdi.c)
0001:0005c130  XFakeInitMDI_
Module: /mnt/sda5/.user/root/src/openwatcom-1.9/bld/gui/win/os2386/gui.lib(/mnt/sda5/.user/root/src/openwatcom-1.9/bld/gui/c/guimdi.c)
0002:0000477c+ _GUIMDIMenuID
0002:00004780+ _Root
0001:0005c160* GUIGetRoot_
0001:0005c3f0  MDIDeleteMenu_
0001:0005c410  MDIResetMenus_
0001:0005c490* GUIEnableMDIMenus_
0001:0005c520  InitMDI_
0001:0005c670  ChangeTitle_
0001:0005c6b0  BroughtToFront_
0001:0005c720+ FindNextMDIMenuWindowNotInArray_
0001:0005c790  MDIDelete_
0001:0005ca40+ GUIGetNumChildWindows_
0001:0005ca70* GUIGetNumIconicWindows_
0001:0005caf0  GUIMDIMoreWindows_
0001:0005cb50  GUIMDIGetWindow_
Module: /mnt/sda5/.user/root/src/openwatcom-1.9/bld/gui/win/os2386/gui.lib(/mnt/sda5/.user/root/src/openwatcom-1.9/bld/gui/win/c/guixscal.c)
0001:0005cb70  GUIScaleToScreenRect_
0001:0005cb90* GUIScreenToScaleRect_
0001:0005cbb0  GUIClientToScaleRect_
0001:0005cbd0  GUIToText_
0001:0005cc00  GUIToTextX_
0001:0005cc20  GUIToTextY_
0001:0005cc40* GUIFromText_
0001:0005cc70  GUIFromTextX_
0001:0005cc90  GUIFromTextY_
0001:0005ccb0  GUIGetTheDC_
0001:0005ccc0  GUIReleaseTheDC_
0001:0005ccf0  GUIGetMetrics_
0001:0005cd20  GUIGetUpdateRows_
0002:00009320  _GUItm
Module: /mnt/sda5/.user/root/src/openwatcom-1.9/rel2/lib386/os2/clib3r.lib(stack386.c)
0001:0005ce10  stackavail_
Module: /mnt/sda5/.user/root/src/openwatcom-1.9/rel2/lib386/os2/clib3r.lib(stk)
0001:0005ce35* __STK
0001:0005ce25* __CHK
0001:0005ce64  __GRO
0001:0005ce54* __STKOVERFLOW_
Module: /mnt/sda5/.user/root/src/openwatcom-1.9/bld/gui/win/os2386/gui.lib(/mnt/sda5/.user/root/src/openwatcom-1.9/bld/sdk/misc/wstatus.c)
0001:0005d260+ StatusWndCallback
0001:0005d3f0  StatusWndInit_
0001:0005d4d0  StatusWndCreate_
0001:0005d560+ StatusWndDraw3DBox_
0001:0005d5c0+ outputText_
0001:0005d810  StatusWndDrawLine_
0001:0005d910* StatusWndSetSeparators_
0001:0005d950  StatusWndFini_
Module: /mnt/sda5/.user/root/src/openwatcom-1.9/bld/gui/win/os2386/gui.lib(/mnt/sda5/.user/root/src/openwatcom-1.9/bld/gui/win/c/guienum.c)
0001:0005d9e0+ EnumFunc
0001:0005daa0  GUIEnumChildWindows_
Module: /mnt/sda5/.user/root/src/openwatcom-1.9/rel2/lib386/os2/clib3r.lib(sscanf.c)
0001:0005db00+ vsscanf_
0001:0005db30  sscanf_
Module: /mnt/sda5/.user/root/src/openwatcom-1.9/bld/gui/win/os2386/gui.lib(/mnt/sda5/.user/root/src/openwatcom-1.9/bld/gui/c/guiextnm.c)
0001:0005db60  GUIGetExtName_
0001:0005db80* GUISetExtName_
Module: /mnt/sda5/.user/root/src/openwatcom-1.9/rel2/lib386/os2/clib3r.lib(cstart)
0001:0005dbc4  _cstart_
Module: /mnt/sda5/.user/root/src/openwatcom-1.9/rel2/lib386/os2/clib3r.lib(argcv.c)
0002:0000956c  __argc
0002:00009570  __argv
0002:00009574  ___argc
0002:00009578  ___argv
Module: /mnt/sda5/.user/root/src/openwatcom-1.9/bld/gui/win/os2386/gui.lib(/mnt/sda5/.user/root/src/openwatcom-1.9/bld/sdk/misc/wptoolbr.c)
0001:0005ddc0  ToolBarRedrawButtons_
0001:0005dde0  ToolBarInit_
0001:0005df20+ ToolBarDestroy_
0001:0005df80  ToolBarFini_
0001:0005dfe0  ToolBarAddItem_
0001:0005e050* ToolBarSetState_
0001:0005e080* ToolBarGetState_
0001:0005e090* ToolBarDeleteItem_
0001:0005e0d0+ FrameProc
0001:0005e180  ToolBarDisplay_
0001:0005e320  ToolBarWindow_
0001:0005e340* UpdateToolBar_
0001:0005ed10* isPointInToolbar_
0001:0005edc0  HasToolAtPoint_
0001:0005edd0+ ToolBarWndProc
0001:0005f250* ChangeToolButtonBitmap_
Module: /mnt/sda5/.user/root/src/openwatcom-1.9/rel2/lib386/os2/clib3r.lib(maino32.c)
0002:000048c8+ ___FirstThreadData
0002:000048cc  ___GetThreadPtr
0002:000048d0  __AccessFileH
0002:000048d4  __ReleaseFileH
0002:000048d8  __AccessIOB
0002:000048dc  __ReleaseIOB
0002:000048e0  __AccessNHeap
0002:000048e4* __AccessFHeap
0002:000048e8  __ReleaseNHeap
0002:000048ec* __ReleaseFHeap
0001:0005f28e  __threadstack_
0001:0005f295* __threadid_
0001:0005f29c  __OS2MainInit_
0001:0005f30b+ __OS2Init_
0001:0005f349* __OS2Fini_
0001:0005f351* __shutdown_stack_checking_
0001:0005f366  __exit_
0002:000048f0* __AccessTDList
0002:000048f4* __ReleaseTDList
0002:000048f8+ ___sig_init_rtn
0002:000048fc* ___sig_fini_rtn
0002:00004900* __threadstksize
0002:00004904  ___process_fini
0002:000095ac  ___Is_DLL
0002:000095b0+ ___saved_CS
Module: /mnt/sda5/.user/root/src/openwatcom-1.9/bld/gui/win/os2386/gui.lib(/mnt/sda5/.user/root/src/openwatcom-1.9/bld/gui/win/c/guixdraw.c)
0001:0005f3f0+ GUIDrawTextBitmapRGB_
0001:0005f7c0  GUIDrawTextBitmapAttr_
0001:0005f820  GUIXDrawText_
0001:0005f850  GUIXDrawTextRGB_
Module: /mnt/sda5/.user/root/src/openwatcom-1.9/bld/gui/win/os2386/gui.lib(/mnt/sda5/.user/root/src/openwatcom-1.9/bld/gui/win/c/guigetx.c)
0001:0005f8f0  GUIGetTextExtentX_
0001:0005f910* GUIGetTextExtentY_
0001:0005f930  GUIGetTextExtent_
Module: /mnt/sda5/.user/root/src/openwatcom-1.9/rel2/lib386/os2/clib3r.lib(strcspn.c)
0001:0005f950  strcspn_
Module: /mnt/sda5/.user/root/src/openwatcom-1.9/rel2/lib386/os2/clib3r.lib(strncmp.c)
0001:0005f9a0  strncmp_
Module: /mnt/sda5/.user/root/src/openwatcom-1.9/bld/gui/win/os2386/gui.lib(/mnt/sda5/.user/root/src/openwatcom-1.9/bld/gui/win/c/os2mem.c)
0001:0005f9d0  PMfree_
0001:0005f9e0  PMmalloc_
0001:0005f9f0  PMrealloc_
Module: /mnt/sda5/.user/root/src/openwatcom-1.9/rel2/lib386/os2/clib3r.lib(gtcwdos2.c)
0001:0005fa00  getcwd_
Module: /mnt/sda5/.user/root/src/openwatcom-1.9/rel2/lib386/os2/clib3r.lib(splitpat.c)
0001:0005fb00  _splitpath_
Module: /mnt/sda5/.user/root/src/openwatcom-1.9/rel2/lib386/os2/clib3r.lib(gdrveos2.c)
0001:0005fbd0  _dos_getdrive_
Module: /mnt/sda5/.user/root/src/openwatcom-1.9/rel2/lib386/os2/clib3r.lib(sdrveos2.c)
0001:0005fc00  _dos_setdrive_
Module: /mnt/sda5/.user/root/src/openwatcom-1.9/rel2/lib386/os2/clib3r.lib(chdiros2.c)
0001:0005fc50  chdir_
Module: /mnt/sda5/.user/root/src/openwatcom-1.9/rel2/lib386/os2/clib3r.lib(mbsnccnt.c)
0001:0005fc70  _mbsnccnt_
Module: /mnt/sda5/.user/root/src/openwatcom-1.9/rel2/lib386/os2/clib3r.lib(mbsncpy.c)
0001:0005fca0  _mbsncpy_
Module: /mnt/sda5/.user/root/src/openwatcom-1.9/rel2/lib386/os2/clib3r.lib(mbsnbcnt.c)
0001:0005fcc0  _mbsnbcnt_
Module: /mnt/sda5/.user/root/src/openwatcom-1.9/rel2/lib386/os2/clib3r.lib(mbsnextc.c)
0001:0005fd30  _mbsnextc_
Module: /mnt/sda5/.user/root/src/openwatcom-1.9/rel2/lib386/os2/clib3r.lib(mbsinc.c)
0001:0005fd70  _mbsinc_
Module: /mnt/sda5/.user/root/src/openwatcom-1.9/rel2/lib386/os2/clib3r.lib(mbconv.c)
0001:0005fda0  _mbvtop_
Module: /mnt/sda5/.user/root/src/openwatcom-1.9/rel2/lib386/os2/clib3r.lib(mbclen.c)
0001:0005fdc0  _mbclen_
Module: /mnt/sda5/.user/root/src/openwatcom-1.9/rel2/lib386/os2/clib3r.lib(mbsdec.c)
0001:0005fdf0  _mbsdec_
Module: /mnt/sda5/.user/root/src/openwatcom-1.9/rel2/lib386/os2/clib3r.lib(itoa.c)
0001:0005fe70+ utoa_
0001:0005fec0  itoa_
Module: /mnt/sda5/.user/root/src/openwatcom-1.9/rel2/lib386/os2/clib3r.lib(xmsgo32.c)
0001:0005fef0+ __exit_with_msg_
0001:0005ff40  __fatal_runtime_error_
Module: /mnt/sda5/.user/root/src/openwatcom-1.9/bld/gui/win/os2386/gui.lib(/mnt/sda5/.user/root/src/openwatcom-1.9/bld/gui/win/c/mem.c)
0001:0005ff60  MemFree_
0001:0005ff70  MemAlloc_
0001:0005ff90* MemReAlloc_
Module: /mnt/sda5/.user/root/src/openwatcom-1.9/rel2/lib386/os2/clib3r.lib(scnf.c)
0001:00060b00  __scnf_
Module: /mnt/sda5/.user/root/src/openwatcom-1.9/rel2/lib386/os2/clib3r.lib(main2o32.c)
0001:00060d70  __OS2Main
Module: /mnt/sda5/.user/root/src/openwatcom-1.9/rel2/lib386/os2/clib3r.lib(segdefns)
0001:00000003  ___begtext
0002:00000000* __nullarea
0002:00004da4  __Start_XI
0002:00004de0  __End_XI
0002:00004de0  __Start_YI
0002:00004dfe  __End_YI
Module: /mnt/sda5/.user/root/src/openwatcom-1.9/rel2/lib386/os2/clib3r.lib(initargv.c)
0001:00060de0  __Init_Argv_
0001:00060e30+ _getargv_
0001:00060fd0  __Fini_Argv_
Module: /mnt/sda5/.user/root/src/openwatcom-1.9/rel2/lib386/os2/clib3r.lib(crwdata)
0002:0000494c  __osmajor
0002:0000494d  __osminor
0002:00004918* __LpDllName
0002:0000491c* __LpwCmdLine
0002:00004920* __LpwPgmName
0002:00004924* __LpwDllName
0002:00004910  __LpCmdLine
0002:00004914  __LpPgmName
0002:00004908* __dynend
0002:0000490c  __curbrk
0002:00004928* __STACKLOW
0002:0000492c* __STACKTOP
0002:00004930  __ASTACKSIZ
0002:00004934  __ASTACKPTR
0002:00004938* __cbyte
0002:0000493c* __cbyte2
0002:00004940* __child
0002:00004946  __Envptr
0002:0000494a* __Envseg
0002:00004944  __no87
0002:0000494e* ___FPE_handler
Module: /mnt/sda5/.user/root/src/openwatcom-1.9/rel2/lib386/os2/clib3r.lib(cinit.c)
0001:00060fe0  __CommonInit_
0002:000096b8  ___hmodule
Module: /mnt/sda5/.user/root/src/openwatcom-1.9/rel2/lib386/os2/clib3r.lib(initrtns.c)
0001:00061000  __InitRtns
0001:00061050  __FiniRtns
Module: /mnt/sda5/.user/root/src/openwatcom-1.9/rel2/lib386/os2/clib3r.lib(setbits.c)
0001:000610b0  __setbits_
Module: /mnt/sda5/.user/root/src/openwatcom-1.9/rel2/lib386/os2/clib3r.lib(bits.c)
0001:000610f0  __Bits
Module: /mnt/sda5/.user/root/src/openwatcom-1.9/rel2/lib386/os2/clib3r.lib(dosret.c)
0001:00061100* _dosretax_
0001:00061110* _dosret0_
0001:00061120  __set_errno_dos_
0001:00061150* __set_errno_dos_reterr_
Module: /mnt/sda5/.user/root/src/openwatcom-1.9/rel2/lib386/os2/clib3r.lib(mbterm.c)
0001:00061160  _mbterm_
Module: /mnt/sda5/.user/root/src/openwatcom-1.9/rel2/lib386/os2/clib3r.lib(mbsnbcpy.c)
0001:000611a0  _mbsnbcpy_
Module: /mnt/sda5/.user/root/src/openwatcom-1.9/rel2/lib386/os2/clib3r.lib(mbisdbcs.c)
0002:000096bc  ___IsDBCS
Module: /mnt/sda5/.user/root/src/openwatcom-1.9/rel2/lib386/os2/clib3r.lib(mbislead.c)
0001:00061200* _ismbblead_
0002:000096c0  ___MBCSIsTable
Module: /mnt/sda5/.user/root/src/openwatcom-1.9/rel2/lib386/os2/clib3r.lib(alphabet.c)
0002:00000038  ___Alphabet
Module: /mnt/sda5/.user/root/src/openwatcom-1.9/rel2/lib386/os2/clib3r.lib(enterdb.c)
0001:00061220  __EnterWVIDEO_
0002:00004a58+ ___WD_Present
Module: /mnt/sda5/.user/root/src/openwatcom-1.9/rel2/lib386/os2/clib3r.lib(mbtowc.c)
0001:00061250  mbtowc_
Module: /mnt/sda5/.user/root/src/openwatcom-1.9/rel2/lib386/os2/clib3r.lib(noefgfmt.c)
0002:00004a5c  ___EFG_printf
0002:00004a60  ___EFG_scanf
Module: /mnt/sda5/.user/root/src/openwatcom-1.9/rel2/lib386/os2/clib3r.lib(fdfs386)
0001:00061354  __FDFS
Module: /mnt/sda5/.user/root/src/openwatcom-1.9/rel2/lib386/os2/clib3r.lib(i8m)
0001:000613a0* __I8M
0001:000613a0  __U8M
Module: /mnt/sda5/.user/root/src/openwatcom-1.9/rel2/lib386/os2/clib3r.lib(mthrdini.c)
0001:000613c0  __InitThreadData_
0002:00004a64  ___ThreadDataSize
Module: /mnt/sda5/.user/root/src/openwatcom-1.9/rel2/lib386/os2/clib3r.lib(cmain386.c)
0001:000613e0  __CMain
Module: /mnt/sda5/.user/root/src/openwatcom-1.9/rel2/lib386/os2/clib3r.lib(dosseg)
0000:00001234  __DOSseg__
Module: /mnt/sda5/.user/root/src/openwatcom-1.9/rel2/lib386/os2/clib3r.lib(histsplt.c)
0002:000097c4  ___historical_splitparms
Module: /mnt/sda5/.user/root/src/openwatcom-1.9/rel2/lib386/os2/clib3r.lib(___argc.c)
0002:000097c8  ____Argc
0002:000097cc  ____Argv
Module: /mnt/sda5/.user/root/src/openwatcom-1.9/rel2/lib386/os2/clib3r.lib(amblksiz.c)
0002:00004a68  __amblksiz
Module: /mnt/sda5/.user/root/src/openwatcom-1.9/rel2/lib386/os2/clib3r.lib(mbinit.c)
0001:0006145a  __mbinit_
0002:00004a6c  ___MBCodePage
Module: /mnt/sda5/.user/root/src/openwatcom-1.9/rel2/lib386/os2/clib3r.lib(exit.c)
0001:00061552+ __null_int23_exit_
0001:00061553  exit_
0001:000615a3* _exit_
0002:00004a70+ ___int23_exit
0002:00004a74+ ___FPE_handler_exit
Module: /mnt/sda5/.user/root/src/openwatcom-1.9/rel2/lib386/os2/clib3r.lib(getenv.c)
0001:000615c0  getenv_
Module: /mnt/sda5/.user/root/src/openwatcom-1.9/rel2/lib386/os2/clib3r.lib(setenv.c)
0001:00061650  setenv_
0001:000618e0  _setenv_
Module: /mnt/sda5/.user/root/src/openwatcom-1.9/rel2/lib386/os2/clib3r.lib(strstr.c)
0001:00061af0  strstr_
Module: /mnt/sda5/.user/root/src/openwatcom-1.9/rel2/lib386/os2/clib3r.lib(nmalloc.c)
0001:00061ba0  _nmalloc_
0001:00061ba0  malloc_
0002:00004a78  ___nheapbeg
0002:00004a7c  ___MiniHeapRover
0002:00004a80  ___LargestSizeB4MiniHeapRover
Module: /mnt/sda5/.user/root/src/openwatcom-1.9/rel2/lib386/os2/clib3r.lib(nfree.c)
0001:00061ca0  _nfree_
0001:00061ca0  free_
0002:000097d0  ___MiniHeapFreeRover
Module: /mnt/sda5/.user/root/src/openwatcom-1.9/rel2/lib386/os2/clib3r.lib(cmdname.c)
0001:00061db0  _cmdname_
Module: /mnt/sda5/.user/root/src/openwatcom-1.9/rel2/lib386/os2/clib3r.lib(gtcmd.c)
0001:00061e20  _bgetcmd_
0001:00061e90  getcmd_
Module: /mnt/sda5/.user/root/src/openwatcom-1.9/rel2/lib386/os2/os2386.lib(msgseg32.asm)
0001:00066368* sig32
0001:0006637a  DosGetMessage
0001:0006637a* Dos32GetMessage
Module: /mnt/sda5/.user/root/src/openwatcom-1.9/rel2/lib386/os2/clib3r.lib(_strcmp)
0001:00061eb0  strcmp_
Module: /mnt/sda5/.user/root/src/openwatcom-1.9/rel2/lib386/os2/clib3r.lib(searchen.c)
0001:00061ff0  _searchenv_
Module: /mnt/sda5/.user/root/src/openwatcom-1.9/rel2/lib386/os2/clib3r.lib(memset.c)
0001:00062120  memset_
Module: /mnt/sda5/.user/root/src/openwatcom-1.9/rel2/lib386/os2/clib3r.lib(memmove.c)
0001:00062140  memmove_
Module: /mnt/sda5/.user/root/src/openwatcom-1.9/rel2/lib386/os2/clib3r.lib(istable.c)
0001:000621a0  __IsTable
Module: /mnt/sda5/.user/root/src/openwatcom-1.9/rel2/lib386/os2/clib3r.lib(sprintf.c)
0001:000622b0  sprintf_
Module: /mnt/sda5/.user/root/src/openwatcom-1.9/rel2/lib386/os2/clib3r.lib(setjmp)
0001:000622d4  _setjmp_
0001:0006230d  longjmp_
Module: /mnt/sda5/.user/root/src/openwatcom-1.9/rel2/lib386/os2/clib3r.lib(stricmp.c)
0001:00062390  stricmp_
Module: /mnt/sda5/.user/root/src/openwatcom-1.9/rel2/lib386/os2/clib3r.lib(tolower.c)
0001:000623d0  tolower_
Module: /mnt/sda5/.user/root/src/openwatcom-1.9/rel2/lib386/os2/clib3r.lib(strtol.c)
0001:00062600  strtoul_
0001:00062610* strtol_
Module: /mnt/sda5/.user/root/src/openwatcom-1.9/rel2/lib386/os2/clib3r.lib(fltused.c)
0002:00004b10  _fltused_
Module: /mnt/sda5/.user/root/src/openwatcom-1.9/rel2/lib386/os2/clib3r.lib(_8087)
0002:00004b14  __8087
0002:00004b15  __real87
Module: /mnt/sda5/.user/root/src/openwatcom-1.9/rel2/lib386/os2/clib3r.lib(strlwr.c)
0001:00062620  strlwr_
Module: /mnt/sda5/.user/root/src/openwatcom-1.9/rel2/lib386/os2/clib3r.lib(toupper.c)
0001:00062640  toupper_
Module: /mnt/sda5/.user/root/src/openwatcom-1.9/rel2/lib386/os2/clib3r.lib(memicmp.c)
0001:00062650  memicmp_
Module: /mnt/sda5/.user/root/src/openwatcom-1.9/rel2/lib386/os2/clib3r.lib(strnicmp.c)
0001:00062690  strnicmp_
Module: /mnt/sda5/.user/root/src/openwatcom-1.9/rel2/lib386/os2/clib3r.lib(memcmp.c)
0001:000626e0  memcmp_
Module: /mnt/sda5/.user/root/src/openwatcom-1.9/rel2/lib386/os2/clib3r.lib(nrealloc.c)
0001:00062700* _nrealloc_
0001:00062700  realloc_
Module: /mnt/sda5/.user/root/src/openwatcom-1.9/rel2/lib386/os2/clib3r.lib(nheapwal.c)
0001:00062780* _nheapwalk_
0001:00062780  _heapwalk_
0001:000627b0+ __NHeapWalk_
Module: /mnt/sda5/.user/root/src/openwatcom-1.9/rel2/lib386/os2/clib3r.lib(qsort.c)
0001:000628b0  qsort_
Module: /mnt/sda5/.user/root/src/openwatcom-1.9/rel2/lib386/os2/clib3r.lib(openos2.c)
0001:00063120  open_
0001:00063140+ sopen_
Module: /mnt/sda5/.user/root/src/openwatcom-1.9/rel2/lib386/os2/clib3r.lib(close.c)
0001:00063170  close_
Module: /mnt/sda5/.user/root/src/openwatcom-1.9/rel2/lib386/os2/clib3r.lib(read.c)
0001:00063180  read_
Module: /mnt/sda5/.user/root/src/openwatcom-1.9/rel2/lib386/os2/clib3r.lib(lseek.c)
0001:000632f0  lseek_
Module: /mnt/sda5/.user/root/src/openwatcom-1.9/rel2/lib386/os2/clib3r.lib(strupr.c)
0001:00063320  strupr_
Module: /mnt/sda5/.user/root/src/openwatcom-1.9/rel2/lib386/os2/clib3r.lib(strncpy.c)
0001:00063340  strncpy_
Module: /mnt/sda5/.user/root/src/openwatcom-1.9/rel2/lib386/os2/clib3r.lib(environ.c)
0002:000097d4  ___env_mask
0002:000097d8  _environ
0002:000097dc  __wenviron
Module: /mnt/sda5/.user/root/src/openwatcom-1.9/rel2/lib386/os2/clib3r.lib(mbcupper.c)
0001:00063380  _mbctoupper_
Module: /mnt/sda5/.user/root/src/openwatcom-1.9/rel2/lib386/os2/clib3r.lib(mbslen.c)
0001:000633a0  _mbslen_
Module: /mnt/sda5/.user/root/src/openwatcom-1.9/rel2/lib386/os2/clib3r.lib(mbstowcs.c)
0001:000633d0  mbstowcs_
Module: /mnt/sda5/.user/root/src/openwatcom-1.9/rel2/lib386/os2/clib3r.lib(usetenv.c)
0001:00063450* _wsetenv_
0001:00063680  __wsetenv_
Module: /mnt/sda5/.user/root/src/openwatcom-1.9/rel2/lib386/os2/clib3r.lib(mem.c)
0001:00063800  __MemAllocator
0001:000638b0  __MemFree
Module: /mnt/sda5/.user/root/src/openwatcom-1.9/rel2/lib386/os2/clib3r.lib(grownear.c)
0001:00063b50  __ExpandDGROUP_
Module: /mnt/sda5/.user/root/src/openwatcom-1.9/rel2/lib386/os2/clib3r.lib(accssos2.c)
0001:00063b70  access_
Module: /mnt/sda5/.user/root/src/openwatcom-1.9/rel2/lib386/os2/clib3r.lib(strlen.c)
0001:00063bd0  strlen_
Module: /mnt/sda5/.user/root/src/openwatcom-1.9/rel2/lib386/os2/clib3r.lib(strncat.c)
0001:00063bf0  strncat_
Module: /mnt/sda5/.user/root/src/openwatcom-1.9/rel2/lib386/os2/clib3r.lib(strcat.c)
0001:00063c30  strcat_
Module: /mnt/sda5/.user/root/src/openwatcom-1.9/rel2/lib386/os2/clib3r.lib(__stos)
0001:00063c60  __STOSB
0001:00063c97* __STOSD
Module: /mnt/sda5/.user/root/src/openwatcom-1.9/rel2/lib386/os2/clib3r.lib(vsprintf.c)
0001:00063d30  vsprintf_
Module: /mnt/sda5/.user/root/src/openwatcom-1.9/rel2/lib386/os2/clib3r.lib(ljmphdl.c)
0002:00004b18  ___longjmp_handler
Module: /mnt/sda5/.user/root/src/openwatcom-1.9/rel2/lib386/os2/clib3r.lib(setefg.c)
0001:00063d60  __setEFGfmt_
Module: /mnt/sda5/.user/root/src/openwatcom-1.9/rel2/lib386/os2/clib3r.lib(chk8087.c)
0001:00063d80* _fpreset_
0001:00063da0* __init_8087_
0001:00063db0  __chk8087_
Module: /mnt/sda5/.user/root/src/openwatcom-1.9/rel2/lib386/os2/clib3r.lib(nmsize.c)
0001:00063e00  _nmsize_
0001:00063e00* _msize_
Module: /mnt/sda5/.user/root/src/openwatcom-1.9/rel2/lib386/os2/clib3r.lib(nexpand.c)
0001:00063e10  _nexpand_
0001:00063e10* _expand_
0001:00063e50+ __HeapManager_expand_
Module: /mnt/sda5/.user/root/src/openwatcom-1.9/rel2/lib386/os2/clib3r.lib(umaskval.c)
0002:00004b1c  ___umaskval
Module: /mnt/sda5/.user/root/src/openwatcom-1.9/rel2/lib386/os2/clib3r.lib(os2fil64.c)
0002:00004b20  ___os2_DosOpenL
0002:00004b24+ ___os2_DosSetFilePtrL
0002:00004b28+ ___os2_DosSetFileSizeL
0002:00004b2c+ ___os2_DosSetFileLocksL
Module: /mnt/sda5/.user/root/src/openwatcom-1.9/rel2/lib386/os2/clib3r.lib(iomode.c)
0001:00064100  __GetIOMode_
0001:00064120  __SetIOMode_nogrow_
0002:00004b30  ___NFiles
0002:00004b34  ___init_mode
0002:00004b84  ___io_mode
Module: /mnt/sda5/.user/root/src/openwatcom-1.9/rel2/lib386/os2/clib3r.lib(isattos2.c)
0001:00064140  isatty_
Module: /mnt/sda5/.user/root/src/openwatcom-1.9/rel2/lib386/os2/clib3r.lib(stiomode.c)
0001:00064170  __grow_iomode_
0001:00064240+ __shrink_iomode_
0001:000642c0  __SetIOMode_
Module: /mnt/sda5/.user/root/src/openwatcom-1.9/rel2/lib386/os2/clib3r.lib(iob.c)
0002:00004b88  ___iob
0002:00004d90  __fmode
0002:000097e4  ___OpenStreams
0002:000097e8  ___ClosedStreams
Module: /mnt/sda5/.user/root/src/openwatcom-1.9/rel2/lib386/os2/clib3r.lib(_clseos2.c)
0001:00064330  __close_
Module: /mnt/sda5/.user/root/src/openwatcom-1.9/rel2/lib386/os2/clib3r.lib(iomodtty.c)
0001:00064370  __ChkTTYIOMode_
0001:000643b0* __IOMode_
Module: /mnt/sda5/.user/root/src/openwatcom-1.9/rel2/lib386/os2/clib3r.lib(__lseek.c)
0001:000643d0  __lseek_
Module: /mnt/sda5/.user/root/src/openwatcom-1.9/rel2/lib386/os2/clib3r.lib(setenvp.c)
0001:00064400  __setenvp_
0001:000644c0  __freeenvp_
Module: /mnt/sda5/.user/root/src/openwatcom-1.9/rel2/lib386/os2/clib3r.lib(mbdtoupp.c)
0001:00064510  _mbdtoupper_
Module: /mnt/sda5/.user/root/src/openwatcom-1.9/rel2/lib386/os2/clib3r.lib(crtwenv.c)
0001:00064530  __create_wide_environment_
Module: /mnt/sda5/.user/root/src/openwatcom-1.9/rel2/lib386/os2/clib3r.lib(ugetenv.c)
0001:000645a0  _wgetenv_
Module: /mnt/sda5/.user/root/src/openwatcom-1.9/rel2/lib386/os2/clib3r.lib(ustrlen.c)
0001:00064616  wcslen_
Module: /mnt/sda5/.user/root/src/openwatcom-1.9/rel2/lib386/os2/clib3r.lib(wcstombs.c)
0001:00064630  wcstombs_
Module: /mnt/sda5/.user/root/src/openwatcom-1.9/rel2/lib386/os2/clib3r.lib(utoupper.c)
0001:000646cf  towupper_
Module: /mnt/sda5/.user/root/src/openwatcom-1.9/rel2/lib386/os2/clib3r.lib(memcpy.c)
0001:000646e0  memcpy_
Module: /mnt/sda5/.user/root/src/openwatcom-1.9/rel2/lib386/os2/clib3r.lib(ustrcpy.c)
0001:000646ff  wcscpy_
Module: /mnt/sda5/.user/root/src/openwatcom-1.9/rel2/lib386/os2/clib3r.lib(heapen.c)
0001:00064720* _heapenable_
0002:00004d94  ___heap_enabled
Module: /mnt/sda5/.user/root/src/openwatcom-1.9/rel2/lib386/os2/clib3r.lib(nheapmin.c)
0001:00064750  _nheapshrink_
0001:00064750* _nheapmin_
0001:00064750* _heapmin_
0001:00064750* _heapshrink_
Module: /mnt/sda5/.user/root/src/openwatcom-1.9/rel2/lib386/os2/clib3r.lib(prtf.c)
0001:00064840  __prtf_
Module: /mnt/sda5/.user/root/src/openwatcom-1.9/rel2/lib386/math387r.lib(efgfmt.c)
0001:00065504  _EFG_Format_
Module: /mnt/sda5/.user/root/src/openwatcom-1.9/rel2/lib386/math387r.lib(cnvs2d.c)
0001:0006566e  __cnvs2d_
Module: /mnt/sda5/.user/root/src/openwatcom-1.9/rel2/lib386/os2/clib3r.lib(8087cw.c)
0002:00004d98  __8087cw
Module: /mnt/sda5/.user/root/src/openwatcom-1.9/rel2/lib386/os2/clib3r.lib(init8087)
0001:00065680  __x87id
Module: /mnt/sda5/.user/root/src/openwatcom-1.9/rel2/lib386/os2/clib3r.lib(hdlman.c)
0001:000656c0* __set_handles_
0001:000656d0* _grow_handles_
0002:00004d9c  ___NHandles
Module: /mnt/sda5/.user/root/src/openwatcom-1.9/rel2/lib386/os2/clib3r.lib(initfile.c)
0001:00065760  __InitFiles_
Module: /mnt/sda5/.user/root/src/openwatcom-1.9/rel2/lib386/os2/clib3r.lib(ioexit.c)
0001:00065860* fcloseall_
0001:00065870  __full_io_exit_
Module: /mnt/sda5/.user/root/src/openwatcom-1.9/rel2/lib386/os2/clib3r.lib(clearenv.c)
0001:00065880  clearenv_
Module: /mnt/sda5/.user/root/src/openwatcom-1.9/rel2/lib386/os2/clib3r.lib(uputenv.c)
0001:00065910* _wputenv_
0001:00065a50  __wputenv_
Module: /mnt/sda5/.user/root/src/openwatcom-1.9/rel2/lib386/os2/clib3r.lib(ustrnicm.c)
0001:00065b49  _wcsnicmp_
Module: /mnt/sda5/.user/root/src/openwatcom-1.9/rel2/lib386/os2/clib3r.lib(wctomb.c)
0001:00065bb0  wctomb_
Module: /mnt/sda5/.user/root/src/openwatcom-1.9/rel2/lib386/os2/clib3r.lib(lltoa.c)
0001:00065be0  ulltoa_
0001:00065c50* lltoa_
Module: /mnt/sda5/.user/root/src/openwatcom-1.9/rel2/lib386/os2/clib3r.lib(ltoa.c)
0001:00065c80  ultoa_
0001:00065cd0* ltoa_
Module: /mnt/sda5/.user/root/src/openwatcom-1.9/rel2/lib386/os2/clib3r.lib(rtcntrl.c)
0001:00065d00* _SetLD64bit_
0001:00065d10* _SetLD80bit_
0001:00065d20  _LDisDouble_
Module: /mnt/sda5/.user/root/src/openwatcom-1.9/rel2/lib386/os2/clib3r.lib(fclose.c)
0001:00065d30+ __doclose_
0001:00065dd0  __shutdown_stream_
0001:00065df0* fclose_
0002:000097f0+ ___RmTmpFileFn
Module: /mnt/sda5/.user/root/src/openwatcom-1.9/rel2/lib386/os2/clib3r.lib(freefp.c)
0001:00065e40  __freefp_
0001:00065e90  __purgefp_
Module: /mnt/sda5/.user/root/src/openwatcom-1.9/rel2/lib386/os2/clib3r.lib(putenv.c)
0001:00065ec0* putenv_
0001:00066030  __putenv_
Module: /mnt/sda5/.user/root/src/openwatcom-1.9/rel2/lib386/os2/clib3r.lib(flush.c)
0001:000661a0  __flush_
Module: /mnt/sda5/.user/root/src/openwatcom-1.9/rel2/lib386/os2/clib3r.lib(fsync.c)
0001:000662a0  fsync_
Module: /mnt/sda5/.user/root/src/openwatcom-1.9/rel2/lib386/os2/clib3r.lib(qwrit.c)
0001:000662d0  __qwrite_


                        +---------------------+
                        |   Module Segments   |
                        +---------------------+

! = 32-bit segment
c = initialized communal data

Module          Segment               Class           Address         Size
======          =======               =====           =======         ====

/mnt/sda5/.user/root/src/openwatcom-1.9/bld/watcom/c/autoenv.c
                _TEXT                 CODE           0001:00000010  ! 000009a9
                CONST                 DATA           0002:00000004  ! 00000000
                CONST2                DATA           0002:00000060  ! 00000000
                _DATA                 DATA           0002:00000060  ! 00000000
/mnt/sda5/.user/root/src/openwatcom-1.9/bld/wv/os2/c/os22ini.c
                _TEXT                 CODE           0001:000009c0  ! 000002d1
                CONST                 DATA           0002:00000004  ! 00000000
                CONST2                DATA           0002:00000060  ! 00000000
                _DATA                 DATA           0002:00000060  ! 00000000
                _BSS                  BSS            0002:00004e00  ! 00000005
/mnt/sda5/.user/root/src/openwatcom-1.9/bld/wv/os2/c/os2chk.c
                _TEXT                 CODE           0001:00000ca0  ! 00000011
                CONST                 DATA           0002:00000004  ! 00000000
                CONST2                DATA           0002:00000060  ! 00000000
                _DATA                 DATA           0002:00000060  ! 00000000
/mnt/sda5/.user/root/src/openwatcom-1.9/bld/wv/os2/c/os2cmd.c
                _TEXT                 CODE           0001:00000cc0  ! 0000006c
                CONST                 DATA           0002:00000004  ! 00000000
                CONST2                DATA           0002:00000060  ! 00000000
                _DATA                 DATA           0002:00000060  ! 00000000
/mnt/sda5/.user/root/src/openwatcom-1.9/bld/wv/os2/c/os22flio.c
                _TEXT                 CODE           0001:00000d30  ! 00000241
                CONST                 DATA           0002:00000004  ! 00000000
                CONST2                DATA           0002:00000060  ! 00000000
                _DATA                 DATA           0002:00000060  ! 00000007
/mnt/sda5/.user/root/src/openwatcom-1.9/bld/wv/os2/c/pmscrn2.c
                _TEXT                 CODE           0001:00000f80  ! 00000506
                CONST                 DATA           0002:00000004  ! 00000000
                CONST2                DATA           0002:00000060  ! 00000000
                _DATA                 DATA           0002:00000068  ! 0000000c
                _BSS                  BSS            0002:00004e08  ! 00000014
/mnt/sda5/.user/root/src/openwatcom-1.9/bld/wv/c/fingmsg.c
                _TEXT                 CODE           0001:00001490  ! 00000135
                CONST                 DATA           0002:00000004  ! 00000000
                CONST2                DATA           0002:00000060  ! 00000000
                _DATA                 DATA           0002:00000074  ! 00000018
/mnt/sda5/.user/root/src/openwatcom-1.9/bld/dig/c/dipman.c
                _TEXT                 CODE           0001:000015d0  ! 00002197
                CONST                 DATA           0002:00000004  ! 00000000
                CONST2                DATA           0002:00000060  ! 00000000
                _DATA                 DATA           0002:0000008c  ! 00000076
                _BSS                  BSS            0002:00004e1c  ! 0000011c
/mnt/sda5/.user/root/src/openwatcom-1.9/bld/dig/c/os2v2/dipld.c
                _TEXT                 CODE           0001:00003770  ! 0000039e
                CONST                 DATA           0002:00000004  ! 00000000
                CONST2                DATA           0002:00000060  ! 00000000
                _DATA                 DATA           0002:00000104  ! 00000000
/mnt/sda5/.user/root/src/openwatcom-1.9/bld/dig/c/madman.c
                _TEXT                 CODE           0001:00003b10  ! 00002422
                CONST                 DATA           0002:00000004  ! 00000000
                CONST2                DATA           0002:00000060  ! 00000000
                _DATA                 DATA           0002:00000104  ! 00000190
                _BSS                  BSS            0002:00004f38  ! 00000008
/mnt/sda5/.user/root/src/openwatcom-1.9/bld/dig/c/os2v2/madld.c
                _TEXT                 CODE           0001:00005f40  ! 0000039e
                CONST                 DATA           0002:00000004  ! 00000000
                CONST2                DATA           0002:00000060  ! 00000000
                _DATA                 DATA           0002:00000294  ! 00000000
/mnt/sda5/.user/root/src/openwatcom-1.9/bld/watcom/c/i64.c
                _TEXT                 CODE           0001:000062e0  ! 0000048e
                CONST                 DATA           0002:00000004  ! 00000000
                CONST2                DATA           0002:00000060  ! 00000000
                _DATA                 DATA           0002:00000294  ! 00000000
/mnt/sda5/.user/root/src/openwatcom-1.9/bld/dig/c/trpsupp.c
                _TEXT                 CODE           0001:00006770  ! 00000376
                CONST                 DATA           0002:00000004  ! 00000000
                CONST2                DATA           0002:00000060  ! 00000000
                _DATA                 DATA           0002:00000294  ! 00000008
                _BSS                  BSS            0002:00004f40  ! 00000008
/mnt/sda5/.user/root/src/openwatcom-1.9/bld/dig/c/os2v2/trpld.c
                _TEXT                 CODE           0001:00006af0  ! 00000591
                CONST                 DATA           0002:00000004  ! 00000000
                CONST2                DATA           0002:00000060  ! 00000000
                _DATA                 DATA           0002:0000029c  ! 00000000
                _BSS                  BSS            0002:00004f48  ! 00000010
/mnt/sda5/.user/root/src/openwatcom-1.9/bld/dig/c/dumb.c
                _TEXT                 CODE           0001:00007090  ! 000001e6
                CONST                 DATA           0002:00000004  ! 00000000
                CONST2                DATA           0002:00000060  ! 00000000
                _DATA                 DATA           0002:0000029c  ! 00000000
                _BSS                  BSS            0002:00004f58  ! 00000004
/mnt/sda5/.user/root/src/openwatcom-1.9/bld/wv/c/spawn.c
                _TEXT                 CODE           0001:00007280  ! 00000110
                CONST                 DATA           0002:00000004  ! 00000000
                CONST2                DATA           0002:00000060  ! 00000000
                _DATA                 DATA           0002:0000029c  ! 00000000
                _BSS                  BSS            0002:00004f5c  ! 00000004
/mnt/sda5/.user/root/src/openwatcom-1.9/bld/wv/c/dbgchain.c
                _TEXT                 CODE           0001:00007390  ! 000005ff
                CONST                 DATA           0002:00000004  ! 00000000
                CONST2                DATA           0002:00000060  ! 00000000
                _DATA                 DATA           0002:0000029c  ! 00000000
/mnt/sda5/.user/root/src/openwatcom-1.9/bld/wv/c/dbgvar.c
                _TEXT                 CODE           0001:00007990  ! 000035ac
                CONST                 DATA           0002:00000004  ! 00000000
                CONST2                DATA           0002:00000060  ! 00000000
                _DATA                 DATA           0002:0000029c  ! 00000004
                _BSS                  BSS            0002:00004f60  ! 0000001e
/mnt/sda5/.user/root/src/openwatcom-1.9/bld/wv/c/dbgvset.c
                _TEXT                 CODE           0001:0000af40  ! 00000871
                CONST                 DATA           0002:00000004  ! 00000000
                CONST2                DATA           0002:00000060  ! 00000000
                _DATA                 DATA           0002:000002a0  ! 000000c3
/mnt/sda5/.user/root/src/openwatcom-1.9/bld/wv/c/dbgass.c
                _TEXT                 CODE           0001:0000b7c0  ! 000000d0
                CONST                 DATA           0002:00000004  ! 00000000
                CONST2                DATA           0002:00000060  ! 00000000
                _DATA                 DATA           0002:00000364  ! 00000000
/mnt/sda5/.user/root/src/openwatcom-1.9/bld/wv/c/dbgimg.c
                _TEXT                 CODE           0001:0000b890  ! 00000097
                CONST                 DATA           0002:00000004  ! 00000000
                CONST2                DATA           0002:00000060  ! 00000000
                _DATA                 DATA           0002:00000364  ! 00000000
/mnt/sda5/.user/root/src/openwatcom-1.9/bld/wv/c/dbglist.c
                _TEXT                 CODE           0001:0000b930  ! 0000001a
                CONST                 DATA           0002:00000004  ! 00000000
                CONST2                DATA           0002:00000060  ! 00000000
                _DATA                 DATA           0002:00000364  ! 00000000
/mnt/sda5/.user/root/src/openwatcom-1.9/bld/wv/c/dbgpend.c
                _TEXT                 CODE           0001:0000b950  ! 00000176
                CONST                 DATA           0002:00000004  ! 00000000
                CONST2                DATA           0002:00000060  ! 00000000
                _DATA                 DATA           0002:00000364  ! 00000000
/mnt/sda5/.user/root/src/openwatcom-1.9/bld/wv/c/ambigsym.c
                _TEXT                 CODE           0001:0000bad0  ! 00000240
                CONST                 DATA           0002:00000004  ! 00000000
                CONST2                DATA           0002:00000060  ! 00000000
                _DATA                 DATA           0002:00000364  ! 00000000
/mnt/sda5/.user/root/src/openwatcom-1.9/bld/wv/c/addarith.c
                _TEXT                 CODE           0001:0000bd10  ! 000002f3
                CONST                 DATA           0002:00000004  ! 00000000
                CONST2                DATA           0002:00000060  ! 00000000
                _DATA                 DATA           0002:00000364  ! 00000004
/mnt/sda5/.user/root/src/openwatcom-1.9/bld/wv/c/dbgbrk.c
                _TEXT                 CODE           0001:0000c010  ! 00002a27
                CONST                 DATA           0002:00000004  ! 00000000
                CONST2                DATA           0002:00000060  ! 00000000
                _DATA                 DATA           0002:00000368  ! 000000c0
/mnt/sda5/.user/root/src/openwatcom-1.9/bld/wv/c/dbgcall.c
                _TEXT                 CODE           0001:0000ea40  ! 0000063c
                CONST                 DATA           0002:00000004  ! 00000000
                CONST2                DATA           0002:00000060  ! 00000000
                _DATA                 DATA           0002:00000428  ! 00000000
                _BSS                  BSS            0002:00004f80  ! 0000002e
/mnt/sda5/.user/root/src/openwatcom-1.9/bld/wv/c/dbgcall2.c
                _TEXT                 CODE           0001:0000f080  ! 00000296
                CONST                 DATA           0002:00000004  ! 00000000
                CONST2                DATA           0002:00000060  ! 00000000
                _DATA                 DATA           0002:00000428  ! 00000004
                _BSS                  BSS            0002:00004fb0  ! 000000f4
/mnt/sda5/.user/root/src/openwatcom-1.9/bld/wv/c/dbgcmd.c
                _TEXT                 CODE           0001:0000f320  ! 0000007f
                CONST                 DATA           0002:00000004  ! 00000000
                CONST2                DATA           0002:00000060  ! 00000000
                _DATA                 DATA           0002:0000042c  ! 00000000
/mnt/sda5/.user/root/src/openwatcom-1.9/bld/wv/c/dbgcmdln.c
                _TEXT                 CODE           0001:0000f3a0  ! 000008ff
                CONST                 DATA           0002:00000004  ! 00000000
                CONST2                DATA           0002:00000060  ! 00000000
                _DATA                 DATA           0002:0000042c  ! 000000d1
                _BSS                  BSS            0002:000050a4  ! 0000000e
/mnt/sda5/.user/root/src/openwatcom-1.9/bld/wv/c/dbgdot.c
                _TEXT                 CODE           0001:0000fca0  ! 0000011a
                CONST                 DATA           0002:00000004  ! 00000000
                CONST2                DATA           0002:00000060  ! 00000000
                _DATA                 DATA           0002:00000500  ! 00000000
                _BSS                  BSS            0002:000050b4  ! 00000010
/mnt/sda5/.user/root/src/openwatcom-1.9/bld/wv/c/dbgexec.c
                _TEXT                 CODE           0001:0000fdc0  ! 00000c8c
                CONST                 DATA           0002:00000004  ! 00000000
                CONST2                DATA           0002:00000060  ! 00000000
                _DATA                 DATA           0002:00000500  ! 00000008
                _BSS                  BSS            0002:000050c4  ! 00000004
/mnt/sda5/.user/root/src/openwatcom-1.9/bld/wv/c/dbgexpr.c
                _TEXT                 CODE           0001:00010a50  ! 00000f6e
                CONST                 DATA           0002:00000004  ! 00000000
                CONST2                DATA           0002:00000060  ! 00000000
                _DATA                 DATA           0002:00000510  ! 000000f4
/mnt/sda5/.user/root/src/openwatcom-1.9/bld/wv/c/dbgexpr2.c
                _TEXT                 CODE           0001:000119c0  ! 000009a1
                CONST                 DATA           0002:00000004  ! 00000000
                CONST2                DATA           0002:00000060  ! 00000000
                _DATA                 DATA           0002:00000604  ! 00000000
/mnt/sda5/.user/root/src/openwatcom-1.9/bld/wv/c/dbgexpr3.c
                _TEXT                 CODE           0001:00012370  ! 0000108a
                CONST                 DATA           0002:00000004  ! 00000000
                CONST2                DATA           0002:00000060  ! 00000000
                _DATA                 DATA           0002:00000604  ! 00000231
/mnt/sda5/.user/root/src/openwatcom-1.9/bld/wv/c/dbgexpr4.c
                _TEXT                 CODE           0001:00013400  ! 00002095
                CONST                 DATA           0002:00000004  ! 00000000
                CONST2                DATA           0002:00000060  ! 00000000
                _DATA                 DATA           0002:00000838  ! 00000000
                _BSS                  BSS            0002:000050c8  ! 00000400
/mnt/sda5/.user/root/src/openwatcom-1.9/bld/wv/c/dbgfile.c
                _TEXT                 CODE           0001:000154a0  ! 00000b84
                CONST                 DATA           0002:00000004  ! 00000000
                CONST2                DATA           0002:00000060  ! 00000000
                _DATA                 DATA           0002:00000838  ! 00000000
                _BSS                  BSS            0002:000054c8  ! 000001c4
/mnt/sda5/.user/root/src/openwatcom-1.9/bld/wv/c/dbghook.c
                _TEXT                 CODE           0001:00016030  ! 0000026e
                CONST                 DATA           0002:00000004  ! 00000000
                CONST2                DATA           0002:00000060  ! 00000000
                _DATA                 DATA           0002:00000838  ! 0000005f
                _BSS                  BSS            0002:0000568c  ! 0000002d
/mnt/sda5/.user/root/src/openwatcom-1.9/bld/wv/c/dbginvk.c
                _TEXT                 CODE           0001:000162a0  ! 00000652
                CONST                 DATA           0002:00000004  ! 00000000
                CONST2                DATA           0002:00000060  ! 00000000
                _DATA                 DATA           0002:00000898  ! 00000000
                _BSS                  BSS            0002:000056bc  ! 00000005
/mnt/sda5/.user/root/src/openwatcom-1.9/bld/wv/c/dbglkup.c
                _TEXT                 CODE           0001:00016900  ! 00000a42
                CONST                 DATA           0002:00000004  ! 00000000
                CONST2                DATA           0002:00000060  ! 00000000
                _DATA                 DATA           0002:00000898  ! 0000001c
                _BSS                  BSS            0002:000056c4  ! 00000008
/mnt/sda5/.user/root/src/openwatcom-1.9/bld/wv/c/dbgloc.c
                _TEXT                 CODE           0001:00017350  ! 00000c51
                CONST                 DATA           0002:00000004  ! 00000000
                CONST2                DATA           0002:00000060  ! 00000000
                _DATA                 DATA           0002:000008b4  ! 00000000
/mnt/sda5/.user/root/src/openwatcom-1.9/bld/wv/c/dbglog.c
                _TEXT                 CODE           0001:00017fb0  ! 00000225
                CONST                 DATA           0002:00000004  ! 00000000
                CONST2                DATA           0002:00000060  ! 00000000
                _DATA                 DATA           0002:000008b4  ! 0000000e
                _BSS                  BSS            0002:000056cc  ! 00000004
/mnt/sda5/.user/root/src/openwatcom-1.9/bld/wv/c/dbgmain.c
                _TEXT                 CODE           0001:000181e0  ! 00000866
                CONST                 DATA           0002:00000004  ! 00000000
                CONST2                DATA           0002:00000060  ! 00000000
                _DATA                 DATA           0002:000008c4  ! 000000e8
                _BSS                  BSS            0002:000056d0  ! 0000000d
/mnt/sda5/.user/root/src/openwatcom-1.9/bld/wv/c/dbgmem.c
                _TEXT                 CODE           0001:00018a50  ! 000003e3
                CONST                 DATA           0002:00000004  ! 00000000
                CONST2                DATA           0002:00000060  ! 00000000
                _DATA                 DATA           0002:000009ac  ! 00000064
/mnt/sda5/.user/root/src/openwatcom-1.9/bld/wv/c/memtypes.c
                _TEXT                 CODE           0001:00018e40  ! 00000295
                CONST                 DATA           0002:00000004  ! 00000000
                CONST2                DATA           0002:00000060  ! 00000000
                _DATA                 DATA           0002:00000a10  ! 00000000
/mnt/sda5/.user/root/src/openwatcom-1.9/bld/wv/c/dbgmisc.c
                _TEXT                 CODE           0001:000190e0  ! 00000cd2
                CONST                 DATA           0002:00000004  ! 00000000
                CONST2                DATA           0002:00000060  ! 00000000
                _DATA                 DATA           0002:00000a10  ! 0000003a
/mnt/sda5/.user/root/src/openwatcom-1.9/bld/wv/c/dbgovl.c
                _TEXT                 CODE           0001:00019dc0  ! 000003b2
                CONST                 DATA           0002:00000004  ! 00000000
                CONST2                DATA           0002:00000060  ! 00000000
                _DATA                 DATA           0002:00000a4c  ! 00000000
                _BSS                  BSS            0002:000056e0  ! 0000000d
/mnt/sda5/.user/root/src/openwatcom-1.9/bld/wv/c/dbgparse.c
                _TEXT                 CODE           0001:0001a180  ! 000004a8
                CONST                 DATA           0002:00000004  ! 00000000
                CONST2                DATA           0002:00000060  ! 00000000
                _DATA                 DATA           0002:00000a4c  ! 00000000
                _BSS                  BSS            0002:000056f0  ! 00000010
/mnt/sda5/.user/root/src/openwatcom-1.9/bld/wv/c/dbgprint.c
                _TEXT                 CODE           0001:0001a630  ! 0000161b
                CONST                 DATA           0002:00000004  ! 00000000
                CONST2                DATA           0002:00000060  ! 00000000
                _DATA                 DATA           0002:00000a4c  ! 00000010
                _BSS                  BSS            0002:00005700  ! 0000040e
/mnt/sda5/.user/root/src/openwatcom-1.9/bld/wv/c/dbgreg.c
                _TEXT                 CODE           0001:0001bc50  ! 00001431
                CONST                 DATA           0002:00000004  ! 00000000
                CONST2                DATA           0002:00000060  ! 00000000
                _DATA                 DATA           0002:00000a5c  ! 00000008
                _BSS                  BSS            0002:00005b10  ! 0000000d
/mnt/sda5/.user/root/src/openwatcom-1.9/bld/wv/c/dbgscan.c
                _TEXT                 CODE           0001:0001d090  ! 000010f5
                CONST                 DATA           0002:00000004  ! 00000000
                CONST2                DATA           0002:00000060  ! 00000000
                _DATA                 DATA           0002:00000a64  ! 0000002d
                _BSS                  BSS            0002:00005b20  ! 00000020
/mnt/sda5/.user/root/src/openwatcom-1.9/bld/wv/c/dbgshow.c
                _TEXT                 CODE           0001:0001e190  ! 00000365
                CONST                 DATA           0002:00000004  ! 00000000
                CONST2                DATA           0002:00000060  ! 00000000
                _DATA                 DATA           0002:00000a94  ! 0000007c
/mnt/sda5/.user/root/src/openwatcom-1.9/bld/wv/c/dbgsrc.c
                _TEXT                 CODE           0001:0001e500  ! 000003f9
                CONST                 DATA           0002:00000004  ! 00000000
                CONST2                DATA           0002:00000060  ! 00000000
                _DATA                 DATA           0002:00000b10  ! 00000005
/mnt/sda5/.user/root/src/openwatcom-1.9/bld/wv/c/dbgstdio.c
                _TEXT                 CODE           0001:0001e900  ! 000000e7
                CONST                 DATA           0002:00000004  ! 00000000
                CONST2                DATA           0002:00000060  ! 00000000
                _DATA                 DATA           0002:00000b18  ! 00000000
/mnt/sda5/.user/root/src/openwatcom-1.9/bld/wv/c/dbgsys.c
                _TEXT                 CODE           0001:0001e9f0  ! 00000104
                CONST                 DATA           0002:00000004  ! 00000000
                CONST2                DATA           0002:00000060  ! 00000000
                _DATA                 DATA           0002:00000b18  ! 0000000e
/mnt/sda5/.user/root/src/openwatcom-1.9/bld/wv/c/dbgutil.c
                _TEXT                 CODE           0001:0001eb00  ! 00000a98
                CONST                 DATA           0002:00000004  ! 00000000
                CONST2                DATA           0002:00000060  ! 00000000
                _DATA                 DATA           0002:00000b28  ! 00000000
/mnt/sda5/.user/root/src/openwatcom-1.9/bld/wv/c/dbg_dbg.c
                _TEXT                 CODE           0001:0001f5a0  ! 00000a2e
                CONST                 DATA           0002:00000004  ! 00000000
                CONST2                DATA           0002:00000060  ! 00000000
                _DATA                 DATA           0002:00000b28  ! 00000000
                _BSS                  BSS            0002:00005b40  ! 00000004
/mnt/sda5/.user/root/src/openwatcom-1.9/bld/wv/c/dbgprog.c
                _TEXT                 CODE           0001:0001ffd0  ! 00002366
                CONST                 DATA           0002:00000004  ! 00000000
                CONST2                DATA           0002:00000060  ! 00000000
                _DATA                 DATA           0002:00000b28  ! 0000002f
                _BSS                  BSS            0002:00005b44  ! 00000810
/mnt/sda5/.user/root/src/openwatcom-1.9/bld/wv/c/strutil.c
                _TEXT                 CODE           0001:00022340  ! 000003a1
                CONST                 DATA           0002:00000004  ! 00000000
                CONST2                DATA           0002:00000060  ! 00000000
                _DATA                 DATA           0002:00000b58  ! 00000000
/mnt/sda5/.user/root/src/openwatcom-1.9/bld/wv/c/stub.c
                _TEXT                 CODE           0001:000226f0  ! 00000017
                CONST                 DATA           0002:00000004  ! 00000000
                CONST2                DATA           0002:00000060  ! 00000000
                _DATA                 DATA           0002:00000b58  ! 00000000
/mnt/sda5/.user/root/src/openwatcom-1.9/bld/wv/c/dbgwalk.c
                _TEXT                 CODE           0001:00022710  ! 000002f8
                CONST                 DATA           0002:00000004  ! 00000000
                CONST2                DATA           0002:00000060  ! 00000000
                _DATA                 DATA           0002:00000b58  ! 00000000
                _BSS                  BSS            0002:00006354  ! 00000004
/mnt/sda5/.user/root/src/openwatcom-1.9/bld/wv/c/dynmem.c
                _TEXT                 CODE           0001:00022a10  ! 00000249
                CONST                 DATA           0002:00000004  ! 00000000
                CONST2                DATA           0002:00000060  ! 00000000
                _DATA                 DATA           0002:00000b58  ! 00000000
/mnt/sda5/.user/root/src/openwatcom-1.9/bld/wv/c/dbgsem.c
                _TEXT                 CODE           0001:00022c60  ! 00001e29
                CONST                 DATA           0002:00000004  ! 00000000
                CONST2                DATA           0002:00000060  ! 00000000
                _DATA                 DATA           0002:00000b58  ! 00000001
                _BSS                  BSS            0002:00006358  ! 00000088
/mnt/sda5/.user/root/src/openwatcom-1.9/bld/wv/c/dbgtrace.c
                _TEXT                 CODE           0001:00024a90  ! 00000f97
                CONST                 DATA           0002:00000004  ! 00000000
                CONST2                DATA           0002:00000060  ! 00000000
                _DATA                 DATA           0002:00000b5c  ! 00000028
                _BSS                  BSS            0002:000063e0  ! 00000058
/mnt/sda5/.user/root/src/openwatcom-1.9/bld/wv/c/dbgexins.c
                _TEXT                 CODE           0001:00025a30  ! 0000005f
                CONST                 DATA           0002:00000004  ! 00000000
                CONST2                DATA           0002:00000060  ! 00000000
                _DATA                 DATA           0002:00000b84  ! 00000000
/mnt/sda5/.user/root/src/openwatcom-1.9/bld/wv/c/dbgexdat.c
                _TEXT                 CODE           0001:00025a90  ! 00000190
                CONST                 DATA           0002:00000004  ! 00000000
                CONST2                DATA           0002:00000060  ! 00000000
                _DATA                 DATA           0002:00000b84  ! 00000011
/mnt/sda5/.user/root/src/openwatcom-1.9/bld/wv/c/dbgmodfy.c
                _TEXT                 CODE           0001:00025c20  ! 000001bd
                CONST                 DATA           0002:00000004  ! 00000000
                CONST2                DATA           0002:00000060  ! 00000000
                _DATA                 DATA           0002:00000b98  ! 00000000
/mnt/sda5/.user/root/src/openwatcom-1.9/bld/wv/c/dbgtback.c
                _TEXT                 CODE           0001:00025de0  ! 00000291
                CONST                 DATA           0002:00000004  ! 00000000
                CONST2                DATA           0002:00000060  ! 00000000
                _DATA                 DATA           0002:00000b98  ! 00000000
                _BSS                  BSS            0002:00006438  ! 00000004
/mnt/sda5/.user/root/src/openwatcom-1.9/bld/wv/c/dbgerr.c
                _TEXT                 CODE           0001:00026080  ! 00000256
                CONST                 DATA           0002:00000004  ! 00000000
                CONST2                DATA           0002:00000060  ! 00000000
                _DATA                 DATA           0002:00000b98  ! 00000000
/mnt/sda5/.user/root/src/openwatcom-1.9/bld/wv/c/namelist.c
                _TEXT                 CODE           0001:000262e0  ! 00000549
                CONST                 DATA           0002:00000004  ! 00000000
                CONST2                DATA           0002:00000060  ! 00000000
                _DATA                 DATA           0002:00000b98  ! 00000000
/mnt/sda5/.user/root/src/openwatcom-1.9/bld/wv/c/modlist.c
                _TEXT                 CODE           0001:00026830  ! 00000363
                CONST                 DATA           0002:00000004  ! 00000000
                CONST2                DATA           0002:00000060  ! 00000000
                _DATA                 DATA           0002:00000b98  ! 00000000
/mnt/sda5/.user/root/src/openwatcom-1.9/bld/watcom/c/sortlist.c
                _TEXT                 CODE           0001:00026ba0  ! 000001d6
                CONST                 DATA           0002:00000004  ! 00000000
                CONST2                DATA           0002:00000060  ! 00000000
                _DATA                 DATA           0002:00000b98  ! 00000000
/mnt/sda5/.user/root/src/openwatcom-1.9/bld/wv/c/remmisc.c
                _TEXT                 CODE           0001:00026d80  ! 00000325
                CONST                 DATA           0002:00000004  ! 00000000
                CONST2                DATA           0002:00000060  ! 00000000
                _DATA                 DATA           0002:00000b98  ! 00000000
                _BSS                  BSS            0002:0000643c  ! 00000005
/mnt/sda5/.user/root/src/openwatcom-1.9/bld/wv/c/remcore.c
                _TEXT                 CODE           0001:000270b0  ! 00000f17
                CONST                 DATA           0002:00000004  ! 00000000
                CONST2                DATA           0002:00000060  ! 00000000
                _DATA                 DATA           0002:00000b98  ! 00000004
                _BSS                  BSS            0002:00006444  ! 00000010
/mnt/sda5/.user/root/src/openwatcom-1.9/bld/wv/c/remfinfo.c
                _TEXT                 CODE           0001:00027fd0  ! 0000017a
                CONST                 DATA           0002:00000004  ! 00000000
                CONST2                DATA           0002:00000060  ! 00000000
                _DATA                 DATA           0002:00000b9c  ! 00000000
                _BSS                  BSS            0002:00006454  ! 00000004
/mnt/sda5/.user/root/src/openwatcom-1.9/bld/wv/c/remenv.c
                _TEXT                 CODE           0001:00028150  ! 00000184
                CONST                 DATA           0002:00000004  ! 00000000
                CONST2                DATA           0002:00000060  ! 00000000
                _DATA                 DATA           0002:00000b9c  ! 00000000
                _BSS                  BSS            0002:00006458  ! 00000004
/mnt/sda5/.user/root/src/openwatcom-1.9/bld/wv/c/remfile.c
                _TEXT                 CODE           0001:000282e0  ! 0000081f
                CONST                 DATA           0002:00000004  ! 00000000
                CONST2                DATA           0002:00000060  ! 00000000
                _DATA                 DATA           0002:00000b9c  ! 00000000
                _BSS                  BSS            0002:0000645c  ! 0000008a
/mnt/sda5/.user/root/src/openwatcom-1.9/bld/wv/c/remthrd.c
                _TEXT                 CODE           0001:00028b00  ! 00000212
                CONST                 DATA           0002:00000004  ! 00000000
                CONST2                DATA           0002:00000060  ! 00000000
                _DATA                 DATA           0002:00000b9c  ! 00000000
                _BSS                  BSS            0002:000064e8  ! 00000004
/mnt/sda5/.user/root/src/openwatcom-1.9/bld/wv/c/removl.c
                _TEXT                 CODE           0001:00028d20  ! 00000391
                CONST                 DATA           0002:00000004  ! 00000000
                CONST2                DATA           0002:00000060  ! 00000000
                _DATA                 DATA           0002:00000b9c  ! 00000000
                _BSS                  BSS            0002:000064ec  ! 00000004
/mnt/sda5/.user/root/src/openwatcom-1.9/bld/wv/c/ldsupp.c
                _TEXT                 CODE           0001:000290c0  ! 000001f7
                CONST                 DATA           0002:00000004  ! 00000000
                CONST2                DATA           0002:00000060  ! 00000000
                _DATA                 DATA           0002:00000b9c  ! 00000000
/mnt/sda5/.user/root/src/openwatcom-1.9/bld/wv/c/doserr.c
                _TEXT                 CODE           0001:000292c0  ! 00000033
                CONST                 DATA           0002:00000004  ! 00000000
                CONST2                DATA           0002:00000060  ! 00000000
                _DATA                 DATA           0002:00000b9c  ! 00000048
/mnt/sda5/.user/root/src/openwatcom-1.9/bld/wv/c/diginter.c
                _TEXT                 CODE           0001:00029300  ! 000000c7
                CONST                 DATA           0002:00000004  ! 00000000
                CONST2                DATA           0002:00000060  ! 00000000
                _DATA                 DATA           0002:00000be4  ! 00000000
/mnt/sda5/.user/root/src/openwatcom-1.9/bld/wv/c/dipinter.c
                _TEXT                 CODE           0001:000293d0  ! 00000a7e
                CONST                 DATA           0002:00000004  ! 00000000
                CONST2                DATA           0002:00000060  ! 00000000
                _DATA                 DATA           0002:00000be4  ! 0000016c
/mnt/sda5/.user/root/src/openwatcom-1.9/bld/wv/c/madinter.c
                _TEXT                 CODE           0001:00029e50  ! 00000755
                CONST                 DATA           0002:00000004  ! 00000000
                CONST2                DATA           0002:00000060  ! 00000000
                _DATA                 DATA           0002:00000d50  ! 00000138
                _BSS                  BSS            0002:000064f0  ! 00000002
/mnt/sda5/.user/root/src/openwatcom-1.9/bld/wv/c/dbglit.c
                _TEXT                 CODE           0001:0002a5b0  ! 0000001a
                CONST                 DATA           0002:00000004  ! 00000000
                CONST2                DATA           0002:00000060  ! 00000000
                _DATA                 DATA           0002:00000e88  ! 00000000
/mnt/sda5/.user/root/src/openwatcom-1.9/bld/wv/c/dbginsty.c
                _TEXT                 CODE           0001:0002a5d0  ! 00000307
                CONST                 DATA           0002:00000004  ! 00000000
                CONST2                DATA           0002:00000060  ! 00000000
                _DATA                 DATA           0002:00000e88  ! 00000000
/mnt/sda5/.user/root/src/openwatcom-1.9/bld/wv/c/dbgdata.c
                _TEXT                 CODE           0001:0002a8e0  ! 00000000
                CONST                 DATA           0002:00000004  ! 00000000
                CONST2                DATA           0002:00000060  ! 00000000
                _DATA                 DATA           0002:00000e88  ! 00000446
                _BSS                  BSS            0002:00006500  ! 000002a8
/mnt/sda5/.user/root/src/openwatcom-1.9/bld/wv/c/dbgevent.c
                _TEXT                 CODE           0001:0002a8e0  ! 000005e0
                CONST                 DATA           0002:00000004  ! 00000000
                CONST2                DATA           0002:00000060  ! 00000000
                _DATA                 DATA           0002:000012d0  ! 00000000
                _BSS                  BSS            0002:000067a8  ! 00000008
/mnt/sda5/.user/root/src/openwatcom-1.9/bld/wv/c/dbgdll.c
                _TEXT                 CODE           0001:0002aec0  ! 000001c1
                CONST                 DATA           0002:00000004  ! 00000000
                CONST2                DATA           0002:00000060  ! 00000000
                _DATA                 DATA           0002:000012d0  ! 00000000
                _BSS                  BSS            0002:000067b0  ! 00000004
/mnt/sda5/.user/root/src/openwatcom-1.9/bld/wv/c/dlgscan.c
                _TEXT                 CODE           0001:0002b090  ! 0000020d
                CONST                 DATA           0002:00000004  ! 00000000
                CONST2                DATA           0002:00000060  ! 00000000
                _DATA                 DATA           0002:000012d0  ! 00000000
/mnt/sda5/.user/root/src/openwatcom-1.9/bld/wv/c/dbgset.c
                _TEXT                 CODE           0001:0002b2a0  ! 000012a0
                CONST                 DATA           0002:00000004  ! 00000000
                CONST2                DATA           0002:00000060  ! 00000000
                _DATA                 DATA           0002:000012d0  ! 0000024b
                _BSS                  BSS            0002:000067b4  ! 00000018
/mnt/sda5/.user/root/src/openwatcom-1.9/bld/watcom/c/srcmgt.c
                _TEXT                 CODE           0001:0002c540  ! 0000053b
                CONST                 DATA           0002:00000004  ! 00000000
                CONST2                DATA           0002:00000060  ! 00000000
                _DATA                 DATA           0002:0000151c  ! 00000004
/mnt/sda5/.user/root/src/openwatcom-1.9/bld/wv/c/dbgupdt.c
                _TEXT                 CODE           0001:0002ca80  ! 00000104
                CONST                 DATA           0002:00000004  ! 00000000
                CONST2                DATA           0002:00000060  ! 00000000
                _DATA                 DATA           0002:00001520  ! 00000000
/mnt/sda5/.user/root/src/openwatcom-1.9/bld/wv/c/symcomp.c
                _TEXT                 CODE           0001:0002cb90  ! 000001ed
                CONST                 DATA           0002:00000004  ! 00000000
                CONST2                DATA           0002:00000060  ! 00000000
                _DATA                 DATA           0002:00001520  ! 00000004
/mnt/sda5/.user/root/src/openwatcom-1.9/bld/wv/c/litengin.c
                _TEXT                 CODE           0001:0002cd80  ! 00001826
                CONST                 DATA           0002:00000004  ! 00000000
                CONST2                DATA           0002:00000060  ! 00000000
                _DATA                 DATA           0002:00001524  ! 00000000
                _BSS                  BSS            0002:000067cc  ! 000003dc
/mnt/sda5/.user/root/src/openwatcom-1.9/bld/wv/c/litwd.c
                _TEXT                 CODE           0001:0002e5b0  ! 00000cb4
                CONST                 DATA           0002:00000004  ! 00000000
                CONST2                DATA           0002:00000060  ! 00000000
                _DATA                 DATA           0002:00001524  ! 00000000
                _BSS                  BSS            0002:00006ba8  ! 00000208
/mnt/sda5/.user/root/src/openwatcom-1.9/bld/wv/c/dui.c
                _TEXT                 CODE           0001:0002f270  ! 000004b5
                CONST                 DATA           0002:00000004  ! 00000000
                CONST2                DATA           0002:00000060  ! 00000000
                _DATA                 DATA           0002:00001524  ! 00000000
/mnt/sda5/.user/root/src/openwatcom-1.9/bld/wv/c/dbgwset.c
                _TEXT                 CODE           0001:0002f730  ! 000009f6
                CONST                 DATA           0002:00000004  ! 00000000
                CONST2                DATA           0002:00000060  ! 00000000
                _DATA                 DATA           0002:00001524  ! 000004c4
                _BSS                  BSS            0002:00006db0  ! 00000014
/mnt/sda5/.user/root/src/openwatcom-1.9/bld/wv/c/dbginsp.c
                _TEXT                 CODE           0001:00030130  ! 00000791
                CONST                 DATA           0002:00000004  ! 00000000
                CONST2                DATA           0002:00000060  ! 00000000
                _DATA                 DATA           0002:000019e8  ! 00000000
/mnt/sda5/.user/root/src/openwatcom-1.9/bld/wv/c/dbgicon.c
                _TEXT                 CODE           0001:000308d0  ! 00000064
                CONST                 DATA           0002:00000004  ! 00000000
                CONST2                DATA           0002:00000060  ! 00000000
                _DATA                 DATA           0002:000019e8  ! 000000c0
/mnt/sda5/.user/root/src/openwatcom-1.9/bld/wv/c/dbgdisp.c
                _TEXT                 CODE           0001:00030940  ! 00000c26
                CONST                 DATA           0002:00000004  ! 00000000
                CONST2                DATA           0002:00000060  ! 00000000
                _DATA                 DATA           0002:00001aa8  ! 00000049
                _BSS                  BSS            0002:00006dc4  ! 00000268
/mnt/sda5/.user/root/src/openwatcom-1.9/bld/wv/c/dbgpaint.c
                _TEXT                 CODE           0001:00031570  ! 00000711
                CONST                 DATA           0002:00000004  ! 00000000
                CONST2                DATA           0002:00000060  ! 00000000
                _DATA                 DATA           0002:00001af4  ! 000001bd
                _BSS                  BSS            0002:0000702c  ! 00000078
/mnt/sda5/.user/root/src/openwatcom-1.9/bld/wv/c/dbgcap.c
                _TEXT                 CODE           0001:00031c90  ! 0000011a
                CONST                 DATA           0002:00000004  ! 00000000
                CONST2                DATA           0002:00000060  ! 00000000
                _DATA                 DATA           0002:00001cb4  ! 00000014
                _BSS                  BSS            0002:000070a4  ! 00000001
/mnt/sda5/.user/root/src/openwatcom-1.9/bld/wv/c/wndalloc.c
                _TEXT                 CODE           0001:00031db0  ! 00000065
                CONST                 DATA           0002:00000004  ! 00000000
                CONST2                DATA           0002:00000060  ! 00000000
                _DATA                 DATA           0002:00001cc8  ! 00000000
/mnt/sda5/.user/root/src/openwatcom-1.9/bld/wv/c/dlgambig.c
                _TEXT                 CODE           0001:00031e20  ! 00000059
                CONST                 DATA           0002:00000004  ! 00000000
                CONST2                DATA           0002:00000060  ! 00000000
                _DATA                 DATA           0002:00001cc8  ! 00000000
/mnt/sda5/.user/root/src/openwatcom-1.9/bld/wv/c/dlgscomp.c
                _TEXT                 CODE           0001:00031e80  ! 000001e5
                CONST                 DATA           0002:00000004  ! 00000000
                CONST2                DATA           0002:00000060  ! 00000000
                _DATA                 DATA           0002:00001cc8  ! 00000000
                _BSS                  BSS            0002:000070a8  ! 00000004
/mnt/sda5/.user/root/src/openwatcom-1.9/bld/wv/c/modcomp.c
                _TEXT                 CODE           0001:00032070  ! 00000136
                CONST                 DATA           0002:00000004  ! 00000000
                CONST2                DATA           0002:00000060  ! 00000000
                _DATA                 DATA           0002:00001cc8  ! 00000000
/mnt/sda5/.user/root/src/openwatcom-1.9/bld/wv/c/wndsys.c
                _TEXT                 CODE           0001:000321b0  ! 000009d1
                CONST                 DATA           0002:00000004  ! 00000000
                CONST2                DATA           0002:00000060  ! 00000000
                _DATA                 DATA           0002:00001cc8  ! 00000424
                _BSS                  BSS            0002:000070ac  ! 00000004
/mnt/sda5/.user/root/src/openwatcom-1.9/bld/wv/c/wnddump.c
                _TEXT                 CODE           0001:00032b90  ! 00000351
                CONST                 DATA           0002:00000004  ! 00000000
                CONST2                DATA           0002:00000060  ! 00000000
                _DATA                 DATA           0002:000020ec  ! 00000000
/mnt/sda5/.user/root/src/openwatcom-1.9/bld/wv/c/dbgintrn.c
                _TEXT                 CODE           0001:00032ef0  ! 00000000
                CONST                 DATA           0002:00000004  ! 00000000
                CONST2                DATA           0002:00000060  ! 00000000
                _DATA                 DATA           0002:000020ec  ! 00000000
/mnt/sda5/.user/root/src/openwatcom-1.9/bld/wv/c/dlgabout.c
                _TEXT                 CODE           0001:00032ef0  ! 00000072
                CONST                 DATA           0002:00000004  ! 00000000
                CONST2                DATA           0002:00000060  ! 00000000
                _DATA                 DATA           0002:000020ec  ! 00000000
/mnt/sda5/.user/root/src/openwatcom-1.9/bld/wv/c/dlgstk.c
                _TEXT                 CODE           0001:00032f70  ! 0000010f
                CONST                 DATA           0002:00000004  ! 00000000
                CONST2                DATA           0002:00000060  ! 00000000
                _DATA                 DATA           0002:000020ec  ! 00000000
/mnt/sda5/.user/root/src/openwatcom-1.9/bld/wv/c/dlgayn.c
                _TEXT                 CODE           0001:00033080  ! 000000a7
                CONST                 DATA           0002:00000004  ! 00000000
                CONST2                DATA           0002:00000060  ! 00000000
                _DATA                 DATA           0002:000020ec  ! 00000000
/mnt/sda5/.user/root/src/openwatcom-1.9/bld/wv/c/dlgsrc.c
                _TEXT                 CODE           0001:00033130  ! 0000002f
                CONST                 DATA           0002:00000004  ! 00000000
                CONST2                DATA           0002:00000060  ! 00000000
                _DATA                 DATA           0002:000020ec  ! 00000000
/mnt/sda5/.user/root/src/openwatcom-1.9/bld/wv/c/dlgdll.c
                _TEXT                 CODE           0001:00033160  ! 0000002f
                CONST                 DATA           0002:00000004  ! 00000000
                CONST2                DATA           0002:00000060  ! 00000000
                _DATA                 DATA           0002:000020ec  ! 00000000
/mnt/sda5/.user/root/src/openwatcom-1.9/bld/wv/c/dlglist.c
                _TEXT                 CODE           0001:00033190  ! 00000336
                CONST                 DATA           0002:00000004  ! 00000000
                CONST2                DATA           0002:00000060  ! 00000000
                _DATA                 DATA           0002:000020ec  ! 00000000
/mnt/sda5/.user/root/src/openwatcom-1.9/bld/wv/c/dlgfile.c
                _TEXT                 CODE           0001:000334d0  ! 00000661
                CONST                 DATA           0002:00000004  ! 00000000
                CONST2                DATA           0002:00000060  ! 00000000
                _DATA                 DATA           0002:000020ec  ! 00000015
                _BSS                  BSS            0002:000070b0  ! 00000018
/mnt/sda5/.user/root/src/openwatcom-1.9/bld/wv/c/dlgnewp.c
                _TEXT                 CODE           0001:00033b40  ! 000001b1
                CONST                 DATA           0002:00000004  ! 00000000
                CONST2                DATA           0002:00000060  ! 00000000
                _DATA                 DATA           0002:00002104  ! 00000000
                _BSS                  BSS            0002:000070c8  ! 00000800
/mnt/sda5/.user/root/src/openwatcom-1.9/bld/wv/c/dlgexpr.c
                _TEXT                 CODE           0001:00033d00  ! 0000034f
                CONST                 DATA           0002:00000004  ! 00000000
                CONST2                DATA           0002:00000060  ! 00000000
                _DATA                 DATA           0002:00002104  ! 00000000
/mnt/sda5/.user/root/src/openwatcom-1.9/bld/wv/c/dlgbreak.c
                _TEXT                 CODE           0001:00034050  ! 000009ba
                CONST                 DATA           0002:00000004  ! 00000000
                CONST2                DATA           0002:00000060  ! 00000000
                _DATA                 DATA           0002:00002104  ! 00000000
/mnt/sda5/.user/root/src/openwatcom-1.9/bld/wv/c/dlgvarx.c
                _TEXT                 CODE           0001:00034a10  ! 0000019f
                CONST                 DATA           0002:00000004  ! 00000000
                CONST2                DATA           0002:00000060  ! 00000000
                _DATA                 DATA           0002:00002104  ! 00000000
/mnt/sda5/.user/root/src/openwatcom-1.9/bld/wv/c/dlgcmd.c
                _TEXT                 CODE           0001:00034bb0  ! 00000140
                CONST                 DATA           0002:00000004  ! 00000000
                CONST2                DATA           0002:00000060  ! 00000000
                _DATA                 DATA           0002:00002104  ! 00000000
/mnt/sda5/.user/root/src/openwatcom-1.9/bld/wv/c/dlgnewws.c
                _TEXT                 CODE           0001:00034cf0  ! 000000da
                CONST                 DATA           0002:00000004  ! 00000000
                CONST2                DATA           0002:00000060  ! 00000000
                _DATA                 DATA           0002:00002104  ! 000000a0
                _BSS                  BSS            0002:000078c8  ! 00000004
/mnt/sda5/.user/root/src/openwatcom-1.9/bld/wv/c/wndhelp.c
                _TEXT                 CODE           0001:00034dd0  ! 0000010b
                CONST                 DATA           0002:00000004  ! 00000000
                CONST2                DATA           0002:00000060  ! 00000000
                _DATA                 DATA           0002:000021a4  ! 00000000
                _BSS                  BSS            0002:000078cc  ! 00000004
/mnt/sda5/.user/root/src/openwatcom-1.9/bld/wv/c/wndmenu.c
                _TEXT                 CODE           0001:00034ee0  ! 000011ed
                CONST                 DATA           0002:00000004  ! 00000000
                CONST2                DATA           0002:00000060  ! 00000000
                _DATA                 DATA           0002:000021a4  ! 0000096e
                _BSS                  BSS            0002:000078d0  ! 00000018
/mnt/sda5/.user/root/src/openwatcom-1.9/bld/wv/c/dbgwfpu.c
                _TEXT                 CODE           0001:000360d0  ! 00000058
                CONST                 DATA           0002:00000004  ! 00000000
                CONST2                DATA           0002:00000060  ! 00000000
                _DATA                 DATA           0002:00002b14  ! 00000000
/mnt/sda5/.user/root/src/openwatcom-1.9/bld/wv/c/dbgwmac.c
                _TEXT                 CODE           0001:00036130  ! 00000b35
                CONST                 DATA           0002:00000004  ! 00000000
                CONST2                DATA           0002:00000060  ! 00000000
                _DATA                 DATA           0002:00002b14  ! 00000160
                _BSS                  BSS            0002:000078e8  ! 00000010
/mnt/sda5/.user/root/src/openwatcom-1.9/bld/wv/c/dbgwglob.c
                _TEXT                 CODE           0001:00036c70  ! 000002f6
                CONST                 DATA           0002:00000004  ! 00000000
                CONST2                DATA           0002:00000060  ! 00000000
                _DATA                 DATA           0002:00002c74  ! 000000b0
/mnt/sda5/.user/root/src/openwatcom-1.9/bld/wv/c/dbgwfunc.c
                _TEXT                 CODE           0001:00036f70  ! 000005ff
                CONST                 DATA           0002:00000004  ! 00000000
                CONST2                DATA           0002:00000060  ! 00000000
                _DATA                 DATA           0002:00002d24  ! 000000c8
/mnt/sda5/.user/root/src/openwatcom-1.9/bld/wv/c/dbgwcall.c
                _TEXT                 CODE           0001:00037570  ! 00000391
                CONST                 DATA           0002:00000004  ! 00000000
                CONST2                DATA           0002:00000060  ! 00000000
                _DATA                 DATA           0002:00002dec  ! 000000c8
/mnt/sda5/.user/root/src/openwatcom-1.9/bld/wv/c/dbgwmod.c
                _TEXT                 CODE           0001:00037910  ! 00000696
                CONST                 DATA           0002:00000004  ! 00000000
                CONST2                DATA           0002:00000060  ! 00000000
                _DATA                 DATA           0002:00002eb4  ! 000000e0
/mnt/sda5/.user/root/src/openwatcom-1.9/bld/wv/c/dbgwsrch.c
                _TEXT                 CODE           0001:00037fb0  ! 00000661
                CONST                 DATA           0002:00000004  ! 00000000
                CONST2                DATA           0002:00000060  ! 00000000
                _DATA                 DATA           0002:00002f94  ! 00000050
/mnt/sda5/.user/root/src/openwatcom-1.9/bld/wv/c/dbgwdlg.c
                _TEXT                 CODE           0001:00038620  ! 00000347
                CONST                 DATA           0002:00000004  ! 00000000
                CONST2                DATA           0002:00000060  ! 00000000
                _DATA                 DATA           0002:00002fe4  ! 00000048
                _BSS                  BSS            0002:000078f8  ! 00000004
/mnt/sda5/.user/root/src/openwatcom-1.9/bld/wv/c/dbgwfil.c
                _TEXT                 CODE           0001:00038970  ! 000016f1
                CONST                 DATA           0002:00000004  ! 00000000
                CONST2                DATA           0002:00000060  ! 00000000
                _DATA                 DATA           0002:0000302c  ! 00000188
/mnt/sda5/.user/root/src/openwatcom-1.9/bld/wv/c/dbgwass.c
                _TEXT                 CODE           0001:0003a070  ! 00001ef5
                CONST                 DATA           0002:00000004  ! 00000000
                CONST2                DATA           0002:00000060  ! 00000000
                _DATA                 DATA           0002:000031b4  ! 00000188
/mnt/sda5/.user/root/src/openwatcom-1.9/bld/wv/c/dbgwimg.c
                _TEXT                 CODE           0001:0003bf70  ! 00000396
                CONST                 DATA           0002:00000004  ! 00000000
                CONST2                DATA           0002:00000060  ! 00000000
                _DATA                 DATA           0002:0000333c  ! 000000c8
                _BSS                  BSS            0002:000078fc  ! 0000000c
/mnt/sda5/.user/root/src/openwatcom-1.9/bld/wv/c/dbgwbrk.c
                _TEXT                 CODE           0001:0003c310  ! 00000474
                CONST                 DATA           0002:00000004  ! 00000000
                CONST2                DATA           0002:00000060  ! 00000000
                _DATA                 DATA           0002:00003404  ! 000000f8
/mnt/sda5/.user/root/src/openwatcom-1.9/bld/wv/c/dbgwio.c
                _TEXT                 CODE           0001:0003c790  ! 00000771
                CONST                 DATA           0002:00000004  ! 00000000
                CONST2                DATA           0002:00000060  ! 00000000
                _DATA                 DATA           0002:000034fc  ! 000000cc
                _BSS                  BSS            0002:00007908  ! 00000028
/mnt/sda5/.user/root/src/openwatcom-1.9/bld/wv/c/dbgwrep.c
                _TEXT                 CODE           0001:0003cf10  ! 000002f2
                CONST                 DATA           0002:00000004  ! 00000000
                CONST2                DATA           0002:00000060  ! 00000000
                _DATA                 DATA           0002:000035c8  ! 00000080
                _BSS                  BSS            0002:00007930  ! 00000010
/mnt/sda5/.user/root/src/openwatcom-1.9/bld/wv/c/dbgwmem.c
                _TEXT                 CODE           0001:0003d210  ! 0000198e
                CONST                 DATA           0002:00000004  ! 00000000
                CONST2                DATA           0002:00000060  ! 00000000
                _DATA                 DATA           0002:00003648  ! 0000024c
                _BSS                  BSS            0002:00007940  ! 0000002c
/mnt/sda5/.user/root/src/openwatcom-1.9/bld/wv/c/dbgwregs.c
                _TEXT                 CODE           0001:0003eba0  ! 00000039
                CONST                 DATA           0002:00000004  ! 00000000
                CONST2                DATA           0002:00000060  ! 00000000
                _DATA                 DATA           0002:00003894  ! 00000000
/mnt/sda5/.user/root/src/openwatcom-1.9/bld/wv/c/dbgwmmx.c
                _TEXT                 CODE           0001:0003ebe0  ! 00000058
                CONST                 DATA           0002:00000004  ! 00000000
                CONST2                DATA           0002:00000060  ! 00000000
                _DATA                 DATA           0002:00003894  ! 00000000
/mnt/sda5/.user/root/src/openwatcom-1.9/bld/wv/c/dbgwxmm.c
                _TEXT                 CODE           0001:0003ec40  ! 00000058
                CONST                 DATA           0002:00000004  ! 00000000
                CONST2                DATA           0002:00000060  ! 00000000
                _DATA                 DATA           0002:00003894  ! 00000000
/mnt/sda5/.user/root/src/openwatcom-1.9/bld/wv/c/dbgwmadr.c
                _TEXT                 CODE           0001:0003eca0  ! 00000abe
                CONST                 DATA           0002:00000004  ! 00000000
                CONST2                DATA           0002:00000060  ! 00000000
                _DATA                 DATA           0002:00003894  ! 00000080
/mnt/sda5/.user/root/src/openwatcom-1.9/bld/wv/c/dbgwtogl.c
                _TEXT                 CODE           0001:0003f760  ! 0000010e
                CONST                 DATA           0002:00000004  ! 00000000
                CONST2                DATA           0002:00000060  ! 00000000
                _DATA                 DATA           0002:00003914  ! 00000000
/mnt/sda5/.user/root/src/openwatcom-1.9/bld/wv/c/dbgwvar.c
                _TEXT                 CODE           0001:0003f870  ! 0000169a
                CONST                 DATA           0002:00000004  ! 00000000
                CONST2                DATA           0002:00000060  ! 00000000
                _DATA                 DATA           0002:00003914  ! 000003d4
/mnt/sda5/.user/root/src/openwatcom-1.9/bld/wv/c/dbgwthrd.c
                _TEXT                 CODE           0001:00040f10  ! 000002b6
                CONST                 DATA           0002:00000004  ! 00000000
                CONST2                DATA           0002:00000060  ! 00000000
                _DATA                 DATA           0002:00003ce8  ! 00000084
/mnt/sda5/.user/root/src/openwatcom-1.9/bld/wv/c/dlgwind.c
                _TEXT                 CODE           0001:000411d0  ! 00000477
                CONST                 DATA           0002:00000004  ! 00000000
                CONST2                DATA           0002:00000060  ! 00000000
                _DATA                 DATA           0002:00003d6c  ! 00000000
/mnt/sda5/.user/root/src/openwatcom-1.9/bld/wv/c/dbgwdata.c
                _TEXT                 CODE           0001:00041650  ! 00000000
                CONST                 DATA           0002:00000004  ! 00000000
                CONST2                DATA           0002:00000060  ! 00000000
                _DATA                 DATA           0002:00003d6c  ! 00000154
                _BSS                  BSS            0002:0000796c  ! 00000004
/mnt/sda5/.user/root/src/openwatcom-1.9/bld/wv/c/dlgoptn.c
                _TEXT                 CODE           0001:00041650  ! 00000397
                CONST                 DATA           0002:00000004  ! 00000000
                CONST2                DATA           0002:00000060  ! 00000000
                _DATA                 DATA           0002:00003ec0  ! 00000000
/mnt/sda5/.user/root/src/openwatcom-1.9/bld/wv/c/dbgtool.c
                _TEXT                 CODE           0001:000419f0  ! 000000ae
                CONST                 DATA           0002:00000004  ! 00000000
                CONST2                DATA           0002:00000060  ! 00000000
                _DATA                 DATA           0002:00003ec0  ! 000000b4
/mnt/sda5/.user/root/src/openwatcom-1.9/bld/wv/c/dbgfing.c
                _TEXT                 CODE           0001:00041aa0  ! 000002d0
                CONST                 DATA           0002:00000004  ! 00000000
                CONST2                DATA           0002:00000060  ! 00000000
                _DATA                 DATA           0002:00003f74  ! 0000003c
                _BSS                  BSS            0002:00007970  ! 00000010
/mnt/sda5/.user/root/src/openwatcom-1.9/bld/aui/c/wndcreat.c
                _TEXT                 CODE           0001:00041d70  ! 00000417
                CONST                 DATA           0002:00000004  ! 00000001
                CONST2                DATA           0002:00000060  ! 00000000
                _DATA                 DATA           0002:00003fb0  ! 00000004
                _BSS                  BSS            0002:00007980  ! 00000008
/mnt/sda5/.user/root/src/openwatcom-1.9/bld/aui/c/guimain.c
                _TEXT                 CODE           0001:00042190  ! 00000c2e
                CONST                 DATA           0002:00000008  ! 00000001
                CONST2                DATA           0002:00000060  ! 00000000
                _DATA                 DATA           0002:00003fb4  ! 00000012
                _BSS                  BSS            0002:00007988  ! 00000029
/mnt/sda5/.user/root/src/openwatcom-1.9/bld/gui/win/c/guigsysh.c
                _TEXT                 CODE           0001:00042dc0  ! 00000036
                CONST                 DATA           0002:0000000c  ! 00000000
                CONST2                DATA           0002:00000060  ! 00000000
                _DATA                 DATA           0002:00003fc8  ! 00000000
/mnt/sda5/.user/root/src/openwatcom-1.9/bld/gui/win/c/guixwind.c
                _TEXT                 CODE           0001:00042e00  ! 00001536
                CONST                 DATA           0002:0000000c  ! 00000000
                CONST2                DATA           0002:00000060  ! 00000000
                _DATA                 DATA           0002:00003fc8  ! 00000064
                _BSS                  BSS            0002:000079b4  ! 00000051
/mnt/sda5/.user/root/src/openwatcom-1.9/bld/aui/c/wndmem.c
                _TEXT                 CODE           0001:00044340  ! 0000003b
                CONST                 DATA           0002:0000000c  ! 00000000
                CONST2                DATA           0002:00000060  ! 00000000
                _DATA                 DATA           0002:0000402c  ! 00000000
ldcvt.c         _TEXT                 CODE           0001:0004437b  ! 00000ad3
                CONST                 DATA           0002:0000000c  ! 00000000
                CONST2                DATA           0002:00000060  ! 00000000
                _DATA                 DATA           0002:0000402c  ! 000000a8
fchop87         _TEXT                 CODE           0001:00044e50  ! 00000017
                _DATA                 DATA           0002:000040d4  ! 00000000
386             _TEXT                 CODE           0001:00044e68  ! 00000002
                _DATA                 DATA           0002:000040d4  ! 00000000
                XIB                   DATA           0002:00004da4  ! 00000000
                XI                    DATA           0002:00004da4  ! 00000006
                XIE                   DATA           0002:00004de0  ! 00000000
                YIB                   DATA           0002:00004de0  ! 00000000
                YI                    DATA           0002:00004de0  ! 00000006
                YIE                   DATA           0002:00004dfe  ! 00000000
gcvt.c          _TEXT                 CODE           0001:00044e6a  ! 000000fe
                CONST                 DATA           0002:0000000c  ! 00000000
                CONST2                DATA           0002:00000060  ! 00000000
                _DATA                 DATA           0002:000040d4  ! 00000000
strtod.c        _TEXT                 CODE           0001:00044f68  ! 000007bf
                CONST                 DATA           0002:0000000c  ! 00000000
                CONST2                DATA           0002:00000060  ! 00000000
                _DATA                 DATA           0002:000040d4  ! 00000000
/mnt/sda5/.user/root/src/openwatcom-1.9/bld/aui/c/wndstat.c
                _TEXT                 CODE           0001:00045730  ! 0000015b
                CONST                 DATA           0002:0000000c  ! 00000000
                CONST2                DATA           0002:00000060  ! 00000000
                _DATA                 DATA           0002:000040d4  ! 00000000
                _BSS                  BSS            0002:00007a08  ! 00000051
/mnt/sda5/.user/root/src/openwatcom-1.9/bld/aui/c/wndhist.c
                _TEXT                 CODE           0001:00045890  ! 00000337
                CONST                 DATA           0002:0000000c  ! 00000000
                CONST2                DATA           0002:00000060  ! 00000000
                _DATA                 DATA           0002:000040d4  ! 00000000
/mnt/sda5/.user/root/src/openwatcom-1.9/bld/aui/c/wnddirt.c
                _TEXT                 CODE           0001:00045bd0  ! 000006e3
                CONST                 DATA           0002:0000000c  ! 00000002
                CONST2                DATA           0002:00000060  ! 00000000
                _DATA                 DATA           0002:000040d4  ! 00000001
/mnt/sda5/.user/root/src/openwatcom-1.9/bld/aui/c/wndshrnk.c
                _TEXT                 CODE           0001:000462c0  ! 000002b7
                CONST                 DATA           0002:00000010  ! 00000000
                CONST2                DATA           0002:00000060  ! 00000000
                _DATA                 DATA           0002:000040d8  ! 00000000
/mnt/sda5/.user/root/src/openwatcom-1.9/bld/gui/c/guiisgui.c
                _TEXT                 CODE           0001:00046580  ! 00000003
                CONST                 DATA           0002:00000010  ! 00000000
                CONST2                DATA           0002:00000060  ! 00000000
                _DATA                 DATA           0002:000040d8  ! 00000000
/mnt/sda5/.user/root/src/openwatcom-1.9/bld/gui/win/c/guismetr.c
                _TEXT                 CODE           0001:00046590  ! 00000171
                CONST                 DATA           0002:00000010  ! 00000000
                CONST2                DATA           0002:00000060  ! 00000000
                _DATA                 DATA           0002:000040d8  ! 00000000
/mnt/sda5/.user/root/src/openwatcom-1.9/bld/aui/c/wndmsg.c
                _TEXT                 CODE           0001:00046710  ! 00000024
                CONST                 DATA           0002:00000010  ! 00000000
                CONST2                DATA           0002:00000060  ! 00000000
                _DATA                 DATA           0002:000040d8  ! 00000000
/mnt/sda5/.user/root/src/openwatcom-1.9/bld/aui/c/wndldstr.c
                _TEXT                 CODE           0001:00046740  ! 00000060
                CONST                 DATA           0002:00000010  ! 00000000
                CONST2                DATA           0002:00000060  ! 00000000
                _DATA                 DATA           0002:000040d8  ! 00000000
/mnt/sda5/.user/root/src/openwatcom-1.9/bld/gui/win/c/guiclen.c
                _TEXT                 CODE           0001:000467a0  ! 000000d1
                CONST                 DATA           0002:00000010  ! 00000000
                CONST2                DATA           0002:00000060  ! 00000000
                _DATA                 DATA           0002:000040d8  ! 00000000
                _BSS                  BSS            0002:00007a5c  ! 00000102
/mnt/sda5/.user/root/src/openwatcom-1.9/bld/aui/c/wndutil.c
                _TEXT                 CODE           0001:00046880  ! 000002e1
                CONST                 DATA           0002:00000010  ! 00000000
                CONST2                DATA           0002:00000060  ! 00000000
                _DATA                 DATA           0002:000040d8  ! 00000000
/mnt/sda5/.user/root/src/openwatcom-1.9/bld/aui/c/wndfront.c
                _TEXT                 CODE           0001:00046b70  ! 00000098
                CONST                 DATA           0002:00000010  ! 00000000
                CONST2                DATA           0002:00000060  ! 00000000
                _DATA                 DATA           0002:000040d8  ! 00000000
/mnt/sda5/.user/root/src/openwatcom-1.9/bld/aui/c/dlgsrch.c
                _TEXT                 CODE           0001:00046c10  ! 00000543
                CONST                 DATA           0002:00000010  ! 0000000e
                CONST2                DATA           0002:00000060  ! 00000000
                _DATA                 DATA           0002:000040d8  ! 0000002a
/mnt/sda5/.user/root/src/openwatcom-1.9/bld/aui/c/wndcurr.c
                _TEXT                 CODE           0001:00047160  ! 000007f9
                CONST                 DATA           0002:00000020  ! 00000000
                CONST2                DATA           0002:00000060  ! 00000000
                _DATA                 DATA           0002:00004104  ! 00000000
/mnt/sda5/.user/root/src/openwatcom-1.9/bld/aui/c/wndpaint.c
                _TEXT                 CODE           0001:00047960  ! 000005af
                CONST                 DATA           0002:00000020  ! 00000002
                CONST2                DATA           0002:00000060  ! 00000000
                _DATA                 DATA           0002:00004104  ! 00000000
/mnt/sda5/.user/root/src/openwatcom-1.9/bld/aui/c/wndcrsr.c
                _TEXT                 CODE           0001:00047f10  ! 00000530
                CONST                 DATA           0002:00000024  ! 00000000
                CONST2                DATA           0002:00000060  ! 00000000
                _DATA                 DATA           0002:00004104  ! 00000000
/mnt/sda5/.user/root/src/openwatcom-1.9/bld/aui/c/wndfont.c
                _TEXT                 CODE           0001:00048440  ! 00000069
                CONST                 DATA           0002:00000024  ! 00000000
                CONST2                DATA           0002:00000060  ! 00000000
                _DATA                 DATA           0002:00004104  ! 00000000
/mnt/sda5/.user/root/src/openwatcom-1.9/bld/gui/c/guimem.c
                _TEXT                 CODE           0001:000484b0  ! 00000035
                CONST                 DATA           0002:00000024  ! 00000000
                CONST2                DATA           0002:00000060  ! 00000000
                _DATA                 DATA           0002:00004104  ! 00000000
/mnt/sda5/.user/root/src/openwatcom-1.9/bld/aui/c/wndrect.c
                _TEXT                 CODE           0001:000484f0  ! 00000179
                CONST                 DATA           0002:00000024  ! 00000000
                CONST2                DATA           0002:00000060  ! 00000000
                _DATA                 DATA           0002:00004104  ! 00000000
/mnt/sda5/.user/root/src/openwatcom-1.9/bld/gui/win/c/guifont.c
                _TEXT                 CODE           0001:00048670  ! 00000013
                CONST                 DATA           0002:00000024  ! 00000000
                CONST2                DATA           0002:00000060  ! 00000000
                _DATA                 DATA           0002:00004104  ! 00000000
/mnt/sda5/.user/root/src/openwatcom-1.9/bld/gui/c/guimin.c
                _TEXT                 CODE           0001:00048690  ! 0000001c
                CONST                 DATA           0002:00000024  ! 00000000
                CONST2                DATA           0002:00000060  ! 00000000
                _DATA                 DATA           0002:00004104  ! 00000000
/mnt/sda5/.user/root/src/openwatcom-1.9/bld/aui/c/wndtool.c
                _TEXT                 CODE           0001:000486b0  ! 00000144
                CONST                 DATA           0002:00000024  ! 00000000
                CONST2                DATA           0002:00000060  ! 00000000
                _DATA                 DATA           0002:00004104  ! 00000001
                _BSS                  BSS            0002:00007b60  ! 00000004
/mnt/sda5/.user/root/src/openwatcom-1.9/bld/gui/win/c/guistub.c
                _TEXT                 CODE           0001:00048800  ! 00000036
                CONST                 DATA           0002:00000024  ! 00000000
                CONST2                DATA           0002:00000060  ! 00000000
                _DATA                 DATA           0002:00004108  ! 00000000
/mnt/sda5/.user/root/src/openwatcom-1.9/bld/aui/c/wndcolor.c
                _TEXT                 CODE           0001:00048840  ! 00000087
                CONST                 DATA           0002:00000024  ! 00000000
                CONST2                DATA           0002:00000060  ! 00000000
                _DATA                 DATA           0002:00004108  ! 00000000
/mnt/sda5/.user/root/src/openwatcom-1.9/bld/aui/c/dlgpick.c
                _TEXT                 CODE           0001:000488d0  ! 000000bc
                CONST                 DATA           0002:00000024  ! 00000000
                CONST2                DATA           0002:00000060  ! 00000000
                _DATA                 DATA           0002:00004108  ! 00000000
                _BSS                  BSS            0002:00007b64  ! 00000010
/mnt/sda5/.user/root/src/openwatcom-1.9/bld/gui/c/guipick.c
                _TEXT                 CODE           0001:00048990  ! 0000012d
                CONST                 DATA           0002:00000024  ! 00000000
                CONST2                DATA           0002:00000060  ! 00000000
                _DATA                 DATA           0002:00004108  ! 00000078
/mnt/sda5/.user/root/src/openwatcom-1.9/bld/aui/c/wnddlg.c
                _TEXT                 CODE           0001:00048ac0  ! 00000121
                CONST                 DATA           0002:00000024  ! 00000000
                CONST2                DATA           0002:00000060  ! 00000000
                _DATA                 DATA           0002:00004180  ! 00000044
                _BSS                  BSS            0002:00007b74  ! 00000028
/mnt/sda5/.user/root/src/openwatcom-1.9/bld/gui/c/guindlg.c
                _TEXT                 CODE           0001:00048bf0  ! 00000428
                CONST                 DATA           0002:00000024  ! 00000000
                CONST2                DATA           0002:00000060  ! 00000000
                _DATA                 DATA           0002:000041c4  ! 00000061
/mnt/sda5/.user/root/src/openwatcom-1.9/bld/gui/win/c/guifocus.c
                _TEXT                 CODE           0001:00049020  ! 000000f3
                CONST                 DATA           0002:00000024  ! 00000000
                CONST2                DATA           0002:00000060  ! 00000000
                _DATA                 DATA           0002:00004228  ! 00000000
/mnt/sda5/.user/root/src/openwatcom-1.9/bld/gui/win/c/guixtext.c
                _TEXT                 CODE           0001:00049120  ! 000003c4
                CONST                 DATA           0002:00000024  ! 00000000
                CONST2                DATA           0002:00000060  ! 00000000
                _DATA                 DATA           0002:00004228  ! 00000000
/mnt/sda5/.user/root/src/openwatcom-1.9/bld/aui/c/wndsrch.c
                _TEXT                 CODE           0001:000494f0  ! 000006fa
                CONST                 DATA           0002:00000024  ! 00000001
                CONST2                DATA           0002:00000060  ! 00000000
                _DATA                 DATA           0002:00004228  ! 00000001
/mnt/sda5/.user/root/src/openwatcom-1.9/bld/aui/c/wndpop.c
                _TEXT                 CODE           0001:00049bf0  ! 00000c6b
                CONST                 DATA           0002:00000028  ! 00000000
                CONST2                DATA           0002:00000060  ! 00000000
                _DATA                 DATA           0002:0000422c  ! 00000000
/mnt/sda5/.user/root/src/openwatcom-1.9/bld/gui/win/c/guispawn.c
                _TEXT                 CODE           0001:0004a860  ! 00000001
                CONST                 DATA           0002:00000028  ! 00000000
                CONST2                DATA           0002:00000060  ! 00000000
                _DATA                 DATA           0002:0000422c  ! 00000000
/mnt/sda5/.user/root/src/openwatcom-1.9/bld/aui/c/wndgadgt.c
                _TEXT                 CODE           0001:0004a870  ! 00000062
                CONST                 DATA           0002:00000028  ! 00000000
                CONST2                DATA           0002:00000060  ! 00000000
                _DATA                 DATA           0002:0000422c  ! 00000002
/mnt/sda5/.user/root/src/openwatcom-1.9/bld/gui/c/guihot.c
                _TEXT                 CODE           0001:0004a8e0  ! 000000ca
                CONST                 DATA           0002:00000028  ! 00000000
                CONST2                DATA           0002:00000060  ! 00000000
                _DATA                 DATA           0002:00004230  ! 00000000
                _BSS                  BSS            0002:00007b9c  ! 00000004
/mnt/sda5/.user/root/src/openwatcom-1.9/bld/gui/win/c/guiflush.c
                _TEXT                 CODE           0001:0004a9b0  ! 00000045
                CONST                 DATA           0002:00000028  ! 00000000
                CONST2                DATA           0002:00000060  ! 00000000
                _DATA                 DATA           0002:00004230  ! 00000000
/mnt/sda5/.user/root/src/openwatcom-1.9/bld/aui/c/wndmeth.c
                _TEXT                 CODE           0001:0004aa00  ! 00000559
                CONST                 DATA           0002:00000028  ! 00000001
                CONST2                DATA           0002:00000060  ! 00000000
                _DATA                 DATA           0002:00004230  ! 00000038
                _BSS                  BSS            0002:00007ba0  ! 00001134
/mnt/sda5/.user/root/src/openwatcom-1.9/bld/gui/c/guiextra.c
                _TEXT                 CODE           0001:0004af60  ! 00000014
                CONST                 DATA           0002:0000002c  ! 00000000
                CONST2                DATA           0002:00000060  ! 00000000
                _DATA                 DATA           0002:00004268  ! 00000000
/mnt/sda5/.user/root/src/openwatcom-1.9/bld/gui/win/c/guixdlg.c
                _TEXT                 CODE           0001:0004af80  ! 00000cc3
                CONST                 DATA           0002:0000002c  ! 00000000
                CONST2                DATA           0002:00000060  ! 00000000
                _DATA                 DATA           0002:00004268  ! 00000018
                _BSS                  BSS            0002:00008cd4  ! 000000e8
/mnt/sda5/.user/root/src/openwatcom-1.9/bld/gui/win/c/guiclear.c
                _TEXT                 CODE           0001:0004bc50  ! 00000086
                CONST                 DATA           0002:0000002c  ! 00000000
                CONST2                DATA           0002:00000060  ! 00000000
                _DATA                 DATA           0002:00004280  ! 00000000
/mnt/sda5/.user/root/src/openwatcom-1.9/bld/gui/win/c/guistext.c
                _TEXT                 CODE           0001:0004bce0  ! 00000053
                CONST                 DATA           0002:0000002c  ! 00000000
                CONST2                DATA           0002:00000060  ! 00000000
                _DATA                 DATA           0002:00004280  ! 00000000
/mnt/sda5/.user/root/src/openwatcom-1.9/bld/aui/c/wndfdlg.c
                _TEXT                 CODE           0001:0004bd40  ! 0000015a
                CONST                 DATA           0002:0000002c  ! 00000002
                CONST2                DATA           0002:00000060  ! 00000000
                _DATA                 DATA           0002:00004280  ! 00000000
/mnt/sda5/.user/root/src/openwatcom-1.9/bld/gui/win/c/guicontr.c
                _TEXT                 CODE           0001:0004bea0  ! 000008b2
                CONST                 DATA           0002:00000030  ! 00000000
                CONST2                DATA           0002:00000060  ! 00000000
                _DATA                 DATA           0002:00004280  ! 00000094
/mnt/sda5/.user/root/src/openwatcom-1.9/bld/aui/c/dlgnew.c
                _TEXT                 CODE           0001:0004c760  ! 00000146
                CONST                 DATA           0002:00000030  ! 00000001
                CONST2                DATA           0002:00000060  ! 00000000
                _DATA                 DATA           0002:00004314  ! 00000078
/mnt/sda5/.user/root/src/openwatcom-1.9/bld/gui/win/c/guicheck.c
                _TEXT                 CODE           0001:0004c8b0  ! 00000060
                CONST                 DATA           0002:00000034  ! 00000000
                CONST2                DATA           0002:00000060  ! 00000000
                _DATA                 DATA           0002:0000438c  ! 00000000
/mnt/sda5/.user/root/src/openwatcom-1.9/bld/gui/win/c/guihelp.c
                _TEXT                 CODE           0001:0004c910  ! 00000243
                CONST                 DATA           0002:00000034  ! 00000000
                CONST2                DATA           0002:00000060  ! 00000000
                _DATA                 DATA           0002:0000438c  ! 00000000
/mnt/sda5/.user/root/src/openwatcom-1.9/bld/aui/c/wndsel.c
                _TEXT                 CODE           0001:0004cb60  ! 000004e5
                CONST                 DATA           0002:00000034  ! 00000000
                CONST2                DATA           0002:00000060  ! 00000000
                _DATA                 DATA           0002:0000438c  ! 00000000
                _BSS                  BSS            0002:00008dbc  ! 00000008
/mnt/sda5/.user/root/src/openwatcom-1.9/bld/aui/c/wndscrol.c
                _TEXT                 CODE           0001:0004d050  ! 00000370
                CONST                 DATA           0002:00000034  ! 00000000
                CONST2                DATA           0002:00000060  ! 00000000
                _DATA                 DATA           0002:0000438c  ! 00000000
/mnt/sda5/.user/root/src/openwatcom-1.9/bld/aui/c/wndchar.c
                _TEXT                 CODE           0001:0004d3c0  ! 0000006c
                CONST                 DATA           0002:00000034  ! 00000004
                CONST2                DATA           0002:00000060  ! 00000000
                _DATA                 DATA           0002:0000438c  ! 00000004
/mnt/sda5/.user/root/src/openwatcom-1.9/bld/gui/c/guiwnclr.c
                _TEXT                 CODE           0001:0004d430  ! 0000007a
                CONST                 DATA           0002:00000038  ! 00000000
                CONST2                DATA           0002:00000060  ! 00000000
                _DATA                 DATA           0002:00004390  ! 0000001c
/mnt/sda5/.user/root/src/openwatcom-1.9/bld/gui/win/c/guicolor.c
                _TEXT                 CODE           0001:0004d4b0  ! 000002f3
                CONST                 DATA           0002:00000038  ! 00000000
                CONST2                DATA           0002:00000060  ! 00000000
                _DATA                 DATA           0002:000043ac  ! 00000054
/mnt/sda5/.user/root/src/openwatcom-1.9/bld/gui/c/guicreat.c
                _TEXT                 CODE           0001:0004d7b0  ! 00000051
                CONST                 DATA           0002:00000038  ! 00000000
                CONST2                DATA           0002:00000060  ! 00000000
                _DATA                 DATA           0002:00004400  ! 00000001
/mnt/sda5/.user/root/src/openwatcom-1.9/bld/gui/win/c/guimenus.c
                _TEXT                 CODE           0001:0004d810  ! 0000121e
                CONST                 DATA           0002:00000038  ! 00000000
                CONST2                DATA           0002:00000060  ! 00000000
                _DATA                 DATA           0002:00004404  ! 00000034
/mnt/sda5/.user/root/src/openwatcom-1.9/bld/gui/win/c/guisicon.c
                _TEXT                 CODE           0001:0004ea30  ! 00000084
                CONST                 DATA           0002:00000038  ! 00000000
                CONST2                DATA           0002:00000060  ! 00000000
                _DATA                 DATA           0002:00004438  ! 00000000
/mnt/sda5/.user/root/src/openwatcom-1.9/bld/gui/win/c/guidbclk.c
                _TEXT                 CODE           0001:0004eac0  ! 00000012
                CONST                 DATA           0002:00000038  ! 00000000
                CONST2                DATA           0002:00000060  ! 00000000
                _DATA                 DATA           0002:00004438  ! 00000000
/mnt/sda5/.user/root/src/openwatcom-1.9/bld/gui/c/guirscal.c
                _TEXT                 CODE           0001:0004eae0  ! 00000060
                CONST                 DATA           0002:00000038  ! 00000000
                CONST2                DATA           0002:00000060  ! 00000000
                _DATA                 DATA           0002:00004438  ! 00000000
/mnt/sda5/.user/root/src/openwatcom-1.9/bld/gui/c/guiscale.c
                _TEXT                 CODE           0001:0004eb40  ! 00000273
                CONST                 DATA           0002:00000038  ! 00000000
                CONST2                DATA           0002:00000060  ! 00000000
                _DATA                 DATA           0002:00004438  ! 00000000
                _BSS                  BSS            0002:00008dc4  ! 00000020
/mnt/sda5/.user/root/src/openwatcom-1.9/bld/aui/c/wndstyle.c
                _TEXT                 CODE           0001:0004edc0  ! 00000000
                CONST                 DATA           0002:00000038  ! 00000000
                CONST2                DATA           0002:00000060  ! 00000000
                _DATA                 DATA           0002:00004438  ! 00000001
/mnt/sda5/.user/root/src/openwatcom-1.9/bld/gui/c/guiimmdi.c
                _TEXT                 CODE           0001:0004edc0  ! 0000004d
                CONST                 DATA           0002:00000038  ! 00000000
                CONST2                DATA           0002:00000060  ! 00000000
                _DATA                 DATA           0002:0000443c  ! 00000000
/mnt/sda5/.user/root/src/openwatcom-1.9/bld/gui/win/c/gui3ddlg.c
                _TEXT                 CODE           0001:0004ee10  ! 00000003
                CONST                 DATA           0002:00000038  ! 00000000
                CONST2                DATA           0002:00000060  ! 00000000
                _DATA                 DATA           0002:0000443c  ! 00000000
/mnt/sda5/.user/root/src/openwatcom-1.9/bld/aui/c/wndbgch.c
                _TEXT                 CODE           0001:0004ee20  ! 00000000
                CONST                 DATA           0002:00000038  ! 00000000
                CONST2                DATA           0002:00000060  ! 00000000
                _DATA                 DATA           0002:0000443c  ! 00000001
/mnt/sda5/.user/root/src/openwatcom-1.9/bld/gui/win/c/guigetnr.c
                _TEXT                 CODE           0001:0004ee20  ! 00000004
                CONST                 DATA           0002:00000038  ! 00000000
                CONST2                DATA           0002:00000060  ! 00000000
                _DATA                 DATA           0002:00004440  ! 00000000
/mnt/sda5/.user/root/src/openwatcom-1.9/bld/gui/win/c/guitextm.c
                _TEXT                 CODE           0001:0004ee30  ! 0000005c
                CONST                 DATA           0002:00000038  ! 00000000
                CONST2                DATA           0002:00000060  ! 00000000
                _DATA                 DATA           0002:00004440  ! 00000000
/mnt/sda5/.user/root/src/openwatcom-1.9/bld/gui/win/c/guicrect.c
                _TEXT                 CODE           0001:0004ee90  ! 00000154
                CONST                 DATA           0002:00000038  ! 00000000
                CONST2                DATA           0002:00000060  ! 00000000
                _DATA                 DATA           0002:00004440  ! 00000000
/mnt/sda5/.user/root/src/openwatcom-1.9/bld/gui/win/c/guirange.c
                _TEXT                 CODE           0001:0004eff0  ! 000001ad
                CONST                 DATA           0002:00000038  ! 00000000
                CONST2                DATA           0002:00000060  ! 00000000
                _DATA                 DATA           0002:00004440  ! 00000000
/mnt/sda5/.user/root/src/openwatcom-1.9/bld/gui/win/c/guicursr.c
                _TEXT                 CODE           0001:0004f1a0  ! 00000049
                CONST                 DATA           0002:00000038  ! 00000000
                CONST2                DATA           0002:00000060  ! 00000000
                _DATA                 DATA           0002:00004440  ! 00000000
/mnt/sda5/.user/root/src/openwatcom-1.9/bld/aui/c/wndchoos.c
                _TEXT                 CODE           0001:0004f1f0  ! 00000454
                CONST                 DATA           0002:00000038  ! 00000000
                CONST2                DATA           0002:00000060  ! 00000000
                _DATA                 DATA           0002:00004440  ! 00000000
/mnt/sda5/.user/root/src/openwatcom-1.9/bld/aui/c/wndmouse.c
                _TEXT                 CODE           0001:0004f650  ! 00000530
                CONST                 DATA           0002:00000038  ! 00000000
                CONST2                DATA           0002:00000060  ! 00000000
                _DATA                 DATA           0002:00004440  ! 00000000
                _BSS                  BSS            0002:00008de4  ! 0000003b
/mnt/sda5/.user/root/src/openwatcom-1.9/bld/gui/win/c/guistat.c
                _TEXT                 CODE           0001:0004fb80  ! 000003a6
                CONST                 DATA           0002:00000038  ! 00000000
                CONST2                DATA           0002:00000060  ! 00000000
                _DATA                 DATA           0002:00004440  ! 00000000
/mnt/sda5/.user/root/src/openwatcom-1.9/bld/aui/c/wndqryhk.c
                _TEXT                 CODE           0001:0004ff30  ! 00000003
                CONST                 DATA           0002:00000038  ! 00000000
                CONST2                DATA           0002:00000060  ! 00000000
                _DATA                 DATA           0002:00004440  ! 00000000
/mnt/sda5/.user/root/src/openwatcom-1.9/bld/aui/c/wndendhk.c
                _TEXT                 CODE           0001:0004ff40  ! 00000001
                CONST                 DATA           0002:00000038  ! 00000000
                CONST2                DATA           0002:00000060  ! 00000000
                _DATA                 DATA           0002:00004440  ! 00000000
/mnt/sda5/.user/root/src/openwatcom-1.9/bld/gui/win/c/guixutil.c
                _TEXT                 CODE           0001:0004ff50  ! 00000bf8
                CONST                 DATA           0002:00000038  ! 00000000
                CONST2                DATA           0002:00000060  ! 00000000
                _DATA                 DATA           0002:00004440  ! 00000000
/mnt/sda5/.user/root/src/openwatcom-1.9/bld/gui/win/c/guiclass.c
                _TEXT                 CODE           0001:00050b50  ! 00000006
                CONST                 DATA           0002:00000038  ! 00000000
                CONST2                DATA           0002:00000060  ! 00000000
                _DATA                 DATA           0002:00004440  ! 00000000
/mnt/sda5/.user/root/src/openwatcom-1.9/bld/gui/c/guizlist.c
                _TEXT                 CODE           0001:00050b60  ! 000000f7
                CONST                 DATA           0002:00000038  ! 00000000
                CONST2                DATA           0002:00000060  ! 00000000
                _DATA                 DATA           0002:00004440  ! 00000004
/mnt/sda5/.user/root/src/openwatcom-1.9/bld/wpi/c/wpi_os2.c
                _TEXT                 CODE           0001:00050c60  ! 00003360
                CONST                 DATA           0002:00000038  ! 00000000
                CONST2                DATA           0002:00000060  ! 00000000
                _DATA                 DATA           0002:00004444  ! 00000020
                _BSS                  BSS            0002:00008e20  ! 00000038
/mnt/sda5/.user/root/src/openwatcom-1.9/bld/gui/c/guideath.c
                _TEXT                 CODE           0001:00053fc0  ! 00000006
                CONST                 DATA           0002:00000038  ! 00000000
                CONST2                DATA           0002:00000060  ! 00000000
                _DATA                 DATA           0002:00004464  ! 00000000
/mnt/sda5/.user/root/src/openwatcom-1.9/bld/gui/c/guihook.c
                _TEXT                 CODE           0001:00053fd0  ! 00000204
                CONST                 DATA           0002:00000038  ! 00000000
                CONST2                DATA           0002:00000060  ! 00000000
                _DATA                 DATA           0002:00004464  ! 0000002c
/mnt/sda5/.user/root/src/openwatcom-1.9/bld/gui/win/c/guixhook.c
                _TEXT                 CODE           0001:000541e0  ! 000001b1
                CONST                 DATA           0002:00000038  ! 00000000
                CONST2                DATA           0002:00000060  ! 00000000
                _DATA                 DATA           0002:00004490  ! 00000024
/mnt/sda5/.user/root/src/openwatcom-1.9/bld/gui/c/guistr.c
                _TEXT                 CODE           0001:000543a0  ! 0000072f
                CONST                 DATA           0002:00000038  ! 00000000
                CONST2                DATA           0002:00000060  ! 00000000
                _DATA                 DATA           0002:000044b4  ! 00000000
                _BSS                  BSS            0002:00008e58  ! 00000080
/mnt/sda5/.user/root/src/openwatcom-1.9/bld/gui/win/c/guildstr.c
                _TEXT                 CODE           0001:00054ad0  ! 0000009a
                CONST                 DATA           0002:00000038  ! 00000000
                CONST2                DATA           0002:00000060  ! 00000000
                _DATA                 DATA           0002:000044b4  ! 00000002
/mnt/sda5/.user/root/src/openwatcom-1.9/bld/gui/win/c/guixmain.c
                _TEXT                 CODE           0001:00054b70  ! 00000006
                CONST                 DATA           0002:00000038  ! 00000000
                CONST2                DATA           0002:00000060  ! 00000000
                _DATA                 DATA           0002:000044b8  ! 00000001
/mnt/sda5/.user/root/src/openwatcom-1.9/bld/gui/win/c/guirdlg.c
                _TEXT                 CODE           0001:00054b80  ! 00000203
                CONST                 DATA           0002:00000038  ! 00000000
                CONST2                DATA           0002:00000060  ! 00000000
                _DATA                 DATA           0002:000044bc  ! 000000d0
                _BSS                  BSS            0002:00008ed8  ! 00000008
/mnt/sda5/.user/root/src/openwatcom-1.9/bld/gui/c/guiutil.c
                _TEXT                 CODE           0001:00054d90  ! 00000175
                CONST                 DATA           0002:00000038  ! 00000000
                CONST2                DATA           0002:00000060  ! 00000000
                _DATA                 DATA           0002:0000458c  ! 0000000c
/mnt/sda5/.user/root/src/openwatcom-1.9/bld/gui/c/guifcrck.c
                _TEXT                 CODE           0001:00054f10  ! 00000003
                CONST                 DATA           0002:00000038  ! 00000000
                CONST2                DATA           0002:00000060  ! 00000000
                _DATA                 DATA           0002:00004598  ! 00000000
/mnt/sda5/.user/root/src/openwatcom-1.9/bld/gui/win/c/guiwinlp.c
                _TEXT                 CODE           0001:00054f20  ! 00000064
                CONST                 DATA           0002:00000038  ! 00000000
                CONST2                DATA           0002:00000060  ! 00000000
                _DATA                 DATA           0002:00004598  ! 00000000
/mnt/sda5/.user/root/src/openwatcom-1.9/bld/gui/c/guidead.c
                _TEXT                 CODE           0001:00054f90  ! 00000006
                CONST                 DATA           0002:00000038  ! 00000000
                CONST2                DATA           0002:00000060  ! 00000000
                _DATA                 DATA           0002:00004598  ! 00000000
/mnt/sda5/.user/root/src/openwatcom-1.9/bld/gui/c/guisdef.c
                _TEXT                 CODE           0001:00054fa0  ! 00000000
                CONST                 DATA           0002:00000038  ! 00000000
                CONST2                DATA           0002:00000060  ! 00000000
                _DATA                 DATA           0002:00004598  ! 00000000
                _BSS                  BSS            0002:00008ee0  ! 00000118
/mnt/sda5/.user/root/src/openwatcom-1.9/bld/gui/win/c/guipaint.c
                _TEXT                 CODE           0001:00054fa0  ! 00000251
                CONST                 DATA           0002:00000038  ! 00000000
                CONST2                DATA           0002:00000060  ! 00000000
                _DATA                 DATA           0002:00004598  ! 00000000
/mnt/sda5/.user/root/src/openwatcom-1.9/bld/gui/c/guihint.c
                _TEXT                 CODE           0001:00055200  ! 000005b8
                CONST                 DATA           0002:00000038  ! 00000000
                CONST2                DATA           0002:00000060  ! 00000000
                _DATA                 DATA           0002:00004598  ! 00000000
/mnt/sda5/.user/root/src/openwatcom-1.9/bld/gui/win/c/guisize.c
                _TEXT                 CODE           0001:000557c0  ! 0000039a
                CONST                 DATA           0002:00000038  ! 00000000
                CONST2                DATA           0002:00000060  ! 00000000
                _DATA                 DATA           0002:00004598  ! 00000000
/mnt/sda5/.user/root/src/openwatcom-1.9/bld/gui/win/c/guitool.c
                _TEXT                 CODE           0001:00055b60  ! 00000a73
                CONST                 DATA           0002:00000038  ! 00000000
                CONST2                DATA           0002:00000060  ! 00000000
                _DATA                 DATA           0002:00004598  ! 00000000
/mnt/sda5/.user/root/src/openwatcom-1.9/bld/gui/win/c/guiscrol.c
                _TEXT                 CODE           0001:000565e0  ! 00000696
                CONST                 DATA           0002:00000038  ! 00000000
                CONST2                DATA           0002:00000060  ! 00000000
                _DATA                 DATA           0002:00004598  ! 00000000
/mnt/sda5/.user/root/src/openwatcom-1.9/bld/gui/win/c/guifront.c
                _TEXT                 CODE           0001:00056c80  ! 00000168
                CONST                 DATA           0002:00000038  ! 00000000
                CONST2                DATA           0002:00000060  ! 00000000
                _DATA                 DATA           0002:00004598  ! 00000000
/mnt/sda5/.user/root/src/openwatcom-1.9/bld/gui/c/guihtool.c
                _TEXT                 CODE           0001:00056df0  ! 00000143
                CONST                 DATA           0002:00000038  ! 00000000
                CONST2                DATA           0002:00000060  ! 00000000
                _DATA                 DATA           0002:00004598  ! 00000000
/mnt/sda5/.user/root/src/openwatcom-1.9/bld/gui/win/c/guimapky.c
                _TEXT                 CODE           0001:00056f40  ! 000007c1
                CONST                 DATA           0002:00000038  ! 00000000
                CONST2                DATA           0002:00000060  ! 00000000
                _DATA                 DATA           0002:00004598  ! 0000013a
/mnt/sda5/.user/root/src/openwatcom-1.9/bld/gui/win/c/guisystr.c
                _TEXT                 CODE           0001:00057710  ! 00000001
                CONST                 DATA           0002:00000038  ! 00000000
                CONST2                DATA           0002:00000060  ! 00000000
                _DATA                 DATA           0002:000046d4  ! 00000000
ldclass.c       _TEXT                 CODE           0001:00057711  ! 0000005f
                CONST                 DATA           0002:00000038  ! 00000000
                CONST2                DATA           0002:00000060  ! 00000000
                _DATA                 DATA           0002:000046d4  ! 00000000
bufld386        _TEXT                 CODE           0001:00057770  ! 000000a3
                _DATA                 DATA           0002:000046d4  ! 00000000
seterrno.c      _TEXT                 CODE           0001:00057813  ! 0000004b
                CONST                 DATA           0002:00000038  ! 00000000
                CONST2                DATA           0002:00000060  ! 00000000
                _DATA                 DATA           0002:000046d4  ! 00000000
inf_nan.c       _TEXT                 CODE           0001:0005785e  ! 00000028
                CONST                 DATA           0002:00000038  ! 00000000
                CONST2                DATA           0002:00000060  ! 00000000
                _DATA                 DATA           0002:000046d4  ! 00000000
hugeval.c       _TEXT                 CODE           0001:00057890  ! 00000008
                CONST                 DATA           0002:00000038  ! 00000000
                CONST2                DATA           0002:00000060  ! 00000000
                _DATA                 DATA           0002:000046d4  ! 00000000
/mnt/sda5/.user/root/src/openwatcom-1.9/bld/aui/c/wndfref.c
                _TEXT                 CODE           0001:000578a0  ! 0000000c
                CONST                 DATA           0002:00000038  ! 00000000
                CONST2                DATA           0002:00000060  ! 00000000
                _DATA                 DATA           0002:000046d4  ! 00000000
/mnt/sda5/.user/root/src/openwatcom-1.9/bld/gui/win/c/guidrect.c
                _TEXT                 CODE           0001:000578b0  ! 000000a5
                CONST                 DATA           0002:00000038  ! 00000000
                CONST2                DATA           0002:00000060  ! 00000000
                _DATA                 DATA           0002:000046d4  ! 00000000
/mnt/sda5/.user/root/src/openwatcom-1.9/bld/gui/win/c/guidrow.c
                _TEXT                 CODE           0001:00057960  ! 000000ec
                CONST                 DATA           0002:00000038  ! 00000000
                CONST2                DATA           0002:00000060  ! 00000000
                _DATA                 DATA           0002:000046d4  ! 00000000
/mnt/sda5/.user/root/src/openwatcom-1.9/bld/gui/win/c/guiiscrl.c
                _TEXT                 CODE           0001:00057a50  ! 00000104
                CONST                 DATA           0002:00000038  ! 00000000
                CONST2                DATA           0002:00000060  ! 00000000
                _DATA                 DATA           0002:000046d4  ! 00000000
/mnt/sda5/.user/root/src/openwatcom-1.9/bld/gui/c/guidraw.c
                _TEXT                 CODE           0001:00057b60  ! 000001bf
                CONST                 DATA           0002:00000038  ! 00000000
                CONST2                DATA           0002:00000060  ! 00000000
                _DATA                 DATA           0002:000046d4  ! 00000000
/mnt/sda5/.user/root/src/openwatcom-1.9/bld/gui/win/c/guidoscr.c
                _TEXT                 CODE           0001:00057d20  ! 00000234
                CONST                 DATA           0002:00000038  ! 00000000
                CONST2                DATA           0002:00000060  ! 00000000
                _DATA                 DATA           0002:000046d4  ! 00000000
/mnt/sda5/.user/root/src/openwatcom-1.9/bld/gui/win/c/guidirty.c
                _TEXT                 CODE           0001:00057f60  ! 00000090
                CONST                 DATA           0002:00000038  ! 00000000
                CONST2                DATA           0002:00000060  ! 00000000
                _DATA                 DATA           0002:000046d4  ! 00000000
/mnt/sda5/.user/root/src/openwatcom-1.9/bld/gui/c/guipixel.c
                _TEXT                 CODE           0001:00057ff0  ! 00000017
                CONST                 DATA           0002:00000038  ! 00000000
                CONST2                DATA           0002:00000060  ! 00000000
                _DATA                 DATA           0002:000046d4  ! 00000000
/mnt/sda5/.user/root/src/openwatcom-1.9/bld/gui/win/c/guixtent.c
                _TEXT                 CODE           0001:00058010  ! 000001e5
                CONST                 DATA           0002:00000038  ! 00000000
                CONST2                DATA           0002:00000060  ! 00000000
                _DATA                 DATA           0002:000046d4  ! 00000000
/mnt/sda5/.user/root/src/openwatcom-1.9/bld/gui/win/c/guirect.c
                _TEXT                 CODE           0001:00058200  ! 00000187
                CONST                 DATA           0002:00000038  ! 00000000
                CONST2                DATA           0002:00000060  ! 00000000
                _DATA                 DATA           0002:000046d4  ! 00000000
/mnt/sda5/.user/root/src/openwatcom-1.9/bld/gui/win/c/guimouse.c
                _TEXT                 CODE           0001:00058390  ! 00000079
                CONST                 DATA           0002:00000038  ! 00000000
                CONST2                DATA           0002:00000060  ! 00000000
                _DATA                 DATA           0002:000046d4  ! 00000000
/mnt/sda5/.user/root/src/openwatcom-1.9/bld/gui/win/c/guixdisp.c
                _TEXT                 CODE           0001:00058410  ! 000000e5
                CONST                 DATA           0002:00000038  ! 00000000
                CONST2                DATA           0002:00000060  ! 00000000
                _DATA                 DATA           0002:000046d4  ! 00000058
/mnt/sda5/.user/root/src/openwatcom-1.9/bld/gui/win/c/guissel.c
                _TEXT                 CODE           0001:00058500  ! 0000016e
                CONST                 DATA           0002:00000038  ! 00000000
                CONST2                DATA           0002:00000060  ! 00000000
                _DATA                 DATA           0002:0000472c  ! 00000000
/mnt/sda5/.user/root/src/openwatcom-1.9/bld/gui/win/c/guigetrc.c
                _TEXT                 CODE           0001:00058670  ! 000000d4
                CONST                 DATA           0002:00000038  ! 00000000
                CONST2                DATA           0002:00000060  ! 00000000
                _DATA                 DATA           0002:0000472c  ! 00000000
/mnt/sda5/.user/root/src/openwatcom-1.9/bld/gui/win/c/guistrin.c
                _TEXT                 CODE           0001:00058750  ! 00000132
                CONST                 DATA           0002:00000038  ! 00000000
                CONST2                DATA           0002:00000060  ! 00000000
                _DATA                 DATA           0002:0000472c  ! 00000000
/mnt/sda5/.user/root/src/openwatcom-1.9/bld/gui/win/c/guixbar.c
                _TEXT                 CODE           0001:00058890  ! 000004de
                CONST                 DATA           0002:00000038  ! 00000000
                CONST2                DATA           0002:00000060  ! 00000000
                _DATA                 DATA           0002:0000472c  ! 00000000
/mnt/sda5/.user/root/src/openwatcom-1.9/bld/gui/win/c/guidrawr.c
                _TEXT                 CODE           0001:00058d70  ! 000004d4
                CONST                 DATA           0002:00000038  ! 00000000
                CONST2                DATA           0002:00000060  ! 00000000
                _DATA                 DATA           0002:0000472c  ! 00000000
/mnt/sda5/.user/root/src/openwatcom-1.9/bld/gui/win/c/guixhot.c
                _TEXT                 CODE           0001:00059250  ! 0000018b
                CONST                 DATA           0002:00000038  ! 00000000
                CONST2                DATA           0002:00000060  ! 00000000
                _DATA                 DATA           0002:0000472c  ! 00000000
                _BSS                  BSS            0002:00008ff8  ! 00000004
/mnt/sda5/.user/root/src/openwatcom-1.9/bld/gui/c/guidlg.c
                _TEXT                 CODE           0001:000593e0  ! 0000008f
                CONST                 DATA           0002:00000038  ! 00000000
                CONST2                DATA           0002:00000060  ! 00000000
                _DATA                 DATA           0002:0000472c  ! 00000000
/mnt/sda5/.user/root/src/openwatcom-1.9/bld/gui/win/c/guicutil.c
                _TEXT                 CODE           0001:00059470  ! 00000108
                CONST                 DATA           0002:00000038  ! 00000000
                CONST2                DATA           0002:00000060  ! 00000000
                _DATA                 DATA           0002:0000472c  ! 00000000
/mnt/sda5/.user/root/src/openwatcom-1.9/bld/gui/win/c/wpimem.c
                _TEXT                 CODE           0001:00059580  ! 00000025
                CONST                 DATA           0002:00000038  ! 00000000
                CONST2                DATA           0002:00000060  ! 00000000
                _DATA                 DATA           0002:0000472c  ! 00000000
/mnt/sda5/.user/root/src/openwatcom-1.9/bld/aui/c/rxwrap.c
                _TEXT                 CODE           0001:000595b0  ! 0000122d
                CONST                 DATA           0002:00000038  ! 00000000
                CONST2                DATA           0002:00000060  ! 00000000
                _DATA                 DATA           0002:0000472c  ! 0000000f
                _BSS                  BSS            0002:00008ffc  ! 00000025
/mnt/sda5/.user/root/src/openwatcom-1.9/bld/gui/c/guihflt.c
                _TEXT                 CODE           0001:0005a7e0  ! 0000006d
                CONST                 DATA           0002:00000038  ! 00000000
                CONST2                DATA           0002:00000060  ! 00000000
                _DATA                 DATA           0002:0000473c  ! 00000000
/mnt/sda5/.user/root/src/openwatcom-1.9/bld/gui/win/c/guireset.c
                _TEXT                 CODE           0001:0005a850  ! 0000013d
                CONST                 DATA           0002:00000038  ! 00000000
                CONST2                DATA           0002:00000060  ! 00000000
                _DATA                 DATA           0002:0000473c  ! 00000000
/mnt/sda5/.user/root/src/openwatcom-1.9/bld/gui/c/guimkey.c
                _TEXT                 CODE           0001:0005a990  ! 00000477
                CONST                 DATA           0002:00000038  ! 00000000
                CONST2                DATA           0002:00000060  ! 00000000
                _DATA                 DATA           0002:0000473c  ! 00000001
/mnt/sda5/.user/root/src/openwatcom-1.9/bld/gui/win/c/os2dlg.c
                _TEXT                 CODE           0001:0005ae10  ! 0000060a
                CONST                 DATA           0002:00000038  ! 00000000
                CONST2                DATA           0002:00000060  ! 00000000
                _DATA                 DATA           0002:00004740  ! 00000000
                _BSS                  BSS            0002:00009024  ! 00000008
strrchr.c       _TEXT                 CODE           0001:0005b420  ! 00000019
                CONST                 DATA           0002:00000038  ! 00000000
                CONST2                DATA           0002:00000060  ! 00000000
                _DATA                 DATA           0002:00004740  ! 00000000
atoi.c          _TEXT                 CODE           0001:0005b440  ! 00000049
                CONST                 DATA           0002:00000038  ! 00000000
                CONST2                DATA           0002:00000060  ! 00000000
                _DATA                 DATA           0002:00004740  ! 00000000
/mnt/sda5/.user/root/src/openwatcom-1.9/bld/gui/win/c/guifdlg.c
                _TEXT                 CODE           0001:0005b490  ! 00000429
                CONST                 DATA           0002:00000038  ! 00000000
                CONST2                DATA           0002:00000060  ! 00000000
                _DATA                 DATA           0002:00004740  ! 00000001
split2.c        _TEXT                 CODE           0001:0005b8c0  ! 00000197
                CONST                 DATA           0002:00000038  ! 00000000
                CONST2                DATA           0002:00000060  ! 00000000
                _DATA                 DATA           0002:00004744  ! 00000000
makepath.c      _TEXT                 CODE           0001:0005ba60  ! 000001ca
                CONST                 DATA           0002:00000038  ! 00000000
                CONST2                DATA           0002:00000060  ! 00000000
                _DATA                 DATA           0002:00004744  ! 00000000
/mnt/sda5/.user/root/src/openwatcom-1.9/bld/gui/win/c/guicombo.c
                _TEXT                 CODE           0001:0005bc30  ! 0000006d
                CONST                 DATA           0002:00000038  ! 00000000
                CONST2                DATA           0002:00000060  ! 00000000
                _DATA                 DATA           0002:00004744  ! 00000000
/mnt/sda5/.user/root/src/openwatcom-1.9/bld/gui/win/c/guithumb.c
                _TEXT                 CODE           0001:0005bca0  ! 000000ba
                CONST                 DATA           0002:00000038  ! 00000000
                CONST2                DATA           0002:00000060  ! 00000000
                _DATA                 DATA           0002:00004744  ! 00000000
/mnt/sda5/.user/root/src/openwatcom-1.9/bld/gui/win/c/guigscrl.c
                _TEXT                 CODE           0001:0005bd60  ! 000000ad
                CONST                 DATA           0002:00000038  ! 00000000
                CONST2                DATA           0002:00000060  ! 00000000
                _DATA                 DATA           0002:00004744  ! 00000000
/mnt/sda5/.user/root/src/openwatcom-1.9/bld/gui/c/guisetup.c
                _TEXT                 CODE           0001:0005be10  ! 00000048
                CONST                 DATA           0002:00000038  ! 00000000
                CONST2                DATA           0002:00000060  ! 00000000
                _DATA                 DATA           0002:00004744  ! 00000000
/mnt/sda5/.user/root/src/openwatcom-1.9/bld/gui/win/c/guifloat.c
                _TEXT                 CODE           0001:0005be60  ! 0000024f
                CONST                 DATA           0002:00000038  ! 00000000
                CONST2                DATA           0002:00000060  ! 00000000
                _DATA                 DATA           0002:00004744  ! 00000005
/mnt/sda5/.user/root/src/openwatcom-1.9/bld/gui/win/c/guiximdi.c
                _TEXT                 CODE           0001:0005c0b0  ! 00000096
                CONST                 DATA           0002:00000038  ! 00000000
                CONST2                DATA           0002:00000060  ! 00000000
                _DATA                 DATA           0002:0000474c  ! 00000000
/mnt/sda5/.user/root/src/openwatcom-1.9/bld/gui/c/guimdi.c
                _TEXT                 CODE           0001:0005c150  ! 00000a15
                CONST                 DATA           0002:00000038  ! 00000000
                CONST2                DATA           0002:00000060  ! 00000000
                _DATA                 DATA           0002:0000474c  ! 00000048
                _BSS                  BSS            0002:0000902c  ! 000002f4
/mnt/sda5/.user/root/src/openwatcom-1.9/bld/gui/win/c/guixscal.c
                _TEXT                 CODE           0001:0005cb70  ! 0000029c
                CONST                 DATA           0002:00000038  ! 00000000
                CONST2                DATA           0002:00000060  ! 00000000
                _DATA                 DATA           0002:00004794  ! 00000000
                _BSS                  BSS            0002:00009320  ! 000000e4
stack386.c      _TEXT                 CODE           0001:0005ce10  ! 00000011
                CONST                 DATA           0002:00000038  ! 00000000
                CONST2                DATA           0002:00000060  ! 00000000
                _DATA                 DATA           0002:00004794  ! 00000000
stk             _TEXT                 CODE           0001:0005ce24  ! 00000060
                _DATA                 DATA           0002:00004794  ! 00000010
                XIB                   DATA           0002:00004da4  ! 00000000
                XI                    DATA           0002:00004daa  ! 00000006
                XIE                   DATA           0002:00004de0  ! 00000000
                YIB                   DATA           0002:00004de0  ! 00000000
                YI                    DATA           0002:00004de6  ! 00000000
                YIE                   DATA           0002:00004dfe  ! 00000000
/mnt/sda5/.user/root/src/openwatcom-1.9/bld/sdk/misc/wstatus.c
                _TEXT                 CODE           0001:0005ce90  ! 00000b42
                CONST                 DATA           0002:00000038  ! 00000000
                CONST2                DATA           0002:00000060  ! 00000000
                _DATA                 DATA           0002:000047a4  ! 0000000c
                _BSS                  BSS            0002:00009404  ! 00000168
/mnt/sda5/.user/root/src/openwatcom-1.9/bld/gui/win/c/guienum.c
                _TEXT                 CODE           0001:0005d9e0  ! 000000e0
                CONST                 DATA           0002:00000038  ! 00000000
                CONST2                DATA           0002:00000060  ! 00000000
                _DATA                 DATA           0002:000047b0  ! 00000000
sscanf.c        _TEXT                 CODE           0001:0005dac0  ! 00000091
                CONST                 DATA           0002:00000038  ! 00000000
                CONST2                DATA           0002:00000060  ! 00000000
                _DATA                 DATA           0002:000047b0  ! 00000000
/mnt/sda5/.user/root/src/openwatcom-1.9/bld/gui/c/guiextnm.c
                _TEXT                 CODE           0001:0005db60  ! 00000064
                CONST                 DATA           0002:00000038  ! 00000000
                CONST2                DATA           0002:00000060  ! 00000000
                _DATA                 DATA           0002:000047b0  ! 00000104
cstart          _TEXT                 CODE           0001:0005dbc4  ! 0000005c
                _DATA                 DATA           0002:000048b4  ! 00000000
argcv.c         _TEXT                 CODE           0001:0005dc20  ! 00000000
                CONST                 DATA           0002:00000038  ! 00000000
                CONST2                DATA           0002:00000060  ! 00000000
                _DATA                 DATA           0002:000048b4  ! 00000000
                _BSS                  BSS            0002:0000956c  ! 00000010
                XIB                   DATA           0002:00004da4  ! 00000000
                XI                    DATA           0002:00004db0  ! 00000006
                XIE                   DATA           0002:00004de0  ! 00000000
                YIB                   DATA           0002:00004de0  ! 00000000
                YI                    DATA           0002:00004de6  ! 00000006
                YIE                   DATA           0002:00004dfe  ! 00000000
/mnt/sda5/.user/root/src/openwatcom-1.9/bld/sdk/misc/wptoolbr.c
                _TEXT                 CODE           0001:0005dc20  ! 00001668
                CONST                 DATA           0002:00000038  ! 00000000
                CONST2                DATA           0002:00000060  ! 00000000
                _DATA                 DATA           0002:000048b4  ! 00000014
                _BSS                  BSS            0002:0000957c  ! 0000002f
maino32.c       _TEXT                 CODE           0001:0005f288  ! 00000122
                CONST                 DATA           0002:00000038  ! 00000000
                CONST2                DATA           0002:00000060  ! 00000000
                _DATA                 DATA           0002:000048c8  ! 00000040
                _BSS                  BSS            0002:000095ac  ! 00000106
/mnt/sda5/.user/root/src/openwatcom-1.9/bld/gui/win/c/guixdraw.c
                _TEXT                 CODE           0001:0005f3b0  ! 00000534
                CONST                 DATA           0002:00000038  ! 00000000
                CONST2                DATA           0002:00000060  ! 00000000
                _DATA                 DATA           0002:00004908  ! 00000000
/mnt/sda5/.user/root/src/openwatcom-1.9/bld/gui/win/c/guigetx.c
                _TEXT                 CODE           0001:0005f8f0  ! 00000052
                CONST                 DATA           0002:00000038  ! 00000000
                CONST2                DATA           0002:00000060  ! 00000000
                _DATA                 DATA           0002:00004908  ! 00000000
strcspn.c       _TEXT                 CODE           0001:0005f950  ! 00000048
                CONST                 DATA           0002:00000038  ! 00000000
                CONST2                DATA           0002:00000060  ! 00000000
                _DATA                 DATA           0002:00004908  ! 00000000
strncmp.c       _TEXT                 CODE           0001:0005f9a0  ! 00000029
                CONST                 DATA           0002:00000038  ! 00000000
                CONST2                DATA           0002:00000060  ! 00000000
                _DATA                 DATA           0002:00004908  ! 00000000
/mnt/sda5/.user/root/src/openwatcom-1.9/bld/gui/win/c/os2mem.c
                _TEXT                 CODE           0001:0005f9d0  ! 00000025
                CONST                 DATA           0002:00000038  ! 00000000
                CONST2                DATA           0002:00000060  ! 00000000
                _DATA                 DATA           0002:00004908  ! 00000000
gtcwdos2.c      _TEXT                 CODE           0001:0005fa00  ! 000000bc
                CONST                 DATA           0002:00000038  ! 00000000
                CONST2                DATA           0002:00000060  ! 00000000
                _DATA                 DATA           0002:00004908  ! 00000000
splitpat.c      _TEXT                 CODE           0001:0005fac0  ! 0000010b
                CONST                 DATA           0002:00000038  ! 00000000
                CONST2                DATA           0002:00000060  ! 00000000
                _DATA                 DATA           0002:00004908  ! 00000000
gdrveos2.c      _TEXT                 CODE           0001:0005fbd0  ! 00000026
                CONST                 DATA           0002:00000038  ! 00000000
                CONST2                DATA           0002:00000060  ! 00000000
                _DATA                 DATA           0002:00004908  ! 00000000
sdrveos2.c      _TEXT                 CODE           0001:0005fc00  ! 0000004d
                CONST                 DATA           0002:00000038  ! 00000000
                CONST2                DATA           0002:00000060  ! 00000000
                _DATA                 DATA           0002:00004908  ! 00000000
chdiros2.c      _TEXT                 CODE           0001:0005fc50  ! 0000001a
                CONST                 DATA           0002:00000038  ! 00000000
                CONST2                DATA           0002:00000060  ! 00000000
                _DATA                 DATA           0002:00004908  ! 00000000
mbsnccnt.c      _TEXT                 CODE           0001:0005fc70  ! 0000002c
                CONST                 DATA           0002:00000038  ! 00000000
                CONST2                DATA           0002:00000060  ! 00000000
                _DATA                 DATA           0002:00004908  ! 00000000
mbsncpy.c       _TEXT                 CODE           0001:0005fca0  ! 00000020
                CONST                 DATA           0002:00000038  ! 00000000
                CONST2                DATA           0002:00000060  ! 00000000
                _DATA                 DATA           0002:00004908  ! 00000000
mbsnbcnt.c      _TEXT                 CODE           0001:0005fcc0  ! 00000061
                CONST                 DATA           0002:00000038  ! 00000000
                CONST2                DATA           0002:00000060  ! 00000000
                _DATA                 DATA           0002:00004908  ! 00000000
mbsnextc.c      _TEXT                 CODE           0001:0005fd30  ! 00000037
                CONST                 DATA           0002:00000038  ! 00000000
                CONST2                DATA           0002:00000060  ! 00000000
                _DATA                 DATA           0002:00004908  ! 00000000
mbsinc.c        _TEXT                 CODE           0001:0005fd70  ! 0000002d
                CONST                 DATA           0002:00000038  ! 00000000
                CONST2                DATA           0002:00000060  ! 00000000
                _DATA                 DATA           0002:00004908  ! 00000000
mbconv.c        _TEXT                 CODE           0001:0005fda0  ! 0000001a
                CONST                 DATA           0002:00000038  ! 00000000
                CONST2                DATA           0002:00000060  ! 00000000
                _DATA                 DATA           0002:00004908  ! 00000000
mbclen.c        _TEXT                 CODE           0001:0005fdc0  ! 0000002b
                CONST                 DATA           0002:00000038  ! 00000000
                CONST2                DATA           0002:00000060  ! 00000000
                _DATA                 DATA           0002:00004908  ! 00000000
mbsdec.c        _TEXT                 CODE           0001:0005fdf0  ! 0000007d
                CONST                 DATA           0002:00000038  ! 00000000
                CONST2                DATA           0002:00000060  ! 00000000
                _DATA                 DATA           0002:00004908  ! 00000000
itoa.c          _TEXT                 CODE           0001:0005fe70  ! 00000074
                CONST                 DATA           0002:00000038  ! 00000000
                CONST2                DATA           0002:00000060  ! 00000000
                _DATA                 DATA           0002:00004908  ! 00000000
xmsgo32.c       _TEXT                 CODE           0001:0005fef0  ! 00000070
                CONST                 DATA           0002:00000038  ! 00000000
                CONST2                DATA           0002:00000060  ! 00000000
                _DATA                 DATA           0002:00004908  ! 00000000
/mnt/sda5/.user/root/src/openwatcom-1.9/bld/gui/win/c/mem.c
                _TEXT                 CODE           0001:0005ff60  ! 00000035
                CONST                 DATA           0002:00000038  ! 00000000
                CONST2                DATA           0002:00000060  ! 00000000
                _DATA                 DATA           0002:00004908  ! 00000000
scnf.c          _TEXT                 CODE           0001:0005ffa0  ! 00000dcb
                CONST                 DATA           0002:00000038  ! 00000000
                CONST2                DATA           0002:00000060  ! 00000000
                _DATA                 DATA           0002:00004908  ! 00000000
main2o32.c      _TEXT                 CODE           0001:00060d70  ! 00000064
                CONST                 DATA           0002:00000038  ! 00000000
                CONST2                DATA           0002:00000060  ! 00000000
                _DATA                 DATA           0002:00004908  ! 00000000
segdefns        _TEXT                 CODE           0001:00060dd4  ! 00000000
                _DATA                 DATA           0002:00004908  ! 00000000
                BEGTEXT               CODE           0001:00000000  ! 00000007
                _NULL                 BEGDATA        0002:00000000  ! 00000004
                _AFTERNULL            BEGDATA        0002:00000004  ! 00000000
                CONST                 DATA           0002:00000038  ! 00000000
                TIB                   DATA           0002:00004dfe  ! 00000000
                TI                    DATA           0002:00004dfe  ! 00000000
                TIE                   DATA           0002:00004dfe  ! 00000000
                XIB                   DATA           0002:00004da4  ! 00000000
                XI                    DATA           0002:00004db6  ! 00000000
                XIE                   DATA           0002:00004de0  ! 00000000
                YIB                   DATA           0002:00004de0  ! 00000000
                YI                    DATA           0002:00004dec  ! 00000000
                YIE                   DATA           0002:00004dfe  ! 00000000
                DATA                  DATA           0002:00004dfe  ! 00000000
                _BSS                  BSS            0002:000096b2  ! 00000000
                STACK                 STACK          0002:00009800  ! 00010000
initargv.c      _TEXT                 CODE           0001:00060de0  ! 000001fe
                CONST                 DATA           0002:00000038  ! 00000000
                CONST2                DATA           0002:00000060  ! 00000000
                _DATA                 DATA           0002:00004908  ! 00000000
                _BSS                  BSS            0002:000096b4  ! 00000004
crwdata         _TEXT                 CODE           0001:00060fde  ! 00000001
                _DATA                 DATA           0002:00004908  ! 0000004a
cinit.c         _TEXT                 CODE           0001:00060fe0  ! 0000000b
                CONST                 DATA           0002:00000038  ! 00000000
                CONST2                DATA           0002:00000060  ! 00000000
                _DATA                 DATA           0002:00004954  ! 00000000
                _BSS                  BSS            0002:000096b8  ! 00000004
initrtns.c      _TEXT                 CODE           0001:00060ff0  ! 000000b3
                CONST                 DATA           0002:00000038  ! 00000000
                CONST2                DATA           0002:00000060  ! 00000000
                _DATA                 DATA           0002:00004954  ! 00000000
setbits.c       _TEXT                 CODE           0001:000610b0  ! 00000037
                CONST                 DATA           0002:00000038  ! 00000000
                CONST2                DATA           0002:00000060  ! 00000000
                _DATA                 DATA           0002:00004954  ! 00000000
bits.c          _TEXT                 CODE           0001:000610f0  ! 00000008
                CONST                 DATA           0002:00000038  ! 00000000
                CONST2                DATA           0002:00000060  ! 00000000
                _DATA                 DATA           0002:00004954  ! 00000000
dosret.c        _TEXT                 CODE           0001:00061100  ! 0000005c
                CONST                 DATA           0002:00000038  ! 00000000
                CONST2                DATA           0002:00000060  ! 00000000
                _DATA                 DATA           0002:00004954  ! 00000101
mbterm.c        _TEXT                 CODE           0001:00061160  ! 0000003c
                CONST                 DATA           0002:00000038  ! 00000000
                CONST2                DATA           0002:00000060  ! 00000000
                _DATA                 DATA           0002:00004a58  ! 00000000
mbsnbcpy.c      _TEXT                 CODE           0001:000611a0  ! 00000060
                CONST                 DATA           0002:00000038  ! 00000000
                CONST2                DATA           0002:00000060  ! 00000000
                _DATA                 DATA           0002:00004a58  ! 00000000
mbisdbcs.c      _TEXT                 CODE           0001:00061200  ! 00000000
                CONST                 DATA           0002:00000038  ! 00000000
                CONST2                DATA           0002:00000060  ! 00000000
                _DATA                 DATA           0002:00004a58  ! 00000000
                _BSS                  BSS            0002:000096bc  ! 00000004
mbislead.c      _TEXT                 CODE           0001:00061200  ! 00000017
                CONST                 DATA           0002:00000038  ! 00000000
                CONST2                DATA           0002:00000060  ! 00000000
                _DATA                 DATA           0002:00004a58  ! 00000000
                _BSS                  BSS            0002:000096c0  ! 00000101
                XIB                   DATA           0002:00004da4  ! 00000000
                XI                    DATA           0002:00004db6  ! 00000006
                XIE                   DATA           0002:00004de0  ! 00000000
alphabet.c      _TEXT                 CODE           0001:00061220  ! 00000000
                CONST                 DATA           0002:00000038  ! 00000025
                CONST2                DATA           0002:00000060  ! 00000000
                _DATA                 DATA           0002:00004a58  ! 00000000
enterdb.c       _TEXT                 CODE           0001:00061220  ! 00000026
                CONST                 DATA           0002:00000060  ! 00000000
                CONST2                DATA           0002:00000060  ! 00000000
                _DATA                 DATA           0002:00004a58  ! 00000001
mbtowc.c        _TEXT                 CODE           0001:00061250  ! 000000bc
                CONST                 DATA           0002:00000060  ! 00000000
                CONST2                DATA           0002:00000060  ! 00000000
                _DATA                 DATA           0002:00004a5c  ! 00000000
noefgfmt.c      _TEXT                 CODE           0001:00061310  ! 00000042
                CONST                 DATA           0002:00000060  ! 00000000
                CONST2                DATA           0002:00000060  ! 00000000
                _DATA                 DATA           0002:00004a5c  ! 00000008
fdfs386         _TEXT                 CODE           0001:00061354  ! 0000004c
                _DATA                 DATA           0002:00004a64  ! 00000000
i8m             _TEXT                 CODE           0001:000613a0  ! 0000001c
                _DATA                 DATA           0002:00004a64  ! 00000000
mthrdini.c      _TEXT                 CODE           0001:000613c0  ! 0000001e
                CONST                 DATA           0002:00000060  ! 00000000
                CONST2                DATA           0002:00000060  ! 00000000
                _DATA                 DATA           0002:00004a64  ! 00000004
cmain386.c      _TEXT                 CODE           0001:000613e0  ! 0000003e
                CONST                 DATA           0002:00000060  ! 00000000
                CONST2                DATA           0002:00000060  ! 00000000
                _DATA                 DATA           0002:00004a68  ! 00000000
dosseg          _TEXT                 CODE           0001:00061420  ! 00000000
                _DATA                 DATA           0002:00004a68  ! 00000000
histsplt.c      _TEXT                 CODE           0001:00061420  ! 00000000
                CONST                 DATA           0002:00000060  ! 00000000
                CONST2                DATA           0002:00000060  ! 00000000
                _DATA                 DATA           0002:00004a68  ! 00000000
                _BSS                  BSS            0002:000097c4  ! 00000004
___argc.c       _TEXT                 CODE           0001:00061420  ! 00000000
                CONST                 DATA           0002:00000060  ! 00000000
                CONST2                DATA           0002:00000060  ! 00000000
                _DATA                 DATA           0002:00004a68  ! 00000000
                _BSS                  BSS            0002:000097c8  ! 00000008
amblksiz.c      _TEXT                 CODE           0001:00061420  ! 00000000
                CONST                 DATA           0002:00000060  ! 00000000
                CONST2                DATA           0002:00000060  ! 00000000
                _DATA                 DATA           0002:00004a68  ! 00000004
mbinit.c        _TEXT                 CODE           0001:00061420  ! 00000132
                CONST                 DATA           0002:00000060  ! 00000000
                CONST2                DATA           0002:00000060  ! 00000000
                _DATA                 DATA           0002:00004a6c  ! 00000004
exit.c          _TEXT                 CODE           0001:00061552  ! 00000067
                CONST                 DATA           0002:00000060  ! 00000000
                CONST2                DATA           0002:00000060  ! 00000000
                _DATA                 DATA           0002:00004a70  ! 00000008
getenv.c        _TEXT                 CODE           0001:000615c0  ! 00000089
                CONST                 DATA           0002:00000060  ! 00000000
                CONST2                DATA           0002:00000060  ! 00000000
                _DATA                 DATA           0002:00004a78  ! 00000000
setenv.c        _TEXT                 CODE           0001:00061650  ! 00000498
                CONST                 DATA           0002:00000060  ! 00000000
                CONST2                DATA           0002:00000060  ! 00000000
                _DATA                 DATA           0002:00004a78  ! 00000000
strstr.c        _TEXT                 CODE           0001:00061af0  ! 000000ad
                CONST                 DATA           0002:00000060  ! 00000000
                CONST2                DATA           0002:00000060  ! 00000000
                _DATA                 DATA           0002:00004a78  ! 00000000
nmalloc.c       _TEXT                 CODE           0001:00061ba0  ! 000000fa
                CONST                 DATA           0002:00000060  ! 00000000
                CONST2                DATA           0002:00000060  ! 00000000
                _DATA                 DATA           0002:00004a78  ! 0000000c
nfree.c         _TEXT                 CODE           0001:00061ca0  ! 00000108
                CONST                 DATA           0002:00000060  ! 00000000
                CONST2                DATA           0002:00000060  ! 00000000
                _DATA                 DATA           0002:00004a84  ! 00000000
                _BSS                  BSS            0002:000097d0  ! 00000004
cmdname.c       _TEXT                 CODE           0001:00061db0  ! 0000002b
                CONST                 DATA           0002:00000060  ! 00000000
                CONST2                DATA           0002:00000060  ! 00000000
                _DATA                 DATA           0002:00004a84  ! 00000000
gtcmd.c         _TEXT                 CODE           0001:00061de0  ! 000000c3
                CONST                 DATA           0002:00000060  ! 00000000
                CONST2                DATA           0002:00000060  ! 00000000
                _DATA                 DATA           0002:00004a84  ! 00000000
msgseg32.asm    _TEXT                 CODE           0001:00061ea4  ! 00000000
                _DATA                 DATA           0002:00004a84  ! 00000000
                _MSGSEG32             CODE           0001:00066368  ! 00000030
_strcmp         _TEXT                 CODE           0001:00061eb0  ! 0000013e
                _DATA                 DATA           0002:00004a84  ! 00000000
searchen.c      _TEXT                 CODE           0001:00061ff0  ! 0000012f
                CONST                 DATA           0002:00000060  ! 00000000
                CONST2                DATA           0002:00000060  ! 00000000
                _DATA                 DATA           0002:00004a84  ! 00000000
memset.c        _TEXT                 CODE           0001:00062120  ! 00000018
                CONST                 DATA           0002:00000060  ! 00000000
                CONST2                DATA           0002:00000060  ! 00000000
                _DATA                 DATA           0002:00004a84  ! 00000000
memmove.c       _TEXT                 CODE           0001:00062140  ! 00000053
                CONST                 DATA           0002:00000060  ! 00000000
                CONST2                DATA           0002:00000060  ! 00000000
                _DATA                 DATA           0002:00004a84  ! 00000000
istable.c       _TEXT                 CODE           0001:000621a0  ! 00000101
                CONST                 DATA           0002:00000060  ! 00000000
                CONST2                DATA           0002:00000060  ! 00000000
                _DATA                 DATA           0002:00004a84  ! 00000000
sprintf.c       _TEXT                 CODE           0001:000622b0  ! 00000021
                CONST                 DATA           0002:00000060  ! 00000000
                CONST2                DATA           0002:00000060  ! 00000000
                _DATA                 DATA           0002:00004a84  ! 00000000
setjmp          _TEXT                 CODE           0001:000622d4  ! 000000b6
                _DATA                 DATA           0002:00004a84  ! 00000000
stricmp.c       _TEXT                 CODE           0001:00062390  ! 0000003b
                CONST                 DATA           0002:00000060  ! 00000000
                CONST2                DATA           0002:00000060  ! 00000000
                _DATA                 DATA           0002:00004a84  ! 00000000
tolower.c       _TEXT                 CODE           0001:000623d0  ! 0000000e
                CONST                 DATA           0002:00000060  ! 00000000
                CONST2                DATA           0002:00000060  ! 00000000
                _DATA                 DATA           0002:00004a84  ! 00000000
strtol.c        _TEXT                 CODE           0001:000623e0  ! 0000023d
                CONST                 DATA           0002:00000060  ! 00000000
                CONST2                DATA           0002:00000060  ! 00000000
                _DATA                 DATA           0002:00004a84  ! 0000008c
fltused.c       _TEXT                 CODE           0001:00062620  ! 00000000
                CONST                 DATA           0002:00000060  ! 00000000
                CONST2                DATA           0002:00000060  ! 00000000
                _DATA                 DATA           0002:00004b10  ! 00000004
                XIB                   DATA           0002:00004da4  ! 00000000
                XI                    DATA           0002:00004dbc  ! 00000006
                XIE                   DATA           0002:00004de0  ! 00000000
_8087           _TEXT                 CODE           0001:00062620  ! 00000000
                _DATA                 DATA           0002:00004b14  ! 00000002
                XIB                   DATA           0002:00004da4  ! 00000000
                XI                    DATA           0002:00004dc2  ! 00000006
                XIE                   DATA           0002:00004de0  ! 00000000
                YIB                   DATA           0002:00004de0  ! 00000000
                YI                    DATA           0002:00004dec  ! 00000000
                YIE                   DATA           0002:00004dfe  ! 00000000
strlwr.c        _TEXT                 CODE           0001:00062620  ! 00000020
                CONST                 DATA           0002:00000060  ! 00000000
                CONST2                DATA           0002:00000060  ! 00000000
                _DATA                 DATA           0002:00004b18  ! 00000000
toupper.c       _TEXT                 CODE           0001:00062640  ! 0000000e
                CONST                 DATA           0002:00000060  ! 00000000
                CONST2                DATA           0002:00000060  ! 00000000
                _DATA                 DATA           0002:00004b18  ! 00000000
memicmp.c       _TEXT                 CODE           0001:00062650  ! 00000040
                CONST                 DATA           0002:00000060  ! 00000000
                CONST2                DATA           0002:00000060  ! 00000000
                _DATA                 DATA           0002:00004b18  ! 00000000
strnicmp.c      _TEXT                 CODE           0001:00062690  ! 00000044
                CONST                 DATA           0002:00000060  ! 00000000
                CONST2                DATA           0002:00000060  ! 00000000
                _DATA                 DATA           0002:00004b18  ! 00000000
memcmp.c        _TEXT                 CODE           0001:000626e0  ! 00000018
                CONST                 DATA           0002:00000060  ! 00000000
                CONST2                DATA           0002:00000060  ! 00000000
                _DATA                 DATA           0002:00004b18  ! 00000000
nrealloc.c      _TEXT                 CODE           0001:00062700  ! 0000007a
                CONST                 DATA           0002:00000060  ! 00000000
                CONST2                DATA           0002:00000060  ! 00000000
                _DATA                 DATA           0002:00004b18  ! 00000000
nheapwal.c      _TEXT                 CODE           0001:00062780  ! 000000d4
                CONST                 DATA           0002:00000060  ! 00000000
                CONST2                DATA           0002:00000060  ! 00000000
                _DATA                 DATA           0002:00004b18  ! 00000000
qsort.c         _TEXT                 CODE           0001:00062860  ! 000006f8
                CONST                 DATA           0002:00000060  ! 00000000
                CONST2                DATA           0002:00000060  ! 00000000
                _DATA                 DATA           0002:00004b18  ! 00000000
openos2.c       _TEXT                 CODE           0001:00062f60  ! 00000207
                CONST                 DATA           0002:00000060  ! 00000000
                CONST2                DATA           0002:00000060  ! 00000000
                _DATA                 DATA           0002:00004b18  ! 00000000
close.c         _TEXT                 CODE           0001:00063170  ! 00000005
                CONST                 DATA           0002:00000060  ! 00000000
                CONST2                DATA           0002:00000060  ! 00000000
                _DATA                 DATA           0002:00004b18  ! 00000000
read.c          _TEXT                 CODE           0001:00063180  ! 00000161
                CONST                 DATA           0002:00000060  ! 00000000
                CONST2                DATA           0002:00000060  ! 00000000
                _DATA                 DATA           0002:00004b18  ! 00000000
lseek.c         _TEXT                 CODE           0001:000632f0  ! 0000002b
                CONST                 DATA           0002:00000060  ! 00000000
                CONST2                DATA           0002:00000060  ! 00000000
                _DATA                 DATA           0002:00004b18  ! 00000000
strupr.c        _TEXT                 CODE           0001:00063320  ! 00000020
                CONST                 DATA           0002:00000060  ! 00000000
                CONST2                DATA           0002:00000060  ! 00000000
                _DATA                 DATA           0002:00004b18  ! 00000000
strncpy.c       _TEXT                 CODE           0001:00063340  ! 00000036
                CONST                 DATA           0002:00000060  ! 00000000
                CONST2                DATA           0002:00000060  ! 00000000
                _DATA                 DATA           0002:00004b18  ! 00000000
environ.c       _TEXT                 CODE           0001:00063380  ! 00000000
                CONST                 DATA           0002:00000060  ! 00000000
                CONST2                DATA           0002:00000060  ! 00000000
                _DATA                 DATA           0002:00004b18  ! 00000000
                _BSS                  BSS            0002:000097d4  ! 0000000c
                XIB                   DATA           0002:00004da4  ! 00000000
                XI                    DATA           0002:00004dc8  ! 00000006
                XIE                   DATA           0002:00004de0  ! 00000000
                YIB                   DATA           0002:00004de0  ! 00000000
                YI                    DATA           0002:00004dec  ! 00000006
                YIE                   DATA           0002:00004dfe  ! 00000000
mbcupper.c      _TEXT                 CODE           0001:00063380  ! 0000001a
                CONST                 DATA           0002:00000060  ! 00000000
                CONST2                DATA           0002:00000060  ! 00000000
                _DATA                 DATA           0002:00004b18  ! 00000000
mbslen.c        _TEXT                 CODE           0001:000633a0  ! 00000030
                CONST                 DATA           0002:00000060  ! 00000000
                CONST2                DATA           0002:00000060  ! 00000000
                _DATA                 DATA           0002:00004b18  ! 00000000
mbstowcs.c      _TEXT                 CODE           0001:000633d0  ! 00000073
                CONST                 DATA           0002:00000060  ! 00000000
                CONST2                DATA           0002:00000060  ! 00000000
                _DATA                 DATA           0002:00004b18  ! 00000000
usetenv.c       _TEXT                 CODE           0001:00063450  ! 000003a4
                CONST                 DATA           0002:00000060  ! 00000000
                CONST2                DATA           0002:00000060  ! 00000000
                _DATA                 DATA           0002:00004b18  ! 00000000
mem.c           _TEXT                 CODE           0001:00063800  ! 000001e6
                CONST                 DATA           0002:00000060  ! 00000000
                CONST2                DATA           0002:00000060  ! 00000000
                _DATA                 DATA           0002:00004b18  ! 00000000
grownear.c      _TEXT                 CODE           0001:000639f0  ! 00000171
                CONST                 DATA           0002:00000060  ! 00000000
                CONST2                DATA           0002:00000060  ! 00000000
                _DATA                 DATA           0002:00004b18  ! 00000000
accssos2.c      _TEXT                 CODE           0001:00063b70  ! 00000052
                CONST                 DATA           0002:00000060  ! 00000000
                CONST2                DATA           0002:00000060  ! 00000000
                _DATA                 DATA           0002:00004b18  ! 00000000
strlen.c        _TEXT                 CODE           0001:00063bd0  ! 00000013
                CONST                 DATA           0002:00000060  ! 00000000
                CONST2                DATA           0002:00000060  ! 00000000
                _DATA                 DATA           0002:00004b18  ! 00000000
strncat.c       _TEXT                 CODE           0001:00063bf0  ! 00000039
                CONST                 DATA           0002:00000060  ! 00000000
                CONST2                DATA           0002:00000060  ! 00000000
                _DATA                 DATA           0002:00004b18  ! 00000000
strcat.c        _TEXT                 CODE           0001:00063c30  ! 0000002f
                CONST                 DATA           0002:00000060  ! 00000000
                CONST2                DATA           0002:00000060  ! 00000000
                _DATA                 DATA           0002:00004b18  ! 00000000
__stos          _TEXT                 CODE           0001:00063c60  ! 000000a3
                _DATA                 DATA           0002:00004b18  ! 00000000
vsprintf.c      _TEXT                 CODE           0001:00063d10  ! 00000035
                CONST                 DATA           0002:00000060  ! 00000000
                CONST2                DATA           0002:00000060  ! 00000000
                _DATA                 DATA           0002:00004b18  ! 00000000
ljmphdl.c       _TEXT                 CODE           0001:00063d50  ! 00000001
                CONST                 DATA           0002:00000060  ! 00000000
                CONST2                DATA           0002:00000060  ! 00000000
                _DATA                 DATA           0002:00004b18  ! 00000004
setefg.c        _TEXT                 CODE           0001:00063d60  ! 00000015
                CONST                 DATA           0002:00000060  ! 00000000
                CONST2                DATA           0002:00000060  ! 00000000
                _DATA                 DATA           0002:00004b1c  ! 00000000
chk8087.c       _TEXT                 CODE           0001:00063d80  ! 0000007a
                CONST                 DATA           0002:00000060  ! 00000000
                CONST2                DATA           0002:00000060  ! 00000000
                _DATA                 DATA           0002:00004b1c  ! 00000000
nmsize.c        _TEXT                 CODE           0001:00063e00  ! 0000000b
                CONST                 DATA           0002:00000060  ! 00000000
                CONST2                DATA           0002:00000060  ! 00000000
                _DATA                 DATA           0002:00004b1c  ! 00000000
nexpand.c       _TEXT                 CODE           0001:00063e10  ! 000001f7
                CONST                 DATA           0002:00000060  ! 00000000
                CONST2                DATA           0002:00000060  ! 00000000
                _DATA                 DATA           0002:00004b1c  ! 00000000
umaskval.c      _TEXT                 CODE           0001:00064010  ! 00000000
                CONST                 DATA           0002:00000060  ! 00000000
                CONST2                DATA           0002:00000060  ! 00000000
                _DATA                 DATA           0002:00004b1c  ! 00000004
os2fil64.c      _TEXT                 CODE           0001:00064010  ! 000000e7
                CONST                 DATA           0002:00000060  ! 00000000
                CONST2                DATA           0002:00000060  ! 00000000
                _DATA                 DATA           0002:00004b20  ! 00000010
                XIB                   DATA           0002:00004da4  ! 00000000
                XI                    DATA           0002:00004dce  ! 00000006
                XIE                   DATA           0002:00004de0  ! 00000000
iomode.c        _TEXT                 CODE           0001:00064100  ! 0000003a
                CONST                 DATA           0002:00000060  ! 00000000
                CONST2                DATA           0002:00000060  ! 00000000
                _DATA                 DATA           0002:00004b30  ! 00000058
isattos2.c      _TEXT                 CODE           0001:00064140  ! 0000002f
                CONST                 DATA           0002:00000060  ! 00000000
                CONST2                DATA           0002:00000060  ! 00000000
                _DATA                 DATA           0002:00004b88  ! 00000000
stiomode.c      _TEXT                 CODE           0001:00064170  ! 000001b2
                CONST                 DATA           0002:00000060  ! 00000000
                CONST2                DATA           0002:00000060  ! 00000000
                _DATA                 DATA           0002:00004b88  ! 00000000
                _BSS                  BSS            0002:000097e0  ! 00000004
                YIB                   DATA           0002:00004de0  ! 00000000
                YI                    DATA           0002:00004df2  ! 00000006
                YIE                   DATA           0002:00004dfe  ! 00000000
                XIB                   DATA           0002:00004da4  ! 00000000
                XI                    DATA           0002:00004dd4  ! 00000006
                XIE                   DATA           0002:00004de0  ! 00000000
iob.c           _TEXT                 CODE           0001:00064330  ! 00000000
                CONST                 DATA           0002:00000060  ! 00000000
                CONST2                DATA           0002:00000060  ! 00000000
                _DATA                 DATA           0002:00004b88  ! 0000020c
                _BSS                  BSS            0002:000097e4  ! 00000008
                XIB                   DATA           0002:00004da4  ! 00000000
                XI                    DATA           0002:00004dda  ! 00000006
                XIE                   DATA           0002:00004de0  ! 00000000
                YIB                   DATA           0002:00004de0  ! 00000000
                YI                    DATA           0002:00004df8  ! 00000006
                YIE                   DATA           0002:00004dfe  ! 00000000
_clseos2.c      _TEXT                 CODE           0001:00064330  ! 0000003c
                CONST                 DATA           0002:00000060  ! 00000000
                CONST2                DATA           0002:00000060  ! 00000000
                _DATA                 DATA           0002:00004d94  ! 00000000
iomodtty.c      _TEXT                 CODE           0001:00064370  ! 00000051
                CONST                 DATA           0002:00000060  ! 00000000
                CONST2                DATA           0002:00000060  ! 00000000
                _DATA                 DATA           0002:00004d94  ! 00000000
__lseek.c       _TEXT                 CODE           0001:000643d0  ! 00000028
                CONST                 DATA           0002:00000060  ! 00000000
                CONST2                DATA           0002:00000060  ! 00000000
                _DATA                 DATA           0002:00004d94  ! 00000000
setenvp.c       _TEXT                 CODE           0001:00064400  ! 0000010d
                CONST                 DATA           0002:00000060  ! 00000000
                CONST2                DATA           0002:00000060  ! 00000000
                _DATA                 DATA           0002:00004d94  ! 00000000
                _BSS                  BSS            0002:000097ec  ! 00000004
mbdtoupp.c      _TEXT                 CODE           0001:00064510  ! 00000012
                CONST                 DATA           0002:00000060  ! 00000000
                CONST2                DATA           0002:00000060  ! 00000000
                _DATA                 DATA           0002:00004d94  ! 00000000
crtwenv.c       _TEXT                 CODE           0001:00064530  ! 00000068
                CONST                 DATA           0002:00000060  ! 00000000
                CONST2                DATA           0002:00000060  ! 00000000
                _DATA                 DATA           0002:00004d94  ! 00000000
ugetenv.c       _TEXT                 CODE           0001:000645a0  ! 00000076
                CONST                 DATA           0002:00000060  ! 00000000
                CONST2                DATA           0002:00000060  ! 00000000
                _DATA                 DATA           0002:00004d94  ! 00000000
ustrlen.c       _TEXT                 CODE           0001:00064616  ! 00000013
                CONST                 DATA           0002:00000060  ! 00000000
                CONST2                DATA           0002:00000060  ! 00000000
                _DATA                 DATA           0002:00004d94  ! 00000000
wcstombs.c      _TEXT                 CODE           0001:00064630  ! 0000009f
                CONST                 DATA           0002:00000060  ! 00000000
                CONST2                DATA           0002:00000060  ! 00000000
                _DATA                 DATA           0002:00004d94  ! 00000000
utoupper.c      _TEXT                 CODE           0001:000646cf  ! 00000010
                CONST                 DATA           0002:00000060  ! 00000000
                CONST2                DATA           0002:00000060  ! 00000000
                _DATA                 DATA           0002:00004d94  ! 00000000
memcpy.c        _TEXT                 CODE           0001:000646e0  ! 0000001f
                CONST                 DATA           0002:00000060  ! 00000000
                CONST2                DATA           0002:00000060  ! 00000000
                _DATA                 DATA           0002:00004d94  ! 00000000
ustrcpy.c       _TEXT                 CODE           0001:000646ff  ! 00000018
                CONST                 DATA           0002:00000060  ! 00000000
                CONST2                DATA           0002:00000060  ! 00000000
                _DATA                 DATA           0002:00004d94  ! 00000000
heapen.c        _TEXT                 CODE           0001:00064720  ! 00000021
                CONST                 DATA           0002:00000060  ! 00000000
                CONST2                DATA           0002:00000060  ! 00000000
                _DATA                 DATA           0002:00004d94  ! 00000004
nheapmin.c      _TEXT                 CODE           0001:00064750  ! 000000e2
                CONST                 DATA           0002:00000060  ! 00000000
                CONST2                DATA           0002:00000060  ! 00000000
                _DATA                 DATA           0002:00004d98  ! 00000000
prtf.c          _TEXT                 CODE           0001:00064840  ! 00000cc4
                CONST                 DATA           0002:00000060  ! 00000000
                CONST2                DATA           0002:00000060  ! 00000000
                _DATA                 DATA           0002:00004d98  ! 00000000
efgfmt.c        _TEXT                 CODE           0001:00065504  ! 0000016a
                CONST                 DATA           0002:00000060  ! 00000000
                CONST2                DATA           0002:00000060  ! 00000000
                _DATA                 DATA           0002:00004d98  ! 00000000
cnvs2d.c        _TEXT                 CODE           0001:0006566e  ! 0000000e
                CONST                 DATA           0002:00000060  ! 00000000
                CONST2                DATA           0002:00000060  ! 00000000
                _DATA                 DATA           0002:00004d98  ! 00000000
8087cw.c        _TEXT                 CODE           0001:00065680  ! 00000000
                CONST                 DATA           0002:00000060  ! 00000000
                CONST2                DATA           0002:00000060  ! 00000000
                _DATA                 DATA           0002:00004d98  ! 00000002
init8087        _TEXT                 CODE           0001:00065680  ! 00000033
                _DATA                 DATA           0002:00004d9c  ! 00000000
hdlman.c        _TEXT                 CODE           0001:000656c0  ! 00000067
                CONST                 DATA           0002:00000060  ! 00000000
                CONST2                DATA           0002:00000060  ! 00000000
                _DATA                 DATA           0002:00004d9c  ! 00000004
initfile.c      _TEXT                 CODE           0001:00065730  ! 000000c4
                CONST                 DATA           0002:00000060  ! 00000000
                CONST2                DATA           0002:00000060  ! 00000000
                _DATA                 DATA           0002:00004da0  ! 00000000
ioexit.c        _TEXT                 CODE           0001:00065800  ! 0000007c
                CONST                 DATA           0002:00000060  ! 00000000
                CONST2                DATA           0002:00000060  ! 00000000
                _DATA                 DATA           0002:00004da0  ! 00000000
clearenv.c      _TEXT                 CODE           0001:00065880  ! 00000090
                CONST                 DATA           0002:00000060  ! 00000000
                CONST2                DATA           0002:00000060  ! 00000000
                _DATA                 DATA           0002:00004da0  ! 00000000
uputenv.c       _TEXT                 CODE           0001:00065910  ! 00000239
                CONST                 DATA           0002:00000060  ! 00000000
                CONST2                DATA           0002:00000060  ! 00000000
                _DATA                 DATA           0002:00004da0  ! 00000000
ustrnicm.c      _TEXT                 CODE           0001:00065b49  ! 0000005b
                CONST                 DATA           0002:00000060  ! 00000000
                CONST2                DATA           0002:00000060  ! 00000000
                _DATA                 DATA           0002:00004da0  ! 00000000
wctomb.c        _TEXT                 CODE           0001:00065bb0  ! 0000002e
                CONST                 DATA           0002:00000060  ! 00000000
                CONST2                DATA           0002:00000060  ! 00000000
                _DATA                 DATA           0002:00004da0  ! 00000000
lltoa.c         _TEXT                 CODE           0001:00065be0  ! 00000099
                CONST                 DATA           0002:00000060  ! 00000000
                CONST2                DATA           0002:00000060  ! 00000000
                _DATA                 DATA           0002:00004da0  ! 00000000
ltoa.c          _TEXT                 CODE           0001:00065c80  ! 00000074
                CONST                 DATA           0002:00000060  ! 00000000
                CONST2                DATA           0002:00000060  ! 00000000
                _DATA                 DATA           0002:00004da0  ! 00000000
rtcntrl.c       _TEXT                 CODE           0001:00065d00  ! 00000030
                CONST                 DATA           0002:00000060  ! 00000000
                CONST2                DATA           0002:00000060  ! 00000000
                _DATA                 DATA           0002:00004da0  ! 00000001
fclose.c        _TEXT                 CODE           0001:00065d30  ! 00000101
                CONST                 DATA           0002:00000060  ! 00000000
                CONST2                DATA           0002:00000060  ! 00000000
                _DATA                 DATA           0002:00004da4  ! 00000000
                _BSS                  BSS            0002:000097f0  ! 00000004
freefp.c        _TEXT                 CODE           0001:00065e40  ! 0000007e
                CONST                 DATA           0002:00000060  ! 00000000
                CONST2                DATA           0002:00000060  ! 00000000
                _DATA                 DATA           0002:00004da4  ! 00000000
putenv.c        _TEXT                 CODE           0001:00065ec0  ! 000002d9
                CONST                 DATA           0002:00000060  ! 00000000
                CONST2                DATA           0002:00000060  ! 00000000
                _DATA                 DATA           0002:00004da4  ! 00000000
flush.c         _TEXT                 CODE           0001:000661a0  ! 000000fc
                CONST                 DATA           0002:00000060  ! 00000000
                CONST2                DATA           0002:00000060  ! 00000000
                _DATA                 DATA           0002:00004da4  ! 00000000
fsync.c         _TEXT                 CODE           0001:000662a0  ! 0000002d
                CONST                 DATA           0002:00000060  ! 00000000
                CONST2                DATA           0002:00000060  ! 00000000
                _DATA                 DATA           0002:00004da4  ! 00000000
qwrit.c         _TEXT                 CODE           0001:000662d0  ! 00000097
                CONST                 DATA           0002:00000060  ! 00000000
                CONST2                DATA           0002:00000060  ! 00000000
                _DATA                 DATA           0002:00004da4  ! 00000000


                        +----------------------+
                        |   Imported Symbols   |
                        +----------------------+

Symbol                              Module
======                              ======

WinThreadAssocQueue                 PMMERGE
DosLoadModule                       DOSCALLS
DosQueryProcAddr                    DOSCALLS
DosExit                             DOSCALLS
DosDupHandle                        DOSCALLS
DosOpen                             DOSCALLS
DosClose                            DOSCALLS
DosExecPgm                          DOSCALLS
DosRead                             DOSCALLS
DosWrite                            DOSCALLS
DosSetFilePtr                       DOSCALLS
DosDelete                           DOSCALLS
DosBeep                             DOSCALLS
PrfQueryProfile                     PMSHAPI
DosWaitEventSem                     DOSCALLS
DosResetEventSem                    DOSCALLS
WinGetMsg                           PMWIN
WinGetLastError                     PMWIN
DosPostEventSem                     DOSCALLS
WinQueryClassName                   PMWIN
WinDefWindowProc                    PMWIN
WinDispatchMsg                      PMWIN
DosCreateEventSem                   DOSCALLS
DosCreateThread                     DOSCALLS
DosSetPriority                      DOSCALLS
WinIsWindow                         PMWIN
WinQueryActiveWindow                PMWIN
WinSetActiveWindow                  PMWIN
WinQueryFocus                       PMWIN
WinSetFocus                         PMWIN
DosCloseEventSem                    DOSCALLS
WinMessageBox                       PMWIN
WinPostMsg                          PMWIN
DosFreeModule                       DOSCALLS
WinSendMsg                          PMWIN
WinDestroyWindow                    PMWIN
WinRegisterClass                    PMWIN
WinInitialize                       PMWIN
WinCreateMsgQueue                   PMWIN
WinDestroyMsgQueue                  PMWIN
WinTerminate                        PMWIN
WinUpdateWindow                     PMWIN
WinSetSysValue                      PMWIN
WinQuerySysValue                    PMWIN
WinCreateWindow                     PMWIN
WinSetWindowULong                   PMWIN
WinCreateStdWindow                  PMWIN
WinSubclassWindow                   PMWIN
WinSetWindowPos                     PMWIN
WinMapWindowPoints                  PMWIN
WinGetNextWindow                    PMWIN
WinQueryWindow                      PMWIN
WinSetCapture                       PMWIN
WinWindowFromPoint                  PMWIN
WinQueryWindowUShort                PMWIN
WinWindowFromID                     PMWIN
DosQueryDBCSEnv                     NLS
WinEnableWindowUpdate               PMWIN
WinSetDlgItemText                   PMWIN
WinQueryWindowTextLength            PMWIN
WinQueryWindowText                  PMWIN
WinPeekMsg                          PMWIN
WinDefDlgProc                       PMWIN
GpiQueryFontMetrics                 PMGPI
WinSetWindowText                    PMWIN
WinEnableWindow                     PMWIN
WinIsWindowEnabled                  PMWIN
WinQueryUpdateRect                  PMWIN
WinIsWindowVisible                  PMWIN
WinCreateHelpInstance               HELPMGR
WinAssociateHelpInstance            HELPMGR
WinDestroyHelpInstance              HELPMGR
WinCreateMenu                       PMWIN
WinLoadPointer                      PMWIN
WinQuerySysPointer                  PMWIN
WinDestroyPointer                   PMWIN
WinIntersectRect                    PMWIN
WinIsRectEmpty                      PMWIN
WinLoadMenu                         PMWIN
WinIsChild                          PMWIN
WinQueryCapture                     PMWIN
WinInvalidateRect                   PMWIN
WinQueryWindowULong                 PMWIN
GpiQueryAttrs                       PMGPI
WinQueryWindowRect                  PMWIN
WinCalcFrameRect                    PMWIN
WinShowWindow                       PMWIN
GpiBitBlt                           PMGPI
GpiQueryDeviceBitmapFormats         PMGPI
GpiCreateBitmap                     PMGPI
DevOpenDC                           PMGPI
GpiCreatePS                         PMGPI
WinOpenWindowDC                     PMWIN
GpiDestroyPS                        PMGPI
DevCloseDC                          PMGPI
GpiAssociate                        PMGPI
WinLoadDlg                          PMWIN
WinProcessDlg                       PMWIN
GpiSetCurrentPosition               PMGPI
GpiQueryMix                         PMGPI
GpiQueryBackMix                     PMGPI
GpiSetMix                           PMGPI
GpiSetBackMix                       PMGPI
GpiBox                              PMGPI
WinFillRect                         PMWIN
GpiQueryBitmapParameters            PMGPI
WinQueryClassInfo                   PMWIN
DosGetInfoBlocks                    DOSCALLS
WinQueryDlgItemText                 PMWIN
GpiQueryPel                         PMGPI
WinGetPS                            PMWIN
GpiQueryDevice                      PMGPI
WinQueryWindowPos                   PMWIN
WinGetScreenPS                      PMWIN
GpiCreateLogColorTable              PMGPI
WinReleasePS                        PMWIN
GpiPolygons                         PMGPI
GpiSetAttrs                         PMGPI
GpiSetBitmap                        PMGPI
GpiDeleteBitmap                     PMGPI
DosQueryModuleHandle                DOSCALLS
GpiQueryNearestColor                PMGPI
GpiQueryColor                       PMGPI
GpiSetColor                         PMGPI
GpiSetPel                           PMGPI
WinSetWindowUShort                  PMWIN
WinSetParent                        PMWIN
WinSetOwner                         PMWIN
GpiSetCharSet                       PMGPI
GpiDeleteSetId                      PMGPI
GpiCreateLogFont                    PMGPI
GpiSetCharBox                       PMGPI
GpiQueryFonts                       PMGPI
WinDrawText                         PMWIN
WinQueryAnchorBlock                 PMWIN
WinQueryDesktopWindow               PMWIN
WinQueryPointer                     PMWIN
WinSetPointer                       PMWIN
WinDismissDlg                       PMWIN
GpiQueryBackColor                   PMGPI
GpiSetPatternSet                    PMGPI
GpiSetBitmapId                      PMGPI
WinBeginEnumWindows                 PMWIN
WinEndEnumWindows                   PMWIN
GpiQueryBitmapBits                  PMGPI
GpiSetBitmapBits                    PMGPI
GpiLoadBitmap                       PMGPI
WinSetClipbrdData                   PMWIN
DosAllocSharedMem                   DOSCALLS
WinPopupMenu                        PMWIN
WinWaitMsg                          PMWIN
WinPtInRect                         PMWIN
WinQueryClipbrdData                 PMWIN
WinFindAtom                         PMWIN
GpiFloodFill                        PMGPI
GpiQueryBitmapInfoHeader            PMGPI
DosSuspendThread                    DOSCALLS
DevQueryCaps                        PMGPI
WinQueryDlgItemShort                PMWIN
GpiSetBackColor                     PMGPI
GpiSetClipRegion                    PMGPI
GpiCharStringAt                     PMGPI
GpiCharStringPosAt                  PMGPI
GpiIntersectClipRectangle           PMGPI
GpiQueryPageViewport                PMGPI
GpiSetPageViewport                  PMGPI
GpiQueryTextBox                     PMGPI
GpiQueryClipBox                     PMGPI
WinQueryMsgPos                      PMWIN
WinLoadString                       PMWIN
WinBeginPaint                       PMWIN
WinEndPaint                         PMWIN
WinInflateRect                      PMWIN
WinDrawBorder                       PMWIN
WinGetKeyState                      PMWIN
WinScrollWindow                     PMWIN
WinQueryPointerPos                  PMWIN
GpiLine                             PMGPI
WinCreateDlg                        PMWIN
WinFileDlg                          PMCTLS
WinFreeFileDlgList                  PMCTLS
WinSetPresParam                     PMWIN
DosQuerySysInfo                     DOSCALLS
DosQueryCurrentDir                  DOSCALLS
DosQueryCurrentDisk                 DOSCALLS
DosSetDefaultDisk                   DOSCALLS
DosSetCurrentDir                    DOSCALLS
DosQueryCp                          DOSCALLS
DOS32TRUEGETMESSAGE                 MSG
DosUnwindException                  DOSCALLS
DosAllocMem                         DOSCALLS
DosQueryPathInfo                    DOSCALLS
DosDevConfig                        DOSCALLS
DosQueryHType                       DOSCALLS
DosSetRelMaxFH                      DOSCALLS
DosFreeMem                          DOSCALLS
DosResetBuffer                      DOSCALLS


                        +--------------------+
                        |   Libraries Used   |
                        +--------------------+

/mnt/sda5/.user/root/src/openwatcom-1.9/bld/aui/os2386.pm/aui.lib
/mnt/sda5/.user/root/src/openwatcom-1.9/bld/gui/win/os2386/gui.lib
/mnt/sda5/.user/root/src/openwatcom-1.9/rel2/lib386/math387r.lib
/mnt/sda5/.user/root/src/openwatcom-1.9/rel2/lib386/os2/emu387.lib
/mnt/sda5/.user/root/src/openwatcom-1.9/rel2/lib386/os2/clib3r.lib
/mnt/sda5/.user/root/src/openwatcom-1.9/rel2/lib386/os2/os2386.lib


                        +-----------------------+
                        |   Linker Statistics   |
                        +-----------------------+

Stack size:  00010000 (65536.)
Memory size:  0007fb98 (523160.)
Entry point address: 0001:0005dbc4
Link time: 00:00.00
