Open Watcom Linker Version 1.9
Portions Copyright (c) 1985-2002 Sybase, Inc. All Rights Reserved.
Created on:       12/12/16 02:40:59
Executable Image: madx86.d32
creating an OS/2 32-bit dynamic link library


                        +------------+
                        |   Groups   |
                        +------------+

Group                           Address              Size
=====                           =======              ====

DGROUP                          0002:00000000        00000968



                        +--------------+
                        |   Segments   |
                        +--------------+

Segment                Class          Group          Address         Size
=======                =====          =====          =======         ====

_TEXT                  CODE           AUTO           0001:00000000   00019c83
CONST                  DATA           DGROUP         0002:00000000   00000000
CONST2                 DATA           DGROUP         0002:00000000   00000000
_DATA                  DATA           DGROUP         0002:00000000   0000084c
_BSS                   BSS            DGROUP         0002:0000084c   0000011c


                        +----------------+
                        |   Memory Map   |
                        +----------------+

* = unreferenced symbol
+ = symbol only referenced locally

Address        Symbol
=======        ======

Module: madimp.obj(/mnt/sda5/.user/root/src/openwatcom-1.9/bld/mad/c/madimp.c)
0001:00000000  MADLOAD
0001:00000020* MCAlloc_
0001:00000030* MCRealloc_
0001:00000040* MCFree_
0001:00000050* MCOpen_
0001:00000060* MCSeek_
0001:00000070* MCRead_
0001:00000080* MCClose_
0001:00000090  MCReadMem_
0001:000000c0  MCWriteMem_
0001:000000f0  MCString_
0001:00000100* MCAddString_
0001:00000110  MCRadixPrefix_
0001:00000120  MCNotify_
0001:00000130  MCMachineData_
0001:00000170  MCAddrToString_
0001:000001b0  MCMemExpr_
0001:000001c0  MCAddrSection_
0001:000001d0  MCAddrOvlReturn_
0001:000001e0  MCSystemConfig_
0001:000001f0  MCTypeInfoForHost_
0001:00000200* MCTypeConvert_
0001:00000220  MCTypeToString_
0001:00000240* MCStatus_
0002:00000000+ _MadImpInterface
0002:0000084c* __nullarea
0002:00000850+ _MadClient
Module: disentry.obj(/mnt/sda5/.user/root/src/openwatcom-1.9/bld/ndisasm/core/c/disentry.c)
0001:00000260  _X86MaxInsName
0001:00000261+ _DisStringTable
0001:00000e74  _DisInstructionTable
0001:000043c4+ _DisRegisterTable
0001:00004450  _DisRefTypeTable
0001:00004480  _X86RangeTable
0001:000046a8  _X86RangeTablePos
0001:000046c0+ _DisSelectorTable
0001:0000c390  SEX_
0001:0000c3b0  DisGetString_
0001:0000c400* DisDummyHandler_
0001:0000c410  DisInit_
0001:0000c430  DisFini_
0001:0000c440  DisDecodeInit_
0001:0000c4b0  DisDecode_
0001:0000c600  DisAddReg_
0001:0000c640+ DisOpFormat_
0001:0000c820  DisFormat_
0001:0000c980  DisInsNameMax_
0001:0000c990* DisInsSizeInc_
Module: disx86.obj(/mnt/sda5/.user/root/src/openwatcom-1.9/bld/ndisasm/core/c/disx86.c)
0001:0000c9e4  _X86Data
0001:0000caa0  X86PrefixFwait_
0001:0000cb20  X86PrefixOpnd_
0001:0000cb40  X86PrefixAddr_
0001:0000cb60  X86PrefixRepe_
0001:0000cb70  X86PrefixRepne_
0001:0000cb80  X86PrefixLock_
0001:0000cb90  X86PrefixCS_
0001:0000cba0  X86PrefixSS_
0001:0000cbb0  X86PrefixDS_
0001:0000cbc0  X86PrefixES_
0001:0000cbd0  X86PrefixFS_
0001:0000cbe0  X86PrefixGS_
0001:0000cc10+ X86GetRegister_D_
0001:0000cc60+ X86GetRegister_W_
0001:0000ccb0+ X86GetRegister_B_
0001:0000cd00+ X86FGetSTReg_
0001:0000cd50+ X86GetMMReg_
0001:0000cda0+ X86GetXMMReg_
0001:0000cde0+ X86GetCRegister_
0001:0000ce20+ X86GetDRegister_
0001:0000ce60+ X86GetTRegister_
0001:0000cea0+ X86GetSRegister_
0001:0000ced0+ X86GetRegister_
0001:0000cf60+ X86GetRegisterAddr_
0001:0000d940+ X86GetRefType_
0001:0000dac0+ X86FGetRefType_
0001:0000dae0+ X86FGetRefTypeEnv_
0001:0000dd10+ X86GetRegModRM_B_
0001:0000ddc0  X86SReg_8_
0001:0000de90  X86NoOp_8_
0001:0000e000  X86String_8_
0001:0000e200  X86ImmAcc_8_
0001:0000e2a0  X86MemAbsAcc_8_
0001:0000e380  X86Abs_8_
0001:0000e3a0  X86Rel_8_
0001:0000e3c0  X86Imm_8_
0001:0000e540  X86ImmReg_8_
0001:0000e580  X86ImmImm_8_
0001:0000e5d0  X86Reg_8_
0001:0000e700  X86AccAcc_8_
0001:0000e760  X86JmpCC_8_
0001:0000e7f0  X86Shift_16_
0001:0000e8a0  X86SReg_16_
0001:0000e980  X86NoOp_16_
0001:0000e990  X86ModRM_16_
0001:0000ea80  X86ModRMImm_16_
0001:0000eb70* X86ModRMAcc_16_
0001:0000ebd0  X86RegModRM_16_
0001:0000ec30  X86RegModRM_test_
0001:0000ec90  X86RegModRM_bound_
0001:0000ecf0  X86RegModRM_16B_
0001:0000ede0  X86Reg_16_
0001:0000ee00  X86JmpCC_16_
0001:0000ee20  X86SRegModRM_16_
0001:0000ef00  X86SetCC_
0001:0000ef50  X86MovCC_24_
0001:0000efc0  X86CRegReg_24_
0001:0000f070  X86DRegReg_24_
0001:0000f120  X86TRegReg_24_
0001:0000f1d0  X86ModRMImm_24_
0001:0000f240  X86NoOp_24_
0001:0000f250  X86ModRM_24_
0001:0000f2d0  X86RegModRM_24_
0001:0000f330  X86RegModRM_24B_
0001:0000f550  X86RegModRM_24C_
0001:0000f620  X86FTypeCond_
0001:0000f650  X86FType3_
0001:0000f710  X86FType3B_
0001:0000f740  X86FType3C_
0001:0000f770  X86FType2_
0001:0000f7e0  X86FTypeFSTSWAX_
0001:0000f820  X86FType4_
0001:0000f880  X86FType1_
0001:0000f9a0  X86FTypeEnv_
0001:0000fb60  X86MMRegModRM_
0001:0000fbb0  X86MMRegModRMImm_
0001:0000fc10  X86MMRegModRM_Rev_
0001:0000fc60  X86MMRegImm_
0001:0000fc90  X86XMMRegModRM_
0001:0000fce0  X86XMMRegModRMImm_
0001:0000fd40  X86XMMRegModRM_Rev_
0001:0000fd90  X86XMMRegImm_
0001:0000fdd0  X86XMMRegModRM64_
0001:0000fe20  X86XMMRegModRM64Imm_
0001:0000fe80  X86XMMRegModRM64_Rev_
0001:0000fed0  X86XMMRegModRM32_
0001:0000ff20  X86XMMRegModRM32Imm_
0001:0000ff80  X86XMMRegModRM32_Rev_
0001:0000ffd0  X86RegModRM32_Rev_
0001:00010030  X86MMRegModRMMixed_
0001:00010120  X86MMRegModRMMixedImm_
0001:000101b0  X86MMRegModRMMixed_Rev_
0001:00010210  X86XMMRegModRMMixed_
0001:000102d0  X86XMMRegModRMMixedImm_
0001:00010360  X86XMMRegModRMMixed_Rev_
0001:000103c0  X86RegModRMMixed_
0001:000104c0  X86RegModRMMixedImm_
0001:00010550  X86_3DNow_
0001:00010dc0* DisAddUnixReg_
Module: x86addr.obj(/mnt/sda5/.user/root/src/openwatcom-1.9/bld/mad/x86/c/x86addr.c)
0001:00011460  MIAddrAdd_
0001:000114b0  MIAddrComp_
0001:00011580  MIAddrDiff_
0001:000115f0  MIAddrMap_
0001:00011640  MIAddrFlat_
0001:00011670  MIAddrInterrupt_
0001:000116e0  AddrCharacteristics_
Module: x86ctrl.obj(/mnt/sda5/.user/root/src/openwatcom-1.9/bld/mad/x86/c/x86ctrl.c)
0001:00011710  MIInit_
0001:00011730  MIFini_
0001:00011740  MIStateSize_
0001:00011750  MIStateInit_
0001:00011780  MIStateSet_
0001:00011790  MIStateCopy_
0002:00000854  _MADState
Module: x86types.obj(/mnt/sda5/.user/root/src/openwatcom-1.9/bld/mad/x86/c/x86types.c)
0001:00011bf0  MITypeWalk_
0001:00011cd0  MITypeName_
0001:00011ce0  MITypePreferredRadix_
0001:00011d00  MITypeInfo_
0001:00011d80  MITypeDefault_
0001:00011e50  MITypeToString_
0001:00011ef0  MITypeForDIPType_
0001:00011ff0  MITypeConvert_
Module: x86reg.obj(/mnt/sda5/.user/root/src/openwatcom-1.9/bld/mad/x86/c/x86reg.c)
0001:00012228  _CPU_eax
0001:0001223c  _CPU_ebx
0001:00012250  _CPU_ecx
0001:00012264  _CPU_edx
0001:00012278+ _CPU_esi
0001:0001228c+ _CPU_edi
0001:000122a0+ _CPU_ebp
0001:000122b4+ _CPU_esp
0001:000122c8+ _CPU_eip
0001:000122dc+ _CPU_efl
0001:000122f0  _CPU_ax
0001:00012304  _CPU_bx
0001:00012318  _CPU_cx
0001:0001232c  _CPU_dx
0001:00012340+ _CPU_si
0001:00012354+ _CPU_di
0001:00012368+ _CPU_bp
0001:0001237c+ _CPU_sp
0001:00012390+ _CPU_ip
0001:000123a4+ _CPU_fl
0001:000123b8+ _CPU_al
0001:000123cc+ _CPU_bl
0001:000123e0+ _CPU_cl
0001:000123f4+ _CPU_dl
0001:00012408+ _CPU_ah
0001:0001241c+ _CPU_bh
0001:00012430+ _CPU_ch
0001:00012444+ _CPU_dh
0001:00012458+ _CPU_cs
0001:0001246c+ _CPU_ds
0001:00012480+ _CPU_es
0001:00012494+ _CPU_ss
0001:000124a8+ _CPU_fs
0001:000124bc+ _CPU_gs
0001:000124d0+ _CPU_vm
0001:000124e4+ _CPU_rf
0001:000124f8+ _CPU_nt
0001:0001250c+ _CPU_iopl
0001:00012520+ _CPU_o
0001:00012534+ _CPU_d
0001:00012548+ _CPU_i
0001:0001255c+ _CPU_s
0001:00012570+ _CPU_z
0001:00012584+ _CPU_a
0001:00012598+ _CPU_p
0001:000125ac+ _CPU_c
0001:000125c0+ _FPU_st0
0001:000125d4+ _FPU_st1
0001:000125e8+ _FPU_st2
0001:000125fc+ _FPU_st3
0001:00012610+ _FPU_st4
0001:00012624+ _FPU_st5
0001:00012638+ _FPU_st6
0001:0001264c+ _FPU_st7
0001:00012660+ _FPU_sw
0001:00012674+ _FPU_cw
0001:00012688+ _FPU_tag
0001:0001269c+ _FPU_tag0
0001:000126b0+ _FPU_tag1
0001:000126c4+ _FPU_tag2
0001:000126d8+ _FPU_tag3
0001:000126ec+ _FPU_tag4
0001:00012700+ _FPU_tag5
0001:00012714+ _FPU_tag6
0001:00012728+ _FPU_tag7
0001:0001273c+ _FPU_iptr
0001:00012750+ _FPU_optr
0001:00012764+ _FPU_ie
0001:00012778+ _FPU_de
0001:0001278c+ _FPU_ze
0001:000127a0+ _FPU_oe
0001:000127b4+ _FPU_ue
0001:000127c8+ _FPU_pe
0001:000127dc+ _FPU_sf
0001:000127f0+ _FPU_c0
0001:00012804+ _FPU_es
0001:00012818+ _FPU_c1
0001:0001282c+ _FPU_c2
0001:00012840+ _FPU_st
0001:00012854+ _FPU_c3
0001:00012868+ _FPU_b
0001:0001287c+ _FPU_im
0001:00012890+ _FPU_dm
0001:000128a4+ _FPU_zm
0001:000128b8+ _FPU_om
0001:000128cc+ _FPU_um
0001:000128e0+ _FPU_pm
0001:000128f4+ _FPU_iem
0001:00012908+ _FPU_pc
0001:0001291c+ _FPU_rc
0001:00012930+ _FPU_ic
0001:00012a9c+ _MMX0_b0
0001:00012ab0+ _MMX0_b1
0001:00012ac4+ _MMX0_b2
0001:00012ad8+ _MMX0_b3
0001:00012aec+ _MMX0_b4
0001:00012b00+ _MMX0_b5
0001:00012b14+ _MMX0_b6
0001:00012b28+ _MMX0_b7
0001:00012b3c+ _MMX0_w0
0001:00012b50+ _MMX0_w1
0001:00012b64+ _MMX0_w2
0001:00012b78+ _MMX0_w3
0001:00012b8c+ _MMX0_d0
0001:00012ba0+ _MMX0_d1
0001:00012bb4+ _MMX0_q0
0001:00012c08+ _MMX1_b0
0001:00012c1c+ _MMX1_b1
0001:00012c30+ _MMX1_b2
0001:00012c44+ _MMX1_b3
0001:00012c58+ _MMX1_b4
0001:00012c6c+ _MMX1_b5
0001:00012c80+ _MMX1_b6
0001:00012c94+ _MMX1_b7
0001:00012ca8+ _MMX1_w0
0001:00012cbc+ _MMX1_w1
0001:00012cd0+ _MMX1_w2
0001:00012ce4+ _MMX1_w3
0001:00012cf8+ _MMX1_d0
0001:00012d0c+ _MMX1_d1
0001:00012d20+ _MMX1_q0
0001:00012d74+ _MMX2_b0
0001:00012d88+ _MMX2_b1
0001:00012d9c+ _MMX2_b2
0001:00012db0+ _MMX2_b3
0001:00012dc4+ _MMX2_b4
0001:00012dd8+ _MMX2_b5
0001:00012dec+ _MMX2_b6
0001:00012e00+ _MMX2_b7
0001:00012e14+ _MMX2_w0
0001:00012e28+ _MMX2_w1
0001:00012e3c+ _MMX2_w2
0001:00012e50+ _MMX2_w3
0001:00012e64+ _MMX2_d0
0001:00012e78+ _MMX2_d1
0001:00012e8c+ _MMX2_q0
0001:00012ee0+ _MMX3_b0
0001:00012ef4+ _MMX3_b1
0001:00012f08+ _MMX3_b2
0001:00012f1c+ _MMX3_b3
0001:00012f30+ _MMX3_b4
0001:00012f44+ _MMX3_b5
0001:00012f58+ _MMX3_b6
0001:00012f6c+ _MMX3_b7
0001:00012f80+ _MMX3_w0
0001:00012f94+ _MMX3_w1
0001:00012fa8+ _MMX3_w2
0001:00012fbc+ _MMX3_w3
0001:00012fd0+ _MMX3_d0
0001:00012fe4+ _MMX3_d1
0001:00012ff8+ _MMX3_q0
0001:0001304c+ _MMX4_b0
0001:00013060+ _MMX4_b1
0001:00013074+ _MMX4_b2
0001:00013088+ _MMX4_b3
0001:0001309c+ _MMX4_b4
0001:000130b0+ _MMX4_b5
0001:000130c4+ _MMX4_b6
0001:000130d8+ _MMX4_b7
0001:000130ec+ _MMX4_w0
0001:00013100+ _MMX4_w1
0001:00013114+ _MMX4_w2
0001:00013128+ _MMX4_w3
0001:0001313c+ _MMX4_d0
0001:00013150+ _MMX4_d1
0001:00013164+ _MMX4_q0
0001:000131b8+ _MMX5_b0
0001:000131cc+ _MMX5_b1
0001:000131e0+ _MMX5_b2
0001:000131f4+ _MMX5_b3
0001:00013208+ _MMX5_b4
0001:0001321c+ _MMX5_b5
0001:00013230+ _MMX5_b6
0001:00013244+ _MMX5_b7
0001:00013258+ _MMX5_w0
0001:0001326c+ _MMX5_w1
0001:00013280+ _MMX5_w2
0001:00013294+ _MMX5_w3
0001:000132a8+ _MMX5_d0
0001:000132bc+ _MMX5_d1
0001:000132d0+ _MMX5_q0
0001:00013324+ _MMX6_b0
0001:00013338+ _MMX6_b1
0001:0001334c+ _MMX6_b2
0001:00013360+ _MMX6_b3
0001:00013374+ _MMX6_b4
0001:00013388+ _MMX6_b5
0001:0001339c+ _MMX6_b6
0001:000133b0+ _MMX6_b7
0001:000133c4+ _MMX6_w0
0001:000133d8+ _MMX6_w1
0001:000133ec+ _MMX6_w2
0001:00013400+ _MMX6_w3
0001:00013414+ _MMX6_d0
0001:00013428+ _MMX6_d1
0001:0001343c+ _MMX6_q0
0001:00013490+ _MMX7_b0
0001:000134a4+ _MMX7_b1
0001:000134b8+ _MMX7_b2
0001:000134cc+ _MMX7_b3
0001:000134e0+ _MMX7_b4
0001:000134f4+ _MMX7_b5
0001:00013508+ _MMX7_b6
0001:0001351c+ _MMX7_b7
0001:00013530+ _MMX7_w0
0001:00013544+ _MMX7_w1
0001:00013558+ _MMX7_w2
0001:0001356c+ _MMX7_w3
0001:00013580+ _MMX7_d0
0001:00013594+ _MMX7_d1
0001:000135a8+ _MMX7_q0
0001:000135fc+ _MMX_mm0
0001:00013610+ _MMX_mm1
0001:00013624+ _MMX_mm2
0001:00013638+ _MMX_mm3
0001:0001364c+ _MMX_mm4
0001:00013660+ _MMX_mm5
0001:00013674+ _MMX_mm6
0001:00013688+ _MMX_mm7
0001:000136c0+ _XMM0_b0
0001:000136d4+ _XMM0_b1
0001:000136e8+ _XMM0_b2
0001:000136fc+ _XMM0_b3
0001:00013710+ _XMM0_b4
0001:00013724+ _XMM0_b5
0001:00013738+ _XMM0_b6
0001:0001374c+ _XMM0_b7
0001:00013760+ _XMM0_b8
0001:00013774+ _XMM0_b9
0001:00013788+ _XMM0_b10
0001:0001379c+ _XMM0_b11
0001:000137b0+ _XMM0_b12
0001:000137c4+ _XMM0_b13
0001:000137d8+ _XMM0_b14
0001:000137ec+ _XMM0_b15
0001:00013800+ _XMM0_w0
0001:00013814+ _XMM0_w1
0001:00013828+ _XMM0_w2
0001:0001383c+ _XMM0_w3
0001:00013850+ _XMM0_w4
0001:00013864+ _XMM0_w5
0001:00013878+ _XMM0_w6
0001:0001388c+ _XMM0_w7
0001:000138a0+ _XMM0_d0
0001:000138b4+ _XMM0_d1
0001:000138c8+ _XMM0_d2
0001:000138dc+ _XMM0_d3
0001:000138f0+ _XMM0_q0
0001:00013904+ _XMM0_q1
0001:00013994+ _XMM1_b0
0001:000139a8+ _XMM1_b1
0001:000139bc+ _XMM1_b2
0001:000139d0+ _XMM1_b3
0001:000139e4+ _XMM1_b4
0001:000139f8+ _XMM1_b5
0001:00013a0c+ _XMM1_b6
0001:00013a20+ _XMM1_b7
0001:00013a34+ _XMM1_b8
0001:00013a48+ _XMM1_b9
0001:00013a5c+ _XMM1_b10
0001:00013a70+ _XMM1_b11
0001:00013a84+ _XMM1_b12
0001:00013a98+ _XMM1_b13
0001:00013aac+ _XMM1_b14
0001:00013ac0+ _XMM1_b15
0001:00013ad4+ _XMM1_w0
0001:00013ae8+ _XMM1_w1
0001:00013afc+ _XMM1_w2
0001:00013b10+ _XMM1_w3
0001:00013b24+ _XMM1_w4
0001:00013b38+ _XMM1_w5
0001:00013b4c+ _XMM1_w6
0001:00013b60+ _XMM1_w7
0001:00013b74+ _XMM1_d0
0001:00013b88+ _XMM1_d1
0001:00013b9c+ _XMM1_d2
0001:00013bb0+ _XMM1_d3
0001:00013bc4+ _XMM1_q0
0001:00013bd8+ _XMM1_q1
0001:00013c68+ _XMM2_b0
0001:00013c7c+ _XMM2_b1
0001:00013c90+ _XMM2_b2
0001:00013ca4+ _XMM2_b3
0001:00013cb8+ _XMM2_b4
0001:00013ccc+ _XMM2_b5
0001:00013ce0+ _XMM2_b6
0001:00013cf4+ _XMM2_b7
0001:00013d08+ _XMM2_b8
0001:00013d1c+ _XMM2_b9
0001:00013d30+ _XMM2_b10
0001:00013d44+ _XMM2_b11
0001:00013d58+ _XMM2_b12
0001:00013d6c+ _XMM2_b13
0001:00013d80+ _XMM2_b14
0001:00013d94+ _XMM2_b15
0001:00013da8+ _XMM2_w0
0001:00013dbc+ _XMM2_w1
0001:00013dd0+ _XMM2_w2
0001:00013de4+ _XMM2_w3
0001:00013df8+ _XMM2_w4
0001:00013e0c+ _XMM2_w5
0001:00013e20+ _XMM2_w6
0001:00013e34+ _XMM2_w7
0001:00013e48+ _XMM2_d0
0001:00013e5c+ _XMM2_d1
0001:00013e70+ _XMM2_d2
0001:00013e84+ _XMM2_d3
0001:00013e98+ _XMM2_q0
0001:00013eac+ _XMM2_q1
0001:00013f3c+ _XMM3_b0
0001:00013f50+ _XMM3_b1
0001:00013f64+ _XMM3_b2
0001:00013f78+ _XMM3_b3
0001:00013f8c+ _XMM3_b4
0001:00013fa0+ _XMM3_b5
0001:00013fb4+ _XMM3_b6
0001:00013fc8+ _XMM3_b7
0001:00013fdc+ _XMM3_b8
0001:00013ff0+ _XMM3_b9
0001:00014004+ _XMM3_b10
0001:00014018+ _XMM3_b11
0001:0001402c+ _XMM3_b12
0001:00014040+ _XMM3_b13
0001:00014054+ _XMM3_b14
0001:00014068+ _XMM3_b15
0001:0001407c+ _XMM3_w0
0001:00014090+ _XMM3_w1
0001:000140a4+ _XMM3_w2
0001:000140b8+ _XMM3_w3
0001:000140cc+ _XMM3_w4
0001:000140e0+ _XMM3_w5
0001:000140f4+ _XMM3_w6
0001:00014108+ _XMM3_w7
0001:0001411c+ _XMM3_d0
0001:00014130+ _XMM3_d1
0001:00014144+ _XMM3_d2
0001:00014158+ _XMM3_d3
0001:0001416c+ _XMM3_q0
0001:00014180+ _XMM3_q1
0001:00014210+ _XMM4_b0
0001:00014224+ _XMM4_b1
0001:00014238+ _XMM4_b2
0001:0001424c+ _XMM4_b3
0001:00014260+ _XMM4_b4
0001:00014274+ _XMM4_b5
0001:00014288+ _XMM4_b6
0001:0001429c+ _XMM4_b7
0001:000142b0+ _XMM4_b8
0001:000142c4+ _XMM4_b9
0001:000142d8+ _XMM4_b10
0001:000142ec+ _XMM4_b11
0001:00014300+ _XMM4_b12
0001:00014314+ _XMM4_b13
0001:00014328+ _XMM4_b14
0001:0001433c+ _XMM4_b15
0001:00014350+ _XMM4_w0
0001:00014364+ _XMM4_w1
0001:00014378+ _XMM4_w2
0001:0001438c+ _XMM4_w3
0001:000143a0+ _XMM4_w4
0001:000143b4+ _XMM4_w5
0001:000143c8+ _XMM4_w6
0001:000143dc+ _XMM4_w7
0001:000143f0+ _XMM4_d0
0001:00014404+ _XMM4_d1
0001:00014418+ _XMM4_d2
0001:0001442c+ _XMM4_d3
0001:00014440+ _XMM4_q0
0001:00014454+ _XMM4_q1
0001:000144e4+ _XMM5_b0
0001:000144f8+ _XMM5_b1
0001:0001450c+ _XMM5_b2
0001:00014520+ _XMM5_b3
0001:00014534+ _XMM5_b4
0001:00014548+ _XMM5_b5
0001:0001455c+ _XMM5_b6
0001:00014570+ _XMM5_b7
0001:00014584+ _XMM5_b8
0001:00014598+ _XMM5_b9
0001:000145ac+ _XMM5_b10
0001:000145c0+ _XMM5_b11
0001:000145d4+ _XMM5_b12
0001:000145e8+ _XMM5_b13
0001:000145fc+ _XMM5_b14
0001:00014610+ _XMM5_b15
0001:00014624+ _XMM5_w0
0001:00014638+ _XMM5_w1
0001:0001464c+ _XMM5_w2
0001:00014660+ _XMM5_w3
0001:00014674+ _XMM5_w4
0001:00014688+ _XMM5_w5
0001:0001469c+ _XMM5_w6
0001:000146b0+ _XMM5_w7
0001:000146c4+ _XMM5_d0
0001:000146d8+ _XMM5_d1
0001:000146ec+ _XMM5_d2
0001:00014700+ _XMM5_d3
0001:00014714+ _XMM5_q0
0001:00014728+ _XMM5_q1
0001:000147b8+ _XMM6_b0
0001:000147cc+ _XMM6_b1
0001:000147e0+ _XMM6_b2
0001:000147f4+ _XMM6_b3
0001:00014808+ _XMM6_b4
0001:0001481c+ _XMM6_b5
0001:00014830+ _XMM6_b6
0001:00014844+ _XMM6_b7
0001:00014858+ _XMM6_b8
0001:0001486c+ _XMM6_b9
0001:00014880+ _XMM6_b10
0001:00014894+ _XMM6_b11
0001:000148a8+ _XMM6_b12
0001:000148bc+ _XMM6_b13
0001:000148d0+ _XMM6_b14
0001:000148e4+ _XMM6_b15
0001:000148f8+ _XMM6_w0
0001:0001490c+ _XMM6_w1
0001:00014920+ _XMM6_w2
0001:00014934+ _XMM6_w3
0001:00014948+ _XMM6_w4
0001:0001495c+ _XMM6_w5
0001:00014970+ _XMM6_w6
0001:00014984+ _XMM6_w7
0001:00014998+ _XMM6_d0
0001:000149ac+ _XMM6_d1
0001:000149c0+ _XMM6_d2
0001:000149d4+ _XMM6_d3
0001:000149e8+ _XMM6_q0
0001:000149fc+ _XMM6_q1
0001:00014a8c+ _XMM7_b0
0001:00014aa0+ _XMM7_b1
0001:00014ab4+ _XMM7_b2
0001:00014ac8+ _XMM7_b3
0001:00014adc+ _XMM7_b4
0001:00014af0+ _XMM7_b5
0001:00014b04+ _XMM7_b6
0001:00014b18+ _XMM7_b7
0001:00014b2c+ _XMM7_b8
0001:00014b40+ _XMM7_b9
0001:00014b54+ _XMM7_b10
0001:00014b68+ _XMM7_b11
0001:00014b7c+ _XMM7_b12
0001:00014b90+ _XMM7_b13
0001:00014ba4+ _XMM7_b14
0001:00014bb8+ _XMM7_b15
0001:00014bcc+ _XMM7_w0
0001:00014be0+ _XMM7_w1
0001:00014bf4+ _XMM7_w2
0001:00014c08+ _XMM7_w3
0001:00014c1c+ _XMM7_w4
0001:00014c30+ _XMM7_w5
0001:00014c44+ _XMM7_w6
0001:00014c58+ _XMM7_w7
0001:00014c6c+ _XMM7_d0
0001:00014c80+ _XMM7_d1
0001:00014c94+ _XMM7_d2
0001:00014ca8+ _XMM7_d3
0001:00014cbc+ _XMM7_q0
0001:00014cd0+ _XMM7_q1
0001:00014d60+ _XMM_xmm0
0001:00014d74+ _XMM_xmm1
0001:00014d88+ _XMM_xmm2
0001:00014d9c+ _XMM_xmm3
0001:00014db0+ _XMM_xmm4
0001:00014dc4+ _XMM_xmm5
0001:00014dd8+ _XMM_xmm6
0001:00014dec+ _XMM_xmm7
0001:00014e00+ _XMM_mxcsr
0001:00014e14+ _XMM_mxcsr_ie
0001:00014e28+ _XMM_mxcsr_de
0001:00014e3c+ _XMM_mxcsr_ze
0001:00014e50+ _XMM_mxcsr_oe
0001:00014e64+ _XMM_mxcsr_ue
0001:00014e78+ _XMM_mxcsr_pe
0001:00014e8c+ _XMM_mxcsr_daz
0001:00014ea0+ _XMM_mxcsr_im
0001:00014eb4+ _XMM_mxcsr_dm
0001:00014ec8+ _XMM_mxcsr_zm
0001:00014edc+ _XMM_mxcsr_om
0001:00014ef0+ _XMM_mxcsr_um
0001:00014f04+ _XMM_mxcsr_pm
0001:00014f18+ _XMM_mxcsr_rc
0001:00014f2c+ _XMM_mxcsr_fz
0001:000152a0  MIRegistersSize_
0001:000152b0  MIRegistersHost_
0001:000152f0  MIRegistersTarget_
0001:00015330  MIRegSetWalk_
0001:000153c0  MIRegSetName_
0001:000153d0  MIRegSetLevel_
0001:00015660  MIRegSetDisplayGrouping_
0001:00016210  MIRegSetDisplayGetPiece_
0001:00016240  MIRegSetDisplayModify_
0001:000164e0  RegDispType_
0001:00016720  MIRegModified_
0001:00016990  MIRegInspectAddr_
0001:00016ad0  MIRegSetDisplayToggleList_
0001:00016ae0  MIRegSetDisplayToggle_
0001:00016bc0  MIRegWalk_
0001:00016cb0  GetRegSP_
0001:00016ce0+ GetRegFP_
0001:00016d10  GetRegIP_
0001:00016d40  MIRegSpecialGet_
0001:00016d80  MIRegSpecialSet_
0001:00016dc0  MIRegSpecialName_
0001:00016f60  MIRegFromContextItem_
0001:00016f70  MIRegUpdateStart_
0001:00016f80  MIRegUpdateEnd_
0001:00017160  RegInit_
0001:00017170  RegFini_
Module: x86call.obj(/mnt/sda5/.user/root/src/openwatcom-1.9/bld/mad/x86/c/x86call.c)
0001:00017200  MICallUpStackSize_
0001:00017200  MICallStackGrowsUp_
0001:00017210  MICallTypeList_
0001:00017220  MICallBuildFrame_
0001:00017330  MICallReturnReg_
0001:00017360  MICallParmRegList_
0001:00017450+ GetFarAddr_
0001:00017cd0  MICallUpStackInit_
0001:00017ce0  MICallUpStackLevel_
Module: x86disas.obj(/mnt/sda5/.user/root/src/openwatcom-1.9/bld/mad/x86/c/x86disas.c)
0002:00000954  _DbgAddr
0001:00017e20  MIDisasmDataSize_
0001:00017e30  MIDisasmNameMax_
0001:00017e40  DoCode_
0001:00017e90  DecodeIns_
0001:00017ed0  GetDisasmPrev_
0001:00017fb0  MIDisasm_
0001:00018010  MIDisasmFormat_
0001:00018170  MIDisasmInsSize_
0001:00018180  MIDisasmInsUndoable_
0001:00018210+ DisasmControl_
0001:00018210  MIDisasmControl_
0001:000185b0  MIDisasmInsNext_
0001:000187b0+ GetSegRegOverride_
0001:00018810+ MemReference_
0001:00018a30  DoDisasmMemRefWalk_
0001:00018bd0  MIDisasmMemRefWalk_
0001:00018bf0  MIDisasmToggleList_
0001:00018c00  MIDisasmToggle_
0001:00018cc0  MIDisasmInspectAddr_
0001:00018dc0  CnvRadix_
0001:00018e50  JmpLabel_
0001:00018ee0  ToSegStr_
0001:00018fd0  GetDataWord_
0001:00019000  GetDataLong_
0001:00019030  InitCache_
0001:00019080  DisCliGetData_
0001:000190f0  DisCliValueString_
0001:00019280  DisasmInit_
0001:000192b0  DisasmFini_
Module: x86trace.obj(/mnt/sda5/.user/root/src/openwatcom-1.9/bld/mad/x86/c/x86trace.c)
0001:000192d0  MITraceSize_
0001:000192e0  MITraceInit_
0001:000192f0  MITraceHaveRecursed_
0001:000196c0  MITraceOne_
0001:00019780  MITraceSimulate_
0001:000197b0  MITraceFini_
0001:00019860  MIUnexpectedBreak_
Module: /mnt/sda5/.user/root/src/openwatcom-1.9/rel2/lib386/os2/clib3r.lib(toupper.c)
0001:000199a0  toupper_
Module: /mnt/sda5/.user/root/src/openwatcom-1.9/rel2/lib386/os2/clib3r.lib(memset.c)
0001:000199b0  memset_
Module: /mnt/sda5/.user/root/src/openwatcom-1.9/rel2/lib386/os2/clib3r.lib(strupr.c)
0001:000199d0  strupr_
Module: /mnt/sda5/.user/root/src/openwatcom-1.9/rel2/lib386/os2/clib3r.lib(memmove.c)
0001:000199f0  memmove_
Module: /mnt/sda5/.user/root/src/openwatcom-1.9/rel2/lib386/os2/clib3r.lib(strncmp.c)
0001:00019a50  strncmp_
Module: /mnt/sda5/.user/root/src/openwatcom-1.9/rel2/lib386/os2/clib3r.lib(strnicmp.c)
0001:00019a80  strnicmp_
Module: /mnt/sda5/.user/root/src/openwatcom-1.9/rel2/lib386/os2/clib3r.lib(istable.c)
0001:00019ad0  __IsTable
Module: /mnt/sda5/.user/root/src/openwatcom-1.9/rel2/lib386/os2/clib3r.lib(__stos)
0001:00019be0  __STOSB
0001:00019c17* __STOSD


                        +----------------------+
                        |   Imported Symbols   |
                        +----------------------+

Symbol                              Module
======                              ======



                        +--------------------+
                        |   Libraries Used   |
                        +--------------------+

/mnt/sda5/.user/root/src/openwatcom-1.9/rel2/lib386/os2/clib3r.lib


                        +-----------------------+
                        |   Linker Statistics   |
                        +-----------------------+

Stack size:  0000 (0.)
Memory size:  0001a5eb (108011.)
Link time: 00:00.00
