Open Watcom Linker Version 1.9
Portions Copyright (c) 1985-2002 Sybase, Inc. All Rights Reserved.
Created on:       12/12/16 02:21:37
Executable Image: plbr19.dll
creating a Windows NT character-mode dynamic link library


                        +------------+
                        |   Groups   |
                        +------------+

Group                           Address              Size
=====                           =======              ====

.idata                          6fd15000             000004f7
DGROUP                          6fd16000             00006bc0



                        +--------------+
                        |   Segments   |
                        +--------------+

Segment                Class          Group          Address         Size
=======                =====          =====          =======         ====

BEGTEXT                CODE           AUTO           6fd01000        00000007
_TEXT                  CODE           AUTO           6fd01010        00013be0
TRANSFER CODE          CODE           AUTO           6fd14bf0        00000138
.idata                 .idata         .idata         6fd15000        000004f7
_NULL                  BEGDATA        DGROUP         6fd16000        00000004
_AFTERNULL             BEGDATA        DGROUP         6fd16004        00000000
CONST                  DATA           DGROUP         6fd16004        00000424
CONST2                 DATA           DGROUP         6fd16430        00003748
_DATA                  DATA           DGROUP         6fd19b80        000015e0
XIB                    DATA           DGROUP         6fd1b160        00000000
XI                     DATA           DGROUP         6fd1b160        00000054
XIE                    DATA           DGROUP         6fd1b1b4        00000000
YIB                    DATA           DGROUP         6fd1b1b4        00000000
YI                     DATA           DGROUP         6fd1b1b4        0000000c
YIE                    DATA           DGROUP         6fd1b1c0        00000000
TIB                    DATA           DGROUP         6fd1b1c0        00000000
TI                     DATA           DGROUP         6fd1b1c0        00000000
TIE                    DATA           DGROUP         6fd1b1c0        00000000
DATA                   DATA           DGROUP         6fd1b1c0        00000000
_BSS                   BSS            DGROUP         6fd1c000        00000bbc
STACK                  STACK          DGROUP         6fd1cbc0        00000000


                        +----------------+
                        |   Memory Map   |
                        +----------------+

* = unreferenced symbol
+ = symbol only referenced locally

Address        Symbol
=======        ======

Module: /mnt/sda5/.user/root/src/openwatcom-1.9/bld/clib/startup/library/winnt.386/mf_r/clibdwnt.obj(/mnt/sda5/.user/root/src/openwatcom-1.9/bld/clib/startup/c/clibdwnt.c)
6fd01010       _LibMain@12
Module: ../../../clib/winnt.386/mf_r/clbrdll.lib(dstrt386)
6fd01018       __DLLstart_
6fd01018*      __DLLstartw_
6fd01018*      _DllMainCRTStartup@12
6fd01018*      _wDllMainCRTStartup@12
Module: /mnt/sda5/.user/root/src/openwatcom-1.9/bld/plusplus/cpplib/winnt.386/mf_rmt.dll/plbxmt3r.lib(FSHAND)
6fd01074       ___wcpp_4_fs_handler_
Module: /mnt/sda5/.user/root/src/openwatcom-1.9/bld/plusplus/cpplib/winnt.386/mf_rmt.dll/plbxmt3r.lib(opdel.cpp)
6fd0108c       W?_set_op_delete$n(pn(pnv)v)pn(pnv)v
6fd010b8       W?$dln(pnv)v
Module: /mnt/sda5/.user/root/src/openwatcom-1.9/bld/plusplus/cpplib/winnt.386/mf_rmt.dll/plbxmt3r.lib(opdelarr.cpp)
6fd010c8       W?_set_op_delete_array$n(pn(pnv)v)pn(pnv)v
6fd010f4       W?$dan(pnv)v
Module: /mnt/sda5/.user/root/src/openwatcom-1.9/bld/plusplus/cpplib/winnt.386/mf_rmt.dll/plbxmt3r.lib(opnew.cpp)
6fd01158       W?_set_op_new$n(pn(ui)pnv)pn(ui)pnv
6fd01184       W?$nwn(ui)pnv
Module: /mnt/sda5/.user/root/src/openwatcom-1.9/bld/plusplus/cpplib/winnt.386/mf_rmt.dll/plbxmt3r.lib(opnewarr.cpp)
6fd01198       W?_set_op_new_array$n(pn(ui)pnv)pn(ui)pnv
6fd011c4       W?$nan(ui)pnv
Module: /mnt/sda5/.user/root/src/openwatcom-1.9/bld/plusplus/cpplib/winnt.386/mf_rmt.dll/plbxmt3r.lib(opnewp.cpp)
6fd011d0       W?$nwn(uipnv)pnv
Module: /mnt/sda5/.user/root/src/openwatcom-1.9/bld/plusplus/cpplib/winnt.386/mf_rmt.dll/plbxmt3r.lib(opnewpar.cpp)
6fd011e0       W?$nan(uipnv)pnv
Module: /mnt/sda5/.user/root/src/openwatcom-1.9/bld/plusplus/cpplib/winnt.386/mf_rmt.dll/plbxmt3r.lib(arrassgn.cpp)
6fd011f0       __wcpp_4_assign_array__
Module: /mnt/sda5/.user/root/src/openwatcom-1.9/bld/plusplus/cpplib/winnt.386/mf_rmt.dll/plbxmt3r.lib(cppdata.cpp)
6fd1c000       __wint_thread_data_offset
6fd1c004       __compiled_under_NT
Module: /mnt/sda5/.user/root/src/openwatcom-1.9/bld/plusplus/cpplib/winnt.386/mf_rmt.dll/plbxmt3r.lib(ctorarst.cpp)
6fd01550+      W?$ct:_RTDTOR$n()_
6fd01220+      W?$dt:_CTAS$n()_
6fd01560+      W?$ct:_CTAS$n()_
6fd013c4       __wcpp_4_ctor_array_storage_1m__
6fd01410       __wcpp_4_ctor_array_storage_1s__
6fd0145c       __wcpp_4_ctor_array_storage_2s__
6fd014a8       __wcpp_4_ctor_array_storage_gm__
6fd014fc       __wcpp_4_ctor_array_storage_gs__
6fd16460+      W?$Wts09n$_CTAS$$$nx[]uc
6fd19b90+      W?$Wti08$_CTAS$$$n[]uc
Module: /mnt/sda5/.user/root/src/openwatcom-1.9/bld/plusplus/cpplib/winnt.386/mf_rmt.dll/plbxmt3r.lib(dtorarst.cpp)
6fd01570       __wcpp_4_dtor_array_store__
Module: /mnt/sda5/.user/root/src/openwatcom-1.9/bld/plusplus/cpplib/winnt.386/mf_rmt.dll/plbxmt3r.lib(fsregist.cpp)
6fd015a0+      W?findHandler$n(pnuc)pnuc
6fd015b8+      __wcpp_4_dispatch_dummy__
6fd015dc       __wcpp_4_fs_lookup__
6fd016c4       ___wcpp_4_fs_handler_rtn_
Module: /mnt/sda5/.user/root/src/openwatcom-1.9/bld/plusplus/cpplib/winnt.386/mf_rmt.dll/plbxmt3r.lib(stabfunc.cpp)
6fd017a0       __wcpp_4_fun_register__
Module: /mnt/sda5/.user/root/src/openwatcom-1.9/bld/plusplus/cpplib/winnt.386/mf_rmt.dll/plbxmt3r.lib(stabreg.cpp)
6fd017b0       __wcpp_4_base_register__
6fd017dc       __wcpp_4_base_deregister__
Module: /mnt/sda5/.user/root/src/openwatcom-1.9/bld/plusplus/cpplib/winnt.386/mf_rmt.dll/plbxmt3r.lib(lock.cpp)
6fd017f0       W?$ct:__lock$n()_
6fd01808       W?$dt:__lock$n()_
6fd01838       W?p$:__lock$n()v
6fd01844       W?v$:__lock$n()v
6fd01850       W?$ct:__fn_lock$n(pn$__lock$$)_
6fd01860       W?$dt:__fn_lock$n()_
6fd1b1b4*      W?__wcpp_4_data_fini_sisema_$jl02YI$rt_init$$
Module: /mnt/sda5/.user/root/src/openwatcom-1.9/bld/plusplus/cpplib/winnt.386/mf_rmt.dll/plbxmt3r.lib(pure_err.cpp)
6fd01880       __wcpp_4_pure_error__
Module: /mnt/sda5/.user/root/src/openwatcom-1.9/bld/plusplus/cpplib/winnt.386/mf_rmt.dll/plbxmt3r.lib(rttiptr.cpp)
6fd018b0       __wcpp_4_dcptr__
Module: /mnt/sda5/.user/root/src/openwatcom-1.9/bld/plusplus/cpplib/winnt.386/mf_rmt.dll/plbxmt3r.lib(rttivoid.cpp)
6fd018e0       __wcpp_4_dcvoid__
Module: /mnt/sda5/.user/root/src/openwatcom-1.9/bld/plusplus/cpplib/winnt.386/mf_rmt.dll/plbxmt3r.lib(rttiref.cpp)
6fd019c0       W?$ct:exception$:std$n()_
6fd01a10       W?$ct:exception$:std$n(rnx$0:1$)_
6fd01a60       W?$ct:exception$:std$n(pnxa)_
6fd01ab0       W?$dt:exception$:std$n()_
6fd01b40       W?what$:exception$:std$n.x()pnxa
6fd01b80       W?$ct:bad_cast$:std$n()_
6fd16510       W?$Wvf0Io4:exception$:std$$nx[]pn()v
6fd16520+      W?$Wvf0Ho4:bad_cast$:std$$nx[]pn()v
6fd16530       W?$Wcm012$nx[]uc
6fd16540+      W?$Wth0Jnrn$bad_cast$:std$$$nx[]uc
6fd16560       W?$Wts0In$exception$:std$$$nx[]uc
6fd16580+      W?$Wts0Hn$bad_cast$:std$$$nx[]uc
6fd165a0+      W?$Wva0Ho0:bad_cast$:std$$nx[]uc
6fd19b9d+      W?$Wti0G$bad_cast$:std$$$n[]uc
6fd01be0       W?$ct:bad_cast$:std$n(rnx$0:1$)_
6fd01bf0       W?$dt:bad_cast$:std$n()_
6fd01c90+      W?.tcctor$:bad_cast$:std$n(rnx$1:2$)rn$1:2$
6fd01ca0+      W?.tdtor$:bad_cast$:std$n()pnv
6fd01cb0       W?.tdtor$:exception$:std$n()pnv
6fd0197c       __wcpp_4_dcref__
6fd165c0       W?$Wva0Io0:exception$:std$$nx[]uc
6fd19bb2       W?$Wti0H$exception$:std$$$n[]uc
Module: /mnt/sda5/.user/root/src/openwatcom-1.9/bld/plusplus/cpplib/winnt.386/mf_rmt.dll/plbxmt3r.lib(rttitid.cpp)
6fd01d80       W?$ct:bad_typeid$:std$n()_
6fd16660+      W?$Wvf0Jo4:bad_typeid$:std$$nx[]pn()v
6fd16670+      W?$Wth0Lnrn$bad_typeid$:std$$$nx[]uc
6fd16690+      W?$Wts0Jn$bad_typeid$:std$$$nx[]uc
6fd166b0+      W?$Wva0Jo0:bad_typeid$:std$$nx[]uc
6fd19bc8+      W?$Wti0I$bad_typeid$:std$$$n[]uc
6fd01de0       W?$ct:bad_typeid$:std$n(rnx$0:1$)_
6fd01df0       W?$dt:bad_typeid$:std$n()_
6fd01e90+      W?.tcctor$:bad_typeid$:std$n(rnx$1:2$)rn$1:2$
6fd01ea0+      W?.tdtor$:bad_typeid$:std$n()pnv
6fd01d2c       __wcpp_4_gettid__
Module: /mnt/sda5/.user/root/src/openwatcom-1.9/bld/plusplus/cpplib/winnt.386/mf_rmt.dll/plbxmt3r.lib(setnwhdl.cpp)
6fd01eb0       W?set_new_handler$n(pn()v)pn()v
Module: /mnt/sda5/.user/root/src/openwatcom-1.9/bld/plusplus/cpplib/winnt.386/mf_rmt.dll/plbxmt3r.lib(_stnwhdl.cpp)
6fd01ed0       W?_set_new_handler$n(pn(ui)i)pn(ui)i
Module: /mnt/sda5/.user/root/src/openwatcom-1.9/bld/plusplus/cpplib/winnt.386/mf_rmt.dll/plbxmt3r.lib(settrmnt.cpp)
6fd01ef0       W?set_terminate$:std$n(pn()v)pn()v
Module: /mnt/sda5/.user/root/src/openwatcom-1.9/bld/plusplus/cpplib/winnt.386/mf_rmt.dll/plbxmt3r.lib(setunexp.cpp)
6fd01f10       W?set_unexpected$:std$n(pn()v)pn()v
Module: /mnt/sda5/.user/root/src/openwatcom-1.9/bld/plusplus/cpplib/winnt.386/mf_rmt.dll/plbxmt3r.lib(sisema.cpp)
6fd01f30       __wcpp_4_static_init__
Module: /mnt/sda5/.user/root/src/openwatcom-1.9/bld/plusplus/cpplib/winnt.386/mf_rmt.dll/plbxmt3r.lib(stabacp.cpp)
6fd01f70       __wcpp_4_copy_array__
6fd166e0       W?$Wts0Dn$_RTARCTOR$$$nx[]uc
6fd19bdf       W?$Wti0C$_RTARCTOR$$$n[]uc
Module: /mnt/sda5/.user/root/src/openwatcom-1.9/bld/plusplus/cpplib/winnt.386/mf_rmt.dll/plbxmt3r.lib(stabacpv.cpp)
6fd02010       __wcpp_4_copy_varray__
Module: /mnt/sda5/.user/root/src/openwatcom-1.9/bld/plusplus/cpplib/winnt.386/mf_rmt.dll/plbxmt3r.lib(stabact.cpp)
6fd020c0       __wcpp_4_ctor_array__
Module: /mnt/sda5/.user/root/src/openwatcom-1.9/bld/plusplus/cpplib/winnt.386/mf_rmt.dll/plbxmt3r.lib(stabactv.cpp)
6fd02160       __wcpp_4_ctor_varray__
Module: /mnt/sda5/.user/root/src/openwatcom-1.9/bld/plusplus/cpplib/winnt.386/mf_rmt.dll/plbxmt3r.lib(stabadt.cpp)
6fd02200+      W?dtor_the_array$n(pn$_RTARCTOR$$)pnv
6fd02244       W?$dt:_RTARCTOR$n()_
6fd0225c       __wcpp_4_dtor_array__
Module: /mnt/sda5/.user/root/src/openwatcom-1.9/bld/plusplus/cpplib/winnt.386/mf_rmt.dll/plbxmt3r.lib(stabdtor.cpp)
6fd02570       __wcpp_4_destruct_internal__
6fd02590       __wcpp_4_destruct_all__
6fd02594       __wcpp_4_destruct__
Module: /mnt/sda5/.user/root/src/openwatcom-1.9/bld/plusplus/cpplib/winnt.386/mf_rmt.dll/plbxmt3r.lib(stabthrw.cpp)
6fd02db0       W?$ct:bad_exception$:std$n()_
6fd02e10       W?$ct:bad_exception$:std$n(rnx$0:1$)_
6fd02e60       W?$dt:bad_exception$:std$n()_
6fd16830+      W?$Wvf0Mo4:bad_exception$:std$$nx[]pn()v
6fd16840       W?$Wcm013$nx[]uc
6fd16850+      W?$Wth0Onrn$bad_exception$:std$$$nx[]uc
6fd16870+      W?$Wts0Mn$bad_exception$:std$$$nx[]uc
6fd16890+      W?$Wts0Hn$_EXC_PR_FNEXC$$$nx[]uc
6fd168b0+      W?$Wts0Gn$_EXC_PR_DTOR$$$nx[]uc
6fd168d0       W?$Wts0Gn$_EXC_PR_FREE$$$nx[]uc
6fd168f0       W?$Wts0Bn$_EXC_PR$$$nx[]uc
6fd16910+      W?$Wva0Mo0:bad_exception$:std$$nx[]uc
6fd19bf0       W?$Wti0A$_EXC_PR$$$n[]uc
6fd19bff       W?$Wti0F$_EXC_PR_FREE$$$n[]uc
6fd19c13+      W?$Wti0F$_EXC_PR_DTOR$$$n[]uc
6fd19c27+      W?$Wti0G$_EXC_PR_FNEXC$$$n[]uc
6fd19c3c+      W?$Wti0L$bad_exception$:std$$$n[]uc
6fd02f10+      W?.tcctor$:bad_exception$:std$n(rnx$1:2$)rn$1:2$
6fd02f20+      W?.tdtor$:bad_exception$:std$n()pnv
6fd02c6c       __wcpp_4_rethrow__
6fd02cb0       __wcpp_4_catch_done__
6fd02d18       __wcpp_4_throw__
6fd02d60       __wcpp_4_throw_zero__
Module: /mnt/sda5/.user/root/src/openwatcom-1.9/bld/plusplus/cpplib/winnt.386/mf_rmt.dll/plbxmt3r.lib(termnate.cpp)
6fd02f30       W?terminate$:std$n()v
Module: /mnt/sda5/.user/root/src/openwatcom-1.9/bld/plusplus/cpplib/winnt.386/mf_rmt.dll/plbxmt3r.lib(ti_bfor.cpp)
6fd02f70       W?before$:type_info$:std$n.x(rnx$1:2$)q
Module: /mnt/sda5/.user/root/src/openwatcom-1.9/bld/plusplus/cpplib/winnt.386/mf_rmt.dll/plbxmt3r.lib(ti_dtor.cpp)
6fd02f90       W?$dt:type_info$:std$n()_
Module: /mnt/sda5/.user/root/src/openwatcom-1.9/bld/plusplus/cpplib/winnt.386/mf_rmt.dll/plbxmt3r.lib(ti_name.cpp)
6fd16950       W?$Wts0An$__lock$$$nx[]uc
6fd16970+      W?$Wts0Dn$__fn_lock$$$nx[]uc
6fd19c76+      W?$Wti0Y$__INITFINI$:$Wun0D4c_mf4cohj4gr$$$n[]uc
6fd19c9d+      W?$Wti0C$__fn_lock$$$n[]uc
6fd03090+      W?.tdtor$:__fn_lock$n()pnv
6fd030a0       W?.tdtor$:__lock$n()pnv
6fd03004       W?name$:type_info$:std$n.x()pnxa
6fd16990+      W?$Wts0Zn$__INITFINI$:$Wun0D4c_mf4cohj4gr$$$nx[]uc
6fd19cae       W?$Wti09$__lock$$$n[]uc
6fd1c024+      W?__type_info_name_free$n$__INITFINI$:$Wun0D4c_mf4cohj4gr$$
Module: /mnt/sda5/.user/root/src/openwatcom-1.9/bld/plusplus/cpplib/winnt.386/mf_rmt.dll/plbxmt3r.lib(ti_raw.cpp)
6fd030b0       W?raw_name$:type_info$:std$n.x()pnxa
Module: /mnt/sda5/.user/root/src/openwatcom-1.9/bld/plusplus/cpplib/winnt.386/mf_rmt.dll/plbxmt3r.lib(ti_opeq.cpp)
6fd030c0       W?$ra:type_info$:std$n.x(rnx$0:1$)q
Module: /mnt/sda5/.user/root/src/openwatcom-1.9/bld/plusplus/cpplib/winnt.386/mf_rmt.dll/plbxmt3r.lib(ti_opne.cpp)
6fd030e0       W?$rb:type_info$:std$n.x(rnx$0:1$)q
Module: /mnt/sda5/.user/root/src/openwatcom-1.9/bld/plusplus/cpplib/winnt.386/mf_rmt.dll/plbxmt3r.lib(undefed.cpp)
6fd03100       __wcpp_4_undefed_cdtor__
Module: /mnt/sda5/.user/root/src/openwatcom-1.9/bld/plusplus/cpplib/winnt.386/mf_rmt.dll/plbxmt3r.lib(undefmbr.cpp)
6fd03120       __wcpp_4_undefined_member_function__
Module: /mnt/sda5/.user/root/src/openwatcom-1.9/bld/plusplus/cpplib/winnt.386/mf_rmt.dll/plbxmt3r.lib(unexpect.cpp)
6fd03140       W?unexpected$:std$n()v
Module: /mnt/sda5/.user/root/src/openwatcom-1.9/bld/plusplus/cpplib/winnt.386/mf_rmt.dll/plbxmt3r.lib(vfun_err.cpp)
6fd031e0       __wcpp_4_undef_vfun__
Module: /mnt/sda5/.user/root/src/openwatcom-1.9/bld/plusplus/cpplib/winnt.386/mf_rmt.dll/plbxmt3r.lib(flfattac.cpp)
6fd032c0       W?.tdtor$:__get_lock$n()pnv
6fd03210       W?attach$:filebuf$:std$n(i)pn$1:2$
6fd169d0       W?$Wts0En$__get_lock$$$nx[]uc
6fd19cbc       W?$Wti0D$__get_lock$$$n[]uc
Module: /mnt/sda5/.user/root/src/openwatcom-1.9/bld/plusplus/cpplib/winnt.386/mf_rmt.dll/plbxmt3r.lib(flfclose.cpp)
6fd032d0       W?close$:filebuf$:std$n()pn$1:2$
Module: /mnt/sda5/.user/root/src/openwatcom-1.9/bld/plusplus/cpplib/winnt.386/mf_rmt.dll/plbxmt3r.lib(flfconde.cpp)
6fd16a00       W?$Wvf0Ho19:filebuf$:std$$nx[]pn()v
6fd19cce       W?$Wti0H$streambuf$:std$$$n[]uc
6fd03380       W?$ct:filebuf$:std$n()_
6fd16a30       W?$Wva0Go0:filebuf$:std$$nx[]uc
6fd19ce4       W?$Wti0F$filebuf$:std$$$n[]uc
Module: /mnt/sda5/.user/root/src/openwatcom-1.9/bld/plusplus/cpplib/winnt.386/mf_rmt.dll/plbxmt3r.lib(flfconfd.cpp)
6fd03410       W?.tdtor$:streambuf$:std$n()pnv
6fd033a0       W?$ct:filebuf$:std$n(i)_
Module: /mnt/sda5/.user/root/src/openwatcom-1.9/bld/plusplus/cpplib/winnt.386/mf_rmt.dll/plbxmt3r.lib(flfconsf.cpp)
6fd03420       W?$ct:filebuf$:std$n(ipnai)_
Module: /mnt/sda5/.user/root/src/openwatcom-1.9/bld/plusplus/cpplib/winnt.386/mf_rmt.dll/plbxmt3r.lib(flfdestr.cpp)
6fd16ad0+      W?$Wts0Gn$filebuf$:std$$$nx[]uc
6fd03590       W?.tdtor$:filebuf$:std$n()pnv
6fd034a0       W?$dt:filebuf$:std$n()_
Module: /mnt/sda5/.user/root/src/openwatcom-1.9/bld/plusplus/cpplib/winnt.386/mf_rmt.dll/plbxmt3r.lib(flfopen.cpp)
6fd035a0       W?open$:filebuf$:std$n(pnxaii)pn$1:2$
Module: /mnt/sda5/.user/root/src/openwatcom-1.9/bld/plusplus/cpplib/winnt.386/mf_rmt.dll/plbxmt3r.lib(flfoprot.cpp)
6fd16b00       W?openprot$:filebuf$:std$nxi
Module: /mnt/sda5/.user/root/src/openwatcom-1.9/bld/plusplus/cpplib/winnt.386/mf_rmt.dll/plbxmt3r.lib(flfoverf.cpp)
6fd036d0       W?overflow$:filebuf$:std$n(i)i
Module: /mnt/sda5/.user/root/src/openwatcom-1.9/bld/plusplus/cpplib/winnt.386/mf_rmt.dll/plbxmt3r.lib(flfpbfai.cpp)
6fd03a80       W?pbackfail$:filebuf$:std$n(i)i
Module: /mnt/sda5/.user/root/src/openwatcom-1.9/bld/plusplus/cpplib/winnt.386/mf_rmt.dll/plbxmt3r.lib(flfseeko.cpp)
6fd03c90       W?seekoff$:filebuf$:std$n(lii)l
Module: /mnt/sda5/.user/root/src/openwatcom-1.9/bld/plusplus/cpplib/winnt.386/mf_rmt.dll/plbxmt3r.lib(flfsetbf.cpp)
6fd03db0       W?setbuf$:filebuf$:std$n(pnai)pn$streambuf$:2$
Module: /mnt/sda5/.user/root/src/openwatcom-1.9/bld/plusplus/cpplib/winnt.386/mf_rmt.dll/plbxmt3r.lib(flfsync.cpp)
6fd03e90       W?sync$:filebuf$:std$n()i
Module: /mnt/sda5/.user/root/src/openwatcom-1.9/bld/plusplus/cpplib/winnt.386/mf_rmt.dll/plbxmt3r.lib(flfundrf.cpp)
6fd04000       W?underflow$:filebuf$:std$n()i
Module: /mnt/sda5/.user/root/src/openwatcom-1.9/bld/plusplus/cpplib/winnt.386/mf_rmt.dll/plbxmt3r.lib(fsbattac.cpp)
6fd04320       W?attach$:fstreambase$:std$n(i)v
Module: /mnt/sda5/.user/root/src/openwatcom-1.9/bld/plusplus/cpplib/winnt.386/mf_rmt.dll/plbxmt3r.lib(fsbclose.cpp)
6fd04410       W?close$:fstreambase$:std$n()v
Module: /mnt/sda5/.user/root/src/openwatcom-1.9/bld/plusplus/cpplib/winnt.386/mf_rmt.dll/plbxmt3r.lib(fsbconde.cpp)
6fd16c30       W?$Wvb0Ko0:fstreambase$:std$$nx[]ui
6fd16c40       W?$Wvf0Lo22:fstreambase$:std$$nx[]pn()v
6fd16c50       W?$Wvf0Lo3j:fstreambase$:std$$nx[]pn()v
6fd19cf8       W?$Wti0B$ios$:std$$$n[]uc
6fd045a0       W?$Wvt0Z.@dt:fstreambase$:std$c$:0:1$dtn()_$:ios$:std$n()pnv
6fd045b0       W?.tdtor$:ios$:std$n()pnv
6fd044f0       W?$ct:fstreambase$:std$n()_
6fd16c60       W?$Wva0Ko0:fstreambase$:std$$nx[]uc
6fd19d08       W?$Wti0J$fstreambase$:std$$$n[]uc
Module: /mnt/sda5/.user/root/src/openwatcom-1.9/bld/plusplus/cpplib/winnt.386/mf_rmt.dll/plbxmt3r.lib(fsbconfd.cpp)
6fd045c0       W?$ct:fstreambase$:std$n(i)_
Module: /mnt/sda5/.user/root/src/openwatcom-1.9/bld/plusplus/cpplib/winnt.386/mf_rmt.dll/plbxmt3r.lib(fsbconnm.cpp)
6fd046a0       W?$ct:fstreambase$:std$n(pnxaii)_
Module: /mnt/sda5/.user/root/src/openwatcom-1.9/bld/plusplus/cpplib/winnt.386/mf_rmt.dll/plbxmt3r.lib(fsbconsf.cpp)
6fd04790       W?$ct:fstreambase$:std$n(ipnai)_
Module: /mnt/sda5/.user/root/src/openwatcom-1.9/bld/plusplus/cpplib/winnt.386/mf_rmt.dll/plbxmt3r.lib(fsbdestr.cpp)
6fd16da0+      W?$Wts0Kn$fstreambase$:std$$$nx[]uc
6fd04950       W?.tdtor$:fstreambase$:std$n()pnv
6fd04870       W?$dt:fstreambase$:std$n()_
Module: /mnt/sda5/.user/root/src/openwatcom-1.9/bld/plusplus/cpplib/winnt.386/mf_rmt.dll/plbxmt3r.lib(fsbopen.cpp)
6fd04960       W?open$:fstreambase$:std$n(pnxaii)v
Module: /mnt/sda5/.user/root/src/openwatcom-1.9/bld/plusplus/cpplib/winnt.386/mf_rmt.dll/plbxmt3r.lib(fsbsetbf.cpp)
6fd04a50       W?setbuf$:fstreambase$:std$n(pnai)v
Module: /mnt/sda5/.user/root/src/openwatcom-1.9/bld/plusplus/cpplib/winnt.386/mf_rmt.dll/plbxmt3r.lib(fstconde.cpp)
6fd04c00       W?$Wvt0X.@dt:fstream$:std$o26$:0:1$dtn()_$:iostream$:std$n()pnv
6fd16e50       W?$Wvb0Go0:fstream$:std$$nx[]ui
6fd16e60       W?$Wvb0Ho26:fstream$:std$$nx[]ui
6fd16e70       W?$Wvb0Ho2i:fstream$:std$$nx[]ui
6fd16e80       W?$Wvf0Ho22:fstream$:std$$nx[]pn()v
6fd16e90       W?$Wvf0Ho2e:fstream$:std$$nx[]pn()v
6fd16ea0       W?$Wvf0Ho2m:fstream$:std$$nx[]pn()v
6fd16eb0       W?$Wvf0Ho48:fstream$:std$$nx[]pn()v
6fd19d20       W?$Wti0F$ostream$:std$$$n[]uc
6fd19d34       W?$Wti0F$istream$:std$$$n[]uc
6fd19d48       W?$Wti0G$iostream$:std$$$n[]uc
6fd04c10       W?$Wvt0X.@dt:fstream$:std$o2i$:0:1$dtn()_$:ostream$:std$n()pnv
6fd04c20       W?$Wvt0V.@dt:fstream$:std$c$:0:1$dtn()_$:ios$:std$n()pnv
6fd04c30       W?.tdtor$:iostream$:std$n()pnv
6fd04b30       W?$ct:fstream$:std$n()_
6fd16ec0       W?$Wva0Go0:fstream$:std$$nx[]uc
6fd19d5d       W?$Wti0F$fstream$:std$$$n[]uc
Module: /mnt/sda5/.user/root/src/openwatcom-1.9/bld/plusplus/cpplib/winnt.386/mf_rmt.dll/plbxmt3r.lib(fstconfd.cpp)
6fd04c40       W?$ct:fstream$:std$n(i)_
Module: /mnt/sda5/.user/root/src/openwatcom-1.9/bld/plusplus/cpplib/winnt.386/mf_rmt.dll/plbxmt3r.lib(fstconnm.cpp)
6fd04d10       W?$ct:fstream$:std$n(pnxaii)_
Module: /mnt/sda5/.user/root/src/openwatcom-1.9/bld/plusplus/cpplib/winnt.386/mf_rmt.dll/plbxmt3r.lib(fstconsf.cpp)
6fd04df0       W?$ct:fstream$:std$n(ipnai)_
Module: /mnt/sda5/.user/root/src/openwatcom-1.9/bld/plusplus/cpplib/winnt.386/mf_rmt.dll/plbxmt3r.lib(fstdestr.cpp)
6fd17090+      W?$Wts0Gn$fstream$:std$$$nx[]uc
6fd04fd0+      W?.tdtor$:fstream$:std$n()pnv
6fd04ed0       W?$dt:fstream$:std$n()_
Module: /mnt/sda5/.user/root/src/openwatcom-1.9/bld/plusplus/cpplib/winnt.386/mf_rmt.dll/plbxmt3r.lib(ifsconde.cpp)
6fd17100       W?$Wvb0Ho0:ifstream$:std$$nx[]ui
6fd17110       W?$Wvb0Io26:ifstream$:std$$nx[]ui
6fd17120       W?$Wvf0Io22:ifstream$:std$$nx[]pn()v
6fd17130       W?$Wvf0Io2e:ifstream$:std$$nx[]pn()v
6fd17140       W?$Wvf0Io40:ifstream$:std$$nx[]pn()v
6fd050b0       W?$Wvt0Y.@dt:ifstream$:std$o26$:0:1$dtn()_$:istream$:std$n()pnv
6fd050c0       W?$Wvt0W.@dt:ifstream$:std$c$:0:1$dtn()_$:ios$:std$n()pnv
6fd050d0       W?.tdtor$:istream$:std$n()pnv
6fd04fe0       W?$ct:ifstream$:std$n()_
6fd17150       W?$Wva0Ho0:ifstream$:std$$nx[]uc
6fd19d71       W?$Wti0G$ifstream$:std$$$n[]uc
Module: /mnt/sda5/.user/root/src/openwatcom-1.9/bld/plusplus/cpplib/winnt.386/mf_rmt.dll/plbxmt3r.lib(ifsconfd.cpp)
6fd050e0       W?$ct:ifstream$:std$n(i)_
Module: /mnt/sda5/.user/root/src/openwatcom-1.9/bld/plusplus/cpplib/winnt.386/mf_rmt.dll/plbxmt3r.lib(ifsconnm.cpp)
6fd051b0       W?$ct:ifstream$:std$n(pnxaii)_
Module: /mnt/sda5/.user/root/src/openwatcom-1.9/bld/plusplus/cpplib/winnt.386/mf_rmt.dll/plbxmt3r.lib(ifsconsf.cpp)
6fd05280       W?$ct:ifstream$:std$n(ipnai)_
Module: /mnt/sda5/.user/root/src/openwatcom-1.9/bld/plusplus/cpplib/winnt.386/mf_rmt.dll/plbxmt3r.lib(ifsdestr.cpp)
6fd17300+      W?$Wts0Hn$ifstream$:std$$$nx[]uc
6fd05450+      W?.tdtor$:ifstream$:std$n()pnv
6fd05350       W?$dt:ifstream$:std$n()_
Module: /mnt/sda5/.user/root/src/openwatcom-1.9/bld/plusplus/cpplib/winnt.386/mf_rmt.dll/plbxmt3r.lib(iofexdou.cpp)
6fd05460       W?$oa:istream$:std$n(rnd)rn$0:1$
Module: /mnt/sda5/.user/root/src/openwatcom-1.9/bld/plusplus/cpplib/winnt.386/mf_rmt.dll/plbxmt3r.lib(iofexflo.cpp)
6fd05560       W?$oa:istream$:std$n(rnb)rn$0:1$
Module: /mnt/sda5/.user/root/src/openwatcom-1.9/bld/plusplus/cpplib/winnt.386/mf_rmt.dll/plbxmt3r.lib(iofexldo.cpp)
6fd05610       W?$oa:istream$:std$n(rnt)rn$0:1$
Module: /mnt/sda5/.user/root/src/openwatcom-1.9/bld/plusplus/cpplib/winnt.386/mf_rmt.dll/plbxmt3r.lib(iofnoefg.cpp)
6fd19d88       W?__EFG_cnvs2d$npn(pnapnd)v
6fd19d8c       W?__EFG_cnvd2f$npn(pndpnb)i
6fd19d90       W?__EFG_LDcvt$npn(pn$__6ks9tmlong_double$$pn$cvt_info$$pna)v
6fd19d94       W?__EFG_fcvt$npn(dipnipni)pna
6fd19d98       W?__EFG__FDLD$npn(pndpn$__6ks9tmlong_double$$)v
Module: /mnt/sda5/.user/root/src/openwatcom-1.9/bld/plusplus/cpplib/winnt.386/mf_rmt.dll/plbxmt3r.lib(iofoutfl.cpp)
6fd05730       W?__outfloat$:ostream$:std$n(rnxt)rn$1:2$
Module: /mnt/sda5/.user/root/src/openwatcom-1.9/bld/plusplus/cpplib/winnt.386/mf_rmt.dll/plbxmt3r.lib(ioicerr.cpp)
6fd1c068       W?cerr$:std$n$ostream$:1$
6fd173b0       W?$Wts0Cn$stdiobuf$$$nx[]uc
6fd173d0       W?$Wts0Gn$ostream$:std$$$nx[]uc
6fd19dcc+      W?$Wti0G$cerr_initfini$$$n[]uc
6fd19de1       W?$Wti0B$stdiobuf$$$n[]uc
6fd05c40       W?.tdtor$:ostream$:std$n()pnv
6fd05c50       W?.tdtor$:stdiobuf$n()pnv
6fd05bd8+      W?$ct:cerr_initfini$n()_
6fd05c28+      W?$dt:cerr_initfini$n()_
6fd173f0+      W?$Wts0Hn$cerr_initfini$$$nx[]uc
Module: /mnt/sda5/.user/root/src/openwatcom-1.9/bld/plusplus/cpplib/winnt.386/mf_rmt.dll/plbxmt3r.lib(ioicin.cpp)
6fd1c0e8       W?cin$:std$n$istream$:1$
6fd05ca8+      W?$ct:cin_initfini$n()_
6fd17430       W?$Wts0Gn$istream$:std$$$nx[]uc
Module: /mnt/sda5/.user/root/src/openwatcom-1.9/bld/plusplus/cpplib/winnt.386/mf_rmt.dll/plbxmt3r.lib(ioiclog.cpp)
6fd1c168       W?clog$:std$n$ostream$:1$
6fd19e41+      W?$Wti0G$clog_initfini$$$n[]uc
6fd05d58+      W?$ct:clog_initfini$n()_
6fd05d88+      W?$dt:clog_initfini$n()_
6fd17480+      W?$Wts0Hn$clog_initfini$$$nx[]uc
Module: /mnt/sda5/.user/root/src/openwatcom-1.9/bld/plusplus/cpplib/winnt.386/mf_rmt.dll/plbxmt3r.lib(ioicout.cpp)
6fd1c1e8       W?cout$:std$n$ostream$:1$
6fd19e86+      W?$Wti0G$cout_initfini$$$n[]uc
6fd05df8+      W?$ct:cout_initfini$n()_
6fd05e24+      W?$dt:cout_initfini$n()_
6fd174d0+      W?$Wts0Hn$cout_initfini$$$nx[]uc
Module: /mnt/sda5/.user/root/src/openwatcom-1.9/bld/plusplus/cpplib/winnt.386/mf_rmt.dll/plbxmt3r.lib(ioilfofg.cpp)
6fd19e9c       W?__last_format_flag$:ios$:std$nl
Module: /mnt/sda5/.user/root/src/openwatcom-1.9/bld/plusplus/cpplib/winnt.386/mf_rmt.dll/plbxmt3r.lib(ioilock.cpp)
6fd19eb0       W?__x_lock$:ios$:std$npn$__lock$$
6fd1c230+      W?xalloc_lock$n$__lock$$
Module: /mnt/sda5/.user/root/src/openwatcom-1.9/bld/plusplus/cpplib/winnt.386/mf_rmt.dll/plbxmt3r.lib(ioixainx.cpp)
6fd1c240       W?__xalloc_index$:ios$:std$ni
Module: /mnt/sda5/.user/root/src/openwatcom-1.9/bld/plusplus/cpplib/winnt.386/mf_rmt.dll/plbxmt3r.lib(iolglcon.cpp)
6fd05e60       W?$ct:__get_lock$n(pn$__lock$$)_
Module: /mnt/sda5/.user/root/src/openwatcom-1.9/bld/plusplus/cpplib/winnt.386/mf_rmt.dll/plbxmt3r.lib(iolgldes.cpp)
6fd05e80       W?$dt:__get_lock$n()_
Module: /mnt/sda5/.user/root/src/openwatcom-1.9/bld/plusplus/cpplib/winnt.386/mf_rmt.dll/plbxmt3r.lib(iosbital.cpp)
6fd05ea0       W?bitalloc$:ios$:std$n()l
Module: /mnt/sda5/.user/root/src/openwatcom-1.9/bld/plusplus/cpplib/winnt.386/mf_rmt.dll/plbxmt3r.lib(iosclear.cpp)
6fd05ef0       W?clear$:ios$:std$n(i)i
Module: /mnt/sda5/.user/root/src/openwatcom-1.9/bld/plusplus/cpplib/winnt.386/mf_rmt.dll/plbxmt3r.lib(ioscoeio.cpp)
6fd05f70       W?$aa:ios$:std$n(rnx$0:1$)rn$0:1$
Module: /mnt/sda5/.user/root/src/openwatcom-1.9/bld/plusplus/cpplib/winnt.386/mf_rmt.dll/plbxmt3r.lib(ioscoios.cpp)
6fd17540       W?$Wvf0Do19:ios$:std$$nx[]pn()v
6fd060d0       W?$ct:ios$:std$n(rnx$0:1$)_
6fd17550       W?$Wva0Co0:ios$:std$$nx[]uc
Module: /mnt/sda5/.user/root/src/openwatcom-1.9/bld/plusplus/cpplib/winnt.386/mf_rmt.dll/plbxmt3r.lib(iosconde.cpp)
6fd06190       W?$ct:ios$:std$n()_
Module: /mnt/sda5/.user/root/src/openwatcom-1.9/bld/plusplus/cpplib/winnt.386/mf_rmt.dll/plbxmt3r.lib(ioscostf.cpp)
6fd061a0       W?$ct:ios$:std$n(pn$streambuf$:1$)_
Module: /mnt/sda5/.user/root/src/openwatcom-1.9/bld/plusplus/cpplib/winnt.386/mf_rmt.dll/plbxmt3r.lib(iosdestr.cpp)
6fd17580+      W?$Wts0Cn$ios$:std$$$nx[]uc
6fd061c0       W?$dt:ios$:std$n()_
Module: /mnt/sda5/.user/root/src/openwatcom-1.9/bld/plusplus/cpplib/winnt.386/mf_rmt.dll/plbxmt3r.lib(iosexcep.cpp)
6fd06250       W?exceptions$:ios$:std$n(i)i
Module: /mnt/sda5/.user/root/src/openwatcom-1.9/bld/plusplus/cpplib/winnt.386/mf_rmt.dll/plbxmt3r.lib(iosinit.cpp)
6fd062d0       W?init$:ios$:std$n(pn$streambuf$:2$)v
Module: /mnt/sda5/.user/root/src/openwatcom-1.9/bld/plusplus/cpplib/winnt.386/mf_rmt.dll/plbxmt3r.lib(iosiword.cpp)
6fd06330       W?iword$:ios$:std$n(i)rnl
Module: /mnt/sda5/.user/root/src/openwatcom-1.9/bld/plusplus/cpplib/winnt.386/mf_rmt.dll/plbxmt3r.lib(iospword.cpp)
6fd063c0       W?pword$:ios$:std$n(i)rnpnv
Module: /mnt/sda5/.user/root/src/openwatcom-1.9/bld/plusplus/cpplib/winnt.386/mf_rmt.dll/plbxmt3r.lib(iossetst.cpp)
6fd064f0+      W?$ct:failure$:ios$:std$n(rnx$0:1:2$)_
6fd06500+      W?$dt:failure$:ios$:std$n()_
6fd175e0+      W?$Wth0Nnrn$failure$:ios$:std$$$nx[]uc
6fd17600+      W?$Wts0Ln$failure$:ios$:std$$$nx[]uc
6fd19eb4       W?$Wti0L$__WATCOM_exception$$$n[]uc
6fd19ece+      W?$Wti0K$failure$:ios$:std$$$n[]uc
6fd06510       W?$ct:__WATCOM_exception$n(rnx$0$)_
6fd06520       W?$dt:__WATCOM_exception$n()_
6fd06450       W?setstate$:ios$:std$n(i)v
6fd17620       W?$Wts0Mn$__WATCOM_exception$$$nx[]uc
Module: /mnt/sda5/.user/root/src/openwatcom-1.9/bld/plusplus/cpplib/winnt.386/mf_rmt.dll/plbxmt3r.lib(iosxallo.cpp)
6fd06530       W?xalloc$:ios$:std$n()i
Module: /mnt/sda5/.user/root/src/openwatcom-1.9/bld/plusplus/cpplib/winnt.386/mf_rmt.dll/plbxmt3r.lib(iotconbf.cpp)
6fd17690       W?$Wvb0Ho0:iostream$:std$$nx[]ui
6fd176a0       W?$Wvb0Hoc:iostream$:std$$nx[]ui
6fd176b0       W?$Wvf0Ho8:iostream$:std$$nx[]pn()v
6fd176c0       W?$Wvf0Hog:iostream$:std$$nx[]pn()v
6fd176d0       W?$Wvf0Io22:iostream$:std$$nx[]pn()v
6fd06670       W?$Wvt0X.@dt:iostream$:std$oc$:0:1$dtn()_$:ostream$:std$n()pnv
6fd06680       W?$Wvt0W.@dt:iostream$:std$c$:0:1$dtn()_$:ios$:std$n()pnv
6fd06570       W?$ct:iostream$:std$n(pn$streambuf$:1$)_
6fd176e0       W?$Wva0Ho0:iostream$:std$$nx[]uc
Module: /mnt/sda5/.user/root/src/openwatcom-1.9/bld/plusplus/cpplib/winnt.386/mf_rmt.dll/plbxmt3r.lib(iotconde.cpp)
6fd06690       W?$ct:iostream$:std$n()_
Module: /mnt/sda5/.user/root/src/openwatcom-1.9/bld/plusplus/cpplib/winnt.386/mf_rmt.dll/plbxmt3r.lib(iotconsm.cpp)
6fd06780       W?$ct:iostream$:std$n(rnx$ios$:1$)_
Module: /mnt/sda5/.user/root/src/openwatcom-1.9/bld/plusplus/cpplib/winnt.386/mf_rmt.dll/plbxmt3r.lib(iotdestr.cpp)
6fd17850+      W?$Wts0Hn$iostream$:std$$$nx[]uc
6fd06890       W?$dt:iostream$:std$n()_
Module: /mnt/sda5/.user/root/src/openwatcom-1.9/bld/plusplus/cpplib/winnt.386/mf_rmt.dll/plbxmt3r.lib(iotopbuf.cpp)
6fd06990       W?$aa:iostream$:std$n(pn$streambuf$:1$)rn$0:1$
Module: /mnt/sda5/.user/root/src/openwatcom-1.9/bld/plusplus/cpplib/winnt.386/mf_rmt.dll/plbxmt3r.lib(iotopstm.cpp)
6fd06a10       W?$aa:iostream$:std$n(rnx$ios$:1$)rn$0:1$
Module: /mnt/sda5/.user/root/src/openwatcom-1.9/bld/plusplus/cpplib/winnt.386/mf_rmt.dll/plbxmt3r.lib(ioufrxal.cpp)
6fd06ab0       W?free_xalloc_storage$:__WATCOM_ios$n(pn$ios$:std$$)v
Module: /mnt/sda5/.user/root/src/openwatcom-1.9/bld/plusplus/cpplib/winnt.386/mf_rmt.dll/plbxmt3r.lib(ioufuswr.cpp)
6fd06ad0       W?find_user_word$:__WATCOM_ios$n(pn$ios$:std$$i)pnv
Module: /mnt/sda5/.user/root/src/openwatcom-1.9/bld/plusplus/cpplib/winnt.386/mf_rmt.dll/plbxmt3r.lib(iouwrtit.cpp)
6fd17920       W?$Wcm014$nx[]uc
6fd06b60       W?writeitem$:__WATCOM_ios$n(rn$ostream$:std$$pnxaii)i
Module: /mnt/sda5/.user/root/src/openwatcom-1.9/bld/plusplus/cpplib/winnt.386/mf_rmt.dll/plbxmt3r.lib(isscochz.cpp)
6fd17980       W?$Wvb0Jo0:istrstream$:std$$nx[]ui
6fd17990       W?$Wvb0Ko2a:istrstream$:std$$nx[]ui
6fd179a0       W?$Wvf0Ko26:istrstream$:std$$nx[]pn()v
6fd179b0       W?$Wvf0Ko2i:istrstream$:std$$nx[]pn()v
6fd179c0       W?$Wvf0Ko44:istrstream$:std$$nx[]pn()v
6fd19ee7       W?$Wti0L$strstreambase$:std$$$n[]uc
6fd07290       W?$Wvt0a.@dt:istrstream$:std$o2a$:0:1$dtn()_$:istream$:std$n()pnv
6fd072a0       W?$Wvt0Y.@dt:istrstream$:std$c$:0:1$dtn()_$:ios$:std$n()pnv
6fd072b0       W?.tdtor$:strstreambase$:std$n()pnv
6fd071c0       W?$ct:istrstream$:std$n(pnai)_
6fd179d0       W?$Wva0Jo0:istrstream$:std$$nx[]uc
6fd19f01       W?$Wti0I$istrstream$:std$$$n[]uc
Module: /mnt/sda5/.user/root/src/openwatcom-1.9/bld/plusplus/cpplib/winnt.386/mf_rmt.dll/plbxmt3r.lib(issconch.cpp)
6fd072c0       W?$ct:istrstream$:std$n(pna)_
Module: /mnt/sda5/.user/root/src/openwatcom-1.9/bld/plusplus/cpplib/winnt.386/mf_rmt.dll/plbxmt3r.lib(issconsc.cpp)
6fd07390       W?$ct:istrstream$:std$n(pnc)_
Module: /mnt/sda5/.user/root/src/openwatcom-1.9/bld/plusplus/cpplib/winnt.386/mf_rmt.dll/plbxmt3r.lib(issconuc.cpp)
6fd07460       W?$ct:istrstream$:std$n(pnuc)_
Module: /mnt/sda5/.user/root/src/openwatcom-1.9/bld/plusplus/cpplib/winnt.386/mf_rmt.dll/plbxmt3r.lib(isscoscz.cpp)
6fd07530       W?$ct:istrstream$:std$n(pnci)_
Module: /mnt/sda5/.user/root/src/openwatcom-1.9/bld/plusplus/cpplib/winnt.386/mf_rmt.dll/plbxmt3r.lib(isscoucz.cpp)
6fd07600       W?$ct:istrstream$:std$n(pnuci)_
Module: /mnt/sda5/.user/root/src/openwatcom-1.9/bld/plusplus/cpplib/winnt.386/mf_rmt.dll/plbxmt3r.lib(issdestr.cpp)
6fd17c20+      W?$Wts0Jn$istrstream$:std$$$nx[]uc
6fd077d0+      W?.tdtor$:istrstream$:std$n()pnv
6fd076d0       W?$dt:istrstream$:std$n()_
Module: /mnt/sda5/.user/root/src/openwatcom-1.9/bld/plusplus/cpplib/winnt.386/mf_rmt.dll/plbxmt3r.lib(istcoeis.cpp)
6fd077e0       W?$aa:istream$:std$n(rnx$0:1$)rn$0:1$
Module: /mnt/sda5/.user/root/src/openwatcom-1.9/bld/plusplus/cpplib/winnt.386/mf_rmt.dll/plbxmt3r.lib(istcoesf.cpp)
6fd078a0       W?$aa:istream$:std$n(pn$streambuf$:1$)rn$0:1$
Module: /mnt/sda5/.user/root/src/openwatcom-1.9/bld/plusplus/cpplib/winnt.386/mf_rmt.dll/plbxmt3r.lib(istcoist.cpp)
6fd17ca0       W?$Wvb0Go0:istream$:std$$nx[]ui
6fd17cb0       W?$Wvf0Go8:istream$:std$$nx[]pn()v
6fd17cc0       W?$Wvf0Ho1p:istream$:std$$nx[]pn()v
6fd07a20       W?$Wvt0V.@dt:istream$:std$c$:0:1$dtn()_$:ios$:std$n()pnv
6fd07920       W?$ct:istream$:std$n(rnx$0:1$)_
6fd17cd0       W?$Wva0Go0:istream$:std$$nx[]uc
Module: /mnt/sda5/.user/root/src/openwatcom-1.9/bld/plusplus/cpplib/winnt.386/mf_rmt.dll/plbxmt3r.lib(istconde.cpp)
6fd07a30       W?$ct:istream$:std$n()_
Module: /mnt/sda5/.user/root/src/openwatcom-1.9/bld/plusplus/cpplib/winnt.386/mf_rmt.dll/plbxmt3r.lib(istconsf.cpp)
6fd07ae0       W?$ct:istream$:std$n(pn$streambuf$:1$)_
Module: /mnt/sda5/.user/root/src/openwatcom-1.9/bld/plusplus/cpplib/winnt.386/mf_rmt.dll/plbxmt3r.lib(istdestr.cpp)
6fd07ba0       W?$dt:istream$:std$n()_
Module: /mnt/sda5/.user/root/src/openwatcom-1.9/bld/plusplus/cpplib/winnt.386/mf_rmt.dll/plbxmt3r.lib(istdipfx.cpp)
6fd07c70       W?do_ipfx$:istream$:std$n(i)i
Module: /mnt/sda5/.user/root/src/openwatcom-1.9/bld/plusplus/cpplib/winnt.386/mf_rmt.dll/plbxmt3r.lib(istdoget.cpp)
6fd07d90       W?do_get$:istream$:std$n(rna)rn$1:2$
Module: /mnt/sda5/.user/root/src/openwatcom-1.9/bld/plusplus/cpplib/winnt.386/mf_rmt.dll/plbxmt3r.lib(istdread.cpp)
6fd07e90       W?do_read$:istream$:std$n(pnai)rn$1:2$
Module: /mnt/sda5/.user/root/src/openwatcom-1.9/bld/plusplus/cpplib/winnt.386/mf_rmt.dll/plbxmt3r.lib(istdrshf.cpp)
6fd08000       W?do_rshift$:istream$:std$n(rna)rn$1:2$
Module: /mnt/sda5/.user/root/src/openwatcom-1.9/bld/plusplus/cpplib/winnt.386/mf_rmt.dll/plbxmt3r.lib(isteatwh.cpp)
6fd080f0       W?eatwhite$:istream$:std$n()v
Module: /mnt/sda5/.user/root/src/openwatcom-1.9/bld/plusplus/cpplib/winnt.386/mf_rmt.dll/plbxmt3r.lib(istexcha.cpp)
6fd08180       W?$oa:istream$:std$n(rna)rn$0:1$
Module: /mnt/sda5/.user/root/src/openwatcom-1.9/bld/plusplus/cpplib/winnt.386/mf_rmt.dll/plbxmt3r.lib(istexi64.cpp)
6fd08300       W?$oa:istream$:std$n(rnz)rn$0:1$
Module: /mnt/sda5/.user/root/src/openwatcom-1.9/bld/plusplus/cpplib/winnt.386/mf_rmt.dll/plbxmt3r.lib(isteximn.cpp)
6fd08400       W?$oa:istream$:std$n(pn(rn$0:1$)rn$0:1$)rn$0:1$
Module: /mnt/sda5/.user/root/src/openwatcom-1.9/bld/plusplus/cpplib/winnt.386/mf_rmt.dll/plbxmt3r.lib(istexiom.cpp)
6fd08410       W?$oa:istream$:std$n(pn(rn$ios$:1$)rn$2:1$)rn$0:1$
Module: /mnt/sda5/.user/root/src/openwatcom-1.9/bld/plusplus/cpplib/winnt.386/mf_rmt.dll/plbxmt3r.lib(istexpch.cpp)
6fd08420       W?$oa:istream$:std$n(pna)rn$0:1$
Module: /mnt/sda5/.user/root/src/openwatcom-1.9/bld/plusplus/cpplib/winnt.386/mf_rmt.dll/plbxmt3r.lib(istexsin.cpp)
6fd08620       W?$oa:istream$:std$n(rni)rn$0:1$
Module: /mnt/sda5/.user/root/src/openwatcom-1.9/bld/plusplus/cpplib/winnt.386/mf_rmt.dll/plbxmt3r.lib(istexslo.cpp)
6fd08710       W?$oa:istream$:std$n(rnl)rn$0:1$
Module: /mnt/sda5/.user/root/src/openwatcom-1.9/bld/plusplus/cpplib/winnt.386/mf_rmt.dll/plbxmt3r.lib(istexssh.cpp)
6fd08800       W?$oa:istream$:std$n(rns)rn$0:1$
Module: /mnt/sda5/.user/root/src/openwatcom-1.9/bld/plusplus/cpplib/winnt.386/mf_rmt.dll/plbxmt3r.lib(istexstf.cpp)
6fd17f20       W?$Wcm015$nx[]uc
6fd088f0       W?$oa:istream$:std$n(pn$streambuf$:1$)rn$0:1$
Module: /mnt/sda5/.user/root/src/openwatcom-1.9/bld/plusplus/cpplib/winnt.386/mf_rmt.dll/plbxmt3r.lib(istexu64.cpp)
6fd08be0       W?$oa:istream$:std$n(rnuz)rn$0:1$
Module: /mnt/sda5/.user/root/src/openwatcom-1.9/bld/plusplus/cpplib/winnt.386/mf_rmt.dll/plbxmt3r.lib(istexuin.cpp)
6fd08ce0       W?$oa:istream$:std$n(rnui)rn$0:1$
Module: /mnt/sda5/.user/root/src/openwatcom-1.9/bld/plusplus/cpplib/winnt.386/mf_rmt.dll/plbxmt3r.lib(istexulo.cpp)
6fd08dd0       W?$oa:istream$:std$n(rnul)rn$0:1$
Module: /mnt/sda5/.user/root/src/openwatcom-1.9/bld/plusplus/cpplib/winnt.386/mf_rmt.dll/plbxmt3r.lib(istexush.cpp)
6fd08ec0       W?$oa:istream$:std$n(rnus)rn$0:1$
Module: /mnt/sda5/.user/root/src/openwatcom-1.9/bld/plusplus/cpplib/winnt.386/mf_rmt.dll/plbxmt3r.lib(istgch.cpp)
6fd08fb0       W?get$:istream$:std$n(rna)rn$1:2$
Module: /mnt/sda5/.user/root/src/openwatcom-1.9/bld/plusplus/cpplib/winnt.386/mf_rmt.dll/plbxmt3r.lib(istget.cpp)
6fd09130       W?get$:istream$:std$n()i
Module: /mnt/sda5/.user/root/src/openwatcom-1.9/bld/plusplus/cpplib/winnt.386/mf_rmt.dll/plbxmt3r.lib(istgline.cpp)
6fd09240       W?getline$:istream$:std$n(pnaia)rn$1:2$
Module: /mnt/sda5/.user/root/src/openwatcom-1.9/bld/plusplus/cpplib/winnt.386/mf_rmt.dll/plbxmt3r.lib(istgpch.cpp)
6fd092e0       W?get$:istream$:std$n(pnaia)rn$1:2$
Module: /mnt/sda5/.user/root/src/openwatcom-1.9/bld/plusplus/cpplib/winnt.386/mf_rmt.dll/plbxmt3r.lib(istgstf.cpp)
6fd09380       W?get$:istream$:std$n(rn$streambuf$:2$a)rn$1:2$
Module: /mnt/sda5/.user/root/src/openwatcom-1.9/bld/plusplus/cpplib/winnt.386/mf_rmt.dll/plbxmt3r.lib(istignor.cpp)
6fd095c0       W?ignore$:istream$:std$n(ii)rn$1:2$
Module: /mnt/sda5/.user/root/src/openwatcom-1.9/bld/plusplus/cpplib/winnt.386/mf_rmt.dll/plbxmt3r.lib(istipfx.cpp)
6fd096e0       W?ipfx$:istream$:std$n(i)i
Module: /mnt/sda5/.user/root/src/openwatcom-1.9/bld/plusplus/cpplib/winnt.386/mf_rmt.dll/plbxmt3r.lib(istpback.cpp)
6fd09790       W?putback$:istream$:std$n(a)rn$1:2$
Module: /mnt/sda5/.user/root/src/openwatcom-1.9/bld/plusplus/cpplib/winnt.386/mf_rmt.dll/plbxmt3r.lib(istpeek.cpp)
6fd098c0       W?peek$:istream$:std$n()i
Module: /mnt/sda5/.user/root/src/openwatcom-1.9/bld/plusplus/cpplib/winnt.386/mf_rmt.dll/plbxmt3r.lib(istread.cpp)
6fd099b0       W?read$:istream$:std$n(pnai)rn$1:2$
Module: /mnt/sda5/.user/root/src/openwatcom-1.9/bld/plusplus/cpplib/winnt.386/mf_rmt.dll/plbxmt3r.lib(istsgsto.cpp)
6fd09b80       W?seekg$:istream$:std$n(li)rn$1:2$
Module: /mnt/sda5/.user/root/src/openwatcom-1.9/bld/plusplus/cpplib/winnt.386/mf_rmt.dll/plbxmt3r.lib(istsgstp.cpp)
6fd09c40       W?seekg$:istream$:std$n(l)rn$1:2$
Module: /mnt/sda5/.user/root/src/openwatcom-1.9/bld/plusplus/cpplib/winnt.386/mf_rmt.dll/plbxmt3r.lib(istsync.cpp)
6fd09d00       W?sync$:istream$:std$n()i
Module: /mnt/sda5/.user/root/src/openwatcom-1.9/bld/plusplus/cpplib/winnt.386/mf_rmt.dll/plbxmt3r.lib(isttellg.cpp)
6fd09d20       W?tellg$:istream$:std$n()l
Module: /mnt/sda5/.user/root/src/openwatcom-1.9/bld/plusplus/cpplib/winnt.386/mf_rmt.dll/plbxmt3r.lib(mandec.cpp)
6fd09de0       W?dec$:std$n(rn$ios$:1$)rn$2:1$
Module: /mnt/sda5/.user/root/src/openwatcom-1.9/bld/plusplus/cpplib/winnt.386/mf_rmt.dll/plbxmt3r.lib(manendl.cpp)
6fd09e10       W?endl$:std$n(rn$ostream$:1$)rn$2:1$
Module: /mnt/sda5/.user/root/src/openwatcom-1.9/bld/plusplus/cpplib/winnt.386/mf_rmt.dll/plbxmt3r.lib(manends.cpp)
6fd09ea0       W?ends$:std$n(rn$ostream$:1$)rn$2:1$
Module: /mnt/sda5/.user/root/src/openwatcom-1.9/bld/plusplus/cpplib/winnt.386/mf_rmt.dll/plbxmt3r.lib(manflush.cpp)
6fd09eb0       W?flush$:std$n(rn$ostream$:1$)rn$2:1$
Module: /mnt/sda5/.user/root/src/openwatcom-1.9/bld/plusplus/cpplib/winnt.386/mf_rmt.dll/plbxmt3r.lib(manhex.cpp)
6fd09ec0       W?hex$:std$n(rn$ios$:1$)rn$2:1$
Module: /mnt/sda5/.user/root/src/openwatcom-1.9/bld/plusplus/cpplib/winnt.386/mf_rmt.dll/plbxmt3r.lib(manoct.cpp)
6fd09ef0       W?oct$:std$n(rn$ios$:1$)rn$2:1$
Module: /mnt/sda5/.user/root/src/openwatcom-1.9/bld/plusplus/cpplib/winnt.386/mf_rmt.dll/plbxmt3r.lib(manriofg.cpp)
6fd1c244       W?resetiosflags$:std$n$sapp$::1nl$
Module: /mnt/sda5/.user/root/src/openwatcom-1.9/bld/plusplus/cpplib/winnt.386/mf_rmt.dll/plbxmt3r.lib(mansbase.cpp)
6fd1c248       W?setbase$:std$n$sapp$::1ni$
Module: /mnt/sda5/.user/root/src/openwatcom-1.9/bld/plusplus/cpplib/winnt.386/mf_rmt.dll/plbxmt3r.lib(mansetw.cpp)
6fd1c24c       W?setw$:std$n$sapp$::1ni$
Module: /mnt/sda5/.user/root/src/openwatcom-1.9/bld/plusplus/cpplib/winnt.386/mf_rmt.dll/plbxmt3r.lib(mansfill.cpp)
6fd1c250       W?setfill$:std$n$sapp$::1ni$
Module: /mnt/sda5/.user/root/src/openwatcom-1.9/bld/plusplus/cpplib/winnt.386/mf_rmt.dll/plbxmt3r.lib(mansiofl.cpp)
6fd1c254       W?setiosflags$:std$n$sapp$::1nl$
Module: /mnt/sda5/.user/root/src/openwatcom-1.9/bld/plusplus/cpplib/winnt.386/mf_rmt.dll/plbxmt3r.lib(mansprec.cpp)
6fd1c258       W?setprecision$:std$n$sapp$::1ni$
Module: /mnt/sda5/.user/root/src/openwatcom-1.9/bld/plusplus/cpplib/winnt.386/mf_rmt.dll/plbxmt3r.lib(manws.cpp)
6fd0a190       W?ws$:std$n(rn$istream$:1$)rn$2:1$
Module: /mnt/sda5/.user/root/src/openwatcom-1.9/bld/plusplus/cpplib/winnt.386/mf_rmt.dll/plbxmt3r.lib(ofsconde.cpp)
6fd181c0       W?$Wvb0Ho0:ofstream$:std$$nx[]ui
6fd181d0       W?$Wvb0Io26:ofstream$:std$$nx[]ui
6fd181e0       W?$Wvf0Io22:ofstream$:std$$nx[]pn()v
6fd181f0       W?$Wvf0Io2a:ofstream$:std$$nx[]pn()v
6fd18200       W?$Wvf0Io3r:ofstream$:std$$nx[]pn()v
6fd0a300       W?$Wvt0Y.@dt:ofstream$:std$o26$:0:1$dtn()_$:ostream$:std$n()pnv
6fd0a310       W?$Wvt0W.@dt:ofstream$:std$c$:0:1$dtn()_$:ios$:std$n()pnv
6fd0a230       W?$ct:ofstream$:std$n()_
6fd18210       W?$Wva0Ho0:ofstream$:std$$nx[]uc
6fd19f18       W?$Wti0G$ofstream$:std$$$n[]uc
Module: /mnt/sda5/.user/root/src/openwatcom-1.9/bld/plusplus/cpplib/winnt.386/mf_rmt.dll/plbxmt3r.lib(ofsconfd.cpp)
6fd0a320       W?$ct:ofstream$:std$n(i)_
Module: /mnt/sda5/.user/root/src/openwatcom-1.9/bld/plusplus/cpplib/winnt.386/mf_rmt.dll/plbxmt3r.lib(ofsconnm.cpp)
6fd0a3f0       W?$ct:ofstream$:std$n(pnxaii)_
Module: /mnt/sda5/.user/root/src/openwatcom-1.9/bld/plusplus/cpplib/winnt.386/mf_rmt.dll/plbxmt3r.lib(ofsconsf.cpp)
6fd0a4c0       W?$ct:ofstream$:std$n(ipnai)_
Module: /mnt/sda5/.user/root/src/openwatcom-1.9/bld/plusplus/cpplib/winnt.386/mf_rmt.dll/plbxmt3r.lib(ofsdestr.cpp)
6fd183c0+      W?$Wts0Hn$ofstream$:std$$$nx[]uc
6fd0a690+      W?.tdtor$:ofstream$:std$n()pnv
6fd0a590       W?$dt:ofstream$:std$n()_
Module: /mnt/sda5/.user/root/src/openwatcom-1.9/bld/plusplus/cpplib/winnt.386/mf_rmt.dll/plbxmt3r.lib(ossconch.cpp)
6fd18430       W?$Wvb0Jo0:ostrstream$:std$$nx[]ui
6fd18440       W?$Wvb0Ko2a:ostrstream$:std$$nx[]ui
6fd18450       W?$Wvf0Ko26:ostrstream$:std$$nx[]pn()v
6fd18460       W?$Wvf0Ko2e:ostrstream$:std$$nx[]pn()v
6fd18470       W?$Wvf0Ko40:ostrstream$:std$$nx[]pn()v
6fd0a7a0       W?$Wvt0a.@dt:ostrstream$:std$o2a$:0:1$dtn()_$:ostream$:std$n()pnv
6fd0a7b0       W?$Wvt0Y.@dt:ostrstream$:std$c$:0:1$dtn()_$:ios$:std$n()pnv
6fd0a6a0       W?$ct:ostrstream$:std$n(pnaii)_
6fd18480       W?$Wva0Jo0:ostrstream$:std$$nx[]uc
6fd19f2d       W?$Wti0I$ostrstream$:std$$$n[]uc
Module: /mnt/sda5/.user/root/src/openwatcom-1.9/bld/plusplus/cpplib/winnt.386/mf_rmt.dll/plbxmt3r.lib(ossconde.cpp)
6fd0a7c0       W?$ct:ostrstream$:std$n()_
Module: /mnt/sda5/.user/root/src/openwatcom-1.9/bld/plusplus/cpplib/winnt.386/mf_rmt.dll/plbxmt3r.lib(ossconsc.cpp)
6fd0a890       W?$ct:ostrstream$:std$n(pncii)_
Module: /mnt/sda5/.user/root/src/openwatcom-1.9/bld/plusplus/cpplib/winnt.386/mf_rmt.dll/plbxmt3r.lib(ossconuc.cpp)
6fd0a990       W?$ct:ostrstream$:std$n(pnucii)_
Module: /mnt/sda5/.user/root/src/openwatcom-1.9/bld/plusplus/cpplib/winnt.386/mf_rmt.dll/plbxmt3r.lib(ossdestr.cpp)
6fd18630+      W?$Wts0Jn$ostrstream$:std$$$nx[]uc
6fd0ab90+      W?.tdtor$:ostrstream$:std$n()pnv
6fd0aa90       W?$dt:ostrstream$:std$n()_
Module: /mnt/sda5/.user/root/src/openwatcom-1.9/bld/plusplus/cpplib/winnt.386/mf_rmt.dll/plbxmt3r.lib(ostcoeos.cpp)
6fd0aba0       W?$aa:ostream$:std$n(rnx$0:1$)rn$0:1$
Module: /mnt/sda5/.user/root/src/openwatcom-1.9/bld/plusplus/cpplib/winnt.386/mf_rmt.dll/plbxmt3r.lib(ostcoesf.cpp)
6fd0ac60       W?$aa:ostream$:std$n(pn$streambuf$:1$)rn$0:1$
Module: /mnt/sda5/.user/root/src/openwatcom-1.9/bld/plusplus/cpplib/winnt.386/mf_rmt.dll/plbxmt3r.lib(ostconde.cpp)
6fd18680       W?$Wvb0Go0:ostream$:std$$nx[]ui
6fd18690       W?$Wvf0Go4:ostream$:std$$nx[]pn()v
6fd186a0       W?$Wvf0Ho1l:ostream$:std$$nx[]pn()v
6fd0ad20       W?$Wvt0V.@dt:ostream$:std$c$:0:1$dtn()_$:ios$:std$n()pnv
6fd0ace0       W?$ct:ostream$:std$n()_
6fd186b0       W?$Wva0Go0:ostream$:std$$nx[]uc
Module: /mnt/sda5/.user/root/src/openwatcom-1.9/bld/plusplus/cpplib/winnt.386/mf_rmt.dll/plbxmt3r.lib(ostconsf.cpp)
6fd0ad30       W?$ct:ostream$:std$n(pn$streambuf$:1$)_
Module: /mnt/sda5/.user/root/src/openwatcom-1.9/bld/plusplus/cpplib/winnt.386/mf_rmt.dll/plbxmt3r.lib(ostcoost.cpp)
6fd0add0       W?$ct:ostream$:std$n(rnx$0:1$)_
Module: /mnt/sda5/.user/root/src/openwatcom-1.9/bld/plusplus/cpplib/winnt.386/mf_rmt.dll/plbxmt3r.lib(ostdestr.cpp)
6fd0aea0       W?$dt:ostream$:std$n()_
Module: /mnt/sda5/.user/root/src/openwatcom-1.9/bld/plusplus/cpplib/winnt.386/mf_rmt.dll/plbxmt3r.lib(ostdlshf.cpp)
6fd0af70       W?do_lshift$:ostream$:std$n(a)rn$1:2$
Module: /mnt/sda5/.user/root/src/openwatcom-1.9/bld/plusplus/cpplib/winnt.386/mf_rmt.dll/plbxmt3r.lib(ostflush.cpp)
6fd0b010       W?flush$:ostream$:std$n()rn$1:2$
Module: /mnt/sda5/.user/root/src/openwatcom-1.9/bld/plusplus/cpplib/winnt.386/mf_rmt.dll/plbxmt3r.lib(ostincch.cpp)
6fd0b0c0       W?$ob:ostream$:std$n(pnxa)rn$0:1$
Module: /mnt/sda5/.user/root/src/openwatcom-1.9/bld/plusplus/cpplib/winnt.386/mf_rmt.dll/plbxmt3r.lib(ostincha.cpp)
6fd0b240       W?$ob:ostream$:std$n(a)rn$0:1$
Module: /mnt/sda5/.user/root/src/openwatcom-1.9/bld/plusplus/cpplib/winnt.386/mf_rmt.dll/plbxmt3r.lib(ostini64.cpp)
6fd0b420       W?$ob:ostream$:std$n(z)rn$0:1$
Module: /mnt/sda5/.user/root/src/openwatcom-1.9/bld/plusplus/cpplib/winnt.386/mf_rmt.dll/plbxmt3r.lib(ostiniom.cpp)
6fd0b630       W?$ob:ostream$:std$n(pn(rn$ios$:1$)rn$2:1$)rn$0:1$
Module: /mnt/sda5/.user/root/src/openwatcom-1.9/bld/plusplus/cpplib/winnt.386/mf_rmt.dll/plbxmt3r.lib(ostinomn.cpp)
6fd0b640       W?$ob:ostream$:std$n(pn(rn$0:1$)rn$0:1$)rn$0:1$
Module: /mnt/sda5/.user/root/src/openwatcom-1.9/bld/plusplus/cpplib/winnt.386/mf_rmt.dll/plbxmt3r.lib(ostinptr.cpp)
6fd0b650       W?$ob:ostream$:std$n(pnv)rn$0:1$
Module: /mnt/sda5/.user/root/src/openwatcom-1.9/bld/plusplus/cpplib/winnt.386/mf_rmt.dll/plbxmt3r.lib(ostinslo.cpp)
6fd0b810       W?$ob:ostream$:std$n(l)rn$0:1$
Module: /mnt/sda5/.user/root/src/openwatcom-1.9/bld/plusplus/cpplib/winnt.386/mf_rmt.dll/plbxmt3r.lib(ostinstf.cpp)
6fd188d0+      W?$Wcm016$nx[]uc
6fd0ba10       W?$ob:ostream$:std$n(pn$streambuf$:1$)rn$0:1$
Module: /mnt/sda5/.user/root/src/openwatcom-1.9/bld/plusplus/cpplib/winnt.386/mf_rmt.dll/plbxmt3r.lib(ostinu64.cpp)
6fd0bcf0       W?$ob:ostream$:std$n(uz)rn$0:1$
Module: /mnt/sda5/.user/root/src/openwatcom-1.9/bld/plusplus/cpplib/winnt.386/mf_rmt.dll/plbxmt3r.lib(ostinulo.cpp)
6fd0bf00       W?$ob:ostream$:std$n(ul)rn$0:1$
Module: /mnt/sda5/.user/root/src/openwatcom-1.9/bld/plusplus/cpplib/winnt.386/mf_rmt.dll/plbxmt3r.lib(ostopfx.cpp)
6fd0c100       W?do_opfx$:ostream$:std$n()i
Module: /mnt/sda5/.user/root/src/openwatcom-1.9/bld/plusplus/cpplib/winnt.386/mf_rmt.dll/plbxmt3r.lib(ostput.cpp)
6fd0c1d0       W?put$:ostream$:std$n(a)rn$1:2$
Module: /mnt/sda5/.user/root/src/openwatcom-1.9/bld/plusplus/cpplib/winnt.386/mf_rmt.dll/plbxmt3r.lib(ostspsto.cpp)
6fd0c390       W?seekp$:ostream$:std$n(li)rn$1:2$
Module: /mnt/sda5/.user/root/src/openwatcom-1.9/bld/plusplus/cpplib/winnt.386/mf_rmt.dll/plbxmt3r.lib(ostspstp.cpp)
6fd0c500       W?seekp$:ostream$:std$n(l)rn$1:2$
Module: /mnt/sda5/.user/root/src/openwatcom-1.9/bld/plusplus/cpplib/winnt.386/mf_rmt.dll/plbxmt3r.lib(osttellp.cpp)
6fd0c670       W?tellp$:ostream$:std$n()l
Module: /mnt/sda5/.user/root/src/openwatcom-1.9/bld/plusplus/cpplib/winnt.386/mf_rmt.dll/plbxmt3r.lib(ostwrite.cpp)
6fd0c730       W?write$:ostream$:std$n(pnxai)rn$1:2$
Module: /mnt/sda5/.user/root/src/openwatcom-1.9/bld/plusplus/cpplib/winnt.386/mf_rmt.dll/plbxmt3r.lib(sdfconde.cpp)
6fd18a40       W?$Wvf0Do19:stdiobuf$$nx[]pn()v
6fd0c950       W?$ct:stdiobuf$n()_
6fd18a70       W?$Wva0Co0:stdiobuf$$nx[]uc
Module: /mnt/sda5/.user/root/src/openwatcom-1.9/bld/plusplus/cpplib/winnt.386/mf_rmt.dll/plbxmt3r.lib(sdfconfp.cpp)
6fd0c960       W?$ct:stdiobuf$n(pn$__iobuf$$)_
Module: /mnt/sda5/.user/root/src/openwatcom-1.9/bld/plusplus/cpplib/winnt.386/mf_rmt.dll/plbxmt3r.lib(sdfdestr.cpp)
6fd0c970       W?$dt:stdiobuf$n()_
Module: /mnt/sda5/.user/root/src/openwatcom-1.9/bld/plusplus/cpplib/winnt.386/mf_rmt.dll/plbxmt3r.lib(sdfoverf.cpp)
6fd0ca60       W?overflow$:stdiobuf$n(i)i
Module: /mnt/sda5/.user/root/src/openwatcom-1.9/bld/plusplus/cpplib/winnt.386/mf_rmt.dll/plbxmt3r.lib(sdfsync.cpp)
6fd0cd80       W?sync$:stdiobuf$n()i
Module: /mnt/sda5/.user/root/src/openwatcom-1.9/bld/plusplus/cpplib/winnt.386/mf_rmt.dll/plbxmt3r.lib(sdfundrf.cpp)
6fd0ce70       W?underflow$:stdiobuf$n()i
Module: /mnt/sda5/.user/root/src/openwatcom-1.9/bld/plusplus/cpplib/winnt.386/mf_rmt.dll/plbxmt3r.lib(ssbconde.cpp)
6fd18b80       W?$Wvf0Mo19:strstreambuf$:std$$nx[]pn()v
6fd18bb0       W?$Wvb0Mo0:strstreambase$:std$$nx[]ui
6fd18bc0       W?$Wvf0No26:strstreambase$:std$$nx[]pn()v
6fd18bd0       W?$Wvf0No3n:strstreambase$:std$$nx[]pn()v
6fd18be0       W?$Wva0Mo0:strstreambase$:std$$nx[]uc
6fd19f44       W?$Wti0K$strstreambuf$:std$$$n[]uc
6fd0d270       W?$Wvt0b.@dt:strstreambase$:std$c$:0:1$dtn()_$:ios$:std$n()pnv
6fd0d280       W?.tdtor$:strstreambuf$:std$n()pnv
6fd0d190       W?$ct:strstreambase$:std$n()_
6fd18c10       W?$Wva0Lo0:strstreambuf$:std$$nx[]uc
Module: /mnt/sda5/.user/root/src/openwatcom-1.9/bld/plusplus/cpplib/winnt.386/mf_rmt.dll/plbxmt3r.lib(ssbconsz.cpp)
6fd0d290       W?$ct:strstreambase$:std$n(pnaipna)_
Module: /mnt/sda5/.user/root/src/openwatcom-1.9/bld/plusplus/cpplib/winnt.386/mf_rmt.dll/plbxmt3r.lib(ssbdestr.cpp)
6fd18ce0+      W?$Wts0Mn$strstreambase$:std$$$nx[]uc
6fd0d370       W?$dt:strstreambase$:std$n()_
Module: /mnt/sda5/.user/root/src/openwatcom-1.9/bld/plusplus/cpplib/winnt.386/mf_rmt.dll/plbxmt3r.lib(ssfdestr.cpp)
6fd0d520       W?$ct:strstreambuf$:std$n()_
6fd18d60+      W?$Wts0Ln$strstreambuf$:std$$$nx[]uc
6fd0d450       W?$dt:strstreambuf$:std$n()_
Module: /mnt/sda5/.user/root/src/openwatcom-1.9/bld/plusplus/cpplib/winnt.386/mf_rmt.dll/plbxmt3r.lib(ssfdoall.cpp)
6fd0d590       W?doallocate$:strstreambuf$:std$n()i
Module: /mnt/sda5/.user/root/src/openwatcom-1.9/bld/plusplus/cpplib/winnt.386/mf_rmt.dll/plbxmt3r.lib(ssfempsf.cpp)
6fd0d810       W?$ct:strstreambuf$:std$n(pn(l)pnvpn(pnv)v)_
Module: /mnt/sda5/.user/root/src/openwatcom-1.9/bld/plusplus/cpplib/winnt.386/mf_rmt.dll/plbxmt3r.lib(ssfempsz.cpp)
6fd0d890       W?$ct:strstreambuf$:std$n(i)_
Module: /mnt/sda5/.user/root/src/openwatcom-1.9/bld/plusplus/cpplib/winnt.386/mf_rmt.dll/plbxmt3r.lib(ssfoverf.cpp)
6fd0d910       W?overflow$:strstreambuf$:std$n(i)i
Module: /mnt/sda5/.user/root/src/openwatcom-1.9/bld/plusplus/cpplib/winnt.386/mf_rmt.dll/plbxmt3r.lib(ssfseeko.cpp)
6fd0da80       W?seekoff$:strstreambuf$:std$n(lii)l
Module: /mnt/sda5/.user/root/src/openwatcom-1.9/bld/plusplus/cpplib/winnt.386/mf_rmt.dll/plbxmt3r.lib(ssfsetbf.cpp)
6fd0dc20       W?setbuf$:strstreambuf$:std$n(pnai)pn$streambuf$:2$
Module: /mnt/sda5/.user/root/src/openwatcom-1.9/bld/plusplus/cpplib/winnt.386/mf_rmt.dll/plbxmt3r.lib(ssfstbuf.cpp)
6fd0dc50       W?__strstreambuf$:strstreambuf$:std$n(pnaipna)v
Module: /mnt/sda5/.user/root/src/openwatcom-1.9/bld/plusplus/cpplib/winnt.386/mf_rmt.dll/plbxmt3r.lib(ssfstr.cpp)
6fd0ddf0       W?str$:strstreambuf$:std$n()pna
Module: /mnt/sda5/.user/root/src/openwatcom-1.9/bld/plusplus/cpplib/winnt.386/mf_rmt.dll/plbxmt3r.lib(ssfsync.cpp)
6fd0df70       W?sync$:strstreambuf$:std$n()i
Module: /mnt/sda5/.user/root/src/openwatcom-1.9/bld/plusplus/cpplib/winnt.386/mf_rmt.dll/plbxmt3r.lib(ssfundrf.cpp)
6fd0df80       W?underflow$:strstreambuf$:std$n()i
Module: /mnt/sda5/.user/root/src/openwatcom-1.9/bld/plusplus/cpplib/winnt.386/mf_rmt.dll/plbxmt3r.lib(sstconch.cpp)
6fd0e1c0       W?$Wvt0Z.@dt:strstream$:std$o2a$:0:1$dtn()_$:iostream$:std$n()pnv
6fd18e70       W?$Wvb0Io0:strstream$:std$$nx[]ui
6fd18e80       W?$Wvb0Jo2a:strstream$:std$$nx[]ui
6fd18e90       W?$Wvb0Jo2m:strstream$:std$$nx[]ui
6fd18ea0       W?$Wvf0Jo26:strstream$:std$$nx[]pn()v
6fd18eb0       W?$Wvf0Jo2i:strstream$:std$$nx[]pn()v
6fd18ec0       W?$Wvf0Jo2q:strstream$:std$$nx[]pn()v
6fd18ed0       W?$Wvf0Jo4c:strstream$:std$$nx[]pn()v
6fd0e1d0       W?$Wvt0Z.@dt:strstream$:std$o2m$:0:1$dtn()_$:ostream$:std$n()pnv
6fd0e1e0       W?$Wvt0X.@dt:strstream$:std$c$:0:1$dtn()_$:ios$:std$n()pnv
6fd0e0b0       W?$ct:strstream$:std$n(pnaii)_
6fd18ee0       W?$Wva0Io0:strstream$:std$$nx[]uc
6fd19f5d       W?$Wti0H$strstream$:std$$$n[]uc
Module: /mnt/sda5/.user/root/src/openwatcom-1.9/bld/plusplus/cpplib/winnt.386/mf_rmt.dll/plbxmt3r.lib(sstconde.cpp)
6fd0e1f0       W?$ct:strstream$:std$n()_
Module: /mnt/sda5/.user/root/src/openwatcom-1.9/bld/plusplus/cpplib/winnt.386/mf_rmt.dll/plbxmt3r.lib(sstconsc.cpp)
6fd0e2c0       W?$ct:strstream$:std$n(pncii)_
Module: /mnt/sda5/.user/root/src/openwatcom-1.9/bld/plusplus/cpplib/winnt.386/mf_rmt.dll/plbxmt3r.lib(sstconuc.cpp)
6fd0e3d0       W?$ct:strstream$:std$n(pnucii)_
Module: /mnt/sda5/.user/root/src/openwatcom-1.9/bld/plusplus/cpplib/winnt.386/mf_rmt.dll/plbxmt3r.lib(sstdestr.cpp)
6fd190b0+      W?$Wts0In$strstream$:std$$$nx[]uc
6fd0e5e0+      W?.tdtor$:strstream$:std$n()pnv
6fd0e4e0       W?$dt:strstream$:std$n()_
Module: /mnt/sda5/.user/root/src/openwatcom-1.9/bld/plusplus/cpplib/winnt.386/mf_rmt.dll/plbxmt3r.lib(stfconb.cpp)
6fd190d0       W?$Wvf0Jo19:streambuf$:std$$nx[]pn()v
6fd0e5f0       W?$ct:streambuf$:std$n(pnai)_
6fd19100       W?$Wva0Io0:streambuf$:std$$nx[]uc
Module: /mnt/sda5/.user/root/src/openwatcom-1.9/bld/plusplus/cpplib/winnt.386/mf_rmt.dll/plbxmt3r.lib(stfconde.cpp)
6fd0e650       W?$ct:streambuf$:std$n()_
Module: /mnt/sda5/.user/root/src/openwatcom-1.9/bld/plusplus/cpplib/winnt.386/mf_rmt.dll/plbxmt3r.lib(stfdbp.cpp)
6fd0e6b0       W?dbp$:streambuf$:std$n()v
Module: /mnt/sda5/.user/root/src/openwatcom-1.9/bld/plusplus/cpplib/winnt.386/mf_rmt.dll/plbxmt3r.lib(stfdestr.cpp)
6fd0e6f0       W?$dt:streambuf$:std$n()_
Module: /mnt/sda5/.user/root/src/openwatcom-1.9/bld/plusplus/cpplib/winnt.386/mf_rmt.dll/plbxmt3r.lib(stfdoall.cpp)
6fd0e720       W?doallocate$:streambuf$:std$n()i
Module: /mnt/sda5/.user/root/src/openwatcom-1.9/bld/plusplus/cpplib/winnt.386/mf_rmt.dll/plbxmt3r.lib(stfdsgtn.cpp)
6fd0e7e0       W?do_sgetn$:streambuf$:std$n(pnai)i
Module: /mnt/sda5/.user/root/src/openwatcom-1.9/bld/plusplus/cpplib/winnt.386/mf_rmt.dll/plbxmt3r.lib(stfdspun.cpp)
6fd0e8e0       W?do_sputn$:streambuf$:std$n(pnxai)i
Module: /mnt/sda5/.user/root/src/openwatcom-1.9/bld/plusplus/cpplib/winnt.386/mf_rmt.dll/plbxmt3r.lib(stfpbfai.cpp)
6fd0ea20       W?pbackfail$:streambuf$:std$n(i)i
Module: /mnt/sda5/.user/root/src/openwatcom-1.9/bld/plusplus/cpplib/winnt.386/mf_rmt.dll/plbxmt3r.lib(stfsbuf.cpp)
6fd0ea30       W?setbuf$:streambuf$:std$n(pnai)pn$1:2$
Module: /mnt/sda5/.user/root/src/openwatcom-1.9/bld/plusplus/cpplib/winnt.386/mf_rmt.dll/plbxmt3r.lib(stfseeko.cpp)
6fd0eb10       W?seekoff$:streambuf$:std$n(lii)l
Module: /mnt/sda5/.user/root/src/openwatcom-1.9/bld/plusplus/cpplib/winnt.386/mf_rmt.dll/plbxmt3r.lib(stfseekp.cpp)
6fd0eb20       W?seekpos$:streambuf$:std$n(li)l
Module: /mnt/sda5/.user/root/src/openwatcom-1.9/bld/plusplus/cpplib/winnt.386/mf_rmt.dll/plbxmt3r.lib(stfsetb.cpp)
6fd0eb30       W?setb$:streambuf$:std$n(pnapnai)v
Module: /mnt/sda5/.user/root/src/openwatcom-1.9/bld/plusplus/cpplib/winnt.386/mf_rmt.dll/plbxmt3r.lib(stfsync.cpp)
6fd0ebf0       W?sync$:streambuf$:std$n()i
Module: /mnt/sda5/.user/root/src/openwatcom-1.9/bld/plusplus/cpplib/winnt.386/mf_rmt.dll/plbxmt3r.lib(allocrep.cpp)
6fd0ec40       W?__AllocStringRep$:String$n(pn$StringRep$:1$ui)pn$2:1$
6fd19f74       W?__string_mult_size$:String$nui
Module: /mnt/sda5/.user/root/src/openwatcom-1.9/bld/plusplus/cpplib/winnt.386/mf_rmt.dll/plbxmt3r.lib(allomusz.cpp)
6fd0ec80       W?alloc_mult_size$:String$n(i)i
Module: /mnt/sda5/.user/root/src/openwatcom-1.9/bld/plusplus/cpplib/winnt.386/mf_rmt.dll/plbxmt3r.lib(constrch.cpp)
6fd0eca0       W?$ct:String$n(aui)_
Module: /mnt/sda5/.user/root/src/openwatcom-1.9/bld/plusplus/cpplib/winnt.386/mf_rmt.dll/plbxmt3r.lib(destruct.cpp)
6fd0ed00       W?$dt:String$n()_
Module: /mnt/sda5/.user/root/src/openwatcom-1.9/bld/plusplus/cpplib/winnt.386/mf_rmt.dll/plbxmt3r.lib(opcostsc.cpp)
6fd0ed20       W?$cv:String$n.x()a
Module: /mnt/sda5/.user/root/src/openwatcom-1.9/bld/plusplus/cpplib/winnt.386/mf_rmt.dll/plbxmt3r.lib(opasstcs.cpp)
6fd0ed40       W?$aa:String$n(pnxa)rn$0$
Module: /mnt/sda5/.user/root/src/openwatcom-1.9/bld/plusplus/cpplib/winnt.386/mf_rmt.dll/plbxmt3r.lib(opappcst.cpp)
6fd0eda0       W?$ac:String$n(pnxa)rn$0$
Module: /mnt/sda5/.user/root/src/openwatcom-1.9/bld/plusplus/cpplib/winnt.386/mf_rmt.dll/plbxmt3r.lib(opsubstr.cpp)
6fd0ee70       W?.tdtor$:String$n()pnv
6fd0edf0       W?$op:String$n.x(uiui)$0$
6fd19170       W?$Wts0An$String$$$nx[]uc
6fd19f78       W?$Wti09$String$$$n[]uc
Module: /mnt/sda5/.user/root/src/openwatcom-1.9/bld/plusplus/cpplib/winnt.386/mf_rmt.dll/plbxmt3r.lib(oprfchar.cpp)
6fd0ee80       W?$op:String$n(ui)rna
6fd1c25c       W?__ref_char$:String$na
Module: /mnt/sda5/.user/root/src/openwatcom-1.9/bld/plusplus/cpplib/winnt.386/mf_rmt.dll/plbxmt3r.lib(zapcase.cpp)
6fd0ef00       W?__ZapCase$:String$n.x(pn(i)i)$1$
Module: /mnt/sda5/.user/root/src/openwatcom-1.9/bld/plusplus/cpplib/winnt.386/mf_rmt.dll/plbxmt3r.lib(compstr.cpp)
6fd0efa0       W?__CompareStrings$:String$n(rnx$1$rnx$1$)i
Module: /mnt/sda5/.user/root/src/openwatcom-1.9/bld/plusplus/cpplib/winnt.386/mf_rmt.dll/plbxmt3r.lib(opeqchst.cpp)
6fd0efe0       W?$ran(pnxarnx$String$$)i
Module: /mnt/sda5/.user/root/src/openwatcom-1.9/bld/plusplus/cpplib/winnt.386/mf_rmt.dll/plbxmt3r.lib(opnechst.cpp)
6fd0f010       W?$rbn(pnxarnx$String$$)i
Module: /mnt/sda5/.user/root/src/openwatcom-1.9/bld/plusplus/cpplib/winnt.386/mf_rmt.dll/plbxmt3r.lib(oplqchst.cpp)
6fd0f040       W?$rdn(pnxarnx$String$$)i
Module: /mnt/sda5/.user/root/src/openwatcom-1.9/bld/plusplus/cpplib/winnt.386/mf_rmt.dll/plbxmt3r.lib(opgrchst.cpp)
6fd0f070       W?$ren(pnxarnx$String$$)i
Module: /mnt/sda5/.user/root/src/openwatcom-1.9/bld/plusplus/cpplib/winnt.386/mf_rmt.dll/plbxmt3r.lib(opgqchst.cpp)
6fd0f0a0       W?$rfn(pnxarnx$String$$)i
Module: /mnt/sda5/.user/root/src/openwatcom-1.9/bld/plusplus/cpplib/winnt.386/mf_rmt.dll/plbxmt3r.lib(opcachst.cpp)
6fd0f0d0       W?$ojn(pnxarnx$String$$)$0$
Module: /mnt/sda5/.user/root/src/openwatcom-1.9/bld/plusplus/cpplib/winnt.386/mf_rmt.dll/plbxmt3r.lib(opinput.cpp)
6fd0f200       W?$oan(rn$istream$:std$$rn$String$$)rn$0:1$
Module: /mnt/sda5/.user/root/src/openwatcom-1.9/bld/plusplus/cpplib/winnt.386/mf_rmt.dll/plbxmt3r.lib(opoutput.cpp)
6fd0f2d0       W?$obn(rn$ostream$:std$$rnx$String$$)rn$0:1$
Module: /mnt/sda5/.user/root/src/openwatcom-1.9/bld/plusplus/cpplib/winnt.386/mf_rmt.dll/plbxmt3r.lib(matchcst.cpp)
6fd0f300       W?match$:String$n.x(pnxa)i
Module: /mnt/sda5/.user/root/src/openwatcom-1.9/bld/plusplus/cpplib/winnt.386/mf_rmt.dll/plbxmt3r.lib(joinstr.cpp)
6fd0f340       W?__JoinStrings$:String$n(pnxauipnxaui)v
Module: /mnt/sda5/.user/root/src/openwatcom-1.9/bld/plusplus/cpplib/winnt.386/mf_rmt.dll/plbxmt3r.lib(freestr.cpp)
6fd0f3e0       W?__FreeStringRep$:String$n()v
Module: /mnt/sda5/.user/root/src/openwatcom-1.9/bld/plusplus/cpplib/winnt.386/mf_rmt.dll/plbxmt3r.lib(indexcha.cpp)
6fd0f420       W?index$:String$n.x(pnxaui)i
Module: /mnt/sda5/.user/root/src/openwatcom-1.9/bld/plusplus/cpplib/winnt.386/mf_rmt.dll/plbxmt3r.lib(appendst.cpp)
6fd0f480       W?__AppendToStringRep$:String$n(rnx$1$pnxaui)v
Module: /mnt/sda5/.user/root/src/openwatcom-1.9/bld/plusplus/cpplib/winnt.386/mf_rmt.dll/plbxmt3r.lib(indexstr.cpp)
6fd0f5a0       W?index$:String$n.x(rnx$1$ui)i
Module: /mnt/sda5/.user/root/src/openwatcom-1.9/bld/plusplus/cpplib/winnt.386/mf_rmt.dll/plbxmt3r.lib(condefau.cpp)
6fd0f5f0       W?$ct:String$n()_
Module: /mnt/sda5/.user/root/src/openwatcom-1.9/bld/plusplus/cpplib/winnt.386/mf_rmt.dll/plbxmt3r.lib(constrst.cpp)
6fd0f620       W?$ct:String$n(rnx$0$uiui)_
Module: /mnt/sda5/.user/root/src/openwatcom-1.9/bld/plusplus/cpplib/winnt.386/mf_rmt.dll/plbxmt3r.lib(constcst.cpp)
6fd0f670       W?$ct:String$n(pnxaui)_
Module: /mnt/sda5/.user/root/src/openwatcom-1.9/bld/plusplus/cpplib/winnt.386/mf_rmt.dll/plbxmt3r.lib(matchs.cpp)
6fd0f6e0       W?match$:String$n.x(rnx$1$)i
Module: /mnt/sda5/.user/root/src/openwatcom-1.9/bld/plusplus/cpplib/winnt.386/mf_rmt.dll/plbxmt3r.lib(opappstr.cpp)
6fd0f720       W?$ac:String$n(rnx$0$)rn$0$
Module: /mnt/sda5/.user/root/src/openwatcom-1.9/bld/plusplus/cpplib/winnt.386/mf_rmt.dll/plbxmt3r.lib(opcastst.cpp)
6fd0f760       W?$ojn(rnx$String$$rnx$0$)$0$
Module: /mnt/sda5/.user/root/src/openwatcom-1.9/bld/plusplus/cpplib/winnt.386/mf_rmt.dll/plbxmt3r.lib(opcastch.cpp)
6fd0f880       W?$ojn(rnx$String$$pnxa)$0$
Module: /mnt/sda5/.user/root/src/openwatcom-1.9/bld/plusplus/cpplib/winnt.386/mf_rmt.dll/plbxmt3r.lib(opcostch.cpp)
6fd0f9b0       W?$cv:String$n()pnxa
Module: /mnt/sda5/.user/root/src/openwatcom-1.9/bld/plusplus/cpplib/winnt.386/mf_rmt.dll/plbxmt3r.lib(opco1sch.cpp)
6fd0fa20       W?$cv:String$n.x()pnxa
Module: /mnt/sda5/.user/root/src/openwatcom-1.9/bld/plusplus/cpplib/winnt.386/mf_rmt.dll/plbxmt3r.lib(opgrstst.cpp)
6fd0fa30       W?$ren(rnx$String$$rnx$0$)i
Module: /mnt/sda5/.user/root/src/openwatcom-1.9/bld/plusplus/cpplib/winnt.386/mf_rmt.dll/plbxmt3r.lib(opgrstch.cpp)
6fd0fa40       W?$ren(rnx$String$$pnxa)i
Module: /mnt/sda5/.user/root/src/openwatcom-1.9/bld/plusplus/cpplib/winnt.386/mf_rmt.dll/plbxmt3r.lib(opeqstst.cpp)
6fd0fa70       W?$ran(rnx$String$$rnx$0$)i
Module: /mnt/sda5/.user/root/src/openwatcom-1.9/bld/plusplus/cpplib/winnt.386/mf_rmt.dll/plbxmt3r.lib(opeqstch.cpp)
6fd0fa80       W?$ran(rnx$String$$pnxa)i
Module: /mnt/sda5/.user/root/src/openwatcom-1.9/bld/plusplus/cpplib/winnt.386/mf_rmt.dll/plbxmt3r.lib(oplqstst.cpp)
6fd0fab0       W?$rdn(rnx$String$$rnx$0$)i
Module: /mnt/sda5/.user/root/src/openwatcom-1.9/bld/plusplus/cpplib/winnt.386/mf_rmt.dll/plbxmt3r.lib(oplqstch.cpp)
6fd0fac0       W?$rdn(rnx$String$$pnxa)i
Module: /mnt/sda5/.user/root/src/openwatcom-1.9/bld/plusplus/cpplib/winnt.386/mf_rmt.dll/plbxmt3r.lib(oplestst.cpp)
6fd0faf0       W?$rcn(rnx$String$$rnx$0$)i
Module: /mnt/sda5/.user/root/src/openwatcom-1.9/bld/plusplus/cpplib/winnt.386/mf_rmt.dll/plbxmt3r.lib(oplestch.cpp)
6fd0fb00       W?$rcn(rnx$String$$pnxa)i
Module: /mnt/sda5/.user/root/src/openwatcom-1.9/bld/plusplus/cpplib/winnt.386/mf_rmt.dll/plbxmt3r.lib(oplechst.cpp)
6fd0fb30       W?$rcn(pnxarnx$String$$)i
Module: /mnt/sda5/.user/root/src/openwatcom-1.9/bld/plusplus/cpplib/winnt.386/mf_rmt.dll/plbxmt3r.lib(opnestst.cpp)
6fd0fb60       W?$rbn(rnx$String$$rnx$0$)i
Module: /mnt/sda5/.user/root/src/openwatcom-1.9/bld/plusplus/cpplib/winnt.386/mf_rmt.dll/plbxmt3r.lib(opnestch.cpp)
6fd0fb70       W?$rbn(rnx$String$$pnxa)i
Module: /mnt/sda5/.user/root/src/openwatcom-1.9/bld/plusplus/cpplib/winnt.386/mf_rmt.dll/plbxmt3r.lib(opgqstst.cpp)
6fd0fba0       W?$rfn(rnx$String$$rnx$0$)i
Module: /mnt/sda5/.user/root/src/openwatcom-1.9/bld/plusplus/cpplib/winnt.386/mf_rmt.dll/plbxmt3r.lib(opgqstch.cpp)
6fd0fbb0       W?$rfn(rnx$String$$pnxa)i
Module: /mnt/sda5/.user/root/src/openwatcom-1.9/bld/plusplus/cpplib/winnt.386/mf_rmt.dll/plbxmt3r.lib(opasstst.cpp)
6fd0fbe0       W?$aa:String$n(rnx$0$)rn$0$
Module: /mnt/sda5/.user/root/src/openwatcom-1.9/bld/plusplus/cpplib/winnt.386/mf_rmt.dll/plbxmt3r.lib(opcrchar.cpp)
6fd0fc20       W?$op:String$n.x(ui)rnxa
Module: /mnt/sda5/.user/root/src/openwatcom-1.9/bld/plusplus/cpplib/winnt.386/mf_rmt.dll/plbxmt3r.lib(conszcap.cpp)
6fd0fc40       W?$ct:String$n(ui$$TE$:0$)_
Module: /mnt/sda5/.user/root/src/openwatcom-1.9/bld/plusplus/cpplib/winnt.386/mf_rmt.dll/plbxmt3r.lib(opeqcrst.cpp)
6fd0fca0       W?$ran(arnx$String$$)i
Module: /mnt/sda5/.user/root/src/openwatcom-1.9/bld/plusplus/cpplib/winnt.386/mf_rmt.dll/plbxmt3r.lib(opnecrst.cpp)
6fd0fcd0       W?$rbn(arnx$String$$)i
Module: /mnt/sda5/.user/root/src/openwatcom-1.9/bld/plusplus/cpplib/winnt.386/mf_rmt.dll/plbxmt3r.lib(oplecrst.cpp)
6fd0fd00       W?$rcn(arnx$String$$)i
Module: /mnt/sda5/.user/root/src/openwatcom-1.9/bld/plusplus/cpplib/winnt.386/mf_rmt.dll/plbxmt3r.lib(oplqcrst.cpp)
6fd0fd30       W?$rdn(arnx$String$$)i
Module: /mnt/sda5/.user/root/src/openwatcom-1.9/bld/plusplus/cpplib/winnt.386/mf_rmt.dll/plbxmt3r.lib(opgrcrst.cpp)
6fd0fd60       W?$ren(arnx$String$$)i
Module: /mnt/sda5/.user/root/src/openwatcom-1.9/bld/plusplus/cpplib/winnt.386/mf_rmt.dll/plbxmt3r.lib(opgqcrst.cpp)
6fd0fd90       W?$rfn(arnx$String$$)i
Module: /mnt/sda5/.user/root/src/openwatcom-1.9/bld/plusplus/cpplib/winnt.386/mf_rmt.dll/plbxmt3r.lib(opcacrst.cpp)
6fd0fdc0       W?$ojn(arnx$String$$)$0$
Module: /mnt/sda5/.user/root/src/openwatcom-1.9/bld/plusplus/cpplib/winnt.386/mf_rmt.dll/plbxmt3r.lib(opeqstcr.cpp)
6fd0fef0       W?$ran(rnx$String$$a)i
Module: /mnt/sda5/.user/root/src/openwatcom-1.9/bld/plusplus/cpplib/winnt.386/mf_rmt.dll/plbxmt3r.lib(opnestcr.cpp)
6fd0ff20       W?$rbn(rnx$String$$a)i
Module: /mnt/sda5/.user/root/src/openwatcom-1.9/bld/plusplus/cpplib/winnt.386/mf_rmt.dll/plbxmt3r.lib(opgrstcr.cpp)
6fd0ff50       W?$ren(rnx$String$$a)i
Module: /mnt/sda5/.user/root/src/openwatcom-1.9/bld/plusplus/cpplib/winnt.386/mf_rmt.dll/plbxmt3r.lib(opgqstcr.cpp)
6fd0ff80       W?$rfn(rnx$String$$a)i
Module: /mnt/sda5/.user/root/src/openwatcom-1.9/bld/plusplus/cpplib/winnt.386/mf_rmt.dll/plbxmt3r.lib(oplestcr.cpp)
6fd0ffb0       W?$rcn(rnx$String$$a)i
Module: /mnt/sda5/.user/root/src/openwatcom-1.9/bld/plusplus/cpplib/winnt.386/mf_rmt.dll/plbxmt3r.lib(oplqstcr.cpp)
6fd0ffe0       W?$rdn(rnx$String$$a)i
Module: /mnt/sda5/.user/root/src/openwatcom-1.9/bld/plusplus/cpplib/winnt.386/mf_rmt.dll/plbxmt3r.lib(opcastcr.cpp)
6fd10010       W?$ojn(rnx$String$$a)$0$
Module: /mnt/sda5/.user/root/src/openwatcom-1.9/bld/plusplus/cpplib/winnt.386/mf_rmt.dll/plbxmt3r.lib(wcexcept.cpp)
6fd10140       W?base_throw_empty_container$:WCExcept$n.x()v
6fd10168       W?base_throw_index_range$:WCExcept$n.x()v
6fd10190       W?base_throw_not_empty$:WCExcept$n()v
6fd101c8       W?base_throw_not_unique$:WCExcept$n.x()v
6fd101f0       W?base_throw_out_of_memory$:WCExcept$n.x()v
6fd10218       W?base_throw_resize_required$:WCExcept$n.x()v
6fd10240       W?base_throw_zero_buckets$:WCExcept$n.x()v
6fd10268       W?base_throw_iter_range$:WCIterExcept$n.x()v
6fd10290       W?base_throw_undef_item$:WCIterExcept$n.x()v
6fd102e0+      W?$ct:failure$:WCIterExcept$n(rnx$0:1$)_
6fd102f0+      W?$dt:failure$:WCIterExcept$n()_
6fd10300+      W?$ct:failure$:WCExcept$n(rnx$0:1$)_
6fd10310+      W?$dt:failure$:WCExcept$n()_
6fd19290+      W?$Wth0Nnrn$failure$:WCExcept$$$nx[]uc
6fd192b0+      W?$Wth0Rnrn$failure$:WCIterExcept$$$nx[]uc
6fd192d0+      W?$Wts0Ln$failure$:WCExcept$$$nx[]uc
6fd19f86+      W?$Wti0O$failure$:WCIterExcept$$$n[]uc
6fd102b8       W?base_throw_undef_iter$:WCIterExcept$n.x()v
6fd192f0+      W?$Wts0Pn$failure$:WCIterExcept$$$nx[]uc
6fd19fa3+      W?$Wti0K$failure$:WCExcept$$$n[]uc
Module: /mnt/sda5/.user/root/src/openwatcom-1.9/bld/plusplus/cpplib/winnt.386/mf_rmt.dll/plbxmt3r.lib(wchash.cpp)
6fd10af0       W?$ct:WCExcept$n()_
6fd10b00       W?$dt:WCExcept$n()_
6fd10b80+      W?$ct:WCIterExcept$n()_
6fd10b90+      W?$dt:WCIterExcept$n()_
6fd10c10+      W?$ct:WCIsvListBase$n()_
6fd10c70+      W?$ct:WCListIterBase$n()_
6fd10cd0+      W?$dt:WCListIterBase$n()_
6fd10320       W?base_construct$:WCHashBase$n(pnx$1$)v
6fd10490       W?base_find$:WCHashBase$n.x(pnxvpnuipnui$find_type$:1$)pn$WCSLink$$
6fd10618       W?base_init$:WCHashBase$n(ui)v
6fd1068c       W?base_remove_but_not_delete$:WCHashBase$n(pnxv)pn$WCSLink$$
6fd106d4       W?base_set_insert$:WCHashBase$n(pnxv)pn$WCSLink$$
6fd10750+      W?$dt:WCHashBase$n()_
6fd10794       W?bitHash$:WCHashBase$n(pnxvui)ui
6fd107d0       W?clear$:WCHashBase$n()v
6fd10818       W?insert$:WCHashBase$n(pnxv)i
6fd1086c       W?occurrencesOf$:WCHashBase$n.x(pnxv)ui
6fd10d20+      W?WCListDelete$:WCIsvSListBase$::1n$WCSLink$$n(pn$2$)v
6fd10d30+      W?$dt:WCIsvSListBase$::1n$WCSLink$$n()_
6fd10d50+      W?$dt:WCPtrListBase$::1n$WCSLink$$1n$WCIsvSListBase$::1n$1$$n()_
6fd10d70+      W?$ct:WCIsvSList$::1n$WCSLink$$n()_
6fd10e20+      W?$dt:WCIsvSList$::1n$WCSLink$$n()_
6fd10ed0+      W?$dt:WCIsvListIterBase$::1n$WCSLink$$1n$WCIsvSList$::1n$1$$n()_
6fd10f20+      W?$ct:WCIsvSListIter$::1n$WCSLink$$n()_
6fd10fb0+      W?$dt:WCIsvSListIter$::1n$WCSLink$$n()_
6fd11050+      W?$ct:WCPtrListBase$::1n$WCSLink$$1n$WCIsvSListBase$::1n$1$$n()_
6fd194f0       W?$Wvf0Co4:WCExcept$$nx[]pn()v
6fd19500+      W?$Wvf0Go4:WCIterExcept$$nx[]pn()v
6fd19510       W?$Wvf0Ho4:WCIsvListBase$$nx[]pn()v
6fd19520+      W?$Wvf0Io4:WCListIterBase$$nx[]pn()v
6fd19530+      W?$Wvf0Eo4:WCHashBase$$nx[]pn()v
6fd19550+      W?$Wvf0Wo4:WCIsvSListBase$::1n$WCSLink$$$nx[]pn()v
6fd19560+      W?$Wvf0vo4:WCPtrListBase$::1n$WCSLink$$1n$WCIsvSListBase$::1n$1$$$nx[]pn()v
6fd19570+      W?$Wvf0So4:WCIsvSList$::1n$WCSLink$$$nx[]pn()v
6fd19580+      W?$Wvf0vo4:WCIsvListIterBase$::1n$WCSLink$$1n$WCIsvSList$::1n$1$$$nx[]pn()v
6fd19590+      W?$Wvf0Wo4:WCIsvSListIter$::1n$WCSLink$$$nx[]pn()v
6fd195a0       W?$Wts0Cn$WCExcept$$$nx[]uc
6fd195c0+      W?$Wts0Gn$WCIterExcept$$$nx[]uc
6fd195e0+      W?$Wts0Wn$WCIsvSListIter$::1n$WCSLink$$$$nx[]uc
6fd19600+      W?$Wts0Sn$WCIsvSList$::1n$WCSLink$$$$nx[]uc
6fd19620+      W?$Wva0Wo0:WCIsvSListIter$::1n$WCSLink$$$nx[]uc
6fd19660+      W?$Wva0vo0:WCIsvListIterBase$::1n$WCSLink$$1n$WCIsvSList$::1n$1$$$nx[]uc
6fd19690+      W?$Wva0So0:WCIsvSList$::1n$WCSLink$$$nx[]uc
6fd196d0+      W?$Wva0vo0:WCPtrListBase$::1n$WCSLink$$1n$WCIsvSListBase$::1n$1$$$nx[]uc
6fd19710+      W?$Wva0Wo0:WCIsvSListBase$::1n$WCSLink$$$nx[]uc
6fd19740+      W?$Wva0Eo0:WCHashBase$$nx[]uc
6fd19760+      W?$Wva0Io0:WCListIterBase$$nx[]uc
6fd19780       W?$Wva0Ho0:WCIsvListBase$$nx[]uc
6fd197a0+      W?$Wva0Go0:WCIterExcept$$nx[]uc
6fd19fbc+      W?$Wti0D$WCHashBase$$$n[]uc
6fd19fce       W?$Wti0G$WCIsvListBase$$$n[]uc
6fd19fe3+      W?$Wti0V$WCIsvSListBase$::1n$WCSLink$$$$n[]uc
6fd1a007+      W?$Wti0u$WCPtrListBase$::1n$WCSLink$$1n$WCIsvSListBase$::1n$1$$$$n[]uc
6fd1a044+      W?$Wti0H$WCListIterBase$$$n[]uc
6fd1a05a+      W?$Wti0u$WCIsvListIterBase$::1n$WCSLink$$1n$WCIsvSList$::1n$1$$$$n[]uc
6fd1a097+      W?$Wti0R$WCIsvSList$::1n$WCSLink$$$$n[]uc
6fd1a0b7+      W?$Wti0V$WCIsvSListIter$::1n$WCSLink$$$$n[]uc
6fd1a0db+      W?$Wti0F$WCIterExcept$$$n[]uc
6fd110f0+      W?$ct:WCIsvListIterBase$::1n$WCSLink$$1n$WCIsvSList$::1n$1$$n()_
6fd11170+      W?$ct:WCIsvSListBase$::1n$WCSLink$$n(pn(ui)pnvpn(pnvui)v)_
6fd108bc       W?removeAll$:WCHashBase$n(pnxv)ui
6fd10928       W?resize$:WCHashBase$n(ui)v
6fd10a28       W?base_advance$:WCHashIterBase$n()i
6fd10aa4       W?reset$:WCHashIterBase$n()v
6fd197b0       W?$Wva0Co0:WCExcept$$nx[]uc
6fd1a0ef       W?$Wti0B$WCExcept$$$n[]uc
Module: /mnt/sda5/.user/root/src/openwatcom-1.9/bld/plusplus/cpplib/winnt.386/mf_rmt.dll/plbxmt3r.lib(wclist.cpp)
6fd111f0       W?base_next$:WCIsvListBase$n.x(pnx$WCSLink$$i)pn$2$
6fd1120c       W?base_insert$:WCIsvListBase$n(pn$WCSLink$$)v
6fd11230       W?base_index_check$:WCIsvListBase$n.x(i)i
6fd11268       W?base_bfind$:WCIsvListBase$n.x(i)pn$WCSLink$$
6fd11280       W?base_sfind$:WCIsvListBase$n.x(i)pn$WCSLink$$
6fd11290       W?base_dfind$:WCIsvListBase$n.x(i)pn$WCDLink$$
6fd112dc       W?base_sget$:WCIsvListBase$n(i)pn$WCSLink$$
6fd11314       W?base_dget$:WCIsvListBase$n(i)pn$WCDLink$$
6fd1135c       W?base_index$:WCIsvListBase$n.x(pnx$WCSLink$$)i
6fd113a4       W?base_clear$:WCIsvListBase$n()v
6fd113b4       W?base_destroy$:WCIsvListBase$n()v
6fd113f8       W?$dt:WCIsvListBase$n()_
6fd1145c       W?base_advance$:WCListIterBase$n(i)pn$WCSLink$$
6fd114fc       W?base_retreat$:WCListIterBase$n(i)pn$WCDLink$$
6fd115a0       W?base_tail_hit$:WCListIterBase$n(pn$WCSLink$$)pn$2$
6fd115bc       W?base_tail_unhit$:WCListIterBase$n(pn$WCSLink$$)v
Module: /mnt/sda5/.user/root/src/openwatcom-1.9/bld/plusplus/cpplib/winnt.386/mf_rmt.dll/plbxmt3r.lib(wcskip.cpp)
6fd11d30+      W?$dt:WCSkipNonTempBase$n()_
6fd19830+      W?$Wvf0Lo4:WCSkipNonTempBase$$nx[]pn()v
6fd19850+      W?$Wva0Lo0:WCSkipNonTempBase$$nx[]uc
6fd1a104+      W?$Wti0K$WCSkipNonTempBase$$$n[]uc
6fd115dc       W?$ct:WCSkipNonTempBase$n(uiuii)_
6fd11648       W?$ct:WCSkipNonTempBase$n(uiuipn(ui)pnvpn(pnvui)vi)_
6fd116c8       W?base_assign$:WCSkipNonTempBase$n(pnx$1$)v
6fd11718       W?base_construct$:WCSkipNonTempBase$n(pnx$1$)v
6fd1175c       W?base_find$:WCSkipNonTempBase$n.x(pnxv)pn$WCSkipListPtrs$$
6fd117dc       W?base_find_with_update$:WCSkipNonTempBase$n.x(pnxvpnpn$WCSkipListPtrs$$)pn$2$
6fd11864+      W?base_init$:WCSkipNonTempBase$n(uiui)v
6fd118bc       W?base_insert$:WCSkipNonTempBase$n(pnxv)pn$WCSkipListPtrs$$
6fd11950       W?base_occurrencesOf$:WCSkipNonTempBase$n.x(pnxv)ui
6fd119a0       W?base_random_level$:WCSkipNonTempBase$n()i
6fd11a10       W?base_removeAll$:WCSkipNonTempBase$n(pnxv)ui
6fd11ba4       W?base_remove_but_not_delete$:WCSkipNonTempBase$n(pnxvrni)pn$WCSkipListPtrs$$
6fd11c18       W?clear$:WCSkipNonTempBase$n()v
6fd11cfc       W?remove$:WCSkipNonTempBase$n(pnxv)i
6fd1a100       W?randomsLeft$:WCSkipNonTempBase$nui
6fd1c260       W?randomBits$:WCSkipNonTempBase$nui
Module: ../../../clib/winnt.386/mf_r/clbrdll.lib(dmndwnt.c)
6fd11d80       __LibMain@12
Module: ../../../clib/winnt.386/mf_r/clbrdll.lib(segdefns)
6fd01003       ___begtext
6fd16000*      __nullarea
6fd1b160       __Start_XI
6fd1b1b4       __End_XI
6fd1b1b4       __Start_YI
6fd1b1c0       __End_YI
Module: /mnt/sda5/.user/root/src/openwatcom-1.9/bld/plusplus/cpplib/winnt.386/mf_rmt/plbxmt3r.lib(prwdata.cpp)
6fd1c580       __wint_static_init_sema
6fd1c590       __wint_pure_error_flag
6fd1c592       __wint_undef_vfun_flag
6fd1c594       __wint_module_init
Module: /mnt/sda5/.user/root/src/openwatcom-1.9/bld/plusplus/cpplib/winnt.386/mf_rmt.dll/plbxmt3r.lib(thrddata.cpp)
6fd11ee0       __wcpp_4_multi_thread_init__
Module: /mnt/sda5/.user/root/src/openwatcom-1.9/bld/plusplus/cpplib/winnt.386/mf_rmt.dll/plbxmt3r.lib(tssize.cpp)
6fd11f24       __wcpp_4_ts_size__
Module: /mnt/sda5/.user/root/src/openwatcom-1.9/bld/plusplus/cpplib/winnt.386/mf_rmt.dll/plbxmt3r.lib(stabdisp.cpp)
6fd1215c       __wcpp_4_dispatchable__
Module: /mnt/sda5/.user/root/src/openwatcom-1.9/bld/plusplus/cpplib/winnt.386/mf_rmt.dll/plbxmt3r.lib(pgmthrd.cpp)
6fd121b0       __wcpp_4_pgm_thread__
Module: /mnt/sda5/.user/root/src/openwatcom-1.9/bld/plusplus/cpplib/winnt.386/mf_rmt.dll/plbxmt3r.lib(fatalerr.cpp)
6fd121f0       __wcpp_4_fatal_runtime_error__
Module: /mnt/sda5/.user/root/src/openwatcom-1.9/bld/plusplus/cpplib/winnt.386/mf_rmt.dll/plbxmt3r.lib(rttidync.cpp)
6fd12220       __DoDynamicCast_
Module: /mnt/sda5/.user/root/src/openwatcom-1.9/bld/plusplus/cpplib/winnt.386/mf_rmt.dll/plbxmt3r.lib(rttisupp.cpp)
6fd122b0       __CalcMostDerived_
6fd122e4       __MakeSureTidIsPresent_
Module: /mnt/sda5/.user/root/src/openwatcom-1.9/bld/plusplus/cpplib/winnt.386/mf_rmt.dll/plbxmt3r.lib(stabtrav.cpp)
6fd12340       __wcpp_4_stab_entry__
6fd12358*      __wcpp_4_stab_trav_comp__
6fd1243c       __wcpp_4_stab_trav_init__
6fd12460       __wcpp_4_stab_trav_next__
6fd124b8       __wcpp_4_stab_trav_move__
Module: /mnt/sda5/.user/root/src/openwatcom-1.9/bld/plusplus/cpplib/winnt.386/mf_rmt.dll/plbxmt3r.lib(callterm.cpp)
6fd124d0       __wcpp_4_corrupted_stack__
6fd124e4       __wcpp_4_call_terminate__
Module: /mnt/sda5/.user/root/src/openwatcom-1.9/bld/plusplus/cpplib/winnt.386/mf_rmt.dll/plbxmt3r.lib(allocexc.cpp)
6fd12534       __wcpp_4_alloc_exc__
6fd1279c       __wcpp_4_free_exc__
6fd127e4       __wcpp_4_find_active__
6fd12800       __wcpp_4_dtor_free_exc__
Module: /mnt/sda5/.user/root/src/openwatcom-1.9/bld/plusplus/cpplib/winnt.386/mf_rmt.dll/plbxmt3r.lib(exc_pr.cpp)
6fd128d0       W?$ct:_EXC_PR$n(pn$_RTCTL$$pn$RW_DTREG$$$EXCSTATE$$)_
6fd128fc       W?$dt:_EXC_PR$n()_
6fd1290c       W?$ct:_EXC_PR_FREE$n(pn$_RTCTL$$pn$RW_DTREG$$$EXCSTATE$$pn$ACTIVE_EXC$$)_
6fd12920       W?$dt:_EXC_PR_FREE$n()_
6fd12958       W?$ct:_EXC_PR_DTOR$n(pn$_RTCTL$$pn$RW_DTREG$$$EXCSTATE$$pn$ACTIVE_EXC$$)_
6fd12968       W?$ct:_EXC_PR_FNEXC$n(pn$_RTCTL$$pn$RW_DTREG$$pn$2$pn$ACTIVE_EXC$$)_
6fd12988       W?$dt:_EXC_PR_FNEXC$n()_
6fd12990       W?$dt:_EXC_PR_DTOR$n()_
Module: /mnt/sda5/.user/root/src/openwatcom-1.9/bld/plusplus/cpplib/winnt.386/mf_rmt.dll/plbxmt3r.lib(tsequiv.cpp)
6fd129c0       __wcpp_4_ts_refed__
6fd129d8+      __wcpp_4_ts_pnted__
6fd12a0c       __wcpp_4_ts_equiv__
Module: /mnt/sda5/.user/root/src/openwatcom-1.9/bld/plusplus/cpplib/winnt.386/mf_rmt.dll/plbxmt3r.lib(stabinit.cpp)
6fd12b00       __wcpp_4_exc_setup__
Module: /mnt/sda5/.user/root/src/openwatcom-1.9/bld/plusplus/cpplib/winnt.386/mf_rmt/plbxmt3r.lib(stablcl.cpp)
6fd12ba0       __wcpp_4_lcl_register__
Module: /mnt/sda5/.user/root/src/openwatcom-1.9/bld/plusplus/cpplib/winnt.386/mf_rmt/plbxmt3r.lib(moddtorr.cpp)
6fd1b1ba       ___wcpp_4_data_module_dtor_ref_
Module: /mnt/sda5/.user/root/src/openwatcom-1.9/bld/plusplus/cpplib/winnt.386/mf_rmt.dll/plbxmt3r.lib(iofgldfl.cpp)
6fd12bb0+      W?__getLDFsign$n(pn$streambuf$:std$$rnpnai)i
6fd12da8+      W?__getLDFmantissa$n(pn$streambuf$:std$$rnpna)i
6fd12fc4+      W?__getLDFexponent$n(pn$streambuf$:std$$rnpna)i
6fd13294       W?__GetLDFloat$n(pn$streambuf$:std$$pna)i
Module: /mnt/sda5/.user/root/src/openwatcom-1.9/bld/plusplus/cpplib/winnt.386/mf_rmt.dll/plbxmt3r.lib(iosgnilk.cpp)
6fd13360       W?$Wda0216$:__lock$n(ui)pnv
6fd13380       W?.tdctor$:__lock$n()rn$1$
6fd13300       W?__get_next_ios_lock$n()pn$__lock$$
Module: /mnt/sda5/.user/root/src/openwatcom-1.9/bld/plusplus/cpplib/winnt.386/mf_rmt.dll/plbxmt3r.lib(iosfail.cpp)
6fd13390       W?$ct:failure$:ios$:std$n(i)_
Module: /mnt/sda5/.user/root/src/openwatcom-1.9/bld/plusplus/cpplib/winnt.386/mf_rmt.dll/plbxmt3r.lib(istgtu64.cpp)
6fd133a0       W?__getunsignedint64$n(pn$streambuf$:std$$rnuzuzzl)i
Module: /mnt/sda5/.user/root/src/openwatcom-1.9/bld/plusplus/cpplib/winnt.386/mf_rmt.dll/plbxmt3r.lib(istgetul.cpp)
6fd13680       W?__getunsignedlong$n(pn$streambuf$:std$$rnululll)i
Module: /mnt/sda5/.user/root/src/openwatcom-1.9/bld/plusplus/cpplib/winnt.386/mf_rmt.dll/plbxmt3r.lib(istgalin.cpp)
6fd13900       W?__getaline$n(rn$istream$:std$$pnaiairni)i
Module: /mnt/sda5/.user/root/src/openwatcom-1.9/bld/plusplus/cpplib/winnt.386/mf_rmt.dll/plbxmt3r.lib(ioufgtba.cpp)
6fd13b20       W?__FlagsToBase$n(l)i
Module: /mnt/sda5/.user/root/src/openwatcom-1.9/bld/plusplus/cpplib/winnt.386/mf_rmt.dll/plbxmt3r.lib(ostadpre.cpp)
6fd13b50       W?__AddPrefix$n(apnarniil)v
Module: /mnt/sda5/.user/root/src/openwatcom-1.9/bld/plusplus/cpplib/winnt.386/mf_rmt.dll/plbxmt3r.lib(ssfgpos.cpp)
6fd13bb0       W?__get_position$n(lipnapnapnapna)l
Module: /mnt/sda5/.user/root/src/openwatcom-1.9/bld/plusplus/cpplib/winnt.386/mf_rmt.dll/plbxmt3r.lib(stfgnslk.cpp)
6fd13c20       W?__get_next_streambuf_lock$n()pn$__lock$$
Module: /mnt/sda5/.user/root/src/openwatcom-1.9/bld/plusplus/cpplib/winnt.386/mf_rmt.dll/plbxmt3r.lib(compchar.cpp)
6fd13c80       W?__CompareChars$n(pnxalpnxal)i
Module: /mnt/sda5/.user/root/src/openwatcom-1.9/bld/plusplus/cpplib/winnt.386/mf_rmt.dll/plbxmt3r.lib(matchstr.cpp)
6fd13d10       W?__MatchStrings$n(pnxauipnxaui)l
Module: /mnt/sda5/.user/root/src/openwatcom-1.9/bld/plusplus/cpplib/winnt.386/mf_rmt.dll/plbxmt3r.lib(strsrch.cpp)
6fd13d40       StringSearch_
Module: ../../../clib/winnt.386/mf_r/clbrdll.lib(initrtns.c)
6fd13f10       __InitRtns
6fd13f60       __FiniRtns
Module: ../../../clib/winnt.386/mf_r/clbrdll.lib(rdllmwnt.c)
6fd1a140       __pRawDllMain
Module: ../../../clib/winnt.386/mf_r/clbrdll.lib(ddgrpwnt.c)
6fd140b0       __disallow_single_dgroup_
Module: ../../../clib/winnt.386/mf_r/clbrdll.lib(dllnmwnt.c)
6fd1cbb0       ___Is_DLL
6fd1cbb4       __LpwDllName
6fd1cbb8       __LpDllName
Module: ../../../clib/winnt.386/mf_r/clbrdll.lib(dcinit.c)
6fd14180       __CommonInit_
Module: ../../../clib/winnt.386/mf_r/clbrdll.lib(dosseg)
00001234       __DOSseg__
Module: /mnt/sda5/.user/root/src/openwatcom-1.9/bld/plusplus/cpplib/winnt.386/mf_rmt.dll/plbxmt3r.lib(bittest.cpp)
6fd14190       __wcpp_4_bit_test__
6fd141b0       __wcpp_4_bit_off__
Module: /mnt/sda5/.user/root/src/openwatcom-1.9/bld/plusplus/cpplib/winnt.386/mf_rmt/plbxmt3r.lib(areaexc.cpp)
6fd1a160       ___EXC_AREA
Module: /mnt/sda5/.user/root/src/openwatcom-1.9/bld/plusplus/cpplib/winnt.386/mf_rmt.dll/plbxmt3r.lib(dstabmod.cpp)
6fd141d0       __wcpp_4_module_dtor__
6fd1420c       __wcpp_4_mod_register__
Module: /mnt/sda5/.user/root/src/openwatcom-1.9/bld/plusplus/cpplib/winnt.386/mf_rmt.dll/plbxmt3r.lib(istgsign.cpp)
6fd14240       W?__getsign$n(pn$streambuf$:std$$rna)i
Module: /mnt/sda5/.user/root/src/openwatcom-1.9/bld/plusplus/cpplib/winnt.386/mf_rmt.dll/plbxmt3r.lib(istgbase.cpp)
6fd14330       W?__getbase$n(pn$streambuf$:std$$rnirni)i
Module: /mnt/sda5/.user/root/src/openwatcom-1.9/bld/plusplus/cpplib/winnt.386/mf_rmt.dll/plbxmt3r.lib(istgnm64.cpp)
6fd14670       W?__getnumberint64$n(pn$streambuf$:std$$rnuzirni)i
Module: /mnt/sda5/.user/root/src/openwatcom-1.9/bld/plusplus/cpplib/winnt.386/mf_rmt.dll/plbxmt3r.lib(istgnum.cpp)
6fd14980       W?__getnumber$n(pn$streambuf$:std$$rnulirni)i


                        +----------------------+
                        |   Imported Symbols   |
                        +----------------------+

Symbol                              Module
======                              ======

__GRO                               clbr19.dll
free_                               clbr19.dll
malloc_                             clbr19.dll
___GetThreadPtr                     clbr19.dll
memset_                             clbr19.dll
___ReleaseSema4                     clbr19.dll
___CloseSema4                       clbr19.dll
___AccessSema4                      clbr19.dll
longjmp_                            clbr19.dll
stackavail_                         clbr19.dll
_RtlUnwind@16                       KERNEL32.DLL
_RaiseException@16                  KERNEL32.DLL
__exit_                             clbr19.dll
strcmp_                             clbr19.dll
__demangle_t_                       clbr19.dll
__plusplus_fstat_                   clbr19.dll
close_                              clbr19.dll
__plusplus_open_                    clbr19.dll
write_                              clbr19.dll
tell_                               clbr19.dll
lseek_                              clbr19.dll
memmove_                            clbr19.dll
read_                               clbr19.dll
__get_errno_ptr_                    clbr19.dll
__fatal_runtime_error_              clbr19.dll
__get_std_stream_                   clbr19.dll
_plib_free_                         clbr19.dll
_plib_malloc_                       clbr19.dll
isspace_                            clbr19.dll
lltoa_                              clbr19.dll
ultoa_                              clbr19.dll
strupr_                             clbr19.dll
ltoa_                               clbr19.dll
ulltoa_                             clbr19.dll
__flush_                            clbr19.dll
fwrite_                             clbr19.dll
fgetc_                              clbr19.dll
printf_                             clbr19.dll
realloc_                            clbr19.dll
rand_                               clbr19.dll
_GetModuleFileNameA@12              KERNEL32.DLL
__lib_GetModuleFileNameW_           clbr19.dll
___sig_init_rtn                     clbr19.dll
__RegisterThreadDataSize_           clbr19.dll
__EnterWVIDEO_                      clbr19.dll
exit_                               clbr19.dll
__exit_with_msg_                    clbr19.dll
isdigit_                            clbr19.dll
tolower_                            clbr19.dll
isxdigit_                           clbr19.dll
__U8LS                              clbr19.dll
_MessageBoxA@16                     USER32.DLL


                        +--------------------+
                        |   Libraries Used   |
                        +--------------------+

/mnt/sda5/.user/root/src/openwatcom-1.9/rel2/lib386/nt/kernel32.lib
/mnt/sda5/.user/root/src/openwatcom-1.9/rel2/lib386/nt/user32.lib
/mnt/sda5/.user/root/src/openwatcom-1.9/bld/plusplus/cpplib/winnt.386/mf_rmt.dll/plbxmt3r.lib
../../../clib/winnt.386/mf_r/clbrdll.lib
/mnt/sda5/.user/root/src/openwatcom-1.9/bld/plusplus/cpplib/winnt.386/mf_rmt/plbxmt3r.lib


                        +-----------------------+
                        |   Linker Statistics   |
                        +-----------------------+

Stack size:  0000 (0.)
Memory size:  0001addf (110047.)
Entry point address: 6fd01018
Link time: 00:00.00
