Open Watcom Linker Version 1.9
Portions Copyright (c) 1985-2002 Sybase, Inc. All Rights Reserved.
Created on:       12/12/16 02:39:38
Executable Image: whelp.exe
creating a DOS/4G executable


                        +------------+
                        |   Groups   |
                        +------------+

Group                           Address              Size
=====                           =======              ====

DGROUP                          0002:00000000        00011a90



                        +--------------+
                        |   Segments   |
                        +--------------+

Segment                Class          Group          Address         Size
=======                =====          =====          =======         ====

BEGTEXT                CODE           AUTO           0001:00000000   00000010
_TEXT                  CODE           AUTO           0001:00000010   00013319
_NULL                  BEGDATA        DGROUP         0002:00000000   00000004
_AFTERNULL             BEGDATA        DGROUP         0002:00000004   00000000
CONST                  DATA           DGROUP         0002:00000004   000003d8
CONST2                 DATA           DGROUP         0002:000003dc   0000010c
_DATA                  DATA           DGROUP         0002:000004f0   00000d44
XIB                    DATA           DGROUP         0002:00001234   00000000
XI                     DATA           DGROUP         0002:00001234   00000024
XIE                    DATA           DGROUP         0002:00001258   00000000
YIB                    DATA           DGROUP         0002:00001258   00000000
YI                     DATA           DGROUP         0002:00001258   0000001e
YIE                    DATA           DGROUP         0002:00001276   00000000
TIB                    DATA           DGROUP         0002:00001276   00000000
TI                     DATA           DGROUP         0002:00001276   00000000
TIE                    DATA           DGROUP         0002:00001276   00000000
DATA                   DATA           DGROUP         0002:00001276   00000000
_BSS                   BSS            DGROUP         0002:00001278   00000814
STACK                  STACK          DGROUP         0002:00001a90   00010000


                        +----------------+
                        |   Memory Map   |
                        +----------------+

* = unreferenced symbol
+ = symbol only referenced locally

Address        Symbol
=======        ======

Module: main.obj(/mnt/sda5/.user/root/src/openwatcom-1.9/bld/help/c/main.c)
0001:00000200  main_
Module: filelist.obj(/mnt/sda5/.user/root/src/openwatcom-1.9/bld/help/c/filelist.c)
0001:000008c0  PrintHelpFiles_
Module: help.obj(/mnt/sda5/.user/root/src/openwatcom-1.9/bld/help/c/help.c)
0001:00000940+ hlp_ut_screen_area_
0001:00000990+ hlp_ut_position_
0001:00000ff0+ help_next_field_
0001:00001190* Free_Stack_
0001:000011b0+ help_in_tab_
0001:00002670  showhelp_
0001:00002900+ do_showhelp_
Module: vvscroll.obj(/mnt/sda5/.user/root/src/openwatcom-1.9/bld/help/c/vvscroll.c)
0001:00002b10  vvscroll_
Module: helpmem.obj(/mnt/sda5/.user/root/src/openwatcom-1.9/bld/help/c/helpmem.c)
0001:00002c00  HelpMemAlloc_
0001:00002c10  HelpMemRealloc_
0001:00002c20  HelpMemFree_
Module: helpopen.obj(/mnt/sda5/.user/root/src/openwatcom-1.9/bld/help/c/helpopen.c)
0001:00002de0+ do_init_
0001:00002f00  helpinit_
0001:00002fd0  help_reinit_
0001:00003040  helpfini_
0002:000006e0  _HelpFiles
Module: helpio.obj(/mnt/sda5/.user/root/src/openwatcom-1.9/bld/help/c/helpio.c)
0001:00003080  HelpFileLen_
0001:00003090  HelpRead_
0001:000030a0* HelpWrite_
0001:000030b0  HelpSeek_
0001:000030c0  HelpTell_
0001:000030d0  HelpOpen_
0001:00003130  HelpClose_
0001:00003140  HelpAccess_
0001:00003170  HelpGetCWD_
0001:00003180  HelpSearchEnv_
Module: helpscan.obj(/mnt/sda5/.user/root/src/openwatcom-1.9/bld/help/c/helpscan.c)
0001:00003350+ freeHyperlinkInfo_
0001:00003370  ScanLine_
Module: dlg.obj(/mnt/sda5/.user/root/src/openwatcom-1.9/bld/help/c/dlg.c)
0001:00003560+ GetListBoxItem_
0001:00003690  HelpDialogCallBack_
0001:00003720  SearchDlgFini_
0001:00003750  HelpSearch_
Module: msgbox.obj(/mnt/sda5/.user/root/src/openwatcom-1.9/bld/help/c/msgbox.c)
0001:00003880  ShowMsgBox_
0002:00000828+ _helpMsgBox
Module: search.obj(/mnt/sda5/.user/root/src/openwatcom-1.9/bld/help/c/search.c)
0001:00003b40  HelpFindFirst_
0001:00003bd0  HelpGetIndexedTopic_
0001:00003c40  HelpFindTopicOffset_
0001:00003cb0  InitHelpSearch_
0001:00003f10  GetDefTopic_
0001:00003f20  GetDescrip_
0001:00003f30  FiniHelpSearch_
0002:00000864+ _curFile
0002:0000139c+ _curPage
0002:0000179c+ _pageIndex
0002:000017a0+ _pageHeader
0002:000017a4+ _stringBlock
Module: dialcb.obj(/mnt/sda5/.user/root/src/openwatcom-1.9/bld/help/c/dialcb.c)
0001:00003f70  uidialogcallback_
Module: /mnt/sda5/.user/root/src/openwatcom-1.9/rel2/lib386/dos/clib3r.lib(splitpat.c)
0001:00003fc0  _splitpath_
Module: /mnt/sda5/.user/root/src/openwatcom-1.9/rel2/lib386/dos/clib3r.lib(printf.c)
0001:00004090  printf_
Module: /mnt/sda5/.user/root/src/openwatcom-1.9/rel2/lib386/dos/clib3r.lib(makepath.c)
0001:000040e0  _makepath_
Module: /mnt/sda5/.user/root/src/openwatcom-1.9/rel2/lib386/dos/clib3r.lib(_strcmp)
0001:00004290  strcmp_
Module: /mnt/sda5/.user/root/src/openwatcom-1.9/rel2/lib386/dos/clib3r.lib(strlwr.c)
0001:000043d0  strlwr_
Module: /mnt/sda5/.user/root/src/openwatcom-1.9/bld/ui/dos/dos386/ui.lib(/mnt/sda5/.user/root/src/openwatcom-1.9/bld/ui/c/uiinit.c)
0001:000043f0  uistart_
0001:00004426* uiinit_
0001:00004442* uistop_
0001:00004451  uifini_
0001:0000446a* uiswap_
Module: /mnt/sda5/.user/root/src/openwatcom-1.9/bld/ui/dos/dos386/ui.lib(/mnt/sda5/.user/root/src/openwatcom-1.9/bld/ui/dos/c/gmouse.c)
0001:000045f2+ DrawEgaVgaCursor_
0001:00004959+ EraseEgaVgaCursor_
0001:00004960* uifinigmouse_
0001:000049a5  uiinitgmouse_
Module: /mnt/sda5/.user/root/src/openwatcom-1.9/bld/ui/dos/dos386/ui.lib(/mnt/sda5/.user/root/src/openwatcom-1.9/bld/ui/dos/c/uimapch.c)
0001:00004ade+ UIMapCharacters_
0001:00004b40  FlipCharacterMap_
Module: /mnt/sda5/.user/root/src/openwatcom-1.9/bld/ui/dos/dos386/ui.lib(/mnt/sda5/.user/root/src/openwatcom-1.9/bld/ui/c/uiback.c)
0001:00004c24  uirestorebackground_
0001:00004c51  openbackground_
0001:00004c86  closebackground_
0001:00004c93+ uibackgroundbuffer_
0001:00004cd8* uiremovebackground_
0001:00004d1e* uikeepbackground_
Module: /mnt/sda5/.user/root/src/openwatcom-1.9/rel2/lib386/dos/clib3r.lib(cstart)
0001:00000003* ___begtext
0002:00000000* __nullarea
0002:00000a04* __D16Infoseg
0002:00000a06  __x386_zero_base_selector
0001:00004d6c  _cstart_
0001:00004fba  __exit_
0001:00004fbc  __do_exit_with_msg__
0001:00005004* __GETDS
0001:00005004  ___GETDSStart_
0001:0000500f  ___GETDSEnd_
Module: /mnt/sda5/.user/root/src/openwatcom-1.9/rel2/lib386/dos/clib3r.lib(argcv.c)
0002:0000182c  __argc
0002:00001830  __argv
0002:00001834  ___argc
0002:00001838  ___argv
Module: /mnt/sda5/.user/root/src/openwatcom-1.9/rel2/lib386/dos/clib3r.lib(qsort.c)
0001:00005070  qsort_
Module: /mnt/sda5/.user/root/src/openwatcom-1.9/rel2/lib386/dos/clib3r.lib(dir.c)
0001:00005780+ _opendir_
0001:00005980  opendir_
0001:000059a0  readdir_
0001:000059d0  closedir_
0001:00005a10* rewinddir_
Module: /mnt/sda5/.user/root/src/openwatcom-1.9/rel2/lib386/dos/clib3r.lib(stricmp.c)
0001:00005a40  stricmp_
Module: /mnt/sda5/.user/root/src/openwatcom-1.9/rel2/lib386/dos/clib3r.lib(getenv.c)
0001:00005a80  getenv_
Module: /mnt/sda5/.user/root/src/openwatcom-1.9/bld/ui/dos/dos386/ui.lib(/mnt/sda5/.user/root/src/openwatcom-1.9/bld/ui/c/uidata.c)
0002:00000a08  _UIData
Module: /mnt/sda5/.user/root/src/openwatcom-1.9/bld/ui/dos/dos386/ui.lib(/mnt/sda5/.user/root/src/openwatcom-1.9/bld/ui/c/uimenu.c)
0001:00005b09* uisetbetweentitles_
0001:00005b0f  uialtchar_
0001:00005cc3  uidisplayitem_
0001:00005fc4  uidrawmenu_
0001:00006029  uiclosepopup_
0001:0000603a  uiopenpopup_
0001:000061eb+ process_menuevent_
0001:00006741* uigeteventfrompos_
0001:000067ad  menuevent_
0001:000068c4  uidescmenu_
0001:00006af8+ uimenutitlebar_
0001:00006b67* uienablemenuitem_
0001:00006b9e* uimenuindicators_
0001:00006bb8+ uisetmenudesc_
0001:00006c44  uimenuson_
0001:00006c4f  uimenuheight_
0001:00006c67  uimenudisable_
0001:00006c85  uimenuisdisabled_
0001:00006c9a* uimenugetaltpressed_
0001:00006caf  uimenusetaltpressed_
0001:00006ccd* uinomenus_
0001:00006ccf+ uimenubar_
0001:00006d2d* uimenus_
0001:00006d6a* uiactivatemenus_
0001:00006d8c* uiignorealt_
0001:00006d9a* uigetcurrentmenu_
Module: /mnt/sda5/.user/root/src/openwatcom-1.9/rel2/lib386/dos/clib3r.lib(strnicmp.c)
0001:00006dd0  strnicmp_
Module: /mnt/sda5/.user/root/src/openwatcom-1.9/bld/ui/dos/dos386/ui.lib(/mnt/sda5/.user/root/src/openwatcom-1.9/bld/ui/c/uivattr.c)
0001:00006e14  uivattribute_
0001:00006e5a* uivattrflip_
Module: /mnt/sda5/.user/root/src/openwatcom-1.9/bld/ui/dos/dos386/ui.lib(/mnt/sda5/.user/root/src/openwatcom-1.9/bld/ui/c/uilist.c)
0001:00006e9e* uigetlist_
0001:00006ea7* uiputlist_
0001:00006eb4  uipushlist_
0001:00006ef0* uichecklist_
0001:00006f12  uipoplist_
0001:00006f36  uiinlist_
0001:00006f8e* uiintoplist_
Module: /mnt/sda5/.user/root/src/openwatcom-1.9/bld/ui/dos/dos386/ui.lib(/mnt/sda5/.user/root/src/openwatcom-1.9/bld/ui/c/uimget.c)
0001:00006fa9  uivgetevent_
0001:00006fa9  uivget_
0001:00006fb3* uiungetevent_
0001:00006fc3* uiflushevent_
Module: /mnt/sda5/.user/root/src/openwatcom-1.9/bld/ui/dos/dos386/ui.lib(/mnt/sda5/.user/root/src/openwatcom-1.9/bld/ui/c/uigadget.c)
0002:00000ae4  _VertScrollFrame
0002:00000ae6  _HorzScrollFrame
0002:00000ae8  _SliderChar
0002:00000aea  _LeftPoint
0002:00000aec  _RightPoint
0002:00000aee  _UpPoint
0002:00000af0  _DownPoint
0001:00006fcf* uishowgadget_
0001:000071f1  uiinitgadget_
0001:00007202  uidrawgadget_
0001:00007224  uisetgadget_
0001:00007230  uifinigadget_
0001:00007231* uisetgadgetnodraw_
0001:00007236  uigadgetfilter_
Module: /mnt/sda5/.user/root/src/openwatcom-1.9/bld/ui/dos/dos386/ui.lib(/mnt/sda5/.user/root/src/openwatcom-1.9/bld/ui/c/uitab.c)
0001:000075ab  uitabfilter_
Module: /mnt/sda5/.user/root/src/openwatcom-1.9/bld/ui/dos/dos386/ui.lib(/mnt/sda5/.user/root/src/openwatcom-1.9/bld/ui/c/uihotspt.c)
0001:00007868  uidrawhottext_
0001:0000797a  uihotspot_
0001:00007b24  uiposnhotspots_
0001:00007bc5  uiprinthotspots_
0001:00007be9* uioffhotspots_
0001:00007c24  uihotspotfilter_
0001:00007d93  uiisdefaulthotspot_
Module: /mnt/sda5/.user/root/src/openwatcom-1.9/bld/ui/dos/dos386/ui.lib(/mnt/sda5/.user/root/src/openwatcom-1.9/bld/ui/c/uiforce.c)
0001:00007dea  forceevfini_
0001:00007dea  forceevinit_
0001:00007deb  uiforceevadd_
0001:00007e2d* uiforceevflush_
0001:00007e6b  forcedevent_
Module: /mnt/sda5/.user/root/src/openwatcom-1.9/rel2/lib386/dos/clib3r.lib(atoi.c)
0001:00007ea0  atoi_
Module: /mnt/sda5/.user/root/src/openwatcom-1.9/rel2/lib386/dos/clib3r.lib(strtok.c)
0001:00007ef0  strtok_
Module: /mnt/sda5/.user/root/src/openwatcom-1.9/bld/ui/dos/dos386/ui.lib(/mnt/sda5/.user/root/src/openwatcom-1.9/bld/ui/c/uivstr.c)
0001:00007f9e  uitextfield_
0001:00008077  uivtextput_
0001:000080c8* uivrawput_
Module: /mnt/sda5/.user/root/src/openwatcom-1.9/bld/ui/dos/dos386/ui.lib(/mnt/sda5/.user/root/src/openwatcom-1.9/bld/ui/c/uigchar.c)
0001:0000812f  DBCSCharacterMap_
0002:00000b24  _UiGChar
0002:00000b46+ _UiDBCSChar
0002:00000b68+ _UiNECChar
Module: /mnt/sda5/.user/root/src/openwatcom-1.9/bld/ui/dos/dos386/ui.lib(/mnt/sda5/.user/root/src/openwatcom-1.9/bld/ui/c/uivfill.c)
0001:000081de  uivfill_
Module: /mnt/sda5/.user/root/src/openwatcom-1.9/bld/ui/dos/dos386/ui.lib(/mnt/sda5/.user/root/src/openwatcom-1.9/bld/ui/c/uirefer.c)
0001:00008246  uirefresh_
Module: /mnt/sda5/.user/root/src/openwatcom-1.9/rel2/lib386/dos/clib3r.lib(strncmp.c)
0001:00008250  strncmp_
Module: /mnt/sda5/.user/root/src/openwatcom-1.9/bld/ui/dos/dos386/ui.lib(/mnt/sda5/.user/root/src/openwatcom-1.9/bld/ui/c/uivopen.c)
0001:000082d5  uivopen_
0001:000084ae  uivclose_
0001:000084e3* uivresize_
0001:000085fe  uivmove_
Module: /mnt/sda5/.user/root/src/openwatcom-1.9/bld/ui/dos/dos386/ui.lib(/mnt/sda5/.user/root/src/openwatcom-1.9/bld/ui/c/uimousev.c)
0002:000018f8  _MouseCol
0002:000018fa  _MouseRow
0002:000018fc  _MouseStatus
0002:000018fe  _MouseOn
0001:00008649* uivmouseinstalled_
0001:00008649  uimouseinstalled_
0001:00008651* uimouseforceoff_
0001:00008662* uimouseforceon_
0001:00008669  uionmouse_
0001:000086a1  uioffmouse_
0001:000086a8  uihidemouse_
0001:000086cf  mouseevent_
0001:000088bd  uimousepos_
0001:000089b8  uivmousepos_
0001:00008a17  uiswapmouse_
0001:00008a4e* uigetmrow_
0001:00008a55* uigetmcol_
0001:00008a5c  uigetmouse_
0002:00001900  _MouseInstalled
Module: /mnt/sda5/.user/root/src/openwatcom-1.9/rel2/lib386/dos/clib3r.lib(sprintf.c)
0001:00008ab0  sprintf_
Module: /mnt/sda5/.user/root/src/openwatcom-1.9/rel2/lib386/dos/clib3r.lib(strncpy.c)
0001:00008ae0  strncpy_
Module: /mnt/sda5/.user/root/src/openwatcom-1.9/bld/ui/dos/dos386/ui.lib(/mnt/sda5/.user/root/src/openwatcom-1.9/bld/ui/c/uivmove.c)
0001:00008b16  uivmoveblock_
Module: /mnt/sda5/.user/root/src/openwatcom-1.9/rel2/lib386/dos/clib3r.lib(nmalloc.c)
0001:00008c50  _nmalloc_
0001:00008c50  malloc_
0002:00000be4  ___nheapbeg
0002:00000be8  ___MiniHeapRover
0002:00000bec  ___LargestSizeB4MiniHeapRover
Module: /mnt/sda5/.user/root/src/openwatcom-1.9/rel2/lib386/dos/clib3r.lib(nrealloc.c)
0001:00008d50* _nrealloc_
0001:00008d50  realloc_
Module: /mnt/sda5/.user/root/src/openwatcom-1.9/rel2/lib386/dos/clib3r.lib(nfree.c)
0001:00008df0  _nfree_
0001:00008df0  free_
0002:00001904  ___MiniHeapFreeRover
Module: /mnt/sda5/.user/root/src/openwatcom-1.9/rel2/lib386/dos/clib3r.lib(filelen.c)
0001:00008ef0  filelength_
Module: /mnt/sda5/.user/root/src/openwatcom-1.9/rel2/lib386/dos/clib3r.lib(read.c)
0001:00008f40  read_
Module: /mnt/sda5/.user/root/src/openwatcom-1.9/rel2/lib386/dos/clib3r.lib(write.c)
0001:00009180  write_
Module: /mnt/sda5/.user/root/src/openwatcom-1.9/rel2/lib386/dos/clib3r.lib(lseek.c)
0001:000093c0  lseek_
Module: /mnt/sda5/.user/root/src/openwatcom-1.9/rel2/lib386/dos/clib3r.lib(tell.c)
0001:000093f0  tell_
Module: /mnt/sda5/.user/root/src/openwatcom-1.9/rel2/lib386/dos/clib3r.lib(open.c)
0001:00009650  open_
0001:00009670+ sopen_
Module: /mnt/sda5/.user/root/src/openwatcom-1.9/rel2/lib386/dos/clib3r.lib(close.c)
0001:000096a0  close_
Module: /mnt/sda5/.user/root/src/openwatcom-1.9/rel2/lib386/dos/clib3r.lib(accss.c)
0001:000096b0  access_
Module: /mnt/sda5/.user/root/src/openwatcom-1.9/rel2/lib386/dos/clib3r.lib(gtcwd.c)
0001:000096f0  getcwd_
Module: /mnt/sda5/.user/root/src/openwatcom-1.9/rel2/lib386/dos/clib3r.lib(searchen.c)
0001:00009790  _searchenv_
Module: /mnt/sda5/.user/root/src/openwatcom-1.9/rel2/lib386/dos/clib3r.lib(strcspn.c)
0001:000098c0  strcspn_
Module: /mnt/sda5/.user/root/src/openwatcom-1.9/bld/ui/dos/dos386/ui.lib(/mnt/sda5/.user/root/src/openwatcom-1.9/bld/ui/c/uilstbox.c)
0001:00009908  uigetlistelement_
0001:00009940  uipaintlistbox_
0001:00009a95+ checkitem_
0001:00009b06  uiupdatelistbox_
0001:00009b79  uiboxpushlist_
0001:00009b83  uiboxpoplist_
0001:00009bb1+ uilistsize_
0001:00009bc9  uimovelistbox_
0001:00009be7  uibeglistbox_
0001:00009cb2  uiendlistbox_
0001:00009d5b+ charselect_
0001:00009dc8  uilistbox_
Module: /mnt/sda5/.user/root/src/openwatcom-1.9/bld/ui/dos/dos386/ui.lib(/mnt/sda5/.user/root/src/openwatcom-1.9/bld/ui/c/uialloc.c)
0001:0000a1b2* UIMemPrintLine_
0001:0000a1b2* UIMemPrtUsage_
0001:0000a1b2  UIMemClose_
0001:0000a1b2  UIMemOpen_
0001:0000a1b2* UIMemRedirect_
0001:0000a1b3  uicalloc_
0001:0000a1b8  uimalloc_
0001:0000a1bd  uifree_
0001:0000a1c2  uirealloc_
Module: /mnt/sda5/.user/root/src/openwatcom-1.9/bld/ui/dos/dos386/ui.lib(/mnt/sda5/.user/root/src/openwatcom-1.9/bld/ui/c/uidialog.c)
0001:0000a7e7  uiprintfield_
0001:0000a82b+ ui_split_line_
0001:0000a8cd+ uiinitdialog_
0001:0000a9ef* uifinidialog_
0001:0000aaad+ uireinitdialog_
0001:0000ab3f* uigetdialogarea_
0001:0000ab54  uibegdialog_
0001:0000ac18+ uiupdatecombobox_
0001:0000ac8b  uiupdateedit_
0001:0000ad27+ pulldownfilter_
0001:0000af25+ uidialogexitcurr_
0001:0000af3c+ uidialogsetcurr_
0001:0000af8e+ uimovefield_
0001:0000afea* uiredrawdialog_
0001:0000b026+ uiresizedialog_
0001:0000b438+ uihotkeyfilter_
0001:0000b535+ uiprocessdialogevent_
0001:0000b711  uidialog_
0001:0000b81d+ uifreedialog_
0001:0000b869  uienddialog_
0001:0000b881* uidialogisdirty_
0001:0000b891* uidialogsetdirty_
Module: /mnt/sda5/.user/root/src/openwatcom-1.9/rel2/lib386/dos/clib3r.lib(istable.c)
0002:000003dc  __IsTable
Module: /mnt/sda5/.user/root/src/openwatcom-1.9/rel2/lib386/dos/clib3r.lib(mbsnccnt.c)
0001:0000b8a0  _mbsnccnt_
Module: /mnt/sda5/.user/root/src/openwatcom-1.9/rel2/lib386/dos/clib3r.lib(mbsncpy.c)
0001:0000b8d0  _mbsncpy_
Module: /mnt/sda5/.user/root/src/openwatcom-1.9/rel2/lib386/dos/clib3r.lib(mbsnbcnt.c)
0001:0000b8f0  _mbsnbcnt_
Module: /mnt/sda5/.user/root/src/openwatcom-1.9/rel2/lib386/dos/clib3r.lib(mbsnextc.c)
0001:0000b960  _mbsnextc_
Module: /mnt/sda5/.user/root/src/openwatcom-1.9/rel2/lib386/dos/clib3r.lib(mbsinc.c)
0001:0000b9a0  _mbsinc_
Module: /mnt/sda5/.user/root/src/openwatcom-1.9/rel2/lib386/dos/clib3r.lib(iob.c)
0002:00000c9c  ___iob
0002:00000ea4  __fmode
0002:00001908  ___OpenStreams
0002:0000190c  ___ClosedStreams
Module: /mnt/sda5/.user/root/src/openwatcom-1.9/rel2/lib386/dos/clib3r.lib(fprtf.c)
0001:0000b9f0  __fprtf_
Module: /mnt/sda5/.user/root/src/openwatcom-1.9/rel2/lib386/dos/clib3r.lib(mbconv.c)
0001:0000ba90  _mbvtop_
Module: /mnt/sda5/.user/root/src/openwatcom-1.9/rel2/lib386/dos/clib3r.lib(mbclen.c)
0001:0000bab0  _mbclen_
Module: /mnt/sda5/.user/root/src/openwatcom-1.9/rel2/lib386/dos/clib3r.lib(mbsdec.c)
0001:0000bae0  _mbsdec_
Module: /mnt/sda5/.user/root/src/openwatcom-1.9/bld/ui/dos/dos386/ui.lib(/mnt/sda5/.user/root/src/openwatcom-1.9/bld/ui/dos/c/uibios.c)
0002:00001914+ _BIOSVidPage
0001:0000bb5d  firstmeg_
0001:0000bb6a  IdleInterrupt_
0001:0000bb7a* setvideomode_
0001:0000bb81* uiset80col_
0001:0000bbc6+ video_buffer_
0001:0000bc7c+ dbcs_vector_table_
0001:0000bd69+ initdbcs_
0001:0000bda5  uiisdbcs_
0001:0000bdc1  uionnec_
0001:0000bdc4  uicharlen_
0001:0000be03+ IsTextMode_
0001:0000bebe+ initmonitor_
0001:0000bfc9  initbios_
0001:0000c10b* uiclockdelay_
0001:0000c11c  finibios_
0001:0000c121  physupdate_
Module: /mnt/sda5/.user/root/src/openwatcom-1.9/bld/ui/dos/dos386/ui.lib(/mnt/sda5/.user/root/src/openwatcom-1.9/bld/ui/c/uiattr.c)
0002:00000f35+ _VGAcolours
0002:00000f75+ _ui_vga_colour_attrs
0002:00000f9a+ _ui_colour_attrs
0002:00000fbf+ _ui_bw_attrs
0002:00000fe4+ _ui_mono_attrs
0001:0000c258  uiattrs_
0001:0000c2f0* uivgaattrs_
0001:0000c32f+ uisetblinkattr_
0001:0000c368* uigetblinkattr_
Module: /mnt/sda5/.user/root/src/openwatcom-1.9/bld/ui/dos/dos386/ui.lib(/mnt/sda5/.user/root/src/openwatcom-1.9/bld/ui/dos/c/uimous.c)
0001:0000c36e  checkmouse_
0001:0000c4ae+ uimousespeed_
0001:0000c4e0  setupmouse_
0001:0000c5d6  initmouse_
0001:0000c62b  finimouse_
0001:0000c639+ uisetmouseposn_
0002:00001030+ _MouseTime
0002:0000192c  _Points
Module: /mnt/sda5/.user/root/src/openwatcom-1.9/bld/ui/dos/dos386/ui.lib(/mnt/sda5/.user/root/src/openwatcom-1.9/bld/ui/dos/c/uicurshk.c)
0001:0000c6ce  uioffcursor_
0001:0000c6d3* uioncursor_
0001:0000c6d8* uigetcursor_
0001:0000c6dd  uisetcursor_
0001:0000c6e8  uiswapcursor_
0001:0000c6ed  uiinitcursor_
0001:0000c6f2  uifinicursor_
Module: /mnt/sda5/.user/root/src/openwatcom-1.9/bld/ui/dos/dos386/ui.lib(/mnt/sda5/.user/root/src/openwatcom-1.9/bld/ui/dos/c/charmap.c)
0001:0000c6f7  SetSequencer_
0001:0000c74d  ResetSequencer_
0001:0000c7b6  SetWriteMap_
0001:0000c7c1* CallVid_
Module: /mnt/sda5/.user/root/src/openwatcom-1.9/bld/ui/dos/dos386/ui.lib(/mnt/sda5/.user/root/src/openwatcom-1.9/bld/ui/dos/c/uibmous.c)
0002:00001034  _DrawCursor
0002:00001038  _EraseCursor
0001:0000c997  uimousealign_
0001:0000c99d  uisetmouse_
0001:0000c9c4  uimouse_
Module: /mnt/sda5/.user/root/src/openwatcom-1.9/bld/ui/dos/dos386/ui.lib(/mnt/sda5/.user/root/src/openwatcom-1.9/bld/ui/dos/c/uiutil.c)
0001:0000c9f4  installed_
Module: /mnt/sda5/.user/root/src/openwatcom-1.9/bld/ui/dos/dos386/ui.lib(/mnt/sda5/.user/root/src/openwatcom-1.9/bld/ui/c/uibfill.c)
0001:0000ca2a  bfill_
Module: /mnt/sda5/.user/root/src/openwatcom-1.9/bld/ui/dos/dos386/ui.lib(/mnt/sda5/.user/root/src/openwatcom-1.9/bld/ui/c/uibcopy.c)
0001:0000ca6b  uibcopy_
Module: /mnt/sda5/.user/root/src/openwatcom-1.9/bld/ui/dos/dos386/ui.lib(/mnt/sda5/.user/root/src/openwatcom-1.9/bld/ui/c/uidirty.c)
0001:0000cac6  dirtyarea_
0001:0000cb48  dirtynext_
0001:0000cb98  uidirty_
Module: /mnt/sda5/.user/root/src/openwatcom-1.9/bld/ui/dos/dos386/ui.lib(/mnt/sda5/.user/root/src/openwatcom-1.9/bld/ui/c/uiwin.c)
0001:0000cc03+ findspot_
0001:0000cc68  closewindow_
0001:0000ccb2  openwindow_
0001:0000ccdd  movewindow_
0001:0000cd07  frontwindow_
Module: /mnt/sda5/.user/root/src/openwatcom-1.9/bld/ui/dos/dos386/ui.lib(/mnt/sda5/.user/root/src/openwatcom-1.9/bld/ui/c/uiballoc.c)
0001:0000cd35  bframe_
0001:0000cd4a  balloc_
0001:0000cd7c  bunframe_
0001:0000cd91  bfree_
Module: /mnt/sda5/.user/root/src/openwatcom-1.9/rel2/lib386/dos/clib3r.lib(cmain386.c)
0001:0000cda0  __CMain
Module: /mnt/sda5/.user/root/src/openwatcom-1.9/rel2/lib386/dos/clib3r.lib(initrtns.c)
0001:0000cdf0  __InitRtns
0001:0000ce40  __FiniRtns
Module: /mnt/sda5/.user/root/src/openwatcom-1.9/rel2/lib386/dos/clib3r.lib(dosseg)
0000:00001234  __DOSseg__
Module: /mnt/sda5/.user/root/src/openwatcom-1.9/rel2/lib386/dos/clib3r.lib(crwdata)
0002:0000107b  __osmajor
0002:0000107c  __osminor
0002:00001050  __psp
0002:00001072  __Extender
0002:00001073  __ExtenderSubtype
0002:00001074  __X32VM
0002:00001054* __x386_stacklow
0002:00001048  __LpCmdLine
0002:0000104c  __LpPgmName
0002:00001040  __dynend
0002:00001044  __curbrk
0002:00001054  __STACKLOW
0002:00001058  __STACKTOP
0002:0000105c  __ASTACKSIZ
0002:00001060  __ASTACKPTR
0002:00001064* __cbyte
0002:00001068* __cbyte2
0002:0000106c  __child
0002:00001075  __Envptr
0002:00001079  __Envseg
0002:00001070  __no87
0002:0000107d  ___FPE_handler
Module: /mnt/sda5/.user/root/src/openwatcom-1.9/rel2/lib386/dos/clib3r.lib(uselfn.c)
0002:00001084  ___uselfn
Module: /mnt/sda5/.user/root/src/openwatcom-1.9/rel2/lib386/dos/clib3r.lib(initargv.c)
0001:0000cea0  __Init_Argv_
0001:0000cef0+ _getargv_
0001:0000d090  __Fini_Argv_
Module: /mnt/sda5/.user/root/src/openwatcom-1.9/rel2/lib386/dos/clib3r.lib(finddos.c)
0001:0000d0a0  _dos_findfirst_
0001:0000d0f0  _dos_findnext_
0001:0000d150  _dos_findclose_
Module: /mnt/sda5/.user/root/src/openwatcom-1.9/rel2/lib386/dos/clib3r.lib(dosret.c)
0001:0000d160  _dosretax_
0001:0000d170* _dosret0_
0001:0000d180  __set_errno_dos_
0001:0000d200* __set_errno_dos_reterr_
Module: /mnt/sda5/.user/root/src/openwatcom-1.9/rel2/lib386/dos/clib3r.lib(strdup.c)
0001:0000d210  __clib_strdup_
Module: /mnt/sda5/.user/root/src/openwatcom-1.9/rel2/lib386/dos/clib3r.lib(environ.c)
0002:0000193c  ___env_mask
0002:00001940  _environ
0002:00001944* __wenviron
Module: /mnt/sda5/.user/root/src/openwatcom-1.9/rel2/lib386/dos/clib3r.lib(mbterm.c)
0001:0000d260  _mbterm_
Module: /mnt/sda5/.user/root/src/openwatcom-1.9/rel2/lib386/dos/clib3r.lib(mbcupper.c)
0001:0000d2a0  _mbctoupper_
Module: /mnt/sda5/.user/root/src/openwatcom-1.9/bld/ui/dos/dos386/ui.lib(/mnt/sda5/.user/root/src/openwatcom-1.9/bld/ui/c/uibstr.c)
0001:0000d2ba  bstring_
0001:0000d2ff  braw_
Module: /mnt/sda5/.user/root/src/openwatcom-1.9/bld/ui/dos/dos386/ui.lib(/mnt/sda5/.user/root/src/openwatcom-1.9/bld/ui/c/uibox.c)
0001:0000d33c  drawbox_
0001:0000d482  blowup_
0001:0000d55a  uidrawbox_
Module: /mnt/sda5/.user/root/src/openwatcom-1.9/rel2/lib386/dos/clib3r.lib(tolower.c)
0001:0000d5d0  tolower_
Module: /mnt/sda5/.user/root/src/openwatcom-1.9/bld/ui/dos/dos386/ui.lib(/mnt/sda5/.user/root/src/openwatcom-1.9/bld/ui/c/uipopup.c)
0001:0000d8a8+ uicreatepopupdesc_
0001:0000da93+ uiposfloatingpopup_
0001:0000dfe2+ uicreatepopupinarea_
0001:0000e005+ uicreatesubpopup_
0001:0000e04b  uicreatesubpopupinarea_
0001:0000e06b* uicreatepopup_
Module: /mnt/sda5/.user/root/src/openwatcom-1.9/bld/ui/dos/dos386/ui.lib(/mnt/sda5/.user/root/src/openwatcom-1.9/bld/ui/c/uivutil.c)
0001:0000e0d1  isdialogue_
0001:0000e0e1  isscreen_
0001:0000e100* uisetsnow_
Module: /mnt/sda5/.user/root/src/openwatcom-1.9/bld/ui/dos/dos386/ui.lib(/mnt/sda5/.user/root/src/openwatcom-1.9/bld/ui/c/uimenucr.c)
0001:0000e110  uimenucurr_
Module: /mnt/sda5/.user/root/src/openwatcom-1.9/bld/ui/dos/dos386/ui.lib(/mnt/sda5/.user/root/src/openwatcom-1.9/bld/ui/c/uipget.c)
0001:0000e111  saveevent_
0001:0000e137  getprime_
0001:0000e15f* uivgetprimevent_
0001:0000e15f* uivgetprime_
0002:00001948  _Event
Module: /mnt/sda5/.user/root/src/openwatcom-1.9/bld/ui/dos/dos386/ui.lib(/mnt/sda5/.user/root/src/openwatcom-1.9/bld/ui/c/uicheck.c)
0001:0000e19b  okarea_
0001:0000e1c9  oksubarea_
0001:0000e1dc  okline_
0001:0000e202  okopen_
Module: /mnt/sda5/.user/root/src/openwatcom-1.9/bld/ui/dos/dos386/ui.lib(/mnt/sda5/.user/root/src/openwatcom-1.9/bld/ui/c/uibattr.c)
0001:0000e20d  battribute_
0001:0000e26b  battrflip_
Module: /mnt/sda5/.user/root/src/openwatcom-1.9/bld/ui/dos/dos386/ui.lib(/mnt/sda5/.user/root/src/openwatcom-1.9/bld/ui/c/uivscrn.c)
0001:0000e2c0  findvscreen_
0001:0000e316  uivdirty_
0001:0000e324  uivsetactive_
0001:0000e33c  uivsetcursor_
Module: /mnt/sda5/.user/root/src/openwatcom-1.9/bld/ui/dos/dos386/ui.lib(/mnt/sda5/.user/root/src/openwatcom-1.9/bld/ui/dos/c/uiget.c)
0001:0000e36f  uiflush_
0001:0000e37b  uiclock_
0001:0000e42d  uiget_
0001:0000e432* uieventsource_
Module: /mnt/sda5/.user/root/src/openwatcom-1.9/bld/ui/dos/dos386/ui.lib(/mnt/sda5/.user/root/src/openwatcom-1.9/bld/ui/c/uiprot.c)
0001:0000e477  uiunprotect_
0001:0000e49e  uiprotect_
Module: /mnt/sda5/.user/root/src/openwatcom-1.9/rel2/lib386/dos/clib3r.lib(memset.c)
0001:0000e4c0  memset_
Module: /mnt/sda5/.user/root/src/openwatcom-1.9/rel2/lib386/dos/clib3r.lib(setbits.c)
0001:0000e4e0  __setbits_
Module: /mnt/sda5/.user/root/src/openwatcom-1.9/rel2/lib386/dos/clib3r.lib(bits.c)
0002:000004e0  __Bits
Module: /mnt/sda5/.user/root/src/openwatcom-1.9/bld/ui/dos/dos386/ui.lib(/mnt/sda5/.user/root/src/openwatcom-1.9/bld/ui/c/uirfrsh.c)
0001:0000e5c0  uidorefresh_
Module: /mnt/sda5/.user/root/src/openwatcom-1.9/bld/ui/dos/dos386/ui.lib(/mnt/sda5/.user/root/src/openwatcom-1.9/bld/ui/c/uibfake.c)
0001:0000e646  bfake_
Module: /mnt/sda5/.user/root/src/openwatcom-1.9/bld/ui/dos/dos386/ui.lib(/mnt/sda5/.user/root/src/openwatcom-1.9/bld/ui/dos/c/uikeyb.c)
0001:0000e67a* uiextkeyboard_
0001:0000e688* getkey_
0001:0000e694* checkkey_
0001:0000e6ae  flushkey_
0001:0000e6d5* checkshift_
0001:0000e6e1* uicheckshift_
0001:0000e6ed  initkeyboard_
0001:0000e75b  keyboardevent_
0001:0000e75b* uikeyboardevent_
Module: /mnt/sda5/.user/root/src/openwatcom-1.9/rel2/lib386/dos/clib3r.lib(vsprintf.c)
0001:0000e8b0  vsprintf_
Module: /mnt/sda5/.user/root/src/openwatcom-1.9/rel2/lib386/dos/clib3r.lib(nmemneed.c)
0001:0000e8d0  __nmemneed_
Module: /mnt/sda5/.user/root/src/openwatcom-1.9/rel2/lib386/dos/clib3r.lib(mem.c)
0001:0000e8e0  __MemAllocator
0001:0000e990  __MemFree
Module: /mnt/sda5/.user/root/src/openwatcom-1.9/rel2/lib386/dos/clib3r.lib(grownear.c)
0001:0000eb50+ __FreeDPMIBlocks_
0001:0000ebc0  __ReAllocDPMIBlock_
0001:0000ed50+ __LastFree_
0001:0000efc0  __ExpandDGROUP_
Module: /mnt/sda5/.user/root/src/openwatcom-1.9/rel2/lib386/dos/clib3r.lib(nmsize.c)
0001:0000f110  _nmsize_
0001:0000f110* _msize_
Module: /mnt/sda5/.user/root/src/openwatcom-1.9/rel2/lib386/dos/clib3r.lib(nexpand.c)
0001:0000f120  _nexpand_
0001:0000f120* _expand_
0001:0000f190+ __HeapManager_expand_
Module: /mnt/sda5/.user/root/src/openwatcom-1.9/rel2/lib386/dos/clib3r.lib(__lseek.c)
0001:0000f360  __lseek_
Module: /mnt/sda5/.user/root/src/openwatcom-1.9/rel2/lib386/dos/clib3r.lib(iomodtty.c)
0001:0000f3b0  __ChkTTYIOMode_
0001:0000f3f0* __IOMode_
Module: /mnt/sda5/.user/root/src/openwatcom-1.9/rel2/lib386/dos/clib3r.lib(iomode.c)
0001:0000f410  __GetIOMode_
0001:0000f430  __SetIOMode_nogrow_
0002:00001158  ___NFiles
0002:0000115c  ___init_mode
0002:000011ac  ___io_mode
Module: /mnt/sda5/.user/root/src/openwatcom-1.9/rel2/lib386/dos/clib3r.lib(seterrno.c)
0001:0000f44a  __set_errno_
0001:0000f456* __set_EDOM_
0001:0000f462* __set_ERANGE_
0001:0000f46e* __set_EINVAL_
0001:0000f47f  __set_doserrno_
Module: /mnt/sda5/.user/root/src/openwatcom-1.9/rel2/lib386/dos/clib3r.lib(stack386.c)
0001:0000f490  stackavail_
Module: /mnt/sda5/.user/root/src/openwatcom-1.9/rel2/lib386/dos/clib3r.lib(stk)
0001:0000f4b7* __STK
0001:0000f4a4* __CHK
0001:0000f4b4* __GRO
0001:0000f4d5  __STKOVERFLOW_
Module: /mnt/sda5/.user/root/src/openwatcom-1.9/rel2/lib386/dos/clib3r.lib(stiomode.c)
0001:0000f4f0+ __grow_iomode_
0001:0000f5b0+ __shrink_iomode_
0001:0000f5e0  __SetIOMode_
Module: /mnt/sda5/.user/root/src/openwatcom-1.9/rel2/lib386/dos/clib3r.lib(opendos.c)
0001:0000f650  _dos_open_
Module: /mnt/sda5/.user/root/src/openwatcom-1.9/rel2/lib386/dos/clib3r.lib(isatt.c)
0001:0000f670  isatty_
Module: /mnt/sda5/.user/root/src/openwatcom-1.9/rel2/lib386/dos/clib3r.lib(errno.c)
0001:0000f690  __get_errno_ptr_
0001:0000f6a0  __get_doserrno_ptr_
0002:00001954+ _errno
0002:00001958+ __doserrno
Module: /mnt/sda5/.user/root/src/openwatcom-1.9/rel2/lib386/dos/clib3r.lib(umaskval.c)
0002:000011c4  ___umaskval
Module: /mnt/sda5/.user/root/src/openwatcom-1.9/rel2/lib386/dos/clib3r.lib(creatdos.c)
0001:0000f6b0  _dos_creat_
0001:0000f6d0* _dos_creatnew_
Module: /mnt/sda5/.user/root/src/openwatcom-1.9/rel2/lib386/dos/clib3r.lib(_clse.c)
0001:0000f6f0  __close_
Module: /mnt/sda5/.user/root/src/openwatcom-1.9/rel2/lib386/dos/clib3r.lib(gfattdos.c)
0001:0000f740  _dos_getfileattr_
Module: /mnt/sda5/.user/root/src/openwatcom-1.9/rel2/lib386/dos/clib3r.lib(doserror)
0001:0000f75c  __doserror_
Module: /mnt/sda5/.user/root/src/openwatcom-1.9/rel2/lib386/dos/clib3r.lib(strlen.c)
0001:0000f770  strlen_
Module: /mnt/sda5/.user/root/src/openwatcom-1.9/rel2/lib386/dos/clib3r.lib(strncat.c)
0001:0000f790  strncat_
Module: /mnt/sda5/.user/root/src/openwatcom-1.9/rel2/lib386/dos/clib3r.lib(strcat.c)
0001:0000f7d0  strcat_
Module: /mnt/sda5/.user/root/src/openwatcom-1.9/bld/ui/dos/dos386/ui.lib(/mnt/sda5/.user/root/src/openwatcom-1.9/bld/ui/c/uimisc.c)
0001:0000f803  uisetscreenarea_
0001:0000f83f  uisetarea_
0001:0000f88b  uiposition_
0001:0000f8e5  uiopen_
0001:0000f922  uiclose_
0001:0000f933  uicntrtext_
0001:0000f977  uinocursor_
0001:0000f97f* uicursor_
Module: /mnt/sda5/.user/root/src/openwatcom-1.9/rel2/lib386/dos/clib3r.lib(calloc.c)
0001:0000f990  calloc_
Module: /mnt/sda5/.user/root/src/openwatcom-1.9/bld/ui/dos/dos386/ui.lib(/mnt/sda5/.user/root/src/openwatcom-1.9/bld/ui/c/uiledit.c)
0001:0000fa09  uiedittrim_
0001:0000fa1b* uieditmarking_
0001:0000fa4f  uibegedit_
0001:0000fb63  uieditpushlist_
0001:0000fb77  uieditpoplist_
0001:0000fbcd  uiledit_
0001:0000fcc1* uieditinsert_
0001:0000fd41  uiendedit_
0001:0000fd89  uieditisdirty_
0001:0000fdb0* uieditautoclear_
0001:0000fdc5* uieditcursor_
0001:0000fdd6* uieditdirty_
0001:0000fde0* uieditclean_
0002:000011c8+ _UIEdit
Module: /mnt/sda5/.user/root/src/openwatcom-1.9/bld/ui/dos/dos386/ui.lib(/mnt/sda5/.user/root/src/openwatcom-1.9/bld/ui/c/uidchfld.c)
0001:0000fdea  uidialogchangefield_
Module: /mnt/sda5/.user/root/src/openwatcom-1.9/bld/ui/dos/dos386/ui.lib(/mnt/sda5/.user/root/src/openwatcom-1.9/bld/ui/c/uidevent.c)
0001:0000fdeb  uidialogevent_
Module: /mnt/sda5/.user/root/src/openwatcom-1.9/rel2/lib386/dos/clib3r.lib(mbsnbcpy.c)
0001:0000fdf0  _mbsnbcpy_
Module: /mnt/sda5/.user/root/src/openwatcom-1.9/rel2/lib386/dos/clib3r.lib(mbisdbcs.c)
0002:0000195c  ___IsDBCS
Module: /mnt/sda5/.user/root/src/openwatcom-1.9/rel2/lib386/dos/clib3r.lib(mbislead.c)
0001:0000fe50* _ismbblead_
0002:00001960  ___MBCSIsTable
Module: /mnt/sda5/.user/root/src/openwatcom-1.9/rel2/lib386/dos/clib3r.lib(initfile.c)
0001:0000fe70  __InitFiles_
Module: /mnt/sda5/.user/root/src/openwatcom-1.9/rel2/lib386/dos/clib3r.lib(ioexit.c)
0001:0000ff70* fcloseall_
0001:0000ff80  __full_io_exit_
Module: /mnt/sda5/.user/root/src/openwatcom-1.9/rel2/lib386/dos/clib3r.lib(fputc.c)
0001:0000ff90  fputc_
Module: /mnt/sda5/.user/root/src/openwatcom-1.9/rel2/lib386/dos/clib3r.lib(ioalloc.c)
0001:00010050  __ioalloc_
Module: /mnt/sda5/.user/root/src/openwatcom-1.9/rel2/lib386/dos/clib3r.lib(prtf.c)
0001:000100f0  __prtf_
Module: /mnt/sda5/.user/root/src/openwatcom-1.9/rel2/lib386/dos/clib3r.lib(flush.c)
0001:00010f60  __flush_
Module: /mnt/sda5/.user/root/src/openwatcom-1.9/rel2/lib386/dos/clib3r.lib(inirmsel.c)
0002:00001a64  __ExtenderRealModeSelector
Module: /mnt/sda5/.user/root/src/openwatcom-1.9/rel2/lib386/dos/clib3r.lib(intr.c)
0001:00011160  intr_
Module: /mnt/sda5/.user/root/src/openwatcom-1.9/bld/ui/dos/dos386/ui.lib(/mnt/sda5/.user/root/src/openwatcom-1.9/bld/ui/dos/c/uicurs.c)
0001:00011165  _uioffcursor_
0001:000111ae  _uioncursor_
0001:000111ae  _uifinicursor_
0001:00011395  _uigetcursor_
0001:0001141a  _uisetcursor_
0001:0001145d  _uiswapcursor_
0001:00011476  _uiinitcursor_
Module: /mnt/sda5/.user/root/src/openwatcom-1.9/bld/ui/dos/dos386/ui.lib(/mnt/sda5/.user/root/src/openwatcom-1.9/bld/ui/dos/c/uisnow.c)
0001:000114a6  vertretrace_
0001:000114a7  issnow_
Module: /mnt/sda5/.user/root/src/openwatcom-1.9/bld/ui/dos/dos386/ui.lib(/mnt/sda5/.user/root/src/openwatcom-1.9/bld/ui/c/uifar.c)
0001:000114cf  _farfill
0001:000114ef  _farcopy
0001:0001150d  _farstring
0001:00011567  _farattrib
0001:00011588  _farattrflip
Module: /mnt/sda5/.user/root/src/openwatcom-1.9/bld/ui/dos/dos386/ui.lib(/mnt/sda5/.user/root/src/openwatcom-1.9/bld/ui/c/uiarea.c)
0001:000115ad  dividearea_
Module: /mnt/sda5/.user/root/src/openwatcom-1.9/bld/ui/dos/dos386/ui.lib(/mnt/sda5/.user/root/src/openwatcom-1.9/bld/ui/c/uimem.c)
0001:00011761  faralloc_
0001:00011766  farfree_
Module: /mnt/sda5/.user/root/src/openwatcom-1.9/rel2/lib386/dos/clib3r.lib(cinit.c)
0001:00011770  __CommonInit_
Module: /mnt/sda5/.user/root/src/openwatcom-1.9/rel2/lib386/dos/clib3r.lib(___argc.c)
0002:00001a74  ____Argc
0002:00001a78  ____Argv
Module: /mnt/sda5/.user/root/src/openwatcom-1.9/rel2/lib386/dos/clib3r.lib(exit.c)
0001:000117d0+ __null_int23_exit_
0001:000117d1  exit_
0001:000117fd* _exit_
0002:000011e4+ ___int23_exit
0002:000011e8+ ___FPE_handler_exit
Module: /mnt/sda5/.user/root/src/openwatcom-1.9/rel2/lib386/dos/clib3r.lib(sgdef086)
0002:00001234  __Start_XI
0002:00001258  __End_XI
0002:00001258  __Start_YI
0002:00001276  __End_YI
Module: /mnt/sda5/.user/root/src/openwatcom-1.9/rel2/lib386/dos/clib3r.lib(histsplt.c)
0002:00001a7c  ___historical_splitparms
Module: /mnt/sda5/.user/root/src/openwatcom-1.9/rel2/lib386/dos/clib3r.lib(setenvp.c)
0001:00011820  __setenvp_
0001:00011900  __freeenvp_
Module: /mnt/sda5/.user/root/src/openwatcom-1.9/rel2/lib386/dos/clib3r.lib(toupper.c)
0001:00011950  toupper_
Module: /mnt/sda5/.user/root/src/openwatcom-1.9/rel2/lib386/dos/clib3r.lib(mbinit.c)
0001:00011998  __mbinit_
0001:00011a69+ dos_get_dbcs_lead_table_
0001:00011b5d+ dos_get_code_page_
0002:000011ec  ___MBCodePage
Module: /mnt/sda5/.user/root/src/openwatcom-1.9/rel2/lib386/dos/clib3r.lib(mbdtoupp.c)
0001:00011d00  _mbdtoupper_
Module: /mnt/sda5/.user/root/src/openwatcom-1.9/bld/ui/dos/dos386/ui.lib(/mnt/sda5/.user/root/src/openwatcom-1.9/bld/ui/c/uibpix.c)
0001:00011d12  bpixel_
Module: /mnt/sda5/.user/root/src/openwatcom-1.9/bld/ui/dos/dos386/ui.lib(/mnt/sda5/.user/root/src/openwatcom-1.9/bld/ui/c/uiev.c)
0001:00011d59  uidoneevent_
0001:00011d59  uistartevent_
Module: /mnt/sda5/.user/root/src/openwatcom-1.9/bld/ui/dos/dos386/ui.lib(/mnt/sda5/.user/root/src/openwatcom-1.9/bld/ui/c/uibarf.c)
0001:00011d5a  uibarf_
Module: /mnt/sda5/.user/root/src/openwatcom-1.9/bld/ui/dos/dos386/ui.lib(/mnt/sda5/.user/root/src/openwatcom-1.9/bld/ui/dos/c/uihook.c)
0001:00011d5b  uieventsourcehook_
Module: /mnt/sda5/.user/root/src/openwatcom-1.9/rel2/lib386/dos/clib3r.lib(__stos)
0001:00011d60  __STOSB
0001:00011d97* __STOSD
Module: /mnt/sda5/.user/root/src/openwatcom-1.9/rel2/lib386/dos/clib3r.lib(heapen.c)
0001:00011e10* _heapenable_
0002:000011f0  ___heap_enabled
Module: /mnt/sda5/.user/root/src/openwatcom-1.9/rel2/lib386/dos/clib3r.lib(minreal.c)
0002:00001a84  ___minreal
Module: /mnt/sda5/.user/root/src/openwatcom-1.9/rel2/lib386/dos/clib3r.lib(amblksiz.c)
0002:000011f4  __amblksiz
Module: /mnt/sda5/.user/root/src/openwatcom-1.9/rel2/lib386/dos/clib3r.lib(sbrk386.c)
0001:00011e20* sbrk_
0001:00011f00  __brk_
Module: /mnt/sda5/.user/root/src/openwatcom-1.9/rel2/lib386/dos/clib3r.lib(xmsg.c)
0001:00012020* __exit_with_msg_
0001:00012030  __fatal_runtime_error_
Module: /mnt/sda5/.user/root/src/openwatcom-1.9/bld/ui/dos/dos386/ui.lib(/mnt/sda5/.user/root/src/openwatcom-1.9/bld/ui/c/uivline.c)
0001:00012184  uiveditevent_
0001:00012310* uiveditline_
0001:00012336  uiveditinit_
0001:00012382  uiveditfini_
0002:000011f8  _LineEvents
Module: /mnt/sda5/.user/root/src/openwatcom-1.9/rel2/lib386/dos/clib3r.lib(memmove.c)
0001:00012390  memmove_
Module: /mnt/sda5/.user/root/src/openwatcom-1.9/rel2/lib386/dos/clib3r.lib(fclose.c)
0001:000123f0+ __doclose_
0001:00012470  __shutdown_stream_
0001:00012490* fclose_
0002:00001a88+ ___RmTmpFileFn
Module: /mnt/sda5/.user/root/src/openwatcom-1.9/rel2/lib386/dos/clib3r.lib(freefp.c)
0001:000124c0  __freefp_
0001:00012500  __purgefp_
Module: /mnt/sda5/.user/root/src/openwatcom-1.9/rel2/lib386/dos/clib3r.lib(chktty.c)
0001:00012530  __chktty_
Module: /mnt/sda5/.user/root/src/openwatcom-1.9/rel2/lib386/dos/clib3r.lib(wctomb.c)
0001:00012570  wctomb_
Module: /mnt/sda5/.user/root/src/openwatcom-1.9/rel2/lib386/dos/clib3r.lib(itoa.c)
0001:000125a0+ utoa_
0001:000125f0  itoa_
Module: /mnt/sda5/.user/root/src/openwatcom-1.9/rel2/lib386/dos/clib3r.lib(strupr.c)
0001:00012620  strupr_
Module: /mnt/sda5/.user/root/src/openwatcom-1.9/rel2/lib386/dos/clib3r.lib(noefgfmt.c)
0002:00001224  ___EFG_printf
0002:00001228* ___EFG_scanf
Module: /mnt/sda5/.user/root/src/openwatcom-1.9/rel2/lib386/dos/clib3r.lib(lltoa.c)
0001:00012660  ulltoa_
0001:000126d0* lltoa_
Module: /mnt/sda5/.user/root/src/openwatcom-1.9/rel2/lib386/dos/clib3r.lib(ltoa.c)
0001:00012700  ultoa_
0001:00012750* ltoa_
Module: /mnt/sda5/.user/root/src/openwatcom-1.9/rel2/lib386/dos/clib3r.lib(qwrit.c)
0001:00012780  __qwrite_
Module: /mnt/sda5/.user/root/src/openwatcom-1.9/rel2/lib386/dos/clib3r.lib(fsync.c)
0001:00012800  fsync_
Module: /mnt/sda5/.user/root/src/openwatcom-1.9/rel2/lib386/dos/clib3r.lib(int386xa)
0001:00012808  __int386x_
0001:00012864  _DoINTR_
Module: /mnt/sda5/.user/root/src/openwatcom-1.9/rel2/lib386/dos/clib3r.lib(int386.c)
0001:00012bf0  int386_
Module: /mnt/sda5/.user/root/src/openwatcom-1.9/rel2/lib386/dos/clib3r.lib(fmemmove.c)
0001:00012c10  _fmemmove_
Module: /mnt/sda5/.user/root/src/openwatcom-1.9/bld/ui/dos/dos386/ui.lib(/mnt/sda5/.user/root/src/openwatcom-1.9/bld/ui/c/uifmem.c)
0001:00012c97  uifaralloc_
0001:00012ca6  uifarfree_
Module: /mnt/sda5/.user/root/src/openwatcom-1.9/rel2/lib386/dos/clib3r.lib(dpmihost.c)
0001:00012cb0  __DPMI_hosted_
Module: /mnt/sda5/.user/root/src/openwatcom-1.9/rel2/lib386/dos/clib3r.lib(clearenv.c)
0001:00012d50  clearenv_
Module: /mnt/sda5/.user/root/src/openwatcom-1.9/rel2/lib386/dos/clib3r.lib(intdx386.c)
0001:00012de0  intdosx_
Module: /mnt/sda5/.user/root/src/openwatcom-1.9/rel2/lib386/dos/clib3r.lib(enterdb.c)
0001:00012e50  __EnterWVIDEO_
0002:00001230+ ___WD_Present
Module: /mnt/sda5/.user/root/src/openwatcom-1.9/bld/ui/dos/dos386/ui.lib(/mnt/sda5/.user/root/src/openwatcom-1.9/bld/ui/c/uipad.c)
0001:00012e76  uipadblanks_
Module: /mnt/sda5/.user/root/src/openwatcom-1.9/bld/ui/dos/dos386/ui.lib(/mnt/sda5/.user/root/src/openwatcom-1.9/bld/ui/c/uivedit.c)
0001:00012ee3+ secondbyte_
0001:00012efe  uieditevent_
Module: /mnt/sda5/.user/root/src/openwatcom-1.9/rel2/lib386/dos/clib3r.lib(alphabet.c)
0002:000003b4  ___Alphabet
Module: /mnt/sda5/.user/root/src/openwatcom-1.9/rel2/lib386/dos/clib3r.lib(filedos.c)
0001:000132c0* _dos_close_
0001:000132d0  _dos_commit_
Module: /mnt/sda5/.user/root/src/openwatcom-1.9/rel2/lib386/dos/clib3r.lib(segread.c)
0001:000132e0  segread_
Module: /mnt/sda5/.user/root/src/openwatcom-1.9/rel2/lib386/dos/clib3r.lib(intx386.c)
0001:00013310  int386x_


                        +----------------------+
                        |   Imported Symbols   |
                        +----------------------+

Symbol                              Module
======                              ======



                        +--------------------+
                        |   Libraries Used   |
                        +--------------------+

/mnt/sda5/.user/root/src/openwatcom-1.9/bld/ui/dos/dos386/ui.lib
/mnt/sda5/.user/root/src/openwatcom-1.9/rel2/lib386/dos/clib3r.lib


                        +-----------------------+
                        |   Linker Statistics   |
                        +-----------------------+

Stack size:  00010000 (65536.)
Memory size:  00024db9 (150969.)
Entry point address: 0001:00004d6c
Link time: 00:00.00
