Open Watcom Linker Version 1.9
Portions Copyright (c) 1985-2002 Sybase, Inc. All Rights Reserved.
Created on:       12/12/16 02:39:12
Executable Image: vi.exe
creating an OS/2 32-bit executable


                        +------------+
                        |   Groups   |
                        +------------+

Group                           Address              Size
=====                           =======              ====

DGROUP                          0003:00000000        000186a0



                        +--------------+
                        |   Segments   |
                        +--------------+

Segment                Class          Group          Address         Size
=======                =====          =====          =======         ====

_TEXT16                CODE           AUTO           0001:00000000   00000068
BEGTEXT                CODE           AUTO           0002:00000000   00000007
_TEXT                  CODE           AUTO           0002:00000010   0003eff3
_NULL                  BEGDATA        DGROUP         0003:00000000   00000004
_AFTERNULL             BEGDATA        DGROUP         0003:00000004   00000000
CONST                  DATA           DGROUP         0003:00000004   0000005c
CONST2                 DATA           DGROUP         0003:00000060   00000000
_DATA                  DATA           DGROUP         0003:00000060   00003980
XIB                    DATA           DGROUP         0003:000039e0   00000000
XI                     DATA           DGROUP         0003:000039e0   00000042
XIE                    DATA           DGROUP         0003:00003a22   00000000
YIB                    DATA           DGROUP         0003:00003a22   00000000
YI                     DATA           DGROUP         0003:00003a22   00000018
YIE                    DATA           DGROUP         0003:00003a3a   00000000
TIB                    DATA           DGROUP         0003:00003a3a   00000000
TI                     DATA           DGROUP         0003:00003a3a   00000000
TIE                    DATA           DGROUP         0003:00003a3a   00000000
DATA                   DATA           DGROUP         0003:00003a3a   00000000
_BSS                   BSS            DGROUP         0003:00003a3c   00002c5c
stack                  STACK          DGROUP         0003:000066a0   00012000


                        +----------------+
                        |   Memory Map   |
                        +----------------+

* = unreferenced symbol
+ = symbol only referenced locally

Address        Symbol
=======        ======

Module: version.obj(/mnt/sda5/.user/root/src/openwatcom-1.9/bld/vi/c/version.c)
0003:00000060  _DATESTAMP_T
0003:00000069  _DATESTAMP_D
0003:00000075  _AUTHOR
0003:000000b8  _VERSIONT
Module: name.obj(/mnt/sda5/.user/root/src/openwatcom-1.9/bld/vi/c/name.c)
0003:000000bc  _TITLE
Module: key.obj(/mnt/sda5/.user/root/src/openwatcom-1.9/bld/vi/c/key.c)
0002:00000110  GetVIKey_
0002:00000380  GetKey_
0002:00000470  NonKeyboardEventsPending_
0002:000004a0  GetNextEvent_
0002:00000660  ClearBreak_
0002:00000680  KeyAddString_
0002:000006c0  AddCurrentMouseEvent_
0002:00000700  KeyAdd_
Module: globals.obj(/mnt/sda5/.user/root/src/openwatcom-1.9/bld/vi/c/globals.c)
0003:00003e44  _SpawnPrompt
0003:00003f44  _DirFiles
0003:00004944  _SelRgn
0003:0000495c  _MatchData
0003:000049a4  _CurrentRegularExpression
0003:000049a8  _CurrentDirectory
0003:000049ac  _SwapBlockArraySize
0003:000049b0  _ReadBuffer
0003:000049b4  _TileColors
0003:000049b8  _WriteBuffer
0003:000049bc  _SwapBlocks
0003:000049c0  _TmpDir
0003:000049c4  _HomeDirectory
0003:000049c8  _DotCmd
0003:000049cc  _DotBuffer
0003:000049d0  _SwapBlocksInUse
0003:000049d4  _SourceErrCount
0003:000049d8  _AltDotBuffer
0003:000049dc  _AltDotCount
0003:000049e0  _AltDotDigits
0003:000049e4  _DotCmdCount
0003:000049e8  _ClockTicks
0003:000049ec  _RepeatDigits
0003:000049f0  _DotDigits
0003:000049f4  _DotCount
0003:000049f8* _SystemRC
0003:000049fc  _MaxMemFree
0003:00004a00  _MaxMemFreeAfterInit
0003:00004a04  _RegExpError
0003:00004a08  _NumStatusSections
0003:00004a0c  _WrapMargin
0003:00004a10  _StatusSections
0003:00004a14  _Savebufs
0003:00004a80  _UndoStack
0003:00004a84  _UndoUndoStack
0003:00004a88  _DirFileCount
0003:00004a8c  _SpecialSavebufs
0003:00004bd0  _InputKeyMaps
0003:00004bd4  _CurrentLine
0003:00004bd8  _Comspec
0003:00004bdc  _KeyMaps
0003:00004be0  _CurrentKeyMap
0003:00004be4  _CurrentKeyMapCount
0003:00004be8  _FcbThreadHead
0003:00004bec  _InfoHead
0003:00004bf0  _CurrentFile
0003:00004bf4  _EXEName
0003:00004bf8  _TagFileName
0003:00004bfc  _MarkList
0003:00004c00  _CurrFIgnore
0003:00004c04  _WorkLine
0003:00004c08  _InfoTail
0003:00004c0c  _StaticBuffer
0003:00004c10  _CurrentInfo
0003:00004c14  _BndMemory
0003:00004c18  _FIgnore
0003:00004c1c  _FcbThreadTail
0003:00004c20  _HistoryFile
0003:00004c24  _FcbBlocksInUse
0003:00004c28  _CurrentFcb
0003:00004c2c  _HalfPageLines
0003:00004c30  _Majick
0003:00004c34  _WordAltDefn
0003:00004c38  _NextAutoSave
0003:00004c3c  _GrepDefault
0003:00004c40  _WordDefn
0003:00004c44  _SpinCount
0003:00004c48  _MouseCol
0003:00004c4c  _MouseRow
0003:00004c50  _MouseRepeatDelay
0003:00004c54  _MouseStatus
0003:00004c58  _RepeatString
0003:00004c62  _LastError
0003:00004c64  _LastRetCode
0003:00004c66  _LastRC
0003:00004c68  _LastEvent
0003:00004c6a  _NoRepeatInfo
0003:00004c6b  _LastSavebuf
0003:000000f8  _MSG_CHARACTERS
0003:00000103  _MSG_LINES
0003:00000109  _MSG_PRESSANYKEY
0003:00000117  _MSG_DELETEDINTOBUFFER
0003:0000012d  _MEMORIZE_MODE
0003:0000013c  _CONFIG_FILE
0003:00000143  _SingleBlank
0003:00000145  _SingleSlash
0003:00000148  _BoolStr
0003:00000150  _EditOpts
0003:0000015c  _NumEditOpts
0003:00000160  _EventList
0003:00001f60  _MouseSpeed
0003:00001f64  _MouseDoubleClickSpeed
0003:00001f68  _MouseRepeatStartDelay
0003:00001f6c  _LastMouseEvent
0003:00001f70  _FileEndString
0003:00001f74  _StatusString
0003:00001f78  _MaxPush
0003:00001f7c  _Radix
0003:00001f80  _AutoSaveInterval
0003:00001f84  _PageLinesExposed
0003:00001f88  _StackK
0003:00001f8c  _SpinData
0003:00001f90  _ExitAttr
0003:00001f94  _CurrentPos
0003:00001f9c  _LeftTopPos
0003:00001fa4  _VirtualColumnDesired
0003:00001fa8  _CurrentWindow
0003:00001fac  _MessageWindow
0003:00001fb0  _StatusWindow
0003:00001fb4  _MenuWindow
0003:00001fb8  _CurrNumWindow
0003:00001fbc  _CursorBlinkRate
0003:00001fc0  _FilterHist
0003:00001fcc  _CLHist
0003:00001fd8  _FindHist
0003:00001fe4  _LastFilesHist
0003:00001ff0  _SavebufBound
0003:00002004  _CurrentSavebuf
0003:00002008  _WorkSavebuf
0003:0000200c  _SavebufNumber
0003:00002010  _cmdlinew_info
0003:00002022  _statusw_info
0003:00002034  _repcntw_info
0003:00002046  _editw_info
0003:00002058  _extraw_info
0003:0000206a  _filecw_info
0003:0000207c  _linenumw_info
0003:0000208e  _dirw_info
0003:000020a0  _filelistw_info
0003:000020b2  _setw_info
0003:000020c4  _setvalw_info
0003:000020d6  _messagew_info
0003:000020e8  _menuw_info
0003:000020fa  _menubarw_info
0003:0000210c  _defaultw_info
0003:0000211e  _activemenu_info
0003:00002130  _greyedmenu_info
0003:00002142  _activegreyedmenu_info
0003:00002154  _CommandBuffer
0003:00002158  _SwapFileHandle
0003:0000215c  _MaxSwapBlocks
0003:00002160  _MaxLine
0003:00002164  _MaxLinem1
0003:00002168  _crlf
0003:0000216a  _OverstrikeCursorType
0003:0000216c  _InsertCursorType
0003:0000216e  _NormalCursorType
0003:00002170  _MatchCount
0003:00002174  _LineNumWinWidth
0003:00002178  _TabAmount
0003:0000217c  _ShiftWidth
0003:00002180  _HardTab
0003:00002184  _maxdotbuffer
0003:00002188  _CurrentStatusColumn
0003:0000218c  _ClockX
0003:00002190  _ClockY
0003:00002194  _SpinX
0003:00002198  _SpinY
0003:0000219c  _MaxTileColors
0003:000021a0  _MaxWindowTileX
0003:000021a4  _MaxWindowTileY
0003:000021a8  _MoveColor
0003:000021a9  _ResizeColor
0003:000021aa  _InactiveWindowColor
0003:000021ac  _WindMaxWidth
0003:000021ae  _WindMaxHeight
0003:000021b0  _ToolBarButtonHeight
0003:000021b4  _ToolBarButtonWidth
0003:000021b8  _ToolBarColor
0003:000021b9  _EndOfLineChar
0003:000021ba  _EditFlags
0003:00004c6c  _VideoPage
Module: pdata.obj(/mnt/sda5/.user/root/src/openwatcom-1.9/bld/vi/c/pdata.c)
0003:0000223c  _ParseClTokens
0003:00002634  _SetTokens1
0003:000028d7  _SetTokens2
0003:00002b93  _SetTokens2a
Module: exdata.obj(/mnt/sda5/.user/root/src/openwatcom-1.9/bld/vi/c/exdata.c)
0003:00002c4c  _ExTokens
Module: srcdata.obj(/mnt/sda5/.user/root/src/openwatcom-1.9/bld/vi/c/srcdata.c)
0003:00002c94  _SourceTokens
0003:00002d39  _StrTokens
0003:00004c70  _VarHead
0003:00004c74  _ErrorValues
0003:00004c78  _CurrentSrcLine
0003:00004c7c  _CurrentSrcLabel
0003:00004c80  _VarTail
0003:00004c84  _ErrorTokens
0003:00004c88  _CurrentSrcData
Module: rxwrap.obj(/mnt/sda5/.user/root/src/openwatcom-1.9/bld/vi/c/rxwrap.c)
0002:000007b0  RegComp_
0002:000013f0  RegExec_
0002:000019a0* RegAnchor_
0003:00002d50  _META
Module: rxsupp.obj(/mnt/sda5/.user/root/src/openwatcom-1.9/bld/vi/c/rxsupp.c)
0002:000019b0  IsMagicCharRegular_
0002:000019f0  CurrentRegComp_
0002:00001a10  GetCurrRegExpColumn_
0002:00001a20  GetCurrRegExpLength_
0002:00001a30  MakeExpressionNonRegular_
0002:00001b00  RegExpAttrSave_
0002:00001b60  RegExpAttrRestore_
Module: tab_hell.obj(/mnt/sda5/.user/root/src/openwatcom-1.9/bld/vi/c/tab_hell.c)
0002:00001c00  InsertTabSpace_
0002:00001cb0  ExpandTabsInABufferUpToColumn_
0002:00001d30  ExpandTabsInABuffer_
0002:00001e20  WinVirtualCursorPosition_
0002:00001e70* WinRealCursorPosition_
0002:00001ed0  GetVirtualCursorPosition_
0002:00001f50  VirtualColumnOnCurrentLine_
0002:00001fe0  RealColumnOnCurrentLine_
0002:00002010* CursorPositionOffRight_
0002:00002080* RealCursorPositionInString_
0002:000020b0* RealCursorPositionOnLine_
0002:00002100  VirtualLineLen_
0002:00002150  AddLeadingTabSpace_
0002:000022a0  ConvertSpacesToTabsUpToColumn_
0003:00004cb0  _TabCnt
Module: regsub.obj(/mnt/sda5/.user/root/src/openwatcom-1.9/bld/vi/c/regsub.c)
0002:000024f0  RegSub_
Module: findrx.obj(/mnt/sda5/.user/root/src/openwatcom-1.9/bld/vi/c/findrx.c)
0002:00002970  FindRegularExpression_
0002:00002b30  FindRegularExpressionBackwards_
Module: mem.obj(/mnt/sda5/.user/root/src/openwatcom-1.9/bld/vi/c/mem.c)
0002:00002f70+ doMemAllocUnsafe_
0002:00002fd0  MemAlloc_
0002:00002ff0  MemAllocUnsafe_
0002:00003000  MemFree_
0002:00003010+ doMemReAllocUnsafe_
0002:000030b0  MemReAllocUnsafe_
0002:000030c0  MemReAlloc_
0002:000030e0  StaticAlloc_
0002:00003140  StaticFree_
0002:00003170  StaticStart_
0002:000031d0  StaticFini_
0002:000031e0  MemStrDup_
0003:00002d84  _maxStatic
Module: addstr.obj(/mnt/sda5/.user/root/src/openwatcom-1.9/bld/vi/c/addstr.c)
0002:00003230  AddString2_
0002:00003250  AddString_
0002:000032a0  DeleteString_
Module: llrtns.obj(/mnt/sda5/.user/root/src/openwatcom-1.9/bld/vi/c/llrtns.c)
0002:000032c0  AddLLItemAtEnd_
0002:000032f0  InsertLLItemAfter_
0002:00003310  InsertLLItemBefore_
0002:00003330  DeleteLLItem_
0002:00003370  ReplaceLLItem_
0002:000033a0* ValidateLL_
Module: parse.obj(/mnt/sda5/.user/root/src/openwatcom-1.9/bld/vi/c/parse.c)
0002:000033e0  RemoveLeadingSpaces_
0002:00003410* TranslateTabs_
0002:00003460  GetStringWithPossibleQuote2_
0002:000034c0  GetStringWithPossibleQuote_
0002:000034d0  NextWord1_
0002:00003540  NextWordSlash_
0002:00003550  NextWord_
0002:00003690  EliminateFirstN_
0002:000036b0  Tokenize_
0002:000037a0  GetNumberOfTokens_
0002:000037e0  GetLongestTokenLength_
0002:00003830  GetTokenString_
0002:00003870  ReplaceSubString_
Module: int.obj(/mnt/sda5/.user/root/src/openwatcom-1.9/bld/vi/os2/int.c)
0002:00003950+ TimerThread_
0002:00003aa0  SetInterrupts_
0002:00003af0  RestoreInterrupts_
Module: biosos2.obj(/mnt/sda5/.user/root/src/openwatcom-1.9/bld/vi/os2/biosos2.c)
0002:00003b30  BIOSGetColorRegister_
0002:00003bb0  BIOSSetColorRegister_
0002:00003c20  BIOSGetColorPalette_
0002:00003cb0  BIOSSetNoBlinkAttr_
0002:00003cc0  BIOSSetBlinkAttr_
0002:00003d20  BIOSSetCursor_
0002:00003d70  BIOSGetCursor_
0002:00003dd0  BIOSNewCursor_
0002:00003e40  BIOSGetKeyboard_
0002:00003eb0  BIOSKeyboardHit_
0002:00003f00  BIOSUpdateScreen_
Module: uiglob.obj(/mnt/sda5/.user/root/src/openwatcom-1.9/bld/vi/ui/uiglob.c)
0003:00002d88  _WindowNormalAttribute
0003:00002d8a  _WindowBordersNG
0003:00002d96  _WindowBordersG
0003:00004cd8  _Windows
0003:000050c0  _MinSlots
0003:000050e8  _ClockStart
0003:000050ec  _SpinLoc
0003:000050f0  _Scrn
0003:000050f4  _ScreenImage
0003:000050f8  _GadgetString
Module: ui8086.obj(/mnt/sda5/.user/root/src/openwatcom-1.9/bld/vi/ui/ui8086.c)
0003:00002da4  _PageCnt
0002:00003f80  KillCursor_
0002:00003fc0  RestoreCursor_
0002:00003ff0  SetFont_
0002:00004000  ClearScreen_
0002:00004080  GetClockStart_
0002:000040b0  GetSpinStart_
0002:000040e0  SetPosToMessageLine_
0002:00004110  SetGenericWindowCursor_
0002:00004150  HideCursor_
0002:000041f0  InitColors_
0002:00004220  ResetColors_
0002:00004270  FiniColors_
0002:000042c0  SetAColor_
0002:000043c0  GetNumColors_
0002:000043d0  GetColorSetting_
Module: winbrdr.obj(/mnt/sda5/.user/root/src/openwatcom-1.9/bld/vi/ui/winbrdr.c)
0002:00004400  DrawBorder_
0002:00004930  SetBorderGadgets_
0002:00004950  WindowBorderData_
0002:00004970  SetGadgetString_
Module: winthumb.obj(/mnt/sda5/.user/root/src/openwatcom-1.9/bld/vi/ui/winthumb.c)
0002:000049e0  DrawVerticalThumb_
0002:00004a80  PositionVerticalScrollThumb_
0002:00004b00  PositionToNewThumbPosition_
0002:00004b60  PositionHorizontalScrollThumb_
Module: winover.obj(/mnt/sda5/.user/root/src/openwatcom-1.9/bld/vi/ui/winover.c)
0002:00004b70  ResetOverlap_
0002:00004be0  MarkOverlap_
0002:00004ce0  RestoreOverlap_
0002:00004f70  TestOverlap_
0002:00004fb0  WindowIsVisible_
0002:00004fc0  TestVisible_
0002:00004ff0  WhoIsUnder_
Module: winshow.obj(/mnt/sda5/.user/root/src/openwatcom-1.9/bld/vi/ui/winshow.c)
0002:00005100  MoveWindowToFront_
0002:00005120  MoveWindowToFrontDammit_
0002:00005160  InactiveWindow_
0002:00005180  ActiveWindow_
0002:000051a0  WindowTitleAOI_
0002:000051f0  WindowTitle_
0002:00005200* WindowTitleInactive_
0002:00005210  ClearWindow_
0002:00005350  InsideWindow_
Module: winswap.obj(/mnt/sda5/.user/root/src/openwatcom-1.9/bld/vi/ui/winswap.c)
0002:000054b0  SwapAllWindows_
0002:000055b0  AccessWindow_
0002:000055f0  ReleaseWindow_
0002:00005610  WindowSwapFileClose_
Module: mouse.obj(/mnt/sda5/.user/root/src/openwatcom-1.9/bld/vi/ui/mouse.c)
0002:000056f0  GetMouseEvent_
0002:000059a0  RedrawMouse_
0002:000059d0  DisplayMouse_
Module: windisp.obj(/mnt/sda5/.user/root/src/openwatcom-1.9/bld/vi/ui/windisp.c)
0002:00005aa0+ displayLineInWindowGeneric_
0002:00005eb0  DisplayLineInWindowWithColor_
0002:00005ef0  DisplayLineInWindowWithSyntaxStyle_
0002:00005fc0  DisplayCrossLineInWindow_
0002:00006320  HiliteAColumnRange_
0002:00006370* ColorAColumnRange_
0002:000063c0  SetCharInWindowWithColor_
0002:00006520  DisplayLineInWindow_
Module: winscrl.obj(/mnt/sda5/.user/root/src/openwatcom-1.9/bld/vi/ui/winscrl.c)
0002:00006560  ShiftWindowUpDown_
Module: winnew.obj(/mnt/sda5/.user/root/src/openwatcom-1.9/bld/vi/ui/winnew.c)
0002:000066b0  ResetWindow_
0002:00006790  ValidDimension_
0002:000067f0+ GimmeWindow_
0002:00006820  AllocWindow_
0002:00006900  NewWindow_
0002:000069e0  FreeWindow_
0002:00006a20  CloseAWindow_
Module: init.obj(/mnt/sda5/.user/root/src/openwatcom-1.9/bld/vi/c/init.c)
0002:00006b20  FiniCFName_
0002:000075a0  InitializeEditor_
0003:00002ddc+ _WordDefnDefault
Module: getopt.obj(/mnt/sda5/.user/root/src/openwatcom-1.9/bld/posix/misc/getopt.c)
0003:0000565c  _OptArg
0003:00002de0+ _OptInd
0003:00002de4+ _AltOptChar
0002:00007660  GetOpt_
0003:00005664+ _OptChar
Module: autoenv.obj(/mnt/sda5/.user/root/src/openwatcom-1.9/bld/watcom/c/autoenv.c)
0002:000080b0  watcom_setup_env_
Module: xmem.obj(/mnt/sda5/.user/root/src/openwatcom-1.9/bld/vi/c/xmem.c)
0002:000082a0  ExtendedMemoryFini_
0002:000082a0  ExtendedMemoryInit_
Module: fcbswap.obj(/mnt/sda5/.user/root/src/openwatcom-1.9/bld/vi/c/fcbswap.c)
0002:000082b0  FetchFcb_
0002:000082f0  SwapFcb_
0002:00008330  RestoreToNormalMemory_
Module: clset.obj(/mnt/sda5/.user/root/src/openwatcom-1.9/bld/vi/c/clset.c)
0002:00008be0+ GetNewValueDialog_
0002:0000a010+ SettingSelected_
0002:0000a280  Set_
0002:0000a580  GetASetVal_
Module: hist.obj(/mnt/sda5/.user/root/src/openwatcom-1.9/bld/vi/c/hist.c)
0002:0000a650  LoadHistory_
0002:0000a880  SaveHistory_
0002:0000a8f0  FilterHistInit_
0002:0000a920  CLHistInit_
0002:0000a950  FindHistInit_
0002:0000a980  LastFilesHistInit_
0002:0000a9b0  HistFini_
Module: samefile.obj(/mnt/sda5/.user/root/src/openwatcom-1.9/bld/vi/c/samefile.c)
0002:0000a9f0  SameFile_
Module: dirdisp.obj(/mnt/sda5/.user/root/src/openwatcom-1.9/bld/vi/c/dirdisp.c)
0002:0000aa90+ FileCompleteMouseHandler_
0002:0000b150  StartFileComplete_
0002:0000b230  ContinueFileComplete_
0002:0000b270  FinishFileComplete_
0002:0000b2a0  PauseFileComplete_
Module: expandfn.obj(/mnt/sda5/.user/root/src/openwatcom-1.9/bld/vi/c/expandfn.c)
0002:0000b2d0  ExpandFileNames_
Module: getdir.obj(/mnt/sda5/.user/root/src/openwatcom-1.9/bld/vi/c/getdir.c)
0002:0000b720  GetSortDir_
0002:0000b760  DirFini_
Module: mapkey.obj(/mnt/sda5/.user/root/src/openwatcom-1.9/bld/vi/c/mapkey.c)
0003:0000578c+ _currUndoStack
0002:0000b840  MapKey_
0002:0000ba40  DoKeyMap_
0002:0000bc50  RunKeyMap_
0002:0000bca0  StartInputKeyMap_
0002:0000bd10  DoneInputKeyMap_
0002:0000bd30+ extractViKeyToken_
0002:0000bdb0  AddKeyMap_
0002:0000be90  InitKeyMaps_
0002:0000beb0  FiniKeyMaps_
0002:0000bf20  ExecuteBuffer_
0002:0000bf70  LookUpCharToken_
Module: editmv.obj(/mnt/sda5/.user/root/src/openwatcom-1.9/bld/vi/c/editmv.c)
0002:0000c030+ MoveScreenML_
0002:0000c080  MoveScreenDown_
0002:0000c0e0  MoveScreenUp_
0002:0000c150* MoveScreenDownPageML_
0002:0000c170* MoveScreenUpPageML_
0002:0000c1a0* MoveScreenLeftPageML_
0002:0000c1d0* MoveScreenRightPageML_
0002:0000c1f0  MovePage_
0002:0000c2e0  MovePageDown_
0002:0000c300  MovePageUp_
0002:0000c320  MovePosition_
0002:0000c430  MoveHalfPageDown_
0002:0000c440  MoveHalfPageUp_
0002:0000c490+ MoveScreenLeftRightML_
Module: linenum.obj(/mnt/sda5/.user/root/src/openwatcom-1.9/bld/vi/c/linenum.c)
0002:0000c4c0  LineNumbersSetup_
Module: linework.obj(/mnt/sda5/.user/root/src/openwatcom-1.9/bld/vi/c/linework.c)
0002:0000c670  GetCurrentLine_
0002:0000c6c0  ReplaceCurrentLine_
0002:0000c760  DisplayWorkLine_
Module: undoclne.obj(/mnt/sda5/.user/root/src/openwatcom-1.9/bld/vi/c/undoclne.c)
0002:0000c780  CurrentLineReplaceUndoStart_
0002:0000c820  CurrentLineReplaceUndoCancel_
0002:0000c840  CurrentLineReplaceUndoEnd_
0002:0000c9e0  ConditionalCurrentLineReplaceUndoEnd_
Module: fcbdmp.obj(/mnt/sda5/.user/root/src/openwatcom-1.9/bld/vi/c/fcbdmp.c)
0002:0000caa0  WalkUndo_
0002:0000caa0  LineInfo_
0002:0000caa0  SanityCheck_
0002:0000caa0  FcbThreadDump_
0002:0000caa0  FcbDump_
0002:0000caa0  HeapCheck_
0002:0000cab0  DumpMemory_
Module: file.obj(/mnt/sda5/.user/root/src/openwatcom-1.9/bld/vi/c/file.c)
0002:0000cd00  SaveInfo_
0002:0000cde0  SaveCurrentInfo_
0002:0000ce50  RestoreInfo_
0002:0000d520  DisplayFileStatus_
0002:0000d710  CTurnOffFileDisplayBits_
0002:0000d750  CFileReadOnly_
0002:0000d810  FileIOMessage_
0002:0000d830  IsTextFile_
0002:0000d890  GimmeFileCount_
Module: filemove.obj(/mnt/sda5/.user/root/src/openwatcom-1.9/bld/vi/c/filemove.c)
0002:0000d8b0  NextFileDammit_
0002:0000da90  NextFile_
0002:0000dac0  RotateFileForward_
0002:0000dae0  RotateFileBackwards_
0002:0000db20* GotoFile_
0002:0000db50  BringUpFile_
Module: filelast.obj(/mnt/sda5/.user/root/src/openwatcom-1.9/bld/vi/c/filelast.c)
0002:0000dc60  UpdateLastFileList_
Module: fini.obj(/mnt/sda5/.user/root/src/openwatcom-1.9/bld/vi/c/fini.c)
0002:0000e0e0  Quit_
0002:0000e210  ExitEditor_
0002:0000e2e0  QuitEditor_
0003:00002e34+ _UsageMsg
0003:00002e78  _OptEnvVar
Module: autosave.obj(/mnt/sda5/.user/root/src/openwatcom-1.9/bld/vi/c/autosave.c)
0002:0000e3e0+ GetCurrentFilePath_
0002:0000e590  DoAutoSave_
0002:0000e780  LostFileCheck_
0002:0000e8b0  AutoSaveInit_
0002:0000ec00  AutoSaveFini_
0002:0000ec90  SetNextAutoSaveTime_
0002:0000ecb0  RemoveFromAutoSaveList_
Module: srchook.obj(/mnt/sda5/.user/root/src/openwatcom-1.9/bld/vi/c/srchook.c)
0002:0000ef60  GetHookVar_
0002:0000f090  SourceHook_
0002:0000f0b0* SourceHookData_
0002:0000f0f0  HookScriptCheck_
0002:0000f110  InvokeColSelHook_
0002:0000f240  InvokeLineSelHook_
0002:0000f2f0  InvokeMenuHook_
Module: srcgoto.obj(/mnt/sda5/.user/root/src/openwatcom-1.9/bld/vi/c/srcgoto.c)
0002:0000f320  SrcGoTo_
0002:0000f390  AddLabel_
Module: srcif.obj(/mnt/sda5/.user/root/src/openwatcom-1.9/bld/vi/c/srcif.c)
0002:0000f480  SrcIf_
0002:0000f500  GetErrorTokenValue_
0002:0000f580  ReadErrorTokens_
Module: srcfile.obj(/mnt/sda5/.user/root/src/openwatcom-1.9/bld/vi/c/srcfile.c)
0002:0000f5e0  SrcOpen_
0002:0000f7b0  SrcRead_
0002:0000f930  SrcWrite_
0002:0000f9f0  SrcClose_
Module: srccs.obj(/mnt/sda5/.user/root/src/openwatcom-1.9/bld/vi/c/srccs.c)
0002:0000fb80  CSInit_
0002:0000fba0  CSFini_
0002:0000fc20  CSIf_
0002:0000fc40  CSElseIf_
0002:0000fcb0  CSElse_
0002:0000fd00  CSEndif_
0002:0000fd50  CSWhile_
0002:0000fd80  CSLoop_
0002:0000fda0  CSEndLoop_
0002:0000fde0  CSUntil_
0002:0000fe60  CSContinue_
0002:0000fe70  CSBreak_
0002:0000fe80  CSQuif_
Module: srcexpr.obj(/mnt/sda5/.user/root/src/openwatcom-1.9/bld/vi/c/srcexpr.c)
0002:0000feb0  SrcExpr_
Module: srcvar.obj(/mnt/sda5/.user/root/src/openwatcom-1.9/bld/vi/c/srcvar.c)
0002:00010010  VarAddGlobalStr_
0002:00010020  VarAddRandC_
0002:00010070  SetModifiedVar_
0002:00010080  VarAddGlobalLong_
0002:000100b0  VarAddStr_
0002:000101c0  VarListDelete_
0002:000101f0  VarName_
0002:00010270  VarFind_
0002:000102d0  VarFini_
0002:00010300* VarDump_
0002:00010350* VarSC_
Module: srcinp.obj(/mnt/sda5/.user/root/src/openwatcom-1.9/bld/vi/c/srcinp.c)
0002:00010490  SrcInput_
0002:000104a0  SrcGet_
Module: srcassgn.obj(/mnt/sda5/.user/root/src/openwatcom-1.9/bld/vi/c/srcassgn.c)
0002:000104c0  SrcAssign_
Module: srcexpnd.obj(/mnt/sda5/.user/root/src/openwatcom-1.9/bld/vi/c/srcexpnd.c)
0002:00010ad0  Expand_
Module: srcnextw.obj(/mnt/sda5/.user/root/src/openwatcom-1.9/bld/vi/c/srcnextw.c)
0002:00010d00  SrcNextWord_
Module: filestk.obj(/mnt/sda5/.user/root/src/openwatcom-1.9/bld/vi/c/filestk.c)
0002:00010e10  InitFileStack_
0002:00010e40  FiniFileStack_
0002:00010e50  PushFileStack_
0002:00010f20  PushFileStackAndMsg_
0002:00010f50  PopFileStack_
Module: dotmode.obj(/mnt/sda5/.user/root/src/openwatcom-1.9/bld/vi/c/dotmode.c)
0002:00010ff0  SaveDotCmd_
0002:00011030  DoDotMode_
0002:00011130  DoAltDotMode_
Module: source.obj(/mnt/sda5/.user/root/src/openwatcom-1.9/bld/vi/c/source.c)
0002:000112c0  Source_
0002:00011b70  FileSPVAR_
0002:00011dc0  SourceError_
0002:00012250  DeleteResidentScripts_
Module: mark.obj(/mnt/sda5/.user/root/src/openwatcom-1.9/bld/vi/c/mark.c)
0002:00012370  SetMark_
0002:00012420+ MarkOnLine_
0002:00012480+ RemoveMarkFromLine_
0002:00012570  SetGenericMark_
0002:00012690  GoMark_
0002:000126c0  GoMarkLine_
0002:000126d0* GetMarkLine_
0002:000126f0* GetMark_
0002:000127c0  VerifyMark_
0002:00012930  AllocateMarkList_
0002:00012960  SetMarkContext_
0002:00012980  FreeMarkList_
0002:00012a00  MemorizeCurrentContext_
Module: move.obj(/mnt/sda5/.user/root/src/openwatcom-1.9/bld/vi/c/move.c)
0002:00012c10  GoToLineRelCurs_
0002:00012c20  GoToLineNoRelCurs_
0002:00012c30  SetCurrentLineNumber_
0002:00012ca0  GoToColumnOK_
0002:00012cb0  GoToColumnOnCurrentLine_
0002:00012d00  GoToColumn_
0002:00012da0  SetCurrentLine_
0002:00012e40  CheckLeftColumn_
0002:00012eb0  ValidateCurrentColumn_
0002:00012f30  CheckCurrentColumn_
0002:00012fe0  ShiftTab_
0002:00013010  SetCurrentColumn_
0002:000130a0  LocateCmd_
Module: change.obj(/mnt/sda5/.user/root/src/openwatcom-1.9/bld/vi/c/change.c)
0002:00013160  DoLineSubstitute_
0002:00013170  DoSubstitute_
0002:00013180  DoChangeLineEnd_
Module: delete.obj(/mnt/sda5/.user/root/src/openwatcom-1.9/bld/vi/c/delete.c)
0002:00013190  DoDeleteRegion_
0002:000131b0  DoDeleteLineEnd_
0002:000131d0  DoDeleteCharAtCursor_
0002:00013220  DoDeleteCharBeforeCursor_
0002:00013260  DeleteSelectedRegion_
0002:00013290  YankSelectedRegion_
Module: linefind.obj(/mnt/sda5/.user/root/src/openwatcom-1.9/bld/vi/c/linefind.c)
0002:00013340* FindFirstCharNotInListForward_
0002:00013390* FindFirstCharNotInListBackwards_
0002:000133e0* FindFirstCharInRangeForward_
0002:00013420* FindFirstCharNotInRangeForward_
0002:00013460* FindFirstCharInRangeBackwards_
0002:000134a0* FindFirstCharNotInRangeBackward_
0002:000134e0  TestIfCharInRange_
0002:00013540  FindCharOnCurrentLine_
0002:00013610  FancyGotoLine_
Module: dat.obj(/mnt/sda5/.user/root/src/openwatcom-1.9/bld/vi/c/dat.c)
0002:00013620  ReadDataFile_
Module: parsecl.obj(/mnt/sda5/.user/root/src/openwatcom-1.9/bld/vi/c/parsecl.c)
0002:00013800  ParseCommandLine_
0002:00013b80  GetAddress_
Module: findcmd.obj(/mnt/sda5/.user/root/src/openwatcom-1.9/bld/vi/c/findcmd.c)
0002:00013f90  FindCmdFini_
0002:00013fb0  HilightSearchString_
0002:00014000  ResetLastFind_
0002:00014030+ GetFindForward_
0002:00014060+ GetFindBackwards_
0002:00014120  DoFindForward_
0002:00014140  DoFindBackwards_
0002:00014170+ JumpTo_
0002:000141c0  FancyDoFindMisc_
0002:00014200+ FancyDoFind_
0002:00014230  DoNextFindForward_
0002:00014270  DoNextFindBackwards_
0002:000142b0  DoNextFindForwardMisc_
0002:00014300  DoNextFindBackwardsMisc_
0002:000143f0  GetFind_
0002:000146e0* SaveFindRowColumn_
0002:00014700  ColorFind_
0002:000147a0  SetLastFind_
0002:000147b0  FancyDoReplace_
Module: savebuf.obj(/mnt/sda5/.user/root/src/openwatcom-1.9/bld/vi/c/savebuf.c)
0002:00014b00  InsertSavebufBefore_
0002:00014b20  InsertSavebufBefore2_
0002:00014b40  InsertSavebufAfter_
0002:00014b70* InsertSavebufAfter2_
0002:00014ba0  GetSavebufString_
0002:00014d40  InitSavebufs_
0002:00014d70  FiniSavebufs_
0002:00014da0  AddLineToSavebuf_
0002:00014e50  AddSelRgnToSavebuf_
0002:00014e90  AddSelRgnToSavebufAndDelete_
0002:00014ea0  AddFcbsToSavebuf_
0002:00014f40  SwitchSavebuf_
0002:00015030  DoSavebufNumber_
0002:00015070  SetSavebufNumber_
0002:00015100  IsEmptySavebuf_
Module: error.obj(/mnt/sda5/.user/root/src/openwatcom-1.9/bld/vi/c/error.c)
0002:00015190  FatalError_
0002:000151d0* Die_
0002:00015220  GetErrorMsg_
0002:000152c0  Error_
0002:000153d0  ErrorBox_
0002:00015530  ErrorFini_
Module: cmdline.obj(/mnt/sda5/.user/root/src/openwatcom-1.9/bld/vi/c/cmdline.c)
0002:000155f0  InitCommandLine_
0002:00015600  FiniCommandLine_
0002:00015680  ProcessCommandLine_
0002:00015690  FancyProcessCommandLine_
0002:000156d0  TryCompileableToken_
0002:00015a90  RunCommandLine_
0002:00016d00  ProcessWindow_
0002:00017660+ Batcher
Module: editdc.obj(/mnt/sda5/.user/root/src/openwatcom-1.9/bld/vi/c/editdc.c)
0002:00017690  DeleteRangeOnCurrentLine_
0002:00017710  DeleteBlockFromCurrentLine_
Module: word.obj(/mnt/sda5/.user/root/src/openwatcom-1.9/bld/vi/c/word.c)
0002:000177b0  InitWordSearch_
0002:000179a0  MarkStartOfNextWordForward_
0002:00017a50  MarkEndOfNextWordForward_
0002:00017b30  MarkStartOfNextWordBackward_
0002:00017be0  GimmeCurrentWord_
0002:00017c80  GimmeCurrentEntireWordDim_
Module: hide.obj(/mnt/sda5/.user/root/src/openwatcom-1.9/bld/vi/c/hide.c)
0002:00017db0  HideLineRange_
Module: editins.obj(/mnt/sda5/.user/root/src/openwatcom-1.9/bld/vi/c/editins.c)
0002:00017f20  DoneCurrentInsert_
0002:00017fa0  UpdateEditStatus_
0002:00018210  IMChar_
0002:000182b0  IMEsc_
0002:000182c0  IMEnter_
0002:00018470  IMBackSpace_
0002:000185f0  IMDelete_
0002:000186a0  IMDeleteML_
0002:000186b0  IMBackSpaceML_
0002:000186c0  IMMouseEvent_
0002:000186f0  IMCursorKey_
0002:00018870  IMMenuKey_
0002:000188b0  IMSpace_
0002:000188e0  IMTabs_
0002:00018c40  IMEscapeNextChar_
0002:00018c70  IMInsert_
0002:00018cc0  IMCloseBracket_
0002:00018e20  IMCloseBrace_
0002:00019020  DeleteAndInsertText_
0002:00019100  InsertTextOnNextLine_
0002:00019110  InsertTextOnPreviousLine_
0002:00019210  InsertTextAtCursor_
0002:00019220  InsertTextAfterCursor_
0002:00019230  InsertTextAtLineStart_
0002:00019250  InsertTextAtLineEnd_
0002:00019280  DoReplaceText_
0002:000192a0  InsertLikeLast_
0002:000192c0* PushMode_
0002:00019320* PopMode_
Module: getautoi.obj(/mnt/sda5/.user/root/src/openwatcom-1.9/bld/vi/c/getautoi.c)
0002:00019400  GetAutoIndentAmount_
Module: replace.obj(/mnt/sda5/.user/root/src/openwatcom-1.9/bld/vi/c/replace.c)
0002:00019590  ReplaceChar_
Module: dir.obj(/mnt/sda5/.user/root/src/openwatcom-1.9/bld/vi/c/dir.c)
0002:00019810  GetCWD1_
0002:00019840  GetCWD2_
0002:00019860  ChangeDirectory_
0002:000198b0  ConditionalChangeDirectory_
0002:000198e0  SetCWD_
0002:000199c0  FormatDirToFile_
Module: select.obj(/mnt/sda5/.user/root/src/openwatcom-1.9/bld/vi/c/select.c)
0002:00019df0  SelectItem_
0002:00019f20  SelectItemAndValue_
Module: io.obj(/mnt/sda5/.user/root/src/openwatcom-1.9/bld/vi/c/io.c)
0002:00019ff0  FileExists_
0002:0001a0c0  FileOpen_
0002:0001a150  FileSeek_
0002:0001a1f0  GetFromEnvAndOpen_
0002:0001a230  GetFromEnv_
0002:0001a260  VerifyTmpDir_
0002:0001a360  MakeTmpPath_
0002:0001a3b0  TmpFileOpen_
0002:0001a3f0  TmpFileClose_
0002:0001a420  FileLower_
0002:0001a430  FileTemplateMatch_
0002:0001a4b0  StripPath_
Module: clread.obj(/mnt/sda5/.user/root/src/openwatcom-1.9/bld/vi/c/clread.c)
0002:0001a510  ReadAFile_
Module: cledit.obj(/mnt/sda5/.user/root/src/openwatcom-1.9/bld/vi/c/cledit.c)
0002:0001a750  EditFile_
0002:0001ae20  EditFileFromList_
0002:0001b070  OpenWindowOnFile_
Module: misc.obj(/mnt/sda5/.user/root/src/openwatcom-1.9/bld/vi/c/misc.c)
0002:0001b350* doExec_
0002:0001b350  ExecCmd_
0002:0001b470  GetResponse_
0002:0001b490* PromptThisFileForSave_
0002:0001b490* PromptFilesForSave_
0002:0001b4a0* QueryFile_
0002:0001b4e0  ExitWithPrompt_
0002:0001b540  ExitWithVerify_
0002:0001b5f0  PrintHexValue_
0002:0001b630  EnterHexKey_
0002:0001b790  DoVersion_
0002:0001b7d0  StrMerge_
0002:0001b830  ModificationTest_
0002:0001b8a0  CurFileExitOptionSaveChanges_
0002:0001b8b0  FancySetGen_
0002:0001b8b0  FancySetScr_
0002:0001b8b0  FancySetFS_
0002:0001b8b0  DoAboutBox_
0002:0001b8c0* UpdateCurrentDirectory_
0002:0001b8e0  NextBiggestPrime_
0002:0001b930* ToggleToolbar_
0002:0001b970* ToggleStatusbar_
0002:0001b9b0* ToggleColorbar_
0002:0001b9f0* ToggleSSbar_
0002:0001ba30* ToggleFontbar_
0002:0001ba70  GenericQueryBool_
Module: tags.obj(/mnt/sda5/.user/root/src/openwatcom-1.9/bld/vi/c/tags.c)
0002:0001bad0  GetCurrentTag_
0002:0001bb10  TagHunt_
0002:0001bc00  FindTag_
0002:0001bc30+ PickATag_
0002:0001bfb0+ SearchForTags_
0002:0001c090  LocateTag_
Module: alias.obj(/mnt/sda5/.user/root/src/openwatcom-1.9/bld/vi/c/alias.c)
0002:0001c2c0  SetAlias_
0002:0001c2e0  UnAlias_
0002:0001c300  CheckAlias_
0002:0001c340  Abbrev_
0002:0001c360  UnAbbrev_
0002:0001c380  CheckAbbrev_
Module: bnddata.obj(/mnt/sda5/.user/root/src/openwatcom-1.9/bld/vi/c/bnddata.c)
0002:0001c430  CheckForBoundData_
0002:0001c5a0  SpecialOpen_
0002:0001c700  SpecialFclose_
0002:0001c730  SpecialFgets_
Module: abandon.obj(/mnt/sda5/.user/root/src/openwatcom-1.9/bld/vi/c/abandon.c)
0002:0001c8a0  AbandonHopeAllYeWhoEnterHere_
Module: filter.obj(/mnt/sda5/.user/root/src/openwatcom-1.9/bld/vi/c/filter.c)
0002:0001c920  DoGenericFilter_
Module: ex.obj(/mnt/sda5/.user/root/src/openwatcom-1.9/bld/vi/c/ex.c)
0002:0001cb20  EnterExMode_
0002:0001cc90  ProcessEx_
Module: exappend.obj(/mnt/sda5/.user/root/src/openwatcom-1.9/bld/vi/c/exappend.c)
0002:0001d1e0  Append_
0002:0001d240  AppendAnother_
Module: wingen.obj(/mnt/sda5/.user/root/src/openwatcom-1.9/bld/vi/c/wingen.c)
0002:0001d320  NewMessageWindow_
0002:0001d360  NewWindow2_
0002:0001d3a0  Message1_
0002:0001d440  Message1Box_
0002:0001d4e0  Message2_
0002:0001d580  WPrintfLine_
0002:0001d5e0  SetWindowCursor_
0002:0001d5f0+ SetWindowCursorForReal_
0002:0001d650  DisplayExtraInfo_
0002:0001d6b0  ColumnInWindow_
0002:0001d6f0  SetWindowSizes_
0002:0001d840  CurrentWindowResize_
0002:0001d920  SetFileWindowTitle_
0002:0001d990  ResetAllWindows_
Module: printf.obj(/mnt/sda5/.user/root/src/openwatcom-1.9/bld/vi/c/printf.c)
0002:0001d9e0  Lead_
0002:0001dce0  MyPrintf_
0002:0001dd20  MySprintf_
0002:0001dd60  MyVSprintf_
0002:0001dd80  MyVPrintf_
0002:0001de30  MyFprintf_
Module: getspcmd.obj(/mnt/sda5/.user/root/src/openwatcom-1.9/bld/vi/c/getspcmd.c)
0002:0001de70  GetSpawnCommandLine_
Module: selrgn.obj(/mnt/sda5/.user/root/src/openwatcom-1.9/bld/vi/c/selrgn.c)
0002:0001e1c0* GetFixedSelectedRegion_
0002:0001e270  InitSelectedRegion_
0002:0001e2b0  SelRgnFini_
0002:0001e2b0  SelRgnInit_
0002:0001e2c0  UnselectRegion_
0002:0001e2f0  UpdateDrag_
0002:0001e470  UpdateCursorDrag_
0002:0001e540  SetSelRegionCols_
0002:0001e5d0  ReselectRegion_
0002:0001e610+ startSelectedRegion_
0002:0001e690  SelectLeft_
0002:0001e6c0  SelectRight_
0002:0001e6f0  SelectUp_
0002:0001e720  SelectDown_
0002:0001e750  SelectHome_
0002:0001e780  SelectEnd_
0002:0001e7b0  SelectPageUp_
0002:0001e7f0  SelectPageDown_
0002:0001e830* SelectBackwardsWord_
0002:0001e860* SelectForwardWord_
0002:0001e890* SelectStartOfFile_
0002:0001e8c0* SelectEndOfFile_
0002:0001e8f0* SelectTopOfPage_
0002:0001e920* SelectBottomOfPage_
0002:0001ea40  DoSelectSelectionPopMenu_
0002:0001ea50  DoSelectSelection_
0002:0001eb20  GetSelectedRegion_
0002:0001ebd0  SetSelectedRegion_
0002:0001eca0  SetSelectedRegionFromLine_
0002:0001ecf0  NormalizeRange_
0002:0001ed70  SelectAll_
Module: cstatus.obj(/mnt/sda5/.user/root/src/openwatcom-1.9/bld/vi/c/cstatus.c)
0002:0001ee30  GetModeString_
0002:0001ee60  UpdateCurrentStatus_
Module: help.obj(/mnt/sda5/.user/root/src/openwatcom-1.9/bld/vi/c/help.c)
0002:0001f000  DoHelpOnContext_
0002:0001f010  DoHelp_
0003:00002f88  _helpFiles
0003:00002fa0  _nHelpFiles
Module: readstr.obj(/mnt/sda5/.user/root/src/openwatcom-1.9/bld/vi/c/readstr.c)
0003:00002fa4+ _ReadingAString
0002:0001f9b0+ GetTextForSpecialKey_
0002:0001fac0+ InsertTextForSpecialKey_
0002:000201d0  ReadStringInWindow_
0002:00020200  PromptForString_
Module: tab_e_c.obj(/mnt/sda5/.user/root/src/openwatcom-1.9/bld/vi/c/tab_e_c.c)
0002:00020510  ExpandWhiteSpace_
0002:00020520  CompressWhiteSpace_
Module: gencfg.obj(/mnt/sda5/.user/root/src/openwatcom-1.9/bld/vi/c/gencfg.c)
0002:00020ea0  GenerateConfiguration_
Module: fts.obj(/mnt/sda5/.user/root/src/openwatcom-1.9/bld/vi/c/fts.c)
0002:00021650  FTSStart_
0002:00021740  FTSAddCmd_
0002:00021810* FTSAddBoolean_
0002:00021890* FTSAddInt_
0002:000218c0* FTSAddChar_
0002:000218f0* FTSAddStr_
0002:00021920  FTSEnd_
0002:00021980* FTSSearchFTIndex_
0002:00021a70  FTSRunCmds_
0002:00021a90* FTSGetFirst_
0002:00021aa0* FTSGetNext_
0002:00021ab0* FTSGetFirstTemplate_
0002:00021ac0* FTSGetNextTemplate_
0002:00021ad0  FTSBarfData_
0002:00021b60+ FTSMatchTemplate_
0002:00021bc0+ deleteTemplateList_
0002:00021be0* FTSMatchTemplateData_
0002:00021c80+ FTSKill_
0002:00021cc0  FTSInit_
0002:00021cd0  FTSFini_
Module: fcbdisk.obj(/mnt/sda5/.user/root/src/openwatcom-1.9/bld/vi/c/fcbdisk.c)
0002:00021cf0  SwapToDisk_
0002:00021d30  SwapToMemoryFromDisk_
0002:00021dc0  SwapFileClose_
0002:00021de0  GiveBackSwapBlock_
0002:00021e90  SwapBlockInit_
0002:00021f00  SwapBlockFini_
Module: fcbblock.obj(/mnt/sda5/.user/root/src/openwatcom-1.9/bld/vi/c/fcbblock.c)
0002:00021f10  GiveBackBlock_
0002:00021f60  GetNewBlock_
0002:00021fb0  MakeWriteBlock_
Module: fcb.obj(/mnt/sda5/.user/root/src/openwatcom-1.9/bld/vi/c/fcb.c)
0002:00022070  ReadFcbData_
0002:00022340  FindFcbWithLine_
0002:000223e0  CreateFcbData_
0002:00022450  FcbSize_
Module: fcbmem.obj(/mnt/sda5/.user/root/src/openwatcom-1.9/bld/vi/c/fcbmem.c)
0002:00022470  FcbAlloc_
0002:000224d0  FcbFree_
0002:00022540  FreeEntireFcb_
0002:00022570  FreeFcbList_
Module: fcbsplit.obj(/mnt/sda5/.user/root/src/openwatcom-1.9/bld/vi/c/fcbsplit.c)
0002:00022590  SplitFcbAtLine_
0002:000226c0  CheckCurrentFcbCapacity_
Module: fcbdup.obj(/mnt/sda5/.user/root/src/openwatcom-1.9/bld/vi/c/fcbdup.c)
0002:000227f0  CreateDuplicateFcbList_
Module: fcbmerge.obj(/mnt/sda5/.user/root/src/openwatcom-1.9/bld/vi/c/fcbmerge.c)
0002:000228a0  MergeFcbs_
0002:000228e0  MergeAllFcbs_
Module: linenew.obj(/mnt/sda5/.user/root/src/openwatcom-1.9/bld/vi/c/linenew.c)
0002:00022930  AddNewLineAroundCurrent_
0002:00022a10  InsertNewLine_
0002:00022a70  LineAlloc_
0002:00022ac0  CreateNullLine_
Module: dc.obj(/mnt/sda5/.user/root/src/openwatcom-1.9/bld/vi/c/dc.c)
0002:00022b80  DCCreate_
0002:00022be0  DCResize_
0002:00022c80* DCScroll_
0002:00022d90  DCDestroy_
0002:00022de0  DCUpdate_
0002:00022fb0  DCUpdateAll_
0002:00023010+ shaveRange_
0002:00023070  DCDisplaySomeLines_
0002:00023120  DCDisplayAllLines_
0002:00023140+ DCInvalidateSomeLines_
0002:000231b0  DCInvalidateAllLines_
0002:000231e0* DCFindLine_
0002:00023200* DCValidateLine_
Module: lineptr.obj(/mnt/sda5/.user/root/src/openwatcom-1.9/bld/vi/c/lineptr.c)
0002:00023280  CGimmeLinePtr_
0002:000232a0  GimmeLinePtr_
0002:000232e0  CGimmeNextLinePtr_
0002:00023300  CAdvanceToLine_
0002:00023320  GimmeNextLinePtr_
0002:000233a0  GimmePrevLinePtr_
0002:000233e0  GimmeLinePtrFromFcb_
0002:00023410  CFindLastLine_
0002:00023470  IsPastLastLine_
0002:000234b0  ValidateCurrentLine_
Module: linecfb.obj(/mnt/sda5/.user/root/src/openwatcom-1.9/bld/vi/c/linecfb.c)
0002:00023610  CreateLinesFromBuffer_
Module: linedisp.obj(/mnt/sda5/.user/root/src/openwatcom-1.9/bld/vi/c/linedisp.c)
0002:00023740  ReDisplayScreen_
0002:000237b0+ ReDisplayBuffers_
Module: linemisc.obj(/mnt/sda5/.user/root/src/openwatcom-1.9/bld/vi/c/linemisc.c)
0002:00023810  FindStartOfALine_
0002:00023840  FindStartOfCurrentLine_
0002:00023850  GenericJoinCurrentLineToNext_
0002:00023a20  JoinCurrentLineToNext_
0002:00023a80  SaveCurrentFilePos_
0002:00023ad0  RestoreCurrentFilePos_
0002:00023b70  SaveAndResetFilePos_
Module: linedel.obj(/mnt/sda5/.user/root/src/openwatcom-1.9/bld/vi/c/linedel.c)
0002:00023bc0  UpdateLineNumbers_
0002:00023be0  DeleteLineRange_
0002:00023ee0  LineDeleteMessage_
Module: lineins.obj(/mnt/sda5/.user/root/src/openwatcom-1.9/bld/vi/c/lineins.c)
0002:00023f10  InsertLinesAtCursor_
0002:000240e0  InsertLines_
Module: lineyank.obj(/mnt/sda5/.user/root/src/openwatcom-1.9/bld/vi/c/lineyank.c)
0002:000242f0  YankLineRange_
0002:00024330  GetCopyOfLineRange_
0002:00024520  LineYankMessage_
Module: grep.obj(/mnt/sda5/.user/root/src/openwatcom-1.9/bld/vi/c/grep.c)
0002:000245a0  DoFGREP_
0002:00024630  DoEGREP_
Module: editmain.obj(/mnt/sda5/.user/root/src/openwatcom-1.9/bld/vi/c/editmain.c)
0002:00025420  DoMove_
0002:00025570  DoLastEvent_
0002:00025780  DoneLastEvent_
0002:000257e0  EditMain_
0002:00025960  AbsoluteNullResponse_
0002:00025970  NullResponse_
0002:000259b0* DoneRepeat_
0002:000259d0* KillRepeatWindow_
0002:000259e0  SetRepeatCount_
0002:00025a30  GetRepeatCount_
0002:00025a70  DoDigit_
0002:00025b50  InvalidKey_
0002:00025b80  Modified_
0002:00025bf0  ResetDisplayLine_
Module: filesave.obj(/mnt/sda5/.user/root/src/openwatcom-1.9/bld/vi/c/filesave.c)
0002:00025e40  SaveFile_
0002:00026130  StartSaveExit_
0002:00026160  SaveAndExit_
0002:000261b0  FilePromptForSaveChanges_
0002:00026260  FileExitOptionSaveChanges_
0002:000262e0* FancyFileSave_
0002:000262e0  DoKeyboardSave_
Module: filenew.obj(/mnt/sda5/.user/root/src/openwatcom-1.9/bld/vi/c/filenew.c)
0002:00026680  NewFile_
0002:000267d0  FileAlloc_
0002:00026840  FileFree_
0002:00026860  FreeEntireFile_
Module: undo.obj(/mnt/sda5/.user/root/src/openwatcom-1.9/bld/vi/c/undo.c)
0002:00026880  StartUndoGroupWithPosition_
0002:00026930  UndoReplaceLines_
0002:000269d0  UndoDeleteFcbs_
0002:00026a20  UndoInsert_
0002:00026a80  PatchDeleteUndo_
0002:00026b40  StartUndoGroup_
0002:00026b60  EndUndoGroup_
0002:00026c10  TryEndUndoGroup_
Module: undostks.obj(/mnt/sda5/.user/root/src/openwatcom-1.9/bld/vi/c/undostks.c)
0002:00026ce0  UndoAlloc_
0002:00026d80  UndoFree_
0002:00026db0  PushUndoStack_
0002:00026df0  PopUndoStack_
0002:00026e10  AddUndoToCurrent_
0002:00026e30  AllocateUndoStacks_
0002:00026e80  FreeUndoStacks_
0002:00026f10  TossUndos_
0002:00026fa0  FreeAllUndos_
0002:00026fb0  PurgeUndoStack_
Module: undo_do.obj(/mnt/sda5/.user/root/src/openwatcom-1.9/bld/vi/c/undo_do.c)
0002:000272d0  DoUndo_
0002:000272f0  DoUndoUndo_
Module: clglob.obj(/mnt/sda5/.user/root/src/openwatcom-1.9/bld/vi/c/clglob.c)
0002:00027360  Global_
0002:000277e0  ProcessingMessage_
Module: clsubs.obj(/mnt/sda5/.user/root/src/openwatcom-1.9/bld/vi/c/clsubs.c)
0002:000278c0* TwoPartSubstitute_
0002:00027a00  Substitute_
0002:00027f10  SplitUpLine_
0003:00005a0c+ _LastSubstituteCancelled
0003:00005a10+ _LastLineCount
0003:00005a14+ _LastChangeCount
Module: shove.obj(/mnt/sda5/.user/root/src/openwatcom-1.9/bld/vi/c/shove.c)
0002:00028020  Shift_
Module: match.obj(/mnt/sda5/.user/root/src/openwatcom-1.9/bld/vi/c/match.c)
0002:00028180  DoMatching_
0002:000281a0  FindMatch_
0002:00028420  AddMatchString_
0002:000284e0  MatchInit_
0002:00028520  MatchFini_
Module: cut.obj(/mnt/sda5/.user/root/src/openwatcom-1.9/bld/vi/c/cut.c)
0002:00028550  Cut_
Module: opmove.obj(/mnt/sda5/.user/root/src/openwatcom-1.9/bld/vi/c/opmove.c)
0002:000288a0  MovePageMiddle_
0002:00028900  MovePageTop_
0002:00028930  MovePageBottom_
0002:000289c0  MoveUp_
0002:000289e0  MoveDown_
0002:00028a40  MoveLineEnd_
0002:00028a80* LineEndRange_
0002:00028ac0  MoveStartOfLine_
0002:00028af0  MoveLineBegin_
0002:00028b10  MoveLeft_
0002:00028b30  MoveRight_
0002:00028b90  MoveToColumn_
0002:00028bb0  MoveTab_
0002:00028c80  MoveShiftTab_
0002:00028d80  MoveStartNextLine_
0002:00028d90  MoveStartPrevLine_
0002:00028e30  MoveForwardWord_
0002:00028e40  MoveForwardBigWord_
0002:00028e60  MoveForwardWordEnd_
0002:00028e80  MoveForwardBigWordEnd_
0002:00028f10  MoveBackwardsWord_
0002:00028f20  MoveBackwardsBigWord_
0002:00028fa0  MoveUpToChar_
0002:00028fc0  MoveUpToBeforeChar_
0002:00028fe0  MoveBackToChar_
0002:00028ff0  MoveBackToAfterChar_
0002:00029010  DoGo_
0002:00029130  MoveToLastCharFind_
0002:00029140  MoveToLastCharFindRev_
0002:00029150  MoveStartOfFile_
0002:00029180  MoveEndOfFile_
0002:000291e0  MoveTopOfPage_
0002:00029200  MoveBottomOfPage_
Module: srcgen.obj(/mnt/sda5/.user/root/src/openwatcom-1.9/bld/vi/c/srcgen.c)
0002:00029240  AbortGen_
0002:000292b0  GenJmpIf_
0002:000292e0  GenJmp_
0002:00029300  GenLabel_
0002:00029370  GenTestCond_
0002:00029580  NewLabel_
0002:000295f0  PreProcess_
Module: fmatch.obj(/mnt/sda5/.user/root/src/openwatcom-1.9/bld/vi/c/fmatch.c)
0002:00029bc0  FileMatch_
0002:00029be0  FileMatchInit_
0002:00029d10  FileMatchFini_
Module: status.obj(/mnt/sda5/.user/root/src/openwatcom-1.9/bld/vi/c/status.c)
0002:00029d20  NewStatusWindow_
0002:00029d70+ StatusLine_
0002:00029e80  UpdateStatusWindow_
Module: expr.obj(/mnt/sda5/.user/root/src/openwatcom-1.9/bld/vi/c/expr.c)
0002:0002a1f0  StartExprParse_
0002:0002a930  GetConstExpr_
Module: op.obj(/mnt/sda5/.user/root/src/openwatcom-1.9/bld/vi/c/op.c)
0002:0002aea0  LineLength_
0002:0002aed0  GetLineRange_
0002:0002af00  Delete_
0002:0002afc0  DeleteLines_
0002:0002aff0  Yank_
0002:0002b070  YankLines_
0002:0002b0a0  Change_
0002:0002b2f0  StartShove_
0002:0002b310  StartSuck_
0002:0002b3c0  ChangeCase_
0002:0002b460  Filter_
Module: lang.obj(/mnt/sda5/.user/root/src/openwatcom-1.9/bld/vi/c/lang.c)
0002:0002b5f0  IsKeyword_
0002:0002b680  IsPragma_
0002:0002b6d0  IsDeclspec_
0002:0002b820  LangInit_
0002:0002ba50  LangFini_
0002:0002baf0  LangFiniAll_
Module: sstyle.obj(/mnt/sda5/.user/root/src/openwatcom-1.9/bld/vi/c/sstyle.c)
0002:0002bc60+ addSelection_
0002:0002bf30+ fixSelection_
0002:0002bf70  SSDifBlock_
0002:0002c150  SSNewBlock_
0002:0002c160  SSKillBlock_
0002:0002c170  SSKillsFlags_
0002:0002c1f0  SSInitLanguageFlags_
0002:0002c260  SSInitLanguageFlagsGivenValues_
0002:0002c2d0* SSGetLanguageFlags_
0002:0002c340  SSInitBeforeConfig_
0002:0002c380  SSInitAfterConfig_
0002:0002c3d0  SSFini_
0003:00005ca8  _SEType
Module: sstyle_f.obj(/mnt/sda5/.user/root/src/openwatcom-1.9/bld/vi/c/sstyle_f.c)
0002:0002c600  InitFORTRANLine_
0002:0002ca50  InitFORTRANFlagsGivenValues_
0002:0002ca60  GetFORTRANFlags_
0002:0002ca70  InitFORTRANFlags_
0002:0002cb10  GetFORTRANBlock_
Module: sstyle_c.obj(/mnt/sda5/.user/root/src/openwatcom-1.9/bld/vi/c/sstyle_c.c)
0002:0002cd70  InitCLine_
0002:0002d640  InitCFlagsGivenValues_
0002:0002d660  GetCFlags_
0002:0002d670  InitCFlags_
0002:0002d990  GetCBlock_
Module: sstyle_h.obj(/mnt/sda5/.user/root/src/openwatcom-1.9/bld/vi/c/sstyle_h.c)
0002:0002db90  InitHTMLLine_
0002:0002dc50+ getHTMLComment_
0002:0002dce0  InitHTMLFlagsGivenValues_
0002:0002dcf0  GetHTMLFlags_
0002:0002dd00  InitHTMLFlags_
0002:0002dd10  GetHTMLBlock_
Module: sstyle_g.obj(/mnt/sda5/.user/root/src/openwatcom-1.9/bld/vi/c/sstyle_g.c)
0002:0002de40  InitGMLLine_
0002:0002dfa0  InitGMLFlagsGivenValues_
0002:0002dfb0  GetGMLFlags_
0002:0002dfc0  InitGMLFlags_
0002:0002dfd0  GetGMLBlock_
Module: sstyle_m.obj(/mnt/sda5/.user/root/src/openwatcom-1.9/bld/vi/c/sstyle_m.c)
0002:0002e090  InitMkLine_
0002:0002e380  InitMkFlagsGivenValues_
0002:0002e390  GetMkFlags_
0002:0002e3a0  InitMkFlags_
0002:0002e3b0  GetMkBlock_
Module: sstyle_p.obj(/mnt/sda5/.user/root/src/openwatcom-1.9/bld/vi/c/sstyle_p.c)
0002:0002e5a0  InitPerlLine_
0002:0002ec70  InitPerlFlagsGivenValues_
0002:0002ec80  GetPerlFlags_
0002:0002ec90  InitPerlFlags_
0002:0002edb0  GetPerlBlock_
Module: rcs.obj(/mnt/sda5/.user/root/src/openwatcom-1.9/bld/vi/c/rcs.c)
0003:00003188+ _RCSGetVersion
0003:0000318c  _RCSInit
0003:00003190  _RCSCheckout
0003:00003194  _RCSCheckin
0003:00003198+ _RCSHasShell
0003:0000319c+ _RCSRunShell
0003:000031a0+ _RCSSetSystem
0003:000031a4  _RCSQuerySystem
0003:000031a8  _RCSRegisterBatchCallback
0003:000031ac+ _RCSRegisterMessageBoxCallback
0002:0002f030  ViRCSInit_
0002:0002f080  ViRCSFini_
0003:000031b0  _RCSSetPause
0003:000031b4  _RCSFini
Module: os2sys.obj(/mnt/sda5/.user/root/src/openwatcom-1.9/bld/vi/os2/os2sys.c)
0002:0002f1f0  PushDirectory_
0002:0002f240  PopDirectory_
0002:0002f280  NewCursor_
0002:0002f2f0  MyBeep_
0002:0002f300  ScreenInit_
0002:0002f400  ScreenFini_
0002:0002f430  ChkExtendedKbd_
0002:0002f440  MemSize_
0002:0002f450  ScreenPage_
0002:0002f460  ChangeDrive_
0002:0002f490  ShiftDown_
0002:0002f4e0  TurnOffCapsLock_
0002:0002f580  DoGetDriveType_
0002:0002f5d0  MyDelay_
0002:0002f5e0  SetCursorBlinkRate_
0002:0002f5f0  GetKeyboard_
0002:0002f630  KeyboardHit_
0002:0002f640  MyVioShowBuf_
Module: os2main.obj(/mnt/sda5/.user/root/src/openwatcom-1.9/bld/vi/os2/os2main.c)
0002:0002f710  main_
Module: os2mouse.obj(/mnt/sda5/.user/root/src/openwatcom-1.9/bld/vi/os2/os2mouse.c)
0002:0002f740  SetMouseSpeed_
0002:0002f750* SetMousePosition_
0002:0002f770  PollMouse_
0002:0002f890  InitMouse_
0002:0002f9c0  FiniMouse_
Module: dosdir.obj(/mnt/sda5/.user/root/src/openwatcom-1.9/bld/vi/c/dosdir.c)
0002:0002fa50  MyGetFileSize_
0002:0002fa70  IsDirectory_
0002:0002fae0  GetFileInfo_
0002:0002fb00  FormatFileEntry_
Module: time.obj(/mnt/sda5/.user/root/src/openwatcom-1.9/bld/vi/c/time.c)
0002:0002fc50  GetTimeString_
0002:0002fd20  GetDateTimeString_
0002:0002fda0* GetDateString_
Module: spawn.obj(/mnt/sda5/.user/root/src/openwatcom-1.9/bld/vi/os2/spawn.c)
0002:0002fec0  ResetSpawnScreen_
0002:0002fed0* MySpawn_
0003:000031bc  _ExeExtensions
0003:000031c4  _ExeExtensionCount
0003:000031c8  _InternalCommands
0003:00003264  _InternalCommandCount
Module: adjwin.obj(/mnt/sda5/.user/root/src/openwatcom-1.9/bld/vi/ui/adjwin.c)
0002:000306e0  ResizeCurrentWindowWithKeys_
0002:000306f0  MoveCurrentWindowWithKeys_
0002:00030710  ResizeCurrentWindowWithMouse_
0002:00030730  MoveCurrentWindowWithMouse_
Module: hdlmouse.obj(/mnt/sda5/.user/root/src/openwatcom-1.9/bld/vi/ui/hdlmouse.c)
0002:00030750  HandleMouseEvent_
Module: mouseev.obj(/mnt/sda5/.user/root/src/openwatcom-1.9/bld/vi/ui/mouseev.c)
0002:00030be0  GetMousePosInfo_
0002:00030c00  TestMouseEvent_
0002:00030c50  PushMouseEventHandler_
0002:00030c70  PopMouseEventHandler_
Module: winaux.obj(/mnt/sda5/.user/root/src/openwatcom-1.9/bld/vi/ui/winaux.c)
0002:00030cd0  WindowAuxInfo_
0002:00030da0  WindowAuxUpdate_
Module: wininit.obj(/mnt/sda5/.user/root/src/openwatcom-1.9/bld/vi/ui/wininit.c)
0002:00030e40  StartWindows_
0002:00030e60  FinishWindows_
Module: winsize.obj(/mnt/sda5/.user/root/src/openwatcom-1.9/bld/vi/ui/winsize.c)
0002:00030f00  ResizeWindow_
0002:00031010  ResizeWindowRelative_
0002:00031080  MinimizeCurrentWindow_
0002:00031110  MaximizeCurrentWindow_
Module: wintica.obj(/mnt/sda5/.user/root/src/openwatcom-1.9/bld/vi/ui/wintica.c)
0002:000311b0  WindowTile_
0002:00031530  WindowCascade_
Module: filesel.obj(/mnt/sda5/.user/root/src/openwatcom-1.9/bld/vi/ui/filesel.c)
0002:00031630  SelectFileOpen_
0002:00031de0+ SelectLineMouseHandler_
0002:00032120  SelectLineInFile_
Module: menu.obj(/mnt/sda5/.user/root/src/openwatcom-1.9/bld/vi/ui/menu.c)
0003:00006320  _CurrentMenuNumber
0002:00032d80  BarfMenuData_
0002:00032fa0  StartMenu_
0002:000331a0  ViEndMenu_
0002:00033220  MenuItem_
0002:00033350  DoItemDelete_
0002:00033430  AddMenuItem_
0002:000334a0  DoMenuDelete_
0002:00033660  InitMenu_
0002:00033800  FiniMenu_
0002:00033d30+ DoMenu_
0002:00033da0  DoWindowGadgetMenu_
0002:00033df0+ DoFloatMenu_
0002:00033e20  ActivateFloatMenu_
0002:00033eb0  GetCurrentMenuId_
0002:00033ec0  SetToMenuId_
0002:00033ef0  GetMenuIdFromCoord_
0002:00033f40  IsMenuHotKey_
0002:00033f70  MenuItemFileList_
0002:00033f90  MenuItemLastFiles_
Module: /mnt/sda5/.user/root/src/openwatcom-1.9/rel2/lib386/os2/clib3r.lib(tolower.c)
0002:00033fb0  tolower_
Module: /mnt/sda5/.user/root/src/openwatcom-1.9/rel2/lib386/os2/clib3r.lib(strcspn.c)
0002:00033fc0  strcspn_
Module: /mnt/sda5/.user/root/src/openwatcom-1.9/rel2/lib386/os2/clib3r.lib(strnicmp.c)
0002:00034010  strnicmp_
Module: /mnt/sda5/.user/root/src/openwatcom-1.9/rel2/lib386/os2/clib3r.lib(strncmp.c)
0002:00034060  strncmp_
Module: /mnt/sda5/.user/root/src/openwatcom-1.9/rel2/lib386/os2/clib3r.lib(istable.c)
0002:00034090  __IsTable
Module: /mnt/sda5/.user/root/src/openwatcom-1.9/rel2/lib386/os2/clib3r.lib(strupr.c)
0002:000341a0  strupr_
Module: /mnt/sda5/.user/root/src/openwatcom-1.9/rel2/lib386/os2/clib3r.lib(strncpy.c)
0002:000341c0  strncpy_
Module: /mnt/sda5/.user/root/src/openwatcom-1.9/rel2/lib386/os2/clib3r.lib(ltoa.c)
0002:00034200  ultoa_
0002:00034250  ltoa_
Module: /mnt/sda5/.user/root/src/openwatcom-1.9/rel2/lib386/os2/clib3r.lib(atoi.c)
0002:00034280  atoi_
Module: /mnt/sda5/.user/root/src/openwatcom-1.9/rel2/lib386/os2/clib3r.lib(toupper.c)
0002:000342d0  toupper_
Module: /mnt/sda5/.user/root/src/openwatcom-1.9/rel2/lib386/os2/clib3r.lib(strlwr.c)
0002:000342e0  strlwr_
Module: /mnt/sda5/.user/root/src/openwatcom-1.9/rel2/lib386/os2/clib3r.lib(nmalloc.c)
0002:00034300  _nmalloc_
0002:00034300  malloc_
0003:0000327c  ___nheapbeg
0003:00003280  ___MiniHeapRover
0003:00003284  ___LargestSizeB4MiniHeapRover
Module: /mnt/sda5/.user/root/src/openwatcom-1.9/rel2/lib386/os2/clib3r.lib(nmsize.c)
0002:00034400  _nmsize_
0002:00034400  _msize_
Module: /mnt/sda5/.user/root/src/openwatcom-1.9/rel2/lib386/os2/clib3r.lib(memset.c)
0002:00034410  memset_
Module: /mnt/sda5/.user/root/src/openwatcom-1.9/rel2/lib386/os2/clib3r.lib(nfree.c)
0002:00034430  _nfree_
0002:00034430  free_
0003:00006328  ___MiniHeapFreeRover
Module: /mnt/sda5/.user/root/src/openwatcom-1.9/rel2/lib386/os2/clib3r.lib(nrealloc.c)
0002:00034540* _nrealloc_
0002:00034540  realloc_
Module: /mnt/sda5/.user/root/src/openwatcom-1.9/rel2/lib386/os2/clib3r.lib(signlo32.c)
0002:000345c0+ __sigfpe_handler_
0002:00034840+ __SigInit_
0002:00034890+ __SigFini_
0002:000348d0+ __sigabort_
0002:000348f0  signal_
0002:00034a10+ raise_
0003:00003288+ __SignalTable
0003:0000632c+ ___ExceptionHandled
Module: /mnt/sda5/.user/root/src/openwatcom-1.9/rel2/lib386/os2/clib3r.lib(thunk)
0002:00034ab4  __TNK
0002:00034aa0* __TNC
Module: /mnt/sda5/.user/root/src/openwatcom-1.9/rel2/lib386/os2/clib3r.lib(far16fun)
0002:00034b04  __Far16Func2
0002:00034b4d* __Far16Func
0002:00034b9b* __Far16Pascal2
0002:00034be2* __Far16Pascal
0002:00034c2e* __Far16Cdecl2
0002:00034c7c* __Far16Cdecl
0002:00034ccf  __FlatToFar16
0002:00034cd8  __Far16ToFlat
Module: /mnt/sda5/.user/root/src/openwatcom-1.9/rel2/lib386/os2/clib3r.lib(write.c)
0002:00034df0  write_
Module: /mnt/sda5/.user/root/src/openwatcom-1.9/rel2/lib386/os2/clib3r.lib(read.c)
0002:00035020  read_
Module: /mnt/sda5/.user/root/src/openwatcom-1.9/rel2/lib386/os2/clib3r.lib(stack386.c)
0002:00035190  stackavail_
Module: /mnt/sda5/.user/root/src/openwatcom-1.9/rel2/lib386/os2/clib3r.lib(stk)
0002:000351b5  __STK
0002:000351a5  __CHK
0002:000351e4  __GRO
0002:000351d4  __STKOVERFLOW_
Module: /mnt/sda5/.user/root/src/openwatcom-1.9/rel2/lib386/os2/clib3r.lib(getenv.c)
0002:00035210  getenv_
Module: /mnt/sda5/.user/root/src/openwatcom-1.9/rel2/lib386/os2/clib3r.lib(setenv.c)
0002:000352a0  setenv_
0002:00035530  _setenv_
Module: /mnt/sda5/.user/root/src/openwatcom-1.9/rel2/lib386/os2/clib3r.lib(argcv.c)
0003:00006330  __argc
0003:00006334  __argv
0003:00006338  ___argc
0003:0000633c  ___argv
Module: /mnt/sda5/.user/root/src/openwatcom-1.9/rel2/lib386/os2/clib3r.lib(strstr.c)
0002:00035740  strstr_
Module: /mnt/sda5/.user/root/src/openwatcom-1.9/rel2/lib386/os2/clib3r.lib(cmdname.c)
0002:000357f0  _cmdname_
Module: /mnt/sda5/.user/root/src/openwatcom-1.9/rel2/lib386/os2/clib3r.lib(itoa.c)
0002:00035820  utoa_
0002:00035870  itoa_
Module: /mnt/sda5/.user/root/src/openwatcom-1.9/rel2/lib386/os2/clib3r.lib(setjmp)
0002:00035894  _setjmp_
0002:000358cd  longjmp_
Module: /mnt/sda5/.user/root/src/openwatcom-1.9/rel2/lib386/os2/clib3r.lib(stricmp.c)
0002:00035950  stricmp_
Module: /mnt/sda5/.user/root/src/openwatcom-1.9/rel2/lib386/os2/clib3r.lib(qsort.c)
0002:000359e0  qsort_
Module: /mnt/sda5/.user/root/src/openwatcom-1.9/rel2/lib386/os2/clib3r.lib(fopen.c)
0002:00036090  __open_flags_
0002:000362a0+ _fsopen_
0002:000362f0  fopen_
0002:00036380* freopen_
Module: /mnt/sda5/.user/root/src/openwatcom-1.9/rel2/lib386/os2/clib3r.lib(fgets.c)
0002:000363f0  fgets_
Module: /mnt/sda5/.user/root/src/openwatcom-1.9/rel2/lib386/os2/clib3r.lib(fclose.c)
0002:00036460  __doclose_
0002:00036500  __shutdown_stream_
0002:00036520  fclose_
0003:00006340+ ___RmTmpFileFn
Module: /mnt/sda5/.user/root/src/openwatcom-1.9/rel2/lib386/os2/clib3r.lib(fullpath.c)
0002:00036570+ _sys_fullpath_
0002:000366b0  _fullpath_
Module: /mnt/sda5/.user/root/src/openwatcom-1.9/rel2/lib386/os2/clib3r.lib(splitpat.c)
0002:00036770  _splitpath_
Module: /mnt/sda5/.user/root/src/openwatcom-1.9/rel2/lib386/os2/clib3r.lib(makepath.c)
0002:00036860  _makepath_
Module: /mnt/sda5/.user/root/src/openwatcom-1.9/rel2/lib386/os2/clib3r.lib(_strcmp)
0002:00036a10  strcmp_
Module: /mnt/sda5/.user/root/src/openwatcom-1.9/rel2/lib386/os2/clib3r.lib(diros2.c)
0002:00036c00+ __opendir_
0002:00036cb0+ _opendir_
0002:00036e40  opendir_
0002:00036e60  readdir_
0002:00036f20  closedir_
0002:00036f70* rewinddir_
Module: /mnt/sda5/.user/root/src/openwatcom-1.9/rel2/lib386/os2/clib3r.lib(strncat.c)
0002:00036fb0  strncat_
Module: /mnt/sda5/.user/root/src/openwatcom-1.9/rel2/lib386/os2/clib3r.lib(accssos2.c)
0002:00036ff0  access_
Module: /mnt/sda5/.user/root/src/openwatcom-1.9/rel2/lib386/os2/clib3r.lib(errno.c)
0002:00037050  __get_errno_ptr_
0002:00037060* __get_doserrno_ptr_
Module: /mnt/sda5/.user/root/src/openwatcom-1.9/rel2/lib386/os2/clib3r.lib(exit.c)
0002:0003706a  __null_int23_exit_
0002:0003706b  exit_
0002:000370bb* _exit_
0003:00003300  ___int23_exit
0003:00003304+ ___FPE_handler_exit
Module: /mnt/sda5/.user/root/src/openwatcom-1.9/rel2/lib386/os2/clib3r.lib(clocko32.c)
0002:000370d1  clock_
Module: /mnt/sda5/.user/root/src/openwatcom-1.9/rel2/lib386/os2/clib3r.lib(openos2.c)
0002:000372d0  open_
0002:000372f0  sopen_
Module: /mnt/sda5/.user/root/src/openwatcom-1.9/rel2/lib386/os2/clib3r.lib(close.c)
0002:00037320  close_
Module: /mnt/sda5/.user/root/src/openwatcom-1.9/rel2/lib386/os2/clib3r.lib(remove.c)
0002:00037330  remove_
Module: /mnt/sda5/.user/root/src/openwatcom-1.9/rel2/lib386/os2/clib3r.lib(gtpidos2.c)
0002:00037340  getpid_
Module: /mnt/sda5/.user/root/src/openwatcom-1.9/rel2/lib386/os2/clib3r.lib(fdopen.c)
0002:000373c0  fdopen_
Module: /mnt/sda5/.user/root/src/openwatcom-1.9/rel2/lib386/os2/clib3r.lib(strerror.c)
0002:000377c0  strerror_
0002:000377e0* _strerror_
0003:00003308+ __sys_errlist
0003:000033ac+ __sys_nerr
Module: /mnt/sda5/.user/root/src/openwatcom-1.9/rel2/lib386/os2/clib3r.lib(renamos2.c)
0002:000378b0  rename_
Module: /mnt/sda5/.user/root/src/openwatcom-1.9/rel2/lib386/os2/clib3r.lib(strtol.c)
0002:00037af0  strtoul_
0002:00037b00  strtol_
Module: /mnt/sda5/.user/root/src/openwatcom-1.9/rel2/lib386/os2/clib3r.lib(fprintf.c)
0002:00037b10  fprintf_
Module: /mnt/sda5/.user/root/src/openwatcom-1.9/rel2/lib386/os2/clib3r.lib(printf.c)
0002:00037b40  printf_
Module: /mnt/sda5/.user/root/src/openwatcom-1.9/rel2/lib386/os2/clib3r.lib(time.c)
0002:00037b70  time_
Module: /mnt/sda5/.user/root/src/openwatcom-1.9/rel2/lib386/os2/clib3r.lib(localtim.c)
0002:00037bb0  _localtime_
0002:00037c10  localtime_
Module: /mnt/sda5/.user/root/src/openwatcom-1.9/rel2/lib386/os2/clib3r.lib(strftime.c)
0002:00037e8d  strftime_
Module: /mnt/sda5/.user/root/src/openwatcom-1.9/rel2/lib386/os2/clib3r.lib(atol.c)
0002:000383d0  atol_
Module: /mnt/sda5/.user/root/src/openwatcom-1.9/rel2/lib386/os2/clib3r.lib(gtcwdos2.c)
0002:00038420  getcwd_
Module: /mnt/sda5/.user/root/src/openwatcom-1.9/rel2/lib386/os2/clib3r.lib(chdiros2.c)
0002:000384e0  chdir_
Module: /mnt/sda5/.user/root/src/openwatcom-1.9/rel2/lib386/os2/clib3r.lib(isattos2.c)
0002:00038500  isatty_
Module: /mnt/sda5/.user/root/src/openwatcom-1.9/rel2/lib386/os2/clib3r.lib(tell.c)
0002:00038530  tell_
Module: /mnt/sda5/.user/root/src/openwatcom-1.9/rel2/lib386/os2/clib3r.lib(lseek.c)
0002:00038550  lseek_
Module: /mnt/sda5/.user/root/src/openwatcom-1.9/rel2/lib386/os2/clib3r.lib(searchen.c)
0002:00038580  _searchenv_
Module: /mnt/sda5/.user/root/src/openwatcom-1.9/rel2/lib386/os2/clib3r.lib(tmpnm.c)
0002:00038730  tmpnam_
Module: /mnt/sda5/.user/root/src/openwatcom-1.9/rel2/lib386/os2/clib3r.lib(dup2os2.c)
0002:00038800  dup2_
Module: /mnt/sda5/.user/root/src/openwatcom-1.9/rel2/lib386/os2/clib3r.lib(system.c)
0002:00038880  system_
Module: /mnt/sda5/.user/root/src/openwatcom-1.9/rel2/lib386/os2/clib3r.lib(dupos2.c)
0002:00038900  dup_
Module: /mnt/sda5/.user/root/src/openwatcom-1.9/rel2/lib386/os2/clib3r.lib(sprintf.c)
0002:00038950  sprintf_
Module: /mnt/sda5/.user/root/src/openwatcom-1.9/rel2/lib386/os2/clib3r.lib(strrchr.c)
0002:00038980  strrchr_
Module: /mnt/sda5/.user/root/src/openwatcom-1.9/rel2/lib386/os2/clib3r.lib(fputc.c)
0002:000389a0  fputc_
Module: /mnt/sda5/.user/root/src/openwatcom-1.9/rel2/lib386/os2/clib3r.lib(iob.c)
0003:0000343c  ___iob
0003:00003644  __fmode
0003:00006458  ___OpenStreams
0003:0000645c  ___ClosedStreams
Module: /mnt/sda5/.user/root/src/openwatcom-1.9/rel2/lib386/os2/clib3r.lib(memmove.c)
0002:00038a80  memmove_
Module: /mnt/sda5/.user/root/src/openwatcom-1.9/rel2/lib386/os2/clib3r.lib(setvbuf.c)
0002:00038ae0  setvbuf_
Module: /mnt/sda5/.user/root/src/openwatcom-1.9/rel2/lib386/os2/clib3r.lib(fread.c)
0002:00038b60  fread_
Module: /mnt/sda5/.user/root/src/openwatcom-1.9/rel2/lib386/os2/clib3r.lib(fwrite.c)
0002:00038d40  fwrite_
Module: /mnt/sda5/.user/root/src/openwatcom-1.9/rel2/lib386/os2/clib3r.lib(chmodos2.c)
0002:00038f50  chmod_
Module: /mnt/sda5/.user/root/src/openwatcom-1.9/rel2/lib386/os2/clib3r.lib(setmd.c)
0002:00038fb0  setmode_
Module: /mnt/sda5/.user/root/src/openwatcom-1.9/rel2/lib386/os2/clib3r.lib(cstart)
0002:0003908a  _cstart_
Module: /mnt/sda5/.user/root/src/openwatcom-1.9/rel2/lib386/os2/clib3r.lib(strpbrk.c)
0002:000390f0  strpbrk_
Module: /mnt/sda5/.user/root/src/openwatcom-1.9/rel2/lib386/os2/clib3r.lib(findos2.c)
0002:00039170  _dos_findfirst_
0002:000391f0* _dos_findnext_
0002:00039250* _dos_findclose_
Module: /mnt/sda5/.user/root/src/openwatcom-1.9/rel2/lib386/os2/clib3r.lib(asctime.c)
0002:000392de+ _asctime_
0002:000393c6* asctime_
0002:000393dd* _ctime_
0002:000393f6  ctime_
Module: /mnt/sda5/.user/root/src/openwatcom-1.9/rel2/lib386/os2/clib3r.lib(setbits.c)
0002:00039400  __setbits_
Module: /mnt/sda5/.user/root/src/openwatcom-1.9/rel2/lib386/os2/clib3r.lib(bits.c)
0002:00039440  __Bits
Module: /mnt/sda5/.user/root/src/openwatcom-1.9/rel2/lib386/os2/clib3r.lib(alphabet.c)
0003:00000004  ___Alphabet
Module: /mnt/sda5/.user/root/src/openwatcom-1.9/rel2/lib386/os2/clib3r.lib(maino32.c)
0003:00003648+ ___FirstThreadData
0003:0000364c  ___GetThreadPtr
0003:00003650  __AccessFileH
0003:00003654  __ReleaseFileH
0003:00003658  __AccessIOB
0003:0000365c  __ReleaseIOB
0003:00003660  __AccessNHeap
0003:00003664* __AccessFHeap
0003:00003668  __ReleaseNHeap
0003:0000366c* __ReleaseFHeap
0002:00039456  __threadstack_
0002:0003945d* __threadid_
0002:00039464  __OS2MainInit_
0002:000394d3+ __OS2Init_
0002:00039511* __OS2Fini_
0002:00039519* __shutdown_stack_checking_
0002:0003952e  __exit_
0003:00003670* __AccessTDList
0003:00003674* __ReleaseTDList
0003:00003678  ___sig_init_rtn
0003:0000367c  ___sig_fini_rtn
0003:00003680  __threadstksize
0003:00003684  ___process_fini
0003:00006460  ___Is_DLL
0003:00006464+ ___saved_CS
Module: /mnt/sda5/.user/root/src/openwatcom-1.9/rel2/lib386/os2/clib3r.lib(nmemneed.c)
0002:00039580  __nmemneed_
Module: /mnt/sda5/.user/root/src/openwatcom-1.9/rel2/lib386/os2/clib3r.lib(mem.c)
0002:00039590  __MemAllocator
0002:00039640  __MemFree
Module: /mnt/sda5/.user/root/src/openwatcom-1.9/rel2/lib386/os2/clib3r.lib(grownear.c)
0002:000398e0  __ExpandDGROUP_
Module: /mnt/sda5/.user/root/src/openwatcom-1.9/rel2/lib386/os2/clib3r.lib(__stos)
0002:00039900  __STOSB
0002:00039937* __STOSD
Module: /mnt/sda5/.user/root/src/openwatcom-1.9/rel2/lib386/os2/clib3r.lib(nexpand.c)
0002:000399b0  _nexpand_
0002:000399b0* _expand_
0002:000399f0+ __HeapManager_expand_
Module: /mnt/sda5/.user/root/src/openwatcom-1.9/rel2/lib386/os2/clib3r.lib(chk8087.c)
0002:00039bb0  _fpreset_
0002:00039bd0* __init_8087_
0002:00039be0  __chk8087_
Module: /mnt/sda5/.user/root/src/openwatcom-1.9/rel2/lib386/os2/clib3r.lib(abort.c)
0002:00039c3f* abort_
0002:00039c51  __terminate_
0003:00003688  ___abort
Module: /mnt/sda5/.user/root/src/openwatcom-1.9/rel2/lib386/os2/clib3r.lib(seterrno.c)
0002:00039c63  __set_errno_
0002:00039c71* __set_EDOM_
0002:00039c7f* __set_ERANGE_
0002:00039c8d* __set_EINVAL_
0002:00039ca0  __set_doserrno_
Module: /mnt/sda5/.user/root/src/openwatcom-1.9/rel2/lib386/os2/clib3r.lib(crwdata)
0003:000036d0  __osmajor
0003:000036d1  __osminor
0003:0000369c* __LpDllName
0003:000036a0* __LpwCmdLine
0003:000036a4* __LpwPgmName
0003:000036a8* __LpwDllName
0003:00003694  __LpCmdLine
0003:00003698  __LpPgmName
0003:0000368c* __dynend
0003:00003690  __curbrk
0003:000036ac* __STACKLOW
0003:000036b0* __STACKTOP
0003:000036b4  __ASTACKSIZ
0003:000036b8  __ASTACKPTR
0003:000036bc  __cbyte
0003:000036c0  __cbyte2
0003:000036c4* __child
0003:000036ca  __Envptr
0003:000036ce* __Envseg
0003:000036c8  __no87
0003:000036d2  ___FPE_handler
Module: /mnt/sda5/.user/root/src/openwatcom-1.9/rel2/lib386/os2/clib3r.lib(itsto32.c)
0002:00039cb0  __init_threadstksize_
Module: /mnt/sda5/.user/root/src/openwatcom-1.9/rel2/lib386/os2/clib3r.lib(__lseek.c)
0002:00039cc0  __lseek_
Module: /mnt/sda5/.user/root/src/openwatcom-1.9/rel2/lib386/os2/clib3r.lib(dosret.c)
0002:00039cf0* _dosretax_
0002:00039d00* _dosret0_
0002:00039d10  __set_errno_dos_
0002:00039d40  __set_errno_dos_reterr_
Module: /mnt/sda5/.user/root/src/openwatcom-1.9/rel2/lib386/os2/clib3r.lib(iomode.c)
0002:00039d50  __GetIOMode_
0002:00039d70  __SetIOMode_nogrow_
0003:000037dc  ___NFiles
0003:000037e0  ___init_mode
0003:00003830  ___io_mode
Module: /mnt/sda5/.user/root/src/openwatcom-1.9/rel2/lib386/os2/clib3r.lib(iomodtty.c)
0002:00039d90  __ChkTTYIOMode_
0002:00039dd0* __IOMode_
Module: /mnt/sda5/.user/root/src/openwatcom-1.9/rel2/lib386/os2/clib3r.lib(xmsgo32.c)
0002:00039df0+ __exit_with_msg_
0002:00039e40  __fatal_runtime_error_
Module: /mnt/sda5/.user/root/src/openwatcom-1.9/rel2/lib386/os2/clib3r.lib(environ.c)
0003:00006568  ___env_mask
0003:0000656c  _environ
0003:00006570  __wenviron
Module: /mnt/sda5/.user/root/src/openwatcom-1.9/rel2/lib386/os2/clib3r.lib(mbterm.c)
0002:00039e60  _mbterm_
Module: /mnt/sda5/.user/root/src/openwatcom-1.9/rel2/lib386/os2/clib3r.lib(mbsnextc.c)
0002:00039ea0  _mbsnextc_
Module: /mnt/sda5/.user/root/src/openwatcom-1.9/rel2/lib386/os2/clib3r.lib(mbcupper.c)
0002:00039ee0  _mbctoupper_
Module: /mnt/sda5/.user/root/src/openwatcom-1.9/rel2/lib386/os2/clib3r.lib(mbsinc.c)
0002:00039f00  _mbsinc_
Module: /mnt/sda5/.user/root/src/openwatcom-1.9/rel2/lib386/os2/clib3r.lib(mbslen.c)
0002:00039f30  _mbslen_
Module: /mnt/sda5/.user/root/src/openwatcom-1.9/rel2/lib386/os2/clib3r.lib(mbstowcs.c)
0002:00039f60  mbstowcs_
Module: /mnt/sda5/.user/root/src/openwatcom-1.9/rel2/lib386/os2/clib3r.lib(usetenv.c)
0002:00039fe0* _wsetenv_
0002:0003a210  __wsetenv_
Module: /mnt/sda5/.user/root/src/openwatcom-1.9/rel2/lib386/os2/clib3r.lib(initargv.c)
0002:0003a390  __Init_Argv_
0002:0003a3e0+ _getargv_
0002:0003a580  __Fini_Argv_
Module: /mnt/sda5/.user/root/src/openwatcom-1.9/rel2/lib386/os2/clib3r.lib(ljmphdl.c)
0003:00003834  ___longjmp_handler
Module: /mnt/sda5/.user/root/src/openwatcom-1.9/rel2/lib386/os2/clib3r.lib(comtflag.c)
0002:0003a5a0* __set_commode_
0003:00003838  __commode
Module: /mnt/sda5/.user/root/src/openwatcom-1.9/rel2/lib386/os2/clib3r.lib(fseek.c)
0002:0003a600  fseek_
Module: /mnt/sda5/.user/root/src/openwatcom-1.9/rel2/lib386/os2/clib3r.lib(chktty.c)
0002:0003a710  __chktty_
Module: /mnt/sda5/.user/root/src/openwatcom-1.9/rel2/lib386/os2/clib3r.lib(freefp.c)
0002:0003a750  __freefp_
0002:0003a7a0  __purgefp_
Module: /mnt/sda5/.user/root/src/openwatcom-1.9/rel2/lib386/os2/clib3r.lib(allocfp.c)
0002:0003a7d0  __allocfp_
Module: /mnt/sda5/.user/root/src/openwatcom-1.9/rel2/lib386/os2/clib3r.lib(fgetc.c)
0002:0003a8a0  __fill_buffer_
0002:0003a9a0  fgetc_
Module: /mnt/sda5/.user/root/src/openwatcom-1.9/rel2/lib386/os2/clib3r.lib(_clseos2.c)
0002:0003aa60  __close_
Module: /mnt/sda5/.user/root/src/openwatcom-1.9/rel2/lib386/os2/clib3r.lib(flush.c)
0002:0003aaa0  __flush_
Module: /mnt/sda5/.user/root/src/openwatcom-1.9/rel2/lib386/os2/clib3r.lib(mbsnccnt.c)
0002:0003aba0  _mbsnccnt_
Module: /mnt/sda5/.user/root/src/openwatcom-1.9/rel2/lib386/os2/clib3r.lib(mbsncpy.c)
0002:0003abd0  _mbsncpy_
Module: /mnt/sda5/.user/root/src/openwatcom-1.9/rel2/lib386/os2/clib3r.lib(mbsnbcnt.c)
0002:0003abf0  _mbsnbcnt_
Module: /mnt/sda5/.user/root/src/openwatcom-1.9/rel2/lib386/os2/clib3r.lib(mbconv.c)
0002:0003ac60  _mbvtop_
Module: /mnt/sda5/.user/root/src/openwatcom-1.9/rel2/lib386/os2/clib3r.lib(mbclen.c)
0002:0003ac80  _mbclen_
Module: /mnt/sda5/.user/root/src/openwatcom-1.9/rel2/lib386/os2/clib3r.lib(mbsdec.c)
0002:0003acb0  _mbsdec_
Module: /mnt/sda5/.user/root/src/openwatcom-1.9/rel2/lib386/os2/clib3r.lib(strdup.c)
0002:0003ad30  __clib_strdup_
Module: /mnt/sda5/.user/root/src/openwatcom-1.9/rel2/lib386/os2/clib3r.lib(initrtns.c)
0002:0003ad80  __InitRtns
0002:0003add0  __FiniRtns
Module: /mnt/sda5/.user/root/src/openwatcom-1.9/rel2/lib386/os2/clib3r.lib(umaskval.c)
0003:0000383c  ___umaskval
Module: /mnt/sda5/.user/root/src/openwatcom-1.9/rel2/lib386/os2/clib3r.lib(os2fil64.c)
0003:00003840  ___os2_DosOpenL
0003:00003844+ ___os2_DosSetFilePtrL
0003:00003848+ ___os2_DosSetFileSizeL
0003:0000384c+ ___os2_DosSetFileLocksL
Module: /mnt/sda5/.user/root/src/openwatcom-1.9/rel2/lib386/os2/clib3r.lib(stiomode.c)
0002:0003af20  __grow_iomode_
0002:0003aff0+ __shrink_iomode_
0002:0003b070  __SetIOMode_
Module: /mnt/sda5/.user/root/src/openwatcom-1.9/rel2/lib386/os2/clib3r.lib(unlnkos2.c)
0002:0003b0e0  unlink_
Module: /mnt/sda5/.user/root/src/openwatcom-1.9/rel2/lib386/os2/clib3r.lib(fprtf.c)
0002:0003b120  __fprtf_
Module: /mnt/sda5/.user/root/src/openwatcom-1.9/rel2/lib386/os2/clib3r.lib(gtctmos2.c)
0002:0003b1e0  __getctime_
Module: /mnt/sda5/.user/root/src/openwatcom-1.9/rel2/lib386/os2/clib3r.lib(mktime.c)
0002:0003b250  mktime_
Module: /mnt/sda5/.user/root/src/openwatcom-1.9/rel2/lib386/os2/clib3r.lib(tzset.c)
0003:00003850  ___start_dst
0003:00003874  ___end_dst
0003:0000399c  _tzname
0003:000039a4  _timezone
0003:000039a8  _daylight
0003:000039ac  ___dst_adjust
0002:0003b330* __DontCacheOSTZ_
0002:0003b340* __CacheOSTZ_
0002:0003b820+ __parse_tz_
0002:0003ba50  tzset_
Module: /mnt/sda5/.user/root/src/openwatcom-1.9/rel2/lib386/os2/clib3r.lib(gmtime.c)
0002:0003bac0  __brktime_
0002:0003bbc0+ _gmtime_
0002:0003bbe0* gmtime_
Module: /mnt/sda5/.user/root/src/openwatcom-1.9/rel2/lib386/os2/clib3r.lib(timeutil.c)
0002:0003bd40  __isindst_
Module: /mnt/sda5/.user/root/src/openwatcom-1.9/rel2/lib386/os2/clib3r.lib(leapyear.c)
0002:0003c070  __leapyear_
0003:0000002c  ___diyr
0003:00000046  ___dilyr
Module: /mnt/sda5/.user/root/src/openwatcom-1.9/rel2/lib386/os2/clib3r.lib(strlen.c)
0002:0003c0b0  strlen_
Module: /mnt/sda5/.user/root/src/openwatcom-1.9/rel2/lib386/os2/clib3r.lib(strcat.c)
0002:0003c0d0  strcat_
Module: /mnt/sda5/.user/root/src/openwatcom-1.9/rel2/lib386/os2/clib3r.lib(_slashc.c)
0002:0003c100  __Slash_C_
Module: /mnt/sda5/.user/root/src/openwatcom-1.9/rel2/lib386/os2/clib3r.lib(splp.c)
0002:0003c110  spawnlp_
Module: /mnt/sda5/.user/root/src/openwatcom-1.9/rel2/lib386/os2/clib3r.lib(vsprintf.c)
0002:0003c150  vsprintf_
Module: /mnt/sda5/.user/root/src/openwatcom-1.9/rel2/lib386/os2/clib3r.lib(ioalloc.c)
0002:0003c170  __ioalloc_
Module: /mnt/sda5/.user/root/src/openwatcom-1.9/rel2/lib386/os2/clib3r.lib(initfile.c)
0002:0003c240  __InitFiles_
Module: /mnt/sda5/.user/root/src/openwatcom-1.9/rel2/lib386/os2/clib3r.lib(ioexit.c)
0002:0003c340* fcloseall_
0002:0003c350  __full_io_exit_
Module: /mnt/sda5/.user/root/src/openwatcom-1.9/rel2/lib386/os2/clib3r.lib(qread.c)
0002:0003c360  __qread_
Module: /mnt/sda5/.user/root/src/openwatcom-1.9/rel2/lib386/os2/clib3r.lib(qwrit.c)
0002:0003c390  __qwrite_
Module: /mnt/sda5/.user/root/src/openwatcom-1.9/rel2/lib386/os2/clib3r.lib(main2o32.c)
0002:0003c430  __OS2Main
Module: /mnt/sda5/.user/root/src/openwatcom-1.9/rel2/lib386/os2/clib3r.lib(segdefns)
0002:00000003  ___begtext
0003:00000000* __nullarea
0003:000039e0  __Start_XI
0003:00003a22  __End_XI
0003:00003a22  __Start_YI
0003:00003a3a  __End_YI
Module: /mnt/sda5/.user/root/src/openwatcom-1.9/rel2/lib386/os2/clib3r.lib(cinit.c)
0002:0003c4a0  __CommonInit_
0003:0000657c  ___hmodule
Module: /mnt/sda5/.user/root/src/openwatcom-1.9/rel2/lib386/os2/clib3r.lib(amblksiz.c)
0003:000039b4  __amblksiz
Module: /mnt/sda5/.user/root/src/openwatcom-1.9/rel2/lib386/os2/clib3r.lib(heapen.c)
0002:0003c4b0* _heapenable_
0003:000039b8  ___heap_enabled
Module: /mnt/sda5/.user/root/src/openwatcom-1.9/rel2/lib386/os2/clib3r.lib(nheapmin.c)
0002:0003c4e0  _nheapshrink_
0002:0003c4e0* _nheapmin_
0002:0003c4e0* _heapmin_
0002:0003c4e0* _heapshrink_
Module: /mnt/sda5/.user/root/src/openwatcom-1.9/rel2/lib386/os2/clib3r.lib(_8087)
0003:000039bc  __8087
0003:000039bd  __real87
Module: /mnt/sda5/.user/root/src/openwatcom-1.9/rel2/lib386/os2/clib3r.lib(8087cw.c)
0003:000039c0  __8087cw
Module: /mnt/sda5/.user/root/src/openwatcom-1.9/rel2/lib386/os2/clib3r.lib(init8087)
0002:0003c5d0  __x87id
Module: /mnt/sda5/.user/root/src/openwatcom-1.9/rel2/lib386/os2/clib3r.lib(enterdb.c)
0002:0003c610  __EnterWVIDEO_
0003:000039c4+ ___WD_Present
Module: /mnt/sda5/.user/root/src/openwatcom-1.9/rel2/lib386/os2/clib3r.lib(setenvp.c)
0002:0003c640  __setenvp_
0002:0003c700  __freeenvp_
Module: /mnt/sda5/.user/root/src/openwatcom-1.9/rel2/lib386/os2/clib3r.lib(mbisdbcs.c)
0003:00006584  ___IsDBCS
Module: /mnt/sda5/.user/root/src/openwatcom-1.9/rel2/lib386/os2/clib3r.lib(mbislead.c)
0002:0003c750* _ismbblead_
0003:00006588  ___MBCSIsTable
Module: /mnt/sda5/.user/root/src/openwatcom-1.9/rel2/lib386/os2/clib3r.lib(mbinit.c)
0002:0003c7a1  __mbinit_
0003:000039c8  ___MBCodePage
Module: /mnt/sda5/.user/root/src/openwatcom-1.9/rel2/lib386/os2/clib3r.lib(mbdtoupp.c)
0002:0003c8a0  _mbdtoupper_
Module: /mnt/sda5/.user/root/src/openwatcom-1.9/rel2/lib386/os2/clib3r.lib(mbtowc.c)
0002:0003c8c0  mbtowc_
Module: /mnt/sda5/.user/root/src/openwatcom-1.9/rel2/lib386/os2/clib3r.lib(crtwenv.c)
0002:0003c980  __create_wide_environment_
Module: /mnt/sda5/.user/root/src/openwatcom-1.9/rel2/lib386/os2/clib3r.lib(ugetenv.c)
0002:0003c9f0  _wgetenv_
Module: /mnt/sda5/.user/root/src/openwatcom-1.9/rel2/lib386/os2/clib3r.lib(ustrlen.c)
0002:0003ca66  wcslen_
Module: /mnt/sda5/.user/root/src/openwatcom-1.9/rel2/lib386/os2/clib3r.lib(wcstombs.c)
0002:0003ca80  wcstombs_
Module: /mnt/sda5/.user/root/src/openwatcom-1.9/rel2/lib386/os2/clib3r.lib(utoupper.c)
0002:0003cb1f  towupper_
Module: /mnt/sda5/.user/root/src/openwatcom-1.9/rel2/lib386/os2/clib3r.lib(memcpy.c)
0002:0003cb30  memcpy_
Module: /mnt/sda5/.user/root/src/openwatcom-1.9/rel2/lib386/os2/clib3r.lib(ustrcpy.c)
0002:0003cb4f  wcscpy_
Module: /mnt/sda5/.user/root/src/openwatcom-1.9/rel2/lib386/os2/clib3r.lib(histsplt.c)
0003:0000668c  ___historical_splitparms
Module: /mnt/sda5/.user/root/src/openwatcom-1.9/rel2/lib386/os2/clib3r.lib(___argc.c)
0003:00006690  ____Argc
0003:00006694  ____Argv
Module: /mnt/sda5/.user/root/src/openwatcom-1.9/rel2/lib386/os2/clib3r.lib(flushall.c)
0002:0003cb70  __flushall_
0002:0003cbb0* flushall_
Module: /mnt/sda5/.user/root/src/openwatcom-1.9/rel2/lib386/os2/clib3r.lib(gtcheos2.c)
0002:0003cbc0  getche_
Module: /mnt/sda5/.user/root/src/openwatcom-1.9/rel2/lib386/os2/clib3r.lib(fsync.c)
0002:0003cbf0  fsync_
Module: /mnt/sda5/.user/root/src/openwatcom-1.9/rel2/lib386/os2/clib3r.lib(mbsnbcpy.c)
0002:0003cc20  _mbsnbcpy_
Module: /mnt/sda5/.user/root/src/openwatcom-1.9/rel2/lib386/os2/clib3r.lib(hdlman.c)
0002:0003cc80* __set_handles_
0002:0003cc90* _grow_handles_
0003:000039cc  ___NHandles
Module: /mnt/sda5/.user/root/src/openwatcom-1.9/rel2/lib386/os2/clib3r.lib(prtf.c)
0002:0003ccf0  __prtf_
Module: /mnt/sda5/.user/root/src/openwatcom-1.9/rel2/lib386/os2/clib3r.lib(locmktim.c)
0002:0003d9c0  __local_mktime_
Module: /mnt/sda5/.user/root/src/openwatcom-1.9/rel2/lib386/os2/clib3r.lib(spvp.c)
0002:0003db00  spawnvp_
Module: /mnt/sda5/.user/root/src/openwatcom-1.9/rel2/lib386/os2/clib3r.lib(mthrdini.c)
0002:0003db10  __InitThreadData_
0003:000039d0  ___ThreadDataSize
Module: /mnt/sda5/.user/root/src/openwatcom-1.9/rel2/lib386/os2/clib3r.lib(cmain386.c)
0002:0003db30  __CMain
Module: /mnt/sda5/.user/root/src/openwatcom-1.9/rel2/lib386/os2/clib3r.lib(dosseg)
0000:00001234  __DOSseg__
Module: /mnt/sda5/.user/root/src/openwatcom-1.9/rel2/lib386/os2/clib3r.lib(clearenv.c)
0002:0003db70  clearenv_
Module: /mnt/sda5/.user/root/src/openwatcom-1.9/rel2/lib386/os2/clib3r.lib(uputenv.c)
0002:0003dc00* _wputenv_
0002:0003dd40  __wputenv_
Module: /mnt/sda5/.user/root/src/openwatcom-1.9/rel2/lib386/os2/clib3r.lib(ustrnicm.c)
0002:0003de39  _wcsnicmp_
Module: /mnt/sda5/.user/root/src/openwatcom-1.9/rel2/lib386/os2/clib3r.lib(wctomb.c)
0002:0003dea0  wctomb_
Module: /mnt/sda5/.user/root/src/openwatcom-1.9/rel2/lib386/os2/clib3r.lib(getchos2.c)
0002:0003ded0  getch_
Module: /mnt/sda5/.user/root/src/openwatcom-1.9/rel2/lib386/os2/clib3r.lib(putchos2.c)
0002:0003df90  putch_
Module: /mnt/sda5/.user/root/src/openwatcom-1.9/rel2/lib386/os2/clib3r.lib(noefgfmt.c)
0003:000039d4  ___EFG_printf
0003:000039d8* ___EFG_scanf
Module: /mnt/sda5/.user/root/src/openwatcom-1.9/rel2/lib386/os2/clib3r.lib(lltoa.c)
0002:0003e030  ulltoa_
0002:0003e0a0* lltoa_
Module: /mnt/sda5/.user/root/src/openwatcom-1.9/rel2/lib386/os2/clib3r.lib(spvpe.c)
0002:0003e0ce  spawnvpe_
Module: /mnt/sda5/.user/root/src/openwatcom-1.9/rel2/lib386/os2/clib3r.lib(putenv.c)
0002:0003e220* putenv_
0002:0003e390  __putenv_
Module: /mnt/sda5/.user/root/src/openwatcom-1.9/rel2/lib386/os2/clib3r.lib(spve.c)
0002:0003e550  spawnve_
Module: /mnt/sda5/.user/root/src/openwatcom-1.9/rel2/lib386/os2/clib3r.lib(strchr.c)
0002:0003e8e0  strchr_
Module: /mnt/sda5/.user/root/src/openwatcom-1.9/rel2/lib386/os2/clib3r.lib(cenvarg.c)
0002:0003e908  __cenvarg_
0002:0003ea1c  __ccmdline_
Module: /mnt/sda5/.user/root/src/openwatcom-1.9/rel2/lib386/os2/clib3r.lib(exveos2.c)
0002:0003ea58  execve_
0003:000039dc* ___p_overlay
Module: /mnt/sda5/.user/root/src/openwatcom-1.9/rel2/lib386/os2/clib3r.lib(split2.c)
0002:0003eaf0  _splitpath2_
Module: /mnt/sda5/.user/root/src/openwatcom-1.9/rel2/lib386/os2/clib3r.lib(spl.c)
0002:0003ec40  spawnl_
Module: /mnt/sda5/.user/root/src/openwatcom-1.9/rel2/lib386/os2/clib3r.lib(dospnos2.c)
0002:0003ed20  _dospawn_
Module: /mnt/sda5/.user/root/src/openwatcom-1.9/rel2/lib386/os2/clib3r.lib(strcpy.c)
0002:0003efe0  strcpy_


                        +----------------------+
                        |   Imported Symbols   |
                        +----------------------+

Symbol                              Module
======                              ======

DosSleep                            DOSCALLS
DosExit                             DOSCALLS
DosCreateThread                     DOSCALLS
DosWaitThread                       DOSCALLS
VIO16GETSTATE                       VIOCALLS
VIO16SETSTATE                       VIOCALLS
VIO16SETCURPOS                      VIOCALLS
VIO16GETCURPOS                      VIOCALLS
VIO16GETCURTYPE                     VIOCALLS
VIO16SETCURTYPE                     VIOCALLS
KBD16CHARIN                         KBDCALLS
KBD16PEEK                           KBDCALLS
VIO16SHOWBUF                        VIOCALLS
DosLoadModule                       DOSCALLS
DosQueryProcAddr                    DOSCALLS
DosFreeModule                       DOSCALLS
DosQueryCurrentDisk                 DOSCALLS
DosSetDefaultDisk                   DOSCALLS
VIO16GETMODE                        VIOCALLS
VIO16GETCONFIG                      VIOCALLS
VIO16GETBUF                         VIOCALLS
KBD16GETSTATUS                      KBDCALLS
KBD16SETSTATUS                      KBDCALLS
MOU16GETNUMQUEEL                    MOUCALLS
MOU16READEVENTQUE                   MOUCALLS
MOU16OPEN                           MOUCALLS
MOU16SETEVENTMASK                   MOUCALLS
MOU16CLOSE                          MOUCALLS
DosExecPgm                          DOSCALLS
DosAcknowledgeSignalException       DOSCALLS
DosSetSignalExceptionFocus          DOSCALLS
DosUnsetExceptionHandler            DOSCALLS
DosSetExceptionHandler              DOSCALLS
DosFlatToSel                        DOSCALLS
DosSelToFlat                        DOSCALLS
DosWrite                            DOSCALLS
DosSetFilePtr                       DOSCALLS
DosRead                             DOSCALLS
DosUnwindException                  DOSCALLS
DosQueryPathInfo                    DOSCALLS
DosFindClose                        DOSCALLS
DosFindFirst                        DOSCALLS
DosFindNext                         DOSCALLS
DosQuerySysInfo                     DOSCALLS
DosOpen                             DOSCALLS
DosClose                            DOSCALLS
DosGetInfoBlocks                    DOSCALLS
DosMove                             DOSCALLS
DosQueryCurrentDir                  DOSCALLS
DosSetCurrentDir                    DOSCALLS
DosQueryHType                       DOSCALLS
DosDupHandle                        DOSCALLS
DosSetPathInfo                      DOSCALLS
DosAllocMem                         DOSCALLS
DosDevConfig                        DOSCALLS
DosQueryModuleHandle                DOSCALLS
DosSetRelMaxFH                      DOSCALLS
DosDelete                           DOSCALLS
DosGetDateTime                      DOSCALLS
DosFreeMem                          DOSCALLS
DosQueryDBCSEnv                     NLS
DosQueryCp                          DOSCALLS
DosResetBuffer                      DOSCALLS
VIO16WRTTTY                         VIOCALLS
DosQueryAppType                     DOSCALLS
DosStartSession                     SESMGR
DosCreateQueue                      QUECALLS
DosReadQueue                        QUECALLS
DosCloseQueue                       QUECALLS


                        +--------------------+
                        |   Libraries Used   |
                        +--------------------+

/mnt/sda5/.user/root/src/openwatcom-1.9/rel2/lib386/os2/clib3r.lib
/mnt/sda5/.user/root/src/openwatcom-1.9/rel2/lib386/os2/os2386.lib


                        +-----------------------+
                        |   Linker Statistics   |
                        +-----------------------+

Stack size:  00012000 (73728.)
Memory size:  0005770b (358155.)
Entry point address: 0002:0003908a
Link time: 00:00.00
