Open Watcom Linker Version 1.9
Portions Copyright (c) 1985-2002 Sybase, Inc. All Rights Reserved.
Created on:       12/12/16 02:40:16
Executable Image: serserv.exe
creating a Windows NT character-mode executable


                        +------------+
                        |   Groups   |
                        +------------+

Group                           Address              Size
=====                           =======              ====

.idata                          00409000             00000558
DGROUP                          0040a000             00012bd0



                        +--------------+
                        |   Segments   |
                        +--------------+

Segment                Class          Group          Address         Size
=======                =====          =====          =======         ====

BEGTEXT                CODE           AUTO           00401000        00000007
_TEXT                  CODE           AUTO           00401010        000073df
TRANSFER CODE          CODE           AUTO           004083f0        00000126
.idata                 .idata         .idata         00409000        00000558
_NULL                  BEGDATA        DGROUP         0040a000        00000004
_AFTERNULL             BEGDATA        DGROUP         0040a004        00000000
CONST                  DATA           DGROUP         0040a004        000003a4
CONST2                 DATA           DGROUP         0040a3a8        00000000
_DATA                  DATA           DGROUP         0040a3a8        00000380
XIB                    DATA           DGROUP         0040a728        00000000
XI                     DATA           DGROUP         0040a728        00000018
XIE                    DATA           DGROUP         0040a740        00000000
YIB                    DATA           DGROUP         0040a740        00000000
YI                     DATA           DGROUP         0040a740        00000018
YIE                    DATA           DGROUP         0040a758        00000000
TIB                    DATA           DGROUP         0040a758        00000000
TI                     DATA           DGROUP         0040a758        00000000
TIE                    DATA           DGROUP         0040a758        00000000
DATA                   DATA           DGROUP         0040a758        00000000
_BSS                   BSS            DGROUP         0040b000        00001bc8
STACK                  STACK          DGROUP         0040cbd0        00010000


                        +----------------+
                        |   Memory Map   |
                        +----------------+

* = unreferenced symbol
+ = symbol only referenced locally

Address        Symbol
=======        ======

Module: mxutil.obj(/mnt/sda5/.user/root/src/openwatcom-1.9/bld/trap/common/mxutil.c)
00401010       GetInPtr_
00401040       GetOutPtr_
00401070*      GetTotalSize_
0040b000       _In_Mx_Ptr
0040b004       _Out_Mx_Ptr
0040b008       _Out_Mx_Num
0040b009       _In_Mx_Num
Module: serv.obj(/mnt/sda5/.user/root/src/openwatcom-1.9/bld/trap/common/serv.c)
004010b0       ServError_
004010b0       ServMessage_
004010c0+      Initialize_
00401140*      OpeningStatement_
00401180       main_
Module: nttrio.obj(/mnt/sda5/.user/root/src/openwatcom-1.9/bld/trap/common/nt/nttrio.c)
00401250       Output_
00401270       SayGNiteGracey_
00401280       StartupErr_
004012a0       KeyPress_
004012b0       KeyGet_
004012c0       WantUsage_
Module: servacc.obj(/mnt/sda5/.user/root/src/openwatcom-1.9/bld/trap/common/servacc.c)
00401400       Session_
00401510       TrapClientString_
0040b020       _RWBuff
0040b420       _TrapVersion
Module: servcmd.obj(/mnt/sda5/.user/root/src/openwatcom-1.9/bld/trap/common/servcmd.c)
00401600       ParseCommandLine_
Module: servname.obj(/mnt/sda5/.user/root/src/openwatcom-1.9/bld/trap/ser/c/servname.c)
0040a3a8       _ServName
0040a3bc       _ServUsage
Module: trpsupp.obj(/mnt/sda5/.user/root/src/openwatcom-1.9/bld/dig/c/trpsupp.c)
00401770*      TrapSetFailCallBack_
00401780*      TrapSetAccessCallBack_
00401790*      TrapFailAllRequests_
004017a0*      TrapSimpAccess_
004017f0       TrapAccess_
00401830*      ReqFuncProxy_
0040b424       _ReqFunc
0040b428       _TrapVer
Module: trpld.obj(/mnt/sda5/.user/root/src/openwatcom-1.9/bld/dig/c/nt/trpld.c)
00401850*      TellHWND_
00401870       KillTrap_
004018d0       LoadTrap_
Module: ntnoth.obj(/mnt/sda5/.user/root/src/openwatcom-1.9/bld/trap/common/nt/ntnoth.c)
00401ae0       NothingToDo_
Module: packet.obj(/mnt/sda5/.user/root/src/openwatcom-1.9/bld/trap/common/packet.c)
00401af0*      StartPacket_
00401b00*      PutPacket_
00401b20       PutBuffPacket_
00401b40*      AddPacket_
00401b90       GetPacket_
00401bb0*      RemovePacket_
00401c00       GetPacketBuffPtr_
00401c10       MaxPacketSize_
Module: serlink.obj(/mnt/sda5/.user/root/src/openwatcom-1.9/bld/trap/ser/c/serlink.c)
00401c20*      SyncPoint_
00401ee0*      MarchToTheSameDrummer_
00401f10+      SetSyncTime_
00402460+      SetMaxBaud_
00402780       RemoteLink_
004027d0       RemoteUnLink_
004027e0       RemoteConnect_
00402910       RemoteDisco_
00402920       RemoteGet_
00402960       RemotePut_
0040a428+      _BaudTable
0040b844+      _MaxBaud
Module: sernt.obj(/mnt/sda5/.user/root/src/openwatcom-1.9/bld/trap/ser/c/sernt.c)
0040c04c+      _BreakFlag
0040c050+      _ErrorFlag
004029c0+      Trace_
00402a00       ZeroWaitCount_
00402a10       WaitCount_
00402a30       InitSys_
00402b80       ResetSys_
00402bb0*      Terminate_
00402c30       SendByte_
00402c50       StartBlockTrans_
00402c60       StopBlockTrans_
00402c90       GetByte_
00402d10       ClearCom_
00402d20*      SendABreak_
00402d50*      TestForBreak_
00402d90       Baud_
00402e20       ParsePortSpec_
00402e60       DonePort_
00402e70       CheckPendingError_
00402e90       ClearLastChar_
0040a49c+      _Divisor
Module: busywait.obj(/mnt/sda5/.user/root/src/openwatcom-1.9/bld/trap/ser/c/busywait.c)
00402ed0       WaitByte_
00402f00       Wait_
Module: /mnt/sda5/.user/root/src/openwatcom-1.9/rel2/lib386/nt/clib3r.lib(gtcmd.c)
00402f60+      _bgetcmd_
00402fd0       getcmd_
Module: /mnt/sda5/.user/root/src/openwatcom-1.9/rel2/lib386/nt/clib3r.lib(cstrtwnt)
00402fe4       _cstart_
00402fe4*      mainCRTStartup
Module: /mnt/sda5/.user/root/src/openwatcom-1.9/rel2/lib386/nt/clib3r.lib(argcv.c)
0040c450       __argc
0040c454       __argv
0040c458       ___argv
0040c45c       ___argc
Module: /mnt/sda5/.user/root/src/openwatcom-1.9/rel2/lib386/nt/clib3r.lib(putchwnt.c)
00403040       putch_
Module: /mnt/sda5/.user/root/src/openwatcom-1.9/rel2/lib386/nt/clib3r.lib(kbhitwnt.c)
00403090       kbhit_
Module: /mnt/sda5/.user/root/src/openwatcom-1.9/rel2/lib386/nt/clib3r.lib(getchwnt.c)
00403200       getch_
Module: /mnt/sda5/.user/root/src/openwatcom-1.9/rel2/lib386/nt/clib3r.lib(isalpha.c)
00403270       isalpha_
Module: /mnt/sda5/.user/root/src/openwatcom-1.9/rel2/lib386/nt/clib3r.lib(strnicmp.c)
00403290       strnicmp_
Module: /mnt/sda5/.user/root/src/openwatcom-1.9/rel2/lib386/nt/clib3r.lib(sprintf.c)
004032e0       sprintf_
Module: /mnt/sda5/.user/root/src/openwatcom-1.9/rel2/lib386/nt/clib3r.lib(vsprintf.c)
00403330       vsprintf_
Module: /mnt/sda5/.user/root/src/openwatcom-1.9/rel2/lib386/nt/clib3r.lib(main2wnt.c)
00403350       __NTMain
Module: /mnt/sda5/.user/root/src/openwatcom-1.9/rel2/lib386/nt/clib3r.lib(segdefns)
00401003       ___begtext
0040a000*      __nullarea
0040a728       __Start_XI
0040a740       __End_XI
0040a740       __Start_YI
0040a758       __End_YI
Module: /mnt/sda5/.user/root/src/openwatcom-1.9/rel2/lib386/nt/clib3r.lib(initargv.c)
004033b0       __Init_Argv_
00403400+      _getargv_
004035a0       __Fini_Argv_
Module: /mnt/sda5/.user/root/src/openwatcom-1.9/rel2/lib386/nt/clib3r.lib(conutwnt.c)
004035c0       __NTRealKey_
00403670       __NTConsoleInput_
00403680       __NTConsoleOutput_
Module: /mnt/sda5/.user/root/src/openwatcom-1.9/rel2/lib386/nt/clib3r.lib(mainwnt.c)
0040a4cc*      ___TlsIndex
0040a4d0+      ___FirstThreadData
0040a4d4       ___GetThreadPtr
0040a4d8       __AccessFileH
0040a4dc       __ReleaseFileH
0040a4e0       __AccessIOB
0040a4e4       __ReleaseIOB
0040a4e8       __AccessNHeap
0040a4ec*      __AccessFHeap
0040a4f0       __ReleaseNHeap
004036a0*      __threadid_
004036c0+      __sig_null_rtn_
004036d0+      __NTInit_
004038b0+      __NTFini_
00403910       __NTMainInit_
00403970       __exit_
0040a4f4*      __ReleaseFHeap
0040a4f8*      __AccessTDList
0040a4fc*      __ReleaseTDList
0040a500       __AccessFList
0040a504       __ReleaseFList
0040a508+      __ThreadExitRtn
0040a50c       ___sig_init_rtn
0040a510       ___sig_fini_rtn
0040a514       ___process_fini
0040c478       ___Is_DLL
Module: /mnt/sda5/.user/root/src/openwatcom-1.9/rel2/lib386/nt/clib3r.lib(crwdata)
0040a55c       __osmajor
0040a55d       __osminor
0040a55e       __osbuild
0040a560       __osver
0040a564       __winmajor
0040a568       __winminor
0040a56c       __winver
0040a528       __LpDllName
0040a52c       __LpwCmdLine
0040a530       __LpwPgmName
0040a534       __LpwDllName
0040a520       __LpCmdLine
0040a524       __LpPgmName
0040a518*      __dynend
0040a51c       __curbrk
0040a538*      __STACKLOW
0040a53c       __STACKTOP
0040a540       __ASTACKSIZ
0040a544       __ASTACKPTR
0040a548       __cbyte
0040a54c*      __cbyte2
0040a550*      __child
0040a556       __Envptr
0040a55a*      __Envseg
0040a554*      __no87
0040a570       ___FPE_handler
Module: /mnt/sda5/.user/root/src/openwatcom-1.9/rel2/lib386/nt/clib3r.lib(istable.c)
004039d0       __IsTable
Module: /mnt/sda5/.user/root/src/openwatcom-1.9/rel2/lib386/nt/clib3r.lib(prtf.c)
00403ae0       __prtf_
Module: /mnt/sda5/.user/root/src/openwatcom-1.9/rel2/lib386/nt/clib3r.lib(initrtns.c)
004047c0       __InitRtns
00404810       __FiniRtns
Module: /mnt/sda5/.user/root/src/openwatcom-1.9/rel2/lib386/nt/clib3r.lib(mthrdini.c)
00404870       __InitThreadData_
0040a574       ___ThreadDataSize
Module: /mnt/sda5/.user/root/src/openwatcom-1.9/rel2/lib386/nt/clib3r.lib(memset.c)
004048a0       memset_
Module: /mnt/sda5/.user/root/src/openwatcom-1.9/rel2/lib386/nt/clib3r.lib(cmain386.c)
004048c0       __CMain
Module: /mnt/sda5/.user/root/src/openwatcom-1.9/rel2/lib386/nt/clib3r.lib(dosseg)
00001234       __DOSseg__
Module: /mnt/sda5/.user/root/src/openwatcom-1.9/rel2/lib386/nt/clib3r.lib(histsplt.c)
0040ca94       ___historical_splitparms
Module: /mnt/sda5/.user/root/src/openwatcom-1.9/rel2/lib386/nt/clib3r.lib(___argc.c)
0040ca98       ____Argc
0040ca9c       ____Argv
Module: /mnt/sda5/.user/root/src/openwatcom-1.9/rel2/lib386/nt/clib3r.lib(nmalloc.c)
00404900       _nmalloc_
00404900       malloc_
0040a578       ___nheapbeg
0040a57c       ___MiniHeapRover
0040a580       ___LargestSizeB4MiniHeapRover
Module: /mnt/sda5/.user/root/src/openwatcom-1.9/rel2/lib386/nt/clib3r.lib(nfree.c)
00404a00       _nfree_
00404a00       free_
0040caa0       ___MiniHeapFreeRover
Module: /mnt/sda5/.user/root/src/openwatcom-1.9/rel2/lib386/nt/clib3r.lib(hdlman.c)
0040a584+      ___NHandles
0040a588+      ___OSHandles
0040a58c+      ___FakeHandles
00404b10+      __growPOSIXHandles_
00404bb0+      __allocPOSIXHandle_
00404c70*      __freePOSIXHandle_
00404c90       __getOSHandle_
00404ca0       __setOSHandle_
00404cf0+      __NTGetFakeHandle_
00404d60       __initPOSIXHandles_
00404e40*      __set_handles_
00404e50*      _grow_handles_
Module: /mnt/sda5/.user/root/src/openwatcom-1.9/rel2/lib386/nt/clib3r.lib(environ.c)
0040caa4       ___env_mask
0040caa8       _environ
0040caac       __wenviron
Module: /mnt/sda5/.user/root/src/openwatcom-1.9/rel2/lib386/nt/clib3r.lib(getmodfn.c)
00404e90       __lib_GetModuleFileNameW_
Module: /mnt/sda5/.user/root/src/openwatcom-1.9/rel2/lib386/nt/clib3r.lib(strdup.c)
00404f30       __clib_strdup_
Module: /mnt/sda5/.user/root/src/openwatcom-1.9/rel2/lib386/nt/clib3r.lib(ustrdup.c)
00404f70       __clib_wcsdup_
Module: /mnt/sda5/.user/root/src/openwatcom-1.9/rel2/lib386/nt/clib3r.lib(excptwnt.c)
00405600+      ___ReportException@4
00405a50       __DefaultExceptionHandler_
00405a90+      ___ExceptionFilter
00405ca0       __NewExceptionFilter_
00405cd0       __DoneExceptionFilter_
0040a598       ___oscode_check_func
0040a59c       ___raise_func
0040cab0*      _sw
0040cab4+      ___ExceptionHandled
0040cab5+      ___ReportInvoked
Module: /mnt/sda5/.user/root/src/openwatcom-1.9/rel2/lib386/nt/clib3r.lib(stklmwnt.c)
00405d10       __init_stack_limits_
Module: /mnt/sda5/.user/root/src/openwatcom-1.9/rel2/lib386/nt/clib3r.lib(wctomb.c)
00405d80       wctomb_
Module: /mnt/sda5/.user/root/src/openwatcom-1.9/rel2/lib386/nt/clib3r.lib(itoa.c)
00405dc0+      utoa_
00405e10       itoa_
Module: /mnt/sda5/.user/root/src/openwatcom-1.9/rel2/lib386/nt/clib3r.lib(strupr.c)
00405e40       strupr_
Module: /mnt/sda5/.user/root/src/openwatcom-1.9/rel2/lib386/nt/clib3r.lib(noefgfmt.c)
0040a5b4       ___EFG_printf
0040a5b8*      ___EFG_scanf
Module: /mnt/sda5/.user/root/src/openwatcom-1.9/rel2/lib386/nt/clib3r.lib(lltoa.c)
00405eb0       ulltoa_
00405f20*      lltoa_
Module: /mnt/sda5/.user/root/src/openwatcom-1.9/rel2/lib386/nt/clib3r.lib(ltoa.c)
00405f50       ultoa_
00405fa0*      ltoa_
Module: /mnt/sda5/.user/root/src/openwatcom-1.9/rel2/lib386/nt/clib3r.lib(mbisdbcs.c)
0040cab8       ___IsDBCS
Module: /mnt/sda5/.user/root/src/openwatcom-1.9/rel2/lib386/nt/clib3r.lib(mbislead.c)
00405fd0*      _ismbblead_
0040cabc       ___MBCSIsTable
Module: /mnt/sda5/.user/root/src/openwatcom-1.9/rel2/lib386/nt/clib3r.lib(__stos)
00405ff0       __STOSB
00406027*      __STOSD
Module: /mnt/sda5/.user/root/src/openwatcom-1.9/rel2/lib386/nt/clib3r.lib(cinit.c)
004060a0       __CommonInit_
Module: /mnt/sda5/.user/root/src/openwatcom-1.9/rel2/lib386/nt/clib3r.lib(exit.c)
004060a1+      __null_int23_exit_
004060a2       exit_
004060f2*      _exit_
0040a5bc+      ___int23_exit
0040a5c0+      ___FPE_handler_exit
Module: /mnt/sda5/.user/root/src/openwatcom-1.9/rel2/lib386/nt/clib3r.lib(nmemneed.c)
00406110       __nmemneed_
Module: /mnt/sda5/.user/root/src/openwatcom-1.9/rel2/lib386/nt/clib3r.lib(mem.c)
00406120       __MemAllocator
004061d0       __MemFree
Module: /mnt/sda5/.user/root/src/openwatcom-1.9/rel2/lib386/nt/clib3r.lib(grownear.c)
00406470       __ExpandDGROUP_
Module: /mnt/sda5/.user/root/src/openwatcom-1.9/rel2/lib386/nt/clib3r.lib(seterrno.c)
00406481       __set_errno_
0040648f*      __set_EDOM_
0040649d*      __set_ERANGE_
004064ab*      __set_EINVAL_
004064be*      __set_doserrno_
Module: /mnt/sda5/.user/root/src/openwatcom-1.9/rel2/lib386/nt/clib3r.lib(nrealloc.c)
004064d0*      _nrealloc_
004064d0       realloc_
Module: /mnt/sda5/.user/root/src/openwatcom-1.9/rel2/lib386/nt/clib3r.lib(iomode.c)
00406550       __GetIOMode_
00406570*      __SetIOMode_nogrow_
0040a5c4       ___NFiles
0040a5c8       ___init_mode
0040a618       ___io_mode
Module: /mnt/sda5/.user/root/src/openwatcom-1.9/rel2/lib386/nt/clib3r.lib(stiomode.c)
00406590       __grow_iomode_
00406660+      __shrink_iomode_
004066a0       __SetIOMode_
Module: /mnt/sda5/.user/root/src/openwatcom-1.9/rel2/lib386/nt/clib3r.lib(setenvp.c)
00406710       __setenvp_
004067d0       __freeenvp_
Module: /mnt/sda5/.user/root/src/openwatcom-1.9/rel2/lib386/nt/clib3r.lib(ustrlen.c)
0040681d       wcslen_
Module: /mnt/sda5/.user/root/src/openwatcom-1.9/rel2/lib386/nt/clib3r.lib(memcpy.c)
00406830       memcpy_
Module: /mnt/sda5/.user/root/src/openwatcom-1.9/rel2/lib386/nt/clib3r.lib(fclex387.c)
00406850       _ClearFPE_
Module: /mnt/sda5/.user/root/src/openwatcom-1.9/rel2/lib386/nt/clib3r.lib(signlwnt.c)
0040a61c+      __SignalTable
00406860+      __SetSignalFunc_
004068b0+      __GetSignalFunc_
004068e0+      __GetSignalOSCode_
00406910+      __CheckSignalExCode_
00406a50+      __sigabort_
00406a60       __sigfpe_handler_
00406ab0*      signal_
00406b40+      raise_
00406bb0+      __SigInit_
00406c00+      __SigFini_
00406c40+      __sig_init_
Module: /mnt/sda5/.user/root/src/openwatcom-1.9/rel2/lib386/nt/clib3r.lib(mbinit.c)
00406c99       __mbinit_
0040a688       ___MBCodePage
Module: /mnt/sda5/.user/root/src/openwatcom-1.9/rel2/lib386/nt/clib3r.lib(alphabet.c)
0040a380       ___Alphabet
Module: /mnt/sda5/.user/root/src/openwatcom-1.9/rel2/lib386/nt/clib3r.lib(xmsgwnt.c)
00406d90+      __exit_with_msg_
00406df0       __fatal_runtime_error_
Module: /mnt/sda5/.user/root/src/openwatcom-1.9/rel2/lib386/nt/clib3r.lib(amblksiz.c)
0040a68c       __amblksiz
Module: /mnt/sda5/.user/root/src/openwatcom-1.9/rel2/lib386/nt/clib3r.lib(heapen.c)
00406e10*      _heapenable_
0040a690       ___heap_enabled
Module: /mnt/sda5/.user/root/src/openwatcom-1.9/rel2/lib386/nt/clib3r.lib(nheapmin.c)
00406e40       _nheapshrink_
00406e40*      _nheapmin_
00406e40*      _heapmin_
00406e40*      _heapshrink_
Module: /mnt/sda5/.user/root/src/openwatcom-1.9/rel2/lib386/nt/clib3r.lib(nmsize.c)
00406f30       _nmsize_
00406f30*      _msize_
Module: /mnt/sda5/.user/root/src/openwatcom-1.9/rel2/lib386/nt/clib3r.lib(nexpand.c)
00406f40       _nexpand_
00406f40*      _expand_
00406f80+      __HeapManager_expand_
Module: /mnt/sda5/.user/root/src/openwatcom-1.9/rel2/lib386/nt/clib3r.lib(iomodtty.c)
00407140       __ChkTTYIOMode_
00407180*      __IOMode_
Module: /mnt/sda5/.user/root/src/openwatcom-1.9/rel2/lib386/nt/clib3r.lib(dofilstr.c)
004071c0       __ParsePosixHandleStr_
Module: /mnt/sda5/.user/root/src/openwatcom-1.9/rel2/lib386/nt/clib3r.lib(clearenv.c)
004072e0       clearenv_
Module: /mnt/sda5/.user/root/src/openwatcom-1.9/rel2/lib386/nt/clib3r.lib(abort.c)
00407385*      abort_
00407397       __terminate_
0040a694       ___abort
Module: /mnt/sda5/.user/root/src/openwatcom-1.9/rel2/lib386/nt/clib3r.lib(enterdb.c)
004073b0       __EnterWVIDEO_
0040a698+      ___WD_Present
Module: /mnt/sda5/.user/root/src/openwatcom-1.9/rel2/lib386/nt/clib3r.lib(isattwnt.c)
004073e0       isatty_
Module: /mnt/sda5/.user/root/src/openwatcom-1.9/rel2/lib386/nt/clib3r.lib(getenv.c)
00407400       getenv_
Module: /mnt/sda5/.user/root/src/openwatcom-1.9/rel2/lib386/nt/clib3r.lib(strncpy.c)
00407490       strncpy_
Module: /mnt/sda5/.user/root/src/openwatcom-1.9/rel2/lib386/nt/clib3r.lib(strtol.c)
004076f0*      strtoul_
00407700       strtol_
Module: /mnt/sda5/.user/root/src/openwatcom-1.9/rel2/lib386/nt/clib3r.lib(putenv.c)
00407710       putenv_
004079a0       __putenv_
Module: /mnt/sda5/.user/root/src/openwatcom-1.9/rel2/lib386/nt/clib3r.lib(mbterm.c)
00407b10       _mbterm_
Module: /mnt/sda5/.user/root/src/openwatcom-1.9/rel2/lib386/nt/clib3r.lib(mbsnextc.c)
00407b50       _mbsnextc_
Module: /mnt/sda5/.user/root/src/openwatcom-1.9/rel2/lib386/nt/clib3r.lib(mbcupper.c)
00407b90       _mbctoupper_
Module: /mnt/sda5/.user/root/src/openwatcom-1.9/rel2/lib386/nt/clib3r.lib(mbsinc.c)
00407bc0       _mbsinc_
Module: /mnt/sda5/.user/root/src/openwatcom-1.9/rel2/lib386/nt/clib3r.lib(tolower.c)
00407bf0       tolower_
Module: /mnt/sda5/.user/root/src/openwatcom-1.9/rel2/lib386/nt/clib3r.lib(mbschr.c)
00407c00       _mbschr_
Module: /mnt/sda5/.user/root/src/openwatcom-1.9/rel2/lib386/nt/clib3r.lib(mbslen.c)
00407c60       _mbslen_
Module: /mnt/sda5/.user/root/src/openwatcom-1.9/rel2/lib386/nt/clib3r.lib(mbstowcs.c)
00407c90       mbstowcs_
Module: /mnt/sda5/.user/root/src/openwatcom-1.9/rel2/lib386/nt/clib3r.lib(uputenv.c)
00407d10*      _wputenv_
00407f30       __wputenv_
Module: /mnt/sda5/.user/root/src/openwatcom-1.9/rel2/lib386/nt/clib3r.lib(toupper.c)
00408030       toupper_
Module: /mnt/sda5/.user/root/src/openwatcom-1.9/rel2/lib386/nt/clib3r.lib(memmove.c)
00408040       memmove_
Module: /mnt/sda5/.user/root/src/openwatcom-1.9/rel2/lib386/nt/clib3r.lib(mbconv.c)
004080a0       _mbvtop_
Module: /mnt/sda5/.user/root/src/openwatcom-1.9/rel2/lib386/nt/clib3r.lib(mbclen.c)
004080c0       _mbclen_
Module: /mnt/sda5/.user/root/src/openwatcom-1.9/rel2/lib386/nt/clib3r.lib(mbccmp.c)
004080f0       _mbccmp_
Module: /mnt/sda5/.user/root/src/openwatcom-1.9/rel2/lib386/nt/clib3r.lib(mbtowc.c)
00408130       mbtowc_
Module: /mnt/sda5/.user/root/src/openwatcom-1.9/rel2/lib386/nt/clib3r.lib(ustrchr.c)
004081c0       wcschr_
Module: /mnt/sda5/.user/root/src/openwatcom-1.9/rel2/lib386/nt/clib3r.lib(setenvar.c)
004081e0       __lib_SetEnvironmentVariableW_
Module: /mnt/sda5/.user/root/src/openwatcom-1.9/rel2/lib386/nt/clib3r.lib(crtwenv.c)
004082d0       __create_wide_environment_
Module: /mnt/sda5/.user/root/src/openwatcom-1.9/rel2/lib386/nt/clib3r.lib(wcstombs.c)
00408340       wcstombs_
Module: /mnt/sda5/.user/root/src/openwatcom-1.9/rel2/lib386/nt/clib3r.lib(utoupper.c)
004083df       towupper_


                        +----------------------+
                        |   Imported Symbols   |
                        +----------------------+

Symbol                              Module
======                              ======

_ExitProcess@4                      KERNEL32.DLL
_FreeLibrary@4                      KERNEL32.DLL
_LoadLibraryA@4                     KERNEL32.DLL
_GetProcAddress@8                   KERNEL32.DLL
_OutputDebugStringA@4               KERNEL32.DLL
_GetTickCount@0                     KERNEL32.DLL
_CreateFileA@28                     KERNEL32.DLL
_SetupComm@12                       KERNEL32.DLL
_CloseHandle@4                      KERNEL32.DLL
_GetCommState@8                     KERNEL32.DLL
_SetCommState@8                     KERNEL32.DLL
_SetCommTimeouts@8                  KERNEL32.DLL
_EscapeCommFunction@8               KERNEL32.DLL
_WriteFile@20                       KERNEL32.DLL
_ReadFile@20                        KERNEL32.DLL
_Sleep@4                            KERNEL32.DLL
_ClearCommError@12                  KERNEL32.DLL
_GetCommandLineA@0                  KERNEL32.DLL
_WriteConsoleA@20                   KERNEL32.DLL
_PeekConsoleInputA@16               KERNEL32.DLL
_ReadConsoleInputA@16               KERNEL32.DLL
_GetConsoleMode@8                   KERNEL32.DLL
_SetConsoleMode@8                   KERNEL32.DLL
_GetEnvironmentStringsA@0           KERNEL32.DLL
_GetVersion@0                       KERNEL32.DLL
_GetModuleFileNameA@12              KERNEL32.DLL
_GetCommandLineW@0                  KERNEL32.DLL
_FreeEnvironmentStringsA@4          KERNEL32.DLL
_GetModuleHandleA@4                 KERNEL32.DLL
_GetCurrentThreadId@0               KERNEL32.DLL
_SetStdHandle@8                     KERNEL32.DLL
_CreateEventA@16                    KERNEL32.DLL
_GetStdHandle@4                     KERNEL32.DLL
_GetModuleFileNameW@12              KERNEL32.DLL
_MultiByteToWideChar@24             KERNEL32.DLL
_SetUnhandledExceptionFilter@4      KERNEL32.DLL
_UnhandledExceptionFilter@4         KERNEL32.DLL
_VirtualQuery@12                    KERNEL32.DLL
_WideCharToMultiByte@32             KERNEL32.DLL
_VirtualAlloc@16                    KERNEL32.DLL
_SetConsoleCtrlHandler@8            KERNEL32.DLL
_GetACP@0                           KERNEL32.DLL
_GetOEMCP@0                         KERNEL32.DLL
_GetCPInfo@8                        KERNEL32.DLL
_VirtualFree@12                     KERNEL32.DLL
_GetFileType@4                      KERNEL32.DLL
_SetEnvironmentVariableA@8          KERNEL32.DLL
_CharUpperA@4                       USER32.DLL
_SetEnvironmentVariableW@8          KERNEL32.DLL


                        +--------------------+
                        |   Libraries Used   |
                        +--------------------+

/mnt/sda5/.user/root/src/openwatcom-1.9/rel2/lib386/nt/kernel32.lib
/mnt/sda5/.user/root/src/openwatcom-1.9/rel2/lib386/nt/user32.lib
/mnt/sda5/.user/root/src/openwatcom-1.9/rel2/lib386/nt/clib3r.lib


                        +-----------------------+
                        |   Linker Statistics   |
                        +-----------------------+

Stack size:  00010000 (65536.)
Memory size:  0001a63e (108094.)
Entry point address: 00402fe4
Link time: 00:00.00
