Open Watcom Linker Version 1.9
Portions Copyright (c) 1985-2002 Sybase, Inc. All Rights Reserved.
Created on:       12/12/16 02:39:54
Executable Image: netserv.exe
creating a Windows NT character-mode executable


                        +------------+
                        |   Groups   |
                        +------------+

Group                           Address              Size
=====                           =======              ====

.idata                          00408000             000004a4
DGROUP                          00409000             00012000



                        +--------------+
                        |   Segments   |
                        +--------------+

Segment                Class          Group          Address         Size
=======                =====          =====          =======         ====

BEGTEXT                CODE           AUTO           00401000        00000007
_TEXT                  CODE           AUTO           00401010        000063df
TRANSFER CODE          CODE           AUTO           004073f0        000000f0
.idata                 .idata         .idata         00408000        000004a4
_NULL                  BEGDATA        DGROUP         00409000        00000004
_AFTERNULL             BEGDATA        DGROUP         00409004        00000000
CONST                  DATA           DGROUP         00409004        00000298
CONST2                 DATA           DGROUP         0040929c        00000000
_DATA                  DATA           DGROUP         0040929c        000002e8
XIB                    DATA           DGROUP         00409584        00000000
XI                     DATA           DGROUP         00409584        00000018
XIE                    DATA           DGROUP         0040959c        00000000
YIB                    DATA           DGROUP         0040959c        00000000
YI                     DATA           DGROUP         0040959c        00000018
YIE                    DATA           DGROUP         004095b4        00000000
TIB                    DATA           DGROUP         004095b4        00000000
TI                     DATA           DGROUP         004095b4        00000000
TIE                    DATA           DGROUP         004095b4        00000000
DATA                   DATA           DGROUP         004095b4        00000000
_BSS                   BSS            DGROUP         0040a000        00000ff9
STACK                  STACK          DGROUP         0040b000        00010000


                        +----------------+
                        |   Memory Map   |
                        +----------------+

* = unreferenced symbol
+ = symbol only referenced locally

Address        Symbol
=======        ======

Module: mxutil.obj(/mnt/sda5/.user/root/src/openwatcom-1.9/bld/trap/common/mxutil.c)
00401010       GetInPtr_
00401040       GetOutPtr_
00401070*      GetTotalSize_
0040a000       _In_Mx_Ptr
0040a004       _Out_Mx_Ptr
0040a008       _Out_Mx_Num
0040a009       _In_Mx_Num
Module: serv.obj(/mnt/sda5/.user/root/src/openwatcom-1.9/bld/trap/common/serv.c)
004010b0       ServError_
004010b0*      ServMessage_
004010c0+      Initialize_
00401140*      OpeningStatement_
00401180       main_
Module: nttrio.obj(/mnt/sda5/.user/root/src/openwatcom-1.9/bld/trap/common/nt/nttrio.c)
00401250       Output_
00401270       SayGNiteGracey_
00401280       StartupErr_
004012a0       KeyPress_
004012b0       KeyGet_
004012c0       WantUsage_
Module: servacc.obj(/mnt/sda5/.user/root/src/openwatcom-1.9/bld/trap/common/servacc.c)
00401400       Session_
00401510       TrapClientString_
0040a020       _RWBuff
0040a420       _TrapVersion
Module: servcmd.obj(/mnt/sda5/.user/root/src/openwatcom-1.9/bld/trap/common/servcmd.c)
00401600       ParseCommandLine_
Module: servname.obj(/mnt/sda5/.user/root/src/openwatcom-1.9/bld/trap/net/c/servname.c)
0040929c       _ServUsage
004092d8       _ServName
Module: trpsupp.obj(/mnt/sda5/.user/root/src/openwatcom-1.9/bld/dig/c/trpsupp.c)
00401770*      TrapSetFailCallBack_
00401780*      TrapSetAccessCallBack_
00401790*      TrapFailAllRequests_
004017a0*      TrapSimpAccess_
004017f0       TrapAccess_
00401830*      ReqFuncProxy_
0040a424       _ReqFunc
0040a428       _TrapVer
Module: trpld.obj(/mnt/sda5/.user/root/src/openwatcom-1.9/bld/dig/c/nt/trpld.c)
00401850*      TellHWND_
00401870       KillTrap_
004018d0       LoadTrap_
Module: ntnoth.obj(/mnt/sda5/.user/root/src/openwatcom-1.9/bld/trap/common/nt/ntnoth.c)
00401ae0       NothingToDo_
Module: packet.obj(/mnt/sda5/.user/root/src/openwatcom-1.9/bld/trap/common/packet.c)
00401af0*      StartPacket_
00401b00*      PutPacket_
00401b20       PutBuffPacket_
00401b40*      AddPacket_
00401b90       GetPacket_
00401bb0*      RemovePacket_
00401c00       GetPacketBuffPtr_
00401c10       MaxPacketSize_
Module: netlink.obj(/mnt/sda5/.user/root/src/openwatcom-1.9/bld/trap/net/c/netlink.c)
004092fc+      _DefLinkName
00401c20+      GetLanaNum_
00401c90       RemoteGet_
00401cc0       RemotePut_
00401d10       RemoteConnect_
00401d30       RemoteDisco_
00401d50       RemoteLink_
00401ed0       RemoteUnLink_
0040a83c+      _NetCtlBlk
0040a87c+      _SkipEnum
0040a880+      _LanaNum
Module: /mnt/sda5/.user/root/src/openwatcom-1.9/rel2/lib386/nt/clib3r.lib(gtcmd.c)
00401f60+      _bgetcmd_
00401fd0       getcmd_
Module: /mnt/sda5/.user/root/src/openwatcom-1.9/rel2/lib386/nt/clib3r.lib(cstrtwnt)
00401fe4       _cstart_
00401fe4*      mainCRTStartup
Module: /mnt/sda5/.user/root/src/openwatcom-1.9/rel2/lib386/nt/clib3r.lib(argcv.c)
0040a884       __argc
0040a888       __argv
0040a88c       ___argv
0040a890       ___argc
Module: /mnt/sda5/.user/root/src/openwatcom-1.9/rel2/lib386/nt/clib3r.lib(putchwnt.c)
00402040       putch_
Module: /mnt/sda5/.user/root/src/openwatcom-1.9/rel2/lib386/nt/clib3r.lib(kbhitwnt.c)
00402090       kbhit_
Module: /mnt/sda5/.user/root/src/openwatcom-1.9/rel2/lib386/nt/clib3r.lib(getchwnt.c)
00402200       getch_
Module: /mnt/sda5/.user/root/src/openwatcom-1.9/rel2/lib386/nt/clib3r.lib(isalpha.c)
00402270       isalpha_
Module: /mnt/sda5/.user/root/src/openwatcom-1.9/rel2/lib386/nt/clib3r.lib(strnicmp.c)
00402290       strnicmp_
Module: /mnt/sda5/.user/root/src/openwatcom-1.9/rel2/lib386/nt/clib3r.lib(sprintf.c)
004022e0       sprintf_
Module: /mnt/sda5/.user/root/src/openwatcom-1.9/rel2/lib386/nt/clib3r.lib(memset.c)
00402310       memset_
Module: /mnt/sda5/.user/root/src/openwatcom-1.9/rel2/lib386/nt/clib3r.lib(main2wnt.c)
00402330       __NTMain
Module: /mnt/sda5/.user/root/src/openwatcom-1.9/rel2/lib386/nt/clib3r.lib(segdefns)
00401003       ___begtext
00409000*      __nullarea
00409584       __Start_XI
0040959c       __End_XI
0040959c       __Start_YI
004095b4       __End_YI
Module: /mnt/sda5/.user/root/src/openwatcom-1.9/rel2/lib386/nt/clib3r.lib(initargv.c)
00402390       __Init_Argv_
004023e0+      _getargv_
00402580       __Fini_Argv_
Module: /mnt/sda5/.user/root/src/openwatcom-1.9/rel2/lib386/nt/clib3r.lib(conutwnt.c)
004025a0       __NTRealKey_
00402650       __NTConsoleInput_
00402660       __NTConsoleOutput_
Module: /mnt/sda5/.user/root/src/openwatcom-1.9/rel2/lib386/nt/clib3r.lib(mainwnt.c)
00409328*      ___TlsIndex
0040932c+      ___FirstThreadData
00409330       ___GetThreadPtr
00409334       __AccessFileH
00409338       __ReleaseFileH
0040933c       __AccessIOB
00409340       __ReleaseIOB
00409344       __AccessNHeap
00409348*      __AccessFHeap
0040934c       __ReleaseNHeap
00402680*      __threadid_
004026a0+      __sig_null_rtn_
004026b0+      __NTInit_
00402890+      __NTFini_
004028f0       __NTMainInit_
00402950       __exit_
00409350*      __ReleaseFHeap
00409354*      __AccessTDList
00409358*      __ReleaseTDList
0040935c       __AccessFList
00409360       __ReleaseFList
00409364+      __ThreadExitRtn
00409368       ___sig_init_rtn
0040936c       ___sig_fini_rtn
00409370       ___process_fini
0040a8ac       ___Is_DLL
Module: /mnt/sda5/.user/root/src/openwatcom-1.9/rel2/lib386/nt/clib3r.lib(crwdata)
004093b8       __osmajor
004093b9       __osminor
004093ba       __osbuild
004093bc       __osver
004093c0       __winmajor
004093c4       __winminor
004093c8       __winver
00409384       __LpDllName
00409388       __LpwCmdLine
0040938c       __LpwPgmName
00409390       __LpwDllName
0040937c       __LpCmdLine
00409380       __LpPgmName
00409374*      __dynend
00409378       __curbrk
00409394*      __STACKLOW
00409398       __STACKTOP
0040939c       __ASTACKSIZ
004093a0       __ASTACKPTR
004093a4       __cbyte
004093a8*      __cbyte2
004093ac*      __child
004093b2       __Envptr
004093b6*      __Envseg
004093b0*      __no87
004093cc       ___FPE_handler
Module: /mnt/sda5/.user/root/src/openwatcom-1.9/rel2/lib386/nt/clib3r.lib(istable.c)
004029b0       __IsTable
Module: /mnt/sda5/.user/root/src/openwatcom-1.9/rel2/lib386/nt/clib3r.lib(vsprintf.c)
00402ae0       vsprintf_
Module: /mnt/sda5/.user/root/src/openwatcom-1.9/rel2/lib386/nt/clib3r.lib(__stos)
00402b00       __STOSB
00402b37*      __STOSD
Module: /mnt/sda5/.user/root/src/openwatcom-1.9/rel2/lib386/nt/clib3r.lib(initrtns.c)
00402bc0       __InitRtns
00402c10       __FiniRtns
Module: /mnt/sda5/.user/root/src/openwatcom-1.9/rel2/lib386/nt/clib3r.lib(mthrdini.c)
00402c70       __InitThreadData_
004093d0       ___ThreadDataSize
Module: /mnt/sda5/.user/root/src/openwatcom-1.9/rel2/lib386/nt/clib3r.lib(cmain386.c)
00402ca0       __CMain
Module: /mnt/sda5/.user/root/src/openwatcom-1.9/rel2/lib386/nt/clib3r.lib(dosseg)
00001234       __DOSseg__
Module: /mnt/sda5/.user/root/src/openwatcom-1.9/rel2/lib386/nt/clib3r.lib(histsplt.c)
0040aec8       ___historical_splitparms
Module: /mnt/sda5/.user/root/src/openwatcom-1.9/rel2/lib386/nt/clib3r.lib(___argc.c)
0040aecc       ____Argc
0040aed0       ____Argv
Module: /mnt/sda5/.user/root/src/openwatcom-1.9/rel2/lib386/nt/clib3r.lib(nmalloc.c)
00402ce0       _nmalloc_
00402ce0       malloc_
004093d4       ___nheapbeg
004093d8       ___MiniHeapRover
004093dc       ___LargestSizeB4MiniHeapRover
Module: /mnt/sda5/.user/root/src/openwatcom-1.9/rel2/lib386/nt/clib3r.lib(nfree.c)
00402de0       _nfree_
00402de0       free_
0040aed4       ___MiniHeapFreeRover
Module: /mnt/sda5/.user/root/src/openwatcom-1.9/rel2/lib386/nt/clib3r.lib(hdlman.c)
004093e0+      ___NHandles
004093e4+      ___OSHandles
004093e8+      ___FakeHandles
00402ef0+      __growPOSIXHandles_
00402f90+      __allocPOSIXHandle_
00403050*      __freePOSIXHandle_
00403070       __getOSHandle_
00403080       __setOSHandle_
004030d0+      __NTGetFakeHandle_
00403140       __initPOSIXHandles_
00403220*      __set_handles_
00403230*      _grow_handles_
Module: /mnt/sda5/.user/root/src/openwatcom-1.9/rel2/lib386/nt/clib3r.lib(environ.c)
0040aed8       ___env_mask
0040aedc       _environ
0040aee0       __wenviron
Module: /mnt/sda5/.user/root/src/openwatcom-1.9/rel2/lib386/nt/clib3r.lib(getmodfn.c)
00403270       __lib_GetModuleFileNameW_
Module: /mnt/sda5/.user/root/src/openwatcom-1.9/rel2/lib386/nt/clib3r.lib(strdup.c)
00403310       __clib_strdup_
Module: /mnt/sda5/.user/root/src/openwatcom-1.9/rel2/lib386/nt/clib3r.lib(ustrdup.c)
00403350       __clib_wcsdup_
Module: /mnt/sda5/.user/root/src/openwatcom-1.9/rel2/lib386/nt/clib3r.lib(excptwnt.c)
004039e0+      ___ReportException@4
00403e30       __DefaultExceptionHandler_
00403e70+      ___ExceptionFilter
00404080       __NewExceptionFilter_
004040b0       __DoneExceptionFilter_
004093f4       ___oscode_check_func
004093f8       ___raise_func
0040aee4*      _sw
0040aee8+      ___ExceptionHandled
0040aee9+      ___ReportInvoked
Module: /mnt/sda5/.user/root/src/openwatcom-1.9/rel2/lib386/nt/clib3r.lib(stklmwnt.c)
004040f0       __init_stack_limits_
Module: /mnt/sda5/.user/root/src/openwatcom-1.9/rel2/lib386/nt/clib3r.lib(prtf.c)
00404160       __prtf_
Module: /mnt/sda5/.user/root/src/openwatcom-1.9/rel2/lib386/nt/clib3r.lib(cinit.c)
00404e30       __CommonInit_
Module: /mnt/sda5/.user/root/src/openwatcom-1.9/rel2/lib386/nt/clib3r.lib(exit.c)
00404e31+      __null_int23_exit_
00404e32       exit_
00404e82*      _exit_
00409410+      ___int23_exit
00409414+      ___FPE_handler_exit
Module: /mnt/sda5/.user/root/src/openwatcom-1.9/rel2/lib386/nt/clib3r.lib(nmemneed.c)
00404ea0       __nmemneed_
Module: /mnt/sda5/.user/root/src/openwatcom-1.9/rel2/lib386/nt/clib3r.lib(mem.c)
00404eb0       __MemAllocator
00404f60       __MemFree
Module: /mnt/sda5/.user/root/src/openwatcom-1.9/rel2/lib386/nt/clib3r.lib(grownear.c)
00405200       __ExpandDGROUP_
Module: /mnt/sda5/.user/root/src/openwatcom-1.9/rel2/lib386/nt/clib3r.lib(seterrno.c)
00405211       __set_errno_
0040521f*      __set_EDOM_
0040522d*      __set_ERANGE_
0040523b*      __set_EINVAL_
0040524e*      __set_doserrno_
Module: /mnt/sda5/.user/root/src/openwatcom-1.9/rel2/lib386/nt/clib3r.lib(nrealloc.c)
00405260*      _nrealloc_
00405260       realloc_
Module: /mnt/sda5/.user/root/src/openwatcom-1.9/rel2/lib386/nt/clib3r.lib(iomode.c)
004052e0       __GetIOMode_
00405300*      __SetIOMode_nogrow_
00409418       ___NFiles
0040941c       ___init_mode
0040946c       ___io_mode
Module: /mnt/sda5/.user/root/src/openwatcom-1.9/rel2/lib386/nt/clib3r.lib(stiomode.c)
00405320       __grow_iomode_
004053f0+      __shrink_iomode_
00405430       __SetIOMode_
Module: /mnt/sda5/.user/root/src/openwatcom-1.9/rel2/lib386/nt/clib3r.lib(setenvp.c)
004054a0       __setenvp_
00405560       __freeenvp_
Module: /mnt/sda5/.user/root/src/openwatcom-1.9/rel2/lib386/nt/clib3r.lib(ustrlen.c)
004055ad       wcslen_
Module: /mnt/sda5/.user/root/src/openwatcom-1.9/rel2/lib386/nt/clib3r.lib(memcpy.c)
004055c0       memcpy_
Module: /mnt/sda5/.user/root/src/openwatcom-1.9/rel2/lib386/nt/clib3r.lib(fclex387.c)
004055e0       _ClearFPE_
Module: /mnt/sda5/.user/root/src/openwatcom-1.9/rel2/lib386/nt/clib3r.lib(signlwnt.c)
00409470+      __SignalTable
004055f0+      __SetSignalFunc_
00405640+      __GetSignalFunc_
00405670+      __GetSignalOSCode_
004056a0+      __CheckSignalExCode_
004057e0+      __sigabort_
004057f0       __sigfpe_handler_
00405840*      signal_
004058d0+      raise_
00405940+      __SigInit_
00405990+      __SigFini_
004059d0+      __sig_init_
Module: /mnt/sda5/.user/root/src/openwatcom-1.9/rel2/lib386/nt/clib3r.lib(wctomb.c)
004059f0       wctomb_
Module: /mnt/sda5/.user/root/src/openwatcom-1.9/rel2/lib386/nt/clib3r.lib(itoa.c)
00405a30+      utoa_
00405a80       itoa_
Module: /mnt/sda5/.user/root/src/openwatcom-1.9/rel2/lib386/nt/clib3r.lib(strupr.c)
00405ab0       strupr_
Module: /mnt/sda5/.user/root/src/openwatcom-1.9/rel2/lib386/nt/clib3r.lib(noefgfmt.c)
004094dc       ___EFG_printf
004094e0*      ___EFG_scanf
Module: /mnt/sda5/.user/root/src/openwatcom-1.9/rel2/lib386/nt/clib3r.lib(lltoa.c)
00405b20       ulltoa_
00405b90*      lltoa_
Module: /mnt/sda5/.user/root/src/openwatcom-1.9/rel2/lib386/nt/clib3r.lib(ltoa.c)
00405bc0       ultoa_
00405c10*      ltoa_
Module: /mnt/sda5/.user/root/src/openwatcom-1.9/rel2/lib386/nt/clib3r.lib(mbisdbcs.c)
0040aef4       ___IsDBCS
Module: /mnt/sda5/.user/root/src/openwatcom-1.9/rel2/lib386/nt/clib3r.lib(mbislead.c)
00405c40*      _ismbblead_
0040aef8       ___MBCSIsTable
Module: /mnt/sda5/.user/root/src/openwatcom-1.9/rel2/lib386/nt/clib3r.lib(amblksiz.c)
004094e4       __amblksiz
Module: /mnt/sda5/.user/root/src/openwatcom-1.9/rel2/lib386/nt/clib3r.lib(heapen.c)
00405c60*      _heapenable_
004094e8       ___heap_enabled
Module: /mnt/sda5/.user/root/src/openwatcom-1.9/rel2/lib386/nt/clib3r.lib(nheapmin.c)
00405c90       _nheapshrink_
00405c90*      _nheapmin_
00405c90*      _heapmin_
00405c90*      _heapshrink_
Module: /mnt/sda5/.user/root/src/openwatcom-1.9/rel2/lib386/nt/clib3r.lib(nmsize.c)
00405d80       _nmsize_
00405d80*      _msize_
Module: /mnt/sda5/.user/root/src/openwatcom-1.9/rel2/lib386/nt/clib3r.lib(nexpand.c)
00405d90       _nexpand_
00405d90*      _expand_
00405dd0+      __HeapManager_expand_
Module: /mnt/sda5/.user/root/src/openwatcom-1.9/rel2/lib386/nt/clib3r.lib(iomodtty.c)
00405f90       __ChkTTYIOMode_
00405fd0*      __IOMode_
Module: /mnt/sda5/.user/root/src/openwatcom-1.9/rel2/lib386/nt/clib3r.lib(dofilstr.c)
00406010       __ParsePosixHandleStr_
Module: /mnt/sda5/.user/root/src/openwatcom-1.9/rel2/lib386/nt/clib3r.lib(clearenv.c)
00406130       clearenv_
Module: /mnt/sda5/.user/root/src/openwatcom-1.9/rel2/lib386/nt/clib3r.lib(abort.c)
004061d5*      abort_
004061e7       __terminate_
004094ec       ___abort
Module: /mnt/sda5/.user/root/src/openwatcom-1.9/rel2/lib386/nt/clib3r.lib(mbinit.c)
00406233       __mbinit_
004094f0       ___MBCodePage
Module: /mnt/sda5/.user/root/src/openwatcom-1.9/rel2/lib386/nt/clib3r.lib(alphabet.c)
00409274       ___Alphabet
Module: /mnt/sda5/.user/root/src/openwatcom-1.9/rel2/lib386/nt/clib3r.lib(xmsgwnt.c)
00406330+      __exit_with_msg_
00406390       __fatal_runtime_error_
Module: /mnt/sda5/.user/root/src/openwatcom-1.9/rel2/lib386/nt/clib3r.lib(isattwnt.c)
004063b0       isatty_
Module: /mnt/sda5/.user/root/src/openwatcom-1.9/rel2/lib386/nt/clib3r.lib(getenv.c)
004063d0       getenv_
Module: /mnt/sda5/.user/root/src/openwatcom-1.9/rel2/lib386/nt/clib3r.lib(strncpy.c)
00406460       strncpy_
Module: /mnt/sda5/.user/root/src/openwatcom-1.9/rel2/lib386/nt/clib3r.lib(strtol.c)
004066c0*      strtoul_
004066d0       strtol_
Module: /mnt/sda5/.user/root/src/openwatcom-1.9/rel2/lib386/nt/clib3r.lib(putenv.c)
004066e0       putenv_
00406970       __putenv_
Module: /mnt/sda5/.user/root/src/openwatcom-1.9/rel2/lib386/nt/clib3r.lib(enterdb.c)
00406ae0       __EnterWVIDEO_
00409580+      ___WD_Present
Module: /mnt/sda5/.user/root/src/openwatcom-1.9/rel2/lib386/nt/clib3r.lib(mbterm.c)
00406b10       _mbterm_
Module: /mnt/sda5/.user/root/src/openwatcom-1.9/rel2/lib386/nt/clib3r.lib(mbsnextc.c)
00406b50       _mbsnextc_
Module: /mnt/sda5/.user/root/src/openwatcom-1.9/rel2/lib386/nt/clib3r.lib(mbcupper.c)
00406b90       _mbctoupper_
Module: /mnt/sda5/.user/root/src/openwatcom-1.9/rel2/lib386/nt/clib3r.lib(mbsinc.c)
00406bc0       _mbsinc_
Module: /mnt/sda5/.user/root/src/openwatcom-1.9/rel2/lib386/nt/clib3r.lib(tolower.c)
00406bf0       tolower_
Module: /mnt/sda5/.user/root/src/openwatcom-1.9/rel2/lib386/nt/clib3r.lib(mbschr.c)
00406c00       _mbschr_
Module: /mnt/sda5/.user/root/src/openwatcom-1.9/rel2/lib386/nt/clib3r.lib(mbslen.c)
00406c60       _mbslen_
Module: /mnt/sda5/.user/root/src/openwatcom-1.9/rel2/lib386/nt/clib3r.lib(mbstowcs.c)
00406c90       mbstowcs_
Module: /mnt/sda5/.user/root/src/openwatcom-1.9/rel2/lib386/nt/clib3r.lib(uputenv.c)
00406d10*      _wputenv_
00406f30       __wputenv_
Module: /mnt/sda5/.user/root/src/openwatcom-1.9/rel2/lib386/nt/clib3r.lib(toupper.c)
00407030       toupper_
Module: /mnt/sda5/.user/root/src/openwatcom-1.9/rel2/lib386/nt/clib3r.lib(memmove.c)
00407040       memmove_
Module: /mnt/sda5/.user/root/src/openwatcom-1.9/rel2/lib386/nt/clib3r.lib(mbconv.c)
004070a0       _mbvtop_
Module: /mnt/sda5/.user/root/src/openwatcom-1.9/rel2/lib386/nt/clib3r.lib(mbclen.c)
004070c0       _mbclen_
Module: /mnt/sda5/.user/root/src/openwatcom-1.9/rel2/lib386/nt/clib3r.lib(mbccmp.c)
004070f0       _mbccmp_
Module: /mnt/sda5/.user/root/src/openwatcom-1.9/rel2/lib386/nt/clib3r.lib(mbtowc.c)
00407130       mbtowc_
Module: /mnt/sda5/.user/root/src/openwatcom-1.9/rel2/lib386/nt/clib3r.lib(ustrchr.c)
004071c0       wcschr_
Module: /mnt/sda5/.user/root/src/openwatcom-1.9/rel2/lib386/nt/clib3r.lib(setenvar.c)
004071e0       __lib_SetEnvironmentVariableW_
Module: /mnt/sda5/.user/root/src/openwatcom-1.9/rel2/lib386/nt/clib3r.lib(crtwenv.c)
004072d0       __create_wide_environment_
Module: /mnt/sda5/.user/root/src/openwatcom-1.9/rel2/lib386/nt/clib3r.lib(wcstombs.c)
00407340       wcstombs_
Module: /mnt/sda5/.user/root/src/openwatcom-1.9/rel2/lib386/nt/clib3r.lib(utoupper.c)
004073df       towupper_


                        +----------------------+
                        |   Imported Symbols   |
                        +----------------------+

Symbol                              Module
======                              ======

_Netbios@4                          NETAPI32.DLL
_ExitProcess@4                      KERNEL32.DLL
_FreeLibrary@4                      KERNEL32.DLL
_LoadLibraryA@4                     KERNEL32.DLL
_GetProcAddress@8                   KERNEL32.DLL
_GetCommandLineA@0                  KERNEL32.DLL
_WriteConsoleA@20                   KERNEL32.DLL
_PeekConsoleInputA@16               KERNEL32.DLL
_ReadConsoleInputA@16               KERNEL32.DLL
_GetConsoleMode@8                   KERNEL32.DLL
_SetConsoleMode@8                   KERNEL32.DLL
_CreateFileA@28                     KERNEL32.DLL
_GetEnvironmentStringsA@0           KERNEL32.DLL
_GetVersion@0                       KERNEL32.DLL
_GetModuleFileNameA@12              KERNEL32.DLL
_GetCommandLineW@0                  KERNEL32.DLL
_FreeEnvironmentStringsA@4          KERNEL32.DLL
_GetModuleHandleA@4                 KERNEL32.DLL
_GetCurrentThreadId@0               KERNEL32.DLL
_SetStdHandle@8                     KERNEL32.DLL
_CreateEventA@16                    KERNEL32.DLL
_GetStdHandle@4                     KERNEL32.DLL
_CloseHandle@4                      KERNEL32.DLL
_GetModuleFileNameW@12              KERNEL32.DLL
_MultiByteToWideChar@24             KERNEL32.DLL
_WriteFile@20                       KERNEL32.DLL
_SetUnhandledExceptionFilter@4      KERNEL32.DLL
_UnhandledExceptionFilter@4         KERNEL32.DLL
_VirtualQuery@12                    KERNEL32.DLL
_VirtualAlloc@16                    KERNEL32.DLL
_SetConsoleCtrlHandler@8            KERNEL32.DLL
_WideCharToMultiByte@32             KERNEL32.DLL
_VirtualFree@12                     KERNEL32.DLL
_GetACP@0                           KERNEL32.DLL
_GetOEMCP@0                         KERNEL32.DLL
_GetCPInfo@8                        KERNEL32.DLL
_GetFileType@4                      KERNEL32.DLL
_SetEnvironmentVariableA@8          KERNEL32.DLL
_CharUpperA@4                       USER32.DLL
_SetEnvironmentVariableW@8          KERNEL32.DLL


                        +--------------------+
                        |   Libraries Used   |
                        +--------------------+

/mnt/sda5/.user/root/src/openwatcom-1.9/rel2/lib386/nt/kernel32.lib
/mnt/sda5/.user/root/src/openwatcom-1.9/rel2/lib386/nt/user32.lib
/mnt/sda5/.user/root/src/openwatcom-1.9/rel2/lib386/nt/clib3r.lib
/mnt/sda5/.user/root/src/openwatcom-1.9/rel2/lib386/nt/netapi32.lib


                        +-----------------------+
                        |   Linker Statistics   |
                        +-----------------------+

Stack size:  00010000 (65536.)
Memory size:  00018984 (100740.)
Entry point address: 00401fe4
Link time: 00:00.00
