Open Watcom Linker Version 1.9
Portions Copyright (c) 1985-2002 Sybase, Inc. All Rights Reserved.
Created on:       12/12/16 02:40:49
Executable Image: watcom.dll
creating a Windows 16-bit executable


                        +------------+
                        |   Groups   |
                        +------------+

Group                           Address              Size
=====                           =======              ====

DGROUP                          0002:0000            00002f70



                        +--------------+
                        |   Segments   |
                        +--------------+

Segment                Class          Group          Address         Size
=======                =====          =====          =======         ====

dipimp_TEXT            CODE           AUTO           0001:0000       0000041e
wataddr_TEXT           CODE           AUTO           0001:0420       000007e4
watdmnd_TEXT           CODE           AUTO           0001:0c10       00000893
watgbl_TEXT            CODE           AUTO           0001:14b0       00000fa4
watlcl_TEXT            CODE           AUTO           0001:2460       00001b55
watldsym_TEXT          CODE           AUTO           0001:3fc0       000009d4
watlnum_TEXT           CODE           AUTO           0001:49a0       000010b7
watloc_TEXT            CODE           AUTO           0001:5a60       00000c8e
watmisc_TEXT           CODE           AUTO           0001:66f0       00000e1a
watmod_TEXT            CODE           AUTO           0001:7510       00000c1e
wattype_TEXT           CODE           AUTO           0001:8130       000034a0
demangle_TEXT          CODE           AUTO           0001:b5d0       000030b8
_TEXT                  CODE           AUTO           0001:e688       00000d70
FAR_DATA               FAR_DATA       AUTO           0002:0000       00000000
_NULL                  BEGDATA        DGROUP         0002:0000       00000010
AFX_NULL               BEGDATA        DGROUP         0002:0010       00000000
CONST                  DATA           DGROUP         0002:0010       00000026
CONST2                 DATA           DGROUP         0002:0036       00000102
_DATA                  DATA           DGROUP         0002:0140       000002c0
XIB                    DATA           DGROUP         0002:0400       00000000
XI                     DATA           DGROUP         0002:0400       00000000
XIE                    DATA           DGROUP         0002:0400       00000000
YIB                    DATA           DGROUP         0002:0400       00000000
YI                     DATA           DGROUP         0002:0400       00000000
YIE                    DATA           DGROUP         0002:0400       00000000
STRINGS                DATA           DGROUP         0002:0400       00000000
DATA                   DATA           DGROUP         0002:0400       00000000
BCSD                   DATA           DGROUP         0002:0400       00000000
_BSS                   BSS            DGROUP         0002:0400       00000b66
STACK                  STACK          DGROUP         0002:0f70       00002000


                        +----------------+
                        |   Memory Map   |
                        +----------------+

* = unreferenced symbol
+ = symbol only referenced locally

Address        Symbol
=======        ======

Module: dipimp.obj(/mnt/sda5/.user/root/src/openwatcom-1.9/bld/dip/c/dipimp.c)
0002:0400      _NilAddr
0002:0408+     _Client
0001:0000+     DIPUNLOAD
0001:0020      WINMAIN
0001:010e+     DIPLOAD
0001:0180      DCAlloc_
0001:0192*     DCAllocZ_
0001:01d8      DCRealloc_
0001:01ea      DCFree_
0001:01fc      DCMapAddr_
0001:020e      DCSymCreate_
0001:0220      DCItemLocation_
0001:023e      DCAssignLocation_
0001:025c      DCSameAddrSpace_
0001:028c      DCAddrSection_
0001:029e*     DCOpen_
0001:02b2      DCSeek_
0001:02c6      DCRead_
0001:02d8*     DCReadAt_
0001:0344*     DCWrite_
0001:0356      DCClose_
0001:0368*     DCRemove_
0001:037c      DCStatus_
0001:038e*     DCCurrMAD_
0001:03ae*     DCMachineData_
0001:03f2+     DIPIMPOLDTYPEBASE
0002:0140      _ImpInterface
Module: wataddr.obj(/mnt/sda5/.user/root/src/openwatcom-1.9/bld/dip/watcom/c/wataddr.c)
0001:0420      AdjustAddrInit_
0001:042c      AdjustAddrs_
0001:07f2      FindModBase_
0001:0914      FindSegBlock_
0001:0a92      AddrInfoSplit_
0001:0acc      AddrInfoFini_
0001:0adc      DIPIMPADDRMOD
0001:0bc4      DIPIMPMODADDR
Module: watdmnd.obj(/mnt/sda5/.user/root/src/openwatcom-1.9/bld/dip/watcom/c/watdmnd.c)
0001:0c10      InfoSize_
0001:0d10+     WlkDmnd_
0001:0ea8      InitDemand_
0001:0f82      FiniDemand_
0001:0fa6+     WlkClear_
0001:1058      InfoClear_
0001:1072      InfoUnlock_
0001:10ba      InfoLoad_
0001:13c0      InfoSpecLock_
0001:13ce      InfoSpecUnlock_
0001:1456      InfoRelease_
Module: watgbl.obj(/mnt/sda5/.user/root/src/openwatcom-1.9/bld/dip/watcom/c/watgbl.c)
0001:14b0      GblSymFini_
0001:197c      SearchGbl_
0001:1b8e      LookupGblAddr_
0001:1d72      AdjustSyms_
0001:1fc8      MakeGblLst_
0001:2024      GblSymSplit_
0001:2090      SymHdl2GblLoc_
0001:20f6      SymHdl2GblInfo_
0001:215c      SymHdl2GblName_
0001:21e8      SymHdl2ObjGblName_
0001:2244      SymHdl2GblType_
0001:229a      GblTypeClassify_
0001:22ac      WalkGblModSymList_
0001:242c      Link2GblHdl_
Module: watlcl.obj(/mnt/sda5/.user/root/src/openwatcom-1.9/bld/dip/watcom/c/watlcl.c)
0001:2460      GetIndex_
0001:248a      KillLclLoadStack_
0001:24ee      GetAddress_
0001:2c84      SearchLclMod_
0001:3016      SearchLclScope_
0001:3088      LookupLclAddr_
0001:31c0      SymHdl2LclName_
0001:32a0      SymHdl2LclLoc_
0001:331c      SymHdl2LclType_
0001:339a      SetGblLink_
0001:33aa      Lcl2GblHdl_
0001:34b6      SymHdl2LclInfo_
0001:36ae      SymHdl2LclParmLoc_
0001:3794      DIPIMPSYMOBJTYPE
0001:38e6      DIPIMPSYMOBJLOCATION
0001:3b90      WalkScopedSymList_
0001:3c74      WalkBlockSymList_
0001:3d42      WalkLclModSymList_
0001:3dfc      DIPIMPADDRSCOPE
0001:3eaa      DIPIMPSCOPEOUTER
Module: watldsym.obj(/mnt/sda5/.user/root/src/openwatcom-1.9/bld/dip/watcom/c/watldsym.c)
0001:408a      DIPIMPUNLOADINFO
0001:475c      DIPIMPLOADINFO
0001:47c2      InfoRead_
0001:4832      DIPIMPMAPINFO
0001:490e      AddressMap_
Module: watlnum.obj(/mnt/sda5/.user/root/src/openwatcom-1.9/bld/dip/watcom/c/watlnum.c)
0001:4fca      DIPIMPADDRCUE
0001:51ba      DIPIMPLINECUE
0001:527c      DIPIMPCUELINE
0001:52f6      DIPIMPCUECOLUMN
0001:5308      DIPIMPCUEADDR
0001:53ec      DIPIMPWALKFILELIST
0001:5534      DIPIMPCUEMOD
0001:554a      DIPIMPCUEFILEID
0001:55c2      DIPIMPCUEFILE
0001:596a      DIPIMPCUEADJUST
0001:59f4      DIPIMPCUECMP
Module: watloc.obj(/mnt/sda5/.user/root/src/openwatcom-1.9/bld/dip/watcom/c/watloc.c)
0001:5aac      LocationCreate_
0001:5af8      LocationAdd_
0001:5c52      LocationTrunc_
0001:5d56      SkipLocation_
0001:5d6c      InfoLocation_
0001:6022      RegSize_
0001:6034      PushBaseLocation_
0001:607a      EvalLocation_
Module: watmisc.obj(/mnt/sda5/.user/root/src/openwatcom-1.9/bld/dip/watcom/c/watmisc.c)
0001:66f0      _DIPImpName
0001:66f8      DIPIMPQUERYHANDLESIZE
0001:6714      DIPIMPSTARTUP
0001:6724      DIPIMPSHUTDOWN
0001:6738      DIPIMPCANCEL
0001:6756      DIPIMPMOREMEM
0001:676c      DIPIMPSYMMOD
0001:6782      DIPIMPADDRSYM
0001:681c      DIPIMPSYMNAME
0001:6bce+     DoLookupSym_
0001:6eb4      DIPIMPLOOKUPSYM
0001:6eea      DIPIMPLOOKUPSYMEX
0001:6f22      DIPIMPSYMLOCATION
0001:6f8e      DIPIMPSYMVALUE
0001:6fd0      DIPIMPSYMTYPE
0001:706a      DIPIMPSYMINFO
0001:7114      DIPIMPSYMPARMLOCATION
0001:7154+     WalkMySyms_
0001:71a2+     DoWalkSymList_
0001:72e0      DIPIMPWALKSYMLIST
0001:7318      DIPIMPWALKSYMLISTEX
0001:7350      DIPIMPMODDEFAULT
0001:7384      DIPIMPSYMCMP
0001:74d4      DIPIMPSYMADDREF
0001:74e6      DIPIMPSYMRELEASE
0001:74f8      DIPIMPSYMFREEALL
Module: watmod.obj(/mnt/sda5/.user/root/src/openwatcom-1.9/bld/dip/watcom/c/watmod.c)
0001:7510      FindInfo_
0001:754c      ModPointer_
0001:7922      AdjustMods_
0001:7c12      SetModBase_
0001:7ca6      ModInfoFini_
0001:7d44      ModInfoSplit_
0001:7d94      ModOff2Idx_
0001:7dda      DIPIMPWALKMODLIST
0001:7ea6      MyWalkModList_
0001:7f72      DIPIMPMODSRCLANG
0001:7faa      DIPIMPMODINFO
0001:7ffa      DIPIMPMODNAME
0001:80d0      PrimaryCueFile_
Module: wattype.obj(/mnt/sda5/.user/root/src/openwatcom-1.9/bld/dip/watcom/c/wattype.c)
0001:81a6      KillTypeLoadStack_
0001:86aa      ClearTypeCache_
0001:89fe      FindTypeHandle_
0001:8c86      LookupTypeName_
0001:8ec8      SearchEnumName_
0001:8ee6      SearchTypeName_
0001:8f04      DIPIMPWALKTYPELIST
0001:9664      DIPIMPTYPEINFO
0001:9696      DIPIMPTYPEBASE
0001:9874      DIPIMPTYPEARRAYINFO
0001:9c3c      DIPIMPTYPEPROCINFO
0001:9d94      DIPIMPTYPEPTRADDRSPACE
0001:9ee4      SymHdl2CstName_
0001:9fce      SymHdl2TypName_
0001:9fe4      SymHdl2MbrName_
0001:a002      SymHdl2CstValue_
0001:a14e      SymHdl2CstType_
0001:a184      SymHdl2TypType_
0001:a1ba      SymHdl2MbrType_
0001:a28a      SymHdl2MbrLoc_
0001:a86c      SymHdl2MbrInfo_
0001:aa3c      DIPIMPTYPETHUNKADJUST
0001:ad8c      SearchMbr_
0001:b088      WalkTypeSymList_
0001:b3e8      DIPIMPTYPEMOD
0001:b3fe      FindSpecCueTable_
0001:b524      DIPIMPTYPECMP
0001:b588      DIPIMPTYPENAME
0001:b59a      DIPIMPTYPEADDREF
0001:b5ac      DIPIMPTYPERELEASE
0001:b5be      DIPIMPTYPEFREEALL
Module: demangle.obj(/mnt/sda5/.user/root/src/openwatcom-1.9/bld/lib_misc/c/demangle.c)
0001:dff2*     __demangle_t_
0001:e058      __demangle_l_
0001:e0c6*     __demangle_r_
0001:e17a      __scope_name_
0001:e21e      __is_mangled_
0001:e312      __is_mangled_internal_
0001:e346      __unmangled_name_
0001:e410*     __demangled_basename_
0001:e488*     __parse_mangled_name_
0001:e4fa      __mangle_operator_
Module: /mnt/sda5/.user/root/src/openwatcom-1.9/rel2/lib286/win/clibl.lib(strtol.c)
0001:e8ce      strtoul_
0001:e8e2*     strtol_
Module: /mnt/sda5/.user/root/src/openwatcom-1.9/rel2/lib286/win/clibl.lib(wstart)
0000:0006*     pLocalHeap
0000:0008*     pAtomTable
0000:000a*     pStackTop
0000:000c*     pStackMin
0000:000e*     pStackBot
0002:0000*     __nullarea
0002:0302*     __curbrk
0002:0304*     __psp
0002:0306*     __osmajor
0002:0307*     __osminor
0002:0308*     __osmode
0002:000a*     __STACKLOW
0002:000c*     __STACKTOP
0002:030a*     __cbyte
0002:030c*     __child
0002:030e*     __no87
0002:0309*     __HShift
0002:0310*     __get_ovl_stack
0002:0314*     __restore_ovl_stack
0002:0318*     ___FPE_handler
0002:031c*     __LpCmdLine
0002:0320*     __LpPgmName
0001:e8ec      _wstart_
0001:e8ec*     _cstart_
0001:e9cd      __exit_
0001:e9de      __GETDS
Module: /mnt/sda5/.user/root/src/openwatcom-1.9/rel2/lib286/win/clibl.lib(cmodel)
0001:e9e0      _big_code_
0001:e9e0*     CodeModelMismatch
Module: /mnt/sda5/.user/root/src/openwatcom-1.9/rel2/lib286/win/clibl.lib(toupper.c)
0001:e9e0      toupper_
Module: /mnt/sda5/.user/root/src/openwatcom-1.9/rel2/lib286/win/clibl.lib(memcmp.c)
0001:e9ee      memcmp_
Module: /mnt/sda5/.user/root/src/openwatcom-1.9/rel2/lib286/win/clibl.lib(memicmp.c)
0001:ea18      memicmp_
Module: /mnt/sda5/.user/root/src/openwatcom-1.9/rel2/lib286/win/clibl.lib(qsort.c)
0001:eae1      qsort_
Module: /mnt/sda5/.user/root/src/openwatcom-1.9/rel2/lib286/win/clibl.lib(stricmp.c)
0001:f06b      stricmp_
Module: /mnt/sda5/.user/root/src/openwatcom-1.9/rel2/lib286/win/clibl.lib(i4m)
0001:f0aa*     __I4M
0001:f0aa      __U4M
Module: /mnt/sda5/.user/root/src/openwatcom-1.9/rel2/lib286/win/clibl.lib(memmove.c)
0001:f0c2      memmove_
Module: /mnt/sda5/.user/root/src/openwatcom-1.9/rel2/lib286/win/clibl.lib(itoa.c)
0001:f13b+     utoa_
0001:f19e      itoa_
Module: /mnt/sda5/.user/root/src/openwatcom-1.9/rel2/lib286/win/clibl.lib(istable.c)
0002:0036      __IsTable
Module: /mnt/sda5/.user/root/src/openwatcom-1.9/rel2/lib286/win/clibl.lib(tolower.c)
0001:f1c6      tolower_
Module: /mnt/sda5/.user/root/src/openwatcom-1.9/rel2/lib286/win/clibl.lib(strncmp.c)
0001:f1d4      strncmp_
Module: /mnt/sda5/.user/root/src/openwatcom-1.9/rel2/lib286/win/clibl.lib(seterrno.c)
0001:f216      __set_errno_
0001:f231*     __set_EDOM_
0001:f248*     __set_ERANGE_
0001:f25e*     __set_EINVAL_
0001:f277*     __set_doserrno_
Module: /mnt/sda5/.user/root/src/openwatcom-1.9/rel2/lib286/win/clibl.lib(exit.c)
0001:f287+     __null_int23_exit_
0001:f288      exit_
0001:f2c1*     _exit_
0002:03b4+     ___int23_exit
0002:03b8+     ___FPE_handler_exit
Module: /mnt/sda5/.user/root/src/openwatcom-1.9/rel2/lib286/win/clibl.lib(initrtns.c)
0001:f311      __FInitRtns
0001:f31c+     __InitRtns
0001:f37a      __FFiniRtns
0001:f385      __FiniRtns
Module: /mnt/sda5/.user/root/src/openwatcom-1.9/rel2/lib286/win/clibl.lib(dosseg)
0001:f3ea      __DOSseg__
Module: /mnt/sda5/.user/root/src/openwatcom-1.9/rel2/lib286/win/clibl.lib(alphabet.c)
0002:0010      ___Alphabet
Module: /mnt/sda5/.user/root/src/openwatcom-1.9/rel2/lib286/win/clibl.lib(errno.c)
0001:f3eb      __get_errno_ptr_
0001:f3f1      __get_doserrno_ptr_
0002:0f62+     _errno
0002:0f64+     __doserrno
Module: /mnt/sda5/.user/root/src/openwatcom-1.9/rel2/lib286/win/clibl.lib(winrtns.c)
0002:03bc*     __WindowsIsWindowedHandle
0002:03c0*     __WindowsRemoveWindowedHandle
0002:03c4*     __WindowsNewWindow
0002:03c8*     __WindowsCloseWindow
0002:03cc*     __WindowsSetAbout
0002:03d0*     __WindowsSetAppTitle
0002:03d4*     __WindowsSetConTitle
0002:03d8*     __WindowsDestroyOnClose
0002:03dc*     __WindowsYieldControl
0002:03e0*     __WindowsShutDown
0002:03e4*     __WindowsStdin
0002:03e8*     __WindowsStdout
0002:03ec*     __WindowsKbhit
0002:03f0*     __WindowsGetch
0002:03f4*     __WindowsGetche
0002:03f8*     __WindowsPutch
0002:03fc      __WindowsExitRtn
Module: /mnt/sda5/.user/root/src/openwatcom-1.9/rel2/lib286/win/clibl.lib(sgdef086)
0002:0400      __Start_XI
0002:0400      __End_XI
0002:0400      __Start_YI
0002:0400      __End_YI


                        +----------------------+
                        |   Imported Symbols   |
                        +----------------------+

Symbol                              Module
======                              ======

POSTAPPMESSAGE                      USER
GETCURRENTTASK                      KERNEL
MAKEPROCINSTANCE                    KERNEL
GETMESSAGE                          USER
TRANSLATEMESSAGE                    USER
DISPATCHMESSAGE                     USER
FREEPROCINSTANCE                    KERNEL
INITTASK                            KERNEL
GETMODULEFILENAME                   KERNEL
INITAPP                             USER
WAITEVENT                           KERNEL
__AHSHIFT                           KERNEL


                        +--------------------+
                        |   Libraries Used   |
                        +--------------------+

/mnt/sda5/.user/root/src/openwatcom-1.9/rel2/lib286/win/windows.lib
/mnt/sda5/.user/root/src/openwatcom-1.9/rel2/lib286/win/clibl.lib


                        +-----------------------+
                        |   Linker Statistics   |
                        +-----------------------+

Stack size:  2000 (8192.)
Memory size:  00012368 (74600.)
Entry point address: 0001:e8ec
Link time: 00:00.00
