Open Watcom Linker Version 1.9
Portions Copyright (c) 1985-2002 Sybase, Inc. All Rights Reserved.
Created on:       12/12/16 02:39:48
Executable Image: std.dll
creating a Windows NT dynamic link library


                        +------------+
                        |   Groups   |
                        +------------+

Group                           Address              Size
=====                           =======              ====

.idata                          6e90e000             00000aa9
DGROUP                          6e90f000             00001eb0



                        +--------------+
                        |   Segments   |
                        +--------------+

Segment                Class          Group          Address         Size
=======                =====          =====          =======         ====

BEGTEXT                CODE           AUTO           6e901000        00000007
_TEXT                  CODE           AUTO           6e901010        0000c3ff
TRANSFER CODE          CODE           AUTO           6e90d410        00000252
.idata                 .idata         .idata         6e90e000        00000aa9
_NULL                  BEGDATA        DGROUP         6e90f000        00000004
_AFTERNULL             BEGDATA        DGROUP         6e90f004        00000000
CONST                  DATA           DGROUP         6e90f004        0000078c
CONST2                 DATA           DGROUP         6e90f790        0000013c
_DATA                  DATA           DGROUP         6e90f8cc        00000288
XIB                    DATA           DGROUP         6e90fb54        00000000
XI                     DATA           DGROUP         6e90fb54        00000012
XIE                    DATA           DGROUP         6e90fb66        00000000
YIB                    DATA           DGROUP         6e90fb66        00000000
YI                     DATA           DGROUP         6e90fb66        00000012
YIE                    DATA           DGROUP         6e90fb78        00000000
TIB                    DATA           DGROUP         6e90fb78        00000000
TI                     DATA           DGROUP         6e90fb78        00000000
TIE                    DATA           DGROUP         6e90fb78        00000000
DATA                   DATA           DGROUP         6e90fb78        00000000
_BSS                   BSS            DGROUP         6e910000        00000eb0
STACK                  STACK          DGROUP         6e910eb0        00000000


                        +----------------+
                        |   Memory Map   |
                        +----------------+

* = unreferenced symbol
+ = symbol only referenced locally

Address        Symbol
=======        ======

Module: ntstrt.obj(/mnt/sda5/.user/root/src/openwatcom-1.9/bld/trap/common/nt/ntstrt.c)
6e901010       _LibMain@12
Module: mxutil.obj(/mnt/sda5/.user/root/src/openwatcom-1.9/bld/trap/common/mxutil.c)
6e901020       GetInPtr_
6e901050       GetOutPtr_
6e901080       GetTotalSize_
6e910000       _In_Mx_Ptr
6e910004       _Out_Mx_Ptr
6e910008       _Out_Mx_Num
6e910009       _In_Mx_Num
Module: x86cpu.obj(/mnt/sda5/.user/root/src/openwatcom-1.9/bld/trap/lcl/c/x86cpu.c)
6e9010c0       X86CPUType_
Module: task.obj(/mnt/sda5/.user/root/src/openwatcom-1.9/bld/trap/lcl/nt/c/task.c)
6e901160       TrapInit_
6e901380       TrapFini_
6e9013b0       InfoFunction_
Module: globals.obj(/mnt/sda5/.user/root/src/openwatcom-1.9/bld/trap/lcl/nt/c/globals.c)
6e91000c       _DebugEvent
6e91006c       _pVDMGetThreadSelectorEntry
6e910070       _pVDMGetThreadContext
6e910074       _pVDMSetThreadContext
6e910078       _pGetMappedFileName
6e91007c       _pVDMModuleNext
6e910080       _PendingProgramInterrupt
6e910084       _BreakOnKernelMessage
6e910088       _pVDMModuleFirst
6e91008c       _pOpenThread
6e910090       _pModule32First
6e910094       _LastDebugEventTid
6e910098       _pQueryDosDevice
6e91009c       _pVDMEnumProcessWOW
6e9100a0       _WOWAppInfo
6e9100bc       _pModule32Next
6e9100c0       _DebuggerWindow
6e9100c4       _pVDMProcessException
6e9100c8       _pCreateToolhelp32Snapshot
6e9100cc       _pVDMGetModuleSelector
6e9100d0       _DebugString
6e9100d4       _StopForDLLs
6e9100d8       _IsWin32s
6e9100dc       _CurrEXEName
6e9101e0       _IsWinNT
6e9101e4       _DLLPath
6e9101e8       _ModuleTop
6e9101ec       _DidWaitForDebugEvent
6e9101f0       _IsDOS
6e9101f4       _IsWOW
6e9101f8       _UseVDMStuff
6e9101fc       _Slaying
6e910200       _IsWin95
6e910204       _LastExceptionCode
6e910208       _DebugeeEnded
6e91020c       _DebugeePid
6e910210       _DebugeeTid
6e910214       _ProcessInfo
6e90f8cc       _ExtensionList
6e90f8d8       _CurrentModule
6e90f8dc       _MsgPrefix
6e90f8e0       _Supporting8ByteBreakpoints
6e90f8e4       _SupportingExactBreakpoints
6e910228       _FlatCS
6e91022a       _FlatDS
6e91022c       _WPCount
6e91022e       _DebugeeSubsystem
Module: accmisc.obj(/mnt/sda5/.user/root/src/openwatcom-1.9/bld/trap/lcl/nt/c/accmisc.c)
6e9013c0       IsBigSel_
6e901420       ReqAddr_info_
6e901450       ReqMachine_data_
6e9014b0       ReqGet_sys_config_
6e901530       ReqGet_message_text_
6e901b20       ReqGet_next_alias_
6e901bd0       AddMessagePrefix_
6e901c30       ReqGet_err_text_
6e901e20       FindFilePath_
6e901f30       ReqSplit_cmd_
6e901ff0       ReqSet_user_screen_
6e901ff0       ReqRead_io_
6e902000       ReqWrite_io_
6e902010       ReqSet_debug_screen_
6e902020*      say_
Module: accload.obj(/mnt/sda5/.user/root/src/openwatcom-1.9/bld/trap/lcl/nt/c/accload.c)
6e902390       ReqProg_load_
6e902ce0       ReqProg_kill_
Module: accio.obj(/mnt/sda5/.user/root/src/openwatcom-1.9/bld/trap/lcl/nt/c/accio.c)
6e902d10       ReqFile_get_config_
6e902d30       ReqRead_user_keyboard_
6e902d70       ReqFile_open_
6e902e40       ReqFile_seek_
6e902ea0       ReqFile_write_
6e902f20       ReqFile_write_console_
6e902fb0       ReqFile_read_
6e903020       ReqFile_close_
6e903070       ReqFile_erase_
6e9030b0       ReqFile_run_cmd_
6e9030d0       ReqFile_string_to_fullpath_
Module: accfinfo.obj(/mnt/sda5/.user/root/src/openwatcom-1.9/bld/trap/lcl/nt/c/accfinfo.c)
6e903180       ReqFileInfo_getdate_
6e903210       ReqFileInfo_setdate_
Module: accenv.obj(/mnt/sda5/.user/root/src/openwatcom-1.9/bld/trap/lcl/nt/c/accenv.c)
6e9032c0       ReqEnv_setvar_
6e903330       ReqEnv_getvar_
Module: accbrwat.obj(/mnt/sda5/.user/root/src/openwatcom-1.9/bld/trap/lcl/nt/c/accbrwat.c)
6e9033a0       ReqSet_break_
6e903430       ReqClear_break_
6e903480       FindBreak_
6e9034f0+      SetDR7_
6e903540       GetDR6_
6e9035d0       ClearDebugRegs_
6e903610       SetDebugRegs_
6e9039c0       CheckWatchPoints_
6e903ae0       ReqSet_watch_
6e903cf0       ReqClear_watch_
Module: accrun.obj(/mnt/sda5/.user/root/src/openwatcom-1.9/bld/trap/lcl/nt/c/accrun.c)
6e903e40       InterruptProgram_
6e903e70       Terminate_
6e9040f0       DebugExecute_
6e9048c0       ReqProg_go_
6e9048d0       ReqProg_step_
Module: accregs.obj(/mnt/sda5/.user/root/src/openwatcom-1.9/bld/trap/lcl/nt/c/accregs.c)
6e904b70       ReqRead_cpu_
6e904bd0       ReqRead_fpu_
6e904c50       ReqWrite_cpu_
6e904cb0       ReqWrite_fpu_
6e904d20       ReqRead_regs_
6e904de0       ReqWrite_regs_
6e904e90       AdjustIP_
6e904eb0       SetIP_
Module: accmap.obj(/mnt/sda5/.user/root/src/openwatcom-1.9/bld/trap/lcl/nt/c/accmap.c)
6e904f00       FreeLibList_
6e9050a0       RemoveModuleFromLibList_
6e9051b0*      FindExceptInfo_
6e9052c0       AddProcess_
6e9053b0+      NameFromProcess_
6e905480+      NameFromHandle_
6e9056b0       AddLib_
6e905880       DelLib_
6e905910       DelProcess_
6e905a90       ReqMap_addr_
6e905c60       ReqGet_lib_name_
6e905d20       GetMagicalFileHandle_
6e905d80       IsMagicalFileHandle_
Module: accredir.obj(/mnt/sda5/.user/root/src/openwatcom-1.9/bld/trap/lcl/nt/c/accredir.c)
6e905de0       ReqRedirect_stdout_
6e905de0       ReqRedirect_stdin_
Module: accmem.obj(/mnt/sda5/.user/root/src/openwatcom-1.9/bld/trap/lcl/nt/c/accmem.c)
6e905ea0       ReadMem_
6e905f30       WriteMem_
6e905fa0       ReqRead_mem_
6e905fe0       ReqWrite_mem_
6e906050       ReqChecksum_mem_
Module: misc.obj(/mnt/sda5/.user/root/src/openwatcom-1.9/bld/trap/lcl/nt/c/misc.c)
6e9060e0       MyGetThreadContext_
6e9061c0       MySetThreadContext_
Module: thread.obj(/mnt/sda5/.user/root/src/openwatcom-1.9/bld/trap/lcl/nt/c/thread.c)
6e906240       AddThread_
6e906290       FindThread_
6e9062b0       DeadThread_
6e9062c0       RemoveAllThreads_
6e9062f0       ReqThread_freeze_
6e906360       ReqThread_thaw_
6e9063d0       ReqThread_set_
6e906430       ReqThread_get_next_
6e906510       ReqThread_get_extra_
Module: peread.obj(/mnt/sda5/.user/root/src/openwatcom-1.9/bld/trap/lcl/nt/c/peread.c)
6e9065c0+      SeekRead_
6e906610       GetEXEHeader_
6e9067d0       GetModuleName_
Module: supp.obj(/mnt/sda5/.user/root/src/openwatcom-1.9/bld/trap/lcl/c/supp.c)
6e906960       ReqGet_supplementary_service_
6e9069d0       ReqPerform_supplementary_service_
Module: dbgthrd.obj(/mnt/sda5/.user/root/src/openwatcom-1.9/bld/trap/lcl/nt/c/dbgthrd.c)
6e906b20       ProcessQueuedRepaints_
6e906f20       ParseServiceStuff_
6e907a70       StartControlThread_
6e907b20       MyWaitForDebugEvent_
6e907b40       MyContinueDebugEvent_
6e907bc0       StopControlThread_
Module: supphdlr.obj(/mnt/sda5/.user/root/src/openwatcom-1.9/bld/trap/lcl/nt/c/supphdlr.c)
6e907c20       ReqCapabilities_get_exact_bp_
6e907c20       ReqCapabilities_get_8b_bp_
6e907c50       ReqCapabilities_set_8b_bp_
6e907c90       ReqCapabilities_set_exact_bp_
Module: core.obj(/mnt/sda5/.user/root/src/openwatcom-1.9/bld/trap/lcl/c/core.c)
6e907cd0+      ReqConnect_
6e907d00+      ReqResume_
6e907d00+      ReqSuspend_
6e907d00+      ReqDisconnect_
6e907d10       TrapRequest_
Module: /mnt/sda5/.user/root/src/openwatcom-1.9/rel2/lib386/nt/clib3r.lib(crwdata)
6e90f940       __osmajor
6e90f941       __osminor
6e90f942       __osbuild
6e90f944       __osver
6e90f948       __winmajor
6e90f94c       __winminor
6e90f950       __winver
6e90f90c       __LpDllName
6e90f910       __LpwCmdLine
6e90f914       __LpwPgmName
6e90f918       __LpwDllName
6e90f904       __LpCmdLine
6e90f908       __LpPgmName
6e90f8fc*      __dynend
6e90f900       __curbrk
6e90f91c*      __STACKLOW
6e90f920       __STACKTOP
6e90f924*      __ASTACKSIZ
6e90f928*      __ASTACKPTR
6e90f92c*      __cbyte
6e90f930*      __cbyte2
6e90f934*      __child
6e90f93a       __Envptr
6e90f93e*      __Envseg
6e90f938*      __no87
6e90f954       ___FPE_handler
Module: /mnt/sda5/.user/root/src/openwatcom-1.9/rel2/lib386/nt/clib3r.lib(itoa.c)
6e907d40+      utoa_
6e907d90       itoa_
Module: /mnt/sda5/.user/root/src/openwatcom-1.9/rel2/lib386/nt/clib3r.lib(vsprintf.c)
6e907de0       vsprintf_
Module: /mnt/sda5/.user/root/src/openwatcom-1.9/rel2/lib386/nt/clib3r.lib(_strcmp)
6e907e00       strcmp_
Module: /mnt/sda5/.user/root/src/openwatcom-1.9/rel2/lib386/nt/clib3r.lib(nmalloc.c)
6e907f40       _nmalloc_
6e907f40       malloc_
6e90f958       ___nheapbeg
6e90f95c       ___MiniHeapRover
6e90f960       ___LargestSizeB4MiniHeapRover
Module: /mnt/sda5/.user/root/src/openwatcom-1.9/rel2/lib386/nt/clib3r.lib(istable.c)
6e908040       __IsTable
Module: /mnt/sda5/.user/root/src/openwatcom-1.9/rel2/lib386/nt/clib3r.lib(strtol.c)
6e908370       strtoul_
6e908380       strtol_
Module: /mnt/sda5/.user/root/src/openwatcom-1.9/rel2/lib386/nt/clib3r.lib(nfree.c)
6e908390       _nfree_
6e908390       free_
6e910764       ___MiniHeapFreeRover
Module: /mnt/sda5/.user/root/src/openwatcom-1.9/rel2/lib386/nt/clib3r.lib(atoi.c)
6e9084a0       atoi_
Module: /mnt/sda5/.user/root/src/openwatcom-1.9/rel2/lib386/nt/clib3r.lib(ntfio.c)
6e9084f0*      __GetNTCreateAttr_
6e908530       __GetNTAccessAttr_
6e908560       __GetNTShareAttr_
Module: /mnt/sda5/.user/root/src/openwatcom-1.9/rel2/lib386/nt/clib3r.lib(stricmp.c)
6e9085c0       stricmp_
Module: /mnt/sda5/.user/root/src/openwatcom-1.9/rel2/lib386/nt/clib3r.lib(ltoa.c)
6e908600       ultoa_
6e908650*      ltoa_
Module: /mnt/sda5/.user/root/src/openwatcom-1.9/rel2/lib386/nt/clib3r.lib(strncmp.c)
6e908680       strncmp_
Module: /mnt/sda5/.user/root/src/openwatcom-1.9/rel2/lib386/nt/clib3r.lib(memset.c)
6e9086b0       memset_
Module: /mnt/sda5/.user/root/src/openwatcom-1.9/rel2/lib386/nt/clib3r.lib(strnicmp.c)
6e9086d0       strnicmp_
Module: /mnt/sda5/.user/root/src/openwatcom-1.9/rel2/lib386/nt/clib3r.lib(sprintf.c)
6e908720       sprintf_
Module: /mnt/sda5/.user/root/src/openwatcom-1.9/rel2/lib386/nt/clib3r.lib(strlcpy.c)
6e908750       strlcpy_
Module: /mnt/sda5/.user/root/src/openwatcom-1.9/rel2/lib386/nt/clib3r.lib(calloc.c)
6e9087a0       calloc_
Module: /mnt/sda5/.user/root/src/openwatcom-1.9/rel2/lib386/nt/clib3r.lib(strrchr.c)
6e9087c0       strrchr_
Module: /mnt/sda5/.user/root/src/openwatcom-1.9/rel2/lib386/nt/clib3r.lib(splitpat.c)
6e908820       _splitpath_
Module: /mnt/sda5/.user/root/src/openwatcom-1.9/rel2/lib386/nt/clib3r.lib(makepath.c)
6e908910       _makepath_
Module: /mnt/sda5/.user/root/src/openwatcom-1.9/rel2/lib386/nt/clib3r.lib(strlwr.c)
6e908ac0       strlwr_
Module: /mnt/sda5/.user/root/src/openwatcom-1.9/rel2/lib386/nt/clib3r.lib(strstr.c)
6e908ae0       strstr_
Module: /mnt/sda5/.user/root/src/openwatcom-1.9/rel2/lib386/nt/clib3r.lib(alphabet.c)
6e90f768       ___Alphabet
Module: /mnt/sda5/.user/root/src/openwatcom-1.9/rel2/lib386/nt/clib3r.lib(prtf.c)
6e908b90       __prtf_
Module: /mnt/sda5/.user/root/src/openwatcom-1.9/rel2/lib386/nt/clib3r.lib(mainwnt.c)
6e90f9f0*      ___TlsIndex
6e90f9f4+      ___FirstThreadData
6e90f9f8       ___GetThreadPtr
6e90f9fc       __AccessFileH
6e90fa00       __ReleaseFileH
6e90fa04       __AccessIOB
6e90fa08       __ReleaseIOB
6e90fa0c       __AccessNHeap
6e90fa10*      __AccessFHeap
6e90fa14       __ReleaseNHeap
6e909870*      __threadid_
6e909890+      __sig_null_rtn_
6e9098a0+      __NTInit_
6e909a80+      __NTFini_
6e909ae0*      __NTMainInit_
6e909b40       __exit_
6e90fa18*      __ReleaseFHeap
6e90fa1c*      __AccessTDList
6e90fa20*      __ReleaseTDList
6e90fa24       __AccessFList
6e90fa28       __ReleaseFList
6e90fa2c+      __ThreadExitRtn
6e90fa30       ___sig_init_rtn
6e90fa34       ___sig_fini_rtn
6e90fa38+      ___process_fini
6e910770+      ___Is_DLL
Module: /mnt/sda5/.user/root/src/openwatcom-1.9/rel2/lib386/nt/clib3r.lib(nmemneed.c)
6e909b90       __nmemneed_
Module: /mnt/sda5/.user/root/src/openwatcom-1.9/rel2/lib386/nt/clib3r.lib(mem.c)
6e909ba0       __MemAllocator
6e909c50       __MemFree
Module: /mnt/sda5/.user/root/src/openwatcom-1.9/rel2/lib386/nt/clib3r.lib(grownear.c)
6e909ef0       __ExpandDGROUP_
Module: /mnt/sda5/.user/root/src/openwatcom-1.9/rel2/lib386/nt/clib3r.lib(tolower.c)
6e909f10       tolower_
Module: /mnt/sda5/.user/root/src/openwatcom-1.9/rel2/lib386/nt/clib3r.lib(seterrno.c)
6e909f1e       __set_errno_
6e909f2c*      __set_EDOM_
6e909f3a*      __set_ERANGE_
6e909f48*      __set_EINVAL_
6e909f5b*      __set_doserrno_
Module: /mnt/sda5/.user/root/src/openwatcom-1.9/rel2/lib386/nt/clib3r.lib(__stos)
6e909f70       __STOSB
6e909fa7*      __STOSD
Module: /mnt/sda5/.user/root/src/openwatcom-1.9/rel2/lib386/nt/clib3r.lib(mbsnccnt.c)
6e90a020       _mbsnccnt_
Module: /mnt/sda5/.user/root/src/openwatcom-1.9/rel2/lib386/nt/clib3r.lib(mbsncpy.c)
6e90a050       _mbsncpy_
Module: /mnt/sda5/.user/root/src/openwatcom-1.9/rel2/lib386/nt/clib3r.lib(mbsnbcnt.c)
6e90a070       _mbsnbcnt_
Module: /mnt/sda5/.user/root/src/openwatcom-1.9/rel2/lib386/nt/clib3r.lib(mbsnextc.c)
6e90a0e0       _mbsnextc_
Module: /mnt/sda5/.user/root/src/openwatcom-1.9/rel2/lib386/nt/clib3r.lib(mbsinc.c)
6e90a120       _mbsinc_
Module: /mnt/sda5/.user/root/src/openwatcom-1.9/rel2/lib386/nt/clib3r.lib(mbconv.c)
6e90a150       _mbvtop_
Module: /mnt/sda5/.user/root/src/openwatcom-1.9/rel2/lib386/nt/clib3r.lib(mbclen.c)
6e90a170       _mbclen_
Module: /mnt/sda5/.user/root/src/openwatcom-1.9/rel2/lib386/nt/clib3r.lib(mbsdec.c)
6e90a1a0       _mbsdec_
Module: /mnt/sda5/.user/root/src/openwatcom-1.9/rel2/lib386/nt/clib3r.lib(wctomb.c)
6e90a220       wctomb_
Module: /mnt/sda5/.user/root/src/openwatcom-1.9/rel2/lib386/nt/clib3r.lib(strupr.c)
6e90a260       strupr_
Module: /mnt/sda5/.user/root/src/openwatcom-1.9/rel2/lib386/nt/clib3r.lib(noefgfmt.c)
6e90fa3c       ___EFG_printf
6e90fa40*      ___EFG_scanf
Module: /mnt/sda5/.user/root/src/openwatcom-1.9/rel2/lib386/nt/clib3r.lib(lltoa.c)
6e90a2d0       ulltoa_
6e90a340*      lltoa_
Module: /mnt/sda5/.user/root/src/openwatcom-1.9/rel2/lib386/nt/clib3r.lib(mbisdbcs.c)
6e910d8c       ___IsDBCS
Module: /mnt/sda5/.user/root/src/openwatcom-1.9/rel2/lib386/nt/clib3r.lib(mbislead.c)
6e90a370*      _ismbblead_
6e910d90       ___MBCSIsTable
Module: /mnt/sda5/.user/root/src/openwatcom-1.9/rel2/lib386/nt/clib3r.lib(hdlman.c)
6e90fa44+      ___NHandles
6e90fa48+      ___OSHandles
6e90fa4c+      ___FakeHandles
6e90a390+      __growPOSIXHandles_
6e90a430+      __allocPOSIXHandle_
6e90a4f0*      __freePOSIXHandle_
6e90a510       __getOSHandle_
6e90a520       __setOSHandle_
6e90a570+      __NTGetFakeHandle_
6e90a5e0       __initPOSIXHandles_
6e90a6c0*      __set_handles_
6e90a6d0*      _grow_handles_
Module: /mnt/sda5/.user/root/src/openwatcom-1.9/rel2/lib386/nt/clib3r.lib(environ.c)
6e910e94       ___env_mask
6e910e98       _environ
6e910e9c       __wenviron
Module: /mnt/sda5/.user/root/src/openwatcom-1.9/rel2/lib386/nt/clib3r.lib(getmodfn.c)
6e90a710       __lib_GetModuleFileNameW_
Module: /mnt/sda5/.user/root/src/openwatcom-1.9/rel2/lib386/nt/clib3r.lib(strdup.c)
6e90a7b0       __clib_strdup_
Module: /mnt/sda5/.user/root/src/openwatcom-1.9/rel2/lib386/nt/clib3r.lib(ustrdup.c)
6e90a7f0       __clib_wcsdup_
Module: /mnt/sda5/.user/root/src/openwatcom-1.9/rel2/lib386/nt/clib3r.lib(excptwnt.c)
6e90ae80+      ___ReportException@4
6e90b2d0       __DefaultExceptionHandler_
6e90b310+      ___ExceptionFilter
6e90b520       __NewExceptionFilter_
6e90b550       __DoneExceptionFilter_
6e90fa58       ___oscode_check_func
6e90fa5c       ___raise_func
6e910ea0*      _sw
6e910ea4+      ___ExceptionHandled
6e910ea5+      ___ReportInvoked
Module: /mnt/sda5/.user/root/src/openwatcom-1.9/rel2/lib386/nt/clib3r.lib(stklmwnt.c)
6e90b590       __init_stack_limits_
Module: /mnt/sda5/.user/root/src/openwatcom-1.9/rel2/lib386/nt/clib3r.lib(initrtns.c)
6e90b610       __InitRtns
6e90b660       __FiniRtns
Module: /mnt/sda5/.user/root/src/openwatcom-1.9/rel2/lib386/nt/clib3r.lib(amblksiz.c)
6e90fa74       __amblksiz
Module: /mnt/sda5/.user/root/src/openwatcom-1.9/rel2/lib386/nt/clib3r.lib(heapen.c)
6e90b6c0*      _heapenable_
6e90fa78       ___heap_enabled
Module: /mnt/sda5/.user/root/src/openwatcom-1.9/rel2/lib386/nt/clib3r.lib(nheapmin.c)
6e90b6f0       _nheapshrink_
6e90b6f0*      _nheapmin_
6e90b6f0*      _heapmin_
6e90b6f0*      _heapshrink_
Module: /mnt/sda5/.user/root/src/openwatcom-1.9/rel2/lib386/nt/clib3r.lib(mbterm.c)
6e90b7e0       _mbterm_
Module: /mnt/sda5/.user/root/src/openwatcom-1.9/rel2/lib386/nt/clib3r.lib(mbsnbcpy.c)
6e90b820       _mbsnbcpy_
Module: /mnt/sda5/.user/root/src/openwatcom-1.9/rel2/lib386/nt/clib3r.lib(mbinit.c)
6e90b8ba       __mbinit_
6e90fa7c       ___MBCodePage
Module: /mnt/sda5/.user/root/src/openwatcom-1.9/rel2/lib386/nt/clib3r.lib(xmsgwnt.c)
6e90b9b0+      __exit_with_msg_
6e90ba10       __fatal_runtime_error_
Module: /mnt/sda5/.user/root/src/openwatcom-1.9/rel2/lib386/nt/clib3r.lib(nrealloc.c)
6e90ba30*      _nrealloc_
6e90ba30       realloc_
Module: /mnt/sda5/.user/root/src/openwatcom-1.9/rel2/lib386/nt/clib3r.lib(iomode.c)
6e90bab0       __GetIOMode_
6e90bad0*      __SetIOMode_nogrow_
6e90fa80       ___NFiles
6e90fa84       ___init_mode
6e90fad4       ___io_mode
Module: /mnt/sda5/.user/root/src/openwatcom-1.9/rel2/lib386/nt/clib3r.lib(stiomode.c)
6e90baf0       __grow_iomode_
6e90bbc0+      __shrink_iomode_
6e90bc00       __SetIOMode_
Module: /mnt/sda5/.user/root/src/openwatcom-1.9/rel2/lib386/nt/clib3r.lib(setenvp.c)
6e90bc70       __setenvp_
6e90bd30       __freeenvp_
Module: /mnt/sda5/.user/root/src/openwatcom-1.9/rel2/lib386/nt/clib3r.lib(ustrlen.c)
6e90bd7d       wcslen_
Module: /mnt/sda5/.user/root/src/openwatcom-1.9/rel2/lib386/nt/clib3r.lib(memcpy.c)
6e90bd90       memcpy_
Module: /mnt/sda5/.user/root/src/openwatcom-1.9/rel2/lib386/nt/clib3r.lib(conutwnt.c)
6e90bdc0*      __NTRealKey_
6e90be70*      __NTConsoleInput_
6e90be80       __NTConsoleOutput_
Module: /mnt/sda5/.user/root/src/openwatcom-1.9/rel2/lib386/nt/clib3r.lib(fclex387.c)
6e90be90       _ClearFPE_
Module: /mnt/sda5/.user/root/src/openwatcom-1.9/rel2/lib386/nt/clib3r.lib(signlwnt.c)
6e90fae0+      __SignalTable
6e90bea0+      __SetSignalFunc_
6e90bef0+      __GetSignalFunc_
6e90bf20+      __GetSignalOSCode_
6e90bf50+      __CheckSignalExCode_
6e90c090+      __sigabort_
6e90c0a0       __sigfpe_handler_
6e90c0f0*      signal_
6e90c180+      raise_
6e90c1f0+      __SigInit_
6e90c240+      __SigFini_
6e90c280+      __sig_init_
Module: /mnt/sda5/.user/root/src/openwatcom-1.9/rel2/lib386/nt/clib3r.lib(segdefns)
6e901003*      ___begtext
6e90f000*      __nullarea
6e90fb54       __Start_XI
6e90fb66       __End_XI
6e90fb66       __Start_YI
6e90fb78       __End_YI
Module: /mnt/sda5/.user/root/src/openwatcom-1.9/rel2/lib386/nt/clib3r.lib(enterdb.c)
6e90c2a0       __EnterWVIDEO_
6e90fb4c+      ___WD_Present
Module: /mnt/sda5/.user/root/src/openwatcom-1.9/rel2/lib386/nt/clib3r.lib(nmsize.c)
6e90c2d0       _nmsize_
6e90c2d0*      _msize_
Module: /mnt/sda5/.user/root/src/openwatcom-1.9/rel2/lib386/nt/clib3r.lib(nexpand.c)
6e90c2e0       _nexpand_
6e90c2e0*      _expand_
6e90c320+      __HeapManager_expand_
Module: /mnt/sda5/.user/root/src/openwatcom-1.9/rel2/lib386/nt/clib3r.lib(iomodtty.c)
6e90c4e0       __ChkTTYIOMode_
6e90c520*      __IOMode_
Module: /mnt/sda5/.user/root/src/openwatcom-1.9/rel2/lib386/nt/clib3r.lib(dofilstr.c)
6e90c560       __ParsePosixHandleStr_
Module: /mnt/sda5/.user/root/src/openwatcom-1.9/rel2/lib386/nt/clib3r.lib(clearenv.c)
6e90c680       clearenv_
Module: /mnt/sda5/.user/root/src/openwatcom-1.9/rel2/lib386/nt/clib3r.lib(abort.c)
6e90c725*      abort_
6e90c737       __terminate_
6e90fb50       ___abort
Module: /mnt/sda5/.user/root/src/openwatcom-1.9/rel2/lib386/nt/clib3r.lib(dosseg)
00001234       __DOSseg__
Module: /mnt/sda5/.user/root/src/openwatcom-1.9/rel2/lib386/nt/clib3r.lib(isattwnt.c)
6e90c750       isatty_
Module: /mnt/sda5/.user/root/src/openwatcom-1.9/rel2/lib386/nt/clib3r.lib(getenv.c)
6e90c770       getenv_
Module: /mnt/sda5/.user/root/src/openwatcom-1.9/rel2/lib386/nt/clib3r.lib(strncpy.c)
6e90c800       strncpy_
Module: /mnt/sda5/.user/root/src/openwatcom-1.9/rel2/lib386/nt/clib3r.lib(putenv.c)
6e90c840       putenv_
6e90cad0       __putenv_
Module: /mnt/sda5/.user/root/src/openwatcom-1.9/rel2/lib386/nt/clib3r.lib(mbcupper.c)
6e90cc40       _mbctoupper_
Module: /mnt/sda5/.user/root/src/openwatcom-1.9/rel2/lib386/nt/clib3r.lib(mbschr.c)
6e90cc70       _mbschr_
Module: /mnt/sda5/.user/root/src/openwatcom-1.9/rel2/lib386/nt/clib3r.lib(mbslen.c)
6e90ccd0       _mbslen_
Module: /mnt/sda5/.user/root/src/openwatcom-1.9/rel2/lib386/nt/clib3r.lib(mbstowcs.c)
6e90cd00       mbstowcs_
Module: /mnt/sda5/.user/root/src/openwatcom-1.9/rel2/lib386/nt/clib3r.lib(uputenv.c)
6e90cd80*      _wputenv_
6e90cfa0       __wputenv_
Module: /mnt/sda5/.user/root/src/openwatcom-1.9/rel2/lib386/nt/clib3r.lib(toupper.c)
6e90d0a0       toupper_
Module: /mnt/sda5/.user/root/src/openwatcom-1.9/rel2/lib386/nt/clib3r.lib(memmove.c)
6e90d0b0       memmove_
Module: /mnt/sda5/.user/root/src/openwatcom-1.9/rel2/lib386/nt/clib3r.lib(mbccmp.c)
6e90d110       _mbccmp_
Module: /mnt/sda5/.user/root/src/openwatcom-1.9/rel2/lib386/nt/clib3r.lib(mbtowc.c)
6e90d150       mbtowc_
Module: /mnt/sda5/.user/root/src/openwatcom-1.9/rel2/lib386/nt/clib3r.lib(ustrchr.c)
6e90d1e0       wcschr_
Module: /mnt/sda5/.user/root/src/openwatcom-1.9/rel2/lib386/nt/clib3r.lib(setenvar.c)
6e90d200       __lib_SetEnvironmentVariableW_
Module: /mnt/sda5/.user/root/src/openwatcom-1.9/rel2/lib386/nt/clib3r.lib(crtwenv.c)
6e90d2f0       __create_wide_environment_
Module: /mnt/sda5/.user/root/src/openwatcom-1.9/rel2/lib386/nt/clib3r.lib(wcstombs.c)
6e90d360       wcstombs_
Module: /mnt/sda5/.user/root/src/openwatcom-1.9/rel2/lib386/nt/clib3r.lib(utoupper.c)
6e90d3ff       towupper_


                        +----------------------+
                        |   Imported Symbols   |
                        +----------------------+

Symbol                              Module
======                              ======

_GetVersionExA@4                    KERNEL32.DLL
_LoadLibraryA@4                     KERNEL32.DLL
_GetProcAddress@8                   KERNEL32.DLL
_LocalAlloc@8                       KERNEL32.DLL
_GetThreadSelectorEntry@12          KERNEL32.DLL
_GetSystemInfo@4                    KERNEL32.DLL
_LocalFree@4                        KERNEL32.DLL
_wsprintfA                          USER32.DLL
_FormatMessageA@28                  KERNEL32.DLL
_CreateFileA@28                     KERNEL32.DLL
_CloseHandle@4                      KERNEL32.DLL
_GetEnvironmentVariableA@12         KERNEL32.DLL
_MessageBoxA@16                     USER32.DLL
_PostMessageA@16                    USER32.DLL
_ReadProcessMemory@20               KERNEL32.DLL
_WriteProcessMemory@20              KERNEL32.DLL
_GetSystemDirectoryA@8              KERNEL32.DLL
_GetFullPathNameA@16                KERNEL32.DLL
_GetLastError@0                     KERNEL32.DLL
_GetVersion@0                       KERNEL32.DLL
_OpenProcess@12                     KERNEL32.DLL
_TerminateProcess@8                 KERNEL32.DLL
_Sleep@4                            KERNEL32.DLL
_SetFilePointer@16                  KERNEL32.DLL
_WriteFile@20                       KERNEL32.DLL
_GetStdHandle@4                     KERNEL32.DLL
_ReadFile@20                        KERNEL32.DLL
_DeleteFileA@4                      KERNEL32.DLL
_FindFirstFileA@8                   KERNEL32.DLL
_FindClose@4                        KERNEL32.DLL
_FileTimeToDosDateTime@12           KERNEL32.DLL
_DosDateTimeToFileTime@12           KERNEL32.DLL
_SetFileTime@16                     KERNEL32.DLL
_SetEnvironmentVariableA@8          KERNEL32.DLL
_SuspendThread@4                    KERNEL32.DLL
_ResumeThread@4                     KERNEL32.DLL
_SetConsoleCtrlHandler@8            KERNEL32.DLL
_UnmapViewOfFile@4                  KERNEL32.DLL
_GetFileSize@8                      KERNEL32.DLL
_CreateFileMappingA@24              KERNEL32.DLL
_MapViewOfFile@20                   KERNEL32.DLL
_GetCurrentProcess@0                KERNEL32.DLL
_GetLogicalDriveStringsA@8          KERNEL32.DLL
_GetThreadContext@8                 KERNEL32.DLL
_SetThreadContext@8                 KERNEL32.DLL
_GetThreadPriority@4                KERNEL32.DLL
_SetLastError@4                     KERNEL32.DLL
_ContinueDebugEvent@12              KERNEL32.DLL
_GetWindowRect@8                    USER32.DLL
_InvalidateRect@12                  USER32.DLL
_GetMessageA@16                     USER32.DLL
_GetClassNameA@12                   USER32.DLL
_TranslateMessage@4                 USER32.DLL
_DispatchMessageA@4                 USER32.DLL
_GetParent@4                        USER32.DLL
_DefWindowProcA@16                  USER32.DLL
_ReleaseSemaphore@12                KERNEL32.DLL
_IsWindow@4                         USER32.DLL
_WaitForSingleObject@8              KERNEL32.DLL
_OpenProcessToken@12                ADVAPI32.DLL
_LookupPrivilegeValueA@12           ADVAPI32.DLL
_DebugActiveProcess@4               KERNEL32.DLL
_AdjustTokenPrivileges@24           ADVAPI32.DLL
_SetErrorMode@4                     KERNEL32.DLL
_CopyFileA@12                       KERNEL32.DLL
_CloseServiceHandle@4               ADVAPI32.DLL
_CreateProcessA@40                  KERNEL32.DLL
_OpenSCManagerA@12                  ADVAPI32.DLL
_EnumServicesStatusA@32             ADVAPI32.DLL
_OpenServiceA@12                    ADVAPI32.DLL
_ControlService@12                  ADVAPI32.DLL
_QueryServiceStatus@8               ADVAPI32.DLL
_StartServiceA@12                   ADVAPI32.DLL
_WaitForDebugEvent@8                KERNEL32.DLL
_CreateSemaphoreA@16                KERNEL32.DLL
_CreateThread@24                    KERNEL32.DLL
_GetEnvironmentStringsA@0           KERNEL32.DLL
_GetModuleFileNameA@12              KERNEL32.DLL
_GetCommandLineA@0                  KERNEL32.DLL
_GetCommandLineW@0                  KERNEL32.DLL
_FreeEnvironmentStringsA@4          KERNEL32.DLL
_GetModuleHandleA@4                 KERNEL32.DLL
_ExitProcess@4                      KERNEL32.DLL
_VirtualAlloc@16                    KERNEL32.DLL
_WideCharToMultiByte@32             KERNEL32.DLL
_SetStdHandle@8                     KERNEL32.DLL
_CreateEventA@16                    KERNEL32.DLL
_GetModuleFileNameW@12              KERNEL32.DLL
_MultiByteToWideChar@24             KERNEL32.DLL
_SetUnhandledExceptionFilter@4      KERNEL32.DLL
_UnhandledExceptionFilter@4         KERNEL32.DLL
_VirtualQuery@12                    KERNEL32.DLL
_VirtualFree@12                     KERNEL32.DLL
_GetACP@0                           KERNEL32.DLL
_GetOEMCP@0                         KERNEL32.DLL
_GetCPInfo@8                        KERNEL32.DLL
_GetFileType@4                      KERNEL32.DLL
_CharUpperA@4                       USER32.DLL
_SetEnvironmentVariableW@8          KERNEL32.DLL


                        +--------------------+
                        |   Libraries Used   |
                        +--------------------+

/mnt/sda5/.user/root/src/openwatcom-1.9/rel2/lib386/nt/kernel32.lib
/mnt/sda5/.user/root/src/openwatcom-1.9/rel2/lib386/nt/user32.lib
/mnt/sda5/.user/root/src/openwatcom-1.9/rel2/lib386/nt/advapi32.lib
/mnt/sda5/.user/root/src/openwatcom-1.9/rel2/lib386/nt/clib3r.lib


                        +-----------------------+
                        |   Linker Statistics   |
                        +-----------------------+

Stack size:  0000 (0.)
Memory size:  efbb (61371.)
Entry point address: 00000000
Link time: 00:00.00
