Open Watcom Linker Version 1.9
Portions Copyright (c) 1985-2002 Sybase, Inc. All Rights Reserved.
Created on:       12/12/16 02:41:47
Executable Image: wv.exe
creating a Windows NT character-mode executable


                        +------------+
                        |   Groups   |
                        +------------+

Group                           Address              Size
=====                           =======              ====

.idata                          00477000             0000094a
DGROUP                          00478000             0001b500



                        +--------------+
                        |   Segments   |
                        +--------------+

Segment                Class          Group          Address         Size
=======                =====          =====          =======         ====

BEGTEXT                CODE           AUTO           00401000        00000007
_TEXT                  CODE           AUTO           00401010        00074e90
TRANSFER CODE          CODE           AUTO           00475ea0        000001f8
.idata                 .idata         .idata         00477000        0000094a
_NULL                  BEGDATA        DGROUP         00478000        00000004
_AFTERNULL             BEGDATA        DGROUP         00478004        00000000
CONST                  DATA           DGROUP         00478004        00000090
CONST2                 DATA           DGROUP         00478094        00000000
_DATA                  DATA           DGROUP         004780a0        00005a9d
XIB                    DATA           DGROUP         0047db3e        00000000
XI                     DATA           DGROUP         0047db3e        0000003c
XIE                    DATA           DGROUP         0047db7a        00000000
YIB                    DATA           DGROUP         0047db7a        00000000
YI                     DATA           DGROUP         0047db7a        00000024
YIE                    DATA           DGROUP         0047db9e        00000000
TIB                    DATA           DGROUP         0047db9e        00000000
TI                     DATA           DGROUP         0047db9e        00000000
TIE                    DATA           DGROUP         0047db9e        00000000
DATA                   DATA           DGROUP         0047db9e        00000000
_BSS                   BSS            DGROUP         0047e000        00005500
STACK                  STACK          DGROUP         00483500        00010000


                        +----------------+
                        |   Memory Map   |
                        +----------------+

* = unreferenced symbol
+ = symbol only referenced locally

Address        Symbol
=======        ======

Module: autoenv.obj(/mnt/sda5/.user/root/src/openwatcom-1.9/bld/watcom/c/autoenv.c)
00401150       watcom_setup_env_
Module: ntinit.obj(/mnt/sda5/.user/root/src/openwatcom-1.9/bld/wv/win/c/ntinit.c)
00401350       GUImain_
004013a0       GUISysInit_
004013b0       WndCleanUp_
004013c0       GUISysFini_
004013d0       GetCmdArg_
004013e0       _fork_
004013f0       SetCmdArgStart_
00401400       KillDebugger_
00401410       RestoreHandlers_
00401410       GrabHandlers_
00401420       TBreak_
00401430       PopErrBox_
00401450       SysSetMemLimit_
00401460+      _FindPidPB@8
004014f0       CheckForPowerBuilder_
Module: ntscrn.obj(/mnt/sda5/.user/root/src/openwatcom-1.9/bld/wv/win/c/ntscrn.c)
00401580       SetNumLines_
00401590       SetNumColumns_
004015a0       RingBell_
004015c0       ConfigScreen_
004015d0       InitScreen_
00401620       SysGUI_
00401620       UsrScrnMode_
00401630       DebugScreen_
00401670       DebugScreenRecover_
00401680       UserScreen_
004016a0       SaveMainWindowPos_
004016d0       FiniScreen_
00401700       uifaralloc_
00401710       uifarfree_
00401720*      mygetlasterr_
004780a8+      _HwndFore
0047e120+      _DebuggerHwnd
Module: ntfilio.obj(/mnt/sda5/.user/root/src/openwatcom-1.9/bld/wv/win/c/ntfilio.c)
00401730       LocalErrMsg_
00401740       LocalOpen_
004017a0       LocalRead_
004017d0       LocalWrite_
004017e0       LocalSeek_
004017f0       LocalClose_
00401810       LocalErase_
00401820       LocalHandle_
004780ac       _LclFile
004780b2       _LclPathSep
Module: ntfinfo.obj(/mnt/sda5/.user/root/src/openwatcom-1.9/bld/wv/win/c/ntfinfo.c)
00401840       LocalGetFileDate_
004018a0*      LocalSetFileDate_
Module: ntcmd.obj(/mnt/sda5/.user/root/src/openwatcom-1.9/bld/wv/win/c/ntcmd.c)
00401910       OptDelim_
00401920       ProcSysOption_
00401940       ProcSysOptInit_
Module: winchk.obj(/mnt/sda5/.user/root/src/openwatcom-1.9/bld/wv/win/c/winchk.c)
00401950       CheckPointMem_
00401960       CheckPointRestore_
Module: winlkup.obj(/mnt/sda5/.user/root/src/openwatcom-1.9/bld/wv/win/c/winlkup.c)
00401970       EnvLkup_
Module: fingmsg.obj(/mnt/sda5/.user/root/src/openwatcom-1.9/bld/wv/c/fingmsg.c)
00401bb0       InitAboutMessage_
00401c00       FiniAboutMessage_
004780bc       _AboutMessage
004780f8       _FingMessageSize
004780fc       _AboutSize
Module: dipman.obj(/mnt/sda5/.user/root/src/openwatcom-1.9/bld/dig/c/dipman.c)
00401c30       DCSymCreate_
00401c30+      XDIPCliSymCreate_
00401c50       DIPInit_
00401ca0       DIPLoad_
00401d30       DIPRegister_
00401d90*      DIPFiniLatest_
00401df0       DIPFini_
00401e40       DIPHandleSize_
00401e60       DIPMoreMem_
00401ea0       DIPCancel_
00401f20+      FindImageMapSlot_
00402050       DIPCreateProcess_
004021a0*      DIPSetProcess_
004021b0       DIPDestroyProcess_
004021e0       DIPPriority_
00402230       DIPLoadInfo_
00402340       DIPMapInfo_
004023a0       DIPUnloadInfo_
004023f0       DIPImagePriority_
00402440       WalkImageList_
00402500       WalkModList_
00402560*      WalkTypeList_
004027f0+      WalkSymListEx_
00402820       WalkSymList_
00402840       WalkFileList_
004028f0       ImageExtra_
00402940       ImageDIP_
00402990       ModName_
004029f0       ModSrcLang_
00402a50       ModHasInfo_
00402ac0       ModDefault_
00402b30       ModAddr_
00402ba0       TypeMod_
00402bf0       TypeInfo_
00402c90       TypeCreate_
00402cb0       TypePointer_
00402d30       TypeBase_
00402de0*      TypeAddRef_
00402e30*      TypeRelease_
00402e80*      TypeFreeAll_
00402ec0       TypeArrayInfo_
00402f40       TypeProcInfo_
00402fa0       TypePtrAddrSpace_
00403000       TypeThunkAdjust_
00403060*      TypeCmp_
004030c0       TypeName_
00403110       SymMod_
00403150       SymName_
004031a0       SymType_
004031f0       SymLocation_
00403230       SymValue_
00403270       SymInfo_
004032c0       SymParmLocation_
00403310       SymObjType_
00403360       SymObjLocation_
004033b0*      SymCmp_
00403410*      SymAddRef_
00403460*      SymRelease_
004034b0*      SymFreeAll_
004034f0       CueMod_
00403540       CueFile_
00403580       CueFileId_
004035c0       CueAdjust_
00403620       CueLine_
00403660       CueColumn_
004036a0       CueAddr_
00403710       LineCue_
004037a0       AddrCue_
00403850*      CueCmp_
004038b0       AddrMod_
00403970       AddrSym_
00403a30+      LookupSymEx_
00403c80       LookupSym_
00403c90       AddrScope_
00403d30       ScopeOuter_
00478104       _DIPDefaults
0047812a+      _DIPClientInterface
Module: dipld.obj(/mnt/sda5/.user/root/src/openwatcom-1.9/bld/dig/c/nt/dipld.c)
00403dd0       DIPSysLoad_
00403ec0       DIPSysUnload_
Module: madman.obj(/mnt/sda5/.user/root/src/openwatcom-1.9/bld/dig/c/madman.c)
00478178+      _MADClientInterface
00404080       MADTypeInfoForHost_
00404110       MADInit_
00404160       MADRegister_
004042e0       MADLoad_
00404470+      MADUnload_
004044c0       MADLoaded_
00404500       MADActiveSet_
00404530*      MADStateCreate_
00404590*      MADStateSet_
00404600*      MADStateCopy_
00404620+      MADStateDestroy_
00404670       MADFini_
004046a0       MADWalk_
004046d0       MADNameFile_
00404740       MADNameDescription_
004047c0       MADAddrAdd_
00404800       MADAddrComp_
00404830       MADAddrDiff_
00404860       MADAddrMap_
00404870       MADAddrFlat_
00404880       MADAddrInterrupt_
004048b0       MADTypeWalk_
004048e0       MADTypeName_
00404900       MADTypePreferredRadix_
00404930       MADTypeForDIPType_
00404950       MADTypeInfo_
00404a60       MADTypeDefault_
00405390       MADTypeConvert_
00405890       MADTypeToString_
00405920       MADTypeHandleToString_
00405950       MADRegistersSize_
00405960       MADRegistersHost_
00405970       MADRegistersTarget_
00405990       MADRegSetWalk_
004059c0       MADRegSetName_
004059f0       MADRegSetLevel_
00405a00       MADRegSetDisplayGrouping_
00405a20       MADRegSetDisplayGetPiece_
00405a70       MADRegSetDisplayModify_
00405a90       MADRegSetDisplayToggleList_
00405aa0       MADRegSetDisplayToggle_
00405ab0       MADRegModified_
00405ad0       MADRegInspectAddr_
00405b20       MADRegWalk_
00405cb0       MADRegFullName_
00405d10       MADRegSpecialGet_
00405d40       MADRegSpecialSet_
00405d70       MADRegSpecialName_
00405da0       MADRegFromContextItem_
00405dd0       MADRegUpdateStart_
00405e00       MADRegUpdateEnd_
00405e20       MADCallStackGrowsUp_
00405e40       MADCallTypeList_
00405e60       MADCallBuildFrame_
00405eb0       MADCallReturnReg_
00405ef0       MADCallParmRegList_
00405f20       MADCallUpStackSize_
00405f30       MADCallUpStackInit_
00405f60       MADCallUpStackLevel_
00405fa0       MADDisasmDataSize_
00405fc0       MADDisasmNameMax_
00405fe0       MADDisasm_
00406050       MADDisasmFormat_
00406070       MADDisasmInsSize_
00406090       MADDisasmInsUndoable_
004060c0       MADDisasmControl_
004060e0       MADDisasmInsNext_
00406110       MADDisasmInspectAddr_
00406160       MADDisasmMemRefWalk_
00406190       MADDisasmToggleList_
004061a0       MADDisasmToggle_
004061c0       MADTraceSize_
004061e0       MADTraceInit_
00406210       MADTraceOne_
00406240       MADTraceHaveRecursed_
00406270       MADTraceSimulate_
004062a0       MADTraceFini_
004062e0       MADUnexpectedBreak_
Module: madld.obj(/mnt/sda5/.user/root/src/openwatcom-1.9/bld/dig/c/nt/madld.c)
00406310       MADSysLoad_
00406400       MADSysUnload_
Module: i64.obj(/mnt/sda5/.user/root/src/openwatcom-1.9/bld/watcom/c/i64.c)
00406410       I32ToI64_
00406420       U32ToU64_
00406430       U64Neg_
00406460       U64Add_
00406480*      U64IncDec_
004064b0       U64Sub_
004064d0       U64Mul_
00406540       U64Div_
00406640       I64Div_
004066f0       U64Cmp_
00406730       U64Test_
00406750       I64Cmp_
00406780       I64Test_
004067b0       I64ShiftR_
00406800       U64ShiftR_
00406860*      U64Shift_
00406870       U64ShiftL_
Module: trpsupp.obj(/mnt/sda5/.user/root/src/openwatcom-1.9/bld/dig/c/trpsupp.c)
004068b0       OpenTrapTraceFile_
004068e0       CloseTrapTraceFile_
00406900       TrapSetFailCallBack_
00406910*      TrapSetAccessCallBack_
00406920*      TrapFailAllRequests_
00406930       TrapSimpAccess_
00406980       TrapAccess_
00406c60+      ReqFuncProxy_
0047e248       _ReqFunc
0047e24c       _TrapVer
Module: trpld.obj(/mnt/sda5/.user/root/src/openwatcom-1.9/bld/dig/c/nt/trpld.c)
00406ee0*      TellHWND_
00406f00       KillTrap_
00406f60       LoadTrap_
Module: dumb.obj(/mnt/sda5/.user/root/src/openwatcom-1.9/bld/dig/c/dumb.c)
00407210+      ReqConnect_
00407230+      ReqSimpleStub_
00407240+      ReqGet_supplementary_service_
00407260+      ReqMap_addr_
00407290+      ReqSplit_cmd_
00407290+      ReqGet_lib_name_
00407290+      ReqGet_next_alias_
00407290+      ReqSet_break_
00407290+      ReqProg_kill_
00407290+      ReqChecksum_mem_
004072b0+      ReqProg_load_
004072d0+      ReqSet_watch_
004072f0+      ReqRead_user_keyboard_
00407300+      ReqRedirect_stdout_
00407300+      ReqRedirect_stdin_
00407320+      DumbRequest_
00407340       LoadDumbTrap_
0047e260+      _Out_Mx_Ptr
Module: spawn.obj(/mnt/sda5/.user/root/src/openwatcom-1.9/bld/wv/c/spawn.c)
00407380       Spawn_
004073c0       SpawnP_
00407400       SpawnPP_
00407450       Suicide_
Module: dbgchain.obj(/mnt/sda5/.user/root/src/openwatcom-1.9/bld/wv/c/dbgchain.c)
00407480       FindNextIns_
00407890       InitTraceBack_
004078b0       FiniTraceBack_
004078f0       UpdateTraceBack_
00407960       GetCallChain_
00407980       ShowCalls_
00407a20       UnWindToFrame_
Module: dbgvar.obj(/mnt/sda5/.user/root/src/openwatcom-1.9/bld/wv/c/dbgvar.c)
0047e280       _TypeDisplay
00407b10       VarDisplayIsStruct_
00407b50       VarDisplayIsHidden_
00407b70       VarDisplaySetHidden_
00407ba0       VarDisplayFlipHide_
00407bf0       VarDisplayUpdate_
00407c20       VarDisplayShowMembers_
00407c30       VarDisplaySetMembers_
00407c50+      VarDisplaySetBits_
00407c70+      VarDisplayFindParent_
00407ca0       VarDisplayDirty_
00407cc0       VarDisplayInit_
00407cd0       VarDisplayedOnTop_
00407cf0       VarDisplayOnTop_
00407db0       VarDisplayFini_
00407e70       VarDisplayAddStruct_
00407f30       VarDisplayAddField_
00407fd0       VarDisplayAlias_
00408040       VarDisplayType_
00408150       VarErrState_
00408170       VarOldErrState_
00408210*      VarNodeInvalid_
004088a0       VarExpand_
00408c50+      VarExpandNode_
00408c70+      VarFirstExpandNode_
00408d00*      VarFirstNode_
00408d60+      VarNextRowNode_
00408d90       VarNextVisibleSibling_
00409120       VarFindRowNode_
00409150       VarRowTotal_
004091c0       VarFindRoot_
004092c0       VarFindRow_
00409330       VarDoneRow_
004094c0+      VarBaseName_
00409540       VarBuildName_
004097d0       VarDeExpand_
00409850       VarAllNodesInvalid_
00409880       VarAdd1_
00409930       VarExpandRow_
004099b0       VarExpandRowNoCollapse_
00409a30       VarGetStackClass_
00409a60       VarExpandable_
00409a70       VarIsPointer_
00409a80       VarPrintText_
00409b20       VarDelete_
00409bf0*      VarDisplayIsHex_
00409c00       VarDisplaySetHex_
00409c30       VarDisplaySetArrayHex_
00409c70*      VarDisplayIsDecimal_
00409c80       VarDisplaySetDecimal_
00409cb0       VarDisplaySetArrayDec_
00409cf0*      VarDisplayIsChar_
00409d00       VarDisplaySetChar_
00409d20*      VarDisplayIsString_
00409d30       VarDisplaySetString_
00409d50*      VarDisplayIsPointer_
00409d60       VarDisplaySetPointer_
00409d80       VarBreakOnWrite_
00409db0       VarAddWatch_
00409de0       VarAddNodeToScope_
00409e40*      VarFindRootRow_
00409eb0       VarNewCurrRadix_
00409ec0*      VarNewDisplayRadix_
00409ed0*      VarGetOnTop_
00409ef0+      VarGetGadget_
00409f80*      VarSetGadget_
00409f90*      VarSetOnTop_
0040a190+      VarGetValue_
0040a410+      VarSetValue_
0040a740       VarDeleteAllScopes_
0040a770       VarDeleteAScope_
0040a7e0       VarUnMap_
0040a860       VarReMap_
0040a900       VarInitInfo_
0040a930       VarFiniInfo_
0040a960       VarOkToCache_
0040a970       VarKillExprSPCache_
0040a9a0       VarInfoRefresh_
0040ab20       VarInspectPointer_
0040ab60       VarInspectMemory_
0040ab90*      VarInspectCode_
0040abc0       VarIsLValue_
0040abf0+      VarGetDepths_
0040ac20       VarRefreshVisible_
0040ad80       VarDoAssign_
0040ae30       VarGetDisplayPiece_
0040afc0       VarParentIsArray_
0047e285       _VarError
Module: dbgvset.obj(/mnt/sda5/.user/root/src/openwatcom-1.9/bld/wv/c/dbgvset.c)
0040b040+      Attributes_
0040b620       TypeSet_
0040b760       TypeConf_
Module: dbgass.obj(/mnt/sda5/.user/root/src/openwatcom-1.9/bld/wv/c/dbgass.c)
0040b940       InsMemRef_
Module: dbgimg.obj(/mnt/sda5/.user/root/src/openwatcom-1.9/bld/wv/c/dbgimg.c)
0040b970       ImgSymName_
0040b9e0       ImgSort_
Module: dbglist.obj(/mnt/sda5/.user/root/src/openwatcom-1.9/bld/wv/c/dbglist.c)
0040ba10       ConfigEvent_
0040ba20       ConfigCalls_
Module: dbgpend.obj(/mnt/sda5/.user/root/src/openwatcom-1.9/bld/wv/c/dbgpend.c)
0040bb30       DoProcPending_
0040bb50       ProcInput_
0040bb80       DoInput_
Module: ambigsym.obj(/mnt/sda5/.user/root/src/openwatcom-1.9/bld/wv/c/ambigsym.c)
0040bbc0       SymPickText_
0040bc60       Disambiguate_
Module: addarith.obj(/mnt/sda5/.user/root/src/openwatcom-1.9/bld/wv/c/addarith.c)
0040bdf0       AddAliasInfo_
0040be40       FreeAliasInfo_
0040be70       DeAlias_
0040bea0       AddrComp_
0040bf70       AddrAdd_
0040bfb0       AddrAddWrap_
0040bff0       AddrDiff_
0040c030       SameAddrSpace_
Module: dbgbrk.obj(/mnt/sda5/.user/root/src/openwatcom-1.9/bld/wv/c/dbgbrk.c)
0040c150       InitBPs_
0040c200       InsertBPs_
0040c3c0       RemoveBPs_
0040c420       GetBPAddr_
0040c4a0       GetBPText_
0040c560       FindBreakByLine_
0040c5f0       FindBreak_
0040c760       DispBPMsg_
0040cca0       ActPoint_
0040ccc0       BrkEnableAll_
0040ccf0       BrkDisableAll_
0040cd20       RemovePoint_
0040cda0       RemoveBreak_
0040cdd0       BrkClearAll_
0040ce00       BPsDeac_
0040ce50       BPsUnHit_
0040ce90       RecordNewPoint_
0040ceb0       RecordPointStart_
0040cee0       RecordClearPoint_
0040cf00       GetBreakOnImageCmd_
0040cf80+      ShowBPs_
0040cfe0       ProcBreak_
0040d3c0       CopySourceLine_
0040d400       GetBPSymAddr_
0040d480       SetPointAddr_
0040d680       BrkCheckWatchLimit_
0040d900       AddBreak_
0040d990       ToggleBreak_
0040da50       BrkAddrRefresh_
0040dab0+      SetBPCountDown_
0040dad0*      GetBPAutoDestruct_
0040dae0*      SetBPAutoDestruct_
0040daf0*      SetBPCondition_
0040db40*      SetBPPatch_
0040dbc0*      SetBPResume_
0040dbd0*      GetBPCountDown_
0040dbe0*      GetBPCondition_
0040dc00*      GetBPPatch_
0040dc40*      GetBPResume_
0040e090       BreakWrite_
0040e1e0*      BreakOnRawMemory_
0040e220       BreakOnExprSP_
0040e2a0       PointFini_
0040e380       CheckBPErrors_
0040e3c0       BrkCmdError_
0040e3f0       CheckBPs_
0040e780       UpdateWPs_
0040e7e0       InsertWPs_
0040e860       SaveBreaksToFile_
0040e890       RestoreBreaksFromFile_
0040e8e0       FindFirstCue_
0040e910       BreakAllModEntries_
0040ea20       ClearAllModBreaks_
0040ea70*      GetRowAddrDirectly_
0040eaf0*      GetBPAt_
0040eb10*      GetBPsCount_
Module: dbgcall.obj(/mnt/sda5/.user/root/src/openwatcom-1.9/bld/wv/c/dbgcall.c)
0040eb50       FiniCall_
0040ee20       CallSet_
0040ee30       CallConf_
0040ef00       ProcCall_
Module: dbgcall2.obj(/mnt/sda5/.user/root/src/openwatcom-1.9/bld/wv/c/dbgcall2.c)
0040f160       FreezeRegs_
0040f1a0       UnFreezeRegs_
0040f260       PerformExplicitCall_
0040f3c0       PerformCall_
Module: dbgcmd.obj(/mnt/sda5/.user/root/src/openwatcom-1.9/bld/wv/c/dbgcmd.c)
0040f470       DoCmd_
Module: dbgcmdln.obj(/mnt/sda5/.user/root/src/openwatcom-1.9/bld/wv/c/dbgcmdln.c)
0047e3b8       _DownLoadTask
0040f490+      SetupChar_
0040f4e0*      NextChar_
0040f4f0+      OptError_
0040f580*      HasEquals_
0040f5a0+      WantEquals_
0040f5d0*      SkipSpaces_
0040f5e0+      GetValueLong_
0040f640+      GetValue_
0040f670+      GetMemory_
0040f750*      GetItem_
0040f760+      GetFileName_
0040f7a0+      GetRawItem_
0040fd00       ProcCmd_
Module: dbgdot.obj(/mnt/sda5/.user/root/src/openwatcom-1.9/bld/wv/c/dbgdot.c)
0040fe20       GetDotAddr_
0040fe60       SetCodeLoc_
0040fe80*      SetDataLoc_
0040fea0       SetCodeDot_
0040fed0       SetDataDot_
0040ff00       GetCodeDot_
0040ff20       GetDataDot_
Module: dbgexec.obj(/mnt/sda5/.user/root/src/openwatcom-1.9/bld/wv/c/dbgexec.c)
0040fff0       SetProgState_
00410110       SetMsgText_
00410570       ExecProg_
004108d0       ReportTrap_
00410a10       Execute_
00410b60       Go_
Module: dbgexpr.obj(/mnt/sda5/.user/root/src/openwatcom-1.9/bld/wv/c/dbgexpr.c)
00410bd0       InitLC_
00410cb0       CreateLC_
00410cf0+      FreeLC_
00410d30       MoveLC_
00410d60+      DupLC_
00410d80       CreateEntry_
00410df0       AllocatedString_
00410e50       DeleteEntry_
00410e90       StkEntry_
00410f00       MoveSP_
00410f10       SwapStack_
00410f90       FreezeStack_
00410fd0       UnFreezeStack_
00411040+      DupStringVal_
004110a0       DupStack_
00411180       PushName_
004111b0       PushNum_
004111e0       PushNum64_
00411200       PushRealNum_
00411230       PushSymHandle_
00411250       ExprSetAddrInfo_
004112b0       PushAddr_
004112e0       PushLocation_
00411320       CombineEntries_
00411380       MoveTH_
004113c0       PushType_
00411420       PushInt_
00411480       PushString_
004114d0       PopEntry_
004115a0       TstEQ_
004116b0       TstLT_
004117d0       TstTrue_
00411800       TstExist_
00411860       MakeAddr_
00411900       FreePgmStack_
004119a0       ExprPurge_
00411a00       MarkArrayOrder_
00411a20       StartSubscript_
00411a30       AddSubscript_
00411b00       EndSubscript_
00478680       _ExprSP
Module: dbgexpr2.obj(/mnt/sda5/.user/root/src/openwatcom-1.9/bld/wv/c/dbgexpr2.c)
00411be0       ClassifyType_
00411c00       ClassifyEntry_
00411cd0       ExprGetSymList_
00411d40       ExprSymbol_
00411db0       NameResolve_
00411e10       SymResolve_
00411f30       LValue_
00411f80       ClassNum_
004120e0       ExprResolve_
00412260       LRValue_
00412490       RValue_
004124b0       ExprValue_
Module: dbgexpr3.obj(/mnt/sda5/.user/root/src/openwatcom-1.9/bld/wv/c/dbgexpr3.c)
00412590+      ConvIdx_
004126c0       FromItem_
004128f0       ToItem_
004130e0       ConvertTo_
00413450       BinOp_
00413470       AddOp_
00413490       ToItemMAD_
Module: dbgexpr4.obj(/mnt/sda5/.user/root/src/openwatcom-1.9/bld/wv/c/dbgexpr4.c)
004135a0       DoPlus_
00413710       DoMinus_
004138b0       DoMul_
004139f0       DoDiv_
00413c10       DoMod_
00413cc0       DoAnd_
00413d30       DoOr_
00413da0       DoXor_
00413e10       DoShift_
00413ec0       DoAddr_
00413f70       DoAPoints_
00414090       DoPoints_
00414220       DoConvert_
00414260       DoLConvert_
00414310       DoMakeComplex_
004143f0       DoStringConcat_
004144d0       DoGivenField_
004145a0       DoField_
00414800       DoScope_
00414930       DoAssign_
00414f70       DoCall_
Module: dbgfile.obj(/mnt/sda5/.user/root/src/openwatcom-1.9/bld/wv/c/dbgfile.c)
00415630       RealFName_
004156b0       FileLoc_
00415750       ReadStream_
00415750       ReadText_
00415770       WriteStream_
00415790       WriteText_
004157d0       SeekStream_
00415800       FileOpen_
004158a0       FileClose_
004158d0       FileRemove_
00415900       WriteToPgmScreen_
00415920       FileHandleInfo_
00415930       SysErrMsg_
00415980       StashErrCode_
004159c0*      GetLastErr_
004159d0*      GetSystemErrCode_
004159e0*      GetSystemHandle_
004159f0       IsAbsolutePath_
00415a50       AppendPathDelim_
00415aa0       SkipPathInfo_
00415ae0       ExtPointer_
00415b30       MakeFileName_
00415c50       LclStringToFullName_
00415e50       FullPathOpen_
00415e60       LocalFullPathOpen_
00415ee0       FindWritable_
00416050       PathOpen_
00416060       LocalPathOpen_
00416070       SysFileInit_
004160c0       PathFini_
00416150       PathInit_
Module: dbghook.obj(/mnt/sda5/.user/root/src/openwatcom-1.9/bld/wv/c/dbghook.c)
004161c0       InitHook_
004161d0       FiniHook_
00416200       ProcHook_
00416280       ConfigHook_
00416300       HookNotify_
00416370       HookPendingPush_
Module: dbginvk.obj(/mnt/sda5/.user/root/src/openwatcom-1.9/bld/wv/c/dbginvk.c)
00416430       ImplicitSet_
00416460       ImplicitConf_
00416840       Invoke_
004168e0       ProfileInvoke_
004169f0       CreateInvokeFile_
00416a10       InvokeAFile_
00416a20       ProcInvoke_
Module: dbglkup.obj(/mnt/sda5/.user/root/src/openwatcom-1.9/bld/wv/c/dbglkup.c)
00416b60       InitLook_
00416bb0       FiniLook_
00416bc0       LookCaseSet_
00416c00       LookSet_
00416e40       LookConf_
00416ed0       Lookup_
00416fd0       LookupModName_
004170a0       LookupImageName_
00417120       LookupSymList_
00417300       FreeSymHandle_
00417330       PurgeSymHandles_
00417450       FindNullSym_
00417470       SetWDPresent_
Module: dbgloc.obj(/mnt/sda5/.user/root/src/openwatcom-1.9/bld/wv/c/dbgloc.c)
004174d0       LocationCreate_
00417510       LocationAppend_
00417550       LocationSet_
00417580       LocationAdd_
00418060       LocationAssign_
Module: dbglog.obj(/mnt/sda5/.user/root/src/openwatcom-1.9/bld/wv/c/dbglog.c)
00418140       LogInit_
00418150       LogFini_
00418170       LogLine_
00418220       LogStart_
00418230       LogEnd_
00418280       ProcLog_
Module: dbgmain.obj(/mnt/sda5/.user/root/src/openwatcom-1.9/bld/wv/c/dbgmain.c)
00418410       GetCmdName_
00418430+      DebugInit_
00418560       ReportTask_
004185f0       ChkBreak_
00418610       ProcACmd_
004187d0       DebugMain_
00418850       DebugExit_
00418860       DebugFini_
00418910       InitCapabilities_
00418970+      CapabilitiesGet8ByteBreakpointSupport_
00418a00+      CapabilitiesSet8ByteBreakpointSupport_
00418aa0+      CapabilitiesGetExactBreakpointSupport_
00418b30       CapabilitiesSetExactBreakpointSupport_
00478a28+      _SuppCapabilitiesId
Module: dbgmem.obj(/mnt/sda5/.user/root/src/openwatcom-1.9/bld/wv/c/dbgmem.c)
00418bf0       ChangeMemUndoable_
00418c90       ProgPeekWrap_
00418d30       ItemSize_
00418f70       ItemGetMAD_
00418fa0       ItemPutMAD_
Module: memtypes.obj(/mnt/sda5/.user/root/src/openwatcom-1.9/bld/wv/c/memtypes.c)
004190e0       MemInitTypes_
00419150       MemFiniTypes_
004191a0       GetMADMaxFormatWidth_
Module: dbgmisc.obj(/mnt/sda5/.user/root/src/openwatcom-1.9/bld/wv/c/dbgmisc.c)
00419270       Flip_
004192a0       ProcFlip_
00419300       ConfigFlip_
00419350       ProcRemark_
00419380       ProcDo_
00419390       ProcAssign_
00419400       GoToAddr_
00419450       StepIntoFunction_
00419490       SkipToAddr_
004194e0       GoToReturn_
00419540       ProcGo_
004197d0       ProcSkip_
00419800       ProcIf_
004198e0       ProcWhile_
00419960       ProcError_
004199c0       ProcQuit_
00419a40       MakeThdCurr_
00419b60       IsThdCurr_
00419c40       GetNextTID_
00419c90       NameThread_
00419d60       CheckForNewThreads_
00419dd0       FindThread_
00419df0       ProcThread_
00419f20       FreeThreads_
Module: dbgovl.obj(/mnt/sda5/.user/root/src/openwatcom-1.9/bld/wv/c/dbgovl.c)
00419f50       InitOvlState_
0041a020       FiniOvlState_
0041a060       InvalidateTblCache_
0041a070       SectIsLoaded_
0041a100       SectLoad_
0041a180       SectTblRead_
0041a1a0       SetStateOvlSect_
0041a1c0       TransOvlRetAddr_
0041a1e0       RemapSection_
0041a200       AddrSection_
0041a280       AddrFix_
0041a2c0       AddrFloat_
Module: dbgparse.obj(/mnt/sda5/.user/root/src/openwatcom-1.9/bld/wv/c/dbgparse.c)
0041a370       SetUpExpr_
0041a380       EvalLValExpr_
0041a3a0       EvalExpr_
0041a3c0       NormalExpr_
0041a3e0       ChkExpr_
0041a400       ReqU64Expr_
0041a460       ReqLongExpr_
0041a480       ReqExpr_
0041a4a0       OptExpr_
0041a4e0       MakeMemoryAddr_
0041a580       ReqMemAddr_
0041a5d0       CallExpr_
0041a620       OptMemAddr_
0041a650       SetTokens_
0041a670       LangInit_
0041a690       LangFini_
0041a790       LangLoad_
Module: dbgprint.obj(/mnt/sda5/.user/root/src/openwatcom-1.9/bld/wv/c/dbgprint.c)
0041a7d0       StartPrintBuff_
0041a860       EndPrintBuff_
0041af00       PrintChar_
0041b020       PrintString_
0041b030       ForcePrintString_
0041b9a0       PrintValue_
0041bca0       DoPrintList_
0041bcd0       ChkPrintList_
0041bd40       ProcPrint_
Module: dbgreg.obj(/mnt/sda5/.user/root/src/openwatcom-1.9/bld/wv/c/dbgreg.c)
0041bdf0       DefAddr_
0041be70       GetRegIP_
0041bea0       SetRegIP_
0041bee0       RecordSetRegIP_
0041bf30       SetRegSP_
0041bf60+      SetRegBP_
0041bf90       GetRegSP_
0041bfd0       GetRegBP_
0041c100       SetMemBefore_
0041c130       SetMemAfter_
0041c270       ResizeRegData_
0041c460       ClearMachState_
0041c4f0       InitMachState_
0041c540       FiniMachState_
0041c570       SetupMachState_
0041c600       CopyMachState_
0041c660       AllocMachState_
0041c6c0       FreeMachState_
0041c6e0       CollapseMachState_
0041c780       CheckStackPos_
0041c800       AdvMachState_
0041c910       ChangeMem_
0041c9f0       UndoLevel_
0041ca40       SetStackPos_
0041cb30       GetStackPos_
0041cc30       LastMachState_
0041cc40       PosMachState_
0041cdb0       LastStackPos_
0041cdc0       MoveStackPos_
0041cdf0       ProcRegister_
0041ce30       ProcUndo_
0041ce90*      GetActionString_
0041ced0*      GetUndoString_
0041cef0*      GetRedoString_
0041cf20       ProcStackPos_
0041cf60       GoHome_
0041cfa0       ParseRegSet_
0041d090       RegValue_
0041d0e0       RegNewValue_
00478ae0       _CurrRegSize
Module: dbgscan.obj(/mnt/sda5/.user/root/src/openwatcom-1.9/bld/wv/c/dbgscan.c)
0041d300       InitScan_
0041d350       FiniScan_
0041d380       ScanPos_
0041d390       ScanLen_
0041d3a0       ScanCmd_
0041d530       ScanType_
0041d5a0       ScanCall_
0041d620       ScanEOC_
0041d690       TokenName_
0041d770       Recog_
0041d7d0       ScanQuote_
0041d840       ScanItem_
0041d900       ReqEOC_
0041d930       FlushEOC_
0041dc70       NamePos_
0041dc80       NameLen_
0041ddf0       ScanExpr_
0041de20       AddChar_
0041de30       AddCEscapeChar_
0041de50       AddActualChar_
0041dfc0       RawScanInit_
0041dfe0       RawScanChar_
0041dff0       RawScanAdvance_
0041e010       RawScanFini_
0041e020       Scan_
0041e050       IntNumVal_
0041e070       RealNumVal_
0041e090       NewCurrRadix_
0041e0b0       SetCurrRadix_
0041e0d0       RestoreRadix_
0041e0f0       ReScan_
0041e110       DefaultRadixSet_
0041e130       RadixSet_
0041e1d0       RadixConf_
0041e200       FindRadixSpec_
0041e240       AddHexSpec_
0041e2a0       ForceSym2Num_
00478af6       _scan_string
00478af8       _StringStart
00478afc       _StringLength
00478b00       _ScanCCharNum
Module: dbgshow.obj(/mnt/sda5/.user/root/src/openwatcom-1.9/bld/wv/c/dbgshow.c)
0041e330       GetCmdEntry_
0041e370       ConfigCmdList_
0041e480       ConfigLine_
0041e4e0       DoConfig_
0041e610       ProcShow_
0041e670       SaveConfigToFile_
0041e680       RestoreConfigFromFile_
Module: dbgsrc.obj(/mnt/sda5/.user/root/src/openwatcom-1.9/bld/wv/c/dbgsrc.c)
0041e6a0       FreeRing_
0041e6c0       InitSource_
0041e6d0       FiniSource_
0041e6f0       DeleteRing_
0041e740       InsertRing_
0041e790       RingEnd_
0041e7a0       AddSourceSpec_
0041e7d0       SourceName_
0041e7e0       NextSourceSpec_
0041e7f0       SourceSet_
0041e8c0       SourceConf_
0041e920       OpenSrcFile_
Module: dbgstdio.obj(/mnt/sda5/.user/root/src/openwatcom-1.9/bld/wv/c/dbgstdio.c)
0041eb60       StdInNew_
0041eb70       StdOutNew_
Module: dbgsys.obj(/mnt/sda5/.user/root/src/openwatcom-1.9/bld/wv/c/dbgsys.c)
0041eb80+      DoSystem_
0041ec10       ProcSystem_
Module: dbgutil.obj(/mnt/sda5/.user/root/src/openwatcom-1.9/bld/wv/c/dbgutil.c)
0041ec90       DefaultSize_
0041edb0       CnvULongHex_
0041edd0       CnvLongDec_
0041edf0       CnvULongDec_
0041ee10       CnvLong_
0041ee30       CnvULong_
0041ee50       AddrTypeToString_
0041eec0       AddrToIOString_
0041ef00       AddrToString_
0041ef40       QualifiedSymName_
0041f020       CnvAddr_
0041f180       CnvNearestAddr_
0041f1d0       StrAddr_
0041f200       UniqStrAddr_
0041f230       LineAddr_
0041f2d0       Ring_
0041f2e0       Warn_
0041f330       AllocCmdList_
0041f370       FreeCmdList_
0041f390       LockCmdList_
0041f3a0       TypeInpStack_
0041f3c0       ClearInpStack_
0041f3e0       SetInpStack_
0041f400       PopInpStack_
0041f460       PushInpStack_
0041f530       CopyInpFlags_
0041f590       PushCmdList_
0041f5b0       PurgeInpStack_
0041f5f0       FreezeInpStack_
0041f610       UnAsm_
0041f660       ModImageName_
0041f690       DupStrLen_
0041f6e0       DupStr_
0041f710       RegFindData_
Module: dbg_dbg.obj(/mnt/sda5/.user/root/src/openwatcom-1.9/bld/wv/c/dbg_dbg.c)
0041fc40       LookupRegName_
0041fca0       LookupInternalName_
0041fd20       LookupUserName_
0041fd80       PurgeUserNames_
0041fdc0       CreateSym_
0041ff40       InternalValue_
Module: dbgprog.obj(/mnt/sda5/.user/root/src/openwatcom-1.9/bld/wv/c/dbgprog.c)
0047ee54+      _LocalDebugInfo
004201b0       InitCmd_
00420340       FindLocalDebugInfo_
004204f0*      DownLoadCode_
00420500       FiniCmd_
00420510       InitLocalInfo_
00420520       FiniLocalInfo_
00420540       ImagePrimary_
00420550       ImageEntry_
00420560       DefAddrSpaceForMod_
004205c0       DefAddrSpaceForAddr_
00420650       MapAddrForImage_
00420720       UnMapAddress_
00420820       UnMapPoints_
00420860       FreeImage_
004209e0       GetLastImageName_
00420e50       UnLoadSymInfo_
00420e90       ReLoadSymInfo_
00420ec0       ReMapImageAddress_
00420f30+      ReMapAddress_
004210f0       ReMapPoints_
004211b0*      LoadDeferredSymbols_
00421210       AddLibInfo_
00421320       SetProgStartHook_
00421520       LoadProg_
004215b0       ReleaseProgOvlay_
00421660       InitMappableAddr_
00421670       FiniMappableAddr_
00421690       GetProgName_
00421820       GetProgArgs_
00421830*      SetSymName_
00421920       LoadNewProg_
00421ca0       ReStart_
004222c0       SymUserModLoad_
004223a0       SymUserModUnload_
004223f0       ProcNew_
00422420       RecordNewProg_
Module: strutil.obj(/mnt/sda5/.user/root/src/openwatcom-1.9/bld/wv/c/strutil.c)
004224e0       StrCopy_
00422500       StrTrim_
00422540       FmtStr_
00422860       Format_
Module: stub.obj(/mnt/sda5/.user/root/src/openwatcom-1.9/bld/wv/c/stub.c)
00422890*      __RAISE
004228a0*      _matherr_
Module: dbgwalk.obj(/mnt/sda5/.user/root/src/openwatcom-1.9/bld/wv/c/dbgwalk.c)
00422960       SSLWalk_
Module: dynmem.obj(/mnt/sda5/.user/root/src/openwatcom-1.9/bld/wv/c/dynmem.c)
00422c00       __nmemneed_
00422c30       ExtraAlloc_
00422c30       DbgAlloc_
00422c40       DbgMustAlloc_
00422c70*      ExtraRealloc_
00422c70       DbgRealloc_
00422c80       DbgFree_
00422c90       ChkAlloc_
00422cb0       MemFini_
00422d90*      MemExpand_
00422d90       MemInit_
00422df0       ExtraFree_
Module: dbgsem.obj(/mnt/sda5/.user/root/src/openwatcom-1.9/bld/wv/c/dbgsem.c)
0047f6e4       _ScanSavePtr
00424480*      SemAllowClosestLine_
004249f0       SSLSemantic_
00424ab0       SSLError_
00424ae0       SSLOutToken_
00424c10       SSLNextToken_
00424c20       SSLCurrToken_
Module: dbgtrace.obj(/mnt/sda5/.user/root/src/openwatcom-1.9/bld/wv/c/dbgtrace.c)
00424c40       ResizeTraceData_
00424d40       TraceStart_
00424d60       TraceHow_
00424e80       TraceSimulate_
00424ec0       TraceModifications_
00424f10       TraceStop_
00424f20       TraceKill_
00424f70       SourceStep_
004251b0+      CheckForDLLThunk_
00425240       TraceCheck_
00425690+      PerformTrace_
004258a0       HasLineInfo_
004258f0       ExecTrace_
00425a10       ProcTrace_
00425b10       FiniTrace_
00425b50       LevelSet_
00425ba0       LevelConf_
Module: dbgexins.obj(/mnt/sda5/.user/root/src/openwatcom-1.9/bld/wv/c/dbgexins.c)
00425bd0       AsmExam_
00425c00       SrcExam_
Module: dbgexdat.obj(/mnt/sda5/.user/root/src/openwatcom-1.9/bld/wv/c/dbgexdat.c)
00425d80       ProcExamine_
Module: dbgmodfy.obj(/mnt/sda5/.user/root/src/openwatcom-1.9/bld/wv/c/dbgmodfy.c)
00425ee0       ProcModify_
Module: dbgtback.obj(/mnt/sda5/.user/root/src/openwatcom-1.9/bld/wv/c/dbgtback.c)
00425f80       FixOvlRetAddr_
00425fc0       WalkCallChain_
004261e0       ReturnAddress_
Module: dbgerr.obj(/mnt/sda5/.user/root/src/openwatcom-1.9/bld/wv/c/dbgerr.c)
00426230       Error_
00426460       PrevError_
Module: namelist.obj(/mnt/sda5/.user/root/src/openwatcom-1.9/bld/wv/c/namelist.c)
004267e0       NameListAddModules_
004268b0       NameListInit_
004268d0       NameListFree_
00426900       NameListNumRows_
00426910       NameListName_
00426970       NameListAddr_
004269c0       NameListHandle_
Module: modlist.obj(/mnt/sda5/.user/root/src/openwatcom-1.9/bld/wv/c/modlist.c)
004269d0       ModHasSourceInfo_
00426aa0       ModCompare_
00426b50       ModListAddModules_
00426be0       ModListInit_
00426c20       ModListFree_
00426c50       ModListNumRows_
00426c60       ModListMod_
00426c80       ModListName_
00426cb0       ModFirstAddr_
Module: sortlist.obj(/mnt/sda5/.user/root/src/openwatcom-1.9/bld/watcom/c/sortlist.c)
00426ef0       SortLinkedList_
Module: remmisc.obj(/mnt/sda5/.user/root/src/openwatcom-1.9/bld/wv/c/remmisc.c)
0047f74c       _MaxPacketLen
00426f40       InitSuppServices_
00426f70       FiniSuppServices_
00426f80       InitTrap_
00427110       GetSuppId_
00427190       RemoteSuspend_
004271c0       RemoteResume_
004271f0       RemoteErrMsg_
00427220       FiniTrap_
Module: remcore.obj(/mnt/sda5/.user/root/src/openwatcom-1.9/bld/wv/c/remcore.c)
00427380       FiniCache_
004273a0       InitCache_
00427400*      HaveCache_
004274a0       ProgPeek_
004274e0       ProgPoke_
004275e0*      ProgChkSum_
00427640       PortPeek_
00427680       PortPoke_
00427730       ReadDbgRegs_
00427760       WriteDbgRegs_
004277d0+      ArgsLen_
004277f0       ClearMachineDataCache_
00427810       DoLoad_
00427970       KillProgOvlay_
004279f0       MakeProgRun_
00427ac0       Redirect_
00427b40       RemoteMapAddr_
00427ba0       RemoteSetUserScreen_
00427bd0       RemoteSetDebugScreen_
00427c00       RemoteReadUserKey_
00427c30       RemoteGetLibName_
00427c90       RemoteGetMsgText_
00427cf0       RemoteMachineData_
00427e60       RemoteSetBreak_
00427eb0       RemoteRestoreBreak_
00427f00       RemoteSetWatch_
00427f60       RemoteRestoreWatch_
00427fb0       RemoteSplitCmd_
00428030       CheckSegAlias_
00428080       GetSysConfig_
004280b0       InitCoreSupp_
00428100       FiniCoreSupp_
00428130       TrapClientString_
Module: remfinfo.obj(/mnt/sda5/.user/root/src/openwatcom-1.9/bld/wv/c/remfinfo.c)
00428170       InitFileInfoSupp_
00428190       RemoteGetFileDate_
00428240       RemoteSetFileDate_
Module: remenv.obj(/mnt/sda5/.user/root/src/openwatcom-1.9/bld/wv/c/remenv.c)
004282f0       InitEnvSupp_
00428310*      RemoteSetEnvironmentVariable_
004283c0*      RemoteGetEnvironmentVariable_
Module: remfile.obj(/mnt/sda5/.user/root/src/openwatcom-1.9/bld/wv/c/remfile.c)
00428580+      GetCachedHandle_
004285c0+      InitHandleCache_
004285f0+      AddCachedHandle_
00428630+      DelCachedHandle_
00428680       InitFileSupp_
004286d0       HaveRemoteFiles_
004286e0       RemoteStringToFullName_
004288d0       RemoteOpen_
00428a70       MaxRemoteWriteSize_
00428af0       RemoteWrite_
00428b10       RemoteWriteConsole_
00428bd0*      MaxRemoteReadSize_
00428be0       RemoteRead_
00428c70       RemoteSeek_
00428d00       RemoteClose_
00428d80       RemoteErase_
00428e10       RemoteFork_
0047f7f0       _RemFile
Module: remthrd.obj(/mnt/sda5/.user/root/src/openwatcom-1.9/bld/wv/c/remthrd.c)
00428ea0       InitThreadSupp_
00428ec0       RemoteGetNextThread_
00428f30       RemoteSetThreadWithErr_
00428fb0       RemoteSetThread_
00428fc0       RemoteFreezeThread_
00429010       RemoteThawThread_
00429060       RemoteThdName_
0047f7f8+      _SuppThreadId
Module: removl.obj(/mnt/sda5/.user/root/src/openwatcom-1.9/bld/wv/c/removl.c)
004290c0       InitOvlSupp_
004290e0       RemoteOvlSectSize_
00429130       RemoteOvlSectPos_
00429230       RemoteSectTblRead_
00429270       RemoteSectTblWrite_
004292d0       RemoteOvlTransAddr_
00429390       RemoteOvlRetAddr_
Module: ldsupp.obj(/mnt/sda5/.user/root/src/openwatcom-1.9/bld/wv/c/ldsupp.c)
00429480       LDToD_
004294b0       DToLD_
004294e0       LDToS_
00429530       SToLD_
00429550       LDCmp_
00429590       LDAdd_
004295c0       LDSub_
004295f0       LDMul_
00429620       LDDiv_
Module: doserr.obj(/mnt/sda5/.user/root/src/openwatcom-1.9/bld/wv/c/doserr.c)
00429660*      GetDOSErrMsg_
00478c1c+      _DosErrMsgs
Module: diginter.obj(/mnt/sda5/.user/root/src/openwatcom-1.9/bld/wv/c/diginter.c)
00429690       DIGCliAlloc_
004296a0       DIGCliRealloc_
004296b0       DIGCliFree_
004296c0       DIGCliOpen_
004296d0       DIGCliSeek_
004296e0       DIGCliRead_
004296f0       DIGCliWrite_
00429700       DIGCliClose_
00429710       DIGCliRemove_
00429720       DIGCliMachineData_
Module: dipinter.obj(/mnt/sda5/.user/root/src/openwatcom-1.9/bld/wv/c/dipinter.c)
00429780       DIPCliImageUnload_
004297a0       DIPCliMapAddr_
004297b0       DIPCliSymCreate_
004297e0       MadTypeToDipTypeInfo_
00429850       RegLocation_
004298b0       DIPCliItemLocation_
00429b20       DIPCliAssignLocation_
00429b30       DIPCliSameAddrSpace_
00429b60       DIPCliAddrSection_
00429b70       DIPCliStatus_
00429b80       DIPCliCurrMAD_
00429b90       DeAliasAddrMod_
00429bc0       DeAliasAddrSym_
00429bf0       DeAliasAddrScope_
00429c20       DeAliasAddrCue_
00429eb0+      WVSymFreeAll_
00429eb0+      WVSymRelease_
00429eb0+      WVSymAddRef_
00429eb0+      WVTypeFreeAll_
00429eb0+      WVTypeRelease_
00429eb0+      WVTypeAddRef_
0042a010       DIPMsgText_
0042a090       InitDbgInfo_
0042a1a0       FiniDbgInfo_
0042a1b0       IsInternalMod_
0042a1c0       IsInternalModName_
Module: madinter.obj(/mnt/sda5/.user/root/src/openwatcom-1.9/bld/wv/c/madinter.c)
0042a1f0       MADCliAddrSection_
0042a200       MADCliAddrOvlReturn_
0042a210       MADCliAddrToString_
0042a280       MADCliMemExpr_
0042a2e0       MADCliReadMem_
0042a310       MADCliWriteMem_
0042a340       MADCliString_
0042a3a0       MADCliAddString_
0042a3b0       MADCliRadixPrefix_
0042a450       MADCliNotify_
0042a4b0       MADCliSystemConfig_
0042a4c0       InitMADInfo_
0042a4e0       FiniMADInfo_
0042a4f0       GetMADTypeHandleDefaultAt_
0042a520       GetMADTypeDefaultAt_
0042a550       GetMADTypeDefault_
0042a5b0       ReportMADFailure_
0042a6c0       CheckMADChange_
0042a7f0       GetMADNormalizedString_
0042a810       GetMADTypeNameForCmd_
0042a860       FindMADTypeHandle_
0042a910       FindMAD_
Module: dbglit.obj(/mnt/sda5/.user/root/src/openwatcom-1.9/bld/wv/c/dbglit.c)
0042a940       InitLiterals_
0042a950       FiniLiterals_
Module: dbginsty.obj(/mnt/sda5/.user/root/src/openwatcom-1.9/bld/wv/c/dbginsty.c)
0042a970       BreakOnSelected_
0042a9a0       ScanSelectedExpr_
0042a9f0       WndGetExprSPInspectType_
0042ab80       WndEvalInspectExpr_
Module: dbgdata.obj(/mnt/sda5/.user/root/src/openwatcom-1.9/bld/wv/c/dbgdata.c)
0047f810       _DbgTmpBrk
0047f880       _SysConfig
0047f888       _UserTmpBrk
0047f8f8       _NilAddr
0047f900       _PgmStackUsage
0047f928       _DipFiles
0047f950       _Context
0047fa40       _ExecThd
0047fa44       _TxtBuff
0047fa48       _NameBuff
0047fa4c       _DbgImageList
0047fa50       _SrchHistory
0047fa54       _InpStack
0047fa58       _ContextMod
0047fa5c       _CodeAddrMod
0047fa60       _InvCount
0047fa64       _MemSize
0047fa68       _OvlSize
0047fa6c       _CheckSize
0047fa70       _CmdStart
0047fa74       _CmdHistory
0047fa78       _TaskId
0047fa7c       _SkipCount
0047fa80       _BrkList
0047fa84       _HeadThd
0047fa88       _TrpDebugFile
0047fa8c       _TrpFile
0047fa90       _InvokeFile
0047fa94       _DbgRegs
0047fa98       _SrcSpec
0047fa9c       _ExprAddrDepth
0047faa0       _PrevRegs
0047faa4       _InitCmdList
0047faa8       _DbgSwitches
0047fab4       _DIPStatus
0047fab6       _CurrRadix
0047fab7       _DbgLevel
00478f08       _Supports8ByteBreakpoints
00478f0c       _SupportsExactBreakpoints
00478f10       _Language
00478f14       _NestedCallLevel
00478f18       _WndFlags
00478f1c       _DbgBuffers
00479346       _OnOffNameTab
0047fab8       _ActiveWindowLevel
0047fab9       _DefRadix
0047faba       _CurrToken
0047fabb       _ScrnState
Module: dbgevent.obj(/mnt/sda5/.user/root/src/openwatcom-1.9/bld/wv/c/dbgevent.c)
0042ace0       RecordInit_
0042acf0       RecordFini_
0042ad20       ShowReplay_
0042ad70       OkToSaveReplay_
0042ad90       SaveReplayToFile_
0042ada0       RestoreReplayFromFile_
0042ae50       ProcRecord_
0042aed0       RecordStart_
0042af00       ReplayTo_
0042afd0       CheckEventRecorded_
0042b000       RecordEvent_
0042b130       RecordAsynchEvent_
0042b150       RecordGo_
0042b180       RecordCommand_
0042b1d0       SetRecord_
0042b1f0       GetEventAddress_
0047fac0       _EventList
Module: dbgdll.obj(/mnt/sda5/.user/root/src/openwatcom-1.9/bld/wv/c/dbgdll.c)
0042b250       DLLMatch_
0042b2c0       DLLListName_
0042b2d0       NextDLLList_
0042b2e0       AddDLLList_
0042b310       BreakOnImageLoad_
0042b370       InitDLLList_
0042b380       FiniDLLList_
0042b3a0       RecordClearDLLBreaks_
0042b3e0       RecordSetDLLBreaks_
0047fac4       _DLLList
Module: dlgscan.obj(/mnt/sda5/.user/root/src/openwatcom-1.9/bld/wv/c/dlgscan.c)
0042b580       DlgScanLong_
0042b590*      DlgScanSyntax_
0042b5b0       DlgScanCodeAddr_
0042b5c0       DlgScanDataAddr_
0042b5d0       DlgScanGivenAddr_
0042b5e0       DlgScanAny_
0042b5f0       DlgScanString_
0042b620       DlgScanModName_
Module: dbgset.obj(/mnt/sda5/.user/root/src/openwatcom-1.9/bld/wv/c/dbgset.c)
0042b6b0       SwitchOnOff_
0042b710       ProcSet_
0042b730       ConfigSet_
0042b8e0       ShowSwitch_
0042b910       LangSetInit_
0042b960       LangSetFini_
0042b970       NewLang_
0042bff0       PendingToggles_
0042c720       SupportFini_
0042c880       IsSupportRoutine_
Module: srcmgt.obj(/mnt/sda5/.user/root/src/openwatcom-1.9/bld/watcom/c/srcmgt.c)
0042c960       FClearOpenSourceCache_
0042c980       FOpenSource_
0042ca10       FSize_
0042ca40       FLastOffset_
0042ca60       FileIsRemote_
0042ca80       FGetName_
0042ca90       FDoneSource_
0042cca0       FCurrLine_
0042ccb0       FReadLine_
0047959c+      _FileList
Module: dbgupdt.obj(/mnt/sda5/.user/root/src/openwatcom-1.9/bld/wv/c/dbgupdt.c)
0042ce10       DbgUpdate_
Module: symcomp.obj(/mnt/sda5/.user/root/src/openwatcom-1.9/bld/wv/c/symcomp.c)
0042cf20       SymCompInit_
0042d030       SymCompFini_
0042d060       SymCompMatches_
004795a0+      _SortedNames
Module: litengin.obj(/mnt/sda5/.user/root/src/openwatcom-1.9/bld/wv/c/litengin.c)
0047fae0       __LITMSTR_REG_USER
0047fae4       __LITMSTR_SIGNED
0047fae8       __LITMSTR_HALF
0047faec       __LITMSTR_HWORD
0047faf0       __LITMSTR_MMX
0047faf4       __LITMSTR_XMM
0047faf8       __LITMSTR_UNSIGNED
0047fafc       __LITMSTR_DBLW
0047fb00       __LITMSTR_INT
0047fb04       __LITMSTR_MPSEUDOINS
0047fb08       __LITMSTR_REG_SYMBOLIC
0047fb0c       __LITMSTR_MVAX
0047fb10       __LITMSTR_F_FLOAT
0047fb14       __LITMSTR_G_FLOAT
0047fb18       __LITMSTR_D_FLOAT
0047fb1c       __LITMSTR_VAX
0047fb20       __LITMSTR_REG_NUMERIC
0047fb24       __LITMSTR_IEEE
0047fb28       __LITMSTR_PSEUDOINS
0047fb2c       __LITMSTR_MSYMBOLIC
0047fb30       __LITMSTR_INT64
0047fb34       __LITMSTR_N64_PTR
0047fb38       __LITMSTR_AFFINE
0047fb3c       __LITMSTR_PROJECTIVE
0047fb40       __LITMSTR_RAWINS
0047fb44       __LITMSTR_MOS
0047fb48       __LITMSTR_REG_OS
0047fb4c       __LITMSTR_UNSIGNED64
0047fb50       __LITMSTR_PCDOUBLE
0047fb54       __LITMSTR_DOWN
0047fb58       __LITMSTR_UP
0047fb5c       __LITMSTR_CHOP
0047fb60       __LITMSTR_ZERO
0047fb64       __LITMSTR_PCEXTENDED
0047fb68       __LITMSTR_EMPTY
0047fb6c       __LITMSTR_HEX
0047fb70       __LITMSTR_REG_NORMAL
0047fb74       __LITMSTR_REG_EXTENDED
0047fb78       __LITMSTR_PCZERO
0047fb7c       __LITMSTR_VALID
0047fb80       __LITMSTR_MHEX
0047fb84       __LITMSTR_SPECIAL
0047fb88       __LITMSTR_PCSINGLE
0047fb8c       __LITMSTR_EMULATOR
0047fb90       __LITMSTR_DECIMAL
0047fb94       __LITMSTR_MEXTENDED
0047fb98       __LITMSTR_NEAREST
0047fb9c       __LITMSTR_UPPER
0047fba0       __LITMSTR_MINSIDE
0047fba4       __LITMSTR_OUTSIDE
0047fba8       __LITMSTR_MUPPER
0047fbac       __LITMSTR_INSIDE
0047fbb0       __LITMSTR_FPU
0047fbb4       __LITMSTR_FAR
0047fbb8       __LITMSTR_LOWER
0047fbbc       __LITMSTR_INTERRUPT
0047fbc0       __LITMSTR_FLOAT
0047fbc4       __LITMSTR_N32_PTR
0047fbc8       __LITMSTR_CPU
0047fbcc       __LITMSTR_F32_PTR
0047fbd0       __LITMSTR_N16_PTR
0047fbd4       __LITMSTR_NONE
0047fbd8       __LITMSTR_F16_PTR
0047fbdc       __LITMSTR_EXTENDED
0047fbe0       __LITMSTR_DOUBLE
0047fbe4       __LITMSTR_NEAR
0047fbe8       __LITERR_CANT_RESTART
0047fbec       __LITMSTR_CHAR
0047fbf0       __LITMSTR_UCHAR
0047fbf4       __LITMSTR_QWORD
0047fbf8       __LITERR_NEAR_TOKEN
0047fbfc       __LITERR_AMBIG_SRC_FILE
0047fc00       __LITMSTR_NIL
0047fc04       __LITMSTR_LWORD
0047fc08       __LITERR_NO_SRC_FILE
0047fc0c       __LITMSTR_LONG
0047fc10       __LITERR_BAD_PARSE_VERSION
0047fc14       __LITMSTR_ULONG
0047fc18       __LITERR_WANT_MODULE
0047fc1c       __LITERR_REMOTE_LINK_BROKEN
0047fc20       __LITMSTR_WORD
0047fc24       __LITMSTR_DWORD
0047fc28       __LITMSTR_SHORT
0047fc2c       __LITMSTR_BYTE
0047fc30       __LITMSTR_USHORT
0047fc34       __LITERR_NO_RETURN_ADDRESS
0047fc38       __LITERR_CALL_NOT_ALLOWED
0047fc3c       __LITERR_NO_ACCESS
0047fc40       __LITERR_NO_OBJECT_FOR_CALL
0047fc44       __LITERR_CANT_KILL_PROGRAM
0047fc48       __LITERR_NO_IMAGE
0047fc4c       __LITERR_EXECUTING_AT
0047fc50       __LITERR_NOT_PRINTABLE
0047fc54       __LITERR_STK_UNDERFL
0047fc58       __LITERR_TOO_MANY_SCANRESTORE
0047fc5c       __LITERR_PARSE_FILE
0047fc60       __LITERR_INVALID_OPERATOR
0047fc64       __LITERR_NOT_WATCH_SIZE
0047fc68       __LITERR_CALLED_FROM
0047fc6c       __LITERR_STK_OVERFL
0047fc70       __LITERR_NEAR_END_OF_LINE
0047fc74       __LITERR_BAD_HOOK
0047fc78       __LITERR_NEAR_END_OF_COMMAND
0047fc7c       __LITERR_TOO_MANY_SCANSAVE
0047fc80       __LITERR_CHAR_STAR_STAR
0047fc84       __LITERR_BAD_SUBSTRING_INDEX
0047fc88       __LITERR_WANT_END_STRING
0047fc8c       __LITERR_EXPR_TOO_LONG
0047fc90       __LITERR_NO_OVL_STATE
0047fc94       __LITERR_NO_READ_PORT
0047fc98       __LITERR_ZERO_MOD
0047fc9c       __LITERR_NO_LANG
0047fca0       __LITERR_NO_WRITE_MEM
0047fca4       __LITERR_ZERO_DIV
0047fca8       __LITERR_NO_WRITE_PORT
0047fcac       __LITERR_NO_MAKE_CURR_THREAD
0047fcb0       __LITERR_WANT_COMMAND_LIST
0047fcb4       __LITERR_NO_READ_MEM
0047fcb8       __LITERR_TOO_MANY_CALLS
0047fcbc       __LITERR_NO_SUCH_THREAD
0047fcc0       __LITERR_EXPR_STACK_OVER
0047fcc4       __LITERR_CANT_SET_ALL_THREADS
0047fcc8       __LITERR_DBG_INTERRUPT
0047fccc       __LITERR_UNKNOWN_SYMBOL
0047fcd0       __LITERR_NO_SUCH_POINT
0047fcd4       __LITERR_VOID_BASE
0047fcd8       __LITERR_NO_SOURCE_INFO
0047fcdc       __LITERR_SYS_FAIL
0047fce0       __LITERR_CANNOT_RESTORE_STDOUT
0047fce4       __LITERR_FILE_NOT_OPEN
0047fce8       __LITERR_NEED_ADDRESS
0047fcec       __LITERR_SYM_NOT_CREATED
0047fcf0       __LITERR_INCONSISTENT_GO
0047fcf4       __LITERR_NO_ROUTINE
0047fcf8       __LITERR_POINT_EXISTS
0047fcfc       __LITERR_TOO_MANY_PARMS
0047fd00       __LITERR_DUPLICATE_TYPE_SPEC
0047fd04       __LITERR_ILL_TYPE
0047fd08       __LITERR_CANNOT_RESTORE_STDIN
0047fd0c       __LITERR_ILLEGAL_TYPE_SPEC
0047fd10       __LITERR_NO_MODULE
0047fd14       __LITERR_TYPE_CONVERSION
0047fd18       __LITERR_WANT_EOC
0047fd1c       __LITERR_NO_MEMORY_FOR_EXPR
0047fd20       __LITERR_NO_MEMORY_FOR_DEBUG
0047fd24       __LITERR_LOG_NOT_STARTED
0047fd28       __LITERR_LOG_STARTED
0047fd2c       __LITERR_NO_MEMORY
0047fd30       __LITERR_WANT_ON_OFF
0047fd34       __LITERR_WANT_REG_NAME
0047fd38       __LITERR_NO_MEMORY_FOR_WINDOW
0047fd3c       __LITERR_WANT_TOKEN
0047fd40       __LITERR_WANT_NAME
0047fd44       __LITERR_BAD_SUBCOMMAND
0047fd48       __LITERR_BAD_OPTION
0047fd4c       __LITERR_NO_CODE
0047fd50       __LITERR_WANT_OPERAND
0047fd54+      __LITERR_BAD_TYPE_NAME
0047fd58       __LITERR_WANT_FILENAME
0047fd5c       __LITERR_BAD_CALL_TYPE
0047fd60       __LITERR_WANT_LOOKUP_ITEM
0047fd64       __LITLDS_INFO_BAD_VERSION
0047fd68       __LITIO
0047fd6c       __LITBAD_TRAP_FILE
0047fd70       __LITLDS_INFO_INVALID
0047fd74       __LITDIP_load_failed
0047fd78       __LITNo_DIPs_Found
0047fd7c       __LITLMS_FREAD_FAILED
0047fd80       __LITSym_Info_Load_Failed
0047fd84       __LITERR_GENERIC
0047fd88       __LITLMS_INVALID_MAD_VERSION
0047fd8c       __LITLDS_INVALID_DIP
0047fd90       __LITERR_BAD_COMMAND
0047fd94       __LITOUT_OF_DOS_MEMORY
0047fd98       __LITINCORRECT_TRAP_FILE_VERSION
0047fd9c       __LITLMS_UNREGISTERED_MAD
0047fda0       __LITERR_BAD_RADIX
0047fda4       __LITLMS_INVALID_MAD
0047fda8       __LITCANT_LOAD_TRAP_FILE
0047fdac       __LITLMS_RECURSIVE_MAD_FAILURE
0047fdb0       __LITStr_ACTION_MODIFY_REGISTER
0047fdb4       __LITUnknown_type
0047fdb8       __LITLDS_INVALID_DIP_VERSION
0047fdbc       __LITStr_ACTION_MODIFY_MEMORY
0047fdc0       __LITfield
0047fdc4       __LITinherited_members
0047fdc8       __LITLDS_FSEEK_FAILED
0047fdcc       __LITLDS_FREAD_FAILED
0047fdd0       __LITLDS_FWRITE_FAILED
0047fdd4       __LITStr_ACTION_THREAD_CHANGE
0047fdd8       __LITLDS_TOO_MANY_DIPS
0047fddc       __LITStr_ACTION_MODIFY_IP
0047fde0       __LITLDS_NO_MEM
0047fde4       __LITStr_ACTION_ASSIGNMENT
0047fde8       __LITStr_ACTION_MODIFY_VARIABLE
0047fdec       __LITStr_ACTION_EXECUTE
0047fdf0       __LITImage_Not_Loaded
0047fdf4       __LITLDS_FOPEN_FAILED
0047fdf8       __LITStruct
0047fdfc       __LITTask_Exception
0047fe00       __LITUser_Interupt
0047fe04       __LITDead
0047fe08       __LITNo_Visible_Members
0047fe0c       __LITBottom_Of_Stack
0047fe10       __LITThread_Not_Exist
0047fe14       __LITRunnable
0047fe18       __LITTop_Of_Stack
0047fe1c       __LITDLL_UnLoaded
0047fe20       __LITFrozen
0047fe24       __LITArray
0047fe28       __LITNew_Task
0047fe2c       __LITNo_More_Undos
0047fe30       __LITCurrent
0047fe34       __LITNo_Task
0047fe38       __LITDLL_Loaded
0047fe3c       __LITTask_Completed
0047fe40       __LITBreak_on_DLL_Load
0047fe44       __LITTask_Not_Loaded
0047fe48       __LITSTARTUP_No_Recog_Optn
0047fe4c       __LITEnd_Of_Line
0047fe50       __LITDebugger_Startup_Error
0047fe54+      __LITMSG_Unexpected_Break
0047fe58       __LITMap_Selector
0047fe5c       __LITSTARTUP_Expect_Eql
0047fe60       __LITInternal_Error
0047fe64       __LITNewVal
0047fe68       __LITSTARTUP_MAD_Not_Init
0047fe6c       __LITSTARTUP_Num_Too_Big
0047fe70       __LITSTARTUP_Expect_End_Env_Str
0047fe74       __LITMap_Named_Selector
0047fe78       __LITBreak_on_execute
0047fe7c       __LITNum_Name
0047fe80       __LITBreak_on_write
0047fe84       __LITOldVal
0047fe88       __LITNew_Expression
0047fe8c       __LITSym_Name_Name
0047fe90       __LITSTARTUP_Invalid_Num
0047fe94       __LITWARN_ONLY_MAX_EXPAND_ARRAY_ELEMENTS
0047fe98       __LITQuest_Marks
0047fe9c       __LITEmpty
0047fea0       __LITSTARTUP_Expect_Brace
0047fea4       __LITSTARTUP_Loading_PRS
0047fea8       __LITSTARTUP_Invalid_Option
0047feac       __LITSTARTUP_DIP_Not_Init
0047feb0       __LITSTARTUP_DIP_Not_Register
0047feb4+      __LITWARN_Unable_To_Remap_Tmp
0042d110       InitEngineLiterals_
0042df90       FiniEngineLiterals_
0047feb8       __LITWARN_No_Nxt_Src_Ln
Module: litwd.obj(/mnt/sda5/.user/root/src/openwatcom-1.9/bld/wv/c/litwd.c)
0047febc       __LITDOS_invalid_drive
0047fec0+      __LITUnable_to_get_rm_sel
0047fec4+      __LITUnable_to_alloc_DOS_mem
0047fec8       __LITDOS_remove_cd
0047fecc       __LITDOS_invalid_data
0047fed0       __LITDOS_not_same_device
0047fed4       __LITDOS_access_denied
0047fed8       __LITDOS_too_many_open_files
0047fedc       __LITDOS_invalid_format
0047fee0       __LITDOS_memory_control
0047fee4       __LITDOS_invalid_address
0047fee8+      __LITERR_NOT_PROCEDURE
0047feec       __LITDOS_invalid_environment
0047fef0       __LITDOS_path_not_found
0047fef4+      __LITERR_CANT_GET_RV
0047fef8       __LITDOS_invalid_handle
0047fefc       __LITDOS_invalid_access_code
0047ff00       __LITDOS_insufficient_memory
0047ff04       __LITDOS_invalid_function
0047ff08       __LITERR_RX_10
0047ff0c       __LITERR_RX_11
0047ff10       __LITERR_RX_12
0047ff14       __LITERR_RX_13
0047ff18       __LITDOS_file_not_found
0047ff1c       __LITERR_RX_9
0047ff20       __LITERR_RX_7
0047ff24       __LITERR_RX_4
0047ff28       __LITERR_RX_5
0047ff2c       __LITERR_RX_2
0047ff30       __LITERR_RX_3
0047ff34       __LITERR_RX_1
0047ff38       __LITERR_MACRO_NOT_VALID
0047ff3c       __LITERR_WANT_MENU_ITEM
0047ff40+      __LITUnable_to_init_ui
0047ff44       __LITERR_BAD_TAB
0047ff48       __LITERR_BAD_DCLICK
0047ff4c       __LITERR_BAD_ARRAY_INDEX
0047ff50       __LITERR_WIND_NOT_OPEN
0047ff54       __LITERR_BAD_WINDOW_ATTR
0047ff58       __LITERR_BAD_COLOUR_ATTR
0047ff5c       __LITERR_BAD_WIND_NAME
0047ff60       __LITERR_MATCH_NOT_SUPPORTED
0047ff64       __LITERR_RX_8
0047ff68       __LITERR_RX_6
0047ff6c       __LITWindowXMM
0047ff70       __LITID
0047ff74       __LITWindowReplay
0047ff78       __LITNo_Source_Line
0047ff7c       __LITWindowFPU
0047ff80       __LITWindowGlobals
0047ff84       __LITNo_text_to_complete
0047ff88       __LITWindowAccelerator
0047ff8c       __LITWindowModules
0047ff90       __LITWindowSearch
0047ff94       __LITWindowMMX
0047ff98       __LITWindowGlobal_Functions
0047ff9c       __LITWindowCalls
0047ffa0       __LITExecutable_File
0047ffa4       __LITWindowFunctions
0047ffa8       __LITDebug_Information_Type
0047ffac       __LITDebug_Information
0047ffb0       __LITNo_Match_Found
0047ffb4       __LITState
0047ffb8       __LITWindowLocals
0047ffbc       __LITWindowAssembly
0047ffc0       __LITWindowWatches
0047ffc4       __LITWindowStack
0047ffc8       __LITWindowRegisters
0047ffcc       __LITWindowCurrent
0047ffd0       __LITWindowLog
0047ffd4       __LITWindowImages
0047ffd8       __LITWindowFile_Variables
0047ffdc       __LITWindowFileView
0047ffe0       __LITWindowVariable
0047ffe4       __LITWindowThreads
0047ffe8       __LITWindowBinary
0047ffec       __LITWindowMemory
0047fff0       __LITWindowSource
0047fff4       __LITWindowAll
0047fff8       __LITWindowIO_Ports
0047fffc       __LITWindowTmpFile
00480000       __LITWindowBrk
00480004       __LITBreakpoint_File_Name
00480008       __LITDLL_Name
0048000c       __LITCancel
00480010       __LITEnter_Window
00480014       __LITSymbol_List
00480018       __LITConfiguration_File_Name
0048001c       __LITSymbol_File
00480020       __LITThe_WATCOM_Debugger
00480024       __LITOK
00480028       __LITError
0048002c       __LITAbout_The_WATCOM_Debugger
00480030       __LITModules
00480034       __LITDlgBreak
00480038       __LITReplay_File_Name
0048003c       __LITXModule_
00480040       __LITNew_Source
00480044       __LITProgram_Name
00480048       __LITGoWhere
0048004c       __LITXSymbol_
00480050       __LITEnter_New_Command
00480054       __LITmac_main_menu
00480058       __LITThe_WATCOM_Debugger_for_PowerBuilder
0048005c       __LITPowerBuilder_Debugger_Already_Running
00480060       __LITMacro_Type
00480064       __LITmac_command_string
00480068       __LITMac_Window
0048006c       __LITRedefine_Key
00480070       __LITmac_popup_menu
00480074       __LITNew_Offset
00480078       __LITDefinition
0048007c       __LITNew_Port_Addr
00480080       __LITNew_Line
00480084       __LITPress_the_Key
00480088       __LITNew_Addr
0048008c       __LITMem_Addr
00480090       __LITNew_Module
00480094       __LITEnter_File_Name
00480098       __LITKey_Name
0048009c       __LITPowerBuilder_Not_Running
004800a0       __LITWARN_Asynch_Event
004800a4       __LITWARN_Cycle_Detected
004800a8       __LITWARN_Losing_Redo
004800ac       __LITWARN_Incomplete_Undo
004800b0       __LITWARN_Program_Will_Slow
004800b4+      __LITWARN_Unable_To_Remap
004800b8       __LITWARN_Kill_PowerBuilder
004800bc+      __LITFirst_UI_Message
0042e940       DUIInitLiterals_
0042f0e0       DUIFiniLiterals_
004800c0       __LITWARN_Source_Not_Available
Module: dui.obj(/mnt/sda5/.user/root/src/openwatcom-1.9/bld/wv/c/dui.c)
0042f610       DUIUpdate_
0042f630       DUIStatusText_
0042f640       DUIMsgBox_
0042f650       DUIDlgTxt_
0042f660       DUIInfoBox_
0042f670       DUIStop_
0042f680       DUIClose_
0042f690       DUIInit_
0042f700       DUIFini_
0042f750       DUIFreshAll_
0042f760       DUIStopRefresh_
0042f770       DUIShow_
0042f7b0       DUIWndUser_
0042f7c0       DUIWndDebug_
0042f7d0       DUIShowLogWindow_
0042f7e0       ReqWndName_
0042f810       DUIGetMonitorType_
0042f840       DUIScreenSizeY_
0042f850       DUIScreenSizeX_
0042f860       DUIErrorBox_
0042f880       DUIArrowCursor_
0042f890       DUILoadString_
0042f8a0       DUIAskIfAsynchOk_
0042f8c0       DUIFlushKeys_
0042f8d0       DUIPlayDead_
0042f8e0       DUISysEnd_
0042f8f0       DUISysStart_
0042f900       DUIRingBell_
0042f910       DUIProcPendingPaint_
0042f920       DUIInfoRelease_
0042f940       DUIExitCriticalSection_
0042f940       DUIEnterCriticalSection_
0042f950       DUIHourGlass_
0042f960       WndDoInput_
0042f970       DUIGetSourceLine_
0042f990       DUICopyCopied_
0042f990       DUICopySize_
0042f9c0       DUIIsDBCS_
0042f9d0       DUIEnvLkup_
0042f9e0       DUIDirty_
0042f9f0       DUISrcOrAsmInspect_
0042fa10       DUIAddrInspect_
0042fa30       DUIRemoveBreak_
0042fa40       StartupErr_
0042fa50*      DUISymbolsCancelled_
0042fa50       DUICopyCancelled_
0042fa60       DUIImageLoaded_
Module: dbgwset.obj(/mnt/sda5/.user/root/src/openwatcom-1.9/bld/wv/c/dbgwset.c)
0042fb60       DClickSet_
0042fbc0       DClickConf_
0042fbe0       InputSet_
0042fc50       InputConf_
0042fc90       LookUpCtrlKey_
0042fd00       KeyName_
0042ff80       MacAddDel_
004300d0       MacroSet_
004301b0       MacroConf_
00430240       FiniMacros_
00430290       TabIntervalGet_
004302a0       TabIntervalSet_
004302c0       TabSet_
00430320       TabConf_
00430350       SearchSet_
00430430       SearchConf_
Module: dbginsp.obj(/mnt/sda5/.user/root/src/openwatcom-1.9/bld/wv/c/dbginsp.c)
004304d0       WndTmpFileInspect_
004305e0       WndFileInspect_
004306c0       WndFuncInspect_
004306e0       WndGblFuncInspect_
00430710       WndGblVarInspect_
00430740       WndMemInspect_
00430790       WndIOInspect_
004307c0       WndAddrInspect_
004307e0       WndAsmInspect_
00430930       WndSrcInspect_
00430960       WndSrcOrAsmInspect_
00430990       WndNewSrcInspect_
004309b0       WndModInspect_
00430a50       WndModListInspect_
00430b60       WndInspectExprSP_
00430b90       WndInspect_
00430bd0       WndClassInspect_
00430c00       WndVarInspect_
Module: dbgicon.obj(/mnt/sda5/.user/root/src/openwatcom-1.9/bld/wv/c/dbgicon.c)
00479a68       _MainIcon
00479a70       _AsmIcon
00479a78       _BrkIcon
00479a80       _CallIcon
00479a88       _FPUIcon
00479a90       _MMXIcon
00479a98       _XMMIcon
00479aa0       _FuncIcon
00479aa8       _GlobIcon
00479ab0       _AclIcon
00479ab8       _ImgIcon
00479ac0       _IOIcon
00479ac8       _LogIcon
00479ad0       _MemIcon
00479ad8       _ModIcon
00479ae0       _RegIcon
00479ae8       _RepIcon
00479af0       _SrcIcon
00479af8       _SrchIcon
00479b00       _StkIcon
00479b08       _TrdIcon
00479b10       _VarIcon
00479b18       _LocIcon
00479b20       _WatIcon
Module: dbgdisp.obj(/mnt/sda5/.user/root/src/openwatcom-1.9/bld/wv/c/dbgdisp.c)
00430d00       ScanStatus_
00430d90       GetWndFont_
00430dc0       WndFontHook_
00430e00       WndMainClientSize_
00430e20       WndMainResized_
00430ea0       WndResizeHook_
00430f10       InitFont_
00430f20       FiniFont_
00430fb0       ProcFont_
004310c0       ConfigFont_
004310f0*      FontChange_
00431540       ProcDisplay_
00431640       ConfigDisp_
00480150+      _WndMainRect
00480160       _WndPosition
Module: dbgpaint.obj(/mnt/sda5/.user/root/src/openwatcom-1.9/bld/wv/c/dbgpaint.c)
00479b74       _WndStatusColour
00479b76       _WndPlainAttr
00479b77       _WndSelectedAttr
00479b78       _WndCursorAttr
00479b8b       _WndColours
00479bb4       _WndNumColours
00431940       WndMapTabAttr_
00431a20       ProcPaint_
00431c00       ProcPendingPaint_
00431c80       FiniPaint_
00431cc0       GetWndColours_
00431fa0       ConfigPaint_
00432000       InitPaint_
00479d30*      _WndTabStopAttr
Module: dbgcap.obj(/mnt/sda5/.user/root/src/openwatcom-1.9/bld/wv/c/dbgcap.c)
00432010       CaptureError_
00432070       ProcCapture_
Module: wndalloc.obj(/mnt/sda5/.user/root/src/openwatcom-1.9/bld/wv/c/wndalloc.c)
00432130       WndNoMemory_
00432150       WndAlloc_
00432160       WndRealloc_
00432170       WndFree_
00432180*      WndMemFini_
00432190       WndMemInit_
Module: dlgambig.obj(/mnt/sda5/.user/root/src/openwatcom-1.9/bld/wv/c/dlgambig.c)
004321b0       DUIDisambiguate_
Module: dlgscomp.obj(/mnt/sda5/.user/root/src/openwatcom-1.9/bld/wv/c/dlgscomp.c)
00432240       DlgGetMatchString_
004322b0       SymComplete_
Module: modcomp.obj(/mnt/sda5/.user/root/src/openwatcom-1.9/bld/wv/c/modcomp.c)
00432420       ModComplete_
Module: wndsys.obj(/mnt/sda5/.user/root/src/openwatcom-1.9/bld/wv/c/wndsys.c)
00479d48       _WndGadgetHint
00479d94       _WndGadgetArray
00479ecc       _WndGadgetArraySize
00479ed0       _WndGadgetSecondary
00479ed4       _WndGadgetAttr
0047a04c+      _WndNormal
0047a05c       _WndLong
0047a06c+      _WndMemMetrics
0047a07c+      _WndWide
0047a08c+      _WndWideLong
0047a09c+      _WndFileMetrics
0047a0ac       _WndMetrics
0047a128*      _NoMetrics
004325e0       DbgWndSearch_
004325f0+      ProcPUINYI_
00432610       ProcWndSearch_
00432630+      ProcWndTabLeft_
00432640+      ProcWndTabRight_
00432650       ProcSearchAll_
00432680+      ProcWndPopUp_
00432690       ProcWndFindNext_
004326b0       ProcWndFindPrev_
004326f0       ProcWindow_
00432720       WndSysStart_
00432730       WndSysEnd_
00432740       WndStop_
00432750       WndUser_
004327b0       WndDebug_
004327b0       WndStartFreshAll_
00432830       WndRedraw_
00432930       WndProcMacro_
004329d0       WndSysInit_
00432a10       SetUnderLine_
00432a40       SetGadgetLine_
00432a50       FiniGadget_
00432a90       InitGadget_
00432b10       OpenGadget_
00432b20       CheckOpenGadget_
00432b70       WndEndFreshAll_
00432b80       WndFlushKeys_
00432b90       WndMsgBox_
00432bc0       WndInfoBox_
00432bf0       WndSetOpenNoShow_
00432c00       DbgTitleWndCreate_
00432db0       DbgWndCreate_
00432dd0       WndRXError_
004803c0       _MaxGadgetLength
Module: wnddump.obj(/mnt/sda5/.user/root/src/openwatcom-1.9/bld/wv/c/wnddump.c)
00433090       WndDumpPrompt_
004330b0       WndDumpFile_
00433130       WndDumpLog_
Module: dlgabout.obj(/mnt/sda5/.user/root/src/openwatcom-1.9/bld/wv/c/dlgabout.c)
00433160       DlgAbout_
Module: dlgstk.obj(/mnt/sda5/.user/root/src/openwatcom-1.9/bld/wv/c/dlgstk.c)
00433280       DlgUpTheStack_
00433290       DlgBackInTime_
004332c0       DlgIncompleteUndo_
Module: dlgayn.obj(/mnt/sda5/.user/root/src/openwatcom-1.9/bld/wv/c/dlgayn.c)
00433360       DlgAreYouNuts_
Module: dlgsrc.obj(/mnt/sda5/.user/root/src/openwatcom-1.9/bld/wv/c/dlgsrc.c)
00433390       DlgSource_
Module: dlgdll.obj(/mnt/sda5/.user/root/src/openwatcom-1.9/bld/wv/c/dlgdll.c)
004333c0       DlgBreakDLL_
Module: dlglist.obj(/mnt/sda5/.user/root/src/openwatcom-1.9/bld/wv/c/dlglist.c)
004336f0       DlgList_
Module: dlgfile.obj(/mnt/sda5/.user/root/src/openwatcom-1.9/bld/wv/c/dlgfile.c)
004338d0       SetLastExe_
004338e0*      GetLastExe_
004338f0*      SetLastCfg_
00433950       InitBrowse_
004339c0       FiniBrowse_
00433aa0       ProcConfigFile_
00433ad0       WndShutDownHook_
00433b60       ConfigSave_
00433bd0       BreakSave_
00433c30       ReplaySave_
00433ca0       FileBrowse_
00433ce0       ExeBrowse_
00433d00       SymBrowse_
00433d20       AllBrowse_
00433d50       GetDmpName_
Module: dlgnewp.obj(/mnt/sda5/.user/root/src/openwatcom-1.9/bld/wv/c/dlgnewp.c)
00433f10       DlgNewProg_
Module: dlgexpr.obj(/mnt/sda5/.user/root/src/openwatcom-1.9/bld/wv/c/dlgexpr.c)
00433f90       DlgGetLong_
00433fa0       DlgGetCodeAddr_
00433fb0       DlgGetDataAddr_
00433fc0       DlgSetLong_
00434050       DlgLongExpr_
00434090       DlgAnyExpr_
004340e0       DlgCodeAddr_
00434120       DlgDataAddr_
00434160       DlgGivenAddr_
00434190       DlgModName_
004341e0       DlgString_
00434210       DlgMadTypeExpr_
Module: dlgbreak.obj(/mnt/sda5/.user/root/src/openwatcom-1.9/bld/wv/c/dlgbreak.c)
00434b50       DlgBreak_
Module: dlgvarx.obj(/mnt/sda5/.user/root/src/openwatcom-1.9/bld/wv/c/dlgvarx.c)
00434db0       DlgVarExpand_
Module: dlgcmd.obj(/mnt/sda5/.user/root/src/openwatcom-1.9/bld/wv/c/dlgcmd.c)
00434f10       DlgCmd_
Module: dlgnewws.obj(/mnt/sda5/.user/root/src/openwatcom-1.9/bld/wv/c/dlgnewws.c)
00434ff0       DlgNewWithMod_
00435000       DlgNewWithSym_
Module: wndhelp.obj(/mnt/sda5/.user/root/src/openwatcom-1.9/bld/wv/c/wndhelp.c)
00435050       InitHelp_
00435070       FiniHelp_
00435190       ProcHelp_
004351a0       DoProcHelp_
Module: wndmenu.obj(/mnt/sda5/.user/root/src/openwatcom-1.9/bld/wv/c/wndmenu.c)
00435210       PlayDead_
00435330       GetMenuLabel_
00435420       AccelMenuItem_
004355e0       ProcAccel_
004356b0       SetLogMenuItems_
004356d0       SetMADMenuItems_
00435740       SetTargMenuItems_
00435760       InitMenus_
004357b0       SetBrkMenuItems_
00435800       FiniMenus_
00435850       WndMenuSetHotKey_
004358e0       AddMenuAccel_
00435a10       WndMainMenuProc_
0047a9bc       _WndMainMenu
0047aaac       _WndNumMenus
0047aab0       _WndInfoTab
0047ab2c       _MainTab
Module: dbgwfpu.obj(/mnt/sda5/.user/root/src/openwatcom-1.9/bld/wv/c/dbgwfpu.c)
00436380       FPUChangeOptions_
004363a0       WndFPUOpen_
Module: dbgwmac.obj(/mnt/sda5/.user/root/src/openwatcom-1.9/bld/wv/c/dbgwmac.c)
00436590       MacKeyHit_
00436ee0       WndMacOpen_
0047ac5c       _MacInfo
Module: dbgwglob.obj(/mnt/sda5/.user/root/src/openwatcom-1.9/bld/wv/c/dbgwglob.c)
00436f80+      GlobMenuItem_
004370a0+      GlobNumRows_
004370b0+      GlobGetLine_
004370f0       GlobNewMod_
00437110+      GlobRefresh_
00437160+      GlobEventProc_
004371b0       GlobChangeOptions_
004371d0       WndGlobOpen_
004371e0       DoWndGlobOpen_
0047ac94+      _GlobMenu
0047ad0c       _GlobInfo
Module: dbgwfunc.obj(/mnt/sda5/.user/root/src/openwatcom-1.9/bld/wv/c/dbgwfunc.c)
004375e0       FuncNewMod_
00437790       FuncChangeOptions_
004377b0       DoWndFuncOpen_
00437800       WndFuncOpen_
00437810       WndGblFuncOpen_
0047add4       _FuncInfo
Module: dbgwcall.obj(/mnt/sda5/.user/root/src/openwatcom-1.9/bld/wv/c/dbgwcall.c)
00437b80       WndCallOpen_
0047ae9c       _CallInfo
Module: dbgwmod.obj(/mnt/sda5/.user/root/src/openwatcom-1.9/bld/wv/c/dbgwmod.c)
00438080       ModNewHandle_
004381f0       ModChangeOptions_
00438210       WndModOpen_
00438220       DoWndModOpen_
0047af7c       _ModInfo
Module: dbgwsrch.obj(/mnt/sda5/.user/root/src/openwatcom-1.9/bld/wv/c/dbgwsrch.c)
004388b0       WndSrchOpen_
0047afcc       _SrchInfo
Module: dbgwdlg.obj(/mnt/sda5/.user/root/src/openwatcom-1.9/bld/wv/c/dbgwdlg.c)
004389a0       DlgInfoRelease_
00438b00       WndDlgTxt_
00438b50       WndDlgFini_
00438be0       WndDlgOpen_
0047b014       _LogInfo
Module: dbgwfil.obj(/mnt/sda5/.user/root/src/openwatcom-1.9/bld/wv/c/dbgwfil.c)
00438c40       SrcJoinAsm_
00438c50       SrcNewAsmNotify_
00438cc0       SrcFreeAsm_
00439410       FileOpenGadget_
00439470       FileBreakGadget_
00439a90       SrcMoveDot_
00439bb0       SrcWndFind_
00439c40       SrcHasFileOpen_
00439f70       DoWndFileOpen_
0043a170       DoWndSrcOpen_
0043a1b0       WndSrcOpen_
0043a250       ProcView_
0047b19c       _FileInfo
Module: dbgwass.obj(/mnt/sda5/.user/root/src/openwatcom-1.9/bld/wv/c/dbgwass.c)
0043a6f0       AsmJoinSrc_
0043a700       AsmNewSrcNotify_
0043a8e0       AsmMoveDot_
0043aa30       AsmWndFind_
0043aa70       AsmFreeSrc_
0043ab60       AsmOpenGadget_
0043c0e0       AsmChangeOptions_
0043c0f0       DoWndAsmOpen_
0043c1d0       WndAsmOpen_
0047b324       _AsmInfo
Module: dbgwimg.obj(/mnt/sda5/.user/root/src/openwatcom-1.9/bld/wv/c/dbgwimg.c)
0043c590       WndImgOpen_
0047b3ec       _ImgInfo
Module: dbgwbrk.obj(/mnt/sda5/.user/root/src/openwatcom-1.9/bld/wv/c/dbgwbrk.c)
0043c9f0       WndBrkOpen_
0047b4e4       _BrkInfo
Module: dbgwio.obj(/mnt/sda5/.user/root/src/openwatcom-1.9/bld/wv/c/dbgwio.c)
0043cf00       SetIOMenuItems_
0043cf20       InitIOWindow_
0043d000       FiniIOWindow_
0043d070       IONewAddr_
0043d0a0       DoWndIOOpen_
0043d160       WndIOOpen_
0047b5b0       _IOInfo
Module: dbgwrep.obj(/mnt/sda5/.user/root/src/openwatcom-1.9/bld/wv/c/dbgwrep.c)
0043d490       WndRepOpen_
0047b630       _RepInfo
Module: dbgwmem.obj(/mnt/sda5/.user/root/src/openwatcom-1.9/bld/wv/c/dbgwmem.c)
0043da10       MemSetLength_
0043da20       MemSetFollow_
0043ea50       InitMemWindow_
0043eb60       FiniMemWindow_
0043ece0       DoWndMemOpen_
0043ed60       WndMemOpen_
0043ed80       WndStkOpen_
0043ee00       DoWndBinOpen_
0047b80c       _BinInfo
0047b844       _MemInfo
0047b87c+      _StkInfo
Module: dbgwregs.obj(/mnt/sda5/.user/root/src/openwatcom-1.9/bld/wv/c/dbgwregs.c)
0043ee50       RegChangeOptions_
0043ee70       WndRegOpen_
Module: dbgwmmx.obj(/mnt/sda5/.user/root/src/openwatcom-1.9/bld/wv/c/dbgwmmx.c)
0043ee90       MMXChangeOptions_
0043eeb0       WndMMXOpen_
Module: dbgwxmm.obj(/mnt/sda5/.user/root/src/openwatcom-1.9/bld/wv/c/dbgwxmm.c)
0043eef0       XMMChangeOptions_
0043ef10       WndXMMOpen_
Module: dbgwmadr.obj(/mnt/sda5/.user/root/src/openwatcom-1.9/bld/wv/c/dbgwmadr.c)
0043f9c0       MadRegChangeOptions_
0043f9e0       WndMadRegOpen_
0047b8fc       _MadRegInfo
Module: dbgwtogl.obj(/mnt/sda5/.user/root/src/openwatcom-1.9/bld/wv/c/dbgwtogl.c)
0043fa10       WndAppendToggles_
0043faf0       WndDeleteToggles_
Module: dbgwvar.obj(/mnt/sda5/.user/root/src/openwatcom-1.9/bld/wv/c/dbgwvar.c)
0043fbe0       WndVarAdd_
00440c90       VarSaveWndToScope_
00440cc0       VarRestoreWndFromScope_
00440f30       VarInfoRelease_
00440f40       VarUnMapScopes_
00440f50       VarFreeScopes_
00440fa0       VarReMapScopes_
00440fc0       VarChangeOptions_
004410a0       WndVarOpen_
004410b0       WndWatOpen_
004410c0       WndLclOpen_
004410d0       WndFSVOpen_
004411b0       GraphicDisplay_
0047bcd0       _VarInfo
Module: dbgwthrd.obj(/mnt/sda5/.user/root/src/openwatcom-1.9/bld/wv/c/dbgwthrd.c)
00441450       WndTrdOpen_
0047bd54       _TrdInfo
Module: dlgwind.obj(/mnt/sda5/.user/root/src/openwatcom-1.9/bld/wv/c/dlgwind.c)
004418d0       DlgWndSet_
Module: dbgwdata.obj(/mnt/sda5/.user/root/src/openwatcom-1.9/bld/wv/c/dbgwdata.c)
0047bd8c       _WndOpenTab
0047be08       _WndNameTab
00480c80       _WndMacroList
Module: dlgoptn.obj(/mnt/sda5/.user/root/src/openwatcom-1.9/bld/wv/c/dlgoptn.c)
00441c70       DlgOptSet_
Module: dbgtool.obj(/mnt/sda5/.user/root/src/openwatcom-1.9/bld/wv/c/dbgtool.c)
00441cb0       InitToolBar_
00441cf0       FiniToolBar_
00441d10       WndToolOpen_
00441d40       WndToolClose_
Module: dbgfing.obj(/mnt/sda5/.user/root/src/openwatcom-1.9/bld/wv/c/dbgfing.c)
00441d60       FingClose_
00441ee0       FingOpen_
Module: helpio.obj(/mnt/sda5/.user/root/src/openwatcom-1.9/bld/wv/c/helpio.c)
00442020       HelpFileLen_
00442040       HelpRead_
00442050*      HelpWrite_
00442060       HelpSeek_
00442070       HelpTell_
00442090       HelpOpen_
004420b0       HelpClose_
004420c0       HelpAccess_
004420e0       HelpGetCWD_
004420f0       HelpSearchEnv_
Module: /mnt/sda5/.user/root/src/openwatcom-1.9/bld/ui/nt/nt386/ui.lib(/mnt/sda5/.user/root/src/openwatcom-1.9/bld/ui/nt/c/uibios.c)
00480c94       _OutputHandle
00480c9c       _InputHandle
00480ca0       _BrkPending
00480ca4+      _BSize
0044210c*      uiset80col_
0044210f       initbios_
00442245       uiclockdelay_
00442246       finibios_
00442286       physupdate_
Module: /mnt/sda5/.user/root/src/openwatcom-1.9/bld/ui/nt/nt386/ui.lib(/mnt/sda5/.user/root/src/openwatcom-1.9/bld/ui/c/uiinit.c)
0044230c       uistart_
0044233f*      uiinit_
0044235b       uistop_
0044236a*      uifini_
00442383       uiswap_
Module: /mnt/sda5/.user/root/src/openwatcom-1.9/bld/gui/ui/nt386/gui.lib(/mnt/sda5/.user/root/src/openwatcom-1.9/bld/gui/ui/c/guigmous.c)
00442390       GUIInitGraphicsMouse_
004423a0       GUIInitMouse_
004423d0       GUIFiniMouse_
004423f0       GUIGMouseOn_
00442440       GUIGMouseOff_
00442460       GUIHasCharRemap_
Module: /mnt/sda5/.user/root/src/openwatcom-1.9/bld/aui/nt386/aui.lib(/mnt/sda5/.user/root/src/openwatcom-1.9/bld/aui/c/wndmem.c)
00442470       WndMustAlloc_
00442490       WndMustRealloc_
Module: /mnt/sda5/.user/root/src/openwatcom-1.9/rel2/lib386/math387r.lib(ldcvt.c)
0044258a       _LDScale10x_
00442b31       __LDcvt_
Module: /mnt/sda5/.user/root/src/openwatcom-1.9/rel2/lib386/math387r.lib(fchop87)
00442f80       __CHP
Module: /mnt/sda5/.user/root/src/openwatcom-1.9/rel2/lib386/nt/emu387.lib(386)
00442f98       __init_387_emulator
00442f99*      __fini_387_emulator
Module: /mnt/sda5/.user/root/src/openwatcom-1.9/rel2/lib386/math387r.lib(gcvt.c)
00442f9a       gcvt_
Module: /mnt/sda5/.user/root/src/openwatcom-1.9/rel2/lib386/math387r.lib(strtod.c)
004435ac+      __Strtold_
00443713       strtod_
Module: /mnt/sda5/.user/root/src/openwatcom-1.9/bld/aui/nt386/aui.lib(/mnt/sda5/.user/root/src/openwatcom-1.9/bld/aui/c/wndstat.c)
00443860       WndCreateStatusWindow_
00443890       WndHaveStatusWindow_
004438b0       WndCloseStatusWindow_
004438f0       WndStatusText_
00443940       GUIClearStatusText_
00443960       WndResetStatusText_
00443970       WndInternalStatusText_
00480cac+      _WndStatusString
Module: /mnt/sda5/.user/root/src/openwatcom-1.9/bld/aui/nt386/aui.lib(/mnt/sda5/.user/root/src/openwatcom-1.9/bld/aui/c/guimain.c)
00480d00       _WndScale
00480d08       _WndScreen
00480d10       _WndMax
00480d18+      _WndClickHook
00480d20       _WndMain
00480d24*      _WndSwitches
0047c104       _WndMaxDirtyRects
0047c108+      _WndDClick
0047c10c       _WndIgnoreAllEvents
004439c0       WndGetDClick_
004439d0       WndSetDClick_
00443a50*      WndInitWithMenuRes_
00443b10       WndInit_
00443b20       WndShowWndMain_
00443b30       WndFini_
00443b60*      WndInitNumRows_
00443cd0       WndInstallClickHook_
00444510       WndArrowCursor_
00444540*      WndSetCursor_
00444570       WndHourGlass_
00444580*      WndHourCursor_
004445c0       WndMainEventProc_
Module: /mnt/sda5/.user/root/src/openwatcom-1.9/bld/aui/nt386/aui.lib(/mnt/sda5/.user/root/src/openwatcom-1.9/bld/aui/c/wndhist.c)
004445f0       WndInitHistory_
00444630       WndFiniHistory_
004446e0       WndSaveToHistory_
004447a0       WndPrevFromHistory_
00444880       WndNextFromHistory_
Module: /mnt/sda5/.user/root/src/openwatcom-1.9/bld/aui/nt386/aui.lib(/mnt/sda5/.user/root/src/openwatcom-1.9/bld/aui/c/wndcreat.c)
00444930*      WndSetTitleSize_
00444940       WndSetTitle_
00444950       WndGetTitle_
00444ba0       WndCreateWithStruct_
00444bd0       WndCreateWithStructAndMenuRes_
00444c00       WndInitCreateStruct_
00444c40*      WndCreate_
00444c70       WndDestroy_
00444cf0       WndClose_
00444d10       WndSetMainMenuText_
00444d40       WndSetIcon_
0047c118       _WndMainMenuPtr
00480d30       _WndPopupMenuPtr
Module: /mnt/sda5/.user/root/src/openwatcom-1.9/bld/aui/nt386/aui.lib(/mnt/sda5/.user/root/src/openwatcom-1.9/bld/aui/c/wnddirt.c)
00444ea0       WndDirtyScreenRange_
00444ec0       WndDirtyScreenChar_
00444ee0       WndDirtyScreenPiece_
00444f00       WndAdjustDirt_
00444f30       WndDirtyScreenRow_
00444f50*      WndDirtyRect_
00444f90       WndRowDirty_
00444fd0       WndRowDirtyImmed_
00445010       WndPieceDirty_
00445050       WndStopRefresh_
00445060+      WndPaintDirt_
004453d0       WndFreshAll_
0047c11c       _WndDoingRefresh
Module: /mnt/sda5/.user/root/src/openwatcom-1.9/bld/aui/nt386/aui.lib(/mnt/sda5/.user/root/src/openwatcom-1.9/bld/aui/c/wndshrnk.c)
00445440       WndShrinkToMouse_
004455d0       WndMinimizeWindow_
004455e0       WndMaximizeWindow_
004455f0       WndIsMinimized_
00445630       WndIsMaximized_
00445640       WndRestoreWindow_
00445650       WndGetRect_
00445660       WndShowWindow_
00445670       WndResizeWindow_
00445680       WndShowAll_
Module: /mnt/sda5/.user/root/src/openwatcom-1.9/bld/gui/ui/nt386/gui.lib(/mnt/sda5/.user/root/src/openwatcom-1.9/bld/gui/c/guiisgui.c)
00445700       GUIIsGUI_
Module: /mnt/sda5/.user/root/src/openwatcom-1.9/bld/gui/ui/nt386/gui.lib(/mnt/sda5/.user/root/src/openwatcom-1.9/bld/gui/ui/c/guismetr.c)
00445710       GUIGetSystemMetrics_
Module: /mnt/sda5/.user/root/src/openwatcom-1.9/bld/aui/nt386/aui.lib(/mnt/sda5/.user/root/src/openwatcom-1.9/bld/aui/c/wndmsg.c)
004457b0       WndDisplayMessage_
Module: /mnt/sda5/.user/root/src/openwatcom-1.9/bld/aui/nt386/aui.lib(/mnt/sda5/.user/root/src/openwatcom-1.9/bld/aui/c/wndldstr.c)
004457e0       WndLoadString_
Module: /mnt/sda5/.user/root/src/openwatcom-1.9/bld/gui/ui/nt386/gui.lib(/mnt/sda5/.user/root/src/openwatcom-1.9/bld/gui/ui/c/guiclen.c)
00445840       GUICharLen_
00445850       GUIIsDBCS_
Module: /mnt/sda5/.user/root/src/openwatcom-1.9/bld/aui/nt386/aui.lib(/mnt/sda5/.user/root/src/openwatcom-1.9/bld/aui/c/wndutil.c)
00445860       WndCharCol_
00445890       WndLastCharCol_
004458b0       WndPrevCharCol_
004458c0*      WndPrevChar_
004458d0       WndCurrToGUIPoint_
004458f0       WndCoordToGUIPoint_
00445960       WndPieceIsTab_
00445990*      WndPieceIsHot_
004459c0       WndFindActive_
004459f0       WndValid_
00445a20       WndDirty_
00445a30       WndZapped_
00445a50       WndExtentX_
00445a70       WndFindClass_
00445a90       WndSetWndMax_
00445ae0       WndNext_
00445b10       WndForAllClass_
Module: /mnt/sda5/.user/root/src/openwatcom-1.9/bld/aui/nt386/aui.lib(/mnt/sda5/.user/root/src/openwatcom-1.9/bld/aui/c/wndfront.c)
00445b50       WndToFront_
00445b60       WndRestoreToFront_
00445b90       WndNextNonIconToFront_
00445bb0       WndChooseNew_
Module: /mnt/sda5/.user/root/src/openwatcom-1.9/bld/aui/nt386/aui.lib(/mnt/sda5/.user/root/src/openwatcom-1.9/bld/aui/c/dlgsrch.c)
00445c90+      RXEvent_
00445ce0       DlgClickHistory_
00445d10       DlgSetHistory_
00445e10       DlgHistoryKey_
00445f60+      SrchEvent_
00446100       DlgSearch_
00446110       DlgSearchAll_
0047c120       _SrchIgnoreCase
0047c121       _SrchMagicChars
0047c135       _SrchRX
0047c136       _SrchIgnoreMagic
Module: /mnt/sda5/.user/root/src/openwatcom-1.9/bld/aui/nt386/aui.lib(/mnt/sda5/.user/root/src/openwatcom-1.9/bld/aui/c/wndcurr.c)
00446140       WndSetPoint_
004463e0       WndGetCurrent_
00446410       WndNewCurrent_
00446440       WndMoveCurrent_
004464a0       WndHasCurrent_
004464b0       WndNoCurrent_
004464d0*      WndCurrRow_
00446500       WndNextCurrent_
004465e0       WndPrevCurrent_
00446700       WndFirstCurrent_
00446720       WndLastCurrent_
00446760       WndCheckCurrentValid_
00446800       WndCurrVisible_
004468b0       WndDirtyCurr_
00446900       WndDirtyCurrChar_
00446930       WndSetCurrCol_
Module: /mnt/sda5/.user/root/src/openwatcom-1.9/bld/aui/nt386/aui.lib(/mnt/sda5/.user/root/src/openwatcom-1.9/bld/aui/c/wndpaint.c)
00446d40+      WndPaintRows_
00446ea0       WndProcPaint_
00446ec0       WndForcePaint_
Module: /mnt/sda5/.user/root/src/openwatcom-1.9/bld/aui/nt386/aui.lib(/mnt/sda5/.user/root/src/openwatcom-1.9/bld/aui/c/wndcrsr.c)
00446ef0+      WndAtTop_
00447090       WndScrollUp_
004470e0       WndScrollDown_
00447130       WndCursorUp_
00447150       WndCursorDown_
00447190       WndPageUp_
004471b0       WndPageDown_
004471d0       WndTabLeft_
00447230       WndCursorLeft_
004472d0       WndTabRight_
00447330       WndCursorRight_
004473c0       WndScrollTop_
004473e0       WndScrollBottom_
00447400       WndCursorStart_
00447410       WndCursorEnd_
Module: /mnt/sda5/.user/root/src/openwatcom-1.9/bld/aui/nt386/aui.lib(/mnt/sda5/.user/root/src/openwatcom-1.9/bld/aui/c/wndfont.c)
00447420       WndSetFontInfo_
00447450       WndSetSysFont_
00447470       WndGetFontInfo_
Module: /mnt/sda5/.user/root/src/openwatcom-1.9/bld/gui/ui/nt386/gui.lib(/mnt/sda5/.user/root/src/openwatcom-1.9/bld/gui/c/guimem.c)
00447490*      GUIMemPrintLine_
00447490*      GUIMemPrtUsage_
00447490       GUIMemClose_
00447490       GUIMemOpen_
00447490*      GUIMemRedirect_
004474a0       GUIMemAlloc_
004474b0       GUIMemFree_
004474c0       GUIMemRealloc_
Module: /mnt/sda5/.user/root/src/openwatcom-1.9/bld/aui/nt386/aui.lib(/mnt/sda5/.user/root/src/openwatcom-1.9/bld/aui/c/wndrect.c)
004475e0       WndPosToRect_
00447620       WndRectToPos_
Module: /mnt/sda5/.user/root/src/openwatcom-1.9/bld/gui/ui/nt386/gui.lib(/mnt/sda5/.user/root/src/openwatcom-1.9/bld/gui/ui/c/guistub.c)
00447650*      GUIGetEditSelect_
00447650*      GUISetEditSelect_
00447650*      GUIIsControlEnabled_
00447650       GUIEnableControl_
00447650*      GUISetHorizontalExtent_
00447650       GUI3DDialogInit_
00447650       GUIFontsSupported_
00447650       GUISetSystemFont_
00447650       GUISetFontInfo_
00447650*      GUIChangeFont_
00447660       GUISetMouseCursor_
00447660       GUIGetFontFromUser_
00447660       GUIGetFontInfo_
00447670*      GUIScrollCaret_
00447670*      GUIShowControl_
00447670*      GUIHideControl_
00447670       GUIResetMouseCursor_
Module: /mnt/sda5/.user/root/src/openwatcom-1.9/bld/gui/ui/nt386/gui.lib(/mnt/sda5/.user/root/src/openwatcom-1.9/bld/gui/c/guimin.c)
00447680       GUIGetMinSize_
Module: /mnt/sda5/.user/root/src/openwatcom-1.9/bld/aui/nt386/aui.lib(/mnt/sda5/.user/root/src/openwatcom-1.9/bld/aui/c/wndtool.c)
004476a0*      WndCreateToolBar_
00447710       WndCreateToolBarWithTips_
00447780       WndHaveToolBar_
00447790       WndCloseToolBar_
004477b0       WndToolHeight_
004477c0       WndToolFixed_
004477d0       WndSetToolBar_
00480d34+      _ToolHeight
Module: /mnt/sda5/.user/root/src/openwatcom-1.9/bld/gui/ui/nt386/gui.lib(/mnt/sda5/.user/root/src/openwatcom-1.9/bld/gui/ui/c/guicolor.c)
00447810       GUIXSetColours_
004478d0*      GUIGetBack_
004478e0*      GUIGetFore_
004478f0       GUIMakeColour_
00447900       GUISetWindowColours_
00447940       GUISetDialColours_
00447c80       GUIResetDialColours_
00447cb0       GUISetBackgroundColour_
00447cd0       GUIGetDialogColours_
00447d20       GUISetDialogColours_
00447d60+      GetColour_
00447d80       GUIXGetWindowColours_
00447dd0*      GUIGetRGBFromUser_
00447dd0*      GUIGetRGB_
00447dd0*      GUISetRGB_
00447de0*      GUIGetWndColour_
00447e20*      GUISetWndColour_
Module: /mnt/sda5/.user/root/src/openwatcom-1.9/bld/aui/nt386/aui.lib(/mnt/sda5/.user/root/src/openwatcom-1.9/bld/aui/c/wndcolor.c)
00447e50       WndSetColours_
00447ea0*      WndBackGround_
Module: /mnt/sda5/.user/root/src/openwatcom-1.9/bld/aui/nt386/aui.lib(/mnt/sda5/.user/root/src/openwatcom-1.9/bld/aui/c/dlgpick.c)
00447f20       DlgPickWithRtn2_
00447f50+      DoDlgPick_
00447f60       DlgPickWithRtn_
00447f80+      DlgPickText_
00447f90*      DlgPick_
Module: /mnt/sda5/.user/root/src/openwatcom-1.9/bld/gui/ui/nt386/gui.lib(/mnt/sda5/.user/root/src/openwatcom-1.9/bld/gui/c/guipick.c)
00447fa0       GUIPickEvent_
00448040       GUIDlgPickWithRtn_
004480c0       GUIDlgPick_
Module: /mnt/sda5/.user/root/src/openwatcom-1.9/bld/aui/nt386/aui.lib(/mnt/sda5/.user/root/src/openwatcom-1.9/bld/aui/c/wnddlg.c)
00448150       DlgGetParent_
00448180       DlgOpen_
004481c0       ResDlgOpen_
Module: /mnt/sda5/.user/root/src/openwatcom-1.9/bld/gui/ui/nt386/gui.lib(/mnt/sda5/.user/root/src/openwatcom-1.9/bld/gui/c/guindlg.c)
00448200       GUIDlgBuffGetText_
00448570*      GUISetModalDlgs_
00448580       GUIDlgOpen_
004485b0       GUIModalDlgOpen_
004485e0*      GUISysModalDlgOpen_
Module: /mnt/sda5/.user/root/src/openwatcom-1.9/bld/gui/ui/nt386/gui.lib(/mnt/sda5/.user/root/src/openwatcom-1.9/bld/gui/ui/c/guifocus.c)
00448610       GUISetFocus_
Module: /mnt/sda5/.user/root/src/openwatcom-1.9/bld/gui/ui/nt386/gui.lib(/mnt/sda5/.user/root/src/openwatcom-1.9/bld/gui/ui/c/guixedit.c)
00448640       GUISetEditText_
004486f0       GUISetText_
00448810       GUIClearText_
00448820       GUISelectAll_
Module: /mnt/sda5/.user/root/src/openwatcom-1.9/bld/aui/nt386/aui.lib(/mnt/sda5/.user/root/src/openwatcom-1.9/bld/aui/c/wndsrch.c)
00448830       WndSetSrchItem_
00448880       WndCompileRX_
004488b0       WndFreeRX_
004488c0       WndSetMagicStr_
00448920       WndRXFind_
004489a0       WndSearch_
0047c2ac       _WndDoingSearch
Module: /mnt/sda5/.user/root/src/openwatcom-1.9/bld/aui/nt386/aui.lib(/mnt/sda5/.user/root/src/openwatcom-1.9/bld/aui/c/wndpop.c)
00448f30+      CalcMaxId_
00448f80       NullPopupMenu_
00449010       WndAddPopupMenu_
00449110       WndNullPopItem_
00449220+      WndSelPopPiece_
00449460       WndSelPopItem_
004494a0+      WndKeyPopItem_
00449500*      WndPopUp_
00449580       WndChangeMenuAll_
00449600       WndMenuEnableAll_
00449620       WndMenuGrayAll_
00449650*      WndMenuIgnoreAll_
00449680*      WndMenuRespectAll_
004496a0+      DoMenuBitOn_
00449730       WndMenuCheck_
00449740       WndMenuEnable_
00449760       WndMenuIgnore_
00449770       WndCreateFloatingPopup_
004497c0       WndInvokePopUp_
004498f0       WndKeyPopUp_
00449920       WndRowPopUp_
00449960*      WndSetMainMenu_
00449990       WndClick_
00449a60       WndSetPopup_
00449af0       WndEnableMainMenu_
00449b50       WndCheckMainMenu_
Module: /mnt/sda5/.user/root/src/openwatcom-1.9/bld/gui/ui/nt386/gui.lib(/mnt/sda5/.user/root/src/openwatcom-1.9/bld/gui/ui/c/guispawn.c)
00449ba0       GUISpawnStart_
00449bb0       GUISpawnEnd_
Module: /mnt/sda5/.user/root/src/openwatcom-1.9/bld/aui/nt386/aui.lib(/mnt/sda5/.user/root/src/openwatcom-1.9/bld/aui/c/wndgadgt.c)
00449bf0       WndGetGadgetSize_
00449c00       WndSetGadgetLine_
00449c40       WndGadgetInit_
Module: /mnt/sda5/.user/root/src/openwatcom-1.9/bld/gui/ui/nt386/gui.lib(/mnt/sda5/.user/root/src/openwatcom-1.9/bld/gui/c/guihot.c)
00449c80       GUIInitHotSpots_
00449ce0*      GUIGetNumHotSpots_
00449cf0       GUIGetHotSpotSize_
00480d70       _GUINumHotSpots
Module: /mnt/sda5/.user/root/src/openwatcom-1.9/bld/gui/ui/nt386/gui.lib(/mnt/sda5/.user/root/src/openwatcom-1.9/bld/gui/ui/c/guiflush.c)
00449d30       GUIFlushKeys_
Module: /mnt/sda5/.user/root/src/openwatcom-1.9/bld/aui/nt386/aui.lib(/mnt/sda5/.user/root/src/openwatcom-1.9/bld/aui/c/wndmeth.c)
00449d40       NoScroll_
00449d40       WndNoOpen_
00449d50+      NoGetLine_
00449d60       NoEndPaint_
00449d60       NoBegPaint_
00449d60       NoNotify_
00449d60       NoModify_
00449d70       NoRefresh_
00449d80       NoMenuItem_
00449d90       NoNumRows_
00449da0       NoNextRow_
00449db0       NoEventProc_
00449dd0       WndMenuItem_
00449df0       WndFiniCacheLines_
00449e20       WndKillCacheEntries_
00449e80       WndKillCacheLines_
0044a030       WndSetCache_
0044a080       WndGetLineAbs_
0044a090       WndGetLine_
0044a1a0       WndFirstMenuItem_
0044a1c0*      WndNoRow_
0044a1d0       WndModify_
0044a1f0       WndNotify_
0044a210       WndBegPaint_
0044a230       WndEndPaint_
0044a250       WndRefresh_
0044a270       WndEvent_
0044a280       WndNumRows_
0044a290       WndNextRow_
0047c2b4       _NoInfo
00480d74+      _CacheLine
00481ea4+      _CacheCurr
Module: /mnt/sda5/.user/root/src/openwatcom-1.9/bld/gui/ui/nt386/gui.lib(/mnt/sda5/.user/root/src/openwatcom-1.9/bld/gui/c/guiextra.c)
0044a2a0       GUISetExtra_
0044a2b0       GUIGetExtra_
Module: /mnt/sda5/.user/root/src/openwatcom-1.9/bld/gui/ui/nt386/gui.lib(/mnt/sda5/.user/root/src/openwatcom-1.9/bld/gui/ui/c/guixdlg.c)
0044a2c0*      GUISetJapanese_
0044a310       GUIDeleteDialog_
0044a350       GUIGetDlgByWnd_
0044a3c0+      GUIGetControlId_
0044a420       GUIGetDialog_
0044a430       GUIGetField_
0044a470       GUIPushControlEvents_
0044a480       GUIPopControlEvents_
0044a4d0       GUIInsertDialog_
0044a560       GUIRefreshControl_
0044a5c0       GUIGetList_
0044a610       GUIGetFocus_
0044a680+      GUIDoFreeField_
0044a7e0+      GUIDoAddControl_
0044aad0       GUIDeleteField_
0044ac40       GUIAddAControl_
0044ad20       GUIResizeDialog_
0044ae20       GUIFocusChangeNotify_
0044ae70       GUIProcessControlNotify_
0044af00       GUIXCreateDialog_
0044b1d0       GUIFreeDialog_
0044b220       GUICloseDialog_
0044b250       GUIGetDlgRect_
Module: /mnt/sda5/.user/root/src/openwatcom-1.9/bld/gui/ui/nt386/gui.lib(/mnt/sda5/.user/root/src/openwatcom-1.9/bld/gui/ui/c/guixaddt.c)
0044b2b0*      GUIControlSetRedraw_
0044b320       GUIAddText_
0044b360       GUIAddTextList_
0044b3a0       GUIDeleteItem_
0044b3d0       GUIClearList_
0044b430       GUIGetCurrSelect_
0044b480       GUISetCurrSelect_
0044b4d0       GUIGetListSize_
0044b500*      GUIInsertText_
0044b540*      GUISetTopIndex_
0044b590*      GUIGetTopIndex_
Module: /mnt/sda5/.user/root/src/openwatcom-1.9/bld/gui/ui/nt386/gui.lib(/mnt/sda5/.user/root/src/openwatcom-1.9/bld/gui/ui/c/guigtext.c)
0044b6a0       GUIGetText_
0044b6c0       GUIGetListItem_
Module: /mnt/sda5/.user/root/src/openwatcom-1.9/bld/gui/ui/nt386/gui.lib(/mnt/sda5/.user/root/src/openwatcom-1.9/bld/gui/ui/c/guistext.c)
0044b6d0       GUISetWindowText_
0044b6f0*      GUIGetWindowTextLength_
0044b720       GUIGetWindowText_
Module: /mnt/sda5/.user/root/src/openwatcom-1.9/bld/aui/nt386/aui.lib(/mnt/sda5/.user/root/src/openwatcom-1.9/bld/aui/c/wndfdlg.c)
0044b770+      DlgGetFileName_
0044b7a0       DlgFileBrowse_
Module: /mnt/sda5/.user/root/src/openwatcom-1.9/bld/gui/ui/nt386/gui.lib(/mnt/sda5/.user/root/src/openwatcom-1.9/bld/gui/ui/c/guicontr.c)
0044b8d0       GUIAddControl_
0044b970       GUIGetControl_
0044b990       GUIGetControlByIndex_
0044b9f0       GUIInsertControl_
0044ba40*      GUIDeleteControl_
0044bab0       GUIFreeAllControls_
0044bb20       GUILimitEditText_
0044bb30       GUIResizeControls_
0044bb80       GUIProcessControlEvent_
0044bbf0*      GUIEnumControls_
0044bc20*      GUIGetControlClass_
0044bc40+      GUIGetControlRect_
0044bc90*      GUIResizeControl_
0044bd50*      GUIIsControlVisible_
Module: /mnt/sda5/.user/root/src/openwatcom-1.9/bld/aui/nt386/aui.lib(/mnt/sda5/.user/root/src/openwatcom-1.9/bld/aui/c/dlgnew.c)
0044bd60       DlgNewEvent_
0044bde0       DlgNewWithCtl_
0044be50       DlgNew_
Module: /mnt/sda5/.user/root/src/openwatcom-1.9/bld/gui/ui/nt386/gui.lib(/mnt/sda5/.user/root/src/openwatcom-1.9/bld/gui/ui/c/guicheck.c)
0044beb0       GUIIsChecked_
0044bf00       GUISetChecked_
Module: /mnt/sda5/.user/root/src/openwatcom-1.9/bld/gui/ui/nt386/gui.lib(/mnt/sda5/.user/root/src/openwatcom-1.9/bld/gui/ui/c/guihelp.c)
0044bf80       GUIHelpInit_
0044bf90       GUIHelpFini_
0044bfb0       GUIShowHelp_
0044c000       GUIShowHtmlHelp_
0044c010+      GUIDisplayHelp_
0044c060*      GUIDisplayHelpId_
Module: /mnt/sda5/.user/root/src/openwatcom-1.9/bld/aui/nt386/aui.lib(/mnt/sda5/.user/root/src/openwatcom-1.9/bld/aui/c/wndsel.c)
0044c070       WndSelectEvent_
0044c0f0       WndSelEnds_
0044c130       WndSelected_
0044c270       WndSelSetStart_
0044c2a0       WndSelGetEndPiece_
0044c2e0*      WndSelSetEnd_
0044c300       WndSelPieceChange_
0044c3e0       WndSelChange_
0044c400       WndNoSelect_
0044c490*      WndSelRow_
0044c4c0       SetWndMenuRow_
0044c510       WndToSelectMode_
0044c550       WndEndSelectEvent_
00481ea8       _WndMenuRow
00481eac       _WndMenuPiece
Module: /mnt/sda5/.user/root/src/openwatcom-1.9/bld/aui/nt386/aui.lib(/mnt/sda5/.user/root/src/openwatcom-1.9/bld/aui/c/wndscrol.c)
0044c560       WndFixedThumb_
0044c590       WndSetThumbPercent_
0044c5a0       WndSetThumbPos_
0044c5b0       WndSetVScrollRange_
0044c5c0       WndResetScroll_
0044c5d0       WndVScrollWidth_
0044c5f0*      WndHasNumRows_
0044c600       WndSetThumb_
0044c770       WndScrollAbs_
0044c780       WndScroll_
0044c7a0       WndSetHScroll_
0044c7f0+      WndCurrHScrollPos_
0044c870       WndHScrollToCurr_
0044c890       WndHScrollNotify_
Module: /mnt/sda5/.user/root/src/openwatcom-1.9/bld/aui/nt386/aui.lib(/mnt/sda5/.user/root/src/openwatcom-1.9/bld/aui/c/wndchar.c)
0044c8d0       WndSetIDChars_
0044c8e0       WndIDChar_
0044c930       WndKeyChar_
Module: /mnt/sda5/.user/root/src/openwatcom-1.9/bld/gui/ui/nt386/gui.lib(/mnt/sda5/.user/root/src/openwatcom-1.9/bld/gui/c/guiwnclr.c)
0044c940       GUISetColours_
0044c960       GUIFreeColours_
0044c980       GUIGetNumWindowColours_
0044c990       GUIGetWindowColours_
Module: /mnt/sda5/.user/root/src/openwatcom-1.9/bld/ui/nt/nt386/ui.lib(/mnt/sda5/.user/root/src/openwatcom-1.9/bld/ui/c/uidata.c)
0047c3f4       _UIData
Module: /mnt/sda5/.user/root/src/openwatcom-1.9/bld/ui/nt/nt386/ui.lib(/mnt/sda5/.user/root/src/openwatcom-1.9/bld/ui/nt/c/uicurs.c)
0044c9ba       uioffcursor_
0044caa0+      uigetcursor_
0044cac3       uisetcursor_
0044cb06       uiswapcursor_
0044cb1a*      uioncursor_
0044cb1a       uifinicursor_
0044cb3b       uiinitcursor_
Module: /mnt/sda5/.user/root/src/openwatcom-1.9/bld/ui/nt/nt386/ui.lib(/mnt/sda5/.user/root/src/openwatcom-1.9/bld/ui/nt/c/uievent.c)
0044cdc7+      CompareEvents_
0044cdd0       initkeyboard_
0044cdd2       finikeyboard_
0044cdd3       flushkey_
0044ce19*      uimousespeed_
0044ce19       mousespawnend_
0044ce19       kbdspawnend_
0044ce19       kbdspawnstart_
0044ce1a       mousespawnstart_
0044ce1f       initmouse_
0044ce71       finimouse_
0044ce7f       uisetmouseposn_
0044ce8a       checkmouse_
0044cf2c       getanyevent_
0044d01e       waitforevent_
0044d078       uicheckshift_
Module: /mnt/sda5/.user/root/src/openwatcom-1.9/bld/ui/nt/nt386/ui.lib(/mnt/sda5/.user/root/src/openwatcom-1.9/bld/ui/c/uialloc.c)
0044d07e*      UIMemPrintLine_
0044d07e*      UIMemPrtUsage_
0044d07e       UIMemClose_
0044d07e       UIMemOpen_
0044d07e*      UIMemRedirect_
0044d07f       uicalloc_
0044d084       uimalloc_
0044d089       uifree_
0044d08e       uirealloc_
Module: /mnt/sda5/.user/root/src/openwatcom-1.9/bld/ui/nt/nt386/ui.lib(/mnt/sda5/.user/root/src/openwatcom-1.9/bld/ui/c/uigchar.c)
0044d093       DBCSCharacterMap_
0047c3f8       _UiGChar
0047c41a+      _UiDBCSChar
0047c43c+      _UiNECChar
Module: /mnt/sda5/.user/root/src/openwatcom-1.9/bld/ui/nt/nt386/ui.lib(/mnt/sda5/.user/root/src/openwatcom-1.9/bld/ui/c/uiattr.c)
0047c461+      _VGAcolours
0047c4a1+      _ui_vga_colour_attrs
0047c4c6+      _ui_colour_attrs
0047c4eb+      _ui_bw_attrs
0047c510+      _ui_mono_attrs
0044d13a       uiattrs_
0044d1ce*      uivgaattrs_
0044d209+      uisetblinkattr_
0044d242*      uigetblinkattr_
Module: /mnt/sda5/.user/root/src/openwatcom-1.9/bld/ui/nt/nt386/ui.lib(/mnt/sda5/.user/root/src/openwatcom-1.9/bld/ui/c/uiback.c)
0044d2d6       uirestorebackground_
0044d303       openbackground_
0044d338       closebackground_
0044d345+      uibackgroundbuffer_
0044d383*      uiremovebackground_
0044d3bc*      uikeepbackground_
Module: /mnt/sda5/.user/root/src/openwatcom-1.9/bld/ui/nt/nt386/ui.lib(/mnt/sda5/.user/root/src/openwatcom-1.9/bld/ui/c/uiforce.c)
0044d435       forceevfini_
0044d435       forceevinit_
0044d436       uiforceevadd_
0044d478*      uiforceevflush_
0044d4b6       forcedevent_
Module: /mnt/sda5/.user/root/src/openwatcom-1.9/bld/ui/nt/nt386/ui.lib(/mnt/sda5/.user/root/src/openwatcom-1.9/bld/ui/c/uimousev.c)
00481ebc       _MouseCol
00481ebe       _MouseRow
00481ec0       _MouseStatus
00481ec2       _MouseOn
0044d4e6*      uivmouseinstalled_
0044d4e6       uimouseinstalled_
0044d4ee*      uimouseforceoff_
0044d4ff*      uimouseforceon_
0044d506       uionmouse_
0044d53e       uioffmouse_
0044d545       uihidemouse_
0044d56c       mouseevent_
0044d751       uimousepos_
0044d834       uivmousepos_
0044d893       uiswapmouse_
0044d8c1*      uigetmrow_
0044d8c8*      uigetmcol_
0044d8cf       uigetmouse_
00481ec4       _MouseInstalled
Module: /mnt/sda5/.user/root/src/openwatcom-1.9/rel2/lib386/math387r.lib(ldclass.c)
0044d912       __LDClass_
0044d962*      _FLClass_
Module: /mnt/sda5/.user/root/src/openwatcom-1.9/rel2/lib386/math387r.lib(bufld386)
0044d974       __ZBuf2LD
Module: /mnt/sda5/.user/root/src/openwatcom-1.9/rel2/lib386/math387r.lib(inf_nan.c)
0044da17*      ___f_infinity
0044da1b*      ___f_posqnan
0044da1f       ___d_infinity
0044da27       ___d_posqnan
0044da2f*      ___ld_infinity
0044da37*      ___ld_posqnan
Module: /mnt/sda5/.user/root/src/openwatcom-1.9/bld/gui/ui/nt386/gui.lib(/mnt/sda5/.user/root/src/openwatcom-1.9/bld/gui/ui/c/guistat.c)
0044daa0       GUICreateStatusWindow_
0044db20       GUIResizeStatusWindow_
0044dba0       GUIDrawStatus_
0044dc20       GUIDrawStatusText_
0044dc80       GUIHasStatus_
0044dc90       GUIFreeStatus_
0044dcd0       GUIResizeStatus_
0044dd00       GUICloseStatusWindow_
Module: /mnt/sda5/.user/root/src/openwatcom-1.9/bld/aui/nt386/aui.lib(/mnt/sda5/.user/root/src/openwatcom-1.9/bld/aui/c/wndfref.c)
0044dd70       WndForceRefresh_
Module: /mnt/sda5/.user/root/src/openwatcom-1.9/bld/gui/ui/nt386/gui.lib(/mnt/sda5/.user/root/src/openwatcom-1.9/bld/gui/ui/c/guidbclk.c)
0044dd80       GUISetDClickRate_
Module: /mnt/sda5/.user/root/src/openwatcom-1.9/bld/gui/ui/nt386/gui.lib(/mnt/sda5/.user/root/src/openwatcom-1.9/bld/gui/c/guirscal.c)
0044dda0       GUIGetRoundScale_
Module: /mnt/sda5/.user/root/src/openwatcom-1.9/bld/gui/ui/nt386/gui.lib(/mnt/sda5/.user/root/src/openwatcom-1.9/bld/gui/c/guiscale.c)
0044de00       GUISetScale_
0044de30       GUIGetScale_
0044de60       GUISetScreen_
0044de80       GUIGetScreen_
0044deb0+      GUIConvert_
0044df40       GUIConvertRect_
0044df80+      GUIConvertPoint_
0044dfd0*      GUIScaleToScreen_
0044dff0       GUIScaleToScreenR_
0044e010*      GUIScreenToScale_
0044e030       GUIScreenToScaleR_
0044e050       GUIScaleToScreenRPt_
0044e070*      GUIScreenToScaleRPt_
Module: /mnt/sda5/.user/root/src/openwatcom-1.9/bld/aui/nt386/aui.lib(/mnt/sda5/.user/root/src/openwatcom-1.9/bld/aui/c/wndstyle.c)
0047c5d0       _WndStyle
Module: /mnt/sda5/.user/root/src/openwatcom-1.9/bld/gui/ui/nt386/gui.lib(/mnt/sda5/.user/root/src/openwatcom-1.9/bld/gui/ui/c/guixinit.c)
0044e0a0       GUIGetWindowStyles_
0044e0b0       GUIWndInit_
0044e1c0*      GUISetF10Menus_
0044e1e0       GUIIsInit_
Module: /mnt/sda5/.user/root/src/openwatcom-1.9/bld/gui/ui/nt386/gui.lib(/mnt/sda5/.user/root/src/openwatcom-1.9/bld/gui/c/guiimmdi.c)
0044e1f0       GUIMDIInitMenuOnly_
Module: /mnt/sda5/.user/root/src/openwatcom-1.9/bld/gui/ui/nt386/gui.lib(/mnt/sda5/.user/root/src/openwatcom-1.9/bld/gui/ui/c/guimenu.c)
0044e390       GUIFreeMenuItems_
0044e3d0+      GUIAllocMenuItems_
0044e590       GUIGetMenuPopupCount_
0044e5d0       GUIEnableMenuItem_
0044e640       GUISetMenuText_
0044e6d0       GUICheckMenuItem_
0044e730       GUIChangeMenu_
0044e7b0+      GUIGetNumIgnore_
0044e7e0       GUICreateMenuItems_
0044e870+      GUIAllocVBarMenu_
0044eba0       GUICreateMenus_
0044ec20+      GUIFreeVBarMenu_
0044ec50       GUIFreeMenus_
0044ec90       GUISetBetweenTitles_
0044eca0*      GUIAppendMenuByOffset_
0044ede0       GUIDeleteMenuItem_
0044ee70       GUIDeleteToolbarMenuItem_
0044eee0       GUIResetMenus_
0044ef80*      GUIEnableMenus_
0044f010+      GUIInsertMenu_
0044f090*      GUIInsertMenuByID_
0044f110*      GUIAppendMenu_
0044f160       GUIAppendToolbarMenu_
0044f1b0+      AddMenuItemToPopup_
0044f240       GUIAppendMenuToPopup_
0044f260       GUIInsertMenuToPopup_
Module: /mnt/sda5/.user/root/src/openwatcom-1.9/bld/aui/nt386/aui.lib(/mnt/sda5/.user/root/src/openwatcom-1.9/bld/aui/c/wndimain.c)
0044f280       WndInitWndMain_
Module: /mnt/sda5/.user/root/src/openwatcom-1.9/bld/aui/nt386/aui.lib(/mnt/sda5/.user/root/src/openwatcom-1.9/bld/aui/c/wndmnsz.c)
0044f290       WndSetWndMainSize_
Module: /mnt/sda5/.user/root/src/openwatcom-1.9/bld/aui/nt386/aui.lib(/mnt/sda5/.user/root/src/openwatcom-1.9/bld/aui/c/wndbgch.c)
0047c5f0       _WndBackgroundChar
Module: /mnt/sda5/.user/root/src/openwatcom-1.9/bld/gui/ui/nt386/gui.lib(/mnt/sda5/.user/root/src/openwatcom-1.9/bld/gui/ui/c/guixdraw.c)
0044f2c0       GUIInitDrawingChars_
0044f480       GUIGetCharacter_
0044f4a0*      GUISetCharacter_
0044fc30       GUIWndRfrshArea_
0044fdd0       GUIWndUpdate_
00481ee8       _DrawingChars
Module: /mnt/sda5/.user/root/src/openwatcom-1.9/bld/gui/ui/nt386/gui.lib(/mnt/sda5/.user/root/src/openwatcom-1.9/bld/gui/ui/c/guixsys.c)
0044fe30+      GUIWndGetEvent_
0044fe50       uistartevent_
0044fe60       uidoneevent_
0044fed0+      GUICleanup_
0044ff90       GUIXMain_
0044ffd0       GUIXSetupWnd_
00450000       GUISetBackgroundChar_
00450010+      GUISetupStruct1_
00450030+      GUISetupStruct2_
00450100       GUISetupStruct_
00450130       GUIXCreateWindow_
0047c62c       _GUICurrWnd
0047c630       _GUIAllEvents
Module: /mnt/sda5/.user/root/src/openwatcom-1.9/bld/gui/ui/nt386/gui.lib(/mnt/sda5/.user/root/src/openwatcom-1.9/bld/gui/ui/c/guixwind.c)
00450280*      GUIWantPartialRows_
004502a0       GUIFreeWindowMemory_
00450440       GUIDestroyDialog_
00450450       GUICloseWnd_
00450480       GUIDestroyWnd_
00450490       GUIGetRow_
004504c0*      GUIGetCol_
004504f0*      GUIShowWindowNA_
004504f0       GUIShowWindow_
00450500*      GUIHideWindow_
00450510*      GUIIsWindowVisible_
00450520*      GUIIsFirstInstance_
00450530*      GUIStopTimer_
00450530*      GUIStartTimer_
Module: /mnt/sda5/.user/root/src/openwatcom-1.9/bld/gui/ui/nt386/gui.lib(/mnt/sda5/.user/root/src/openwatcom-1.9/bld/gui/ui/c/guigetnr.c)
00450540       GUIGetNumRows_
Module: /mnt/sda5/.user/root/src/openwatcom-1.9/bld/gui/ui/nt386/gui.lib(/mnt/sda5/.user/root/src/openwatcom-1.9/bld/gui/ui/c/guitextm.c)
00450550       GUIGetTextMetrics_
00450580       GUIGetDlgTextMetrics_
00450590*      GUIGetMaxDialogSize_
Module: /mnt/sda5/.user/root/src/openwatcom-1.9/bld/gui/ui/nt386/gui.lib(/mnt/sda5/.user/root/src/openwatcom-1.9/bld/gui/ui/c/guicrect.c)
004505c0       GUIGetClientRect_
004505e0*      GUIGetPaintRect_
Module: /mnt/sda5/.user/root/src/openwatcom-1.9/bld/gui/ui/nt386/gui.lib(/mnt/sda5/.user/root/src/openwatcom-1.9/bld/gui/ui/c/guirange.c)
00450640       GUISetHScrollRange_
00450670*      GUISetVScrollRange_
004506a0*      GUISetHScrollRangeCols_
004506c0       GUISetVScrollRangeRows_
004506e0+      GUIGetVScrollRangeRows_
00450700*      GUIGetVScrollRange_
00450730+      GUIGetHScrollRangeCols_
00450750*      GUIGetHScrollRange_
Module: /mnt/sda5/.user/root/src/openwatcom-1.9/bld/aui/nt386/aui.lib(/mnt/sda5/.user/root/src/openwatcom-1.9/bld/aui/c/wndchoos.c)
00450780       WndChooseEvent_
004507e0*      WndDoneChoose_
004507f0       WndKeyEscape_
00450810*      WndStartChoose_
00450820       WndSayMatchMode_
00450950       WndKeyChoose_
00450b40       WndKeyRubOut_
Module: /mnt/sda5/.user/root/src/openwatcom-1.9/bld/aui/nt386/aui.lib(/mnt/sda5/.user/root/src/openwatcom-1.9/bld/aui/c/wndmouse.c)
00450be0*      WndGetMouseRow_
00450ca0       WndLButtonDown_
00450d80       WndLButtonUp_
00450e50       WndLDblClk_
00450ed0       WndRButtonDown_
00450fd0       WndRButtonUp_
00451050       WndMouseButtonIsDown_
00451070       WndIgnoreMouseMove_
00451090       WndMouseMove_
Module: /mnt/sda5/.user/root/src/openwatcom-1.9/bld/aui/nt386/aui.lib(/mnt/sda5/.user/root/src/openwatcom-1.9/bld/aui/c/wndqryhk.c)
00451110       WndQueryEndSessionHook_
Module: /mnt/sda5/.user/root/src/openwatcom-1.9/bld/aui/nt386/aui.lib(/mnt/sda5/.user/root/src/openwatcom-1.9/bld/aui/c/wndendhk.c)
00451120       WndEndSessionHook_
Module: /mnt/sda5/.user/root/src/openwatcom-1.9/bld/gui/ui/nt386/gui.lib(/mnt/sda5/.user/root/src/openwatcom-1.9/bld/gui/c/guicreat.c)
00451130       GUICreateWindow_
0047c648       _GUIMDI
Module: /mnt/sda5/.user/root/src/openwatcom-1.9/bld/gui/ui/nt386/gui.lib(/mnt/sda5/.user/root/src/openwatcom-1.9/bld/gui/ui/c/guisicon.c)
00451190       GUISetIcon_
Module: /mnt/sda5/.user/root/src/openwatcom-1.9/bld/gui/ui/nt386/gui.lib(/mnt/sda5/.user/root/src/openwatcom-1.9/bld/gui/ui/c/guidrect.c)
004511e0       GUIWndDirtyRect_
Module: /mnt/sda5/.user/root/src/openwatcom-1.9/bld/gui/ui/nt386/gui.lib(/mnt/sda5/.user/root/src/openwatcom-1.9/bld/gui/ui/c/guidrow.c)
00451320       GUIWndDirtyRow_
Module: /mnt/sda5/.user/root/src/openwatcom-1.9/bld/gui/ui/nt386/gui.lib(/mnt/sda5/.user/root/src/openwatcom-1.9/bld/gui/ui/c/guiscrol.c)
00451370       GUIScroll_
004514a0+      SetScroll_
004514c0       GUIInitHScroll_
004514e0*      GUIInitHScrollCol_
00451500*      GUIInitVScroll_
00451520       GUIInitVScrollRow_
00451540       GUISetHScroll_
00451560*      GUISetHScrollCol_
00451580*      GUISetVScroll_
004515a0*      GUISetVScrollRow_
Module: /mnt/sda5/.user/root/src/openwatcom-1.9/bld/gui/ui/nt386/gui.lib(/mnt/sda5/.user/root/src/openwatcom-1.9/bld/gui/c/guidraw.c)
004515c0       GUIDrawText_
00451610*      GUIDrawTextPos_
00451630       GUIDrawTextExtent_
00451680*      GUIDrawTextExtentPos_
004516a0*      GUIDrawTextRGB_
004516f0*      GUIDrawTextPosRGB_
00451710*      GUIDrawTextExtentRGB_
00451760*      GUIDrawTextExtentPosRGB_
Module: /mnt/sda5/.user/root/src/openwatcom-1.9/bld/gui/ui/nt386/gui.lib(/mnt/sda5/.user/root/src/openwatcom-1.9/bld/gui/ui/c/guidoscr.c)
004518f0       GUIDoHScroll_
00451910       GUIDoVScroll_
00451930*      GUIDoHScrollClip_
00451940       GUIDoVScrollClip_
Module: /mnt/sda5/.user/root/src/openwatcom-1.9/bld/gui/ui/nt386/gui.lib(/mnt/sda5/.user/root/src/openwatcom-1.9/bld/gui/ui/c/guidirty.c)
00451950       GUIWndDirty_
Module: /mnt/sda5/.user/root/src/openwatcom-1.9/bld/gui/ui/nt386/gui.lib(/mnt/sda5/.user/root/src/openwatcom-1.9/bld/gui/c/guipixel.c)
004519e0       GUITruncToPixel_
Module: /mnt/sda5/.user/root/src/openwatcom-1.9/bld/gui/ui/nt386/gui.lib(/mnt/sda5/.user/root/src/openwatcom-1.9/bld/gui/ui/c/guixtent.c)
00451a00       GUIGetExtentX_
00451a50*      GUIGetControlExtentX_
00451a60*      GUIGetControlExtentY_
00451a70*      GUIGetExtentY_
Module: /mnt/sda5/.user/root/src/openwatcom-1.9/bld/gui/ui/nt386/gui.lib(/mnt/sda5/.user/root/src/openwatcom-1.9/bld/gui/ui/c/guirect.c)
00451a90       GUIGetRect_
Module: /mnt/sda5/.user/root/src/openwatcom-1.9/bld/gui/ui/nt386/gui.lib(/mnt/sda5/.user/root/src/openwatcom-1.9/bld/gui/ui/c/guimouse.c)
00451b00       GUIGetMousePosn_
Module: /mnt/sda5/.user/root/src/openwatcom-1.9/bld/gui/ui/nt386/gui.lib(/mnt/sda5/.user/root/src/openwatcom-1.9/bld/gui/ui/c/guisize.c)
00451d00*      GUISetCheckResizeAreaForChildren_
00451d20       GUICheckResizeAreaForChildren_
00451de0       GUICheckResizeAreaForParent_
004520f0       GUICheckMove_
00452280       GUICheckArea_
004523d0       GUIWndMoveSize_
00452500+      GUICalcIconArea_
004526d0       GUIZoomWnd_
00452810       GUIResizeWindow_
004528b0       GUISetRestoredSize_
00452900*      GUIGetRestoredSize_
00452950       GUIMinimizeWindow_
00452970       GUIMaximizeWindow_
00452990       GUIRestoreWindow_
004529b0       GUIIsMaximized_
004529c0       GUIIsMinimized_
Module: /mnt/sda5/.user/root/src/openwatcom-1.9/bld/gui/ui/nt386/gui.lib(/mnt/sda5/.user/root/src/openwatcom-1.9/bld/gui/c/guizlist.c)
004529f0       GUIDeleteFromList_
00452a30       GUIFrontOfList_
00452a50       GUIGetFront_
00452a60       GUIGetNextWindow_
00452a80       GUIIsValidWindow_
Module: /mnt/sda5/.user/root/src/openwatcom-1.9/bld/gui/ui/nt386/gui.lib(/mnt/sda5/.user/root/src/openwatcom-1.9/bld/gui/ui/c/guixdisp.c)
00452bd0+      DisplayMessage_
00452c00+      GUIStrnDup_
00452c70+      TabFilter_
00452ed0+      AdjustVert_
00453040       GUIDisplayMessage_
Module: /mnt/sda5/.user/root/src/openwatcom-1.9/bld/gui/ui/nt386/gui.lib(/mnt/sda5/.user/root/src/openwatcom-1.9/bld/gui/ui/c/guildstr.c)
00453290       GUIIsLoadStrInitialized_
004532a0       GUILoadStrInit_
00453360       GUILoadStrFini_
00453390       GUILoadString_
004533d0       GUILoadDialogTemplate_
00453420       GUILoadMenuTemplate_
0047c8f0       _WResRtns
Module: /mnt/sda5/.user/root/src/openwatcom-1.9/bld/ui/nt/nt386/ui.lib(/mnt/sda5/.user/root/src/openwatcom-1.9/bld/ui/c/uichlen.c)
00453469       uicharlen_
00453490       uiisdbcs_
00453496       uionnec_
Module: /mnt/sda5/.user/root/src/openwatcom-1.9/bld/gui/ui/nt386/gui.lib(/mnt/sda5/.user/root/src/openwatcom-1.9/bld/gui/ui/c/guifront.c)
004534a0       GUIBringToFront_
00453550*      GUIActivateNC_
Module: /mnt/sda5/.user/root/src/openwatcom-1.9/bld/gui/ui/nt386/gui.lib(/mnt/sda5/.user/root/src/openwatcom-1.9/bld/gui/ui/c/guistrin.c)
004535a0       GUIGetStringPos_
Module: /mnt/sda5/.user/root/src/openwatcom-1.9/bld/gui/ui/nt386/gui.lib(/mnt/sda5/.user/root/src/openwatcom-1.9/bld/gui/ui/c/guixbar.c)
004535f0       GUIDrawBar_
00453660       GUIDrawBarGroup_
Module: /mnt/sda5/.user/root/src/openwatcom-1.9/bld/gui/ui/nt386/gui.lib(/mnt/sda5/.user/root/src/openwatcom-1.9/bld/gui/ui/c/guidrawr.c)
00453950*      GUIDrawRect_
00453970*      GUIFillRect_
00453990       GUIFillBar_
004539b0       GUIDrawLine_
00453a70*      GUIDrawRectRGB_
00453a70*      GUIFillRectRGB_
00453a80*      GUIDrawLineRGB_
Module: /mnt/sda5/.user/root/src/openwatcom-1.9/bld/gui/ui/nt386/gui.lib(/mnt/sda5/.user/root/src/openwatcom-1.9/bld/gui/ui/c/guixhot.c)
00453a90       GUIXInitHotSpots_
00453b20       GUIDrawHotSpot_
00453b60       GUIXCleanupHotSpots_
0047c910       _GUIHotSpots
Module: /mnt/sda5/.user/root/src/openwatcom-1.9/bld/gui/ui/nt386/gui.lib(/mnt/sda5/.user/root/src/openwatcom-1.9/bld/gui/ui/c/guitool.c)
00453b90       GUIXCreateFixedToolbar_
00453ff0       GUIXCreateToolBar_
004541b0       GUIXCreateToolBarWithTips_
004541e0       GUIXCloseToolBar_
004542c0       GUIHasToolBar_
004542d0       GUIToolBarFixed_
00454320*      GUIChangeToolBar_
Module: /mnt/sda5/.user/root/src/openwatcom-1.9/bld/gui/ui/nt386/gui.lib(/mnt/sda5/.user/root/src/openwatcom-1.9/bld/gui/c/guihtool.c)
00454360*      GUICreateFloatToolBar_
004543c0       GUICreateToolBar_
00454420       GUICreateToolBarWithTips_
00454480       GUICloseToolBar_
Module: /mnt/sda5/.user/root/src/openwatcom-1.9/bld/ui/nt/nt386/ui.lib(/mnt/sda5/.user/root/src/openwatcom-1.9/bld/ui/c/uimenu.c)
004544c7       uisetbetweentitles_
004544cd       uialtchar_
00454676       uidisplayitem_
0045495a       uidrawmenu_
004549bf       uiclosepopup_
004549d0       uiopenpopup_
00454b81+      process_menuevent_
004550d4*      uigeteventfrompos_
00455140       menuevent_
00455257       uidescmenu_
00455467       uimenutitlebar_
004554d6*      uienablemenuitem_
0045550d*      uimenuindicators_
00455527       uisetmenudesc_
004555b3       uimenuson_
004555be       uimenuheight_
004555d6       uimenudisable_
004555f4       uimenuisdisabled_
00455609*      uimenugetaltpressed_
0045561e       uimenusetaltpressed_
0045563c       uinomenus_
0045563e       uimenubar_
0045569c*      uimenus_
004556d9*      uiactivatemenus_
004556fb*      uiignorealt_
00455709       uigetcurrentmenu_
Module: /mnt/sda5/.user/root/src/openwatcom-1.9/bld/gui/ui/nt386/gui.lib(/mnt/sda5/.user/root/src/openwatcom-1.9/bld/gui/ui/c/guiwhole.c)
00455740       GUIWholeWndDirty_
Module: /mnt/sda5/.user/root/src/openwatcom-1.9/bld/ui/nt/nt386/ui.lib(/mnt/sda5/.user/root/src/openwatcom-1.9/bld/ui/c/uigadget.c)
0047c9f0       _VertScrollFrame
0047c9f2       _HorzScrollFrame
0047c9f4       _SliderChar
0047c9f6       _LeftPoint
0047c9f8       _RightPoint
0047c9fa       _UpPoint
0047c9fc       _DownPoint
0045576a       uishowgadget_
0045598c       uiinitgadget_
0045599d       uidrawgadget_
004559bf       uisetgadget_
004559cb       uifinigadget_
004559cc       uisetgadgetnodraw_
004559d1       uigadgetfilter_
Module: /mnt/sda5/.user/root/src/openwatcom-1.9/bld/gui/ui/nt386/gui.lib(/mnt/sda5/.user/root/src/openwatcom-1.9/bld/gui/c/guisdef.c)
00481ff4       ___LITApplIcon
00481ff8       ___LITEmpty
00481ffc       ___LITBrightGreen
00482000       ___LITOS2_Dialog_Font
00482004       ___LITBrightCyan
00482008       ___LITBrightBlue
0048200c       ___LITBrightRed
00482010       ___LITBlank
00482014       ___LITBrightYellow
00482018       ___LITTable_of_Contents
0048201c       ___LITInternal_Last_Message
00482020       ___LITBrightWhite
00482024       ___LITBrightMagenta
00482028       ___LITWhite
0048202c       ___LITWindows_Dialog_Font
00482030       ___LITGrey
00482034       ___LITXNo
00482038       ___LITXIgnore
0048203c       ___LITBlack
00482040       ___LITFix_Toolbar_Hint
00482044       ___LITCyan
00482048       ___LITBrown
0048204c       ___LITBlue
00482050       ___LITGreen
00482054       ___LITExclamation
00482058       ___LITXAbort
0048205c       ___LITWindow_Name_Hint
00482060       ___LITColour
00482064       ___LITXFix_Toolbar
00482068       ___LITStop_Bang
0048206c       ___LITMagenta
00482070       ___LITRed
00482074       ___LITXRetry
00482078       ___LITSelect_Window
0048207c       ___LITXYes
00482080       ___LITNexXt
00482084       ___LITArrange_Icons_Hint
00482088       ___LITClose
0048208c       ___LITFDlg_Open_Text
00482090       ___LITTile_Horz_Hint
00482094       ___LITCascade_Hint
00482098       ___LITTile_XVert
0048209c       ___LITTile_Vert_Hint
004820a0       ___LITTile_XHorz
004820a4       ___LITRestore
004820a8       ___LITMove
004820ac       ___LITMore_Windows_Hint
004820b0       ___LITXMore_Windows
004820b4       ___LITXClose
004820b8       ___LITSize
004820bc       ___LITXCascade
004820c0       ___LITMinimize
004820c4       ___LITXArrange_Icons
004820c8       ___LITMaximize
004820cc       ___LITXFix_Tool_Bar
004820d0       ___LITFile_Exists_Replace
004820d4       ___LITChange_XFont_
004820d8       ___LITCancel
004820dc       ___LITOpen_Failed
004820e0       ___LITDrives_Colon
004820e4       ___LITFDlg_Save_Text
004820e8       ___LITList_Files_of_Type_Colon
004820ec       ___LITPen_Failed
004820f0       ___LITFile_Name_Colon
004820f4       ___LITChange_Font_for_this_window
004820f8       ___LITMake_Tool_Bar_Fixed
004820fc       ___LITFloating_Toolbar
00482100       ___LITInternal_First_Message
00482104       ___LITDirectories_Colon
00482108       ___LITOK
Module: /mnt/sda5/.user/root/src/openwatcom-1.9/bld/gui/ui/nt386/gui.lib(/mnt/sda5/.user/root/src/openwatcom-1.9/bld/gui/c/guidlg.c)
00455d00       GUICreateDialog_
00455d10       GUICreateResDialog_
00455d30       GUICreateSysModalDialog_
Module: /mnt/sda5/.user/root/src/openwatcom-1.9/bld/ui/nt/nt386/ui.lib(/mnt/sda5/.user/root/src/openwatcom-1.9/bld/ui/c/uidialog.c)
00456354       uiprintfield_
00456398+      ui_split_line_
0045643a+      uiinitdialog_
00456550*      uifinidialog_
0045660e       uireinitdialog_
004566a0       uigetdialogarea_
004566b5       uibegdialog_
00456779       uiupdatecombobox_
004567e6       uiupdateedit_
00456882+      pulldownfilter_
00456a80+      uidialogexitcurr_
00456a97       uidialogsetcurr_
00456ae9       uimovefield_
00456b45       uiredrawdialog_
00456b81       uiresizedialog_
00456f93+      uihotkeyfilter_
00457090       uiprocessdialogevent_
0045726c       uidialog_
00457378       uifreedialog_
004573c4       uienddialog_
004573dc*      uidialogisdirty_
004573ec*      uidialogsetdirty_
Module: /mnt/sda5/.user/root/src/openwatcom-1.9/bld/gui/ui/nt386/gui.lib(/mnt/sda5/.user/root/src/openwatcom-1.9/bld/gui/c/guiutil.c)
00457400*      GUIStripTrailingBlanks_
00457480       GUIStrDup_
00457500       GUIStoreArgs_
00457520*      GUIGetArgs_
00457550*      GUIIsRootWindow_
00457570       GUIGetRootWindow_
Module: /mnt/sda5/.user/root/src/openwatcom-1.9/bld/gui/ui/nt386/gui.lib(/mnt/sda5/.user/root/src/openwatcom-1.9/bld/gui/ui/c/guihotsp.c)
00457590       GUICreateHot_
00457610       GUIFreeHotSpot_
00457630       GUISetHotSpotText_
Module: /mnt/sda5/.user/root/src/openwatcom-1.9/bld/aui/nt386/aui.lib(/mnt/sda5/.user/root/src/openwatcom-1.9/bld/aui/c/rxwrap.c)
0048212c       _RegExpError
004576d0       RegComp_
00458300       RegExec_
004588a0*      RegAnchor_
0047ca74       _SrchMetaChars
0047ca82+      _RealTabs
Module: /mnt/sda5/.user/root/src/openwatcom-1.9/bld/gui/ui/nt386/gui.lib(/mnt/sda5/.user/root/src/openwatcom-1.9/bld/gui/c/guihflt.c)
004588b0       GUICreateFloatingPopup_
Module: /mnt/sda5/.user/root/src/openwatcom-1.9/bld/ui/nt/nt386/ui.lib(/mnt/sda5/.user/root/src/openwatcom-1.9/bld/ui/nt/c/uispawn.c)
0045891d       uispawnstart_
00458946       uispawnend_
Module: /mnt/sda5/.user/root/src/openwatcom-1.9/bld/ui/nt/nt386/ui.lib(/mnt/sda5/.user/root/src/openwatcom-1.9/bld/ui/c/uiblank.c)
004589bd*      uiblankattr_
004589d0*      uiblankarea_
004589ea       uiblankscreen_
Module: /mnt/sda5/.user/root/src/openwatcom-1.9/bld/ui/nt/nt386/ui.lib(/mnt/sda5/.user/root/src/openwatcom-1.9/bld/ui/c/uidirty.c)
004589f7       dirtyarea_
00458a79       dirtynext_
00458ac9       uidirty_
Module: /mnt/sda5/.user/root/src/openwatcom-1.9/bld/gui/ui/nt386/gui.lib(/mnt/sda5/.user/root/src/openwatcom-1.9/bld/gui/c/guihook.c)
00458af0       GUISetHotSpotCleanup_
00458b00       GUICleanupHotSpots_
00458b20*      GUISetXChangeTitle_
00458b30       GUIXChangeTitle_
00458b50       GUISetXInitMDI_
00458b60       GUIXInitMDI_
00458b80       GUISetInitMDI_
00458b90       GUIInitMDI_
00458bb0       GUIChangeMDITitle_
00458bd0       GUISetMDIChangeTitle_
00458be0       GUISetMDIBroughtToFront_
00458bf0       GUIMDIBroughtToFront_
00458c10       GUISetMDIDelete_
00458c20       GUIMDIDelete_
00458c40       GUISetMDIResetMenus_
00458c50       GUIMDIResetMenus_
00458c70       GUISetMDIDeleteMenuItem_
00458c80       GUIMDIDeleteMenuItem_
00458ca0*      GUISetEnableMDIActions_
00458cb0       GUIEnableMDIActions_
00458cd0*      GUISetAddMDIActions_
00458ce0       GUIAddMDIActions_
Module: /mnt/sda5/.user/root/src/openwatcom-1.9/bld/ui/nt/nt386/ui.lib(/mnt/sda5/.user/root/src/openwatcom-1.9/bld/ui/nt/c/uiget.c)
00458cf4       uiflush_
00458d00       uiclock_
00458d5a       uiget_
00458d5f*      uieventsource_
Module: /mnt/sda5/.user/root/src/openwatcom-1.9/bld/ui/nt/nt386/ui.lib(/mnt/sda5/.user/root/src/openwatcom-1.9/bld/ui/c/uilist.c)
00458da0*      uigetlist_
00458da9*      uiputlist_
00458db6       uipushlist_
00458df2*      uichecklist_
00458e14       uipoplist_
00458e38       uiinlist_
00458e90*      uiintoplist_
Module: /mnt/sda5/.user/root/src/openwatcom-1.9/bld/gui/ui/nt386/gui.lib(/mnt/sda5/.user/root/src/openwatcom-1.9/bld/gui/ui/c/guilistb.c)
00458ef0       GUIClearListBox_
00458f10       GUIListBoxDeleteItem_
00458fd0       GUIFreeList_
00459040       GUIFillInListBox_
00459060       GUICreateListBox_
00459090       GUICreateEditMLE_
00459160       GUIListSize_
004592a0       GUIListBoxAddText_
00459300       GUIListBoxAddTextList_
00459380       GUIGetListBoxText_
004593b0       GUIListCurr_
004593f0       GUIListBoxTopIndex_
00459420*      GUISetListItemData_
00459420*      GUIDropDown_
00459430*      GUIGetListItemData_
Module: /mnt/sda5/.user/root/src/openwatcom-1.9/bld/gui/ui/nt386/gui.lib(/mnt/sda5/.user/root/src/openwatcom-1.9/bld/gui/ui/c/guixutil.c)
00459440*      GUISetRedraw_
00459450       GUIIsOpen_
00459460       GUISetUseArea_
004594b0       GUISetUseWnd_
004594c0       GUIPtInRect_
00459580       GUIOverlap_
004595a0       GUISetDialogArea_
004595f0       GUIAdjustDialogArea_
00459600       GUIGetSAREA_
00459630       GUIGetClientSAREA_
00459660       GUISetArea_
00459870       GUIMakeEditCopy_
004598c0       GUIRedrawTitle_
004598d0       GUIMakeRelative_
00459940       GUIJustSetWindowText_
00459970*      GUIInArea_
004599b0       GUIDirtyArea_
004599c0       GUIGetTopWnd_
004599e0       GUIGetFirstSibling_
00459a00       GUIGetParentWindow_
00459a10       GUIXGetRootWindow_
00459a30       GUISetCursor_
00459a50*      GUIUnHookF1_
00459a50*      GUIHookF1_
Module: /mnt/sda5/.user/root/src/openwatcom-1.9/bld/gui/ui/nt386/gui.lib(/mnt/sda5/.user/root/src/openwatcom-1.9/bld/gui/c/guimkey.c)
00459a70       GUIMapKey_
00459ed0       GUIGetKeyState_
0047cb30       _KeyState
Module: /mnt/sda5/.user/root/src/openwatcom-1.9/bld/gui/ui/nt386/gui.lib(/mnt/sda5/.user/root/src/openwatcom-1.9/bld/gui/ui/c/guirdlg.c)
00459ef0+      GUIFreeDialogBoxControlPtrs_
00459f40+      GUIFreeDialogBoxHeader_
0045a8a0       GUICreateDialogFromRes_
Module: /mnt/sda5/.user/root/src/openwatcom-1.9/bld/ui/nt/nt386/ui.lib(/mnt/sda5/.user/root/src/openwatcom-1.9/bld/ui/c/uiyield.c)
0045aae5       uiyield_
Module: /mnt/sda5/.user/root/src/openwatcom-1.9/bld/gui/ui/nt386/gui.lib(/mnt/sda5/.user/root/src/openwatcom-1.9/bld/gui/ui/c/guixloop.c)
0047cb3c       _GUIUserEvents
0045adf0       GUICreatePopup_
0045b450       GUIGetMenuWindow_
0045b5c0       GUIProcessEvent_
Module: /mnt/sda5/.user/root/src/openwatcom-1.9/bld/gui/ui/nt386/gui.lib(/mnt/sda5/.user/root/src/openwatcom-1.9/bld/gui/ui/c/guifdlg.c)
0045bfc0+      Compare_
0045cbb0+      ProcessOKorDClick_
0045cec0+      GetFileNameEvent_
0045d090       GUIGetFileName_
0045d0f0*      GUIHookFileDlg_
Module: /mnt/sda5/.user/root/src/openwatcom-1.9/bld/gui/ui/nt386/gui.lib(/mnt/sda5/.user/root/src/openwatcom-1.9/bld/gui/ui/c/guixscal.c)
0045d1c0       GUIGetScreenArea_
0045d1f0       GUIMulDiv_
0045d290       GUIScreenToScaleRect_
0045d2b0       GUIScreenToScaleRectR_
0045d2d0       GUIScaleToScreenRect_
0045d2f0       GUIScaleToScreenRectR_
Module: /mnt/sda5/.user/root/src/openwatcom-1.9/bld/gui/ui/nt386/gui.lib(/mnt/sda5/.user/root/src/openwatcom-1.9/bld/help/c/helpopen.c)
0045d4c0+      do_init_
0045d5e0       helpinit_
0045d6a0       help_reinit_
0045d710       helpfini_
0047cd4c       _HelpFiles
Module: /mnt/sda5/.user/root/src/openwatcom-1.9/bld/gui/ui/nt386/gui.lib(/mnt/sda5/.user/root/src/openwatcom-1.9/bld/help/c/help.c)
0045d810+      hlp_ut_screen_area_
0045d860+      hlp_ut_position_
0045deb0+      help_next_field_
0045e040*      Free_Stack_
0045e060+      help_in_tab_
0045f4c0       showhelp_
0045f740+      do_showhelp_
Module: /mnt/sda5/.user/root/src/openwatcom-1.9/bld/gui/ui/nt386/gui.lib(/mnt/sda5/.user/root/src/openwatcom-1.9/bld/gui/ui/c/guithumb.c)
0045f9d0*      GUISetHScrollThumb_
0045fa10       GUISetVScrollThumb_
Module: /mnt/sda5/.user/root/src/openwatcom-1.9/bld/gui/ui/nt386/gui.lib(/mnt/sda5/.user/root/src/openwatcom-1.9/bld/gui/ui/c/guigscrl.c)
0045fa50*      GUIGetHScrollCol_
0045fa70*      GUIGetVScrollRow_
0045fa90       GUIGetHScroll_
0045fac0*      GUIGetVScroll_
Module: /mnt/sda5/.user/root/src/openwatcom-1.9/bld/ui/nt/nt386/ui.lib(/mnt/sda5/.user/root/src/openwatcom-1.9/bld/ui/nt/c/uibmous.c)
0045fb00       uisetmouse_
0045fb1a       uimouse_
Module: /mnt/sda5/.user/root/src/openwatcom-1.9/bld/ui/nt/nt386/ui.lib(/mnt/sda5/.user/root/src/openwatcom-1.9/bld/ui/c/uibfill.c)
0045fb45       bfill_
Module: /mnt/sda5/.user/root/src/openwatcom-1.9/bld/ui/nt/nt386/ui.lib(/mnt/sda5/.user/root/src/openwatcom-1.9/bld/ui/c/uibcopy.c)
0045fb88       uibcopy_
Module: /mnt/sda5/.user/root/src/openwatcom-1.9/bld/ui/nt/nt386/ui.lib(/mnt/sda5/.user/root/src/openwatcom-1.9/bld/ui/c/uirefer.c)
0045fbd3       uirefresh_
Module: /mnt/sda5/.user/root/src/openwatcom-1.9/bld/ui/nt/nt386/ui.lib(/mnt/sda5/.user/root/src/openwatcom-1.9/bld/ui/c/uiwin.c)
0045fc28+      findspot_
0045fc8d       closewindow_
0045fcd7       openwindow_
0045fd02       movewindow_
0045fd2c       frontwindow_
Module: /mnt/sda5/.user/root/src/openwatcom-1.9/bld/ui/nt/nt386/ui.lib(/mnt/sda5/.user/root/src/openwatcom-1.9/bld/ui/c/uiballoc.c)
0045fd5a       bframe_
0045fd66       balloc_
0045fd89       bunframe_
0045fd95       bfree_
Module: /mnt/sda5/.user/root/src/openwatcom-1.9/bld/ui/nt/nt386/ui.lib(/mnt/sda5/.user/root/src/openwatcom-1.9/bld/ui/c/uivscrn.c)
0045fd9c       findvscreen_
0045fdf2       uivdirty_
0045fe00       uivsetactive_
0045fe18       uivsetcursor_
Module: /mnt/sda5/.user/root/src/openwatcom-1.9/bld/ui/nt/nt386/ui.lib(/mnt/sda5/.user/root/src/openwatcom-1.9/bld/ui/c/uivfill.c)
0045fe4b       uivfill_
Module: /mnt/sda5/.user/root/src/openwatcom-1.9/bld/ui/nt/nt386/ui.lib(/mnt/sda5/.user/root/src/openwatcom-1.9/bld/ui/c/uivstr.c)
0045feb3       uitextfield_
0045ff87       uivtextput_
0045ffcd*      uivrawput_
Module: /mnt/sda5/.user/root/src/openwatcom-1.9/bld/gui/ui/nt386/gui.lib(/mnt/sda5/.user/root/src/openwatcom-1.9/bld/gui/ui/c/guiximdi.c)
004600a0       XFakeInitMDI_
Module: /mnt/sda5/.user/root/src/openwatcom-1.9/bld/gui/ui/nt386/gui.lib(/mnt/sda5/.user/root/src/openwatcom-1.9/bld/gui/c/guimdi.c)
0047cfb0+      _GUIMDIMenuID
0047cfb4+      _Root
004600d0*      GUIGetRoot_
00460360       MDIDeleteMenu_
00460380       MDIResetMenus_
00460400*      GUIEnableMDIMenus_
00460490       InitMDI_
004605e0       ChangeTitle_
00460620       BroughtToFront_
00460690+      FindNextMDIMenuWindowNotInArray_
00460700       MDIDelete_
004609b0+      GUIGetNumChildWindows_
004609e0*      GUIGetNumIconicWindows_
00460a60       GUIMDIMoreWindows_
00460ac0       GUIMDIGetWindow_
Module: /mnt/sda5/.user/root/src/openwatcom-1.9/bld/gui/ui/nt386/gui.lib(/mnt/sda5/.user/root/src/openwatcom-1.9/bld/gui/ui/c/guifloat.c)
00460b40       GUIProcessMenuCurr_
00460c30       GUICreateMenuPopup_
00460eb0       GUIXCreateFloatingPopup_
00460f00*      GUITrackFloatingPopup_
0047cfd0       _GUIPopupMenu
Module: /mnt/sda5/.user/root/src/openwatcom-1.9/bld/gui/ui/nt386/gui.lib(/mnt/sda5/.user/root/src/openwatcom-1.9/bld/gui/c/guihint.c)
00461080+      GUIHasHintType_
004610b0       GUIDisplayHintText_
00461120*      GUISetHintText_
00461140       GUIHasHintText_
00461160       GUIDeleteHintText_
00461250+      CountMenus_
00461290+      InsertHint_
004612f0       GUIAppendHintText_
00461370       GUIInitHint_
00461440       GUIInitToolbarHint_
004614e0       GUIFreeHint_
Module: /mnt/sda5/.user/root/src/openwatcom-1.9/bld/gui/ui/nt386/gui.lib(/mnt/sda5/.user/root/src/openwatcom-1.9/bld/gui/ui/c/guisysme.c)
00461540       GUISetSystemMenuFlags_
004615f0       GUISetSystemMenu_
004616f0       GUIProcessSysMenuEvent_
Module: /mnt/sda5/.user/root/src/openwatcom-1.9/bld/gui/ui/nt386/gui.lib(/mnt/sda5/.user/root/src/openwatcom-1.9/bld/gui/ui/c/guirmenu.c)
00461b00       GUIFreeGUIMenuStruct_
00461cb0       GUICreateMenuStructFromRes_
Module: /mnt/sda5/.user/root/src/openwatcom-1.9/bld/gui/ui/nt386/gui.lib(/mnt/sda5/.user/root/src/openwatcom-1.9/bld/gui/ui/c/guigadgt.c)
00461d70       GUIUseGadget_
00461dd0       GUIDrawGadgetLine_
00461f60       GUISetShowGadget_
00462000       GUIGadgetFilter_
004620d0       GUIInitGadget_
00462110       GUICreateGadget_
00462220       GUIGetScrollOffset_
Module: /mnt/sda5/.user/root/src/openwatcom-1.9/bld/gui/ui/nt386/gui.lib(/mnt/sda5/.user/root/src/openwatcom-1.9/bld/gui/ui/c/guiicon.c)
00462230       GUIDrawIcon_
Module: /mnt/sda5/.user/root/src/openwatcom-1.9/bld/ui/nt/nt386/ui.lib(/mnt/sda5/.user/root/src/openwatcom-1.9/bld/ui/c/uimget.c)
004622ff       uivgetevent_
004622ff       uivget_
00462309*      uiungetevent_
00462319*      uiflushevent_
Module: /mnt/sda5/.user/root/src/openwatcom-1.9/bld/gui/ui/nt386/gui.lib(/mnt/sda5/.user/root/src/openwatcom-1.9/bld/gui/ui/c/guiuiev.c)
00462330       GUIUIProcessEvent_
Module: /mnt/sda5/.user/root/src/openwatcom-1.9/bld/gui/ui/nt386/gui.lib(/mnt/sda5/.user/root/src/openwatcom-1.9/bld/gui/c/guiev.c)
00462340       GUIDoneEventProcessing_
00462340       GUIStartEventProcessing_
Module: /mnt/sda5/.user/root/src/openwatcom-1.9/bld/gui/ui/nt386/gui.lib(/mnt/sda5/.user/root/src/openwatcom-1.9/bld/gui/c/guistr.c)
004623a0       GUIInitInternalStringTable_
004627c0       GUIFiniInternalStringTable_
Module: /mnt/sda5/.user/root/src/openwatcom-1.9/bld/gui/ui/nt386/gui.lib(/mnt/sda5/.user/root/src/openwatcom-1.9/bld/gui/c/guideath.c)
00462a80       GUIDeath_
Module: /mnt/sda5/.user/root/src/openwatcom-1.9/bld/gui/ui/nt386/gui.lib(/mnt/sda5/.user/root/src/openwatcom-1.9/bld/gui/c/guiextnm.c)
00462a90       GUIGetExtName_
00462ab0*      GUISetExtName_
Module: /mnt/sda5/.user/root/src/openwatcom-1.9/bld/gui/ui/nt386/gui.lib(/mnt/sda5/.user/root/src/openwatcom-1.9/bld/gui/c/guidead.c)
00462b00       GUIDead_
Module: /mnt/sda5/.user/root/src/openwatcom-1.9/bld/gui/ui/nt386/gui.lib(/mnt/sda5/.user/root/src/openwatcom-1.9/bld/gui/ui/c/guixmain.c)
00462b10       main_
0047d14c       _GUIMainTouched
Module: /mnt/sda5/.user/root/src/openwatcom-1.9/bld/gui/ui/nt386/gui.lib(/mnt/sda5/.user/root/src/openwatcom-1.9/bld/gui/c/guifcrck.c)
00462b20       GUIFirstCrack_
Module: /mnt/sda5/.user/root/src/openwatcom-1.9/bld/ui/nt/nt386/ui.lib(/mnt/sda5/.user/root/src/openwatcom-1.9/bld/ui/c/uivopen.c)
00462b7f       uivopen_
00462d45       uivclose_
00462d7a       uivresize_
00462e8d       uivmove_
Module: /mnt/sda5/.user/root/src/openwatcom-1.9/bld/ui/nt/nt386/ui.lib(/mnt/sda5/.user/root/src/openwatcom-1.9/bld/ui/c/uivhide.c)
00462ed8       uivhide_
00462efe       uivshow_
Module: /mnt/sda5/.user/root/src/openwatcom-1.9/bld/gui/ui/nt386/gui.lib(/mnt/sda5/.user/root/src/openwatcom-1.9/bld/gui/c/guisetup.c)
00462f20       GUISetupWnd_
Module: /mnt/sda5/.user/root/src/openwatcom-1.9/bld/gui/ui/nt386/gui.lib(/mnt/sda5/.user/root/src/openwatcom-1.9/bld/gui/ui/c/guidrawt.c)
00462f70       GUIXDrawText_
00463280       GUIXDrawTextRGB_
Module: /mnt/sda5/.user/root/src/openwatcom-1.9/bld/ui/nt/nt386/ui.lib(/mnt/sda5/.user/root/src/openwatcom-1.9/bld/ui/c/uivmove.c)
00463283       uivmoveblock_
Module: /mnt/sda5/.user/root/src/openwatcom-1.9/rel2/lib386/nt/clib3r.lib(strcspn.c)
004633c0       strcspn_
Module: /mnt/sda5/.user/root/src/openwatcom-1.9/rel2/lib386/nt/clib3r.lib(strnset.c)
00463410       strnset_
Module: /mnt/sda5/.user/root/src/openwatcom-1.9/rel2/lib386/nt/clib3r.lib(tell.c)
00463430       tell_
Module: /mnt/sda5/.user/root/src/openwatcom-1.9/bld/sdk/rc/wres/flat386/mf_r/wres.lib(loadfind.c)
00463468       FindResources_
0047d150       _FileShift
Module: /mnt/sda5/.user/root/src/openwatcom-1.9/bld/sdk/rc/wres/flat386/mf_r/wres.lib(loadstr.c)
004636a8+      WResLoadString2_
00463758       WResLoadString_
00463770       OpenResFile_
00463780+      InitResources2_
004637a8       InitResources_
004637b8*      CloseResFile2_
004637c4       CloseResFile_
004637dc*      LoadstrInitStatics_
0048262c       _MainDir
Module: /mnt/sda5/.user/root/src/openwatcom-1.9/rel2/lib386/nt/clib3r.lib(iob.c)
0047d154       ___iob
0047d35c       __fmode
00482630       ___OpenStreams
00482634       ___ClosedStreams
Module: /mnt/sda5/.user/root/src/openwatcom-1.9/bld/sdk/rc/wres/flat386/mf_r/wres.lib(loadres.c)
00463824+      WResLoadResource2_
004638e4       WResLoadResource_
Module: /mnt/sda5/.user/root/src/openwatcom-1.9/rel2/lib386/nt/clib3r.lib(mbisdbcs.c)
00482638       ___IsDBCS
Module: /mnt/sda5/.user/root/src/openwatcom-1.9/rel2/lib386/nt/clib3r.lib(mbislead.c)
00463910*      _ismbblead_
0048263c       ___MBCSIsTable
Module: /mnt/sda5/.user/root/src/openwatcom-1.9/rel2/lib386/nt/clib3r.lib(nonibm.c)
00463930*      __is_nonIBM_
0047d360       ___NonIBM
Module: /mnt/sda5/.user/root/src/openwatcom-1.9/bld/ui/nt/nt386/ui.lib(/mnt/sda5/.user/root/src/openwatcom-1.9/bld/ui/c/uibox.c)
00463948       drawbox_
00463a8e       blowup_
00463b66       uidrawbox_
Module: /mnt/sda5/.user/root/src/openwatcom-1.9/bld/ui/nt/nt386/ui.lib(/mnt/sda5/.user/root/src/openwatcom-1.9/bld/ui/c/uibstr.c)
00463bd4       bstring_
00463c09       braw_
Module: /mnt/sda5/.user/root/src/openwatcom-1.9/bld/ui/nt/nt386/ui.lib(/mnt/sda5/.user/root/src/openwatcom-1.9/bld/ui/c/uipopup.c)
00463efe+      uicreatepopupdesc_
004640e9       uiposfloatingpopup_
00464638       uicreatepopupinarea_
0046465b+      uicreatesubpopup_
004646a1       uicreatesubpopupinarea_
004646c1*      uicreatepopup_
Module: /mnt/sda5/.user/root/src/openwatcom-1.9/bld/ui/nt/nt386/ui.lib(/mnt/sda5/.user/root/src/openwatcom-1.9/bld/ui/c/uivutil.c)
00464727       isdialogue_
00464737       isscreen_
0046476a*      uisetsnow_
Module: /mnt/sda5/.user/root/src/openwatcom-1.9/bld/gui/ui/nt386/gui.lib(/mnt/sda5/.user/root/src/openwatcom-1.9/bld/gui/ui/c/uimenucr.c)
00464780       uimenucurr_
Module: /mnt/sda5/.user/root/src/openwatcom-1.9/bld/ui/nt/nt386/ui.lib(/mnt/sda5/.user/root/src/openwatcom-1.9/bld/ui/c/uipget.c)
00464785       saveevent_
004647ab       getprime_
004647d3*      uivgetprimevent_
004647d3*      uivgetprime_
00482740       _Event
Module: /mnt/sda5/.user/root/src/openwatcom-1.9/bld/ui/nt/nt386/ui.lib(/mnt/sda5/.user/root/src/openwatcom-1.9/bld/ui/c/uiprot.c)
004647da       uiunprotect_
00464801       uiprotect_
Module: /mnt/sda5/.user/root/src/openwatcom-1.9/bld/ui/nt/nt386/ui.lib(/mnt/sda5/.user/root/src/openwatcom-1.9/bld/ui/c/uiledit.c)
00464880       uiedittrim_
00464892*      uieditmarking_
004648c6       uibegedit_
004649da       uieditpushlist_
004649ee       uieditpoplist_
00464a44       uiledit_
00464b38*      uieditinsert_
00464bb4       uiendedit_
00464bfc       uieditisdirty_
00464c23*      uieditautoclear_
00464c38*      uieditcursor_
00464c49*      uieditdirty_
00464c53*      uieditclean_
0047d3dc+      _UIEdit
Module: /mnt/sda5/.user/root/src/openwatcom-1.9/bld/ui/nt/nt386/ui.lib(/mnt/sda5/.user/root/src/openwatcom-1.9/bld/ui/c/uimisc.c)
00464c5d       uisetscreenarea_
00464c99       uisetarea_
00464ce5       uiposition_
00464d3f       uiopen_
00464d7c       uiclose_
00464d8d       uicntrtext_
00464dd1       uinocursor_
00464dd9       uicursor_
Module: /mnt/sda5/.user/root/src/openwatcom-1.9/bld/ui/nt/nt386/ui.lib(/mnt/sda5/.user/root/src/openwatcom-1.9/bld/ui/c/uilstbox.c)
00464de4       uigetlistelement_
00464e1c       uipaintlistbox_
00464f60+      checkitem_
00464fd1       uiupdatelistbox_
00465044       uiboxpushlist_
0046504e       uiboxpoplist_
0046507c       uilistsize_
00465094       uimovelistbox_
004650b2       uibeglistbox_
0046517d       uiendlistbox_
00465226+      charselect_
00465293       uilistbox_
Module: /mnt/sda5/.user/root/src/openwatcom-1.9/bld/ui/nt/nt386/ui.lib(/mnt/sda5/.user/root/src/openwatcom-1.9/bld/ui/c/uihotspt.c)
00465686       uidrawhottext_
00465798       uihotspot_
00465942       uiposnhotspots_
004659dd       uiprinthotspots_
00465a01*      uioffhotspots_
00465a3c       uihotspotfilter_
00465bab       uiisdefaulthotspot_
Module: /mnt/sda5/.user/root/src/openwatcom-1.9/rel2/lib386/nt/clib3r.lib(strncat.c)
00465be0       strncat_
Module: /mnt/sda5/.user/root/src/openwatcom-1.9/bld/gui/ui/nt386/gui.lib(/mnt/sda5/.user/root/src/openwatcom-1.9/bld/gui/ui/c/uidchfld.c)
00465c20       uidialogchangefield_
Module: /mnt/sda5/.user/root/src/openwatcom-1.9/bld/ui/nt/nt386/ui.lib(/mnt/sda5/.user/root/src/openwatcom-1.9/bld/ui/c/uidevent.c)
00465c25       uidialogevent_
Module: /mnt/sda5/.user/root/src/openwatcom-1.9/bld/gui/ui/nt386/gui.lib(/mnt/sda5/.user/root/src/openwatcom-1.9/bld/help/c/dialcb.c)
00465c30       uidialogcallback_
Module: /mnt/sda5/.user/root/src/openwatcom-1.9/rel2/lib386/nt/clib3r.lib(strncmp.c)
00465c40       strncmp_
Module: /mnt/sda5/.user/root/src/openwatcom-1.9/bld/ui/nt/nt386/ui.lib(/mnt/sda5/.user/root/src/openwatcom-1.9/bld/ui/c/uiarea.c)
00465c69       dividearea_
Module: /mnt/sda5/.user/root/src/openwatcom-1.9/bld/gui/ui/nt386/gui.lib(/mnt/sda5/.user/root/src/openwatcom-1.9/bld/gui/ui/c/guimapky.c)
00465e20       GUISetKeyState_
00465e50       GUIMapKeys_
Module: /mnt/sda5/.user/root/src/openwatcom-1.9/rel2/lib386/nt/clib3r.lib(itoa.c)
00466330       utoa_
00466380       itoa_
Module: /mnt/sda5/.user/root/src/openwatcom-1.9/bld/gui/ui/nt386/gui.lib(/mnt/sda5/.user/root/src/openwatcom-1.9/bld/gui/ui/c/guismove.c)
004663f0       GUIStartMoveResize_
00466420       GUIStartKeyboardMoveResize_
004666f0*      MoveResizeCancel_
00466700       GUIDoKeyboardMoveResize_
004667e0       GUIDoMoveResize_
00466840       GUIDoMoveResizeCheck_
Module: /mnt/sda5/.user/root/src/openwatcom-1.9/bld/gui/ui/nt386/gui.lib(/mnt/sda5/.user/root/src/openwatcom-1.9/bld/gui/ui/c/guikey.c)
00466890       GUIProcessAltMenuEvent_
Module: /mnt/sda5/.user/root/src/openwatcom-1.9/bld/gui/ui/nt386/gui.lib(/mnt/sda5/.user/root/src/openwatcom-1.9/bld/gui/ui/c/guixhook.c)
00466920       GUISetMDIProcessEvent_
00466930       GUIMDIProcessEvent_
Module: /mnt/sda5/.user/root/src/openwatcom-1.9/rel2/lib386/nt/clib3r.lib(sdrvewnt.c)
00466950       _dos_setdrive_
Module: /mnt/sda5/.user/root/src/openwatcom-1.9/rel2/lib386/nt/clib3r.lib(chdirwnt.c)
00466980       chdir_
Module: /mnt/sda5/.user/root/src/openwatcom-1.9/rel2/lib386/nt/clib3r.lib(_istrcc_.asm)
0046699c       strcasecmp_
Module: /mnt/sda5/.user/root/src/openwatcom-1.9/rel2/lib386/nt/clib3r.lib(strtok.c)
004669b0       strtok_
Module: /mnt/sda5/.user/root/src/openwatcom-1.9/rel2/lib386/nt/clib3r.lib(gtcwdwnt.c)
00466a70       getcwd_
Module: /mnt/sda5/.user/root/src/openwatcom-1.9/rel2/lib386/nt/clib3r.lib(dirwnt.c)
00466b80+      __opendir_
00466c00+      _opendir_
00466d90       opendir_
00466db0       readdir_
00466e60       closedir_
00466eb0*      rewinddir_
Module: /mnt/sda5/.user/root/src/openwatcom-1.9/rel2/lib386/nt/clib3r.lib(statwnt.c)
00466ff1       stat_
Module: /mnt/sda5/.user/root/src/openwatcom-1.9/bld/gui/ui/nt386/gui.lib(/mnt/sda5/.user/root/src/openwatcom-1.9/bld/gui/ui/c/helpmem.c)
00467230       HelpMemFree_
00467240       HelpMemAlloc_
00467250       HelpMemRealloc_
Module: /mnt/sda5/.user/root/src/openwatcom-1.9/rel2/lib386/nt/clib3r.lib(splitpat.c)
004672a0       _splitpath_
Module: /mnt/sda5/.user/root/src/openwatcom-1.9/bld/gui/ui/nt386/gui.lib(/mnt/sda5/.user/root/src/openwatcom-1.9/bld/help/c/search.c)
004675f0       HelpFindFirst_
00467680       HelpGetIndexedTopic_
004676f0       HelpFindTopicOffset_
00467760       InitHelpSearch_
004679b0       GetDefTopic_
004679c0*      GetDescrip_
004679d0       FiniHelpSearch_
0047d464+      _curFile
00482748+      _curPage
00482b48+      _pageIndex
00482b4c+      _pageHeader
00482b50+      _stringBlock
Module: /mnt/sda5/.user/root/src/openwatcom-1.9/bld/ui/nt/nt386/ui.lib(/mnt/sda5/.user/root/src/openwatcom-1.9/bld/ui/c/uivattr.c)
00467a10       uivattribute_
00467a56*      uivattrflip_
Module: /mnt/sda5/.user/root/src/openwatcom-1.9/bld/ui/nt/nt386/ui.lib(/mnt/sda5/.user/root/src/openwatcom-1.9/bld/ui/c/uitab.c)
00467b3f       uitabfilter_
Module: /mnt/sda5/.user/root/src/openwatcom-1.9/bld/gui/ui/nt386/gui.lib(/mnt/sda5/.user/root/src/openwatcom-1.9/bld/help/c/dlg.c)
00467e80+      GetListBoxItem_
00467fa0       HelpDialogCallBack_
00468030       SearchDlgFini_
00468060       HelpSearch_
Module: /mnt/sda5/.user/root/src/openwatcom-1.9/bld/gui/ui/nt386/gui.lib(/mnt/sda5/.user/root/src/openwatcom-1.9/bld/help/c/helpscan.c)
00468350+      freeHyperlinkInfo_
00468370       ScanLine_
Module: /mnt/sda5/.user/root/src/openwatcom-1.9/rel2/lib386/nt/clib3r.lib(atoi.c)
00468500       atoi_
Module: /mnt/sda5/.user/root/src/openwatcom-1.9/bld/gui/ui/nt386/gui.lib(/mnt/sda5/.user/root/src/openwatcom-1.9/bld/help/c/vvscroll.c)
00468550       vvscroll_
Module: /mnt/sda5/.user/root/src/openwatcom-1.9/bld/gui/ui/nt386/gui.lib(/mnt/sda5/.user/root/src/openwatcom-1.9/bld/help/c/msgbox.c)
00468650       ShowMsgBox_
0047d52c+      _helpMsgBox
Module: /mnt/sda5/.user/root/src/openwatcom-1.9/bld/ui/nt/nt386/ui.lib(/mnt/sda5/.user/root/src/openwatcom-1.9/bld/ui/nt/c/uisnow.c)
004686ab*      vertretrace_
004686ac       issnow_
Module: /mnt/sda5/.user/root/src/openwatcom-1.9/bld/ui/nt/nt386/ui.lib(/mnt/sda5/.user/root/src/openwatcom-1.9/bld/ui/c/uifar.c)
004686bd       _farfill
004686d7       _farcopy
004686f4       _farstring
00468750       _farattrib
00468777       _farattrflip
Module: /mnt/sda5/.user/root/src/openwatcom-1.9/bld/ui/nt/nt386/ui.lib(/mnt/sda5/.user/root/src/openwatcom-1.9/bld/ui/c/uirfrsh.c)
00468839       uidorefresh_
Module: /mnt/sda5/.user/root/src/openwatcom-1.9/bld/ui/nt/nt386/ui.lib(/mnt/sda5/.user/root/src/openwatcom-1.9/bld/ui/c/uimem.c)
004688bf       faralloc_
004688c4       farfree_
Module: /mnt/sda5/.user/root/src/openwatcom-1.9/bld/ui/nt/nt386/ui.lib(/mnt/sda5/.user/root/src/openwatcom-1.9/bld/ui/c/uicheck.c)
004688fe       okarea_
0046892c       oksubarea_
0046893f       okline_
00468965       okopen_
Module: /mnt/sda5/.user/root/src/openwatcom-1.9/bld/gui/ui/nt386/gui.lib(/mnt/sda5/.user/root/src/openwatcom-1.9/bld/gui/ui/c/guienum.c)
00468970       GUIEnumChildWindows_
Module: /mnt/sda5/.user/root/src/openwatcom-1.9/bld/sdk/rc/wres/flat386/mf_r/wres.lib(resmenu.c)
004689a0*      ResWriteMenuHeader_
004689d0*      ResWriteMenuExHeader_
00468a34+      ResWriteMenuItemPopup_
00468a84*      ResWriteMenuExItemPopup_
00468b1c+      ResWriteMenuItemNormal_
00468b80*      ResWriteMenuExItemNormal_
00468c08*      ResWriteMenuItem_
00468c2c+      ResReadMenuHeader_
00468c6c*      ResReadMenuExtraBytes_
00468ca8*      ResIsMenuEx_
00468cd4*      ResIsHeaderMenuEx_
00468ce0*      ResReadMenuExItem_
00468dc0*      ResReadMenuItem_
00468e40*      ResReadMenuItem32_
00468ec0       ResNewMenuItem_
00468efc       ResFreeMenuItem_
Module: /mnt/sda5/.user/root/src/openwatcom-1.9/rel2/lib386/nt/clib3r.lib(cstrtwnt)
00468f34       _cstart_
00468f34*      mainCRTStartup
Module: /mnt/sda5/.user/root/src/openwatcom-1.9/rel2/lib386/nt/clib3r.lib(argcv.c)
00482b6c       __argc
00482b70       __argv
00482b74       ___argv
00482b78       ___argc
Module: /mnt/sda5/.user/root/src/openwatcom-1.9/bld/ui/nt/nt386/ui.lib(/mnt/sda5/.user/root/src/openwatcom-1.9/bld/ui/c/uibfake.c)
00468f90       bfake_
Module: /mnt/sda5/.user/root/src/openwatcom-1.9/rel2/lib386/nt/clib3r.lib(setbits.c)
00468fc0       __setbits_
Module: /mnt/sda5/.user/root/src/openwatcom-1.9/rel2/lib386/nt/clib3r.lib(bits.c)
00469000       __Bits
Module: /mnt/sda5/.user/root/src/openwatcom-1.9/rel2/lib386/nt/clib3r.lib(__lseek.c)
00469010       __lseek_
Module: /mnt/sda5/.user/root/src/openwatcom-1.9/bld/sdk/rc/wres/flat386/mf_r/wres.lib(wriidfn.c)
00469050       WResInitIDFromNum_
Module: /mnt/sda5/.user/root/src/openwatcom-1.9/bld/sdk/rc/wres/flat386/mf_r/wres.lib(wrfindrs.c)
00469060       __FindType_
00469084       __FindRes_
004690a8       __FindLang_
004690e4       WResFindResource_
Module: /mnt/sda5/.user/root/src/openwatcom-1.9/bld/sdk/rc/wres/flat386/mf_r/wres.lib(wrgetli.c)
00469170       WResGetLangInfo_
00469184*      WResGetFileInfo_
Module: /mnt/sda5/.user/root/src/openwatcom-1.9/bld/sdk/rc/wres/flat386/mf_r/wres.lib(ropenfro.c)
004691a0       ResOpenFileRO_
Module: /mnt/sda5/.user/root/src/openwatcom-1.9/bld/sdk/rc/wres/flat386/mf_r/wres.lib(wrinitdi.c)
004691f0       WResInitDir_
Module: /mnt/sda5/.user/root/src/openwatcom-1.9/bld/sdk/rc/wres/flat386/mf_r/wres.lib(wrreaddi.c)
00469968       WResReadDir_
00469974+      WResReadDir2_
Module: /mnt/sda5/.user/root/src/openwatcom-1.9/bld/sdk/rc/wres/flat386/mf_r/wres.lib(wrfreedi.c)
00469a30+      __FreeLangList_
00469a5c+      __FreeResList_
00469a94       __FreeTypeList_
00469acc       WResFreeDir_
Module: /mnt/sda5/.user/root/src/openwatcom-1.9/bld/sdk/rc/wres/flat386/mf_r/wres.lib(rclosef.c)
00469af0       ResCloseFile_
Module: /mnt/sda5/.user/root/src/openwatcom-1.9/rel2/lib386/nt/clib3r.lib(initfile.c)
00469b40       __InitFiles_
Module: /mnt/sda5/.user/root/src/openwatcom-1.9/rel2/lib386/nt/clib3r.lib(ioexit.c)
00469c40*      fcloseall_
00469c50       __full_io_exit_
Module: /mnt/sda5/.user/root/src/openwatcom-1.9/rel2/lib386/nt/clib3r.lib(mbinit.c)
00469c96       __mbinit_
0047d568       ___MBCodePage
Module: /mnt/sda5/.user/root/src/openwatcom-1.9/bld/ui/nt/nt386/ui.lib(/mnt/sda5/.user/root/src/openwatcom-1.9/bld/ui/c/uibpix.c)
00469d84       bpixel_
Module: /mnt/sda5/.user/root/src/openwatcom-1.9/bld/ui/nt/nt386/ui.lib(/mnt/sda5/.user/root/src/openwatcom-1.9/bld/ui/c/uivline.c)
00469ef9       uiveditevent_
0046a085*      uiveditline_
0046a0ab       uiveditinit_
0046a0f7       uiveditfini_
0047d56c       _LineEvents
Module: /mnt/sda5/.user/root/src/openwatcom-1.9/rel2/lib386/nt/clib3r.lib(alphabet.c)
00478038       ___Alphabet
Module: /mnt/sda5/.user/root/src/openwatcom-1.9/bld/ui/nt/nt386/ui.lib(/mnt/sda5/.user/root/src/openwatcom-1.9/bld/ui/c/uiband.c)
0046a126       uibandinit_
0046a17a       uibandmove_
0046a19d       uibandfini_
Module: /mnt/sda5/.user/root/src/openwatcom-1.9/rel2/lib386/nt/clib3r.lib(dosret.c)
0046a1c0*      _dosretax_
0046a1d0*      _dosret0_
0046a1e0       __set_errno_dos_
0046a210*      __set_errno_dos_reterr_
0046a220       __set_errno_nt_
0046a230*      __set_errno_nt_reterr_
Module: /mnt/sda5/.user/root/src/openwatcom-1.9/rel2/lib386/nt/clib3r.lib(mainwnt.c)
0047d69c*      ___TlsIndex
0047d6a0+      ___FirstThreadData
0047d6a4       ___GetThreadPtr
0047d6a8       __AccessFileH
0047d6ac       __ReleaseFileH
0047d6b0       __AccessIOB
0047d6b4       __ReleaseIOB
0047d6b8       __AccessNHeap
0047d6bc*      __AccessFHeap
0047d6c0       __ReleaseNHeap
0046a260*      __threadid_
0046a280+      __sig_null_rtn_
0046a290+      __NTInit_
0046a470+      __NTFini_
0046a4d0       __NTMainInit_
0046a530       __exit_
0047d6c4*      __ReleaseFHeap
0047d6c8*      __AccessTDList
0047d6cc*      __ReleaseTDList
0047d6d0       __AccessFList
0047d6d4       __ReleaseFList
0047d6d8+      __ThreadExitRtn
0047d6dc       ___sig_init_rtn
0047d6e0       ___sig_fini_rtn
0047d6e4       ___process_fini
00482bb0       ___Is_DLL
Module: /mnt/sda5/.user/root/src/openwatcom-1.9/rel2/lib386/nt/clib3r.lib(seterrno.c)
0046a580       __set_errno_
0046a58e*      __set_EDOM_
0046a59c       __set_ERANGE_
0046a5aa*      __set_EINVAL_
0046a5bd       __set_doserrno_
Module: /mnt/sda5/.user/root/src/openwatcom-1.9/rel2/lib386/nt/clib3r.lib(mbsnextc.c)
0046a5d0       _mbsnextc_
Module: /mnt/sda5/.user/root/src/openwatcom-1.9/rel2/lib386/nt/clib3r.lib(mbsinc.c)
0046a610       _mbsinc_
Module: /mnt/sda5/.user/root/src/openwatcom-1.9/rel2/lib386/nt/clib3r.lib(ntdirinf.c)
0046a640       __MakeDOSDT_
0046a670*      __FromDOSDT_
0046a6a0       __GetNTDirInfo_
0046a6e0       __NTFindNextFileWithAttr_
Module: /mnt/sda5/.user/root/src/openwatcom-1.9/rel2/lib386/nt/clib3r.lib(strdup.c)
0046a740       __clib_strdup_
Module: /mnt/sda5/.user/root/src/openwatcom-1.9/rel2/lib386/nt/clib3r.lib(crwdata)
0047d72c       __osmajor
0047d72d       __osminor
0047d72e       __osbuild
0047d730       __osver
0047d734       __winmajor
0047d738       __winminor
0047d73c       __winver
0047d6f8       __LpDllName
0047d6fc       __LpwCmdLine
0047d700       __LpwPgmName
0047d704       __LpwDllName
0047d6f0       __LpCmdLine
0047d6f4       __LpPgmName
0047d6e8*      __dynend
0047d6ec       __curbrk
0047d708*      __STACKLOW
0047d70c       __STACKTOP
0047d710       __ASTACKSIZ
0047d714       __ASTACKPTR
0047d718*      __cbyte
0047d71c*      __cbyte2
0047d720*      __child
0047d726       __Envptr
0047d72a*      __Envseg
0047d724       __no87
0047d740       ___FPE_handler
Module: /mnt/sda5/.user/root/src/openwatcom-1.9/rel2/lib386/nt/clib3r.lib(mbspbrk.c)
0046a790       _mbspbrk_
Module: /mnt/sda5/.user/root/src/openwatcom-1.9/rel2/lib386/nt/clib3r.lib(fullpath.c)
0046a7f0+      _sys_fullpath_
0046a870       _fullpath_
Module: /mnt/sda5/.user/root/src/openwatcom-1.9/rel2/lib386/nt/clib3r.lib(d2ttime.c)
0046a8e0       _d2ttime_
Module: /mnt/sda5/.user/root/src/openwatcom-1.9/rel2/lib386/nt/clib3r.lib(mbsnccnt.c)
0046a960       _mbsnccnt_
Module: /mnt/sda5/.user/root/src/openwatcom-1.9/rel2/lib386/nt/clib3r.lib(mbsncpy.c)
0046a990       _mbsncpy_
Module: /mnt/sda5/.user/root/src/openwatcom-1.9/rel2/lib386/nt/clib3r.lib(mbsnbcnt.c)
0046a9b0       _mbsnbcnt_
Module: /mnt/sda5/.user/root/src/openwatcom-1.9/bld/ui/nt/nt386/ui.lib(/mnt/sda5/.user/root/src/openwatcom-1.9/bld/ui/c/uibattr.c)
0046aa11       battribute_
0046aa61       battrflip_
Module: /mnt/sda5/.user/root/src/openwatcom-1.9/rel2/lib386/nt/clib3r.lib(fmemmove.c)
0046aab0       _fmemmove_
Module: /mnt/sda5/.user/root/src/openwatcom-1.9/bld/ui/nt/nt386/ui.lib(/mnt/sda5/.user/root/src/openwatcom-1.9/bld/ui/c/uibarf.c)
0046ab40       uibarf_
Module: /mnt/sda5/.user/root/src/openwatcom-1.9/bld/sdk/rc/wres/flat386/mf_r/wres.lib(wrerror.c)
0046ab50       WresRecordError_
Module: /mnt/sda5/.user/root/src/openwatcom-1.9/bld/sdk/rc/wres/flat386/mf_r/wres.lib(write.c)
0046ab8c       ResWriteUint8_
0046abbc       ResWriteUint16_
0046abec       ResWriteUint32_
0046ac1c+      WResWriteWResIDNameUni_
0046ad04*      WResWriteWResIDName_
0046ad10*      WResWriteWResID_
0046ad58*      WResWriteTypeRecord_
0046ad9c*      WResWriteResRecord_
0046ade0*      WResWriteLangRecord_
0046ae10*      WResWriteHeaderRecord_
0046ae80*      WResWriteExtHeader_
0046aeb0+      ResWriteStringLen_
0046af34       ResWriteString_
0046af60+      ResWriteNameOrOrdinal_
0046b054*      MResWriteResourceHeader_
0046b188*      WriteInitStatics_
0047d744+      _ConvToUnicode
Module: /mnt/sda5/.user/root/src/openwatcom-1.9/bld/sdk/rc/wres/flat386/mf_r/wres.lib(resseek.c)
0046b1a0*      ResSeek_
0046b1c0       ResPadDWord_
Module: /mnt/sda5/.user/root/src/openwatcom-1.9/bld/sdk/rc/wres/flat386/mf_r/wres.lib(rduint32.c)
0046b220       ResReadUint32_
Module: /mnt/sda5/.user/root/src/openwatcom-1.9/bld/sdk/rc/wres/flat386/mf_r/wres.lib(rduint16.c)
0046b270       ResReadUint16_
Module: /mnt/sda5/.user/root/src/openwatcom-1.9/bld/sdk/rc/wres/flat386/mf_r/wres.lib(rrdstr.c)
0046b2c0       ResReadString_
0046b330       ResRead32String_
Module: /mnt/sda5/.user/root/src/openwatcom-1.9/rel2/lib386/nt/clib3r.lib(main2wnt.c)
0046b3b0       __NTMain
Module: /mnt/sda5/.user/root/src/openwatcom-1.9/rel2/lib386/nt/clib3r.lib(segdefns)
00401003       ___begtext
00478000*      __nullarea
0047db3e       __Start_XI
0047db7a       __End_XI
0047db7a       __Start_YI
0047db9e       __End_YI
Module: /mnt/sda5/.user/root/src/openwatcom-1.9/rel2/lib386/nt/clib3r.lib(initargv.c)
0046b410       __Init_Argv_
0046b460+      _getargv_
0046b600       __Fini_Argv_
Module: /mnt/sda5/.user/root/src/openwatcom-1.9/rel2/lib386/nt/clib3r.lib(iomode.c)
0046b610       __GetIOMode_
0046b630       __SetIOMode_nogrow_
0047d748       ___NFiles
0047d74c       ___init_mode
0047d79c       ___io_mode
Module: /mnt/sda5/.user/root/src/openwatcom-1.9/rel2/lib386/nt/clib3r.lib(hdlman.c)
0047d7a0+      ___NHandles
0047d7a4+      ___OSHandles
0047d7a8+      ___FakeHandles
0046b650+      __growPOSIXHandles_
0046b6f0       __allocPOSIXHandle_
0046b7b0       __freePOSIXHandle_
0046b7d0       __getOSHandle_
0046b7e0       __setOSHandle_
0046b830+      __NTGetFakeHandle_
0046b8a0       __initPOSIXHandles_
0046b980*      __set_handles_
0046b990*      _grow_handles_
Module: /mnt/sda5/.user/root/src/openwatcom-1.9/bld/sdk/rc/wres/flat386/mf_r/wres.lib(wridcmp.c)
0046b9d0       WResIDCmp_
Module: /mnt/sda5/.user/root/src/openwatcom-1.9/rel2/lib386/nt/clib3r.lib(setmd.c)
0046ba10       setmode_
Module: /mnt/sda5/.user/root/src/openwatcom-1.9/bld/sdk/rc/wres/flat386/mf_r/wres.lib(ralliae.c)
0046bb00       ResAddLLItemAtEnd_
Module: /mnt/sda5/.user/root/src/openwatcom-1.9/bld/sdk/rc/wres/flat386/mf_r/wres.lib(wrrfrr.c)
0046bb30       WResReadFixedResRecord_
0046bb70       WResReadFixedResRecord1_
0046bbb0       WResReadFixedResRecord2_
Module: /mnt/sda5/.user/root/src/openwatcom-1.9/bld/sdk/rc/wres/flat386/mf_r/wres.lib(wridexby.c)
0046bc30       WResIDExtraBytes_
Module: /mnt/sda5/.user/root/src/openwatcom-1.9/bld/sdk/rc/wres/flat386/mf_r/wres.lib(wrrewrid.c)
0046bc40       WResReadExtraWResID_
Module: /mnt/sda5/.user/root/src/openwatcom-1.9/bld/sdk/rc/wres/flat386/mf_r/wres.lib(wrrftr.c)
0046bca0       WResReadFixedTypeRecord_
0046bce8       WResReadFixedTypeRecord2_
Module: /mnt/sda5/.user/root/src/openwatcom-1.9/bld/sdk/rc/wres/flat386/mf_r/wres.lib(wrrhr.c)
0046bd60       WResReadHeaderRecord_
0046bdd8       WResReadExtHeader_
Module: /mnt/sda5/.user/root/src/openwatcom-1.9/bld/sdk/rc/wres/flat386/mf_r/wres.lib(mrrdrh.c)
0046be20       M32ResReadResourceHeader_
0046bf8c       MResReadResourceHeader_
Module: /mnt/sda5/.user/root/src/openwatcom-1.9/bld/sdk/rc/wres/flat386/mf_r/wres.lib(wrfree.c)
0046c030       MResFreeResourceHeader_
Module: /mnt/sda5/.user/root/src/openwatcom-1.9/bld/sdk/rc/wres/flat386/mf_r/wres.lib(wridfnoo.c)
0046c070       WResIDFromNameOrOrd_
Module: /mnt/sda5/.user/root/src/openwatcom-1.9/bld/sdk/rc/wres/flat386/mf_r/wres.lib(wraddres.c)
0046c1e0*      WResAddResource_
0046c23c       WResAddResource2_
Module: /mnt/sda5/.user/root/src/openwatcom-1.9/bld/sdk/rc/wres/flat386/mf_r/wres.lib(wriswrf.c)
0046c360       WResFindResType_
0046c3f8*      WResIsWResFile_
Module: /mnt/sda5/.user/root/src/openwatcom-1.9/rel2/lib386/nt/clib3r.lib(nmalloc.c)
0046c410       _nmalloc_
0046c410       malloc_
0047d7b4       ___nheapbeg
0047d7b8       ___MiniHeapRover
0047d7bc       ___LargestSizeB4MiniHeapRover
Module: /mnt/sda5/.user/root/src/openwatcom-1.9/rel2/lib386/nt/clib3r.lib(xmsgwnt.c)
0046c510+      __exit_with_msg_
0046c570       __fatal_runtime_error_
Module: /mnt/sda5/.user/root/src/openwatcom-1.9/rel2/lib386/nt/clib3r.lib(fclose.c)
0046c590       __doclose_
0046c630       __shutdown_stream_
0046c650       fclose_
004833d0+      ___RmTmpFileFn
Module: /mnt/sda5/.user/root/src/openwatcom-1.9/rel2/lib386/nt/clib3r.lib(freefp.c)
0046c6a0       __freefp_
0046c6f0       __purgefp_
Module: /mnt/sda5/.user/root/src/openwatcom-1.9/bld/ui/nt/nt386/ui.lib(/mnt/sda5/.user/root/src/openwatcom-1.9/bld/ui/c/uipad.c)
0046c71e       uipadblanks_
Module: /mnt/sda5/.user/root/src/openwatcom-1.9/bld/ui/nt/nt386/ui.lib(/mnt/sda5/.user/root/src/openwatcom-1.9/bld/ui/c/uivedit.c)
0046c78b+      secondbyte_
0046c7a6       uieditevent_
Module: /mnt/sda5/.user/root/src/openwatcom-1.9/rel2/lib386/nt/clib3r.lib(environ.c)
004833d4       ___env_mask
004833d8       _environ
004833dc       __wenviron
Module: /mnt/sda5/.user/root/src/openwatcom-1.9/rel2/lib386/nt/clib3r.lib(getmodfn.c)
0046cb70       __lib_GetModuleFileNameW_
Module: /mnt/sda5/.user/root/src/openwatcom-1.9/rel2/lib386/nt/clib3r.lib(ustrdup.c)
0046cc01       __clib_wcsdup_
Module: /mnt/sda5/.user/root/src/openwatcom-1.9/rel2/lib386/nt/clib3r.lib(excptwnt.c)
0046d290+      ___ReportException@4
0046d6e0       __DefaultExceptionHandler_
0046d720+      ___ExceptionFilter
0046d930       __NewExceptionFilter_
0046d960       __DoneExceptionFilter_
0047d7c0       ___oscode_check_func
0047d7c4       ___raise_func
004833e0*      _sw
004833e4+      ___ExceptionHandled
004833e5+      ___ReportInvoked
Module: /mnt/sda5/.user/root/src/openwatcom-1.9/rel2/lib386/nt/clib3r.lib(stklmwnt.c)
0046d9a0       __init_stack_limits_
Module: /mnt/sda5/.user/root/src/openwatcom-1.9/rel2/lib386/nt/clib3r.lib(initrtns.c)
0046da20       __InitRtns
0046da70       __FiniRtns
Module: /mnt/sda5/.user/root/src/openwatcom-1.9/rel2/lib386/nt/clib3r.lib(mbterm.c)
0046dad0       _mbterm_
Module: /mnt/sda5/.user/root/src/openwatcom-1.9/rel2/lib386/nt/clib3r.lib(mbschr.c)
0046db10       _mbschr_
Module: /mnt/sda5/.user/root/src/openwatcom-1.9/rel2/lib386/nt/clib3r.lib(mktime.c)
0046db70       mktime_
Module: /mnt/sda5/.user/root/src/openwatcom-1.9/rel2/lib386/nt/clib3r.lib(mbclen.c)
0046dc00       _mbclen_
Module: /mnt/sda5/.user/root/src/openwatcom-1.9/rel2/lib386/nt/clib3r.lib(mbsnbcpy.c)
0046dc30       _mbsnbcpy_
Module: /mnt/sda5/.user/root/src/openwatcom-1.9/bld/sdk/rc/wres/flat386/mf_r/wres.lib(varstr.c)
0046dc90       VarStringStart_
0046dcc4       VarStringAddChar_
0046dd1c       VarStringEnd_
Module: /mnt/sda5/.user/root/src/openwatcom-1.9/bld/sdk/rc/wres/flat386/mf_r/wres.lib(rduint8.c)
0046ddb0       ResReadUint8_
Module: /mnt/sda5/.user/root/src/openwatcom-1.9/rel2/lib386/nt/clib3r.lib(mthrdini.c)
0046de00       __InitThreadData_
0047d7dc       ___ThreadDataSize
Module: /mnt/sda5/.user/root/src/openwatcom-1.9/rel2/lib386/nt/clib3r.lib(cmain386.c)
0046de30       __CMain
Module: /mnt/sda5/.user/root/src/openwatcom-1.9/rel2/lib386/nt/clib3r.lib(dosseg)
00001234       __DOSseg__
Module: /mnt/sda5/.user/root/src/openwatcom-1.9/rel2/lib386/nt/clib3r.lib(histsplt.c)
004833e8       ___historical_splitparms
Module: /mnt/sda5/.user/root/src/openwatcom-1.9/rel2/lib386/nt/clib3r.lib(___argc.c)
004833ec       ____Argc
004833f0       ____Argv
Module: /mnt/sda5/.user/root/src/openwatcom-1.9/rel2/lib386/nt/clib3r.lib(stiomode.c)
0046de70       __grow_iomode_
0046df40+      __shrink_iomode_
0046df80       __SetIOMode_
Module: /mnt/sda5/.user/root/src/openwatcom-1.9/bld/sdk/rc/wres/flat386/mf_r/wres.lib(wridnacm.c)
0046e030       WResIDNameCmp_
Module: /mnt/sda5/.user/root/src/openwatcom-1.9/bld/sdk/rc/wres/flat386/mf_r/wres.lib(rrnamoor.c)
0046e080       ResReadNameOrOrdinal_
0046e168       ResRead32NameOrOrdinal_
Module: /mnt/sda5/.user/root/src/openwatcom-1.9/bld/sdk/rc/wres/flat386/mf_r/wres.lib(wridfrst.c)
0046e250       WResIDFromStr_
Module: /mnt/sda5/.user/root/src/openwatcom-1.9/bld/sdk/rc/wres/flat386/mf_r/wres.lib(wridfrnu.c)
0046e2c0       WResIDFromNum_
Module: /mnt/sda5/.user/root/src/openwatcom-1.9/bld/sdk/rc/wres/flat386/mf_r/wres.lib(wrfirres.c)
0046e320*      WResFirstResource_
0046e34c       WResSetEmptyWindow_
0046e368       WResMakeWindow_
Module: /mnt/sda5/.user/root/src/openwatcom-1.9/rel2/lib386/nt/clib3r.lib(mem.c)
0046e380       __MemAllocator
0046e430       __MemFree
Module: /mnt/sda5/.user/root/src/openwatcom-1.9/rel2/lib386/nt/clib3r.lib(grownear.c)
0046e6d0       __ExpandDGROUP_
Module: /mnt/sda5/.user/root/src/openwatcom-1.9/rel2/lib386/nt/clib3r.lib(enterdb.c)
0046e6f0       __EnterWVIDEO_
0047d7e0+      ___WD_Present
Module: /mnt/sda5/.user/root/src/openwatcom-1.9/rel2/lib386/nt/clib3r.lib(_clsewnt.c)
0046e720       __close_
Module: /mnt/sda5/.user/root/src/openwatcom-1.9/rel2/lib386/nt/clib3r.lib(flush.c)
0046e780       __flush_
Module: /mnt/sda5/.user/root/src/openwatcom-1.9/rel2/lib386/nt/clib3r.lib(setenvp.c)
0046e880       __setenvp_
0046e940       __freeenvp_
Module: /mnt/sda5/.user/root/src/openwatcom-1.9/rel2/lib386/nt/clib3r.lib(ustrlen.c)
0046e98d       wcslen_
Module: /mnt/sda5/.user/root/src/openwatcom-1.9/rel2/lib386/nt/clib3r.lib(memcpy.c)
0046e9a0       memcpy_
Module: /mnt/sda5/.user/root/src/openwatcom-1.9/rel2/lib386/nt/clib3r.lib(conutwnt.c)
0046e9d0*      __NTRealKey_
0046ea80*      __NTConsoleInput_
0046ea90       __NTConsoleOutput_
Module: /mnt/sda5/.user/root/src/openwatcom-1.9/rel2/lib386/nt/clib3r.lib(fclex387.c)
0046eaa0       _ClearFPE_
Module: /mnt/sda5/.user/root/src/openwatcom-1.9/rel2/lib386/nt/clib3r.lib(signlwnt.c)
0047d7ec+      __SignalTable
0046eab0+      __SetSignalFunc_
0046eb00+      __GetSignalFunc_
0046eb30+      __GetSignalOSCode_
0046eb60+      __CheckSignalExCode_
0046eca0+      __sigabort_
0046ecb0       __sigfpe_handler_
0046ed00*      signal_
0046ed90+      raise_
0046ee00+      __SigInit_
0046ee50+      __SigFini_
0046ee90+      __sig_init_
Module: /mnt/sda5/.user/root/src/openwatcom-1.9/rel2/lib386/nt/clib3r.lib(mbconv.c)
0046eeb0       _mbvtop_
Module: /mnt/sda5/.user/root/src/openwatcom-1.9/rel2/lib386/nt/clib3r.lib(mbccmp.c)
0046eed0       _mbccmp_
Module: /mnt/sda5/.user/root/src/openwatcom-1.9/rel2/lib386/nt/clib3r.lib(locmktim.c)
0046ef10       __local_mktime_
Module: /mnt/sda5/.user/root/src/openwatcom-1.9/rel2/lib386/nt/clib3r.lib(gmtime.c)
0046f090       __brktime_
0046f190+      _gmtime_
0046f1b0*      gmtime_
Module: /mnt/sda5/.user/root/src/openwatcom-1.9/rel2/lib386/nt/clib3r.lib(tzset.c)
0047d858       ___start_dst
0047d87c       ___end_dst
0047d9a4*      _tzname
0047d9ac       _timezone
0047d9b0       _daylight
0047d9b4       ___dst_adjust
0046f220*      __DontCacheOSTZ_
0046f230*      __CacheOSTZ_
0046f710+      __parse_tz_
0046fb00       tzset_
Module: /mnt/sda5/.user/root/src/openwatcom-1.9/rel2/lib386/nt/clib3r.lib(timeutil.c)
0046fc70       __isindst_
Module: /mnt/sda5/.user/root/src/openwatcom-1.9/rel2/lib386/nt/clib3r.lib(cinit.c)
0046ffa0       __CommonInit_
Module: /mnt/sda5/.user/root/src/openwatcom-1.9/rel2/lib386/nt/clib3r.lib(exit.c)
0046ffa1+      __null_int23_exit_
0046ffa2       exit_
0046fff2*      _exit_
0047d9bc+      ___int23_exit
0047d9c0+      ___FPE_handler_exit
Module: /mnt/sda5/.user/root/src/openwatcom-1.9/rel2/lib386/nt/clib3r.lib(iomodtty.c)
00470010       __ChkTTYIOMode_
00470050*      __IOMode_
Module: /mnt/sda5/.user/root/src/openwatcom-1.9/rel2/lib386/nt/clib3r.lib(amblksiz.c)
0047d9c4       __amblksiz
Module: /mnt/sda5/.user/root/src/openwatcom-1.9/rel2/lib386/nt/clib3r.lib(heapen.c)
00470070*      _heapenable_
0047d9c8       ___heap_enabled
Module: /mnt/sda5/.user/root/src/openwatcom-1.9/rel2/lib386/nt/clib3r.lib(nfree.c)
004700a0       _nfree_
004700a0       free_
004833fc       ___MiniHeapFreeRover
Module: /mnt/sda5/.user/root/src/openwatcom-1.9/rel2/lib386/nt/clib3r.lib(nheapmin.c)
004701b0       _nheapshrink_
004701b0*      _nheapmin_
004701b0*      _heapmin_
004701b0*      _heapshrink_
Module: /mnt/sda5/.user/root/src/openwatcom-1.9/rel2/lib386/nt/clib3r.lib(fsync.c)
004702a0       fsync_
Module: /mnt/sda5/.user/root/src/openwatcom-1.9/rel2/lib386/nt/clib3r.lib(qwrit.c)
004702f0       __qwrite_
Module: /mnt/sda5/.user/root/src/openwatcom-1.9/rel2/lib386/nt/clib3r.lib(dofilstr.c)
004703f0       __ParsePosixHandleStr_
Module: /mnt/sda5/.user/root/src/openwatcom-1.9/rel2/lib386/nt/clib3r.lib(clearenv.c)
00470510       clearenv_
Module: /mnt/sda5/.user/root/src/openwatcom-1.9/rel2/lib386/nt/clib3r.lib(abort.c)
004705b5*      abort_
004705c7       __terminate_
0047d9cc       ___abort
Module: /mnt/sda5/.user/root/src/openwatcom-1.9/rel2/lib386/nt/clib3r.lib(leapyear.c)
004705e0       __leapyear_
00478060       ___diyr
0047807a       ___dilyr
Module: /mnt/sda5/.user/root/src/openwatcom-1.9/rel2/lib386/nt/clib3r.lib(wcstombs.c)
00470620       wcstombs_
Module: /mnt/sda5/.user/root/src/openwatcom-1.9/rel2/lib386/nt/clib3r.lib(isattwnt.c)
004706c0       isatty_
Module: /mnt/sda5/.user/root/src/openwatcom-1.9/rel2/lib386/nt/clib3r.lib(strtol.c)
00470900       strtoul_
00470910       strtol_
Module: /mnt/sda5/.user/root/src/openwatcom-1.9/rel2/lib386/nt/clib3r.lib(putenv.c)
00470920       putenv_
00470bb0       __putenv_
Module: /mnt/sda5/.user/root/src/openwatcom-1.9/rel2/lib386/nt/clib3r.lib(wctomb.c)
00470d20       wctomb_
Module: /mnt/sda5/.user/root/src/openwatcom-1.9/rel2/lib386/nt/clib3r.lib(mbslen.c)
00470d60       _mbslen_
Module: /mnt/sda5/.user/root/src/openwatcom-1.9/rel2/lib386/nt/clib3r.lib(mbstowcs.c)
00470d90       mbstowcs_
Module: /mnt/sda5/.user/root/src/openwatcom-1.9/rel2/lib386/nt/clib3r.lib(uputenv.c)
00470e10*      _wputenv_
00471030       __wputenv_
Module: /mnt/sda5/.user/root/src/openwatcom-1.9/rel2/lib386/nt/clib3r.lib(mbtowc.c)
00471130       mbtowc_
Module: /mnt/sda5/.user/root/src/openwatcom-1.9/rel2/lib386/nt/clib3r.lib(ustrchr.c)
004711c0       wcschr_
Module: /mnt/sda5/.user/root/src/openwatcom-1.9/rel2/lib386/nt/clib3r.lib(setenvar.c)
004711e0       __lib_SetEnvironmentVariableW_
Module: /mnt/sda5/.user/root/src/openwatcom-1.9/rel2/lib386/nt/clib3r.lib(crtwenv.c)
004712d0       __create_wide_environment_
Module: /mnt/sda5/.user/root/src/openwatcom-1.9/rel2/lib386/nt/clib3r.lib(utoupper.c)
00471338       towupper_
Module: /mnt/sda5/.user/root/src/openwatcom-1.9/rel2/lib386/nt/clib3r.lib(getenv.c)
00471350       getenv_
Module: /mnt/sda5/.user/root/src/openwatcom-1.9/rel2/lib386/nt/clib3r.lib(setenv.c)
004713e0       setenv_
00471690       _setenv_
Module: /mnt/sda5/.user/root/src/openwatcom-1.9/rel2/lib386/nt/clib3r.lib(strstr.c)
004718a0       strstr_
Module: /mnt/sda5/.user/root/src/openwatcom-1.9/rel2/lib386/nt/clib3r.lib(cmdname.c)
00471950       _cmdname_
Module: /mnt/sda5/.user/root/src/openwatcom-1.9/rel2/lib386/nt/clib3r.lib(_8087)
0047da5c       __8087
0047da5d       __real87
Module: /mnt/sda5/.user/root/src/openwatcom-1.9/rel2/lib386/nt/clib3r.lib(gtcmd.c)
004719c0       _bgetcmd_
00471a30       getcmd_
Module: /mnt/sda5/.user/root/src/openwatcom-1.9/rel2/lib386/nt/clib3r.lib(stricmp.c)
00471a50       stricmp_
Module: /mnt/sda5/.user/root/src/openwatcom-1.9/rel2/lib386/nt/clib3r.lib(strerror.c)
00471db0       strerror_
00471dd0*      _strerror_
00471ea0*      _doserror_
0047da60+      __sys_errlist
0047db04+      __sys_nerr
Module: /mnt/sda5/.user/root/src/openwatcom-1.9/rel2/lib386/nt/clib3r.lib(openwnt.c)
004720d0       open_
004720f0       sopen_
Module: /mnt/sda5/.user/root/src/openwatcom-1.9/rel2/lib386/nt/clib3r.lib(errno.c)
00472120       __get_errno_ptr_
00472130*      __get_doserrno_ptr_
Module: /mnt/sda5/.user/root/src/openwatcom-1.9/rel2/lib386/nt/clib3r.lib(read.c)
00472140       read_
Module: /mnt/sda5/.user/root/src/openwatcom-1.9/rel2/lib386/nt/clib3r.lib(write.c)
00472520       write_
Module: /mnt/sda5/.user/root/src/openwatcom-1.9/rel2/lib386/nt/clib3r.lib(lseek.c)
00472780       lseek_
Module: /mnt/sda5/.user/root/src/openwatcom-1.9/rel2/lib386/nt/clib3r.lib(close.c)
004727d0       close_
Module: /mnt/sda5/.user/root/src/openwatcom-1.9/rel2/lib386/nt/clib3r.lib(remove.c)
004727f0       remove_
Module: /mnt/sda5/.user/root/src/openwatcom-1.9/rel2/lib386/nt/clib3r.lib(memset.c)
00472800       memset_
Module: /mnt/sda5/.user/root/src/openwatcom-1.9/rel2/lib386/nt/clib3r.lib(memmove.c)
00472820       memmove_
Module: /mnt/sda5/.user/root/src/openwatcom-1.9/rel2/lib386/nt/clib3r.lib(istable.c)
00472880       __IsTable
Module: /mnt/sda5/.user/root/src/openwatcom-1.9/rel2/lib386/nt/clib3r.lib(sprintf.c)
00472990       sprintf_
Module: /mnt/sda5/.user/root/src/openwatcom-1.9/rel2/lib386/nt/clib3r.lib(fopen.c)
004729c0+      __open_flags_
00472bd0+      _fsopen_
00472c20       fopen_
00472cb0*      freopen_
Module: /mnt/sda5/.user/root/src/openwatcom-1.9/rel2/lib386/nt/clib3r.lib(fwrite.c)
00472d20       fwrite_
Module: /mnt/sda5/.user/root/src/openwatcom-1.9/rel2/lib386/nt/clib3r.lib(setjmp)
00472f2c       _setjmp_
00472f65       longjmp_
Module: /mnt/sda5/.user/root/src/openwatcom-1.9/rel2/lib386/nt/clib3r.lib(_strcmp)
00472ff0       strcmp_
Module: /mnt/sda5/.user/root/src/openwatcom-1.9/rel2/lib386/nt/clib3r.lib(tolower.c)
00473130       tolower_
Module: /mnt/sda5/.user/root/src/openwatcom-1.9/rel2/lib386/nt/clib3r.lib(puts.c)
00473140       puts_
Module: /mnt/sda5/.user/root/src/openwatcom-1.9/rel2/lib386/nt/clib3r.lib(fltused.c)
0047db08       _fltused_
Module: /mnt/sda5/.user/root/src/openwatcom-1.9/rel2/lib386/nt/clib3r.lib(strlwr.c)
00473170       strlwr_
Module: /mnt/sda5/.user/root/src/openwatcom-1.9/rel2/lib386/nt/clib3r.lib(toupper.c)
00473190       toupper_
Module: /mnt/sda5/.user/root/src/openwatcom-1.9/rel2/lib386/nt/clib3r.lib(memicmp.c)
004731a0       memicmp_
Module: /mnt/sda5/.user/root/src/openwatcom-1.9/rel2/lib386/nt/clib3r.lib(strnicmp.c)
004731e0       strnicmp_
Module: /mnt/sda5/.user/root/src/openwatcom-1.9/rel2/lib386/nt/clib3r.lib(memcmp.c)
00473230       memcmp_
Module: /mnt/sda5/.user/root/src/openwatcom-1.9/rel2/lib386/nt/clib3r.lib(nrealloc.c)
00473250*      _nrealloc_
00473250       realloc_
Module: /mnt/sda5/.user/root/src/openwatcom-1.9/rel2/lib386/nt/clib3r.lib(nheapwal.c)
004732d0*      _nheapwalk_
004732d0       _heapwalk_
00473300+      __NHeapWalk_
Module: /mnt/sda5/.user/root/src/openwatcom-1.9/rel2/lib386/nt/clib3r.lib(qsort.c)
00473400       qsort_
Module: /mnt/sda5/.user/root/src/openwatcom-1.9/rel2/lib386/nt/clib3r.lib(strupr.c)
00473ab0       strupr_
Module: /mnt/sda5/.user/root/src/openwatcom-1.9/rel2/lib386/nt/clib3r.lib(hugeval.c)
00473ad0       __HugeValue
Module: /mnt/sda5/.user/root/src/openwatcom-1.9/rel2/lib386/nt/clib3r.lib(strncpy.c)
00473ae0       strncpy_
Module: /mnt/sda5/.user/root/src/openwatcom-1.9/rel2/lib386/nt/clib3r.lib(split2.c)
00473b70       _splitpath2_
Module: /mnt/sda5/.user/root/src/openwatcom-1.9/rel2/lib386/nt/clib3r.lib(makepath.c)
00473ce0       _makepath_
Module: /mnt/sda5/.user/root/src/openwatcom-1.9/rel2/lib386/nt/clib3r.lib(bsearch.c)
00473e90       bsearch_
Module: /mnt/sda5/.user/root/src/openwatcom-1.9/rel2/lib386/nt/clib3r.lib(calloc.c)
00473f10       calloc_
Module: /mnt/sda5/.user/root/src/openwatcom-1.9/rel2/lib386/nt/clib3r.lib(stackwnt.c)
00473f30       stackavail_
Module: /mnt/sda5/.user/root/src/openwatcom-1.9/rel2/lib386/nt/clib3r.lib(stk)
00473f41*      __CHK
00473f51*      __STK
00473f70       __STKOVERFLOW_
00473f80       __GRO
00473fa0*      __alloca_probe
Module: /mnt/sda5/.user/root/src/openwatcom-1.9/rel2/lib386/nt/clib3r.lib(mbcupper.c)
00473fc0       _mbctoupper_
Module: /mnt/sda5/.user/root/src/openwatcom-1.9/rel2/lib386/nt/clib3r.lib(usetenv.c)
00473ff0*      _wsetenv_
00474240       __wsetenv_
Module: /mnt/sda5/.user/root/src/openwatcom-1.9/rel2/lib386/nt/clib3r.lib(chk8087.c)
004743e0*      _fpreset_
00474420       __chk8087_
00474430*      __init_8087_
Module: /mnt/sda5/.user/root/src/openwatcom-1.9/rel2/lib386/nt/clib3r.lib(ntfio.c)
00474450*      __GetNTCreateAttr_
00474490       __GetNTAccessAttr_
004744c0       __GetNTShareAttr_
Module: /mnt/sda5/.user/root/src/openwatcom-1.9/rel2/lib386/nt/clib3r.lib(umaskval.c)
0047db1c       ___umaskval
Module: /mnt/sda5/.user/root/src/openwatcom-1.9/rel2/lib386/nt/clib3r.lib(unlnkwnt.c)
00474520       unlink_
Module: /mnt/sda5/.user/root/src/openwatcom-1.9/rel2/lib386/nt/clib3r.lib(__stos)
00474540       __STOSB
00474577*      __STOSD
Module: /mnt/sda5/.user/root/src/openwatcom-1.9/rel2/lib386/nt/clib3r.lib(vsprintf.c)
00474610       vsprintf_
Module: /mnt/sda5/.user/root/src/openwatcom-1.9/rel2/lib386/nt/clib3r.lib(comtflag.c)
00474630*      __set_commode_
0047db20       __commode
Module: /mnt/sda5/.user/root/src/openwatcom-1.9/rel2/lib386/nt/clib3r.lib(fseek.c)
00474690       fseek_
Module: /mnt/sda5/.user/root/src/openwatcom-1.9/rel2/lib386/nt/clib3r.lib(chktty.c)
004747a0       __chktty_
Module: /mnt/sda5/.user/root/src/openwatcom-1.9/rel2/lib386/nt/clib3r.lib(allocfp.c)
004747e0       __allocfp_
Module: /mnt/sda5/.user/root/src/openwatcom-1.9/rel2/lib386/nt/clib3r.lib(ioalloc.c)
004748b0       __ioalloc_
Module: /mnt/sda5/.user/root/src/openwatcom-1.9/rel2/lib386/nt/clib3r.lib(fputc.c)
00474950       fputc_
Module: /mnt/sda5/.user/root/src/openwatcom-1.9/rel2/lib386/nt/clib3r.lib(ljmphdl.c)
0047db24       ___longjmp_handler
Module: /mnt/sda5/.user/root/src/openwatcom-1.9/rel2/lib386/nt/clib3r.lib(fputs.c)
00474a40       fputs_
Module: /mnt/sda5/.user/root/src/openwatcom-1.9/rel2/lib386/nt/clib3r.lib(setefg.c)
00474ae0       __setEFGfmt_
Module: /mnt/sda5/.user/root/src/openwatcom-1.9/rel2/lib386/nt/clib3r.lib(nmsize.c)
00474b00       _nmsize_
00474b00*      _msize_
Module: /mnt/sda5/.user/root/src/openwatcom-1.9/rel2/lib386/nt/clib3r.lib(nexpand.c)
00474b10       _nexpand_
00474b10*      _expand_
00474b50+      __HeapManager_expand_
Module: /mnt/sda5/.user/root/src/openwatcom-1.9/rel2/lib386/nt/clib3r.lib(mbsdec.c)
00474d10       _mbsdec_
Module: /mnt/sda5/.user/root/src/openwatcom-1.9/rel2/lib386/nt/clib3r.lib(ugetenv.c)
00474d90       _wgetenv_
Module: /mnt/sda5/.user/root/src/openwatcom-1.9/rel2/lib386/nt/clib3r.lib(ustrcpy.c)
00474e06       wcscpy_
Module: /mnt/sda5/.user/root/src/openwatcom-1.9/rel2/lib386/nt/clib3r.lib(8087cw.c)
0047db28       __8087cw
Module: /mnt/sda5/.user/root/src/openwatcom-1.9/rel2/lib386/nt/clib3r.lib(save8087.c)
0047db2c       ___Save8087
0047db30       ___Rest8087
Module: /mnt/sda5/.user/root/src/openwatcom-1.9/rel2/lib386/nt/clib3r.lib(init8087)
00474e24       __x87id
Module: /mnt/sda5/.user/root/src/openwatcom-1.9/rel2/lib386/nt/clib3r.lib(prtf.c)
00474e60       __prtf_
Module: /mnt/sda5/.user/root/src/openwatcom-1.9/rel2/lib386/nt/clib3r.lib(noefgfmt.c)
0047db34       ___EFG_printf
0047db38       ___EFG_scanf
Module: /mnt/sda5/.user/root/src/openwatcom-1.9/rel2/lib386/math387r.lib(efgfmt.c)
00475b72       _EFG_Format_
Module: /mnt/sda5/.user/root/src/openwatcom-1.9/rel2/lib386/math387r.lib(cnvs2d.c)
00475cdc       __cnvs2d_
Module: /mnt/sda5/.user/root/src/openwatcom-1.9/rel2/lib386/nt/clib3r.lib(ustrnicm.c)
00475cea       _wcsnicmp_
Module: /mnt/sda5/.user/root/src/openwatcom-1.9/rel2/lib386/nt/clib3r.lib(lltoa.c)
00475d50       ulltoa_
00475dc0*      lltoa_
Module: /mnt/sda5/.user/root/src/openwatcom-1.9/rel2/lib386/nt/clib3r.lib(ltoa.c)
00475df0       ultoa_
00475e40*      ltoa_
Module: /mnt/sda5/.user/root/src/openwatcom-1.9/rel2/lib386/nt/clib3r.lib(rtcntrl.c)
00475e70*      _SetLD64bit_
00475e80*      _SetLD80bit_
00475e90       _LDisDouble_


                        +---------------------+
                        |   Module Segments   |
                        +---------------------+

! = 32-bit segment
c = initialized communal data

Module          Segment               Class           Address         Size
======          =======               =====           =======         ====

/mnt/sda5/.user/root/src/openwatcom-1.9/bld/watcom/c/autoenv.c
                _TEXT                 CODE           00401010  !      00000322
                CONST                 DATA           00478004  !      00000000
                CONST2                DATA           00478094  !      00000000
                _DATA                 DATA           004780a0  !      00000000
/mnt/sda5/.user/root/src/openwatcom-1.9/bld/wv/win/c/ntinit.c
                _TEXT                 CODE           00401340  !      00000231
                CONST                 DATA           00478004  !      00000000
                CONST2                DATA           00478094  !      00000000
                _DATA                 DATA           004780a0  !      00000000
                _BSS                  BSS            0047e000  !      0000001d
/mnt/sda5/.user/root/src/openwatcom-1.9/bld/wv/win/c/ntscrn.c
                _TEXT                 CODE           00401580  !      000001ab
                CONST                 DATA           00478004  !      00000000
                CONST2                DATA           00478094  !      00000000
                _DATA                 DATA           004780a0  !      0000000c
                _BSS                  BSS            0047e020  !      00000104
/mnt/sda5/.user/root/src/openwatcom-1.9/bld/wv/win/c/ntfilio.c
                _TEXT                 CODE           00401730  !      00000104
                CONST                 DATA           00478004  !      00000000
                CONST2                DATA           00478094  !      00000000
                _DATA                 DATA           004780ac  !      00000007
/mnt/sda5/.user/root/src/openwatcom-1.9/bld/wv/win/c/ntfinfo.c
                _TEXT                 CODE           00401840  !      000000c8
                CONST                 DATA           00478004  !      00000000
                CONST2                DATA           00478094  !      00000000
                _DATA                 DATA           004780b4  !      00000000
/mnt/sda5/.user/root/src/openwatcom-1.9/bld/wv/win/c/ntcmd.c
                _TEXT                 CODE           00401910  !      00000031
                CONST                 DATA           00478004  !      00000000
                CONST2                DATA           00478094  !      00000000
                _DATA                 DATA           004780b4  !      00000008
/mnt/sda5/.user/root/src/openwatcom-1.9/bld/wv/win/c/winchk.c
                _TEXT                 CODE           00401950  !      00000011
                CONST                 DATA           00478004  !      00000000
                CONST2                DATA           00478094  !      00000000
                _DATA                 DATA           004780bc  !      00000000
/mnt/sda5/.user/root/src/openwatcom-1.9/bld/wv/win/c/winlkup.c
                _TEXT                 CODE           00401970  !      0000000c
                CONST                 DATA           00478004  !      00000000
                CONST2                DATA           00478094  !      00000000
                _DATA                 DATA           004780bc  !      00000000
/mnt/sda5/.user/root/src/openwatcom-1.9/bld/wv/c/fingmsg.c
                _TEXT                 CODE           00401980  !      00000295
                CONST                 DATA           00478004  !      00000000
                CONST2                DATA           00478094  !      00000000
                _DATA                 DATA           004780bc  !      00000044
/mnt/sda5/.user/root/src/openwatcom-1.9/bld/dig/c/dipman.c
                _TEXT                 CODE           00401c20  !      00002197
                CONST                 DATA           00478004  !      00000000
                CONST2                DATA           00478094  !      00000000
                _DATA                 DATA           00478100  !      00000076
                _BSS                  BSS            0047e124  !      0000011c
/mnt/sda5/.user/root/src/openwatcom-1.9/bld/dig/c/nt/dipld.c
                _TEXT                 CODE           00403dc0  !      0000010c
                CONST                 DATA           00478004  !      00000000
                CONST2                DATA           00478094  !      00000000
                _DATA                 DATA           00478178  !      00000000
/mnt/sda5/.user/root/src/openwatcom-1.9/bld/dig/c/madman.c
                _TEXT                 CODE           00403ed0  !      00002422
                CONST                 DATA           00478004  !      00000000
                CONST2                DATA           00478094  !      00000000
                _DATA                 DATA           00478178  !      00000190
                _BSS                  BSS            0047e240  !      00000008
/mnt/sda5/.user/root/src/openwatcom-1.9/bld/dig/c/nt/madld.c
                _TEXT                 CODE           00406300  !      0000010c
                CONST                 DATA           00478004  !      00000000
                CONST2                DATA           00478094  !      00000000
                _DATA                 DATA           00478308  !      00000000
/mnt/sda5/.user/root/src/openwatcom-1.9/bld/watcom/c/i64.c
                _TEXT                 CODE           00406410  !      0000048e
                CONST                 DATA           00478004  !      00000000
                CONST2                DATA           00478094  !      00000000
                _DATA                 DATA           00478308  !      00000000
/mnt/sda5/.user/root/src/openwatcom-1.9/bld/dig/c/trpsupp.c
                _TEXT                 CODE           004068a0  !      00000626
                CONST                 DATA           00478004  !      00000000
                CONST2                DATA           00478094  !      00000000
                _DATA                 DATA           00478308  !      0000000c
                _BSS                  BSS            0047e248  !      00000008
/mnt/sda5/.user/root/src/openwatcom-1.9/bld/dig/c/nt/trpld.c
                _TEXT                 CODE           00406ed0  !      0000029a
                CONST                 DATA           00478004  !      00000000
                CONST2                DATA           00478094  !      00000000
                _DATA                 DATA           00478314  !      00000000
                _BSS                  BSS            0047e250  !      00000010
/mnt/sda5/.user/root/src/openwatcom-1.9/bld/dig/c/dumb.c
                _TEXT                 CODE           00407170  !      000001e6
                CONST                 DATA           00478004  !      00000000
                CONST2                DATA           00478094  !      00000000
                _DATA                 DATA           00478314  !      00000000
                _BSS                  BSS            0047e260  !      00000004
/mnt/sda5/.user/root/src/openwatcom-1.9/bld/wv/c/spawn.c
                _TEXT                 CODE           00407360  !      00000110
                CONST                 DATA           00478004  !      00000000
                CONST2                DATA           00478094  !      00000000
                _DATA                 DATA           00478314  !      00000000
                _BSS                  BSS            0047e264  !      00000004
/mnt/sda5/.user/root/src/openwatcom-1.9/bld/wv/c/dbgchain.c
                _TEXT                 CODE           00407470  !      000005ff
                CONST                 DATA           00478004  !      00000000
                CONST2                DATA           00478094  !      00000000
                _DATA                 DATA           00478314  !      00000000
/mnt/sda5/.user/root/src/openwatcom-1.9/bld/wv/c/dbgvar.c
                _TEXT                 CODE           00407a70  !      000035ac
                CONST                 DATA           00478004  !      00000000
                CONST2                DATA           00478094  !      00000000
                _DATA                 DATA           00478314  !      00000004
                _BSS                  BSS            0047e268  !      0000001e
/mnt/sda5/.user/root/src/openwatcom-1.9/bld/wv/c/dbgvset.c
                _TEXT                 CODE           0040b020  !      00000871
                CONST                 DATA           00478004  !      00000000
                CONST2                DATA           00478094  !      00000000
                _DATA                 DATA           00478318  !      000000c3
/mnt/sda5/.user/root/src/openwatcom-1.9/bld/wv/c/dbgass.c
                _TEXT                 CODE           0040b8a0  !      000000d0
                CONST                 DATA           00478004  !      00000000
                CONST2                DATA           00478094  !      00000000
                _DATA                 DATA           004783dc  !      00000000
/mnt/sda5/.user/root/src/openwatcom-1.9/bld/wv/c/dbgimg.c
                _TEXT                 CODE           0040b970  !      00000097
                CONST                 DATA           00478004  !      00000000
                CONST2                DATA           00478094  !      00000000
                _DATA                 DATA           004783dc  !      00000000
/mnt/sda5/.user/root/src/openwatcom-1.9/bld/wv/c/dbglist.c
                _TEXT                 CODE           0040ba10  !      0000001a
                CONST                 DATA           00478004  !      00000000
                CONST2                DATA           00478094  !      00000000
                _DATA                 DATA           004783dc  !      00000000
/mnt/sda5/.user/root/src/openwatcom-1.9/bld/wv/c/dbgpend.c
                _TEXT                 CODE           0040ba30  !      00000176
                CONST                 DATA           00478004  !      00000000
                CONST2                DATA           00478094  !      00000000
                _DATA                 DATA           004783dc  !      00000000
/mnt/sda5/.user/root/src/openwatcom-1.9/bld/wv/c/ambigsym.c
                _TEXT                 CODE           0040bbb0  !      00000240
                CONST                 DATA           00478004  !      00000000
                CONST2                DATA           00478094  !      00000000
                _DATA                 DATA           004783dc  !      00000000
/mnt/sda5/.user/root/src/openwatcom-1.9/bld/wv/c/addarith.c
                _TEXT                 CODE           0040bdf0  !      000002f3
                CONST                 DATA           00478004  !      00000000
                CONST2                DATA           00478094  !      00000000
                _DATA                 DATA           004783dc  !      00000004
/mnt/sda5/.user/root/src/openwatcom-1.9/bld/wv/c/dbgbrk.c
                _TEXT                 CODE           0040c0f0  !      00002a27
                CONST                 DATA           00478004  !      00000000
                CONST2                DATA           00478094  !      00000000
                _DATA                 DATA           004783e0  !      000000c0
/mnt/sda5/.user/root/src/openwatcom-1.9/bld/wv/c/dbgcall.c
                _TEXT                 CODE           0040eb20  !      0000063c
                CONST                 DATA           00478004  !      00000000
                CONST2                DATA           00478094  !      00000000
                _DATA                 DATA           004784a0  !      00000000
                _BSS                  BSS            0047e288  !      0000002e
/mnt/sda5/.user/root/src/openwatcom-1.9/bld/wv/c/dbgcall2.c
                _TEXT                 CODE           0040f160  !      00000296
                CONST                 DATA           00478004  !      00000000
                CONST2                DATA           00478094  !      00000000
                _DATA                 DATA           004784a0  !      00000004
                _BSS                  BSS            0047e2b8  !      000000f4
/mnt/sda5/.user/root/src/openwatcom-1.9/bld/wv/c/dbgcmd.c
                _TEXT                 CODE           0040f400  !      0000007f
                CONST                 DATA           00478004  !      00000000
                CONST2                DATA           00478094  !      00000000
                _DATA                 DATA           004784a4  !      00000000
/mnt/sda5/.user/root/src/openwatcom-1.9/bld/wv/c/dbgcmdln.c
                _TEXT                 CODE           0040f480  !      0000099f
                CONST                 DATA           00478004  !      00000000
                CONST2                DATA           00478094  !      00000000
                _DATA                 DATA           004784a4  !      000000d8
                _BSS                  BSS            0047e3ac  !      0000000e
/mnt/sda5/.user/root/src/openwatcom-1.9/bld/wv/c/dbgdot.c
                _TEXT                 CODE           0040fe20  !      0000011a
                CONST                 DATA           00478004  !      00000000
                CONST2                DATA           00478094  !      00000000
                _DATA                 DATA           0047857c  !      00000000
                _BSS                  BSS            0047e3bc  !      00000010
/mnt/sda5/.user/root/src/openwatcom-1.9/bld/wv/c/dbgexec.c
                _TEXT                 CODE           0040ff40  !      00000c8c
                CONST                 DATA           00478004  !      00000000
                CONST2                DATA           00478094  !      00000000
                _DATA                 DATA           0047857c  !      00000008
                _BSS                  BSS            0047e3cc  !      00000004
/mnt/sda5/.user/root/src/openwatcom-1.9/bld/wv/c/dbgexpr.c
                _TEXT                 CODE           00410bd0  !      00000f6e
                CONST                 DATA           00478004  !      00000000
                CONST2                DATA           00478094  !      00000000
                _DATA                 DATA           00478590  !      000000f4
/mnt/sda5/.user/root/src/openwatcom-1.9/bld/wv/c/dbgexpr2.c
                _TEXT                 CODE           00411b40  !      000009a1
                CONST                 DATA           00478004  !      00000000
                CONST2                DATA           00478094  !      00000000
                _DATA                 DATA           00478684  !      00000000
/mnt/sda5/.user/root/src/openwatcom-1.9/bld/wv/c/dbgexpr3.c
                _TEXT                 CODE           004124f0  !      0000108a
                CONST                 DATA           00478004  !      00000000
                CONST2                DATA           00478094  !      00000000
                _DATA                 DATA           00478684  !      00000231
/mnt/sda5/.user/root/src/openwatcom-1.9/bld/wv/c/dbgexpr4.c
                _TEXT                 CODE           00413580  !      00002095
                CONST                 DATA           00478004  !      00000000
                CONST2                DATA           00478094  !      00000000
                _DATA                 DATA           004788b8  !      00000000
                _BSS                  BSS            0047e3d0  !      00000400
/mnt/sda5/.user/root/src/openwatcom-1.9/bld/wv/c/dbgfile.c
                _TEXT                 CODE           00415620  !      00000b84
                CONST                 DATA           00478004  !      00000000
                CONST2                DATA           00478094  !      00000000
                _DATA                 DATA           004788b8  !      00000000
                _BSS                  BSS            0047e7d0  !      000001c4
/mnt/sda5/.user/root/src/openwatcom-1.9/bld/wv/c/dbghook.c
                _TEXT                 CODE           004161b0  !      0000026e
                CONST                 DATA           00478004  !      00000000
                CONST2                DATA           00478094  !      00000000
                _DATA                 DATA           004788b8  !      0000005f
                _BSS                  BSS            0047e994  !      0000002d
/mnt/sda5/.user/root/src/openwatcom-1.9/bld/wv/c/dbginvk.c
                _TEXT                 CODE           00416420  !      00000652
                CONST                 DATA           00478004  !      00000000
                CONST2                DATA           00478094  !      00000000
                _DATA                 DATA           00478918  !      00000000
                _BSS                  BSS            0047e9c4  !      00000005
/mnt/sda5/.user/root/src/openwatcom-1.9/bld/wv/c/dbglkup.c
                _TEXT                 CODE           00416a80  !      00000a42
                CONST                 DATA           00478004  !      00000000
                CONST2                DATA           00478094  !      00000000
                _DATA                 DATA           00478918  !      0000001c
                _BSS                  BSS            0047e9cc  !      00000008
/mnt/sda5/.user/root/src/openwatcom-1.9/bld/wv/c/dbgloc.c
                _TEXT                 CODE           004174d0  !      00000c51
                CONST                 DATA           00478004  !      00000000
                CONST2                DATA           00478094  !      00000000
                _DATA                 DATA           00478934  !      00000000
/mnt/sda5/.user/root/src/openwatcom-1.9/bld/wv/c/dbglog.c
                _TEXT                 CODE           00418130  !      00000225
                CONST                 DATA           00478004  !      00000000
                CONST2                DATA           00478094  !      00000000
                _DATA                 DATA           00478934  !      0000000e
                _BSS                  BSS            0047e9d4  !      00000004
/mnt/sda5/.user/root/src/openwatcom-1.9/bld/wv/c/dbgmain.c
                _TEXT                 CODE           00418360  !      00000876
                CONST                 DATA           00478004  !      00000000
                CONST2                DATA           00478094  !      00000000
                _DATA                 DATA           00478944  !      000000e8
                _BSS                  BSS            0047e9d8  !      0000000d
/mnt/sda5/.user/root/src/openwatcom-1.9/bld/wv/c/dbgmem.c
                _TEXT                 CODE           00418be0  !      000003e3
                CONST                 DATA           00478004  !      00000000
                CONST2                DATA           00478094  !      00000000
                _DATA                 DATA           00478a2c  !      00000064
/mnt/sda5/.user/root/src/openwatcom-1.9/bld/wv/c/memtypes.c
                _TEXT                 CODE           00418fd0  !      00000295
                CONST                 DATA           00478004  !      00000000
                CONST2                DATA           00478094  !      00000000
                _DATA                 DATA           00478a90  !      00000000
/mnt/sda5/.user/root/src/openwatcom-1.9/bld/wv/c/dbgmisc.c
                _TEXT                 CODE           00419270  !      00000cd2
                CONST                 DATA           00478004  !      00000000
                CONST2                DATA           00478094  !      00000000
                _DATA                 DATA           00478a90  !      0000003a
/mnt/sda5/.user/root/src/openwatcom-1.9/bld/wv/c/dbgovl.c
                _TEXT                 CODE           00419f50  !      000003b2
                CONST                 DATA           00478004  !      00000000
                CONST2                DATA           00478094  !      00000000
                _DATA                 DATA           00478acc  !      00000000
                _BSS                  BSS            0047e9e8  !      0000000d
/mnt/sda5/.user/root/src/openwatcom-1.9/bld/wv/c/dbgparse.c
                _TEXT                 CODE           0041a310  !      000004a8
                CONST                 DATA           00478004  !      00000000
                CONST2                DATA           00478094  !      00000000
                _DATA                 DATA           00478acc  !      00000000
                _BSS                  BSS            0047e9f8  !      00000010
/mnt/sda5/.user/root/src/openwatcom-1.9/bld/wv/c/dbgprint.c
                _TEXT                 CODE           0041a7c0  !      0000161b
                CONST                 DATA           00478004  !      00000000
                CONST2                DATA           00478094  !      00000000
                _DATA                 DATA           00478acc  !      00000010
                _BSS                  BSS            0047ea08  !      0000040e
/mnt/sda5/.user/root/src/openwatcom-1.9/bld/wv/c/dbgreg.c
                _TEXT                 CODE           0041bde0  !      00001431
                CONST                 DATA           00478004  !      00000000
                CONST2                DATA           00478094  !      00000000
                _DATA                 DATA           00478adc  !      00000008
                _BSS                  BSS            0047ee18  !      0000000d
/mnt/sda5/.user/root/src/openwatcom-1.9/bld/wv/c/dbgscan.c
                _TEXT                 CODE           0041d220  !      000010f5
                CONST                 DATA           00478004  !      00000000
                CONST2                DATA           00478094  !      00000000
                _DATA                 DATA           00478ae4  !      0000002d
                _BSS                  BSS            0047ee30  !      00000020
/mnt/sda5/.user/root/src/openwatcom-1.9/bld/wv/c/dbgshow.c
                _TEXT                 CODE           0041e320  !      00000365
                CONST                 DATA           00478004  !      00000000
                CONST2                DATA           00478094  !      00000000
                _DATA                 DATA           00478b14  !      0000007c
/mnt/sda5/.user/root/src/openwatcom-1.9/bld/wv/c/dbgsrc.c
                _TEXT                 CODE           0041e690  !      000003f9
                CONST                 DATA           00478004  !      00000000
                CONST2                DATA           00478094  !      00000000
                _DATA                 DATA           00478b90  !      00000005
/mnt/sda5/.user/root/src/openwatcom-1.9/bld/wv/c/dbgstdio.c
                _TEXT                 CODE           0041ea90  !      000000e7
                CONST                 DATA           00478004  !      00000000
                CONST2                DATA           00478094  !      00000000
                _DATA                 DATA           00478b98  !      00000000
/mnt/sda5/.user/root/src/openwatcom-1.9/bld/wv/c/dbgsys.c
                _TEXT                 CODE           0041eb80  !      00000104
                CONST                 DATA           00478004  !      00000000
                CONST2                DATA           00478094  !      00000000
                _DATA                 DATA           00478b98  !      0000000e
/mnt/sda5/.user/root/src/openwatcom-1.9/bld/wv/c/dbgutil.c
                _TEXT                 CODE           0041ec90  !      00000a98
                CONST                 DATA           00478004  !      00000000
                CONST2                DATA           00478094  !      00000000
                _DATA                 DATA           00478ba8  !      00000000
/mnt/sda5/.user/root/src/openwatcom-1.9/bld/wv/c/dbg_dbg.c
                _TEXT                 CODE           0041f730  !      00000a2e
                CONST                 DATA           00478004  !      00000000
                CONST2                DATA           00478094  !      00000000
                _DATA                 DATA           00478ba8  !      00000000
                _BSS                  BSS            0047ee50  !      00000004
/mnt/sda5/.user/root/src/openwatcom-1.9/bld/wv/c/dbgprog.c
                _TEXT                 CODE           00420160  !      00002376
                CONST                 DATA           00478004  !      00000000
                CONST2                DATA           00478094  !      00000000
                _DATA                 DATA           00478ba8  !      0000002f
                _BSS                  BSS            0047ee54  !      00000810
/mnt/sda5/.user/root/src/openwatcom-1.9/bld/wv/c/strutil.c
                _TEXT                 CODE           004224e0  !      000003a1
                CONST                 DATA           00478004  !      00000000
                CONST2                DATA           00478094  !      00000000
                _DATA                 DATA           00478bd8  !      00000000
/mnt/sda5/.user/root/src/openwatcom-1.9/bld/wv/c/stub.c
                _TEXT                 CODE           00422890  !      00000017
                CONST                 DATA           00478004  !      00000000
                CONST2                DATA           00478094  !      00000000
                _DATA                 DATA           00478bd8  !      00000000
/mnt/sda5/.user/root/src/openwatcom-1.9/bld/wv/c/dbgwalk.c
                _TEXT                 CODE           004228b0  !      000002f8
                CONST                 DATA           00478004  !      00000000
                CONST2                DATA           00478094  !      00000000
                _DATA                 DATA           00478bd8  !      00000000
                _BSS                  BSS            0047f664  !      00000004
/mnt/sda5/.user/root/src/openwatcom-1.9/bld/wv/c/dynmem.c
                _TEXT                 CODE           00422bb0  !      00000249
                CONST                 DATA           00478004  !      00000000
                CONST2                DATA           00478094  !      00000000
                _DATA                 DATA           00478bd8  !      00000000
/mnt/sda5/.user/root/src/openwatcom-1.9/bld/wv/c/dbgsem.c
                _TEXT                 CODE           00422e00  !      00001e29
                CONST                 DATA           00478004  !      00000000
                CONST2                DATA           00478094  !      00000000
                _DATA                 DATA           00478bd8  !      00000001
                _BSS                  BSS            0047f668  !      00000088
/mnt/sda5/.user/root/src/openwatcom-1.9/bld/wv/c/dbgtrace.c
                _TEXT                 CODE           00424c30  !      00000f97
                CONST                 DATA           00478004  !      00000000
                CONST2                DATA           00478094  !      00000000
                _DATA                 DATA           00478bdc  !      00000028
                _BSS                  BSS            0047f6f0  !      00000058
/mnt/sda5/.user/root/src/openwatcom-1.9/bld/wv/c/dbgexins.c
                _TEXT                 CODE           00425bd0  !      0000005f
                CONST                 DATA           00478004  !      00000000
                CONST2                DATA           00478094  !      00000000
                _DATA                 DATA           00478c04  !      00000000
/mnt/sda5/.user/root/src/openwatcom-1.9/bld/wv/c/dbgexdat.c
                _TEXT                 CODE           00425c30  !      00000190
                CONST                 DATA           00478004  !      00000000
                CONST2                DATA           00478094  !      00000000
                _DATA                 DATA           00478c04  !      00000011
/mnt/sda5/.user/root/src/openwatcom-1.9/bld/wv/c/dbgmodfy.c
                _TEXT                 CODE           00425dc0  !      000001bd
                CONST                 DATA           00478004  !      00000000
                CONST2                DATA           00478094  !      00000000
                _DATA                 DATA           00478c18  !      00000000
/mnt/sda5/.user/root/src/openwatcom-1.9/bld/wv/c/dbgtback.c
                _TEXT                 CODE           00425f80  !      00000291
                CONST                 DATA           00478004  !      00000000
                CONST2                DATA           00478094  !      00000000
                _DATA                 DATA           00478c18  !      00000000
                _BSS                  BSS            0047f748  !      00000004
/mnt/sda5/.user/root/src/openwatcom-1.9/bld/wv/c/dbgerr.c
                _TEXT                 CODE           00426220  !      00000256
                CONST                 DATA           00478004  !      00000000
                CONST2                DATA           00478094  !      00000000
                _DATA                 DATA           00478c18  !      00000000
/mnt/sda5/.user/root/src/openwatcom-1.9/bld/wv/c/namelist.c
                _TEXT                 CODE           00426480  !      00000549
                CONST                 DATA           00478004  !      00000000
                CONST2                DATA           00478094  !      00000000
                _DATA                 DATA           00478c18  !      00000000
/mnt/sda5/.user/root/src/openwatcom-1.9/bld/wv/c/modlist.c
                _TEXT                 CODE           004269d0  !      00000363
                CONST                 DATA           00478004  !      00000000
                CONST2                DATA           00478094  !      00000000
                _DATA                 DATA           00478c18  !      00000000
/mnt/sda5/.user/root/src/openwatcom-1.9/bld/watcom/c/sortlist.c
                _TEXT                 CODE           00426d40  !      000001d6
                CONST                 DATA           00478004  !      00000000
                CONST2                DATA           00478094  !      00000000
                _DATA                 DATA           00478c18  !      00000000
/mnt/sda5/.user/root/src/openwatcom-1.9/bld/wv/c/remmisc.c
                _TEXT                 CODE           00426f20  !      0000033a
                CONST                 DATA           00478004  !      00000000
                CONST2                DATA           00478094  !      00000000
                _DATA                 DATA           00478c18  !      00000000
                _BSS                  BSS            0047f74c  !      00000005
/mnt/sda5/.user/root/src/openwatcom-1.9/bld/wv/c/remcore.c
                _TEXT                 CODE           00427260  !      00000ef7
                CONST                 DATA           00478004  !      00000000
                CONST2                DATA           00478094  !      00000000
                _DATA                 DATA           00478c18  !      00000004
                _BSS                  BSS            0047f754  !      00000010
/mnt/sda5/.user/root/src/openwatcom-1.9/bld/wv/c/remfinfo.c
                _TEXT                 CODE           00428160  !      0000017a
                CONST                 DATA           00478004  !      00000000
                CONST2                DATA           00478094  !      00000000
                _DATA                 DATA           00478c1c  !      00000000
                _BSS                  BSS            0047f764  !      00000004
/mnt/sda5/.user/root/src/openwatcom-1.9/bld/wv/c/remenv.c
                _TEXT                 CODE           004282e0  !      00000184
                CONST                 DATA           00478004  !      00000000
                CONST2                DATA           00478094  !      00000000
                _DATA                 DATA           00478c1c  !      00000000
                _BSS                  BSS            0047f768  !      00000004
/mnt/sda5/.user/root/src/openwatcom-1.9/bld/wv/c/remfile.c
                _TEXT                 CODE           00428470  !      00000a1f
                CONST                 DATA           00478004  !      00000000
                CONST2                DATA           00478094  !      00000000
                _DATA                 DATA           00478c1c  !      00000000
                _BSS                  BSS            0047f76c  !      0000008a
/mnt/sda5/.user/root/src/openwatcom-1.9/bld/wv/c/remthrd.c
                _TEXT                 CODE           00428e90  !      00000212
                CONST                 DATA           00478004  !      00000000
                CONST2                DATA           00478094  !      00000000
                _DATA                 DATA           00478c1c  !      00000000
                _BSS                  BSS            0047f7f8  !      00000004
/mnt/sda5/.user/root/src/openwatcom-1.9/bld/wv/c/removl.c
                _TEXT                 CODE           004290b0  !      00000391
                CONST                 DATA           00478004  !      00000000
                CONST2                DATA           00478094  !      00000000
                _DATA                 DATA           00478c1c  !      00000000
                _BSS                  BSS            0047f7fc  !      00000004
/mnt/sda5/.user/root/src/openwatcom-1.9/bld/wv/c/ldsupp.c
                _TEXT                 CODE           00429450  !      000001f7
                CONST                 DATA           00478004  !      00000000
                CONST2                DATA           00478094  !      00000000
                _DATA                 DATA           00478c1c  !      00000000
/mnt/sda5/.user/root/src/openwatcom-1.9/bld/wv/c/doserr.c
                _TEXT                 CODE           00429650  !      00000033
                CONST                 DATA           00478004  !      00000000
                CONST2                DATA           00478094  !      00000000
                _DATA                 DATA           00478c1c  !      00000048
/mnt/sda5/.user/root/src/openwatcom-1.9/bld/wv/c/diginter.c
                _TEXT                 CODE           00429690  !      000000c7
                CONST                 DATA           00478004  !      00000000
                CONST2                DATA           00478094  !      00000000
                _DATA                 DATA           00478c64  !      00000000
/mnt/sda5/.user/root/src/openwatcom-1.9/bld/wv/c/dipinter.c
                _TEXT                 CODE           00429760  !      00000a7e
                CONST                 DATA           00478004  !      00000000
                CONST2                DATA           00478094  !      00000000
                _DATA                 DATA           00478c64  !      0000016c
/mnt/sda5/.user/root/src/openwatcom-1.9/bld/wv/c/madinter.c
                _TEXT                 CODE           0042a1e0  !      00000755
                CONST                 DATA           00478004  !      00000000
                CONST2                DATA           00478094  !      00000000
                _DATA                 DATA           00478dd0  !      00000138
                _BSS                  BSS            0047f800  !      00000002
/mnt/sda5/.user/root/src/openwatcom-1.9/bld/wv/c/dbglit.c
                _TEXT                 CODE           0042a940  !      0000001a
                CONST                 DATA           00478004  !      00000000
                CONST2                DATA           00478094  !      00000000
                _DATA                 DATA           00478f08  !      00000000
/mnt/sda5/.user/root/src/openwatcom-1.9/bld/wv/c/dbginsty.c
                _TEXT                 CODE           0042a960  !      00000307
                CONST                 DATA           00478004  !      00000000
                CONST2                DATA           00478094  !      00000000
                _DATA                 DATA           00478f08  !      00000000
/mnt/sda5/.user/root/src/openwatcom-1.9/bld/wv/c/dbgdata.c
                _TEXT                 CODE           0042ac70  !      00000000
                CONST                 DATA           00478004  !      00000000
                CONST2                DATA           00478094  !      00000000
                _DATA                 DATA           00478f08  !      00000446
                _BSS                  BSS            0047f810  !      000002ac
/mnt/sda5/.user/root/src/openwatcom-1.9/bld/wv/c/dbgevent.c
                _TEXT                 CODE           0042ac70  !      000005e0
                CONST                 DATA           00478004  !      00000000
                CONST2                DATA           00478094  !      00000000
                _DATA                 DATA           00479350  !      00000000
                _BSS                  BSS            0047fabc  !      00000008
/mnt/sda5/.user/root/src/openwatcom-1.9/bld/wv/c/dbgdll.c
                _TEXT                 CODE           0042b250  !      000001c1
                CONST                 DATA           00478004  !      00000000
                CONST2                DATA           00478094  !      00000000
                _DATA                 DATA           00479350  !      00000000
                _BSS                  BSS            0047fac4  !      00000004
/mnt/sda5/.user/root/src/openwatcom-1.9/bld/wv/c/dlgscan.c
                _TEXT                 CODE           0042b420  !      0000020d
                CONST                 DATA           00478004  !      00000000
                CONST2                DATA           00478094  !      00000000
                _DATA                 DATA           00479350  !      00000000
/mnt/sda5/.user/root/src/openwatcom-1.9/bld/wv/c/dbgset.c
                _TEXT                 CODE           0042b630  !      000012a0
                CONST                 DATA           00478004  !      00000000
                CONST2                DATA           00478094  !      00000000
                _DATA                 DATA           00479350  !      0000024b
                _BSS                  BSS            0047fac8  !      00000018
/mnt/sda5/.user/root/src/openwatcom-1.9/bld/watcom/c/srcmgt.c
                _TEXT                 CODE           0042c8d0  !      0000053b
                CONST                 DATA           00478004  !      00000000
                CONST2                DATA           00478094  !      00000000
                _DATA                 DATA           0047959c  !      00000004
/mnt/sda5/.user/root/src/openwatcom-1.9/bld/wv/c/dbgupdt.c
                _TEXT                 CODE           0042ce10  !      00000104
                CONST                 DATA           00478004  !      00000000
                CONST2                DATA           00478094  !      00000000
                _DATA                 DATA           004795a0  !      00000000
/mnt/sda5/.user/root/src/openwatcom-1.9/bld/wv/c/symcomp.c
                _TEXT                 CODE           0042cf20  !      000001ed
                CONST                 DATA           00478004  !      00000000
                CONST2                DATA           00478094  !      00000000
                _DATA                 DATA           004795a0  !      00000004
/mnt/sda5/.user/root/src/openwatcom-1.9/bld/wv/c/litengin.c
                _TEXT                 CODE           0042d110  !      00001826
                CONST                 DATA           00478004  !      00000000
                CONST2                DATA           00478094  !      00000000
                _DATA                 DATA           004795a4  !      00000000
                _BSS                  BSS            0047fae0  !      000003dc
/mnt/sda5/.user/root/src/openwatcom-1.9/bld/wv/c/litwd.c
                _TEXT                 CODE           0042e940  !      00000cb4
                CONST                 DATA           00478004  !      00000000
                CONST2                DATA           00478094  !      00000000
                _DATA                 DATA           004795a4  !      00000000
                _BSS                  BSS            0047febc  !      00000208
/mnt/sda5/.user/root/src/openwatcom-1.9/bld/wv/c/dui.c
                _TEXT                 CODE           0042f600  !      000004a5
                CONST                 DATA           00478004  !      00000000
                CONST2                DATA           00478094  !      00000000
                _DATA                 DATA           004795a4  !      00000000
/mnt/sda5/.user/root/src/openwatcom-1.9/bld/wv/c/dbgwset.c
                _TEXT                 CODE           0042fab0  !      000009f6
                CONST                 DATA           00478004  !      00000000
                CONST2                DATA           00478094  !      00000000
                _DATA                 DATA           004795a4  !      000004c4
                _BSS                  BSS            004800c4  !      00000014
/mnt/sda5/.user/root/src/openwatcom-1.9/bld/wv/c/dbginsp.c
                _TEXT                 CODE           004304b0  !      00000791
                CONST                 DATA           00478004  !      00000000
                CONST2                DATA           00478094  !      00000000
                _DATA                 DATA           00479a68  !      00000000
/mnt/sda5/.user/root/src/openwatcom-1.9/bld/wv/c/dbgicon.c
                _TEXT                 CODE           00430c50  !      00000064
                CONST                 DATA           00478004  !      00000000
                CONST2                DATA           00478094  !      00000000
                _DATA                 DATA           00479a68  !      000000c0
/mnt/sda5/.user/root/src/openwatcom-1.9/bld/wv/c/dbgdisp.c
                _TEXT                 CODE           00430cc0  !      00000c26
                CONST                 DATA           00478004  !      00000000
                CONST2                DATA           00478094  !      00000000
                _DATA                 DATA           00479b28  !      00000049
                _BSS                  BSS            004800d8  !      00000268
/mnt/sda5/.user/root/src/openwatcom-1.9/bld/wv/c/dbgpaint.c
                _TEXT                 CODE           004318f0  !      00000711
                CONST                 DATA           00478004  !      00000000
                CONST2                DATA           00478094  !      00000000
                _DATA                 DATA           00479b74  !      000001bd
                _BSS                  BSS            00480340  !      00000078
/mnt/sda5/.user/root/src/openwatcom-1.9/bld/wv/c/dbgcap.c
                _TEXT                 CODE           00432010  !      0000011a
                CONST                 DATA           00478004  !      00000000
                CONST2                DATA           00478094  !      00000000
                _DATA                 DATA           00479d34  !      00000014
                _BSS                  BSS            004803b8  !      00000001
/mnt/sda5/.user/root/src/openwatcom-1.9/bld/wv/c/wndalloc.c
                _TEXT                 CODE           00432130  !      00000065
                CONST                 DATA           00478004  !      00000000
                CONST2                DATA           00478094  !      00000000
                _DATA                 DATA           00479d48  !      00000000
/mnt/sda5/.user/root/src/openwatcom-1.9/bld/wv/c/dlgambig.c
                _TEXT                 CODE           004321a0  !      00000059
                CONST                 DATA           00478004  !      00000000
                CONST2                DATA           00478094  !      00000000
                _DATA                 DATA           00479d48  !      00000000
/mnt/sda5/.user/root/src/openwatcom-1.9/bld/wv/c/dlgscomp.c
                _TEXT                 CODE           00432200  !      000001e5
                CONST                 DATA           00478004  !      00000000
                CONST2                DATA           00478094  !      00000000
                _DATA                 DATA           00479d48  !      00000000
                _BSS                  BSS            004803bc  !      00000004
/mnt/sda5/.user/root/src/openwatcom-1.9/bld/wv/c/modcomp.c
                _TEXT                 CODE           004323f0  !      00000136
                CONST                 DATA           00478004  !      00000000
                CONST2                DATA           00478094  !      00000000
                _DATA                 DATA           00479d48  !      00000000
/mnt/sda5/.user/root/src/openwatcom-1.9/bld/wv/c/wndsys.c
                _TEXT                 CODE           00432530  !      000008b7
                CONST                 DATA           00478004  !      00000000
                CONST2                DATA           00478094  !      00000000
                _DATA                 DATA           00479d48  !      00000424
                _BSS                  BSS            004803c0  !      00000004
/mnt/sda5/.user/root/src/openwatcom-1.9/bld/wv/c/wnddump.c
                _TEXT                 CODE           00432df0  !      00000351
                CONST                 DATA           00478004  !      00000000
                CONST2                DATA           00478094  !      00000000
                _DATA                 DATA           0047a16c  !      00000000
/mnt/sda5/.user/root/src/openwatcom-1.9/bld/wv/c/dbgintrn.c
                _TEXT                 CODE           00433150  !      00000000
                CONST                 DATA           00478004  !      00000000
                CONST2                DATA           00478094  !      00000000
                _DATA                 DATA           0047a16c  !      00000000
/mnt/sda5/.user/root/src/openwatcom-1.9/bld/wv/c/dlgabout.c
                _TEXT                 CODE           00433150  !      00000072
                CONST                 DATA           00478004  !      00000000
                CONST2                DATA           00478094  !      00000000
                _DATA                 DATA           0047a16c  !      00000000
/mnt/sda5/.user/root/src/openwatcom-1.9/bld/wv/c/dlgstk.c
                _TEXT                 CODE           004331d0  !      0000010f
                CONST                 DATA           00478004  !      00000000
                CONST2                DATA           00478094  !      00000000
                _DATA                 DATA           0047a16c  !      00000000
/mnt/sda5/.user/root/src/openwatcom-1.9/bld/wv/c/dlgayn.c
                _TEXT                 CODE           004332e0  !      000000a7
                CONST                 DATA           00478004  !      00000000
                CONST2                DATA           00478094  !      00000000
                _DATA                 DATA           0047a16c  !      00000000
/mnt/sda5/.user/root/src/openwatcom-1.9/bld/wv/c/dlgsrc.c
                _TEXT                 CODE           00433390  !      0000002f
                CONST                 DATA           00478004  !      00000000
                CONST2                DATA           00478094  !      00000000
                _DATA                 DATA           0047a16c  !      00000000
/mnt/sda5/.user/root/src/openwatcom-1.9/bld/wv/c/dlgdll.c
                _TEXT                 CODE           004333c0  !      0000002f
                CONST                 DATA           00478004  !      00000000
                CONST2                DATA           00478094  !      00000000
                _DATA                 DATA           0047a16c  !      00000000
/mnt/sda5/.user/root/src/openwatcom-1.9/bld/wv/c/dlglist.c
                _TEXT                 CODE           004333f0  !      00000336
                CONST                 DATA           00478004  !      00000000
                CONST2                DATA           00478094  !      00000000
                _DATA                 DATA           0047a16c  !      00000000
/mnt/sda5/.user/root/src/openwatcom-1.9/bld/wv/c/dlgfile.c
                _TEXT                 CODE           00433730  !      00000651
                CONST                 DATA           00478004  !      00000000
                CONST2                DATA           00478094  !      00000000
                _DATA                 DATA           0047a16c  !      00000015
                _BSS                  BSS            004803c4  !      00000018
/mnt/sda5/.user/root/src/openwatcom-1.9/bld/wv/c/dlgnewp.c
                _TEXT                 CODE           00433d90  !      000001b1
                CONST                 DATA           00478004  !      00000000
                CONST2                DATA           00478094  !      00000000
                _DATA                 DATA           0047a184  !      00000000
                _BSS                  BSS            004803dc  !      00000800
/mnt/sda5/.user/root/src/openwatcom-1.9/bld/wv/c/dlgexpr.c
                _TEXT                 CODE           00433f50  !      0000034f
                CONST                 DATA           00478004  !      00000000
                CONST2                DATA           00478094  !      00000000
                _DATA                 DATA           0047a184  !      00000000
/mnt/sda5/.user/root/src/openwatcom-1.9/bld/wv/c/dlgbreak.c
                _TEXT                 CODE           004342a0  !      000009ba
                CONST                 DATA           00478004  !      00000000
                CONST2                DATA           00478094  !      00000000
                _DATA                 DATA           0047a184  !      00000000
/mnt/sda5/.user/root/src/openwatcom-1.9/bld/wv/c/dlgvarx.c
                _TEXT                 CODE           00434c60  !      0000019f
                CONST                 DATA           00478004  !      00000000
                CONST2                DATA           00478094  !      00000000
                _DATA                 DATA           0047a184  !      00000000
/mnt/sda5/.user/root/src/openwatcom-1.9/bld/wv/c/dlgcmd.c
                _TEXT                 CODE           00434e00  !      00000130
                CONST                 DATA           00478004  !      00000000
                CONST2                DATA           00478094  !      00000000
                _DATA                 DATA           0047a184  !      00000000
/mnt/sda5/.user/root/src/openwatcom-1.9/bld/wv/c/dlgnewws.c
                _TEXT                 CODE           00434f30  !      000000da
                CONST                 DATA           00478004  !      00000000
                CONST2                DATA           00478094  !      00000000
                _DATA                 DATA           0047a184  !      000000a0
                _BSS                  BSS            00480bdc  !      00000004
/mnt/sda5/.user/root/src/openwatcom-1.9/bld/wv/c/wndhelp.c
                _TEXT                 CODE           00435010  !      000001f0
                CONST                 DATA           00478004  !      00000000
                CONST2                DATA           00478094  !      00000000
                _DATA                 DATA           0047a224  !      00000000
                _BSS                  BSS            00480be0  !      00000004
/mnt/sda5/.user/root/src/openwatcom-1.9/bld/wv/c/wndmenu.c
                _TEXT                 CODE           00435200  !      0000117c
                CONST                 DATA           00478004  !      00000000
                CONST2                DATA           00478094  !      00000000
                _DATA                 DATA           0047a224  !      0000090e
                _BSS                  BSS            00480be4  !      00000018
/mnt/sda5/.user/root/src/openwatcom-1.9/bld/wv/c/dbgwfpu.c
                _TEXT                 CODE           00436380  !      00000058
                CONST                 DATA           00478004  !      00000000
                CONST2                DATA           00478094  !      00000000
                _DATA                 DATA           0047ab34  !      00000000
/mnt/sda5/.user/root/src/openwatcom-1.9/bld/wv/c/dbgwmac.c
                _TEXT                 CODE           004363e0  !      00000b35
                CONST                 DATA           00478004  !      00000000
                CONST2                DATA           00478094  !      00000000
                _DATA                 DATA           0047ab34  !      00000160
                _BSS                  BSS            00480bfc  !      00000010
/mnt/sda5/.user/root/src/openwatcom-1.9/bld/wv/c/dbgwglob.c
                _TEXT                 CODE           00436f20  !      000002f6
                CONST                 DATA           00478004  !      00000000
                CONST2                DATA           00478094  !      00000000
                _DATA                 DATA           0047ac94  !      000000b0
/mnt/sda5/.user/root/src/openwatcom-1.9/bld/wv/c/dbgwfunc.c
                _TEXT                 CODE           00437220  !      000005ff
                CONST                 DATA           00478004  !      00000000
                CONST2                DATA           00478094  !      00000000
                _DATA                 DATA           0047ad44  !      000000c8
/mnt/sda5/.user/root/src/openwatcom-1.9/bld/wv/c/dbgwcall.c
                _TEXT                 CODE           00437820  !      00000391
                CONST                 DATA           00478004  !      00000000
                CONST2                DATA           00478094  !      00000000
                _DATA                 DATA           0047ae0c  !      000000c8
/mnt/sda5/.user/root/src/openwatcom-1.9/bld/wv/c/dbgwmod.c
                _TEXT                 CODE           00437bc0  !      00000696
                CONST                 DATA           00478004  !      00000000
                CONST2                DATA           00478094  !      00000000
                _DATA                 DATA           0047aed4  !      000000e0
/mnt/sda5/.user/root/src/openwatcom-1.9/bld/wv/c/dbgwsrch.c
                _TEXT                 CODE           00438260  !      00000661
                CONST                 DATA           00478004  !      00000000
                CONST2                DATA           00478094  !      00000000
                _DATA                 DATA           0047afb4  !      00000050
/mnt/sda5/.user/root/src/openwatcom-1.9/bld/wv/c/dbgwdlg.c
                _TEXT                 CODE           004388d0  !      00000347
                CONST                 DATA           00478004  !      00000000
                CONST2                DATA           00478094  !      00000000
                _DATA                 DATA           0047b004  !      00000048
                _BSS                  BSS            00480c0c  !      00000004
/mnt/sda5/.user/root/src/openwatcom-1.9/bld/wv/c/dbgwfil.c
                _TEXT                 CODE           00438c20  !      000016f1
                CONST                 DATA           00478004  !      00000000
                CONST2                DATA           00478094  !      00000000
                _DATA                 DATA           0047b04c  !      00000188
/mnt/sda5/.user/root/src/openwatcom-1.9/bld/wv/c/dbgwass.c
                _TEXT                 CODE           0043a320  !      00001ef5
                CONST                 DATA           00478004  !      00000000
                CONST2                DATA           00478094  !      00000000
                _DATA                 DATA           0047b1d4  !      00000188
/mnt/sda5/.user/root/src/openwatcom-1.9/bld/wv/c/dbgwimg.c
                _TEXT                 CODE           0043c220  !      00000396
                CONST                 DATA           00478004  !      00000000
                CONST2                DATA           00478094  !      00000000
                _DATA                 DATA           0047b35c  !      000000c8
                _BSS                  BSS            00480c10  !      0000000c
/mnt/sda5/.user/root/src/openwatcom-1.9/bld/wv/c/dbgwbrk.c
                _TEXT                 CODE           0043c5c0  !      00000474
                CONST                 DATA           00478004  !      00000000
                CONST2                DATA           00478094  !      00000000
                _DATA                 DATA           0047b424  !      000000f8
/mnt/sda5/.user/root/src/openwatcom-1.9/bld/wv/c/dbgwio.c
                _TEXT                 CODE           0043ca40  !      00000771
                CONST                 DATA           00478004  !      00000000
                CONST2                DATA           00478094  !      00000000
                _DATA                 DATA           0047b51c  !      000000cc
                _BSS                  BSS            00480c1c  !      00000028
/mnt/sda5/.user/root/src/openwatcom-1.9/bld/wv/c/dbgwrep.c
                _TEXT                 CODE           0043d1c0  !      000002f2
                CONST                 DATA           00478004  !      00000000
                CONST2                DATA           00478094  !      00000000
                _DATA                 DATA           0047b5e8  !      00000080
                _BSS                  BSS            00480c44  !      00000010
/mnt/sda5/.user/root/src/openwatcom-1.9/bld/wv/c/dbgwmem.c
                _TEXT                 CODE           0043d4c0  !      0000198e
                CONST                 DATA           00478004  !      00000000
                CONST2                DATA           00478094  !      00000000
                _DATA                 DATA           0047b668  !      0000024c
                _BSS                  BSS            00480c54  !      0000002c
/mnt/sda5/.user/root/src/openwatcom-1.9/bld/wv/c/dbgwregs.c
                _TEXT                 CODE           0043ee50  !      00000039
                CONST                 DATA           00478004  !      00000000
                CONST2                DATA           00478094  !      00000000
                _DATA                 DATA           0047b8b4  !      00000000
/mnt/sda5/.user/root/src/openwatcom-1.9/bld/wv/c/dbgwmmx.c
                _TEXT                 CODE           0043ee90  !      00000058
                CONST                 DATA           00478004  !      00000000
                CONST2                DATA           00478094  !      00000000
                _DATA                 DATA           0047b8b4  !      00000000
/mnt/sda5/.user/root/src/openwatcom-1.9/bld/wv/c/dbgwxmm.c
                _TEXT                 CODE           0043eef0  !      00000058
                CONST                 DATA           00478004  !      00000000
                CONST2                DATA           00478094  !      00000000
                _DATA                 DATA           0047b8b4  !      00000000
/mnt/sda5/.user/root/src/openwatcom-1.9/bld/wv/c/dbgwmadr.c
                _TEXT                 CODE           0043ef50  !      00000abe
                CONST                 DATA           00478004  !      00000000
                CONST2                DATA           00478094  !      00000000
                _DATA                 DATA           0047b8b4  !      00000080
/mnt/sda5/.user/root/src/openwatcom-1.9/bld/wv/c/dbgwtogl.c
                _TEXT                 CODE           0043fa10  !      0000010e
                CONST                 DATA           00478004  !      00000000
                CONST2                DATA           00478094  !      00000000
                _DATA                 DATA           0047b934  !      00000000
/mnt/sda5/.user/root/src/openwatcom-1.9/bld/wv/c/dbgwvar.c
                _TEXT                 CODE           0043fb20  !      0000169a
                CONST                 DATA           00478004  !      00000000
                CONST2                DATA           00478094  !      00000000
                _DATA                 DATA           0047b934  !      000003d4
/mnt/sda5/.user/root/src/openwatcom-1.9/bld/wv/c/dbgwthrd.c
                _TEXT                 CODE           004411c0  !      000002b6
                CONST                 DATA           00478004  !      00000000
                CONST2                DATA           00478094  !      00000000
                _DATA                 DATA           0047bd08  !      00000084
/mnt/sda5/.user/root/src/openwatcom-1.9/bld/wv/c/dlgwind.c
                _TEXT                 CODE           00441480  !      00000477
                CONST                 DATA           00478004  !      00000000
                CONST2                DATA           00478094  !      00000000
                _DATA                 DATA           0047bd8c  !      00000000
/mnt/sda5/.user/root/src/openwatcom-1.9/bld/wv/c/dbgwdata.c
                _TEXT                 CODE           00441900  !      00000000
                CONST                 DATA           00478004  !      00000000
                CONST2                DATA           00478094  !      00000000
                _DATA                 DATA           0047bd8c  !      00000154
                _BSS                  BSS            00480c80  !      00000004
/mnt/sda5/.user/root/src/openwatcom-1.9/bld/wv/c/dlgoptn.c
                _TEXT                 CODE           00441900  !      00000397
                CONST                 DATA           00478004  !      00000000
                CONST2                DATA           00478094  !      00000000
                _DATA                 DATA           0047bee0  !      00000000
/mnt/sda5/.user/root/src/openwatcom-1.9/bld/wv/c/dbgtool.c
                _TEXT                 CODE           00441ca0  !      000000ae
                CONST                 DATA           00478004  !      00000000
                CONST2                DATA           00478094  !      00000000
                _DATA                 DATA           0047bee0  !      000000b4
/mnt/sda5/.user/root/src/openwatcom-1.9/bld/wv/c/dbgfing.c
                _TEXT                 CODE           00441d50  !      000002d0
                CONST                 DATA           00478004  !      00000000
                CONST2                DATA           00478094  !      00000000
                _DATA                 DATA           0047bf94  !      0000003c
                _BSS                  BSS            00480c84  !      00000010
/mnt/sda5/.user/root/src/openwatcom-1.9/bld/wv/c/helpio.c
                _TEXT                 CODE           00442020  !      000000d4
                CONST                 DATA           00478004  !      00000000
                CONST2                DATA           00478094  !      00000000
                _DATA                 DATA           0047bfd0  !      0000000c
LINKER MODULE   TRANSFER CODE         CODE           00475ea0  !      000001f8
                .idata                .idata         00477000  !      0000094a
/mnt/sda5/.user/root/src/openwatcom-1.9/bld/ui/nt/c/uibios.c
                _TEXT                 CODE           004420f4  !      00000218
                CONST                 DATA           00478004  !      00000000
                CONST2                DATA           00478094  !      00000000
                _DATA                 DATA           0047bfdc  !      00000078
                _BSS                  BSS            00480c94  !      00000018
/mnt/sda5/.user/root/src/openwatcom-1.9/bld/ui/c/uiinit.c
                _TEXT                 CODE           0044230c  !      00000081
                CONST                 DATA           00478004  !      00000000
                CONST2                DATA           00478094  !      00000000
                _DATA                 DATA           0047c054  !      00000000
/mnt/sda5/.user/root/src/openwatcom-1.9/bld/gui/ui/c/guigmous.c
                _TEXT                 CODE           00442390  !      000000d6
                CONST                 DATA           00478004  !      00000000
                CONST2                DATA           00478094  !      00000000
                _DATA                 DATA           0047c054  !      00000008
/mnt/sda5/.user/root/src/openwatcom-1.9/bld/aui/c/wndmem.c
                _TEXT                 CODE           00442470  !      0000003b
                CONST                 DATA           00478004  !      00000000
                CONST2                DATA           00478094  !      00000000
                _DATA                 DATA           0047c05c  !      00000000
ldcvt.c         _TEXT                 CODE           004424ab  !      00000ad3
                CONST                 DATA           00478004  !      00000000
                CONST2                DATA           00478094  !      00000000
                _DATA                 DATA           0047c05c  !      000000a8
fchop87         _TEXT                 CODE           00442f80  !      00000017
                _DATA                 DATA           0047c104  !      00000000
386             _TEXT                 CODE           00442f98  !      00000002
                _DATA                 DATA           0047c104  !      00000000
                XIB                   DATA           0047db3e  !      00000000
                XI                    DATA           0047db3e  !      00000006
                XIE                   DATA           0047db7a  !      00000000
                YIB                   DATA           0047db7a  !      00000000
                YI                    DATA           0047db7a  !      00000006
                YIE                   DATA           0047db9e  !      00000000
gcvt.c          _TEXT                 CODE           00442f9a  !      000000fe
                CONST                 DATA           00478004  !      00000000
                CONST2                DATA           00478094  !      00000000
                _DATA                 DATA           0047c104  !      00000000
strtod.c        _TEXT                 CODE           00443098  !      000007bf
                CONST                 DATA           00478004  !      00000000
                CONST2                DATA           00478094  !      00000000
                _DATA                 DATA           0047c104  !      00000000
/mnt/sda5/.user/root/src/openwatcom-1.9/bld/aui/c/wndstat.c
                _TEXT                 CODE           00443860  !      0000015b
                CONST                 DATA           00478004  !      00000000
                CONST2                DATA           00478094  !      00000000
                _DATA                 DATA           0047c104  !      00000000
                _BSS                  BSS            00480cac  !      00000051
/mnt/sda5/.user/root/src/openwatcom-1.9/bld/aui/c/guimain.c
                _TEXT                 CODE           004439c0  !      00000c2e
                CONST                 DATA           00478004  !      00000001
                CONST2                DATA           00478094  !      00000000
                _DATA                 DATA           0047c104  !      00000012
                _BSS                  BSS            00480d00  !      00000029
/mnt/sda5/.user/root/src/openwatcom-1.9/bld/aui/c/wndhist.c
                _TEXT                 CODE           004445f0  !      00000337
                CONST                 DATA           00478008  !      00000000
                CONST2                DATA           00478094  !      00000000
                _DATA                 DATA           0047c118  !      00000000
/mnt/sda5/.user/root/src/openwatcom-1.9/bld/aui/c/wndcreat.c
                _TEXT                 CODE           00444930  !      00000417
                CONST                 DATA           00478008  !      00000001
                CONST2                DATA           00478094  !      00000000
                _DATA                 DATA           0047c118  !      00000004
                _BSS                  BSS            00480d2c  !      00000008
/mnt/sda5/.user/root/src/openwatcom-1.9/bld/aui/c/wnddirt.c
                _TEXT                 CODE           00444d50  !      000006e3
                CONST                 DATA           0047800c  !      00000002
                CONST2                DATA           00478094  !      00000000
                _DATA                 DATA           0047c11c  !      00000001
/mnt/sda5/.user/root/src/openwatcom-1.9/bld/aui/c/wndshrnk.c
                _TEXT                 CODE           00445440  !      000002b7
                CONST                 DATA           00478010  !      00000000
                CONST2                DATA           00478094  !      00000000
                _DATA                 DATA           0047c120  !      00000000
/mnt/sda5/.user/root/src/openwatcom-1.9/bld/gui/c/guiisgui.c
                _TEXT                 CODE           00445700  !      00000003
                CONST                 DATA           00478010  !      00000000
                CONST2                DATA           00478094  !      00000000
                _DATA                 DATA           0047c120  !      00000000
/mnt/sda5/.user/root/src/openwatcom-1.9/bld/gui/ui/c/guismetr.c
                _TEXT                 CODE           00445710  !      00000093
                CONST                 DATA           00478010  !      00000000
                CONST2                DATA           00478094  !      00000000
                _DATA                 DATA           0047c120  !      00000000
/mnt/sda5/.user/root/src/openwatcom-1.9/bld/aui/c/wndmsg.c
                _TEXT                 CODE           004457b0  !      00000024
                CONST                 DATA           00478010  !      00000000
                CONST2                DATA           00478094  !      00000000
                _DATA                 DATA           0047c120  !      00000000
/mnt/sda5/.user/root/src/openwatcom-1.9/bld/aui/c/wndldstr.c
                _TEXT                 CODE           004457e0  !      00000060
                CONST                 DATA           00478010  !      00000000
                CONST2                DATA           00478094  !      00000000
                _DATA                 DATA           0047c120  !      00000000
/mnt/sda5/.user/root/src/openwatcom-1.9/bld/gui/ui/c/guiclen.c
                _TEXT                 CODE           00445840  !      00000015
                CONST                 DATA           00478010  !      00000000
                CONST2                DATA           00478094  !      00000000
                _DATA                 DATA           0047c120  !      00000000
/mnt/sda5/.user/root/src/openwatcom-1.9/bld/aui/c/wndutil.c
                _TEXT                 CODE           00445860  !      000002e1
                CONST                 DATA           00478010  !      00000000
                CONST2                DATA           00478094  !      00000000
                _DATA                 DATA           0047c120  !      00000000
/mnt/sda5/.user/root/src/openwatcom-1.9/bld/aui/c/wndfront.c
                _TEXT                 CODE           00445b50  !      00000098
                CONST                 DATA           00478010  !      00000000
                CONST2                DATA           00478094  !      00000000
                _DATA                 DATA           0047c120  !      00000000
/mnt/sda5/.user/root/src/openwatcom-1.9/bld/aui/c/dlgsrch.c
                _TEXT                 CODE           00445bf0  !      00000543
                CONST                 DATA           00478010  !      0000000e
                CONST2                DATA           00478094  !      00000000
                _DATA                 DATA           0047c120  !      0000002a
/mnt/sda5/.user/root/src/openwatcom-1.9/bld/aui/c/wndcurr.c
                _TEXT                 CODE           00446140  !      000007f9
                CONST                 DATA           00478020  !      00000000
                CONST2                DATA           00478094  !      00000000
                _DATA                 DATA           0047c14c  !      00000000
/mnt/sda5/.user/root/src/openwatcom-1.9/bld/aui/c/wndpaint.c
                _TEXT                 CODE           00446940  !      000005af
                CONST                 DATA           00478020  !      00000002
                CONST2                DATA           00478094  !      00000000
                _DATA                 DATA           0047c14c  !      00000000
/mnt/sda5/.user/root/src/openwatcom-1.9/bld/aui/c/wndcrsr.c
                _TEXT                 CODE           00446ef0  !      00000530
                CONST                 DATA           00478024  !      00000000
                CONST2                DATA           00478094  !      00000000
                _DATA                 DATA           0047c14c  !      00000000
/mnt/sda5/.user/root/src/openwatcom-1.9/bld/aui/c/wndfont.c
                _TEXT                 CODE           00447420  !      00000069
                CONST                 DATA           00478024  !      00000000
                CONST2                DATA           00478094  !      00000000
                _DATA                 DATA           0047c14c  !      00000000
/mnt/sda5/.user/root/src/openwatcom-1.9/bld/gui/c/guimem.c
                _TEXT                 CODE           00447490  !      00000035
                CONST                 DATA           00478024  !      00000000
                CONST2                DATA           00478094  !      00000000
                _DATA                 DATA           0047c14c  !      00000000
/mnt/sda5/.user/root/src/openwatcom-1.9/bld/aui/c/wndrect.c
                _TEXT                 CODE           004474d0  !      00000179
                CONST                 DATA           00478024  !      00000000
                CONST2                DATA           00478094  !      00000000
                _DATA                 DATA           0047c14c  !      00000000
/mnt/sda5/.user/root/src/openwatcom-1.9/bld/gui/ui/c/guistub.c
                _TEXT                 CODE           00447650  !      00000021
                CONST                 DATA           00478024  !      00000000
                CONST2                DATA           00478094  !      00000000
                _DATA                 DATA           0047c14c  !      00000000
/mnt/sda5/.user/root/src/openwatcom-1.9/bld/gui/c/guimin.c
                _TEXT                 CODE           00447680  !      0000001c
                CONST                 DATA           00478024  !      00000000
                CONST2                DATA           00478094  !      00000000
                _DATA                 DATA           0047c14c  !      00000000
/mnt/sda5/.user/root/src/openwatcom-1.9/bld/aui/c/wndtool.c
                _TEXT                 CODE           004476a0  !      00000144
                CONST                 DATA           00478024  !      00000000
                CONST2                DATA           00478094  !      00000000
                _DATA                 DATA           0047c14c  !      00000001
                _BSS                  BSS            00480d34  !      00000004
/mnt/sda5/.user/root/src/openwatcom-1.9/bld/gui/ui/c/guicolor.c
                _TEXT                 CODE           004477f0  !      0000065c
                CONST                 DATA           00478024  !      00000000
                CONST2                DATA           00478094  !      00000000
                _DATA                 DATA           0047c150  !      0000003b
/mnt/sda5/.user/root/src/openwatcom-1.9/bld/aui/c/wndcolor.c
                _TEXT                 CODE           00447e50  !      00000087
                CONST                 DATA           00478024  !      00000000
                CONST2                DATA           00478094  !      00000000
                _DATA                 DATA           0047c18c  !      00000000
/mnt/sda5/.user/root/src/openwatcom-1.9/bld/aui/c/dlgpick.c
                _TEXT                 CODE           00447ee0  !      000000bc
                CONST                 DATA           00478024  !      00000000
                CONST2                DATA           00478094  !      00000000
                _DATA                 DATA           0047c18c  !      00000000
                _BSS                  BSS            00480d38  !      00000010
/mnt/sda5/.user/root/src/openwatcom-1.9/bld/gui/c/guipick.c
                _TEXT                 CODE           00447fa0  !      0000012d
                CONST                 DATA           00478024  !      00000000
                CONST2                DATA           00478094  !      00000000
                _DATA                 DATA           0047c18c  !      00000078
/mnt/sda5/.user/root/src/openwatcom-1.9/bld/aui/c/wnddlg.c
                _TEXT                 CODE           004480d0  !      00000121
                CONST                 DATA           00478024  !      00000000
                CONST2                DATA           00478094  !      00000000
                _DATA                 DATA           0047c204  !      00000044
                _BSS                  BSS            00480d48  !      00000028
/mnt/sda5/.user/root/src/openwatcom-1.9/bld/gui/c/guindlg.c
                _TEXT                 CODE           00448200  !      00000408
                CONST                 DATA           00478024  !      00000000
                CONST2                DATA           00478094  !      00000000
                _DATA                 DATA           0047c248  !      00000061
/mnt/sda5/.user/root/src/openwatcom-1.9/bld/gui/ui/c/guifocus.c
                _TEXT                 CODE           00448610  !      00000029
                CONST                 DATA           00478024  !      00000000
                CONST2                DATA           00478094  !      00000000
                _DATA                 DATA           0047c2ac  !      00000000
/mnt/sda5/.user/root/src/openwatcom-1.9/bld/gui/ui/c/guixedit.c
                _TEXT                 CODE           00448640  !      000001e3
                CONST                 DATA           00478024  !      00000000
                CONST2                DATA           00478094  !      00000000
                _DATA                 DATA           0047c2ac  !      00000000
/mnt/sda5/.user/root/src/openwatcom-1.9/bld/aui/c/wndsrch.c
                _TEXT                 CODE           00448830  !      000006fa
                CONST                 DATA           00478024  !      00000001
                CONST2                DATA           00478094  !      00000000
                _DATA                 DATA           0047c2ac  !      00000001
/mnt/sda5/.user/root/src/openwatcom-1.9/bld/aui/c/wndpop.c
                _TEXT                 CODE           00448f30  !      00000c6b
                CONST                 DATA           00478028  !      00000000
                CONST2                DATA           00478094  !      00000000
                _DATA                 DATA           0047c2b0  !      00000000
/mnt/sda5/.user/root/src/openwatcom-1.9/bld/gui/ui/c/guispawn.c
                _TEXT                 CODE           00449ba0  !      00000041
                CONST                 DATA           00478028  !      00000000
                CONST2                DATA           00478094  !      00000000
                _DATA                 DATA           0047c2b0  !      00000000
/mnt/sda5/.user/root/src/openwatcom-1.9/bld/aui/c/wndgadgt.c
                _TEXT                 CODE           00449bf0  !      00000062
                CONST                 DATA           00478028  !      00000000
                CONST2                DATA           00478094  !      00000000
                _DATA                 DATA           0047c2b0  !      00000002
/mnt/sda5/.user/root/src/openwatcom-1.9/bld/gui/c/guihot.c
                _TEXT                 CODE           00449c60  !      000000c9
                CONST                 DATA           00478028  !      00000000
                CONST2                DATA           00478094  !      00000000
                _DATA                 DATA           0047c2b4  !      00000000
                _BSS                  BSS            00480d70  !      00000004
/mnt/sda5/.user/root/src/openwatcom-1.9/bld/gui/ui/c/guiflush.c
                _TEXT                 CODE           00449d30  !      00000005
                CONST                 DATA           00478028  !      00000000
                CONST2                DATA           00478094  !      00000000
                _DATA                 DATA           0047c2b4  !      00000000
/mnt/sda5/.user/root/src/openwatcom-1.9/bld/aui/c/wndmeth.c
                _TEXT                 CODE           00449d40  !      00000559
                CONST                 DATA           00478028  !      00000001
                CONST2                DATA           00478094  !      00000000
                _DATA                 DATA           0047c2b4  !      00000038
                _BSS                  BSS            00480d74  !      00001134
/mnt/sda5/.user/root/src/openwatcom-1.9/bld/gui/c/guiextra.c
                _TEXT                 CODE           0044a2a0  !      00000014
                CONST                 DATA           0047802c  !      00000000
                CONST2                DATA           00478094  !      00000000
                _DATA                 DATA           0047c2ec  !      00000000
/mnt/sda5/.user/root/src/openwatcom-1.9/bld/gui/ui/c/guixdlg.c
                _TEXT                 CODE           0044a2c0  !      00000fe8
                CONST                 DATA           0047802c  !      00000000
                CONST2                DATA           00478094  !      00000000
                _DATA                 DATA           0047c2ec  !      00000068
/mnt/sda5/.user/root/src/openwatcom-1.9/bld/gui/ui/c/guixaddt.c
                _TEXT                 CODE           0044b2b0  !      0000031e
                CONST                 DATA           0047802c  !      00000000
                CONST2                DATA           00478094  !      00000000
                _DATA                 DATA           0047c354  !      00000000
/mnt/sda5/.user/root/src/openwatcom-1.9/bld/gui/ui/c/guigtext.c
                _TEXT                 CODE           0044b5d0  !      000000fa
                CONST                 DATA           0047802c  !      00000000
                CONST2                DATA           00478094  !      00000000
                _DATA                 DATA           0047c354  !      00000000
/mnt/sda5/.user/root/src/openwatcom-1.9/bld/gui/ui/c/guistext.c
                _TEXT                 CODE           0044b6d0  !      0000009a
                CONST                 DATA           0047802c  !      00000000
                CONST2                DATA           00478094  !      00000000
                _DATA                 DATA           0047c354  !      00000000
/mnt/sda5/.user/root/src/openwatcom-1.9/bld/aui/c/wndfdlg.c
                _TEXT                 CODE           0044b770  !      0000015a
                CONST                 DATA           0047802c  !      00000002
                CONST2                DATA           00478094  !      00000000
                _DATA                 DATA           0047c354  !      00000000
/mnt/sda5/.user/root/src/openwatcom-1.9/bld/gui/ui/c/guicontr.c
                _TEXT                 CODE           0044b8d0  !      0000048b
                CONST                 DATA           00478030  !      00000000
                CONST2                DATA           00478094  !      00000000
                _DATA                 DATA           0047c354  !      00000000
/mnt/sda5/.user/root/src/openwatcom-1.9/bld/aui/c/dlgnew.c
                _TEXT                 CODE           0044bd60  !      00000146
                CONST                 DATA           00478030  !      00000001
                CONST2                DATA           00478094  !      00000000
                _DATA                 DATA           0047c354  !      00000078
/mnt/sda5/.user/root/src/openwatcom-1.9/bld/gui/ui/c/guicheck.c
                _TEXT                 CODE           0044beb0  !      000000c0
                CONST                 DATA           00478034  !      00000000
                CONST2                DATA           00478094  !      00000000
                _DATA                 DATA           0047c3cc  !      00000000
/mnt/sda5/.user/root/src/openwatcom-1.9/bld/gui/ui/c/guihelp.c
                _TEXT                 CODE           0044bf70  !      000000f3
                CONST                 DATA           00478034  !      00000000
                CONST2                DATA           00478094  !      00000000
                _DATA                 DATA           0047c3cc  !      00000008
/mnt/sda5/.user/root/src/openwatcom-1.9/bld/aui/c/wndsel.c
                _TEXT                 CODE           0044c070  !      000004e5
                CONST                 DATA           00478034  !      00000000
                CONST2                DATA           00478094  !      00000000
                _DATA                 DATA           0047c3d4  !      00000000
                _BSS                  BSS            00481ea8  !      00000008
/mnt/sda5/.user/root/src/openwatcom-1.9/bld/aui/c/wndscrol.c
                _TEXT                 CODE           0044c560  !      00000370
                CONST                 DATA           00478034  !      00000000
                CONST2                DATA           00478094  !      00000000
                _DATA                 DATA           0047c3d4  !      00000000
/mnt/sda5/.user/root/src/openwatcom-1.9/bld/aui/c/wndchar.c
                _TEXT                 CODE           0044c8d0  !      0000006c
                CONST                 DATA           00478034  !      00000004
                CONST2                DATA           00478094  !      00000000
                _DATA                 DATA           0047c3d4  !      00000004
/mnt/sda5/.user/root/src/openwatcom-1.9/bld/gui/c/guiwnclr.c
                _TEXT                 CODE           0044c940  !      0000007a
                CONST                 DATA           00478038  !      00000000
                CONST2                DATA           00478094  !      00000000
                _DATA                 DATA           0047c3d8  !      0000001c
/mnt/sda5/.user/root/src/openwatcom-1.9/bld/ui/c/uidata.c
                _TEXT                 CODE           0044c9ba  !      00000000
                CONST                 DATA           00478038  !      00000000
                CONST2                DATA           00478094  !      00000000
                _DATA                 DATA           0047c3f4  !      00000004
/mnt/sda5/.user/root/src/openwatcom-1.9/bld/ui/nt/c/uicurs.c
                _TEXT                 CODE           0044c9ba  !      000001e4
                CONST                 DATA           00478038  !      00000000
                CONST2                DATA           00478094  !      00000000
                _DATA                 DATA           0047c3f8  !      00000000
                _BSS                  BSS            00481eb0  !      00000006
/mnt/sda5/.user/root/src/openwatcom-1.9/bld/ui/nt/c/uievent.c
                _TEXT                 CODE           0044cb9e  !      000004e0
                CONST                 DATA           00478038  !      00000000
                CONST2                DATA           00478094  !      00000000
                _DATA                 DATA           0047c3f8  !      00000000
                _BSS                  BSS            00481eb8  !      00000004
/mnt/sda5/.user/root/src/openwatcom-1.9/bld/ui/c/uialloc.c
                _TEXT                 CODE           0044d07e  !      00000015
                CONST                 DATA           00478038  !      00000000
                CONST2                DATA           00478094  !      00000000
                _DATA                 DATA           0047c3f8  !      00000000
/mnt/sda5/.user/root/src/openwatcom-1.9/bld/ui/c/uigchar.c
                _TEXT                 CODE           0044d093  !      000000a7
                CONST                 DATA           00478038  !      00000000
                CONST2                DATA           00478094  !      00000000
                _DATA                 DATA           0047c3f8  !      00000066
/mnt/sda5/.user/root/src/openwatcom-1.9/bld/ui/c/uiattr.c
                _TEXT                 CODE           0044d13a  !      0000010e
                CONST                 DATA           00478038  !      00000000
                CONST2                DATA           00478094  !      00000000
                _DATA                 DATA           0047c460  !      000000fa
/mnt/sda5/.user/root/src/openwatcom-1.9/bld/ui/c/uiback.c
                _TEXT                 CODE           0044d248  !      000001bf
                CONST                 DATA           00478038  !      00000000
                CONST2                DATA           00478094  !      00000000
                _DATA                 DATA           0047c55c  !      00000000
/mnt/sda5/.user/root/src/openwatcom-1.9/bld/ui/c/uiforce.c
                _TEXT                 CODE           0044d407  !      000000df
                CONST                 DATA           00478038  !      00000000
                CONST2                DATA           00478094  !      00000000
                _DATA                 DATA           0047c55c  !      0000001c
/mnt/sda5/.user/root/src/openwatcom-1.9/bld/ui/c/uimousev.c
                _TEXT                 CODE           0044d4e6  !      0000042c
                CONST                 DATA           00478038  !      00000000
                CONST2                DATA           00478094  !      00000000
                _DATA                 DATA           0047c578  !      00000056
                _BSS                  BSS            00481ebc  !      00000009
ldclass.c       _TEXT                 CODE           0044d912  !      0000005f
                CONST                 DATA           00478038  !      00000000
                CONST2                DATA           00478094  !      00000000
                _DATA                 DATA           0047c5d0  !      00000000
bufld386        _TEXT                 CODE           0044d974  !      000000a3
                _DATA                 DATA           0047c5d0  !      00000000
inf_nan.c       _TEXT                 CODE           0044da17  !      00000028
                CONST                 DATA           00478038  !      00000000
                CONST2                DATA           00478094  !      00000000
                _DATA                 DATA           0047c5d0  !      00000000
/mnt/sda5/.user/root/src/openwatcom-1.9/bld/gui/ui/c/guistat.c
                _TEXT                 CODE           0044da40  !      00000329
                CONST                 DATA           00478038  !      00000000
                CONST2                DATA           00478094  !      00000000
                _DATA                 DATA           0047c5d0  !      00000000
/mnt/sda5/.user/root/src/openwatcom-1.9/bld/aui/c/wndfref.c
                _TEXT                 CODE           0044dd70  !      0000000c
                CONST                 DATA           00478038  !      00000000
                CONST2                DATA           00478094  !      00000000
                _DATA                 DATA           0047c5d0  !      00000000
/mnt/sda5/.user/root/src/openwatcom-1.9/bld/gui/ui/c/guidbclk.c
                _TEXT                 CODE           0044dd80  !      00000011
                CONST                 DATA           00478038  !      00000000
                CONST2                DATA           00478094  !      00000000
                _DATA                 DATA           0047c5d0  !      00000000
/mnt/sda5/.user/root/src/openwatcom-1.9/bld/gui/c/guirscal.c
                _TEXT                 CODE           0044dda0  !      00000060
                CONST                 DATA           00478038  !      00000000
                CONST2                DATA           00478094  !      00000000
                _DATA                 DATA           0047c5d0  !      00000000
/mnt/sda5/.user/root/src/openwatcom-1.9/bld/gui/c/guiscale.c
                _TEXT                 CODE           0044de00  !      00000283
                CONST                 DATA           00478038  !      00000000
                CONST2                DATA           00478094  !      00000000
                _DATA                 DATA           0047c5d0  !      00000000
                _BSS                  BSS            00481ec8  !      00000020
/mnt/sda5/.user/root/src/openwatcom-1.9/bld/aui/c/wndstyle.c
                _TEXT                 CODE           0044e090  !      00000000
                CONST                 DATA           00478038  !      00000000
                CONST2                DATA           00478094  !      00000000
                _DATA                 DATA           0047c5d0  !      00000001
/mnt/sda5/.user/root/src/openwatcom-1.9/bld/gui/ui/c/guixinit.c
                _TEXT                 CODE           0044e090  !      00000156
                CONST                 DATA           00478038  !      00000000
                CONST2                DATA           00478094  !      00000000
                _DATA                 DATA           0047c5d4  !      00000002
/mnt/sda5/.user/root/src/openwatcom-1.9/bld/gui/c/guiimmdi.c
                _TEXT                 CODE           0044e1f0  !      0000004d
                CONST                 DATA           00478038  !      00000000
                CONST2                DATA           00478094  !      00000000
                _DATA                 DATA           0047c5d8  !      00000000
/mnt/sda5/.user/root/src/openwatcom-1.9/bld/gui/ui/c/guimenu.c
                _TEXT                 CODE           0044e240  !      00001034
                CONST                 DATA           00478038  !      00000000
                CONST2                DATA           00478094  !      00000000
                _DATA                 DATA           0047c5d8  !      00000018
/mnt/sda5/.user/root/src/openwatcom-1.9/bld/aui/c/wndimain.c
                _TEXT                 CODE           0044f280  !      00000005
                CONST                 DATA           00478038  !      00000000
                CONST2                DATA           00478094  !      00000000
                _DATA                 DATA           0047c5f0  !      00000000
/mnt/sda5/.user/root/src/openwatcom-1.9/bld/aui/c/wndmnsz.c
                _TEXT                 CODE           0044f290  !      00000023
                CONST                 DATA           00478038  !      00000000
                CONST2                DATA           00478094  !      00000000
                _DATA                 DATA           0047c5f0  !      00000000
/mnt/sda5/.user/root/src/openwatcom-1.9/bld/aui/c/wndbgch.c
                _TEXT                 CODE           0044f2c0  !      00000000
                CONST                 DATA           00478038  !      00000000
                CONST2                DATA           00478094  !      00000000
                _DATA                 DATA           0047c5f0  !      00000001
/mnt/sda5/.user/root/src/openwatcom-1.9/bld/gui/ui/c/guixdraw.c
                _TEXT                 CODE           0044f2c0  !      00000b6e
                CONST                 DATA           00478038  !      00000000
                CONST2                DATA           00478094  !      00000000
                _DATA                 DATA           0047c5f4  !      00000038
                _BSS                  BSS            00481ee8  !      0000001e
/mnt/sda5/.user/root/src/openwatcom-1.9/bld/gui/ui/c/guixsys.c
                _TEXT                 CODE           0044fe30  !      0000041d
                CONST                 DATA           00478038  !      00000000
                CONST2                DATA           00478094  !      00000000
                _DATA                 DATA           0047c62c  !      0000001c
/mnt/sda5/.user/root/src/openwatcom-1.9/bld/gui/ui/c/guixwind.c
                _TEXT                 CODE           00450250  !      000002e1
                CONST                 DATA           00478038  !      00000000
                CONST2                DATA           00478094  !      00000000
                _DATA                 DATA           0047c648  !      00000000
/mnt/sda5/.user/root/src/openwatcom-1.9/bld/gui/ui/c/guigetnr.c
                _TEXT                 CODE           00450540  !      00000005
                CONST                 DATA           00478038  !      00000000
                CONST2                DATA           00478094  !      00000000
                _DATA                 DATA           0047c648  !      00000000
/mnt/sda5/.user/root/src/openwatcom-1.9/bld/gui/ui/c/guitextm.c
                _TEXT                 CODE           00450550  !      00000068
                CONST                 DATA           00478038  !      00000000
                CONST2                DATA           00478094  !      00000000
                _DATA                 DATA           0047c648  !      00000000
/mnt/sda5/.user/root/src/openwatcom-1.9/bld/gui/ui/c/guicrect.c
                _TEXT                 CODE           004505c0  !      0000004f
                CONST                 DATA           00478038  !      00000000
                CONST2                DATA           00478094  !      00000000
                _DATA                 DATA           0047c648  !      00000000
/mnt/sda5/.user/root/src/openwatcom-1.9/bld/gui/ui/c/guirange.c
                _TEXT                 CODE           00450610  !      00000162
                CONST                 DATA           00478038  !      00000000
                CONST2                DATA           00478094  !      00000000
                _DATA                 DATA           0047c648  !      00000000
/mnt/sda5/.user/root/src/openwatcom-1.9/bld/aui/c/wndchoos.c
                _TEXT                 CODE           00450780  !      00000454
                CONST                 DATA           00478038  !      00000000
                CONST2                DATA           00478094  !      00000000
                _DATA                 DATA           0047c648  !      00000000
/mnt/sda5/.user/root/src/openwatcom-1.9/bld/aui/c/wndmouse.c
                _TEXT                 CODE           00450be0  !      00000530
                CONST                 DATA           00478038  !      00000000
                CONST2                DATA           00478094  !      00000000
                _DATA                 DATA           0047c648  !      00000000
                _BSS                  BSS            00481f08  !      0000003b
/mnt/sda5/.user/root/src/openwatcom-1.9/bld/aui/c/wndqryhk.c
                _TEXT                 CODE           00451110  !      00000003
                CONST                 DATA           00478038  !      00000000
                CONST2                DATA           00478094  !      00000000
                _DATA                 DATA           0047c648  !      00000000
/mnt/sda5/.user/root/src/openwatcom-1.9/bld/aui/c/wndendhk.c
                _TEXT                 CODE           00451120  !      00000001
                CONST                 DATA           00478038  !      00000000
                CONST2                DATA           00478094  !      00000000
                _DATA                 DATA           0047c648  !      00000000
/mnt/sda5/.user/root/src/openwatcom-1.9/bld/gui/c/guicreat.c
                _TEXT                 CODE           00451130  !      00000051
                CONST                 DATA           00478038  !      00000000
                CONST2                DATA           00478094  !      00000000
                _DATA                 DATA           0047c648  !      00000001
/mnt/sda5/.user/root/src/openwatcom-1.9/bld/gui/ui/c/guisicon.c
                _TEXT                 CODE           00451190  !      00000045
                CONST                 DATA           00478038  !      00000000
                CONST2                DATA           00478094  !      00000000
                _DATA                 DATA           0047c64c  !      00000000
/mnt/sda5/.user/root/src/openwatcom-1.9/bld/gui/ui/c/guidrect.c
                _TEXT                 CODE           004511e0  !      00000137
                CONST                 DATA           00478038  !      00000000
                CONST2                DATA           00478094  !      00000000
                _DATA                 DATA           0047c64c  !      00000000
/mnt/sda5/.user/root/src/openwatcom-1.9/bld/gui/ui/c/guidrow.c
                _TEXT                 CODE           00451320  !      00000049
                CONST                 DATA           00478038  !      00000000
                CONST2                DATA           00478094  !      00000000
                _DATA                 DATA           0047c64c  !      00000000
/mnt/sda5/.user/root/src/openwatcom-1.9/bld/gui/ui/c/guiscrol.c
                _TEXT                 CODE           00451370  !      00000244
                CONST                 DATA           00478038  !      00000000
                CONST2                DATA           00478094  !      00000000
                _DATA                 DATA           0047c64c  !      00000000
/mnt/sda5/.user/root/src/openwatcom-1.9/bld/gui/c/guidraw.c
                _TEXT                 CODE           004515c0  !      000001bf
                CONST                 DATA           00478038  !      00000000
                CONST2                DATA           00478094  !      00000000
                _DATA                 DATA           0047c64c  !      00000000
/mnt/sda5/.user/root/src/openwatcom-1.9/bld/gui/ui/c/guidoscr.c
                _TEXT                 CODE           00451780  !      000001ce
                CONST                 DATA           00478038  !      00000000
                CONST2                DATA           00478094  !      00000000
                _DATA                 DATA           0047c64c  !      00000000
/mnt/sda5/.user/root/src/openwatcom-1.9/bld/gui/ui/c/guidirty.c
                _TEXT                 CODE           00451950  !      00000086
                CONST                 DATA           00478038  !      00000000
                CONST2                DATA           00478094  !      00000000
                _DATA                 DATA           0047c64c  !      00000000
/mnt/sda5/.user/root/src/openwatcom-1.9/bld/gui/c/guipixel.c
                _TEXT                 CODE           004519e0  !      00000017
                CONST                 DATA           00478038  !      00000000
                CONST2                DATA           00478094  !      00000000
                _DATA                 DATA           0047c64c  !      00000000
/mnt/sda5/.user/root/src/openwatcom-1.9/bld/gui/ui/c/guixtent.c
                _TEXT                 CODE           00451a00  !      0000008e
                CONST                 DATA           00478038  !      00000000
                CONST2                DATA           00478094  !      00000000
                _DATA                 DATA           0047c64c  !      00000000
/mnt/sda5/.user/root/src/openwatcom-1.9/bld/gui/ui/c/guirect.c
                _TEXT                 CODE           00451a90  !      0000006c
                CONST                 DATA           00478038  !      00000000
                CONST2                DATA           00478094  !      00000000
                _DATA                 DATA           0047c64c  !      00000000
/mnt/sda5/.user/root/src/openwatcom-1.9/bld/gui/ui/c/guimouse.c
                _TEXT                 CODE           00451b00  !      00000057
                CONST                 DATA           00478038  !      00000000
                CONST2                DATA           00478094  !      00000000
                _DATA                 DATA           0047c64c  !      00000000
/mnt/sda5/.user/root/src/openwatcom-1.9/bld/gui/ui/c/guisize.c
                _TEXT                 CODE           00451b60  !      00000e68
                CONST                 DATA           00478038  !      00000000
                CONST2                DATA           00478094  !      00000000
                _DATA                 DATA           0047c64c  !      00000000
/mnt/sda5/.user/root/src/openwatcom-1.9/bld/gui/c/guizlist.c
                _TEXT                 CODE           004529d0  !      000000d7
                CONST                 DATA           00478038  !      00000000
                CONST2                DATA           00478094  !      00000000
                _DATA                 DATA           0047c64c  !      00000004
/mnt/sda5/.user/root/src/openwatcom-1.9/bld/gui/ui/c/guixdisp.c
                _TEXT                 CODE           00452ab0  !      00000771
                CONST                 DATA           00478038  !      00000000
                CONST2                DATA           00478094  !      00000000
                _DATA                 DATA           0047c650  !      00000291
/mnt/sda5/.user/root/src/openwatcom-1.9/bld/gui/ui/c/guildstr.c
                _TEXT                 CODE           00453230  !      00000239
                CONST                 DATA           00478038  !      00000000
                CONST2                DATA           00478094  !      00000000
                _DATA                 DATA           0047c8e4  !      0000002c
/mnt/sda5/.user/root/src/openwatcom-1.9/bld/ui/c/uichlen.c
                _TEXT                 CODE           00453469  !      00000033
                CONST                 DATA           00478038  !      00000000
                CONST2                DATA           00478094  !      00000000
                _DATA                 DATA           0047c910  !      00000000
/mnt/sda5/.user/root/src/openwatcom-1.9/bld/gui/ui/c/guifront.c
                _TEXT                 CODE           004534a0  !      000000fe
                CONST                 DATA           00478038  !      00000000
                CONST2                DATA           00478094  !      00000000
                _DATA                 DATA           0047c910  !      00000000
/mnt/sda5/.user/root/src/openwatcom-1.9/bld/gui/ui/c/guistrin.c
                _TEXT                 CODE           004535a0  !      00000049
                CONST                 DATA           00478038  !      00000000
                CONST2                DATA           00478094  !      00000000
                _DATA                 DATA           0047c910  !      00000000
/mnt/sda5/.user/root/src/openwatcom-1.9/bld/gui/ui/c/guixbar.c
                _TEXT                 CODE           004535f0  !      000000e1
                CONST                 DATA           00478038  !      00000000
                CONST2                DATA           00478094  !      00000000
                _DATA                 DATA           0047c910  !      00000000
/mnt/sda5/.user/root/src/openwatcom-1.9/bld/gui/ui/c/guidrawr.c
                _TEXT                 CODE           004536e0  !      000003a5
                CONST                 DATA           00478038  !      00000000
                CONST2                DATA           00478094  !      00000000
                _DATA                 DATA           0047c910  !      00000000
/mnt/sda5/.user/root/src/openwatcom-1.9/bld/gui/ui/c/guixhot.c
                _TEXT                 CODE           00453a90  !      000000fc
                CONST                 DATA           00478038  !      00000000
                CONST2                DATA           00478094  !      00000000
                _DATA                 DATA           0047c910  !      00000004
/mnt/sda5/.user/root/src/openwatcom-1.9/bld/gui/ui/c/guitool.c
                _TEXT                 CODE           00453b90  !      000007c2
                CONST                 DATA           00478038  !      00000000
                CONST2                DATA           00478094  !      00000000
                _DATA                 DATA           0047c914  !      00000080
/mnt/sda5/.user/root/src/openwatcom-1.9/bld/gui/c/guihtool.c
                _TEXT                 CODE           00454360  !      00000143
                CONST                 DATA           00478038  !      00000000
                CONST2                DATA           00478094  !      00000000
                _DATA                 DATA           0047c994  !      00000000
/mnt/sda5/.user/root/src/openwatcom-1.9/bld/ui/c/uimenu.c
                _TEXT                 CODE           004544a3  !      0000129a
                CONST                 DATA           00478038  !      00000000
                CONST2                DATA           00478094  !      00000000
                _DATA                 DATA           0047c994  !      00000059
                _BSS                  BSS            00481f44  !      000000b0
/mnt/sda5/.user/root/src/openwatcom-1.9/bld/gui/ui/c/guiwhole.c
                _TEXT                 CODE           00455740  !      0000002a
                CONST                 DATA           00478038  !      00000000
                CONST2                DATA           00478094  !      00000000
                _DATA                 DATA           0047c9f0  !      00000000
/mnt/sda5/.user/root/src/openwatcom-1.9/bld/ui/c/uigadget.c
                _TEXT                 CODE           0045576a  !      00000537
                CONST                 DATA           00478038  !      00000000
                CONST2                DATA           00478094  !      00000000
                _DATA                 DATA           0047c9f0  !      0000001b
/mnt/sda5/.user/root/src/openwatcom-1.9/bld/gui/c/guisdef.c
                _TEXT                 CODE           00455cb0  !      00000000
                CONST                 DATA           00478038  !      00000000
                CONST2                DATA           00478094  !      00000000
                _DATA                 DATA           0047ca0c  !      00000000
                _BSS                  BSS            00481ff4  !      00000118
/mnt/sda5/.user/root/src/openwatcom-1.9/bld/gui/c/guidlg.c
                _TEXT                 CODE           00455cb0  !      0000008f
                CONST                 DATA           00478038  !      00000000
                CONST2                DATA           00478094  !      00000000
                _DATA                 DATA           0047ca0c  !      00000000
/mnt/sda5/.user/root/src/openwatcom-1.9/bld/ui/c/uidialog.c
                _TEXT                 CODE           00455d3f  !      000016bb
                CONST                 DATA           00478038  !      00000000
                CONST2                DATA           00478094  !      00000000
                _DATA                 DATA           0047ca0c  !      0000005a
/mnt/sda5/.user/root/src/openwatcom-1.9/bld/gui/c/guiutil.c
                _TEXT                 CODE           00457400  !      00000175
                CONST                 DATA           00478038  !      00000000
                CONST2                DATA           00478094  !      00000000
                _DATA                 DATA           0047ca68  !      0000000c
/mnt/sda5/.user/root/src/openwatcom-1.9/bld/gui/ui/c/guihotsp.c
                _TEXT                 CODE           00457580  !      000000f4
                CONST                 DATA           00478038  !      00000000
                CONST2                DATA           00478094  !      00000000
                _DATA                 DATA           0047ca74  !      00000000
/mnt/sda5/.user/root/src/openwatcom-1.9/bld/aui/c/rxwrap.c
                _TEXT                 CODE           00457680  !      0000122d
                CONST                 DATA           00478038  !      00000000
                CONST2                DATA           00478094  !      00000000
                _DATA                 DATA           0047ca74  !      0000000f
                _BSS                  BSS            0048210c  !      00000025
/mnt/sda5/.user/root/src/openwatcom-1.9/bld/gui/c/guihflt.c
                _TEXT                 CODE           004588b0  !      0000006d
                CONST                 DATA           00478038  !      00000000
                CONST2                DATA           00478094  !      00000000
                _DATA                 DATA           0047ca84  !      00000000
/mnt/sda5/.user/root/src/openwatcom-1.9/bld/ui/nt/c/uispawn.c
                _TEXT                 CODE           0045891d  !      00000038
                CONST                 DATA           00478038  !      00000000
                CONST2                DATA           00478094  !      00000000
                _DATA                 DATA           0047ca84  !      00000000
/mnt/sda5/.user/root/src/openwatcom-1.9/bld/ui/c/uiblank.c
                _TEXT                 CODE           00458955  !      000000a2
                CONST                 DATA           00478038  !      00000000
                CONST2                DATA           00478094  !      00000000
                _DATA                 DATA           0047ca84  !      00000000
/mnt/sda5/.user/root/src/openwatcom-1.9/bld/ui/c/uidirty.c
                _TEXT                 CODE           004589f7  !      000000ed
                CONST                 DATA           00478038  !      00000000
                CONST2                DATA           00478094  !      00000000
                _DATA                 DATA           0047ca84  !      00000000
/mnt/sda5/.user/root/src/openwatcom-1.9/bld/gui/c/guihook.c
                _TEXT                 CODE           00458af0  !      00000204
                CONST                 DATA           00478038  !      00000000
                CONST2                DATA           00478094  !      00000000
                _DATA                 DATA           0047ca84  !      0000002c
/mnt/sda5/.user/root/src/openwatcom-1.9/bld/ui/nt/c/uiget.c
                _TEXT                 CODE           00458cf4  !      000000ac
                CONST                 DATA           00478038  !      00000000
                CONST2                DATA           00478094  !      00000000
                _DATA                 DATA           0047cab0  !      00000004
/mnt/sda5/.user/root/src/openwatcom-1.9/bld/ui/c/uilist.c
                _TEXT                 CODE           00458da0  !      0000010b
                CONST                 DATA           00478038  !      00000000
                CONST2                DATA           00478094  !      00000000
                _DATA                 DATA           0047cab4  !      0000007c
/mnt/sda5/.user/root/src/openwatcom-1.9/bld/gui/ui/c/guilistb.c
                _TEXT                 CODE           00458eb0  !      00000583
                CONST                 DATA           00478038  !      00000000
                CONST2                DATA           00478094  !      00000000
                _DATA                 DATA           0047cb30  !      00000000
/mnt/sda5/.user/root/src/openwatcom-1.9/bld/gui/ui/c/guixutil.c
                _TEXT                 CODE           00459440  !      00000627
                CONST                 DATA           00478038  !      00000000
                CONST2                DATA           00478094  !      00000000
                _DATA                 DATA           0047cb30  !      00000000
/mnt/sda5/.user/root/src/openwatcom-1.9/bld/gui/c/guimkey.c
                _TEXT                 CODE           00459a70  !      00000477
                CONST                 DATA           00478038  !      00000000
                CONST2                DATA           00478094  !      00000000
                _DATA                 DATA           0047cb30  !      00000001
/mnt/sda5/.user/root/src/openwatcom-1.9/bld/gui/ui/c/guirdlg.c
                _TEXT                 CODE           00459ef0  !      00000bf5
                CONST                 DATA           00478038  !      00000000
                CONST2                DATA           00478094  !      00000000
                _DATA                 DATA           0047cb34  !      00000000
/mnt/sda5/.user/root/src/openwatcom-1.9/bld/ui/c/uiyield.c
                _TEXT                 CODE           0045aae5  !      00000001
                CONST                 DATA           00478038  !      00000000
                CONST2                DATA           00478094  !      00000000
                _DATA                 DATA           0047cb34  !      00000000
/mnt/sda5/.user/root/src/openwatcom-1.9/bld/gui/ui/c/guixloop.c
                _TEXT                 CODE           0045aaf0  !      00001038
                CONST                 DATA           00478038  !      00000000
                CONST2                DATA           00478094  !      00000000
                _DATA                 DATA           0047cb34  !      00000034
                _BSS                  BSS            00482134  !      00000001
/mnt/sda5/.user/root/src/openwatcom-1.9/bld/gui/ui/c/guifdlg.c
                _TEXT                 CODE           0045bb30  !      00001682
                CONST                 DATA           00478038  !      00000000
                CONST2                DATA           00478094  !      00000000
                _DATA                 DATA           0047cb68  !      000001e1
/mnt/sda5/.user/root/src/openwatcom-1.9/bld/gui/ui/c/guixscal.c
                _TEXT                 CODE           0045d1c0  !      0000014b
                CONST                 DATA           00478038  !      00000000
                CONST2                DATA           00478094  !      00000000
                _DATA                 DATA           0047cd4c  !      00000000
/mnt/sda5/.user/root/src/openwatcom-1.9/bld/help/c/helpopen.c
                _TEXT                 CODE           0045d310  !      0000043e
                CONST                 DATA           00478038  !      00000000
                CONST2                DATA           00478094  !      00000000
                _DATA                 DATA           0047cd4c  !      00000078
                _BSS                  BSS            00482138  !      00000004
/mnt/sda5/.user/root/src/openwatcom-1.9/bld/help/c/help.c
                _TEXT                 CODE           0045d750  !      000021fa
                CONST                 DATA           00478038  !      00000000
                CONST2                DATA           00478094  !      00000000
                _DATA                 DATA           0047cdc4  !      000001b8
                _BSS                  BSS            0048213c  !      00000175
/mnt/sda5/.user/root/src/openwatcom-1.9/bld/gui/ui/c/guithumb.c
                _TEXT                 CODE           0045f950  !      000000fc
                CONST                 DATA           00478038  !      00000000
                CONST2                DATA           00478094  !      00000000
                _DATA                 DATA           0047cf7c  !      00000000
/mnt/sda5/.user/root/src/openwatcom-1.9/bld/gui/ui/c/guigscrl.c
                _TEXT                 CODE           0045fa50  !      00000099
                CONST                 DATA           00478038  !      00000000
                CONST2                DATA           00478094  !      00000000
                _DATA                 DATA           0047cf7c  !      00000000
/mnt/sda5/.user/root/src/openwatcom-1.9/bld/ui/nt/c/uibmous.c
                _TEXT                 CODE           0045fae9  !      0000005c
                CONST                 DATA           00478038  !      00000000
                CONST2                DATA           00478094  !      00000000
                _DATA                 DATA           0047cf7c  !      00000003
                _BSS                  BSS            004822b4  !      00000002
/mnt/sda5/.user/root/src/openwatcom-1.9/bld/ui/c/uibfill.c
                _TEXT                 CODE           0045fb45  !      00000043
                CONST                 DATA           00478038  !      00000000
                CONST2                DATA           00478094  !      00000000
                _DATA                 DATA           0047cf80  !      00000000
/mnt/sda5/.user/root/src/openwatcom-1.9/bld/ui/c/uibcopy.c
                _TEXT                 CODE           0045fb88  !      0000004b
                CONST                 DATA           00478038  !      00000000
                CONST2                DATA           00478094  !      00000000
                _DATA                 DATA           0047cf80  !      00000000
/mnt/sda5/.user/root/src/openwatcom-1.9/bld/ui/c/uirefer.c
                _TEXT                 CODE           0045fbd3  !      00000005
                CONST                 DATA           00478038  !      00000000
                CONST2                DATA           00478094  !      00000000
                _DATA                 DATA           0047cf80  !      00000000
/mnt/sda5/.user/root/src/openwatcom-1.9/bld/ui/c/uiwin.c
                _TEXT                 CODE           0045fbd8  !      00000182
                CONST                 DATA           00478038  !      00000000
                CONST2                DATA           00478094  !      00000000
                _DATA                 DATA           0047cf80  !      00000000
/mnt/sda5/.user/root/src/openwatcom-1.9/bld/ui/c/uiballoc.c
                _TEXT                 CODE           0045fd5a  !      00000042
                CONST                 DATA           00478038  !      00000000
                CONST2                DATA           00478094  !      00000000
                _DATA                 DATA           0047cf80  !      00000000
/mnt/sda5/.user/root/src/openwatcom-1.9/bld/ui/c/uivscrn.c
                _TEXT                 CODE           0045fd9c  !      000000af
                CONST                 DATA           00478038  !      00000000
                CONST2                DATA           00478094  !      00000000
                _DATA                 DATA           0047cf80  !      00000000
/mnt/sda5/.user/root/src/openwatcom-1.9/bld/ui/c/uivfill.c
                _TEXT                 CODE           0045fe4b  !      00000068
                CONST                 DATA           00478038  !      00000000
                CONST2                DATA           00478094  !      00000000
                _DATA                 DATA           0047cf80  !      00000000
/mnt/sda5/.user/root/src/openwatcom-1.9/bld/ui/c/uivstr.c
                _TEXT                 CODE           0045feb3  !      00000181
                CONST                 DATA           00478038  !      00000000
                CONST2                DATA           00478094  !      00000000
                _DATA                 DATA           0047cf80  !      00000000
/mnt/sda5/.user/root/src/openwatcom-1.9/bld/gui/ui/c/guiximdi.c
                _TEXT                 CODE           00460040  !      00000076
                CONST                 DATA           00478038  !      00000000
                CONST2                DATA           00478094  !      00000000
                _DATA                 DATA           0047cf80  !      00000000
/mnt/sda5/.user/root/src/openwatcom-1.9/bld/gui/c/guimdi.c
                _TEXT                 CODE           004600c0  !      00000a15
                CONST                 DATA           00478038  !      00000000
                CONST2                DATA           00478094  !      00000000
                _DATA                 DATA           0047cf80  !      00000048
                _BSS                  BSS            004822b8  !      000002f4
/mnt/sda5/.user/root/src/openwatcom-1.9/bld/gui/ui/c/guifloat.c
                _TEXT                 CODE           00460ae0  !      00000449
                CONST                 DATA           00478038  !      00000000
                CONST2                DATA           00478094  !      00000000
                _DATA                 DATA           0047cfc8  !      0000000c
/mnt/sda5/.user/root/src/openwatcom-1.9/bld/gui/c/guihint.c
                _TEXT                 CODE           00460f30  !      000005e8
                CONST                 DATA           00478038  !      00000000
                CONST2                DATA           00478094  !      00000000
                _DATA                 DATA           0047cfd4  !      00000000
/mnt/sda5/.user/root/src/openwatcom-1.9/bld/gui/ui/c/guisysme.c
                _TEXT                 CODE           00461520  !      00000224
                CONST                 DATA           00478038  !      00000000
                CONST2                DATA           00478094  !      00000000
                _DATA                 DATA           0047cfd4  !      00000070
/mnt/sda5/.user/root/src/openwatcom-1.9/bld/gui/ui/c/guirmenu.c
                _TEXT                 CODE           00461750  !      00000611
                CONST                 DATA           00478038  !      00000000
                CONST2                DATA           00478094  !      00000000
                _DATA                 DATA           0047d044  !      00000000
/mnt/sda5/.user/root/src/openwatcom-1.9/bld/gui/ui/c/guigadgt.c
                _TEXT                 CODE           00461d70  !      000004b6
                CONST                 DATA           00478038  !      00000000
                CONST2                DATA           00478094  !      00000000
                _DATA                 DATA           0047d044  !      00000004
/mnt/sda5/.user/root/src/openwatcom-1.9/bld/gui/ui/c/guiicon.c
                _TEXT                 CODE           00462230  !      000000cf
                CONST                 DATA           00478038  !      00000000
                CONST2                DATA           00478094  !      00000000
                _DATA                 DATA           0047d048  !      00000000
/mnt/sda5/.user/root/src/openwatcom-1.9/bld/ui/c/uimget.c
                _TEXT                 CODE           004622ff  !      00000026
                CONST                 DATA           00478038  !      00000000
                CONST2                DATA           00478094  !      00000000
                _DATA                 DATA           0047d048  !      00000000
/mnt/sda5/.user/root/src/openwatcom-1.9/bld/gui/ui/c/guiuiev.c
                _TEXT                 CODE           00462330  !      00000001
                CONST                 DATA           00478038  !      00000000
                CONST2                DATA           00478094  !      00000000
                _DATA                 DATA           0047d048  !      00000000
/mnt/sda5/.user/root/src/openwatcom-1.9/bld/gui/c/guiev.c
                _TEXT                 CODE           00462340  !      00000001
                CONST                 DATA           00478038  !      00000000
                CONST2                DATA           00478094  !      00000000
                _DATA                 DATA           0047d048  !      00000000
/mnt/sda5/.user/root/src/openwatcom-1.9/bld/gui/c/guistr.c
                _TEXT                 CODE           00462350  !      0000072f
                CONST                 DATA           00478038  !      00000000
                CONST2                DATA           00478094  !      00000000
                _DATA                 DATA           0047d048  !      00000000
                _BSS                  BSS            004825ac  !      00000080
/mnt/sda5/.user/root/src/openwatcom-1.9/bld/gui/c/guideath.c
                _TEXT                 CODE           00462a80  !      00000006
                CONST                 DATA           00478038  !      00000000
                CONST2                DATA           00478094  !      00000000
                _DATA                 DATA           0047d048  !      00000000
/mnt/sda5/.user/root/src/openwatcom-1.9/bld/gui/c/guiextnm.c
                _TEXT                 CODE           00462a90  !      00000064
                CONST                 DATA           00478038  !      00000000
                CONST2                DATA           00478094  !      00000000
                _DATA                 DATA           0047d048  !      00000104
/mnt/sda5/.user/root/src/openwatcom-1.9/bld/gui/c/guidead.c
                _TEXT                 CODE           00462b00  !      00000006
                CONST                 DATA           00478038  !      00000000
                CONST2                DATA           00478094  !      00000000
                _DATA                 DATA           0047d14c  !      00000000
/mnt/sda5/.user/root/src/openwatcom-1.9/bld/gui/ui/c/guixmain.c
                _TEXT                 CODE           00462b10  !      00000005
                CONST                 DATA           00478038  !      00000000
                CONST2                DATA           00478094  !      00000000
                _DATA                 DATA           0047d14c  !      00000001
/mnt/sda5/.user/root/src/openwatcom-1.9/bld/gui/c/guifcrck.c
                _TEXT                 CODE           00462b20  !      00000003
                CONST                 DATA           00478038  !      00000000
                CONST2                DATA           00478094  !      00000000
                _DATA                 DATA           0047d150  !      00000000
/mnt/sda5/.user/root/src/openwatcom-1.9/bld/ui/c/uivopen.c
                _TEXT                 CODE           00462b23  !      000003b5
                CONST                 DATA           00478038  !      00000000
                CONST2                DATA           00478094  !      00000000
                _DATA                 DATA           0047d150  !      00000000
/mnt/sda5/.user/root/src/openwatcom-1.9/bld/ui/c/uivhide.c
                _TEXT                 CODE           00462ed8  !      00000046
                CONST                 DATA           00478038  !      00000000
                CONST2                DATA           00478094  !      00000000
                _DATA                 DATA           0047d150  !      00000000
/mnt/sda5/.user/root/src/openwatcom-1.9/bld/gui/c/guisetup.c
                _TEXT                 CODE           00462f20  !      00000048
                CONST                 DATA           00478038  !      00000000
                CONST2                DATA           00478094  !      00000000
                _DATA                 DATA           0047d150  !      00000000
/mnt/sda5/.user/root/src/openwatcom-1.9/bld/gui/ui/c/guidrawt.c
                _TEXT                 CODE           00462f70  !      00000313
                CONST                 DATA           00478038  !      00000000
                CONST2                DATA           00478094  !      00000000
                _DATA                 DATA           0047d150  !      00000000
/mnt/sda5/.user/root/src/openwatcom-1.9/bld/ui/c/uivmove.c
                _TEXT                 CODE           00463283  !      00000136
                CONST                 DATA           00478038  !      00000000
                CONST2                DATA           00478094  !      00000000
                _DATA                 DATA           0047d150  !      00000000
strcspn.c       _TEXT                 CODE           004633c0  !      00000048
                CONST                 DATA           00478038  !      00000000
                CONST2                DATA           00478094  !      00000000
                _DATA                 DATA           0047d150  !      00000000
strnset.c       _TEXT                 CODE           00463410  !      00000017
                CONST                 DATA           00478038  !      00000000
                CONST2                DATA           00478094  !      00000000
                _DATA                 DATA           0047d150  !      00000000
tell.c          _TEXT                 CODE           00463430  !      00000011
                CONST                 DATA           00478038  !      00000000
                CONST2                DATA           00478094  !      00000000
                _DATA                 DATA           0047d150  !      00000000
loadfind.c      _TEXT                 CODE           00463450  !      00000119
                CONST                 DATA           00478038  !      00000000
                CONST2                DATA           00478094  !      00000000
                _DATA                 DATA           0047d150  !      00000004
loadstr.c       _TEXT                 CODE           00463570  !      00000274
                CONST                 DATA           00478038  !      00000000
                CONST2                DATA           00478094  !      00000000
                _DATA                 DATA           0047d154  !      00000000
                _BSS                  BSS            0048262c  !      00000004
iob.c           _TEXT                 CODE           004637f0  !      00000000
                CONST                 DATA           00478038  !      00000000
                CONST2                DATA           00478094  !      00000000
                _DATA                 DATA           0047d154  !      0000020c
                _BSS                  BSS            00482630  !      00000008
                XIB                   DATA           0047db3e  !      00000000
                XI                    DATA           0047db44  !      00000006
                XIE                   DATA           0047db7a  !      00000000
                YIB                   DATA           0047db7a  !      00000000
                YI                    DATA           0047db80  !      00000006
                YIE                   DATA           0047db9e  !      00000000
loadres.c       _TEXT                 CODE           004637f0  !      00000111
                CONST                 DATA           00478038  !      00000000
                CONST2                DATA           00478094  !      00000000
                _DATA                 DATA           0047d360  !      00000000
mbisdbcs.c      _TEXT                 CODE           00463910  !      00000000
                CONST                 DATA           00478038  !      00000000
                CONST2                DATA           00478094  !      00000000
                _DATA                 DATA           0047d360  !      00000000
                _BSS                  BSS            00482638  !      00000004
mbislead.c      _TEXT                 CODE           00463910  !      00000017
                CONST                 DATA           00478038  !      00000000
                CONST2                DATA           00478094  !      00000000
                _DATA                 DATA           0047d360  !      00000000
                _BSS                  BSS            0048263c  !      00000101
                XIB                   DATA           0047db3e  !      00000000
                XI                    DATA           0047db4a  !      00000006
                XIE                   DATA           0047db7a  !      00000000
nonibm.c        _TEXT                 CODE           00463930  !      00000018
                CONST                 DATA           00478038  !      00000000
                CONST2                DATA           00478094  !      00000000
                _DATA                 DATA           0047d360  !      00000004
                XIB                   DATA           0047db3e  !      00000000
                XI                    DATA           0047db50  !      00000006
                XIE                   DATA           0047db7a  !      00000000
/mnt/sda5/.user/root/src/openwatcom-1.9/bld/ui/c/uibox.c
                _TEXT                 CODE           00463948  !      0000028c
                CONST                 DATA           00478038  !      00000000
                CONST2                DATA           00478094  !      00000000
                _DATA                 DATA           0047d364  !      00000000
/mnt/sda5/.user/root/src/openwatcom-1.9/bld/ui/c/uibstr.c
                _TEXT                 CODE           00463bd4  !      00000066
                CONST                 DATA           00478038  !      00000000
                CONST2                DATA           00478094  !      00000000
                _DATA                 DATA           0047d364  !      00000000
/mnt/sda5/.user/root/src/openwatcom-1.9/bld/ui/c/uipopup.c
                _TEXT                 CODE           00463c3a  !      00000aed
                CONST                 DATA           00478038  !      00000000
                CONST2                DATA           00478094  !      00000000
                _DATA                 DATA           0047d364  !      00000078
/mnt/sda5/.user/root/src/openwatcom-1.9/bld/ui/c/uivutil.c
                _TEXT                 CODE           00464727  !      00000053
                CONST                 DATA           00478038  !      00000000
                CONST2                DATA           00478094  !      00000000
                _DATA                 DATA           0047d3dc  !      00000000
/mnt/sda5/.user/root/src/openwatcom-1.9/bld/gui/ui/c/uimenucr.c
                _TEXT                 CODE           00464780  !      00000005
                CONST                 DATA           00478038  !      00000000
                CONST2                DATA           00478094  !      00000000
                _DATA                 DATA           0047d3dc  !      00000000
/mnt/sda5/.user/root/src/openwatcom-1.9/bld/ui/c/uipget.c
                _TEXT                 CODE           00464785  !      00000055
                CONST                 DATA           00478038  !      00000000
                CONST2                DATA           00478094  !      00000000
                _DATA                 DATA           0047d3dc  !      00000000
                _BSS                  BSS            00482740  !      00000004
/mnt/sda5/.user/root/src/openwatcom-1.9/bld/ui/c/uiprot.c
                _TEXT                 CODE           004647da  !      00000047
                CONST                 DATA           00478038  !      00000000
                CONST2                DATA           00478094  !      00000000
                _DATA                 DATA           0047d3dc  !      00000000
/mnt/sda5/.user/root/src/openwatcom-1.9/bld/ui/c/uiledit.c
                _TEXT                 CODE           00464821  !      0000043c
                CONST                 DATA           00478038  !      00000000
                CONST2                DATA           00478094  !      00000000
                _DATA                 DATA           0047d3dc  !      0000001c
/mnt/sda5/.user/root/src/openwatcom-1.9/bld/ui/c/uimisc.c
                _TEXT                 CODE           00464c5d  !      00000186
                CONST                 DATA           00478038  !      00000000
                CONST2                DATA           00478094  !      00000000
                _DATA                 DATA           0047d3f8  !      00000000
/mnt/sda5/.user/root/src/openwatcom-1.9/bld/ui/c/uilstbox.c
                _TEXT                 CODE           00464de3  !      0000089a
                CONST                 DATA           00478038  !      00000000
                CONST2                DATA           00478094  !      00000000
                _DATA                 DATA           0047d3f8  !      0000004e
/mnt/sda5/.user/root/src/openwatcom-1.9/bld/ui/c/uihotspt.c
                _TEXT                 CODE           0046567d  !      00000557
                CONST                 DATA           00478038  !      00000000
                CONST2                DATA           00478094  !      00000000
                _DATA                 DATA           0047d448  !      00000004
strncat.c       _TEXT                 CODE           00465be0  !      00000039
                CONST                 DATA           00478038  !      00000000
                CONST2                DATA           00478094  !      00000000
                _DATA                 DATA           0047d44c  !      00000000
/mnt/sda5/.user/root/src/openwatcom-1.9/bld/gui/ui/c/uidchfld.c
                _TEXT                 CODE           00465c20  !      00000005
                CONST                 DATA           00478038  !      00000000
                CONST2                DATA           00478094  !      00000000
                _DATA                 DATA           0047d44c  !      00000000
/mnt/sda5/.user/root/src/openwatcom-1.9/bld/ui/c/uidevent.c
                _TEXT                 CODE           00465c25  !      00000005
                CONST                 DATA           00478038  !      00000000
                CONST2                DATA           00478094  !      00000000
                _DATA                 DATA           0047d44c  !      00000000
/mnt/sda5/.user/root/src/openwatcom-1.9/bld/help/c/dialcb.c
                _TEXT                 CODE           00465c30  !      00000008
                CONST                 DATA           00478038  !      00000000
                CONST2                DATA           00478094  !      00000000
                _DATA                 DATA           0047d44c  !      00000000
strncmp.c       _TEXT                 CODE           00465c40  !      00000029
                CONST                 DATA           00478038  !      00000000
                CONST2                DATA           00478094  !      00000000
                _DATA                 DATA           0047d44c  !      00000000
/mnt/sda5/.user/root/src/openwatcom-1.9/bld/ui/c/uiarea.c
                _TEXT                 CODE           00465c69  !      000001b4
                CONST                 DATA           00478038  !      00000000
                CONST2                DATA           00478094  !      00000000
                _DATA                 DATA           0047d44c  !      00000000
/mnt/sda5/.user/root/src/openwatcom-1.9/bld/gui/ui/c/guimapky.c
                _TEXT                 CODE           00465e20  !      0000050b
                CONST                 DATA           00478038  !      00000000
                CONST2                DATA           00478094  !      00000000
                _DATA                 DATA           0047d44c  !      00000000
itoa.c          _TEXT                 CODE           00466330  !      00000074
                CONST                 DATA           00478038  !      00000000
                CONST2                DATA           00478094  !      00000000
                _DATA                 DATA           0047d44c  !      00000000
/mnt/sda5/.user/root/src/openwatcom-1.9/bld/gui/ui/c/guismove.c
                _TEXT                 CODE           004663b0  !      000004d6
                CONST                 DATA           00478038  !      00000000
                CONST2                DATA           00478094  !      00000000
                _DATA                 DATA           0047d44c  !      00000014
                _BSS                  BSS            00482744  !      00000001
/mnt/sda5/.user/root/src/openwatcom-1.9/bld/gui/ui/c/guikey.c
                _TEXT                 CODE           00466890  !      0000008f
                CONST                 DATA           00478038  !      00000000
                CONST2                DATA           00478094  !      00000000
                _DATA                 DATA           0047d460  !      00000000
/mnt/sda5/.user/root/src/openwatcom-1.9/bld/gui/ui/c/guixhook.c
                _TEXT                 CODE           00466920  !      00000023
                CONST                 DATA           00478038  !      00000000
                CONST2                DATA           00478094  !      00000000
                _DATA                 DATA           0047d460  !      00000004
sdrvewnt.c      _TEXT                 CODE           00466950  !      0000002d
                CONST                 DATA           00478038  !      00000000
                CONST2                DATA           00478094  !      00000000
                _DATA                 DATA           0047d464  !      00000000
chdirwnt.c      _TEXT                 CODE           00466980  !      0000001a
                CONST                 DATA           00478038  !      00000000
                CONST2                DATA           00478094  !      00000000
                _DATA                 DATA           0047d464  !      00000000
_istrcc_.asm    _TEXT                 CODE           0046699c  !      00000005
                _DATA                 DATA           0047d464  !      00000000
strtok.c        _TEXT                 CODE           004669b0  !      000000be
                CONST                 DATA           00478038  !      00000000
                CONST2                DATA           00478094  !      00000000
                _DATA                 DATA           0047d464  !      00000000
gtcwdwnt.c      _TEXT                 CODE           00466a70  !      00000081
                CONST                 DATA           00478038  !      00000000
                CONST2                DATA           00478094  !      00000000
                _DATA                 DATA           0047d464  !      00000000
dirwnt.c        _TEXT                 CODE           00466b00  !      000003e7
                CONST                 DATA           00478038  !      00000000
                CONST2                DATA           00478094  !      00000000
                _DATA                 DATA           0047d464  !      00000000
statwnt.c       _TEXT                 CODE           00466ee7  !      0000033a
                CONST                 DATA           00478038  !      00000000
                CONST2                DATA           00478094  !      00000000
                _DATA                 DATA           0047d464  !      00000000
/mnt/sda5/.user/root/src/openwatcom-1.9/bld/gui/ui/c/helpmem.c
                _TEXT                 CODE           00467230  !      00000025
                CONST                 DATA           00478038  !      00000000
                CONST2                DATA           00478094  !      00000000
                _DATA                 DATA           0047d464  !      00000000
splitpat.c      _TEXT                 CODE           00467260  !      0000010b
                CONST                 DATA           00478038  !      00000000
                CONST2                DATA           00478094  !      00000000
                _DATA                 DATA           0047d464  !      00000000
/mnt/sda5/.user/root/src/openwatcom-1.9/bld/help/c/search.c
                _TEXT                 CODE           00467370  !      000006a0
                CONST                 DATA           00478038  !      00000000
                CONST2                DATA           00478094  !      00000000
                _DATA                 DATA           0047d464  !      00000004
                _BSS                  BSS            00482748  !      0000040c
/mnt/sda5/.user/root/src/openwatcom-1.9/bld/ui/c/uivattr.c
                _TEXT                 CODE           00467a10  !      0000008a
                CONST                 DATA           00478038  !      00000000
                CONST2                DATA           00478094  !      00000000
                _DATA                 DATA           0047d468  !      00000000
/mnt/sda5/.user/root/src/openwatcom-1.9/bld/ui/c/uitab.c
                _TEXT                 CODE           00467a9a  !      00000359
                CONST                 DATA           00478038  !      00000000
                CONST2                DATA           00478094  !      00000000
                _DATA                 DATA           0047d468  !      00000000
/mnt/sda5/.user/root/src/openwatcom-1.9/bld/help/c/dlg.c
                _TEXT                 CODE           00467e00  !      00000390
                CONST                 DATA           00478038  !      00000000
                CONST2                DATA           00478094  !      00000000
                _DATA                 DATA           0047d468  !      00000098
                _BSS                  BSS            00482b54  !      00000014
/mnt/sda5/.user/root/src/openwatcom-1.9/bld/help/c/helpscan.c
                _TEXT                 CODE           00468190  !      00000367
                CONST                 DATA           00478038  !      00000000
                CONST2                DATA           00478094  !      00000000
                _DATA                 DATA           0047d500  !      00000011
atoi.c          _TEXT                 CODE           00468500  !      00000049
                CONST                 DATA           00478038  !      00000000
                CONST2                DATA           00478094  !      00000000
                _DATA                 DATA           0047d514  !      00000000
/mnt/sda5/.user/root/src/openwatcom-1.9/bld/help/c/vvscroll.c
                _TEXT                 CODE           00468550  !      000000ec
                CONST                 DATA           00478038  !      00000000
                CONST2                DATA           00478094  !      00000000
                _DATA                 DATA           0047d514  !      00000000
/mnt/sda5/.user/root/src/openwatcom-1.9/bld/help/c/msgbox.c
                _TEXT                 CODE           00468640  !      0000006b
                CONST                 DATA           00478038  !      00000000
                CONST2                DATA           00478094  !      00000000
                _DATA                 DATA           0047d514  !      00000054
                _BSS                  BSS            00482b68  !      00000004
/mnt/sda5/.user/root/src/openwatcom-1.9/bld/ui/nt/c/uisnow.c
                _TEXT                 CODE           004686ab  !      00000012
                CONST                 DATA           00478038  !      00000000
                CONST2                DATA           00478094  !      00000000
                _DATA                 DATA           0047d568  !      00000000
/mnt/sda5/.user/root/src/openwatcom-1.9/bld/ui/c/uifar.c
                _TEXT                 CODE           004686bd  !      000000dc
                CONST                 DATA           00478038  !      00000000
                CONST2                DATA           00478094  !      00000000
                _DATA                 DATA           0047d568  !      00000000
/mnt/sda5/.user/root/src/openwatcom-1.9/bld/ui/c/uirfrsh.c
                _TEXT                 CODE           00468799  !      00000126
                CONST                 DATA           00478038  !      00000000
                CONST2                DATA           00478094  !      00000000
                _DATA                 DATA           0047d568  !      00000000
/mnt/sda5/.user/root/src/openwatcom-1.9/bld/ui/c/uimem.c
                _TEXT                 CODE           004688bf  !      0000000a
                CONST                 DATA           00478038  !      00000000
                CONST2                DATA           00478094  !      00000000
                _DATA                 DATA           0047d568  !      00000000
/mnt/sda5/.user/root/src/openwatcom-1.9/bld/ui/c/uicheck.c
                _TEXT                 CODE           004688c9  !      000000a7
                CONST                 DATA           00478038  !      00000000
                CONST2                DATA           00478094  !      00000000
                _DATA                 DATA           0047d568  !      00000000
/mnt/sda5/.user/root/src/openwatcom-1.9/bld/gui/ui/c/guienum.c
                _TEXT                 CODE           00468970  !      00000021
                CONST                 DATA           00478038  !      00000000
                CONST2                DATA           00478094  !      00000000
                _DATA                 DATA           0047d568  !      00000000
resmenu.c       _TEXT                 CODE           004689a0  !      00000594
                CONST                 DATA           00478038  !      00000000
                CONST2                DATA           00478094  !      00000000
                _DATA                 DATA           0047d568  !      00000000
cstrtwnt        _TEXT                 CODE           00468f34  !      0000005c
                _DATA                 DATA           0047d568  !      00000000
argcv.c         _TEXT                 CODE           00468f90  !      00000000
                CONST                 DATA           00478038  !      00000000
                CONST2                DATA           00478094  !      00000000
                _DATA                 DATA           0047d568  !      00000000
                _BSS                  BSS            00482b6c  !      00000010
                XIB                   DATA           0047db3e  !      00000000
                XI                    DATA           0047db56  !      00000006
                XIE                   DATA           0047db7a  !      00000000
                YIB                   DATA           0047db7a  !      00000000
                YI                    DATA           0047db86  !      00000006
                YIE                   DATA           0047db9e  !      00000000
/mnt/sda5/.user/root/src/openwatcom-1.9/bld/ui/c/uibfake.c
                _TEXT                 CODE           00468f90  !      0000002e
                CONST                 DATA           00478038  !      00000000
                CONST2                DATA           00478094  !      00000000
                _DATA                 DATA           0047d568  !      00000000
setbits.c       _TEXT                 CODE           00468fc0  !      00000037
                CONST                 DATA           00478038  !      00000000
                CONST2                DATA           00478094  !      00000000
                _DATA                 DATA           0047d568  !      00000000
bits.c          _TEXT                 CODE           00469000  !      00000008
                CONST                 DATA           00478038  !      00000000
                CONST2                DATA           00478094  !      00000000
                _DATA                 DATA           0047d568  !      00000000
__lseek.c       _TEXT                 CODE           00469010  !      0000003c
                CONST                 DATA           00478038  !      00000000
                CONST2                DATA           00478094  !      00000000
                _DATA                 DATA           0047d568  !      00000000
wriidfn.c       _TEXT                 CODE           00469050  !      00000008
                CONST                 DATA           00478038  !      00000000
                CONST2                DATA           00478094  !      00000000
                _DATA                 DATA           0047d568  !      00000000
wrfindrs.c      _TEXT                 CODE           00469060  !      0000010f
                CONST                 DATA           00478038  !      00000000
                CONST2                DATA           00478094  !      00000000
                _DATA                 DATA           0047d568  !      00000000
wrgetli.c       _TEXT                 CODE           00469170  !      00000025
                CONST                 DATA           00478038  !      00000000
                CONST2                DATA           00478094  !      00000000
                _DATA                 DATA           0047d568  !      00000000
ropenfro.c      _TEXT                 CODE           004691a0  !      00000041
                CONST                 DATA           00478038  !      00000000
                CONST2                DATA           00478094  !      00000000
                _DATA                 DATA           0047d568  !      00000000
wrinitdi.c      _TEXT                 CODE           004691f0  !      0000003e
                CONST                 DATA           00478038  !      00000000
                CONST2                DATA           00478094  !      00000000
                _DATA                 DATA           0047d568  !      00000000
wrreaddi.c      _TEXT                 CODE           00469230  !      000007f6
                CONST                 DATA           00478038  !      00000000
                CONST2                DATA           00478094  !      00000000
                _DATA                 DATA           0047d568  !      00000000
wrfreedi.c      _TEXT                 CODE           00469a30  !      000000b4
                CONST                 DATA           00478038  !      00000000
                CONST2                DATA           00478094  !      00000000
                _DATA                 DATA           0047d568  !      00000000
rclosef.c       _TEXT                 CODE           00469af0  !      00000020
                CONST                 DATA           00478038  !      00000000
                CONST2                DATA           00478094  !      00000000
                _DATA                 DATA           0047d568  !      00000000
initfile.c      _TEXT                 CODE           00469b10  !      000000c4
                CONST                 DATA           00478038  !      00000000
                CONST2                DATA           00478094  !      00000000
                _DATA                 DATA           0047d568  !      00000000
ioexit.c        _TEXT                 CODE           00469be0  !      0000007c
                CONST                 DATA           00478038  !      00000000
                CONST2                DATA           00478094  !      00000000
                _DATA                 DATA           0047d568  !      00000000
mbinit.c        _TEXT                 CODE           00469c5c  !      00000128
                CONST                 DATA           00478038  !      00000000
                CONST2                DATA           00478094  !      00000000
                _DATA                 DATA           0047d568  !      00000004
/mnt/sda5/.user/root/src/openwatcom-1.9/bld/ui/c/uibpix.c
                _TEXT                 CODE           00469d84  !      00000048
                CONST                 DATA           00478038  !      00000000
                CONST2                DATA           00478094  !      00000000
                _DATA                 DATA           0047d56c  !      00000000
/mnt/sda5/.user/root/src/openwatcom-1.9/bld/ui/c/uivline.c
                _TEXT                 CODE           00469dcc  !      0000032e
                CONST                 DATA           00478038  !      00000000
                CONST2                DATA           00478094  !      00000000
                _DATA                 DATA           0047d56c  !      0000002c
alphabet.c      _TEXT                 CODE           0046a100  !      00000000
                CONST                 DATA           00478038  !      00000025
                CONST2                DATA           00478094  !      00000000
                _DATA                 DATA           0047d598  !      00000000
/mnt/sda5/.user/root/src/openwatcom-1.9/bld/ui/c/uiband.c
                _TEXT                 CODE           0046a100  !      000000b9
                CONST                 DATA           00478060  !      00000000
                CONST2                DATA           00478094  !      00000000
                _DATA                 DATA           0047d598  !      00000000
                _BSS                  BSS            00482b7c  !      00000029
dosret.c        _TEXT                 CODE           0046a1c0  !      00000084
                CONST                 DATA           00478060  !      00000000
                CONST2                DATA           00478094  !      00000000
                _DATA                 DATA           0047d598  !      00000101
mainwnt.c       _TEXT                 CODE           0046a250  !      00000330
                CONST                 DATA           00478060  !      00000000
                CONST2                DATA           00478094  !      00000000
                _DATA                 DATA           0047d69c  !      0000004c
                _BSS                  BSS            00482ba8  !      00000624
seterrno.c      _TEXT                 CODE           0046a580  !      0000004b
                CONST                 DATA           00478060  !      00000000
                CONST2                DATA           00478094  !      00000000
                _DATA                 DATA           0047d6e8  !      00000000
mbsnextc.c      _TEXT                 CODE           0046a5d0  !      00000037
                CONST                 DATA           00478060  !      00000000
                CONST2                DATA           00478094  !      00000000
                _DATA                 DATA           0047d6e8  !      00000000
mbsinc.c        _TEXT                 CODE           0046a610  !      0000002d
                CONST                 DATA           00478060  !      00000000
                CONST2                DATA           00478094  !      00000000
                _DATA                 DATA           0047d6e8  !      00000000
ntdirinf.c      _TEXT                 CODE           0046a640  !      000000f1
                CONST                 DATA           00478060  !      00000000
                CONST2                DATA           00478094  !      00000000
                _DATA                 DATA           0047d6e8  !      00000000
strdup.c        _TEXT                 CODE           0046a740  !      00000040
                CONST                 DATA           00478060  !      00000000
                CONST2                DATA           00478094  !      00000000
                _DATA                 DATA           0047d6e8  !      00000000
crwdata         _TEXT                 CODE           0046a780  !      00000001
                _DATA                 DATA           0047d6e8  !      0000005c
mbspbrk.c       _TEXT                 CODE           0046a790  !      00000048
                CONST                 DATA           00478060  !      00000000
                CONST2                DATA           00478094  !      00000000
                _DATA                 DATA           0047d744  !      00000000
fullpath.c      _TEXT                 CODE           0046a7e0  !      000000f7
                CONST                 DATA           00478060  !      00000000
                CONST2                DATA           00478094  !      00000000
                _DATA                 DATA           0047d744  !      00000000
d2ttime.c       _TEXT                 CODE           0046a8e0  !      00000079
                CONST                 DATA           00478060  !      00000000
                CONST2                DATA           00478094  !      00000000
                _DATA                 DATA           0047d744  !      00000000
mbsnccnt.c      _TEXT                 CODE           0046a960  !      0000002c
                CONST                 DATA           00478060  !      00000000
                CONST2                DATA           00478094  !      00000000
                _DATA                 DATA           0047d744  !      00000000
mbsncpy.c       _TEXT                 CODE           0046a990  !      00000020
                CONST                 DATA           00478060  !      00000000
                CONST2                DATA           00478094  !      00000000
                _DATA                 DATA           0047d744  !      00000000
mbsnbcnt.c      _TEXT                 CODE           0046a9b0  !      00000061
                CONST                 DATA           00478060  !      00000000
                CONST2                DATA           00478094  !      00000000
                _DATA                 DATA           0047d744  !      00000000
/mnt/sda5/.user/root/src/openwatcom-1.9/bld/ui/c/uibattr.c
                _TEXT                 CODE           0046aa11  !      0000009b
                CONST                 DATA           00478060  !      00000000
                CONST2                DATA           00478094  !      00000000
                _DATA                 DATA           0047d744  !      00000000
fmemmove.c      _TEXT                 CODE           0046aab0  !      00000090
                CONST                 DATA           00478060  !      00000000
                CONST2                DATA           00478094  !      00000000
                _DATA                 DATA           0047d744  !      00000000
/mnt/sda5/.user/root/src/openwatcom-1.9/bld/ui/c/uibarf.c
                _TEXT                 CODE           0046ab40  !      00000001
                CONST                 DATA           00478060  !      00000000
                CONST2                DATA           00478094  !      00000000
                _DATA                 DATA           0047d744  !      00000000
wrerror.c       _TEXT                 CODE           0046ab50  !      00000001
                CONST                 DATA           00478060  !      00000000
                CONST2                DATA           00478094  !      00000000
                _DATA                 DATA           0047d744  !      00000000
write.c         _TEXT                 CODE           0046ab60  !      0000063e
                CONST                 DATA           00478060  !      00000000
                CONST2                DATA           00478094  !      00000000
                _DATA                 DATA           0047d744  !      00000004
                _BSS                  BSS            004831cc  !      00000200
resseek.c       _TEXT                 CODE           0046b1a0  !      00000080
                CONST                 DATA           00478060  !      00000000
                CONST2                DATA           00478094  !      00000000
                _DATA                 DATA           0047d748  !      00000000
rduint32.c      _TEXT                 CODE           0046b220  !      0000004b
                CONST                 DATA           00478060  !      00000000
                CONST2                DATA           00478094  !      00000000
                _DATA                 DATA           0047d748  !      00000000
rduint16.c      _TEXT                 CODE           0046b270  !      0000004b
                CONST                 DATA           00478060  !      00000000
                CONST2                DATA           00478094  !      00000000
                _DATA                 DATA           0047d748  !      00000000
rrdstr.c        _TEXT                 CODE           0046b2c0  !      000000e3
                CONST                 DATA           00478060  !      00000000
                CONST2                DATA           00478094  !      00000000
                _DATA                 DATA           0047d748  !      00000000
main2wnt.c      _TEXT                 CODE           0046b3b0  !      00000058
                CONST                 DATA           00478060  !      00000000
                CONST2                DATA           00478094  !      00000000
                _DATA                 DATA           0047d748  !      00000000
segdefns        _TEXT                 CODE           0046b408  !      00000000
                _DATA                 DATA           0047d748  !      00000000
                BEGTEXT               CODE           00401000  !      00000007
                _NULL                 BEGDATA        00478000  !      00000004
                _AFTERNULL            BEGDATA        00478004  !      00000000
                CONST                 DATA           00478060  !      00000000
                TIB                   DATA           0047db9e  !      00000000
                TI                    DATA           0047db9e  !      00000000
                TIE                   DATA           0047db9e  !      00000000
                XIB                   DATA           0047db3e  !      00000000
                XI                    DATA           0047db5c  !      00000000
                XIE                   DATA           0047db7a  !      00000000
                YIB                   DATA           0047db7a  !      00000000
                YI                    DATA           0047db8c  !      00000000
                YIE                   DATA           0047db9e  !      00000000
                DATA                  DATA           0047db9e  !      00000000
                _BSS                  BSS            004833cc  !      00000000
                STACK                 STACK          00483500  !      00010000
initargv.c      _TEXT                 CODE           0046b410  !      000001fe
                CONST                 DATA           00478060  !      00000000
                CONST2                DATA           00478094  !      00000000
                _DATA                 DATA           0047d748  !      00000000
                _BSS                  BSS            004833cc  !      00000004
iomode.c        _TEXT                 CODE           0046b610  !      0000003a
                CONST                 DATA           00478060  !      00000000
                CONST2                DATA           00478094  !      00000000
                _DATA                 DATA           0047d748  !      00000058
hdlman.c        _TEXT                 CODE           0046b650  !      00000373
                CONST                 DATA           00478060  !      00000000
                CONST2                DATA           00478094  !      00000000
                _DATA                 DATA           0047d7a0  !      00000014
                YIB                   DATA           0047db7a  !      00000000
                YI                    DATA           0047db8c  !      00000006
                YIE                   DATA           0047db9e  !      00000000
wridcmp.c       _TEXT                 CODE           0046b9d0  !      00000031
                CONST                 DATA           00478060  !      00000000
                CONST2                DATA           00478094  !      00000000
                _DATA                 DATA           0047d7b4  !      00000000
setmd.c         _TEXT                 CODE           0046ba10  !      000000ed
                CONST                 DATA           00478060  !      00000000
                CONST2                DATA           00478094  !      00000000
                _DATA                 DATA           0047d7b4  !      00000000
ralliae.c       _TEXT                 CODE           0046bb00  !      00000029
                CONST                 DATA           00478060  !      00000000
                CONST2                DATA           00478094  !      00000000
                _DATA                 DATA           0047d7b4  !      00000000
wrrfrr.c        _TEXT                 CODE           0046bb30  !      000000f9
                CONST                 DATA           00478060  !      00000000
                CONST2                DATA           00478094  !      00000000
                _DATA                 DATA           0047d7b4  !      00000000
wridexby.c      _TEXT                 CODE           0046bc30  !      0000000e
                CONST                 DATA           00478060  !      00000000
                CONST2                DATA           00478094  !      00000000
                _DATA                 DATA           0047d7b4  !      00000000
wrrewrid.c      _TEXT                 CODE           0046bc40  !      0000005a
                CONST                 DATA           00478060  !      00000000
                CONST2                DATA           00478094  !      00000000
                _DATA                 DATA           0047d7b4  !      00000000
wrrftr.c        _TEXT                 CODE           0046bca0  !      000000be
                CONST                 DATA           00478060  !      00000000
                CONST2                DATA           00478094  !      00000000
                _DATA                 DATA           0047d7b4  !      00000000
wrrhr.c         _TEXT                 CODE           0046bd60  !      000000b6
                CONST                 DATA           00478060  !      00000000
                CONST2                DATA           00478094  !      00000000
                _DATA                 DATA           0047d7b4  !      00000000
mrrdrh.c        _TEXT                 CODE           0046be20  !      0000020c
                CONST                 DATA           00478060  !      00000000
                CONST2                DATA           00478094  !      00000000
                _DATA                 DATA           0047d7b4  !      00000000
wrfree.c        _TEXT                 CODE           0046c030  !      00000033
                CONST                 DATA           00478060  !      00000000
                CONST2                DATA           00478094  !      00000000
                _DATA                 DATA           0047d7b4  !      00000000
wridfnoo.c      _TEXT                 CODE           0046c070  !      00000012
                CONST                 DATA           00478060  !      00000000
                CONST2                DATA           00478094  !      00000000
                _DATA                 DATA           0047d7b4  !      00000000
wraddres.c      _TEXT                 CODE           0046c090  !      000002d0
                CONST                 DATA           00478060  !      00000000
                CONST2                DATA           00478094  !      00000000
                _DATA                 DATA           0047d7b4  !      00000000
wriswrf.c       _TEXT                 CODE           0046c360  !      000000a6
                CONST                 DATA           00478060  !      00000000
                CONST2                DATA           00478094  !      00000000
                _DATA                 DATA           0047d7b4  !      00000000
nmalloc.c       _TEXT                 CODE           0046c410  !      000000fa
                CONST                 DATA           00478060  !      00000000
                CONST2                DATA           00478094  !      00000000
                _DATA                 DATA           0047d7b4  !      0000000c
xmsgwnt.c       _TEXT                 CODE           0046c510  !      00000080
                CONST                 DATA           00478060  !      00000000
                CONST2                DATA           00478094  !      00000000
                _DATA                 DATA           0047d7c0  !      00000000
fclose.c        _TEXT                 CODE           0046c590  !      00000101
                CONST                 DATA           00478060  !      00000000
                CONST2                DATA           00478094  !      00000000
                _DATA                 DATA           0047d7c0  !      00000000
                _BSS                  BSS            004833d0  !      00000004
freefp.c        _TEXT                 CODE           0046c6a0  !      0000007e
                CONST                 DATA           00478060  !      00000000
                CONST2                DATA           00478094  !      00000000
                _DATA                 DATA           0047d7c0  !      00000000
/mnt/sda5/.user/root/src/openwatcom-1.9/bld/ui/c/uipad.c
                _TEXT                 CODE           0046c71e  !      0000001c
                CONST                 DATA           00478060  !      00000000
                CONST2                DATA           00478094  !      00000000
                _DATA                 DATA           0047d7c0  !      00000000
/mnt/sda5/.user/root/src/openwatcom-1.9/bld/ui/c/uivedit.c
                _TEXT                 CODE           0046c73a  !      00000428
                CONST                 DATA           00478060  !      00000000
                CONST2                DATA           00478094  !      00000000
                _DATA                 DATA           0047d7c0  !      00000000
environ.c       _TEXT                 CODE           0046cb70  !      00000000
                CONST                 DATA           00478060  !      00000000
                CONST2                DATA           00478094  !      00000000
                _DATA                 DATA           0047d7c0  !      00000000
                _BSS                  BSS            004833d4  !      0000000c
                XIB                   DATA           0047db3e  !      00000000
                XI                    DATA           0047db5c  !      00000006
                XIE                   DATA           0047db7a  !      00000000
                YIB                   DATA           0047db7a  !      00000000
                YI                    DATA           0047db92  !      00000006
                YIE                   DATA           0047db9e  !      00000000
getmodfn.c      _TEXT                 CODE           0046cb70  !      00000091
                CONST                 DATA           00478060  !      00000000
                CONST2                DATA           00478094  !      00000000
                _DATA                 DATA           0047d7c0  !      00000000
ustrdup.c       _TEXT                 CODE           0046cc01  !      00000027
                CONST                 DATA           00478060  !      00000000
                CONST2                DATA           00478094  !      00000000
                _DATA                 DATA           0047d7c0  !      00000000
excptwnt.c      _TEXT                 CODE           0046cc30  !      00000d63
                CONST                 DATA           00478060  !      00000000
                CONST2                DATA           00478094  !      00000000
                _DATA                 DATA           0047d7c0  !      00000019
                _BSS                  BSS            004833e0  !      00000006
stklmwnt.c      _TEXT                 CODE           0046d9a0  !      0000006d
                CONST                 DATA           00478060  !      00000000
                CONST2                DATA           00478094  !      00000000
                _DATA                 DATA           0047d7dc  !      00000000
initrtns.c      _TEXT                 CODE           0046da10  !      000000b3
                CONST                 DATA           00478060  !      00000000
                CONST2                DATA           00478094  !      00000000
                _DATA                 DATA           0047d7dc  !      00000000
mbterm.c        _TEXT                 CODE           0046dad0  !      0000003c
                CONST                 DATA           00478060  !      00000000
                CONST2                DATA           00478094  !      00000000
                _DATA                 DATA           0047d7dc  !      00000000
mbschr.c        _TEXT                 CODE           0046db10  !      0000005f
                CONST                 DATA           00478060  !      00000000
                CONST2                DATA           00478094  !      00000000
                _DATA                 DATA           0047d7dc  !      00000000
mktime.c        _TEXT                 CODE           0046db70  !      00000084
                CONST                 DATA           00478060  !      00000000
                CONST2                DATA           00478094  !      00000000
                _DATA                 DATA           0047d7dc  !      00000000
mbclen.c        _TEXT                 CODE           0046dc00  !      0000002b
                CONST                 DATA           00478060  !      00000000
                CONST2                DATA           00478094  !      00000000
                _DATA                 DATA           0047d7dc  !      00000000
mbsnbcpy.c      _TEXT                 CODE           0046dc30  !      00000060
                CONST                 DATA           00478060  !      00000000
                CONST2                DATA           00478094  !      00000000
                _DATA                 DATA           0047d7dc  !      00000000
varstr.c        _TEXT                 CODE           0046dc90  !      0000011b
                CONST                 DATA           00478060  !      00000000
                CONST2                DATA           00478094  !      00000000
                _DATA                 DATA           0047d7dc  !      00000000
rduint8.c       _TEXT                 CODE           0046ddb0  !      0000004b
                CONST                 DATA           00478060  !      00000000
                CONST2                DATA           00478094  !      00000000
                _DATA                 DATA           0047d7dc  !      00000000
mthrdini.c      _TEXT                 CODE           0046de00  !      0000002b
                CONST                 DATA           00478060  !      00000000
                CONST2                DATA           00478094  !      00000000
                _DATA                 DATA           0047d7dc  !      00000004
cmain386.c      _TEXT                 CODE           0046de30  !      0000003e
                CONST                 DATA           00478060  !      00000000
                CONST2                DATA           00478094  !      00000000
                _DATA                 DATA           0047d7e0  !      00000000
dosseg          _TEXT                 CODE           0046de70  !      00000000
                _DATA                 DATA           0047d7e0  !      00000000
histsplt.c      _TEXT                 CODE           0046de70  !      00000000
                CONST                 DATA           00478060  !      00000000
                CONST2                DATA           00478094  !      00000000
                _DATA                 DATA           0047d7e0  !      00000000
                _BSS                  BSS            004833e8  !      00000004
___argc.c       _TEXT                 CODE           0046de70  !      00000000
                CONST                 DATA           00478060  !      00000000
                CONST2                DATA           00478094  !      00000000
                _DATA                 DATA           0047d7e0  !      00000000
                _BSS                  BSS            004833ec  !      00000008
stiomode.c      _TEXT                 CODE           0046de70  !      00000172
                CONST                 DATA           00478060  !      00000000
                CONST2                DATA           00478094  !      00000000
                _DATA                 DATA           0047d7e0  !      00000000
                _BSS                  BSS            004833f4  !      00000004
                YIB                   DATA           0047db7a  !      00000000
                YI                    DATA           0047db98  !      00000006
                YIE                   DATA           0047db9e  !      00000000
wridnacm.c      _TEXT                 CODE           0046dff0  !      0000008b
                CONST                 DATA           00478060  !      00000000
                CONST2                DATA           00478094  !      00000000
                _DATA                 DATA           0047d7e0  !      00000000
rrnamoor.c      _TEXT                 CODE           0046e080  !      000001ce
                CONST                 DATA           00478060  !      00000000
                CONST2                DATA           00478094  !      00000000
                _DATA                 DATA           0047d7e0  !      00000000
wridfrst.c      _TEXT                 CODE           0046e250  !      0000006b
                CONST                 DATA           00478060  !      00000000
                CONST2                DATA           00478094  !      00000000
                _DATA                 DATA           0047d7e0  !      00000000
wridfrnu.c      _TEXT                 CODE           0046e2c0  !      00000055
                CONST                 DATA           00478060  !      00000000
                CONST2                DATA           00478094  !      00000000
                _DATA                 DATA           0047d7e0  !      00000000
wrfirres.c      _TEXT                 CODE           0046e320  !      00000056
                CONST                 DATA           00478060  !      00000000
                CONST2                DATA           00478094  !      00000000
                _DATA                 DATA           0047d7e0  !      00000000
mem.c           _TEXT                 CODE           0046e380  !      000001e6
                CONST                 DATA           00478060  !      00000000
                CONST2                DATA           00478094  !      00000000
                _DATA                 DATA           0047d7e0  !      00000000
grownear.c      _TEXT                 CODE           0046e570  !      00000171
                CONST                 DATA           00478060  !      00000000
                CONST2                DATA           00478094  !      00000000
                _DATA                 DATA           0047d7e0  !      00000000
enterdb.c       _TEXT                 CODE           0046e6f0  !      00000026
                CONST                 DATA           00478060  !      00000000
                CONST2                DATA           00478094  !      00000000
                _DATA                 DATA           0047d7e0  !      00000001
_clsewnt.c      _TEXT                 CODE           0046e720  !      00000056
                CONST                 DATA           00478060  !      00000000
                CONST2                DATA           00478094  !      00000000
                _DATA                 DATA           0047d7e4  !      00000000
flush.c         _TEXT                 CODE           0046e780  !      000000fc
                CONST                 DATA           00478060  !      00000000
                CONST2                DATA           00478094  !      00000000
                _DATA                 DATA           0047d7e4  !      00000000
setenvp.c       _TEXT                 CODE           0046e880  !      0000010d
                CONST                 DATA           00478060  !      00000000
                CONST2                DATA           00478094  !      00000000
                _DATA                 DATA           0047d7e4  !      00000000
                _BSS                  BSS            004833f8  !      00000004
ustrlen.c       _TEXT                 CODE           0046e98d  !      00000013
                CONST                 DATA           00478060  !      00000000
                CONST2                DATA           00478094  !      00000000
                _DATA                 DATA           0047d7e4  !      00000000
memcpy.c        _TEXT                 CODE           0046e9a0  !      0000001f
                CONST                 DATA           00478060  !      00000000
                CONST2                DATA           00478094  !      00000000
                _DATA                 DATA           0047d7e4  !      00000000
conutwnt.c      _TEXT                 CODE           0046e9c0  !      000000db
                CONST                 DATA           00478060  !      00000000
                CONST2                DATA           00478094  !      00000000
                _DATA                 DATA           0047d7e4  !      00000008
fclex387.c      _TEXT                 CODE           0046eaa0  !      00000003
                CONST                 DATA           00478060  !      00000000
                CONST2                DATA           00478094  !      00000000
                _DATA                 DATA           0047d7ec  !      00000000
signlwnt.c      _TEXT                 CODE           0046eab0  !      000003ff
                CONST                 DATA           00478060  !      00000000
                CONST2                DATA           00478094  !      00000000
                _DATA                 DATA           0047d7ec  !      00000069
                XIB                   DATA           0047db3e  !      00000000
                XI                    DATA           0047db62  !      00000006
                XIE                   DATA           0047db7a  !      00000000
mbconv.c        _TEXT                 CODE           0046eeb0  !      0000001a
                CONST                 DATA           00478060  !      00000000
                CONST2                DATA           00478094  !      00000000
                _DATA                 DATA           0047d858  !      00000000
mbccmp.c        _TEXT                 CODE           0046eed0  !      0000003b
                CONST                 DATA           00478060  !      00000000
                CONST2                DATA           00478094  !      00000000
                _DATA                 DATA           0047d858  !      00000000
locmktim.c      _TEXT                 CODE           0046ef10  !      00000131
                CONST                 DATA           00478060  !      00000000
                CONST2                DATA           00478094  !      00000000
                _DATA                 DATA           0047d858  !      00000000
gmtime.c        _TEXT                 CODE           0046f050  !      00000177
                CONST                 DATA           00478060  !      00000000
                CONST2                DATA           00478094  !      00000000
                _DATA                 DATA           0047d858  !      00000000
tzset.c         _TEXT                 CODE           0046f1d0  !      00000955
                CONST                 DATA           00478060  !      00000000
                CONST2                DATA           00478094  !      00000000
                _DATA                 DATA           0047d858  !      00000164
timeutil.c      _TEXT                 CODE           0046fb30  !      00000470
                CONST                 DATA           00478060  !      00000000
                CONST2                DATA           00478094  !      00000000
                _DATA                 DATA           0047d9bc  !      00000000
cinit.c         _TEXT                 CODE           0046ffa0  !      00000001
                CONST                 DATA           00478060  !      00000000
                CONST2                DATA           00478094  !      00000000
                _DATA                 DATA           0047d9bc  !      00000000
exit.c          _TEXT                 CODE           0046ffa1  !      00000067
                CONST                 DATA           00478060  !      00000000
                CONST2                DATA           00478094  !      00000000
                _DATA                 DATA           0047d9bc  !      00000008
iomodtty.c      _TEXT                 CODE           00470010  !      00000051
                CONST                 DATA           00478060  !      00000000
                CONST2                DATA           00478094  !      00000000
                _DATA                 DATA           0047d9c4  !      00000000
amblksiz.c      _TEXT                 CODE           00470070  !      00000000
                CONST                 DATA           00478060  !      00000000
                CONST2                DATA           00478094  !      00000000
                _DATA                 DATA           0047d9c4  !      00000004
heapen.c        _TEXT                 CODE           00470070  !      00000021
                CONST                 DATA           00478060  !      00000000
                CONST2                DATA           00478094  !      00000000
                _DATA                 DATA           0047d9c8  !      00000004
nfree.c         _TEXT                 CODE           004700a0  !      00000108
                CONST                 DATA           00478060  !      00000000
                CONST2                DATA           00478094  !      00000000
                _DATA                 DATA           0047d9cc  !      00000000
                _BSS                  BSS            004833fc  !      00000004
nheapmin.c      _TEXT                 CODE           004701b0  !      000000e2
                CONST                 DATA           00478060  !      00000000
                CONST2                DATA           00478094  !      00000000
                _DATA                 DATA           0047d9cc  !      00000000
fsync.c         _TEXT                 CODE           004702a0  !      00000044
                CONST                 DATA           00478060  !      00000000
                CONST2                DATA           00478094  !      00000000
                _DATA                 DATA           0047d9cc  !      00000000
qwrit.c         _TEXT                 CODE           004702f0  !      000000e0
                CONST                 DATA           00478060  !      00000000
                CONST2                DATA           00478094  !      00000000
                _DATA                 DATA           0047d9cc  !      00000000
dofilstr.c      _TEXT                 CODE           004703d0  !      0000013d
                CONST                 DATA           00478060  !      00000000
                CONST2                DATA           00478094  !      00000000
                _DATA                 DATA           0047d9cc  !      00000000
clearenv.c      _TEXT                 CODE           00470510  !      00000090
                CONST                 DATA           00478060  !      00000000
                CONST2                DATA           00478094  !      00000000
                _DATA                 DATA           0047d9cc  !      00000000
abort.c         _TEXT                 CODE           004705a0  !      00000039
                CONST                 DATA           00478060  !      00000000
                CONST2                DATA           00478094  !      00000000
                _DATA                 DATA           0047d9cc  !      00000004
leapyear.c      _TEXT                 CODE           004705e0  !      00000032
                CONST                 DATA           00478060  !      00000034
                CONST2                DATA           00478094  !      00000000
                _DATA                 DATA           0047d9d0  !      00000000
wcstombs.c      _TEXT                 CODE           00470620  !      0000009f
                CONST                 DATA           00478094  !      00000000
                CONST2                DATA           00478094  !      00000000
                _DATA                 DATA           0047d9d0  !      00000000
isattwnt.c      _TEXT                 CODE           004706c0  !      0000001c
                CONST                 DATA           00478094  !      00000000
                CONST2                DATA           00478094  !      00000000
                _DATA                 DATA           0047d9d0  !      00000000
strtol.c        _TEXT                 CODE           004706e0  !      0000023d
                CONST                 DATA           00478094  !      00000000
                CONST2                DATA           00478094  !      00000000
                _DATA                 DATA           0047d9d0  !      0000008c
putenv.c        _TEXT                 CODE           00470920  !      000003f9
                CONST                 DATA           00478094  !      00000000
                CONST2                DATA           00478094  !      00000000
                _DATA                 DATA           0047da5c  !      00000000
wctomb.c        _TEXT                 CODE           00470d20  !      0000003d
                CONST                 DATA           00478094  !      00000000
                CONST2                DATA           00478094  !      00000000
                _DATA                 DATA           0047da5c  !      00000000
mbslen.c        _TEXT                 CODE           00470d60  !      00000030
                CONST                 DATA           00478094  !      00000000
                CONST2                DATA           00478094  !      00000000
                _DATA                 DATA           0047da5c  !      00000000
mbstowcs.c      _TEXT                 CODE           00470d90  !      00000073
                CONST                 DATA           00478094  !      00000000
                CONST2                DATA           00478094  !      00000000
                _DATA                 DATA           0047da5c  !      00000000
uputenv.c       _TEXT                 CODE           00470e10  !      00000319
                CONST                 DATA           00478094  !      00000000
                CONST2                DATA           00478094  !      00000000
                _DATA                 DATA           0047da5c  !      00000000
mbtowc.c        _TEXT                 CODE           00471130  !      00000090
                CONST                 DATA           00478094  !      00000000
                CONST2                DATA           00478094  !      00000000
                _DATA                 DATA           0047da5c  !      00000000
ustrchr.c       _TEXT                 CODE           004711c0  !      00000016
                CONST                 DATA           00478094  !      00000000
                CONST2                DATA           00478094  !      00000000
                _DATA                 DATA           0047da5c  !      00000000
setenvar.c      _TEXT                 CODE           004711e0  !      000000e8
                CONST                 DATA           00478094  !      00000000
                CONST2                DATA           00478094  !      00000000
                _DATA                 DATA           0047da5c  !      00000000
crtwenv.c       _TEXT                 CODE           004712d0  !      00000068
                CONST                 DATA           00478094  !      00000000
                CONST2                DATA           00478094  !      00000000
                _DATA                 DATA           0047da5c  !      00000000
utoupper.c      _TEXT                 CODE           00471338  !      00000010
                CONST                 DATA           00478094  !      00000000
                CONST2                DATA           00478094  !      00000000
                _DATA                 DATA           0047da5c  !      00000000
getenv.c        _TEXT                 CODE           00471350  !      00000089
                CONST                 DATA           00478094  !      00000000
                CONST2                DATA           00478094  !      00000000
                _DATA                 DATA           0047da5c  !      00000000
setenv.c        _TEXT                 CODE           004713e0  !      000004b8
                CONST                 DATA           00478094  !      00000000
                CONST2                DATA           00478094  !      00000000
                _DATA                 DATA           0047da5c  !      00000000
strstr.c        _TEXT                 CODE           004718a0  !      000000ad
                CONST                 DATA           00478094  !      00000000
                CONST2                DATA           00478094  !      00000000
                _DATA                 DATA           0047da5c  !      00000000
cmdname.c       _TEXT                 CODE           00471950  !      0000002b
                CONST                 DATA           00478094  !      00000000
                CONST2                DATA           00478094  !      00000000
                _DATA                 DATA           0047da5c  !      00000000
_8087           _TEXT                 CODE           0047197c  !      00000000
                _DATA                 DATA           0047da5c  !      00000002
                XIB                   DATA           0047db3e  !      00000000
                XI                    DATA           0047db68  !      00000006
                XIE                   DATA           0047db7a  !      00000000
                YIB                   DATA           0047db7a  !      00000000
                YI                    DATA           0047db9e  !      00000000
                YIE                   DATA           0047db9e  !      00000000
gtcmd.c         _TEXT                 CODE           00471980  !      000000c3
                CONST                 DATA           00478094  !      00000000
                CONST2                DATA           00478094  !      00000000
                _DATA                 DATA           0047da60  !      00000000
stricmp.c       _TEXT                 CODE           00471a50  !      0000003b
                CONST                 DATA           00478094  !      00000000
                CONST2                DATA           00478094  !      00000000
                _DATA                 DATA           0047da60  !      00000000
strerror.c      _TEXT                 CODE           00471a90  !      0000043d
                CONST                 DATA           00478094  !      00000000
                CONST2                DATA           00478094  !      00000000
                _DATA                 DATA           0047da60  !      000000a8
                _BSS                  BSS            00483400  !      00000100
openwnt.c       _TEXT                 CODE           00471ed0  !      00000247
                CONST                 DATA           00478094  !      00000000
                CONST2                DATA           00478094  !      00000000
                _DATA                 DATA           0047db08  !      00000000
errno.c         _TEXT                 CODE           00472120  !      0000001a
                CONST                 DATA           00478094  !      00000000
                CONST2                DATA           00478094  !      00000000
                _DATA                 DATA           0047db08  !      00000000
read.c          _TEXT                 CODE           00472140  !      00000185
                CONST                 DATA           00478094  !      00000000
                CONST2                DATA           00478094  !      00000000
                _DATA                 DATA           0047db08  !      00000000
write.c         _TEXT                 CODE           004722d0  !      000004a9
                CONST                 DATA           00478094  !      00000000
                CONST2                DATA           00478094  !      00000000
                _DATA                 DATA           0047db08  !      00000000
lseek.c         _TEXT                 CODE           00472780  !      00000049
                CONST                 DATA           00478094  !      00000000
                CONST2                DATA           00478094  !      00000000
                _DATA                 DATA           0047db08  !      00000000
close.c         _TEXT                 CODE           004727d0  !      00000020
                CONST                 DATA           00478094  !      00000000
                CONST2                DATA           00478094  !      00000000
                _DATA                 DATA           0047db08  !      00000000
remove.c        _TEXT                 CODE           004727f0  !      00000005
                CONST                 DATA           00478094  !      00000000
                CONST2                DATA           00478094  !      00000000
                _DATA                 DATA           0047db08  !      00000000
memset.c        _TEXT                 CODE           00472800  !      00000018
                CONST                 DATA           00478094  !      00000000
                CONST2                DATA           00478094  !      00000000
                _DATA                 DATA           0047db08  !      00000000
memmove.c       _TEXT                 CODE           00472820  !      00000053
                CONST                 DATA           00478094  !      00000000
                CONST2                DATA           00478094  !      00000000
                _DATA                 DATA           0047db08  !      00000000
istable.c       _TEXT                 CODE           00472880  !      00000101
                CONST                 DATA           00478094  !      00000000
                CONST2                DATA           00478094  !      00000000
                _DATA                 DATA           0047db08  !      00000000
sprintf.c       _TEXT                 CODE           00472990  !      00000021
                CONST                 DATA           00478094  !      00000000
                CONST2                DATA           00478094  !      00000000
                _DATA                 DATA           0047db08  !      00000000
fopen.c         _TEXT                 CODE           004729c0  !      00000358
                CONST                 DATA           00478094  !      00000000
                CONST2                DATA           00478094  !      00000000
                _DATA                 DATA           0047db08  !      00000000
fwrite.c        _TEXT                 CODE           00472d20  !      0000020b
                CONST                 DATA           00478094  !      00000000
                CONST2                DATA           00478094  !      00000000
                _DATA                 DATA           0047db08  !      00000000
setjmp          _TEXT                 CODE           00472f2c  !      000000c1
                _DATA                 DATA           0047db08  !      00000000
_strcmp         _TEXT                 CODE           00472ff0  !      0000013e
                _DATA                 DATA           0047db08  !      00000000
tolower.c       _TEXT                 CODE           00473130  !      0000000e
                CONST                 DATA           00478094  !      00000000
                CONST2                DATA           00478094  !      00000000
                _DATA                 DATA           0047db08  !      00000000
puts.c          _TEXT                 CODE           00473140  !      00000030
                CONST                 DATA           00478094  !      00000000
                CONST2                DATA           00478094  !      00000000
                _DATA                 DATA           0047db08  !      00000000
fltused.c       _TEXT                 CODE           00473170  !      00000000
                CONST                 DATA           00478094  !      00000000
                CONST2                DATA           00478094  !      00000000
                _DATA                 DATA           0047db08  !      00000004
                XIB                   DATA           0047db3e  !      00000000
                XI                    DATA           0047db6e  !      00000006
                XIE                   DATA           0047db7a  !      00000000
strlwr.c        _TEXT                 CODE           00473170  !      00000020
                CONST                 DATA           00478094  !      00000000
                CONST2                DATA           00478094  !      00000000
                _DATA                 DATA           0047db0c  !      00000000
toupper.c       _TEXT                 CODE           00473190  !      0000000e
                CONST                 DATA           00478094  !      00000000
                CONST2                DATA           00478094  !      00000000
                _DATA                 DATA           0047db0c  !      00000000
memicmp.c       _TEXT                 CODE           004731a0  !      00000040
                CONST                 DATA           00478094  !      00000000
                CONST2                DATA           00478094  !      00000000
                _DATA                 DATA           0047db0c  !      00000000
strnicmp.c      _TEXT                 CODE           004731e0  !      00000044
                CONST                 DATA           00478094  !      00000000
                CONST2                DATA           00478094  !      00000000
                _DATA                 DATA           0047db0c  !      00000000
memcmp.c        _TEXT                 CODE           00473230  !      00000018
                CONST                 DATA           00478094  !      00000000
                CONST2                DATA           00478094  !      00000000
                _DATA                 DATA           0047db0c  !      00000000
nrealloc.c      _TEXT                 CODE           00473250  !      0000007a
                CONST                 DATA           00478094  !      00000000
                CONST2                DATA           00478094  !      00000000
                _DATA                 DATA           0047db0c  !      00000000
nheapwal.c      _TEXT                 CODE           004732d0  !      000000d4
                CONST                 DATA           00478094  !      00000000
                CONST2                DATA           00478094  !      00000000
                _DATA                 DATA           0047db0c  !      00000000
qsort.c         _TEXT                 CODE           004733b0  !      000006f8
                CONST                 DATA           00478094  !      00000000
                CONST2                DATA           00478094  !      00000000
                _DATA                 DATA           0047db0c  !      00000000
strupr.c        _TEXT                 CODE           00473ab0  !      00000020
                CONST                 DATA           00478094  !      00000000
                CONST2                DATA           00478094  !      00000000
                _DATA                 DATA           0047db0c  !      00000000
hugeval.c       _TEXT                 CODE           00473ad0  !      00000008
                CONST                 DATA           00478094  !      00000000
                CONST2                DATA           00478094  !      00000000
                _DATA                 DATA           0047db0c  !      00000000
strncpy.c       _TEXT                 CODE           00473ae0  !      00000036
                CONST                 DATA           00478094  !      00000000
                CONST2                DATA           00478094  !      00000000
                _DATA                 DATA           0047db0c  !      00000000
split2.c        _TEXT                 CODE           00473b20  !      00000197
                CONST                 DATA           00478094  !      00000000
                CONST2                DATA           00478094  !      00000000
                _DATA                 DATA           0047db0c  !      00000000
makepath.c      _TEXT                 CODE           00473cc0  !      000001ca
                CONST                 DATA           00478094  !      00000000
                CONST2                DATA           00478094  !      00000000
                _DATA                 DATA           0047db0c  !      00000000
bsearch.c       _TEXT                 CODE           00473e90  !      00000075
                CONST                 DATA           00478094  !      00000000
                CONST2                DATA           00478094  !      00000000
                _DATA                 DATA           0047db0c  !      00000000
calloc.c        _TEXT                 CODE           00473f10  !      0000001a
                CONST                 DATA           00478094  !      00000000
                CONST2                DATA           00478094  !      00000000
                _DATA                 DATA           0047db0c  !      00000000
stackwnt.c      _TEXT                 CODE           00473f30  !      0000000f
                CONST                 DATA           00478094  !      00000000
                CONST2                DATA           00478094  !      00000000
                _DATA                 DATA           0047db0c  !      00000000
stk             _TEXT                 CODE           00473f40  !      00000074
                _DATA                 DATA           0047db0c  !      00000010
                XIB                   DATA           0047db3e  !      00000000
                XI                    DATA           0047db74  !      00000006
                XIE                   DATA           0047db7a  !      00000000
                YIB                   DATA           0047db7a  !      00000000
                YI                    DATA           0047db9e  !      00000000
                YIE                   DATA           0047db9e  !      00000000
mbcupper.c      _TEXT                 CODE           00473fc0  !      0000002c
                CONST                 DATA           00478094  !      00000000
                CONST2                DATA           00478094  !      00000000
                _DATA                 DATA           0047db1c  !      00000000
usetenv.c       _TEXT                 CODE           00473ff0  !      000003c4
                CONST                 DATA           00478094  !      00000000
                CONST2                DATA           00478094  !      00000000
                _DATA                 DATA           0047db1c  !      00000000
chk8087.c       _TEXT                 CODE           004743c0  !      00000083
                CONST                 DATA           00478094  !      00000000
                CONST2                DATA           00478094  !      00000000
                _DATA                 DATA           0047db1c  !      00000000
ntfio.c         _TEXT                 CODE           00474450  !      000000c4
                CONST                 DATA           00478094  !      00000000
                CONST2                DATA           00478094  !      00000000
                _DATA                 DATA           0047db1c  !      00000000
umaskval.c      _TEXT                 CODE           00474520  !      00000000
                CONST                 DATA           00478094  !      00000000
                CONST2                DATA           00478094  !      00000000
                _DATA                 DATA           0047db1c  !      00000004
unlnkwnt.c      _TEXT                 CODE           00474520  !      0000001a
                CONST                 DATA           00478094  !      00000000
                CONST2                DATA           00478094  !      00000000
                _DATA                 DATA           0047db20  !      00000000
__stos          _TEXT                 CODE           00474540  !      000000a3
                _DATA                 DATA           0047db20  !      00000000
vsprintf.c      _TEXT                 CODE           004745f0  !      00000035
                CONST                 DATA           00478094  !      00000000
                CONST2                DATA           00478094  !      00000000
                _DATA                 DATA           0047db20  !      00000000
comtflag.c      _TEXT                 CODE           00474630  !      0000000b
                CONST                 DATA           00478094  !      00000000
                CONST2                DATA           00478094  !      00000000
                _DATA                 DATA           0047db20  !      00000004
fseek.c         _TEXT                 CODE           00474640  !      00000160
                CONST                 DATA           00478094  !      00000000
                CONST2                DATA           00478094  !      00000000
                _DATA                 DATA           0047db24  !      00000000
chktty.c        _TEXT                 CODE           004747a0  !      00000032
                CONST                 DATA           00478094  !      00000000
                CONST2                DATA           00478094  !      00000000
                _DATA                 DATA           0047db24  !      00000000
allocfp.c       _TEXT                 CODE           004747e0  !      000000cd
                CONST                 DATA           00478094  !      00000000
                CONST2                DATA           00478094  !      00000000
                _DATA                 DATA           0047db24  !      00000000
ioalloc.c       _TEXT                 CODE           004748b0  !      00000096
                CONST                 DATA           00478094  !      00000000
                CONST2                DATA           00478094  !      00000000
                _DATA                 DATA           0047db24  !      00000000
fputc.c         _TEXT                 CODE           00474950  !      000000d5
                CONST                 DATA           00478094  !      00000000
                CONST2                DATA           00478094  !      00000000
                _DATA                 DATA           0047db24  !      00000000
ljmphdl.c       _TEXT                 CODE           00474a30  !      00000001
                CONST                 DATA           00478094  !      00000000
                CONST2                DATA           00478094  !      00000000
                _DATA                 DATA           0047db24  !      00000004
fputs.c         _TEXT                 CODE           00474a40  !      00000093
                CONST                 DATA           00478094  !      00000000
                CONST2                DATA           00478094  !      00000000
                _DATA                 DATA           0047db28  !      00000000
setefg.c        _TEXT                 CODE           00474ae0  !      00000015
                CONST                 DATA           00478094  !      00000000
                CONST2                DATA           00478094  !      00000000
                _DATA                 DATA           0047db28  !      00000000
nmsize.c        _TEXT                 CODE           00474b00  !      0000000b
                CONST                 DATA           00478094  !      00000000
                CONST2                DATA           00478094  !      00000000
                _DATA                 DATA           0047db28  !      00000000
nexpand.c       _TEXT                 CODE           00474b10  !      000001f7
                CONST                 DATA           00478094  !      00000000
                CONST2                DATA           00478094  !      00000000
                _DATA                 DATA           0047db28  !      00000000
mbsdec.c        _TEXT                 CODE           00474d10  !      0000007d
                CONST                 DATA           00478094  !      00000000
                CONST2                DATA           00478094  !      00000000
                _DATA                 DATA           0047db28  !      00000000
ugetenv.c       _TEXT                 CODE           00474d90  !      00000076
                CONST                 DATA           00478094  !      00000000
                CONST2                DATA           00478094  !      00000000
                _DATA                 DATA           0047db28  !      00000000
ustrcpy.c       _TEXT                 CODE           00474e06  !      00000018
                CONST                 DATA           00478094  !      00000000
                CONST2                DATA           00478094  !      00000000
                _DATA                 DATA           0047db28  !      00000000
8087cw.c        _TEXT                 CODE           00474e20  !      00000000
                CONST                 DATA           00478094  !      00000000
                CONST2                DATA           00478094  !      00000000
                _DATA                 DATA           0047db28  !      00000002
save8087.c      _TEXT                 CODE           00474e20  !      00000001
                CONST                 DATA           00478094  !      00000000
                CONST2                DATA           00478094  !      00000000
                _DATA                 DATA           0047db2c  !      00000008
init8087        _TEXT                 CODE           00474e24  !      00000033
                _DATA                 DATA           0047db34  !      00000000
prtf.c          _TEXT                 CODE           00474e60  !      00000cc4
                CONST                 DATA           00478094  !      00000000
                CONST2                DATA           00478094  !      00000000
                _DATA                 DATA           0047db34  !      00000000
noefgfmt.c      _TEXT                 CODE           00475b30  !      00000042
                CONST                 DATA           00478094  !      00000000
                CONST2                DATA           00478094  !      00000000
                _DATA                 DATA           0047db34  !      00000008
efgfmt.c        _TEXT                 CODE           00475b72  !      0000016a
                CONST                 DATA           00478094  !      00000000
                CONST2                DATA           00478094  !      00000000
                _DATA                 DATA           0047db3c  !      00000000
cnvs2d.c        _TEXT                 CODE           00475cdc  !      0000000e
                CONST                 DATA           00478094  !      00000000
                CONST2                DATA           00478094  !      00000000
                _DATA                 DATA           0047db3c  !      00000000
ustrnicm.c      _TEXT                 CODE           00475cea  !      0000005b
                CONST                 DATA           00478094  !      00000000
                CONST2                DATA           00478094  !      00000000
                _DATA                 DATA           0047db3c  !      00000000
lltoa.c         _TEXT                 CODE           00475d50  !      00000099
                CONST                 DATA           00478094  !      00000000
                CONST2                DATA           00478094  !      00000000
                _DATA                 DATA           0047db3c  !      00000000
ltoa.c          _TEXT                 CODE           00475df0  !      00000074
                CONST                 DATA           00478094  !      00000000
                CONST2                DATA           00478094  !      00000000
                _DATA                 DATA           0047db3c  !      00000000
rtcntrl.c       _TEXT                 CODE           00475e70  !      00000030
                CONST                 DATA           00478094  !      00000000
                CONST2                DATA           00478094  !      00000000
                _DATA                 DATA           0047db3c  !      00000001


                        +----------------------+
                        |   Imported Symbols   |
                        +----------------------+

Symbol                              Module
======                              ======

_SetErrorMode@4                     KERNEL32.DLL
_ExitProcess@4                      KERNEL32.DLL
_MessageBoxA@16                     USER32.DLL
_GetClassNameA@12                   USER32.DLL
_GetWindowThreadProcessId@8         USER32.DLL
_GetWindowTextA@12                  USER32.DLL
_EnumWindows@8                      USER32.DLL
_SetConsoleTitleA@4                 KERNEL32.DLL
_Beep@8                             KERNEL32.DLL
_GetForegroundWindow@0              USER32.DLL
_GetConsoleTitleA@8                 KERNEL32.DLL
_IsIconic@4                         USER32.DLL
_SetForegroundWindow@4              USER32.DLL
_IsWindow@4                         USER32.DLL
_GetLastError@0                     KERNEL32.DLL
_FindFirstFileA@8                   KERNEL32.DLL
_FindClose@4                        KERNEL32.DLL
_FileTimeToDosDateTime@12           KERNEL32.DLL
_DosDateTimeToFileTime@12           KERNEL32.DLL
_CreateFileA@28                     KERNEL32.DLL
_SetFileTime@16                     KERNEL32.DLL
_CloseHandle@4                      KERNEL32.DLL
_GetEnvironmentVariableA@12         KERNEL32.DLL
_LoadLibraryA@4                     KERNEL32.DLL
_GetProcAddress@8                   KERNEL32.DLL
_FreeLibrary@4                      KERNEL32.DLL
_GetSystemTime@4                    KERNEL32.DLL
_GetShortPathNameA@12               KERNEL32.DLL
_GetConsoleMode@8                   KERNEL32.DLL
_SetConsoleMode@8                   KERNEL32.DLL
_CreateConsoleScreenBuffer@20       KERNEL32.DLL
_SetConsoleActiveScreenBuffer@4     KERNEL32.DLL
_SetConsoleCtrlHandler@8            KERNEL32.DLL
_GetConsoleScreenBufferInfo@8       KERNEL32.DLL
_LocalAlloc@8                       KERNEL32.DLL
_WriteConsoleOutputA@20             KERNEL32.DLL
_SetConsoleCursorInfo@8             KERNEL32.DLL
_SetConsoleCursorPosition@8         KERNEL32.DLL
_FlushConsoleInputBuffer@4          KERNEL32.DLL
_PeekConsoleInputA@16               KERNEL32.DLL
_ReadConsoleInputA@16               KERNEL32.DLL
_WaitForSingleObject@8              KERNEL32.DLL
_GetTickCount@0                     KERNEL32.DLL
_GetDriveTypeA@4                    KERNEL32.DLL
_SetCurrentDirectoryA@4             KERNEL32.DLL
_GetCurrentDirectoryA@8             KERNEL32.DLL
_FindNextFileA@8                    KERNEL32.DLL
_GetFileType@4                      KERNEL32.DLL
_SetFilePointer@16                  KERNEL32.DLL
_GetACP@0                           KERNEL32.DLL
_GetOEMCP@0                         KERNEL32.DLL
_GetCPInfo@8                        KERNEL32.DLL
_GetEnvironmentStringsA@0           KERNEL32.DLL
_GetVersion@0                       KERNEL32.DLL
_GetModuleFileNameA@12              KERNEL32.DLL
_GetCommandLineA@0                  KERNEL32.DLL
_GetCommandLineW@0                  KERNEL32.DLL
_FreeEnvironmentStringsA@4          KERNEL32.DLL
_GetModuleHandleA@4                 KERNEL32.DLL
_FileTimeToLocalFileTime@8          KERNEL32.DLL
_LocalFileTimeToFileTime@8          KERNEL32.DLL
_GetFullPathNameA@16                KERNEL32.DLL
_SetStdHandle@8                     KERNEL32.DLL
_CreateEventA@16                    KERNEL32.DLL
_GetStdHandle@4                     KERNEL32.DLL
_WriteFile@20                       KERNEL32.DLL
_GetModuleFileNameW@12              KERNEL32.DLL
_MultiByteToWideChar@24             KERNEL32.DLL
_SetUnhandledExceptionFilter@4      KERNEL32.DLL
_UnhandledExceptionFilter@4         KERNEL32.DLL
_VirtualQuery@12                    KERNEL32.DLL
_GetCurrentThreadId@0               KERNEL32.DLL
_VirtualAlloc@16                    KERNEL32.DLL
_GetTimeZoneInformation@4           KERNEL32.DLL
_VirtualFree@12                     KERNEL32.DLL
_FlushFileBuffers@4                 KERNEL32.DLL
_SetEnvironmentVariableA@8          KERNEL32.DLL
_WideCharToMultiByte@32             KERNEL32.DLL
_SetEnvironmentVariableW@8          KERNEL32.DLL
_RtlUnwind@16                       KERNEL32.DLL
_FormatMessageA@28                  KERNEL32.DLL
_ReadFile@20                        KERNEL32.DLL
_CharUpperA@4                       USER32.DLL
_DeleteFileA@4                      KERNEL32.DLL


                        +--------------------+
                        |   Libraries Used   |
                        +--------------------+

/mnt/sda5/.user/root/src/openwatcom-1.9/rel2/lib386/nt/kernel32.lib
/mnt/sda5/.user/root/src/openwatcom-1.9/rel2/lib386/nt/user32.lib
/mnt/sda5/.user/root/src/openwatcom-1.9/bld/aui/nt386/aui.lib
/mnt/sda5/.user/root/src/openwatcom-1.9/bld/gui/ui/nt386/gui.lib
/mnt/sda5/.user/root/src/openwatcom-1.9/bld/ui/nt/nt386/ui.lib
/mnt/sda5/.user/root/src/openwatcom-1.9/bld/sdk/rc/wres/flat386/mf_r/wres.lib
/mnt/sda5/.user/root/src/openwatcom-1.9/rel2/lib386/math387r.lib
/mnt/sda5/.user/root/src/openwatcom-1.9/rel2/lib386/nt/emu387.lib
/mnt/sda5/.user/root/src/openwatcom-1.9/rel2/lib386/nt/clib3r.lib


                        +-----------------------+
                        |   Linker Statistics   |
                        +-----------------------+

Stack size:  00010000 (65536.)
Memory size:  00090ee2 (593634.)
Entry point address: 00468f34
Link time: 00:00.60
