Open Watcom Linker Version 1.9
Portions Copyright (c) 1985-2002 Sybase, Inc. All Rights Reserved.
Created on:       12/12/16 02:29:49
Executable Image: cvpack.exe
creating a Linux x86 executable


                        +------------+
                        |   Groups   |
                        +------------+

Group                           Address              Size
=====                           =======              ====

DGROUP                          08067000             0001d4c0



                        +--------------+
                        |   Segments   |
                        +--------------+

Segment                Class          Group          Address         Size
=======                =====          =====          =======         ====

BEGTEXT                CODE           AUTO           08048100        00000007
_TEXT                  CODE           AUTO           08048110        0001e8e5
_NULL                  BEGDATA        DGROUP         08067000        00000004
_AFTERNULL             BEGDATA        DGROUP         08067004        00000000
CONST                  DATA           DGROUP         08067004        0000044c
CONST2                 DATA           DGROUP         08067450        0000982c
_DATA                  DATA           DGROUP         08070c80        000027b8
XIB                    DATA           DGROUP         08073438        00000000
XI                     DATA           DGROUP         08073438        00000036
XIE                    DATA           DGROUP         0807346e        00000000
YIB                    DATA           DGROUP         0807346e        00000000
YI                     DATA           DGROUP         0807346e        0000000c
YIE                    DATA           DGROUP         0807347a        00000000
TIB                    DATA           DGROUP         0807347a        00000000
TI                     DATA           DGROUP         0807347a        00000000
TIE                    DATA           DGROUP         0807347a        00000000
DATA                   DATA           DGROUP         0807347a        00000000
_BSS                   BSS            DGROUP         08074000        000104c0


                        +----------------+
                        |   Memory Map   |
                        +----------------+

* = unreferenced symbol
+ = symbol only referenced locally

Address        Symbol
=======        ======

Module: cvpack.obj(/mnt/sda5/.user/root/src/openwatcom-1.9/bld/cvpack/cpp/cvpack.cpp)
08049230+      W?$dt:FileError$n()_
08049240       W?$dt:OutOfMemory$n()_
08049250       W?$dt:MiscError$n()_
08049260       W?$ct:WCExcept$n()_
08049270       W?$dt:WCExcept$n()_
08049300+      W?$dt:TypeIndexMap$n()_
080493a0       W?$ct:WCIsvListBase$n()_
08049400+      W?$dt:Retriever$n()_
08049480+      W?$dt:ODirectory$n()_
08049510+      W?$dt:ExeMaker$n()_
08049520+      W?$ct:TypeArray$n()_
08049560       W?$dt:TypeArray$n()_
080495d0       W?$dt:GlobalTypeArray$n()_
080496e0+      W?$ct:LocalTypeArray$n()_
08049820+      W?$dt:LocalTypeArray$n()_
08049960+      W?$ct:SstGlobalTypes$n()_
08049ab0+      W?$dt:SstGlobalTypes$n()_
08049c80+      W?$ct:SstGlobalSym$n()_
08049d10+      W?$dt:SstGlobalSym$n()_
08049da0+      W?$dt:CVpack$n()_
08049e90+      W?$dt:SymbolDistributor$n()_
08048170       W?NumLeafLength$n(pnxa)ui
080481b0+      W?ConvertFName$n(pna)v
08048230+      W?outOfMemory$n()v
08048250+      W?DoExeCode$:CVpack$n()v
080482f0+      W?DoSstModule$:CVpack$n()ui
08048380+      W?DumpSig$:CVpack$n()v
080483a0*      W?DoSrcModule$:CVpack$n(ui)ui
08048420+      W?DoSegMap$:CVpack$n()ui
080484c0+      W?DoAlignSym$:CVpack$n(pn$SstAlignSym$$ui)v
08048500+      W?DoGlobalSym$:CVpack$n(rn$SstGlobalSym$$ui)v
08048550+      W?DoStaticSym$:CVpack$n(rn$SstGlobalSym$$ui)v
080485a0+      W?DoDirectory$:CVpack$n()v
08049fa0       W?$ct:MiscError$n(rnx$0$)_
08049fc0       W?$ct:OutOfMemory$n(rnx$0$)_
08049fe0+      W?$ct:FileError$n(rnx$0$)_
0804a000       W?$ct:RetrieveError$n(rnx$0$)_
0804a010       W?$dt:RetrieveError$n()_
0804a020       W?$ct:CVpackError$n(rnx$0$)_
0804a030       W?$dt:CVpackError$n()_
0804a040       W?base_init_upto$:WCBareVectorBase$::1n$__304un0mappingStruct$:TypeIndexMap$$n(i)v
0804a080       W?$dt:WCBareVectorBase$::1n$__304un0mappingStruct$:TypeIndexMap$$n()_
0804a100       W?base_init_upto$:WCBareVectorBase$::1npnvn(i)v
0804a140       W?$dt:WCBareVectorBase$::1npnvn()_
0804a1c0       W?$dt:WCVectorBase$::1npnvn()_
0804a1e0       W?$dt:WCOrderedVectorBase$::1npnvn()_
0804a200       W?base_find$:WCOrderedVectorBase$::1npnvn.x(rnxpnv$find_type$:WCVectorBase$::1npnv$pni)i
0804a260       W?base_init_upto$:WCPtrVectorBase$::1n$LFTypeRecord$$1n$WCOrderedVectorBase$::1npnv$n(i)v
0804a2a0       W?$dt:WCPtrVectorBase$::1n$LFTypeRecord$$1n$WCOrderedVectorBase$::1npnv$n()_
0804a2c0       W?$dt:WCValVector$::1n$__304un0mappingStruct$:TypeIndexMap$$n()_
0804a360+      W?$dt:WCValVector$::1npnvn()_
0804a400+      W?$ct:WCPtrVector$::1n$SymbolStruct$$n(ui)_
0804a460+      W?$dt:WCPtrVector$::1n$SymbolStruct$$n()_
0804a520       W?base_init_upto$:WCPtrVector$::1n$SymbolStruct$$n(i)v
0804a560       W?base_equivalent$:WCPtrOrderedVector$::1n$LFTypeRecord$$n.x(rnxpnvrnxpnv)i
0804a570       W?$ct:WCPtrOrderedVector$::1n$LFTypeRecord$$n(uiui)_
0804a610       W?$dt:WCPtrOrderedVector$::1n$LFTypeRecord$$n()_
0804a6c0       W?$dt:MyValBoundVector$::1n$__304un0mappingStruct$:TypeIndexMap$$n()_
0804a7b0       W?WCListDelete$:WCIsvSListBase$::1n$WCNIsvSLink$::1npn$cv_dir_entry$$$n(pn$WCSLink$$)v
0804a810       W?$dt:WCIsvSListBase$::1n$WCNIsvSLink$::1npn$cv_dir_entry$$$n()_
0804a830       W?WCListDelete$:WCIsvSListBase$::1n$WCNIsvSLink$::1npn$LFSubField$$$n(pn$WCSLink$$)v
0804a890       W?$dt:WCIsvSListBase$::1n$WCNIsvSLink$::1npn$LFSubField$$$n()_
0804a8b0       W?WCListDelete$:WCIsvSListBase$::1n$WCNIsvSLink$::1npn$my_ct_mlist$$$n(pn$WCSLink$$)v
0804a910       W?$dt:WCIsvSListBase$::1n$WCNIsvSLink$::1npn$my_ct_mlist$$$n()_
0804a930       W?WCListDelete$:WCIsvSListBase$::1n$WCNIsvSLink$::1nus$n(pn$WCSLink$$)v
0804a990       W?$dt:WCIsvSListBase$::1n$WCNIsvSLink$::1nus$n()_
0804a9b0       W?WCListDelete$:WCIsvSListBase$::1n$WCNIsvSLink$::1npn$LFGlobalTypeRecord$$$n(pn$WCSLink$$)v
0804aa10       W?$dt:WCIsvSListBase$::1n$WCNIsvSLink$::1npn$LFGlobalTypeRecord$$$n()_
0804aa30       W?WCListDelete$:WCIsvSListBase$::1n$WCNIsvSLink$::1npn$LFTypeRecord$$$n(pn$WCSLink$$)v
0804aa90       W?$dt:WCIsvSListBase$::1n$WCNIsvSLink$::1npn$LFTypeRecord$$$n()_
0804aab0       W?WCListDelete$:WCIsvSListBase$::1n$WCNIsvSLink$::1npn$SymbolStruct$$$n(pn$WCSLink$$)v
0804ab10       W?$dt:WCIsvSListBase$::1n$WCNIsvSLink$::1npn$SymbolStruct$$$n()_
0804ab30       W?WCListDelete$:WCIsvSListBase$::1n$WCNIsvSLink$::1npn$chain_table$:NameHashTable$$$n(pn$WCSLink$$)v
0804ab90       W?$dt:WCIsvSListBase$::1n$WCNIsvSLink$::1npn$chain_table$:NameHashTable$$$n()_
0804abb0       W?WCListDelete$:WCIsvSListBase$::1n$WCNIsvSLink$::1npn$offset_table$:AddrHashTable$$$n(pn$WCSLink$$)v
0804ac10       W?$dt:WCIsvSListBase$::1n$WCNIsvSLink$::1npn$offset_table$:AddrHashTable$$$n()_
0804ac30       W?WCListDelete$:WCValListBase$::1npn$cv_dir_entry$$1n$WCIsvSListBase$::1n$WCNIsvSLink$::1npn$2$$$1n$4::1npn$2$$n(pn$WCSLink$$)v
0804ac50       W?$dt:WCValListBase$::1npn$cv_dir_entry$$1n$WCIsvSListBase$::1n$WCNIsvSLink$::1npn$1$$$1n$3::1npn$1$$n()_
0804acd0       W?WCListDelete$:WCValListBase$::1npn$LFSubField$$1n$WCIsvSListBase$::1n$WCNIsvSLink$::1npn$2$$$1n$4::1npn$2$$n(pn$WCSLink$$)v
0804acf0       W?$dt:WCValListBase$::1npn$LFSubField$$1n$WCIsvSListBase$::1n$WCNIsvSLink$::1npn$1$$$1n$3::1npn$1$$n()_
0804ad70       W?WCListDelete$:WCValListBase$::1npn$my_ct_mlist$$1n$WCIsvSListBase$::1n$WCNIsvSLink$::1npn$2$$$1n$4::1npn$2$$n(pn$WCSLink$$)v
0804ad90       W?$dt:WCValListBase$::1npn$my_ct_mlist$$1n$WCIsvSListBase$::1n$WCNIsvSLink$::1npn$1$$$1n$3::1npn$1$$n()_
0804ae10       W?WCListDelete$:WCValListBase$::1nus1n$WCIsvSListBase$::1n$WCNIsvSLink$::1nus$$1n$3::1nus$n(pn$WCSLink$$)v
0804ae30       W?$dt:WCValListBase$::1nus1n$WCIsvSListBase$::1n$WCNIsvSLink$::1nus$$1n$2::1nus$n()_
0804aeb0       W?WCListDelete$:WCValListBase$::1npn$LFGlobalTypeRecord$$1n$WCIsvSListBase$::1n$WCNIsvSLink$::1npn$2$$$1n$4::1npn$2$$n(pn$WCSLink$$)v
0804aed0       W?$dt:WCValListBase$::1npn$LFGlobalTypeRecord$$1n$WCIsvSListBase$::1n$WCNIsvSLink$::1npn$1$$$1n$3::1npn$1$$n()_
0804af50       W?WCListDelete$:WCValListBase$::1npn$LFTypeRecord$$1n$WCIsvSListBase$::1n$WCNIsvSLink$::1npn$2$$$1n$4::1npn$2$$n(pn$WCSLink$$)v
0804af70       W?$dt:WCValListBase$::1npn$LFTypeRecord$$1n$WCIsvSListBase$::1n$WCNIsvSLink$::1npn$1$$$1n$3::1npn$1$$n()_
0804aff0       W?WCListDelete$:WCValListBase$::1npn$SymbolStruct$$1n$WCIsvSListBase$::1n$WCNIsvSLink$::1npn$2$$$1n$4::1npn$2$$n(pn$WCSLink$$)v
0804b010       W?$dt:WCValListBase$::1npn$SymbolStruct$$1n$WCIsvSListBase$::1n$WCNIsvSLink$::1npn$1$$$1n$3::1npn$1$$n()_
0804b090       W?WCListDelete$:WCValListBase$::1npn$chain_table$:NameHashTable$$1n$WCIsvSListBase$::1n$WCNIsvSLink$::1npn$2:3$$$1n$5::1npn$2:3$$n(pn$WCSLink$$)v
0804b0b0       W?$dt:WCValListBase$::1npn$chain_table$:NameHashTable$$1n$WCIsvSListBase$::1n$WCNIsvSLink$::1npn$1:2$$$1n$4::1npn$1:2$$n()_
0804b130       W?WCListDelete$:WCValListBase$::1npn$offset_table$:AddrHashTable$$1n$WCIsvSListBase$::1n$WCNIsvSLink$::1npn$2:3$$$1n$5::1npn$2:3$$n(pn$WCSLink$$)v
0804b150       W?$dt:WCValListBase$::1npn$offset_table$:AddrHashTable$$1n$WCIsvSListBase$::1n$WCNIsvSLink$::1npn$1:2$$$1n$4::1npn$1:2$$n()_
0804b1d0+      W?$dt:WCPtrListBase$::1n$cv_dir_entry$$1n$WCValSList$::1npn$1$$n()_
0804b240       W?clearAndDestroy$:WCPtrListBase$::1n$cv_dir_entry$$1n$WCValSList$::1npn$2$$n()v
0804b270       W?clearAndDestroy$:WCPtrListBase$::1n$LFSubField$$1n$WCValSList$::1npn$2$$n()v
0804b2b0       W?clearAndDestroy$:WCPtrListBase$::1n$my_ct_mlist$$1n$WCValSList$::1npn$2$$n()v
0804b2e0       W?$dt:WCPtrListBase$::1n$LFTypeRecord$$1n$WCValSList$::1npn$1$$n()_
0804b350       W?$dt:WCPtrListBase$::1n$SymbolStruct$$1n$WCValSList$::1npn$1$$n()_
0804b3c0       W?clearAndDestroy$:WCPtrListBase$::1n$SymbolStruct$$1n$WCValSList$::1npn$2$$n()v
0804b400       W?clearAndDestroy$:WCPtrListBase$::1n$chain_table$:NameHashTable$$1n$WCValSList$::1npn$2:3$$n()v
0804b430       W?clearAndDestroy$:WCPtrListBase$::1n$offset_table$:AddrHashTable$$1n$WCValSList$::1npn$2:3$$n()v
0804b460+      W?base_equivalent$:WCValSList$::1npn$cv_dir_entry$$n.x(rnxpn$2$rnxpn$2$)i
0804b470+      W?$dt:WCValSList$::1npn$cv_dir_entry$$n()_
0804b510       W?base_equivalent$:WCValSList$::1npn$LFTypeRecord$$n.x(rnxpn$2$rnxpn$2$)i
0804b520       W?$dt:WCValSList$::1npn$LFTypeRecord$$n()_
0804b5c0       W?base_equivalent$:WCValSList$::1npn$SymbolStruct$$n.x(rnxpn$2$rnxpn$2$)i
0804b5d0       W?$dt:WCValSList$::1npn$SymbolStruct$$n()_
0804b670+      W?base_equivalent$:WCPtrSList$::1n$cv_dir_entry$$n.x(rnxpn$2$rnxpn$2$)i
0804b680+      W?$ct:WCPtrSList$::1n$cv_dir_entry$$n()_
0804b720+      W?$dt:WCPtrSList$::1n$cv_dir_entry$$n()_
0804b7e0       W?base_equivalent$:WCPtrSList$::1n$LFTypeRecord$$n.x(rnxpn$2$rnxpn$2$)i
0804b7f0       W?$ct:WCPtrSList$::1n$LFTypeRecord$$n()_
0804b890       W?$dt:WCPtrSList$::1n$LFTypeRecord$$n()_
0804b950       W?base_equivalent$:WCPtrSList$::1n$SymbolStruct$$n.x(rnxpn$2$rnxpn$2$)i
0804b960       W?$ct:WCPtrSList$::1n$SymbolStruct$$n()_
0804ba00       W?$dt:WCPtrSList$::1n$SymbolStruct$$n()_
0804bac0       W?resize$:WCBareVectorBase$::1npnvn(ui)i
0804bb70       W?base_index_check$:WCVectorBase$::1npnvn.x(i)i
0804bbf0       W?resize$:WCVectorBase$::1npnvn(ui)i
0804bc20       W?$ct:WCPtrVectorBase$::1n$LFTypeRecord$$1n$WCOrderedVectorBase$::1npnv$n(uiui)_
0804bcb0       W?$ct:WCValVector$::1n$__304un0mappingStruct$:TypeIndexMap$$n(ui)_
0804bcc0       W?$od:WCValVector$::1n$__304un0mappingStruct$:TypeIndexMap$$n(i)rn$1:2$
0804bd30+      W?$ct:WCValVector$::1npnvn(ui)_
0804bd40       W?$ct:MyValBoundVector$::1n$__304un0mappingStruct$:TypeIndexMap$$n(usui)_
0804bdb0       W?insert$:WCValListBase$::1nus1n$WCIsvSListBase$::1n$WCNIsvSLink$::1nus$$1n$3::1nus$n(rnxus)i
0804bde0       W?insert$:WCValListBase$::1npn$LFGlobalTypeRecord$$1n$WCIsvSListBase$::1n$WCNIsvSLink$::1npn$2$$$1n$4::1npn$2$$n(rnxpn$2$)i
0804be10       W?get$:WCValListBase$::1npn$LFGlobalTypeRecord$$1n$WCIsvSListBase$::1n$WCNIsvSLink$::1npn$2$$$1n$4::1npn$2$$n(i)pn$2$
0804be40       W?append$:WCValListBase$::1npn$LFTypeRecord$$1n$WCIsvSListBase$::1n$WCNIsvSLink$::1npn$2$$$1n$4::1npn$2$$n(rnxpn$2$)i
0804be70       W?append$:WCValListBase$::1npn$SymbolStruct$$1n$WCIsvSListBase$::1n$WCNIsvSLink$::1npn$2$$$1n$4::1npn$2$$n(rnxpn$2$)i
0804bea0+      W?$ct:WCPtrListBase$::1n$cv_dir_entry$$1n$WCValSList$::1npn$1$$n(pn(ui)pnvpn(pnvui)v)_
0804bf40       W?$ct:WCPtrListBase$::1n$LFTypeRecord$$1n$WCValSList$::1npn$1$$n(pn(ui)pnvpn(pnvui)v)_
0804bfe0       W?$ct:WCPtrListBase$::1n$SymbolStruct$$1n$WCValSList$::1npn$1$$n(pn(ui)pnvpn(pnvui)v)_
0804c080+      W?$ct:WCValSList$::1npn$cv_dir_entry$$n(pn(ui)pnvpn(pnvui)v)_
0804c120       W?$ct:WCValSList$::1npn$LFTypeRecord$$n(pn(ui)pnvpn(pnvui)v)_
0804c1c0       W?$ct:WCValSList$::1npn$SymbolStruct$$n(pn(ui)pnvpn(pnvui)v)_
0804c260       W?$ct:WCBareVectorBase$::1n$__304un0mappingStruct$:TypeIndexMap$$n(ui)_
0804c2f0       W?resize$:WCBareVectorBase$::1n$__304un0mappingStruct$:TypeIndexMap$$n(ui)i
0804c3d0       W?$ct:WCBareVectorBase$::1npnvn(ui)_
0804c460       W?base_insert_at$:WCVectorBase$::1npnvn(irnxpnv)i
0804c550       W?$ct:WCOrderedVectorBase$::1npnvn(uiui)_
0804c5d0+      W?$ct:WCValListBase$::1npn$cv_dir_entry$$1n$WCIsvSListBase$::1n$WCNIsvSLink$::1npn$1$$$1n$3::1npn$1$$n(pn(ui)pnvpn(pnvui)v)_
0804c660       W?get$:WCValListBase$::1npn$cv_dir_entry$$1n$WCIsvSListBase$::1n$WCNIsvSLink$::1npn$2$$$1n$4::1npn$2$$n(i)pn$2$
0804c690       W?get$:WCValListBase$::1npn$LFSubField$$1n$WCIsvSListBase$::1n$WCNIsvSLink$::1npn$2$$$1n$4::1npn$2$$n(i)pn$2$
0804c6c0       W?get$:WCValListBase$::1npn$my_ct_mlist$$1n$WCIsvSListBase$::1n$WCNIsvSLink$::1npn$2$$$1n$4::1npn$2$$n(i)pn$2$
0804c6f0       W?WCListNew$:WCValListBase$::1nus1n$WCIsvSListBase$::1n$WCNIsvSLink$::1nus$$1n$3::1nus$n(rnxus)pn$3::1nus$
0804c730       W?WCListNew$:WCValListBase$::1npn$LFGlobalTypeRecord$$1n$WCIsvSListBase$::1n$WCNIsvSLink$::1npn$2$$$1n$4::1npn$2$$n(rnxpn$2$)pn$4::1npn$2$$
0804c770       W?$ct:WCValListBase$::1npn$LFTypeRecord$$1n$WCIsvSListBase$::1n$WCNIsvSLink$::1npn$1$$$1n$3::1npn$1$$n(pn(ui)pnvpn(pnvui)v)_
0804c800       W?WCListNew$:WCValListBase$::1npn$LFTypeRecord$$1n$WCIsvSListBase$::1n$WCNIsvSLink$::1npn$2$$$1n$4::1npn$2$$n(rnxpn$2$)pn$4::1npn$2$$
0804c840       W?$ct:WCValListBase$::1npn$SymbolStruct$$1n$WCIsvSListBase$::1n$WCNIsvSLink$::1npn$1$$$1n$3::1npn$1$$n(pn(ui)pnvpn(pnvui)v)_
0804c8d0       W?WCListNew$:WCValListBase$::1npn$SymbolStruct$$1n$WCIsvSListBase$::1n$WCNIsvSLink$::1npn$2$$$1n$4::1npn$2$$n(rnxpn$2$)pn$4::1npn$2$$
0804c910       W?get$:WCValListBase$::1npn$SymbolStruct$$1n$WCIsvSListBase$::1n$WCNIsvSLink$::1npn$2$$$1n$4::1npn$2$$n(i)pn$2$
0804c940       W?get$:WCValListBase$::1npn$chain_table$:NameHashTable$$1n$WCIsvSListBase$::1n$WCNIsvSLink$::1npn$2:3$$$1n$5::1npn$2:3$$n(i)pn$2:3$
0804c970       W?get$:WCValListBase$::1npn$offset_table$:AddrHashTable$$1n$WCIsvSListBase$::1n$WCNIsvSLink$::1npn$2:3$$$1n$5::1npn$2:3$$n(i)pn$2:3$
0804c9a0       W?$ct:WCVectorBase$::1npnvn(uiui)_
0804ca00+      W?$ct:WCIsvSListBase$::1n$WCNIsvSLink$::1npn$cv_dir_entry$$$n()_
08068800       W?$Wvf0Co4:WCExcept$$nx[]pn()v
08068810       W?$Wvf0Ho4:WCIsvListBase$$nx[]pn()v
08068820       W?$Wvf0Dos:TypeArray$$nx[]pn()v
08068830       W?$Wvf0Jos:GlobalTypeArray$$nx[]pn()v
08068840+      W?$Wvf0Ios:LocalTypeArray$$nx[]pn()v
08068850+      W?$Wvf0Jo6e:SstGlobalTypes$$nx[]pn()v
08068860       W?$Wvf0Do0:MiscError$$nx[]pn()v
08068870       W?$Wvf0Fo0:OutOfMemory$$nx[]pn()v
08068880       W?$Wvf0Do0:FileError$$nx[]pn()v
08068890       W?$Wvf0Ho0:RetrieveError$$nx[]pn()v
080688a0       W?$Wvf0Fo0:CVpackError$$nx[]pn()v
080688b0       W?$Wvf10o4:WCBareVectorBase$::1n$__304un0mappingStruct$:TypeIndexMap$$$nx[]pn()v
080688c0       W?$Wvf0Ro4:WCBareVectorBase$::1npnv$nx[]pn()v
080688d0       W?$Wvf0No4:WCVectorBase$::1npnv$nx[]pn()v
080688f0       W?$Wvf0Uo4:WCOrderedVectorBase$::1npnv$nx[]pn()v
08068910       W?$Wvf17o4:WCPtrVectorBase$::1n$LFTypeRecord$$1n$WCOrderedVectorBase$::1npnv$$nx[]pn()v
08068930       W?$Wvf0vo4:WCValVector$::1n$__304un0mappingStruct$:TypeIndexMap$$$nx[]pn()v
08068940+      W?$Wvf0Mo4:WCValVector$::1npnv$nx[]pn()v
08068950+      W?$Wvf0Yo4:WCPtrVector$::1n$SymbolStruct$$$nx[]pn()v
08068960       W?$Wvf0fo4:WCPtrOrderedVector$::1n$LFTypeRecord$$$nx[]pn()v
08068980       W?$Wvf10o4:MyValBoundVector$::1n$__304un0mappingStruct$:TypeIndexMap$$$nx[]pn()v
08068990       W?$Wvf0vo4:WCIsvSListBase$::1n$WCNIsvSLink$::1npn$cv_dir_entry$$$$nx[]pn()v
080689a0       W?$Wvf0to4:WCIsvSListBase$::1n$WCNIsvSLink$::1npn$LFSubField$$$$nx[]pn()v
080689b0       W?$Wvf0uo4:WCIsvSListBase$::1n$WCNIsvSLink$::1npn$my_ct_mlist$$$$nx[]pn()v
080689c0       W?$Wvf0go4:WCIsvSListBase$::1n$WCNIsvSLink$::1nus$$nx[]pn()v
080689d0       W?$Wvf11o4:WCIsvSListBase$::1n$WCNIsvSLink$::1npn$LFGlobalTypeRecord$$$$nx[]pn()v
080689e0       W?$Wvf0vo4:WCIsvSListBase$::1n$WCNIsvSLink$::1npn$LFTypeRecord$$$$nx[]pn()v
080689f0       W?$Wvf0vo4:WCIsvSListBase$::1n$WCNIsvSLink$::1npn$SymbolStruct$$$$nx[]pn()v
08068a00       W?$Wvf19o4:WCIsvSListBase$::1n$WCNIsvSLink$::1npn$chain_table$:NameHashTable$$$$nx[]pn()v
08068a10       W?$Wvf1Ao4:WCIsvSListBase$::1n$WCNIsvSLink$::1npn$offset_table$:AddrHashTable$$$$nx[]pn()v
08068a20       W?$Wvf1ao4:WCValListBase$::1npn$cv_dir_entry$$1n$WCIsvSListBase$::1n$WCNIsvSLink$::1npn$1$$$1n$3::1npn$1$$$nx[]pn()v
08068a30       W?$Wvf1Yo4:WCValListBase$::1npn$LFSubField$$1n$WCIsvSListBase$::1n$WCNIsvSLink$::1npn$1$$$1n$3::1npn$1$$$nx[]pn()v
08068a40       W?$Wvf1Zo4:WCValListBase$::1npn$my_ct_mlist$$1n$WCIsvSListBase$::1n$WCNIsvSLink$::1npn$1$$$1n$3::1npn$1$$$nx[]pn()v
08068a50       W?$Wvf1Fo4:WCValListBase$::1nus1n$WCIsvSListBase$::1n$WCNIsvSLink$::1nus$$1n$2::1nus$$nx[]pn()v
08068a60       W?$Wvf1go4:WCValListBase$::1npn$LFGlobalTypeRecord$$1n$WCIsvSListBase$::1n$WCNIsvSLink$::1npn$1$$$1n$3::1npn$1$$$nx[]pn()v
08068a70       W?$Wvf1ao4:WCValListBase$::1npn$LFTypeRecord$$1n$WCIsvSListBase$::1n$WCNIsvSLink$::1npn$1$$$1n$3::1npn$1$$$nx[]pn()v
08068a80       W?$Wvf1ao4:WCValListBase$::1npn$SymbolStruct$$1n$WCIsvSListBase$::1n$WCNIsvSLink$::1npn$1$$$1n$3::1npn$1$$$nx[]pn()v
08068a90       W?$Wvf1so4:WCValListBase$::1npn$chain_table$:NameHashTable$$1n$WCIsvSListBase$::1n$WCNIsvSLink$::1npn$1:2$$$1n$4::1npn$1:2$$$nx[]pn()v
08068aa0       W?$Wvf1to4:WCValListBase$::1npn$offset_table$:AddrHashTable$$1n$WCIsvSListBase$::1n$WCNIsvSLink$::1npn$1:2$$$1n$4::1npn$1:2$$$nx[]pn()v
08068ab0+      W?$Wvf0yo4:WCPtrListBase$::1n$cv_dir_entry$$1n$WCValSList$::1npn$1$$$nx[]pn()v
08068ac0       W?$Wvf0yo4:WCPtrListBase$::1n$LFTypeRecord$$1n$WCValSList$::1npn$1$$$nx[]pn()v
08068ad0       W?$Wvf0yo4:WCPtrListBase$::1n$SymbolStruct$$1n$WCValSList$::1npn$1$$$nx[]pn()v
08068ae0+      W?$Wvf0Zo4:WCValSList$::1npn$cv_dir_entry$$$nx[]pn()v
08068af0       W?$Wvf0Zo4:WCValSList$::1npn$LFTypeRecord$$$nx[]pn()v
08068b00       W?$Wvf0Zo4:WCValSList$::1npn$SymbolStruct$$$nx[]pn()v
08068b10+      W?$Wvf0Xo4:WCPtrSList$::1n$cv_dir_entry$$$nx[]pn()v
08068b20       W?$Wvf0Xo4:WCPtrSList$::1n$LFTypeRecord$$$nx[]pn()v
08068b30       W?$Wvf0Xo4:WCPtrSList$::1n$SymbolStruct$$$nx[]pn()v
08068b40       W?$Wcm012$nx[]uc
08068b50+      W?$Wcm014$nx[]uc
08068b60+      W?$Wcm016$nx[]uc
08068b70       W?$Wcm015$nx[]uc
08068b80+      W?$Wcm017$nx[]uc
08068b90       W?$Wcm013$nx[]uc
08068ba0+      W?$Wcm0212$nx[]uc
08068bb0+      W?$Wcm0216$nx[]uc
08068bc0+      W?$Wcm0222$nx[]uc
08068bd0+      W?$Wcm0221$nx[]uc
08068be0+      W?$Wcm0231$nx[]uc
08068bf0+      W?$Wcm0230$nx[]uc
08068c00+      W?$Wcm0241$nx[]uc
08068c10+      W?$Wcm0240$nx[]uc
08068c20       W?$Wth0Hnrn$OutOfMemory$$$nx[]uc
08068c40       W?$Wth0Fnrn$MiscError$$$nx[]uc
08068c60+      W?$Wth0Fnrn$FileError$$$nx[]uc
08068c90       W?$Wts0Cn$WCExcept$$$nx[]uc
08068cb0       W?$Wts0Fn$CVpackError$$$nx[]uc
08068cd0       W?$Wts0Xn$WCPtrSList$::1n$LFTypeRecord$$$$nx[]uc
08068cf0       W?$Wts0Jn$GlobalTypeArray$$$nx[]uc
08068d10+      W?$Wts0In$LocalTypeArray$$$nx[]uc
08068d30+      W?$Wts0In$SstGlobalTypes$$$nx[]uc
08068d50+      W?$Wts0Gn$TypeIndexMap$$$nx[]uc
08068d70       W?$Wts0Fn$OutOfMemory$$$nx[]uc
08068d90       W?$Wts0Dn$MiscError$$$nx[]uc
08068db0+      W?$Wts0Gn$SstGlobalSym$$$nx[]uc
08068dd0+      W?$Wts0Ln$SymbolDistributor$$$nx[]uc
08068df0       W?$Wts0Hn$ifstream$:std$$$nx[]uc
08068e10+      W?$Wts0Dn$FileError$$$nx[]uc
08068e30       W?$Wts0Hn$RetrieveError$$$nx[]uc
08068e50+      W?$Wts0An$CVpack$$$nx[]uc
08068e70       W?$Wts0vn$WCValVector$::1n$__304un0mappingStruct$:TypeIndexMap$$$$nx[]uc
08068e90+      W?$Wts0Mn$WCValVector$::1npnv$$nx[]uc
08068eb0+      W?$Wts0Yn$WCPtrVector$::1n$SymbolStruct$$$$nx[]uc
08068ed0       W?$Wts0fn$WCPtrOrderedVector$::1n$LFTypeRecord$$$$nx[]uc
08068ef0       W?$Wts10n$MyValBoundVector$::1n$__304un0mappingStruct$:TypeIndexMap$$$$nx[]uc
08068f10+      W?$Wts0Zn$WCValSList$::1npn$cv_dir_entry$$$$nx[]uc
08068f30       W?$Wts0Zn$WCValSList$::1npn$LFTypeRecord$$$$nx[]uc
08068f50       W?$Wts0Zn$WCValSList$::1npn$SymbolStruct$$$$nx[]uc
08068f70+      W?$Wts0Xn$WCPtrSList$::1n$cv_dir_entry$$$$nx[]uc
08070c98       W?$Wti0W$WCPtrSList$::1n$SymbolStruct$$$$n[]uc
08070cc0+      W?$Wti0W$WCPtrSList$::1n$cv_dir_entry$$$$n[]uc
08070ce8       W?$Wti0Y$WCValSList$::1npn$SymbolStruct$$$$n[]uc
08070d10       W?$Wti0Y$WCValSList$::1npn$LFTypeRecord$$$$n[]uc
08070d38+      W?$Wti0Y$WCValSList$::1npn$cv_dir_entry$$$$n[]uc
08070d60       W?$Wti0z$MyValBoundVector$::1n$__304un0mappingStruct$:TypeIndexMap$$$$n[]uc
08070da4       W?$Wti0e$WCPtrOrderedVector$::1n$LFTypeRecord$$$$n[]uc
08070dd4+      W?$Wti0X$WCPtrVector$::1n$SymbolStruct$$$$n[]uc
08070dfc+      W?$Wti0L$WCValVector$::1npnv$$n[]uc
08070e18       W?$Wti0u$WCValVector$::1n$__304un0mappingStruct$:TypeIndexMap$$$$n[]uc
08070e58+      W?$Wti09$CVpack$$$n[]uc
08070e68       W?$Wti0G$RetrieveError$$$n[]uc
08070e80+      W?$Wti0C$FileError$$$n[]uc
08070e94       W?$Wti0G$ifstream$:std$$$n[]uc
08070eac+      W?$Wti0K$SymbolDistributor$$$n[]uc
08070ec8+      W?$Wti0F$SstGlobalSym$$$n[]uc
08070edc       W?$Wti0C$MiscError$$$n[]uc
08070ef0       W?$Wti0E$OutOfMemory$$$n[]uc
08070f04+      W?$Wti0F$TypeIndexMap$$$n[]uc
08070f18+      W?$Wti0H$SstGlobalTypes$$$n[]uc
08070f30+      W?$Wti0H$LocalTypeArray$$$n[]uc
08070f48       W?$Wti0I$GlobalTypeArray$$$n[]uc
08070f60       W?$Wti0W$WCPtrSList$::1n$LFTypeRecord$$$$n[]uc
08070f88       W?$Wti0E$CVpackError$$$n[]uc
0804ca70       W?$ct:WCIsvSListBase$::1n$WCNIsvSLink$::1npn$LFTypeRecord$$$n()_
0804cae0       W?$ct:WCIsvSListBase$::1n$WCNIsvSLink$::1npn$SymbolStruct$$$n()_
0804cb50       W?.tdtor$:ofstream$:std$n()pnv
0804cb60       W?.tdtor$:ifstream$:std$n()pnv
08048660+      W?DoPublics$:CVpack$n(uiui)v
080488b0+      W?DoLibraries$:CVpack$n()v
08048930+      W?DoGlobalTypes$:CVpack$n(rn$SstGlobalTypes$$)v
08048980+      W?CreatePackExe$:CVpack$n()v
08048eb0       main_
08068f90       W?$Wts0Xn$WCPtrSList$::1n$SymbolStruct$$$$nx[]uc
08070f9c       W?$Wti0B$WCExcept$$$n[]uc
08074100       W?TypeMap$n$TypeIndexMap$$
Module: retrieve.obj(/mnt/sda5/.user/root/src/openwatcom-1.9/bld/cvpack/cpp/retrieve.cpp)
0804d3a0+      W?$ct:DebugInfoError$n()_
0804d3b0+      W?$dt:DebugInfoError$n()_
0804d3c0       W?$dt:InternalError$n()_
0804cb70       W?$ra:cv_dir_entry$n.x(rnx$0$)q
0804cb90+      W?$ct:Directory$n(rn$ifstream$:std$$l)_
0804cc60*      W?CompMod$:Directory$n(ulul)i
0804cc80+      W?CompSub$:Directory$n(usus)i
0804ccb0+      W?IsModule$:Directory$n(us)q
0804ccd0+      W?IsModuleBasis$:Directory$n(usus)q
0804ccf0+      W?Compare$:Directory$n(pnxvpnxv)i
0804cd50+      W?GetDirInfo$:Directory$n(rn$__2c62hldir_info$$$$TE$$ul)q
0804cda0+      W?IsAtSubsection$:Directory$n($$TE$$)q
0804cdc0       W?$dt:Directory$n()_
0804cdf0+      W?GetBasePos$:Retriever$n()l
0804ce70+      W?GetPEDebugDirCVEntryPos$:Retriever$n()l
0804cef0+      W?GetDirPos$:Retriever$n()l
0804cf50       W?SeekRead$:Retriever$n(pnvlui)ul
0804d010       W?$ct:Retriever$n(rn$ifstream$:std$$)_
0804d0f0+      W?CheckSig$:Retriever$n()v
0804d180+      W?LocalPageOff$:Retriever$n.x(ul)ul
0804d190*      W?IsCrossPage$:Retriever$n.x(rnx$__2c62hldir_info$$)q
0804d1b0+      W?ReadPage$:Retriever$n(ul)v
0804d1f0*      W?IsInCurrentPage$:Retriever$n.x(ul)q
0804d210*      W?Read$:Retriever$n(rnx$__2c62hldir_info$$)pna
0804d410       W?$ct:InternalError$n(rnx$0$)_
0804d430+      W?$ct:CVSigError$n()_
0804d440+      W?$ct:CVSigError$n(rnx$0$)_
0804d450+      W?$dt:CVSigError$n()_
0804d460+      W?$ct:DebugInfoError$n(rnx$0$)_
08068ff0+      W?$Wvf0Io0:DebugInfoError$$nx[]pn()v
08069000       W?$Wvf0Ho0:InternalError$$nx[]pn()v
08069010+      W?$Wvf0Eo0:CVSigError$$nx[]pn()v
08069020       W?$Wth0Jnrn$InternalError$$$nx[]uc
08069040+      W?$Wth0Knrn$DebugInfoError$$$nx[]uc
08069070+      W?$Wth0Gnrn$CVSigError$$$nx[]uc
080690a0       W?$Wts0Hn$InternalError$$$nx[]uc
080690c0+      W?$Wts0In$DebugInfoError$$$nx[]uc
08070fd0+      W?$Wti0D$CVSigError$$$n[]uc
08070ff0+      W?$Wti0H$DebugInfoError$$$n[]uc
0804d2c0       W?ReadSubsection$:Retriever$n(rnpnarnul$$TE$$ul)q
0804d380       W?IsAtSubsection$:Retriever$n($$TE$$)q
080690e0+      W?$Wts0En$CVSigError$$$nx[]uc
08071010       W?$Wti0G$InternalError$$$n[]uc
08070fb0+      W?_orderTable$:Directory$n[]uc
08074120+      W?_inputBuffer$:Retriever$n[]a
Module: cverror.obj(/mnt/sda5/.user/root/src/openwatcom-1.9/bld/cvpack/cpp/cverror.cpp)
0804d470       W?ErrorPrint$:CVpackError$n.x()v
0804d490       W?ErrorPrint$:RetrieveError$n.x()v
0804d4c0       W?ErrorPrint$:WriteError$n.x()v
0804d4f0       W?$ct:FileError$n(pnxa)_
0804d500       W?ErrorPrint$:FileError$n.x()v
0804d530       W?ErrorPrint$:DebugInfoError$n.x()v
0804d560       W?ErrorPrint$:CVSigError$n.x()v
0804d590       W?$ct:OutOfMemory$n(ui)_
0804d5a0       W?ErrorPrint$:OutOfMemory$n.x()v
0804d5d0       W?$ct:InternalError$n(pnxa)_
0804d5e0       W?ErrorPrint$:InternalError$n.x()v
0804d610       W?$ct:MiscError$n(pnxa)_
0804d620       W?ErrorPrint$:MiscError$n.x()v
Module: packtype.obj(/mnt/sda5/.user/root/src/openwatcom-1.9/bld/cvpack/cpp/packtype.cpp)
08051470       W?$ct:WCIterExcept$n()_
08051480       W?$dt:WCIterExcept$n()_
08051510       W?$ct:WCListIterBase$n(pn$WCIsvListBase$$)_
08051570       W?$dt:WCListIterBase$n()_
080515a0       W?$dt:VariantString$n()_
080515c0+      W?$dt:LFLeafStruct$n()_
08051660+      W?FixTypeIndex$:LFLeafStruct$n()v
08051670+      W?IsEqual$:LFLeafStruct$n.x(rnx$1$)q
08051680+      W?DerivedPut$:LFLeafStruct$n.x(rn$ExeMaker$$)v
08051690+      W?$dt:LFSubField$n()_
08051730+      W?FixTypeIndex$:LFSubField$n()v
08051740+      W?IsSubFieldEqual$:LFSubField$n.x(rnx$1$)q
08051750+      W?DerivedPut$:LFSubField$n.x(rn$ExeMaker$$)v
08051760+      W?$ct:LFNotTrans$n()_
080517d0+      W?$dt:LFNotTrans$n()_
08051870+      W?$ct:LFNull$n()_
080518e0+      W?$dt:LFNull$n()_
08051980+      W?$dt:LFModifier$n()_
08051a20+      W?$dt:LFPointer$n()_
08051ac0+      W?$dt:LFArray$n()_
08051b60+      W?$dt:LFClass$n()_
08051c00+      W?$dt:LFUnion$n()_
08051ca0+      W?$dt:LFEnum$n()_
08051d40+      W?$dt:LFProcedure$n()_
08051de0+      W?$dt:LFMFunction$n()_
08051e80+      W?$dt:LFVtShape$n()_
08051f20+      W?$dt:LFCobol0$n()_
08051fc0+      W?$dt:LFCobol1$n()_
08052060+      W?$dt:LFBArray$n()_
08052100+      W?$dt:LFLabel$n()_
080521a0+      W?$dt:LFDimArray$n()_
08052240+      W?$dt:LFVftPath$n()_
08052300+      W?$dt:LFArgList$n()_
080523c0+      W?$dt:LFDefArg$n()_
08052460+      W?$dt:LFFieldList$n()_
08052560+      W?$dt:LFDerived$n()_
08052620+      W?$dt:LFBitField$n()_
080526c0+      W?$dt:LFMethodList$n()_
080527a0+      W?$dt:LFDimConu$n()_
08052840+      W?$dt:LFDimConlu$n()_
080528e0+      W?$dt:LFBClass$n()_
08052980+      W?$dt:LFVBClass$n()_
08052a20+      W?$dt:LFEnumerate$n()_
08052ac0+      W?$dt:LFFriendFcn$n()_
08052b60+      W?$dt:LFIndex$n()_
08052c00+      W?$dt:LFMember$n()_
08052ca0+      W?$dt:LFMethod$n()_
08052d40+      W?$dt:LFNestedType$n()_
08052de0+      W?$dt:LFVFuncTab$n()_
08052e80+      W?$dt:LFFriendCls$n()_
08052f20+      W?$dt:LFOneMethod$n()_
08052fc0+      W?$dt:LFVFuncOff$n()_
0804d740*      W?$ra:LFLeafStruct$n.x(rnx$0$)q
0804d760+      W?$ra:LFSubField$n.x(rnx$0$)q
0804d780+      W?$ra:my_ct_mlist$n.x(rnx$0$)q
0804d7a0+      W?$ct:LFLeafStruct$n(uspnxaui)_
0804d7f0       W?IsEquivalent$:LFLeafStruct$n.x(rnx$1$)q
0804d840       W?Error$:LFLeafStruct$n(pnxaui)pn$1$
0804d860       W?SetLocalTypeArray$:LFLeafStruct$n(rn$TypeArray$$)v
0804d870       W?SetGlobalTypeArray$:LFLeafStruct$n(rn$TypeArray$$)v
0804d880       W?Put$:LFLeafStruct$n.x(rn$ExeMaker$$)v
0804d8c0+      W?TypeEqual$:LFLeafStruct$n(usus)q
0804d970+      W?TypeListEqual$:LFLeafStruct$n(pnxuspnxusui)q
0804d9a0+      W?AttrEqual$:LFLeafStruct$n($cv_fldattr$$$2$)q
0804da20+      W?AttrEqual$:LFLeafStruct$n($cv_attrib$$$2$)q
0804da70+      W?AttrEqual$:LFLeafStruct$n($cv_ptrattr$$$2$)q
0804db10+      W?AttrEqual$:LFLeafStruct$n($cv_sprop$$$2$)q
0804dc00+      W?$ct:LFSubField$n(usuipnxaui)_
0804dc70+      W?IsEqual$:LFModifier$n.x(rnx$LFLeafStruct$$)q
0804dcb0+      W?IsEqual$:LFPointer$n.x(rnx$LFLeafStruct$$)q
0804dd00+      W?IsEqual$:LFArray$n.x(rnx$LFLeafStruct$$)q
0804dd40+      W?IsEqual$:LFClass$n.x(rnx$LFLeafStruct$$)q
0804dd90+      W?IsEqual$:LFUnion$n.x(rnx$LFLeafStruct$$)q
0804ddd0+      W?IsEqual$:LFEnum$n.x(rnx$LFLeafStruct$$)q
0804de20+      W?IsEqual$:LFProcedure$n.x(rnx$LFLeafStruct$$)q
0804de70+      W?IsEqual$:LFMFunction$n.x(rnx$LFLeafStruct$$)q
0804dee0+      W?IsEqual$:LFLabel$n.x(rnx$LFLeafStruct$$)q
0804dee0+      W?IsEqual$:LFVtShape$n.x(rnx$LFLeafStruct$$)q
0804def0+      W?IsEqual$:LFDefArg$n.x(rnx$LFLeafStruct$$)q
0804def0+      W?IsEqual$:LFBArray$n.x(rnx$LFLeafStruct$$)q
0804def0+      W?IsEqual$:LFCobol0$n.x(rnx$LFLeafStruct$$)q
0804df10+      W?IsEqual$:LFDimArray$n.x(rnx$LFLeafStruct$$)q
0804df50+      W?IsEqual$:LFVftPath$n.x(rnx$LFLeafStruct$$)q
0804df80+      W?IsEqual$:LFArgList$n.x(rnx$LFLeafStruct$$)q
0804dfb0+      W?IsEqual$:LFDerived$n.x(rnx$LFLeafStruct$$)q
0804dfe0+      W?IsEqual$:LFBitField$n.x(rnx$LFLeafStruct$$)q
0804e010+      W?IsEqual$:LFMethodList$n.x(rnx$LFLeafStruct$$)q
0804e1e0+      W?IsEqual$:LFDimConu$n.x(rnx$LFLeafStruct$$)q
0804e210+      W?IsEqual$:LFDimConlu$n.x(rnx$LFLeafStruct$$)q
0804e240+      W?IsSubFieldEqual$:LFBClass$n.x(rnx$LFSubField$$)q
0804e280+      W?IsSubFieldEqual$:LFVBClass$n.x(rnx$LFSubField$$)q
0804e2d0+      W?IsSubFieldEqual$:LFEnumerate$n.x(rnx$LFSubField$$)q
0804e2f0+      W?IsSubFieldEqual$:LFFriendCls$n.x(rnx$LFSubField$$)q
0804e2f0+      W?IsSubFieldEqual$:LFVFuncTab$n.x(rnx$LFSubField$$)q
0804e2f0+      W?IsSubFieldEqual$:LFNestedType$n.x(rnx$LFSubField$$)q
0804e2f0+      W?IsSubFieldEqual$:LFIndex$n.x(rnx$LFSubField$$)q
0804e2f0+      W?IsSubFieldEqual$:LFFriendFcn$n.x(rnx$LFSubField$$)q
0804e310+      W?IsSubFieldEqual$:LFMember$n.x(rnx$LFSubField$$)q
0804e350+      W?IsSubFieldEqual$:LFMethod$n.x(rnx$LFSubField$$)q
0804e380+      W?IsSubFieldEqual$:LFOneMethod$n.x(rnx$LFSubField$$)q
0804e3c0+      W?IsSubFieldEqual$:LFVFuncOff$n.x(rnx$LFSubField$$)q
0804e3f0+      W?IsEqual$:LFSubField$n.x(rnx$LFLeafStruct$$)q
0804e410+      W?IsEqual$:LFFieldList$n.x(rnx$LFLeafStruct$$)q
0804e590+      W?FixTypeList$:LFLeafStruct$n(pnusui)v
0804e5c0+      W?FixTypeIndex$:LFModifier$n()v
0804e5e0+      W?FixTypeIndex$:LFPointer$n()v
0804e600+      W?FixTypeIndex$:LFArray$n()v
0804e630+      W?FixTypeIndex$:LFClass$n()v
0804e670+      W?FixTypeIndex$:LFUnion$n()v
0804e690+      W?FixTypeIndex$:LFEnum$n()v
0804e6c0+      W?FixTypeIndex$:LFProcedure$n()v
0804e6f0+      W?FixTypeIndex$:LFMFunction$n()v
0804e740+      W?FixTypeIndex$:LFCobol0$n()v
0804e760+      W?FixTypeIndex$:LFCobol1$n()v
0804e770+      W?FixTypeIndex$:LFBArray$n()v
0804e790+      W?FixTypeIndex$:LFLabel$n()v
0804e7a0+      W?FixTypeIndex$:LFDimArray$n()v
0804e7d0+      W?FixTypeIndex$:LFVftPath$n()v
0804e7e0+      W?FixTypeIndex$:LFArgList$n()v
0804e7f0+      W?FixTypeIndex$:LFDefArg$n()v
0804e810+      W?FixTypeIndex$:LFFieldList$n()v
0804e8e0+      W?FixTypeIndex$:LFDerived$n()v
0804e8f0+      W?FixTypeIndex$:LFBitField$n()v
0804e910+      W?FixTypeIndex$:LFMethodList$n()v
0804e9f0+      W?FixTypeIndex$:LFDimConu$n()v
0804ea10+      W?FixTypeIndex$:LFDimConlu$n()v
0804ea30+      W?FixTypeIndex$:LFBClass$n()v
0804ea50+      W?FixTypeIndex$:LFVBClass$n()v
0804ea80+      W?FixTypeIndex$:LFEnumerate$n()v
0804ea90+      W?FixTypeIndex$:LFFriendFcn$n()v
0804eab0+      W?FixTypeIndex$:LFIndex$n()v
0804ead0+      W?FixTypeIndex$:LFMember$n()v
0804eaf0+      W?FixTypeIndex$:LFMethod$n()v
0804eb10+      W?FixTypeIndex$:LFNestedType$n()v
0804eb30+      W?FixTypeIndex$:LFVFuncTab$n()v
0804eb50+      W?FixTypeIndex$:LFFriendCls$n()v
0804eb70+      W?FixTypeIndex$:LFOneMethod$n()v
0804eb90+      W?FixTypeIndex$:LFVFuncOff$n()v
0804ebb0       W?Construct$:LFNotTrans$n(pnxaui)pn$LFLeafStruct$$
0804ec50       W?Construct$:LFNull$n(pnxaui)pn$LFLeafStruct$$
0804ecf0       W?Construct$:LFModifier$n(pnxaui)pn$LFLeafStruct$$
0804edc0       W?Construct$:LFPointer$n(pnxaui)pn$LFLeafStruct$$
0804eed0       W?Construct$:LFArray$n(pnxaui)pn$LFLeafStruct$$
0804ef90       W?Construct$:LFClass$n(pnxaui)pn$LFLeafStruct$$
0804f080       W?Construct$:LFUnion$n(pnxaui)pn$LFLeafStruct$$
0804f160       W?Construct$:LFEnum$n(pnxaui)pn$LFLeafStruct$$
0804f240       W?Construct$:LFProcedure$n(pnxaui)pn$LFLeafStruct$$
0804f320       W?Construct$:LFMFunction$n(pnxaui)pn$LFLeafStruct$$
0804f410       W?Construct$:LFVtShape$n(pnxaui)pn$LFLeafStruct$$
0804f4d0       W?Construct$:LFCobol0$n(pnxaui)pn$LFLeafStruct$$
0804f590       W?Construct$:LFCobol1$n(pnxaui)pn$LFLeafStruct$$
0804f650       W?Construct$:LFBArray$n(pnxaui)pn$LFLeafStruct$$
0804f710       W?Construct$:LFLabel$n(pnxaui)pn$LFLeafStruct$$
0804f7d0       W?Construct$:LFDimArray$n(pnxaui)pn$LFLeafStruct$$
0804f890       W?Construct$:LFVftPath$n(pnxaui)pn$LFLeafStruct$$
0804f990       W?Construct$:LFArgList$n(pnxaui)pn$LFLeafStruct$$
0804fa90       W?Construct$:LFDefArg$n(pnxaui)pn$LFLeafStruct$$
0804fb50       W?Construct$:LFDerived$n(pnxaui)pn$LFLeafStruct$$
0804fc50       W?Construct$:LFBitField$n(pnxaui)pn$LFLeafStruct$$
0804fd20       W?Construct$:LFMethodList$n(pnxaui)pn$LFLeafStruct$$
0804fec0       W?Construct$:LFDimConu$n(pnxaui)pn$LFLeafStruct$$
0804ff80       W?Construct$:LFDimConlu$n(pnxaui)pn$LFLeafStruct$$
08050040+      W?$ct:LFFieldList$n(pnxaui)_
08050140+      W?ConvertIndex$:LFFieldList$n(us)ui
08050180       W?Construct$:LFFieldList$n(pnxaui)pn$LFLeafStruct$$
08050200+      W?Error$:LFSubField$n(pnxa)pn$1$
08050230+      W?PadLen$:LFSubField$n(pnxa)uc
08050250+      W?Construct$:LFBClass$n(pnxa)pn$LFSubField$$
08050340+      W?Construct$:LFVBClass$n(pnxa)pn$LFSubField$$
08050450+      W?Construct$:LFEnumerate$n(pnxa)pn$LFSubField$$
08050550+      W?Construct$:LFFriendFcn$n(pnxa)pn$LFSubField$$
08050630+      W?Construct$:LFIndex$n(pnxa)pn$LFSubField$$
080506f0+      W?Construct1$:LFMember$n(pnxa)pn$LFSubField$$
080507f0+      W?Construct2$:LFMember$n(pnxa)pn$LFSubField$$
080508e0+      W?Construct$:LFMethod$n(pnxa)pn$LFSubField$$
080509c0+      W?Construct$:LFNestedType$n(pnxa)pn$LFSubField$$
08050aa0+      W?Construct$:LFVFuncTab$n(pnxa)pn$LFSubField$$
08050b60+      W?Construct$:LFFriendCls$n(pnxa)pn$LFSubField$$
08050c20+      W?Construct$:LFOneMethod$n(pnxa)pn$LFSubField$$
08050d10+      W?Construct$:LFVFuncOff$n(pnxa)pn$LFSubField$$
08050dd0+      W?DerivedPut$:LFNotTrans$n.x(rn$ExeMaker$$)v
08050df0+      W?DerivedPut$:LFNull$n.x(rn$ExeMaker$$)v
08050e10+      W?DerivedPut$:LFModifier$n.x(rn$ExeMaker$$)v
08050e30+      W?DerivedPut$:LFPointer$n.x(rn$ExeMaker$$)v
08050e80+      W?DerivedPut$:LFArray$n.x(rn$ExeMaker$$)v
08050ea0+      W?DerivedPut$:LFClass$n.x(rn$ExeMaker$$)v
08050ec0+      W?DerivedPut$:LFUnion$n.x(rn$ExeMaker$$)v
08050ee0+      W?DerivedPut$:LFEnum$n.x(rn$ExeMaker$$)v
08050f00+      W?DerivedPut$:LFProcedure$n.x(rn$ExeMaker$$)v
08050f20+      W?DerivedPut$:LFMFunction$n.x(rn$ExeMaker$$)v
08050f40+      W?DerivedPut$:LFVtShape$n.x(rn$ExeMaker$$)v
08050f60+      W?DerivedPut$:LFCobol0$n.x(rn$ExeMaker$$)v
08050f80+      W?DerivedPut$:LFBArray$n.x(rn$ExeMaker$$)v
08050fa0+      W?DerivedPut$:LFLabel$n.x(rn$ExeMaker$$)v
08050fc0+      W?DerivedPut$:LFDimArray$n.x(rn$ExeMaker$$)v
08050fe0+      W?DerivedPut$:LFVftPath$n.x(rn$ExeMaker$$)v
08051010+      W?DerivedPut$:LFArgList$n.x(rn$ExeMaker$$)v
08051040+      W?DerivedPut$:LFDefArg$n.x(rn$ExeMaker$$)v
08051060+      W?DerivedPut$:LFFieldList$n.x(rn$ExeMaker$$)v
08051140+      W?DerivedPut$:LFDerived$n.x(rn$ExeMaker$$)v
08051170+      W?DerivedPut$:LFBitField$n.x(rn$ExeMaker$$)v
08051190+      W?DerivedPut$:LFMethodList$n.x(rn$ExeMaker$$)v
080512b0+      W?DerivedPut$:LFDimConu$n.x(rn$ExeMaker$$)v
080512d0+      W?DerivedPut$:LFDimConlu$n.x(rn$ExeMaker$$)v
080512f0+      W?DerivedPut$:LFBClass$n.x(rn$ExeMaker$$)v
08051310+      W?DerivedPut$:LFVBClass$n.x(rn$ExeMaker$$)v
08051330+      W?DerivedPut$:LFEnumerate$n.x(rn$ExeMaker$$)v
08051350+      W?DerivedPut$:LFFriendFcn$n.x(rn$ExeMaker$$)v
08051370+      W?DerivedPut$:LFIndex$n.x(rn$ExeMaker$$)v
08051390+      W?DerivedPut$:LFMember$n.x(rn$ExeMaker$$)v
080513b0+      W?DerivedPut$:LFMethod$n.x(rn$ExeMaker$$)v
080513d0+      W?DerivedPut$:LFNestedType$n.x(rn$ExeMaker$$)v
080513f0+      W?DerivedPut$:LFVFuncTab$n.x(rn$ExeMaker$$)v
08051410+      W?DerivedPut$:LFFriendCls$n.x(rn$ExeMaker$$)v
08053130+      W?$ct:__2ghtsf$:cv_sprop$n(rnx$0:1$)_
080531c0+      W?$ct:__902tsf$:cv_fldattr$n(rnx$0:1$)_
08053210+      W?$ct:__101t1f$:cv_ptrattr$n(rnx$0:1$)_
08053280+      W?$ct:__ru3sof$:cv_attrib$n(rnx$0:1$)_
080532d0+      W?$dt:WCPtrListBase$::1n$LFSubField$$1n$WCValSList$::1npn$1$$n()_
08053340+      W?$dt:WCPtrListBase$::1n$my_ct_mlist$$1n$WCValSList$::1npn$1$$n()_
080533b0+      W?base_equivalent$:WCValSList$::1npn$LFSubField$$n.x(rnxpn$2$rnxpn$2$)i
080533c0+      W?$dt:WCValSList$::1npn$LFSubField$$n()_
08053460+      W?base_equivalent$:WCValSList$::1npn$my_ct_mlist$$n.x(rnxpn$2$rnxpn$2$)i
08053470+      W?$dt:WCValSList$::1npn$my_ct_mlist$$n()_
08053510+      W?base_equivalent$:WCPtrSList$::1n$LFSubField$$n.x(rnxpn$2$rnxpn$2$)i
08053520+      W?$ct:WCPtrSList$::1n$LFSubField$$n()_
080535c0+      W?$dt:WCPtrSList$::1n$LFSubField$$n()_
08053680+      W?base_equivalent$:WCPtrSList$::1n$my_ct_mlist$$n.x(rnxpn$2$rnxpn$2$)i
08053690+      W?$ct:WCPtrSList$::1n$my_ct_mlist$$n()_
08053730+      W?$dt:WCPtrSList$::1n$my_ct_mlist$$n()_
080537f0+      W?$dt:WCValListIterBase$::1npn$my_ct_mlist$$1n$WCPtrSList$::1n$1$$1n$WCNIsvSLink$::1npn$1$$n()_
08053840+      W?current$:WCValListIterBase$::1npn$my_ct_mlist$$1n$WCPtrSList$::1n$2$$1n$WCNIsvSLink$::1npn$2$$n.x()pn$2$
08053860+      W?$dt:WCValListIterBase$::1npn$LFSubField$$1n$WCPtrSList$::1n$1$$1n$WCNIsvSLink$::1npn$1$$n()_
080538b0+      W?current$:WCValListIterBase$::1npn$LFSubField$$1n$WCPtrSList$::1n$2$$1n$WCNIsvSLink$::1npn$2$$n.x()pn$2$
080538d0+      W?$dt:WCPtrSListIter$::1n$my_ct_mlist$$n()_
08053970+      W?$dt:WCPtrSListIter$::1n$LFSubField$$n()_
08053a10+      W?$dt:WCPtrConstSListIter$::1n$my_ct_mlist$$n()_
08053ad0+      W?$dt:WCPtrConstSListIter$::1n$LFSubField$$n()_
08053b90+      W?append$:WCValListBase$::1npn$LFSubField$$1n$WCIsvSListBase$::1n$WCNIsvSLink$::1npn$2$$$1n$4::1npn$2$$n(rnxpn$2$)i
08053bc0+      W?append$:WCValListBase$::1npn$my_ct_mlist$$1n$WCIsvSListBase$::1n$WCNIsvSLink$::1npn$2$$$1n$4::1npn$2$$n(rnxpn$2$)i
08053bf0+      W?$ct:WCPtrListBase$::1n$LFSubField$$1n$WCValSList$::1npn$1$$n(pn(ui)pnvpn(pnvui)v)_
08053c90+      W?$ct:WCValSList$::1npn$LFSubField$$n(pn(ui)pnvpn(pnvui)v)_
08053d30+      W?$ct:WCValSList$::1npn$my_ct_mlist$$n(pn(ui)pnvpn(pnvui)v)_
08053dd0+      W?$ct:WCValListBase$::1npn$LFSubField$$1n$WCIsvSListBase$::1n$WCNIsvSLink$::1npn$1$$$1n$3::1npn$1$$n(pn(ui)pnvpn(pnvui)v)_
08053e60+      W?WCListNew$:WCValListBase$::1npn$LFSubField$$1n$WCIsvSListBase$::1n$WCNIsvSLink$::1npn$2$$$1n$4::1npn$2$$n(rnxpn$2$)pn$4::1npn$2$$
08053ea0+      W?$ct:WCValListBase$::1npn$my_ct_mlist$$1n$WCIsvSListBase$::1n$WCNIsvSLink$::1npn$1$$$1n$3::1npn$1$$n(pn(ui)pnvpn(pnvui)v)_
08053f30+      W?WCListNew$:WCValListBase$::1npn$my_ct_mlist$$1n$WCIsvSListBase$::1n$WCNIsvSLink$::1npn$2$$$1n$4::1npn$2$$n(rnxpn$2$)pn$4::1npn$2$$
08053f70+      W?$ct:WCIsvSListBase$::1n$WCNIsvSLink$::1npn$LFSubField$$$n()_
0806aa30       W?$Wvf0Go4:WCIterExcept$$nx[]pn()v
0806aa40       W?$Wvf0Io4:WCListIterBase$$nx[]pn()v
0806aa50+      W?$Wvf0Eoc:LFNotTrans$$nx[]pn()v
0806aa70+      W?$Wvf0Aoc:LFNull$$nx[]pn()v
0806aa90+      W?$Wvf0Eoc:LFModifier$$nx[]pn()v
0806aab0+      W?$Wvf0Doc:LFPointer$$nx[]pn()v
0806aad0+      W?$Wvf0Boc:LFArray$$nx[]pn()v
0806aaf0+      W?$Wvf0Boc:LFClass$$nx[]pn()v
0806ab10+      W?$Wvf0Boc:LFUnion$$nx[]pn()v
0806ab30+      W?$Wvf0Aoc:LFEnum$$nx[]pn()v
0806ab50+      W?$Wvf0Foc:LFProcedure$$nx[]pn()v
0806ab70+      W?$Wvf0Foc:LFMFunction$$nx[]pn()v
0806ab90+      W?$Wvf0Doc:LFVtShape$$nx[]pn()v
0806abb0+      W?$Wvf0Coc:LFCobol0$$nx[]pn()v
0806abd0+      W?$Wvf0Coc:LFCobol1$$nx[]pn()v
0806abf0+      W?$Wvf0Coc:LFBArray$$nx[]pn()v
0806ac10+      W?$Wvf0Boc:LFLabel$$nx[]pn()v
0806ac30+      W?$Wvf0Eoc:LFDimArray$$nx[]pn()v
0806ac50+      W?$Wvf0Doc:LFVftPath$$nx[]pn()v
0806ac70+      W?$Wvf0Doc:LFArgList$$nx[]pn()v
0806ac90+      W?$Wvf0Coc:LFDefArg$$nx[]pn()v
0806acb0+      W?$Wvf0Foc:LFFieldList$$nx[]pn()v
0806acd0+      W?$Wvf0Doc:LFDerived$$nx[]pn()v
0806acf0+      W?$Wvf0Eoc:LFBitField$$nx[]pn()v
0806ad10+      W?$Wvf0Goc:LFMethodList$$nx[]pn()v
0806ad30+      W?$Wvf0Doc:LFDimConu$$nx[]pn()v
0806ad50+      W?$Wvf0Eoc:LFDimConlu$$nx[]pn()v
0806ad70+      W?$Wvf0Coc:LFBClass$$nx[]pn()v
0806ad90+      W?$Wvf0Doc:LFVBClass$$nx[]pn()v
0806adb0+      W?$Wvf0Foc:LFEnumerate$$nx[]pn()v
0806add0+      W?$Wvf0Foc:LFFriendFcn$$nx[]pn()v
0806adf0+      W?$Wvf0Boc:LFIndex$$nx[]pn()v
0806ae10+      W?$Wvf0Coc:LFMember$$nx[]pn()v
0806ae30+      W?$Wvf0Coc:LFMethod$$nx[]pn()v
0806ae50+      W?$Wvf0Goc:LFNestedType$$nx[]pn()v
0806ae70+      W?$Wvf0Eoc:LFVFuncTab$$nx[]pn()v
0806ae90+      W?$Wvf0Foc:LFFriendCls$$nx[]pn()v
0806aeb0+      W?$Wvf0Foc:LFOneMethod$$nx[]pn()v
0806aed0+      W?$Wvf0Eoc:LFVFuncOff$$nx[]pn()v
0806aef0+      W?$Wvf0Goc:LFLeafStruct$$nx[]pn()v
0806af10+      W?$Wvf0Eoc:LFSubField$$nx[]pn()v
0806af30+      W?$Wvf0wo4:WCPtrListBase$::1n$LFSubField$$1n$WCValSList$::1npn$1$$$nx[]pn()v
0806af40+      W?$Wvf0xo4:WCPtrListBase$::1n$my_ct_mlist$$1n$WCValSList$::1npn$1$$$nx[]pn()v
0806af50+      W?$Wvf0Xo4:WCValSList$::1npn$LFSubField$$$nx[]pn()v
0806af60+      W?$Wvf0Yo4:WCValSList$::1npn$my_ct_mlist$$$nx[]pn()v
0806af70+      W?$Wvf0Vo4:WCPtrSList$::1n$LFSubField$$$nx[]pn()v
0806af80+      W?$Wvf0Wo4:WCPtrSList$::1n$my_ct_mlist$$$nx[]pn()v
0806af90+      W?$Wvf1Qo4:WCValListIterBase$::1npn$my_ct_mlist$$1n$WCPtrSList$::1n$1$$1n$WCNIsvSLink$::1npn$1$$$nx[]pn()v
0806afa0+      W?$Wvf1Po4:WCValListIterBase$::1npn$LFSubField$$1n$WCPtrSList$::1n$1$$1n$WCNIsvSLink$::1npn$1$$$nx[]pn()v
0806afb0+      W?$Wvf0ao4:WCPtrSListIter$::1n$my_ct_mlist$$$nx[]pn()v
0806afc0+      W?$Wvf0Zo4:WCPtrSListIter$::1n$LFSubField$$$nx[]pn()v
0806afd0+      W?$Wvf0fo4:WCPtrConstSListIter$::1n$my_ct_mlist$$$nx[]pn()v
0806afe0+      W?$Wvf0eo4:WCPtrConstSListIter$::1n$LFSubField$$$nx[]pn()v
0806aff0       W?$Wts0Gn$WCIterExcept$$$nx[]uc
0806b010+      W?$Wts0Gn$LFLeafStruct$$$nx[]uc
0806b030+      W?$Wts0En$LFSubField$$$nx[]uc
0806b050+      W?$Wts0En$LFNotTrans$$$nx[]uc
0806b070+      W?$Wts0An$LFNull$$$nx[]uc
0806b090+      W?$Wts0En$LFModifier$$$nx[]uc
0806b0b0+      W?$Wts0Dn$LFPointer$$$nx[]uc
0806b0d0+      W?$Wts0Bn$LFArray$$$nx[]uc
0806b0f0+      W?$Wts0Bn$LFClass$$$nx[]uc
0806b110+      W?$Wts0Bn$LFUnion$$$nx[]uc
0806b130+      W?$Wts0An$LFEnum$$$nx[]uc
0806b150+      W?$Wts0Fn$LFProcedure$$$nx[]uc
0806b170+      W?$Wts0Fn$LFMFunction$$$nx[]uc
0806b190+      W?$Wts0Dn$LFVtShape$$$nx[]uc
0806b1b0+      W?$Wts0Cn$LFCobol0$$$nx[]uc
0806b1d0+      W?$Wts0Cn$LFCobol1$$$nx[]uc
0806b1f0+      W?$Wts0Cn$LFBArray$$$nx[]uc
0806b210+      W?$Wts0Bn$LFLabel$$$nx[]uc
0806b230+      W?$Wts0En$LFDimArray$$$nx[]uc
0806b250+      W?$Wts0Dn$LFVftPath$$$nx[]uc
0806b270+      W?$Wts0Dn$LFArgList$$$nx[]uc
0806b290+      W?$Wts0Cn$LFDefArg$$$nx[]uc
0806b2b0+      W?$Wts0Fn$LFFieldList$$$nx[]uc
0806b2d0+      W?$Wts0Dn$LFDerived$$$nx[]uc
0806b2f0+      W?$Wts0En$LFBitField$$$nx[]uc
0806b310+      W?$Wts0Gn$LFMethodList$$$nx[]uc
0806b330+      W?$Wts0Dn$LFDimConu$$$nx[]uc
0806b350+      W?$Wts0En$LFDimConlu$$$nx[]uc
0806b370+      W?$Wts0Cn$LFBClass$$$nx[]uc
0806b390+      W?$Wts0Dn$LFVBClass$$$nx[]uc
0806b3b0+      W?$Wts0Fn$LFEnumerate$$$nx[]uc
0806b3d0+      W?$Wts0Fn$LFFriendFcn$$$nx[]uc
0806b3f0+      W?$Wts0Bn$LFIndex$$$nx[]uc
0806b410+      W?$Wts0Cn$LFMember$$$nx[]uc
0806b430+      W?$Wts0Cn$LFMethod$$$nx[]uc
0806b450+      W?$Wts0Gn$LFNestedType$$$nx[]uc
0806b470+      W?$Wts0En$LFVFuncTab$$$nx[]uc
0806b490+      W?$Wts0Fn$LFFriendCls$$$nx[]uc
0806b4b0+      W?$Wts0Fn$LFOneMethod$$$nx[]uc
0806b4d0+      W?$Wts0En$LFVFuncOff$$$nx[]uc
0806b4f0+      W?$Wts0fn$WCPtrConstSListIter$::1n$my_ct_mlist$$$$nx[]uc
0806b510+      W?$Wts0en$WCPtrConstSListIter$::1n$LFSubField$$$$nx[]uc
0806b530+      W?$Wts0Zn$WCPtrSListIter$::1n$LFSubField$$$$nx[]uc
0806b550+      W?$Wts0Xn$WCValSList$::1npn$LFSubField$$$$nx[]uc
0806b570+      W?$Wts0Yn$WCValSList$::1npn$my_ct_mlist$$$$nx[]uc
0806b590+      W?$Wts0Vn$WCPtrSList$::1n$LFSubField$$$$nx[]uc
0806b5b0+      W?$Wts0Wn$WCPtrSList$::1n$my_ct_mlist$$$$nx[]uc
08071064+      W?$Wti0Z$WCPtrSListIter$::1n$my_ct_mlist$$$$n[]uc
0807108c+      W?$Wti0V$WCPtrSList$::1n$my_ct_mlist$$$$n[]uc
080710b0+      W?$Wti0U$WCPtrSList$::1n$LFSubField$$$$n[]uc
080710d4+      W?$Wti0X$WCValSList$::1npn$my_ct_mlist$$$$n[]uc
080710fc+      W?$Wti0W$WCValSList$::1npn$LFSubField$$$$n[]uc
08071124+      W?$Wti0Y$WCPtrSListIter$::1n$LFSubField$$$$n[]uc
0807114c+      W?$Wti0d$WCPtrConstSListIter$::1n$LFSubField$$$$n[]uc
08071178+      W?$Wti0e$WCPtrConstSListIter$::1n$my_ct_mlist$$$$n[]uc
080711a8+      W?$Wti0D$LFVFuncOff$$$n[]uc
080711bc+      W?$Wti0E$LFOneMethod$$$n[]uc
080711d0+      W?$Wti0E$LFFriendCls$$$n[]uc
080711e4+      W?$Wti0D$LFVFuncTab$$$n[]uc
080711f8+      W?$Wti0F$LFNestedType$$$n[]uc
0807120c+      W?$Wti0B$LFMethod$$$n[]uc
0807121c+      W?$Wti0B$LFMember$$$n[]uc
0807122c+      W?$Wti0A$LFIndex$$$n[]uc
0807123c+      W?$Wti0E$LFFriendFcn$$$n[]uc
08071250+      W?$Wti0E$LFEnumerate$$$n[]uc
08071264+      W?$Wti0C$LFVBClass$$$n[]uc
08071278+      W?$Wti0B$LFBClass$$$n[]uc
08071288+      W?$Wti0D$LFDimConlu$$$n[]uc
0807129c+      W?$Wti0C$LFDimConu$$$n[]uc
080712b0+      W?$Wti0F$LFMethodList$$$n[]uc
080712c4+      W?$Wti0D$LFBitField$$$n[]uc
080712d8+      W?$Wti0C$LFDerived$$$n[]uc
080712ec+      W?$Wti0E$LFFieldList$$$n[]uc
08071300+      W?$Wti0B$LFDefArg$$$n[]uc
08071310+      W?$Wti0C$LFArgList$$$n[]uc
08071324+      W?$Wti0C$LFVftPath$$$n[]uc
08071338+      W?$Wti0D$LFDimArray$$$n[]uc
0807134c+      W?$Wti0A$LFLabel$$$n[]uc
0807135c+      W?$Wti0B$LFBArray$$$n[]uc
0807136c+      W?$Wti0B$LFCobol1$$$n[]uc
0807137c+      W?$Wti0B$LFCobol0$$$n[]uc
0807138c+      W?$Wti0C$LFVtShape$$$n[]uc
080713a0+      W?$Wti0E$LFMFunction$$$n[]uc
080713b4+      W?$Wti0E$LFProcedure$$$n[]uc
080713c8+      W?$Wti09$LFEnum$$$n[]uc
080713d8+      W?$Wti0A$LFUnion$$$n[]uc
080713e8+      W?$Wti0A$LFClass$$$n[]uc
080713f8+      W?$Wti0A$LFArray$$$n[]uc
08071408+      W?$Wti0C$LFPointer$$$n[]uc
0807141c+      W?$Wti0D$LFModifier$$$n[]uc
08071430+      W?$Wti09$LFNull$$$n[]uc
08071440+      W?$Wti0D$LFNotTrans$$$n[]uc
08071454+      W?$Wti0D$LFSubField$$$n[]uc
08071468+      W?$Wti0F$LFLeafStruct$$$n[]uc
0807147c       W?$Wti0F$WCIterExcept$$$n[]uc
08053fe0+      W?$ct:WCIsvSListBase$::1n$WCNIsvSLink$::1npn$my_ct_mlist$$$n()_
08051430+      W?DerivedPut$:LFOneMethod$n.x(rn$ExeMaker$$)v
08051450+      W?DerivedPut$:LFVFuncOff$n.x(rn$ExeMaker$$)v
0806b5d0+      W?$Wts0an$WCPtrSListIter$::1n$my_ct_mlist$$$$nx[]uc
08071028+      W?_subFieldConstructorTable$:LFFieldList$n[]pn(pnxa)pn$LFSubField$$
08084120+      W?_localTypeArray$:LFLeafStruct$npn$TypeArray$$
08084124+      W?_globalTypeArray$:LFLeafStruct$npn$TypeArray$$
Module: subsect.obj(/mnt/sda5/.user/root/src/openwatcom-1.9/bld/cvpack/cpp/subsect.cpp)
08055740       W?$ct:VariantString$n(pnxaui)_
08055790       W?$ct:WCListIterBase$n()_
080557f0+      W?base_reset$:WCListIterBase$n()v
08055800       W?$ct:SymbolStruct$n()_
08055850       W?$dt:SymbolStruct$n()_
080558f0       W?CodeSegment$:SymbolStruct$n.x()ui
08055900       W?DataSegment$:SymbolStruct$n.x()ui
08055910       W?MemOffset$:SymbolStruct$n.x()ui
08055920       W?SetParent$:SymbolStruct$n(ul)v
08055930       W?SetNext$:SymbolStruct$n(ul)v
08055940       W?SetEnd$:SymbolStruct$n(ul)v
08055950       W?FixType$:SymbolStruct$n()v
08055960       W?IsStartSym$:SymbolStruct$n.x()q
08055970       W?cSum$:SymbolStruct$n.x()ul
08055990       W?Name$:SymbolStruct$n.x()pnxa
080559a0       W?DerivedPut$:SymbolStruct$n.x(rn$ExeMaker$$)v
080559b0       W?SetNext$:CSStartSearch$n(ul)v
080559c0       W?$dt:CSStartSearch$n()_
08055a60+      W?$dt:CSPageAlign$n()_
08055b00+      W?$dt:NameHashTable$n()_
08055b40+      W?$dt:AddrHashTable$n()_
080540d0+      W?FixUpTypes$:SstGlobalTypes$n(us)v
08054120+      W?ProcessTypes$:SstGlobalTypes$n(pn$LFTypeRecord$$)v
08054260       W?LoadTypes$:SstGlobalTypes$n(rn$Retriever$$ul)q
08054620+      W?Append$:SstGlobalTypes$n(pn$LFTypeRecord$$)v
080546a0       W?Put$:SstGlobalTypes$n.x(rn$ExeMaker$$)v
08054790+      W?DumpPageAlign$:SymbolSubsection$n(rn$ExeMaker$$uiuc)ui
08054800+      W?PageAlign$:SymbolSubsection$n(rn$ExeMaker$$uiul)ui
08054830+      W?PadCount$:SymbolSubsection$n(uiul)ui
08054850+      W?InsertOneRecord$:SstAlignSym$n(pn$SymbolStruct$$)i
08054960       W?Insert$:SstAlignSym$n(pn$SymbolStruct$$)i
08054bb0       W?Put$:SstAlignSym$n.x(rn$ExeMaker$$)v
08054ca0       W?Put$:SstGlobalSym$n(rn$ExeMaker$$ui)v
08054fa0+      W?Find$:NameHashTable$n.x(rnx$WCPtrSList$::1n$chain_table$:1$$ul)pn$SymbolStruct$$
080550c0+      W?TryToInsert$:NameHashTable$n(pn$SymbolStruct$$)q
08055240+      W?Put$:NameHashTable$n.x(rn$ExeMaker$$)v
08055c20+      W?$dt:WCPtrListBase$::1n$chain_table$:NameHashTable$$1n$WCValSList$::1npn$1:2$$n()_
08055c90+      W?$dt:WCPtrListBase$::1n$offset_table$:AddrHashTable$$1n$WCValSList$::1npn$1:2$$n()_
08055d00+      W?base_equivalent$:WCValSList$::1npn$chain_table$:NameHashTable$$n.x(rnxpn$2:3$rnxpn$2:3$)i
08055d10+      W?$dt:WCValSList$::1npn$chain_table$:NameHashTable$$n()_
08055db0+      W?base_equivalent$:WCValSList$::1npn$offset_table$:AddrHashTable$$n.x(rnxpn$2:3$rnxpn$2:3$)i
08055dc0+      W?$dt:WCValSList$::1npn$offset_table$:AddrHashTable$$n()_
08055e60+      W?base_equivalent$:WCPtrSList$::1n$chain_table$:NameHashTable$$n.x(rnxpn$2:3$rnxpn$2:3$)i
08055e80+      W?$ct:WCPtrSList$::1n$chain_table$:NameHashTable$$n()_
08055f20+      W?$dt:WCPtrSList$::1n$chain_table$:NameHashTable$$n()_
08055fe0+      W?base_equivalent$:WCPtrSList$::1n$offset_table$:AddrHashTable$$n.x(rnxpn$2:3$rnxpn$2:3$)i
08056000+      W?$ct:WCPtrSList$::1n$offset_table$:AddrHashTable$$n()_
080560a0+      W?$dt:WCPtrSList$::1n$offset_table$:AddrHashTable$$n()_
08056160+      W?$ct:WCStack$::1npn$SymbolStruct$$1n$WCPtrSList$::1n$1$$n()_
08056200+      W?$dt:WCStack$::1npn$SymbolStruct$$1n$WCPtrSList$::1n$1$$n()_
080562d0       W?$dt:WCValListIterBase$::1npn$LFTypeRecord$$1n$WCPtrSList$::1n$1$$1n$WCNIsvSLink$::1npn$1$$n()_
08056320       W?current$:WCValListIterBase$::1npn$LFTypeRecord$$1n$WCPtrSList$::1n$2$$1n$WCNIsvSLink$::1npn$2$$n.x()pn$2$
08056340+      W?$dt:WCValListIterBase$::1npn$SymbolStruct$$1n$WCPtrSList$::1n$1$$1n$WCNIsvSLink$::1npn$1$$n()_
08056390+      W?current$:WCValListIterBase$::1npn$SymbolStruct$$1n$WCPtrSList$::1n$2$$1n$WCNIsvSLink$::1npn$2$$n.x()pn$2$
080563b0+      W?$dt:WCValListIterBase$::1npn$chain_table$:NameHashTable$$1n$WCPtrSList$::1n$1:2$$1n$WCNIsvSLink$::1npn$1:2$$n()_
08056400+      W?current$:WCValListIterBase$::1npn$chain_table$:NameHashTable$$1n$WCPtrSList$::1n$2:3$$1n$WCNIsvSLink$::1npn$2:3$$n.x()pn$2:3$
08056420+      W?$dt:WCValListIterBase$::1npn$offset_table$:AddrHashTable$$1n$WCPtrSList$::1n$1:2$$1n$WCNIsvSLink$::1npn$1:2$$n()_
08056470+      W?current$:WCValListIterBase$::1npn$offset_table$:AddrHashTable$$1n$WCPtrSList$::1n$2:3$$1n$WCNIsvSLink$::1npn$2:3$$n.x()pn$2:3$
08056490       W?$dt:WCPtrSListIter$::1n$LFTypeRecord$$n()_
08056530+      W?$dt:WCPtrSListIter$::1n$SymbolStruct$$n()_
080565d0+      W?$dt:WCPtrSListIter$::1n$chain_table$:NameHashTable$$n()_
08056670+      W?$dt:WCPtrSListIter$::1n$offset_table$:AddrHashTable$$n()_
08056710+      W?$dt:WCPtrConstSListIter$::1n$SymbolStruct$$n()_
080567d0+      W?$ct:WCPtrConstSListIter$::1n$chain_table$:NameHashTable$$n()_
08056860+      W?$dt:WCPtrConstSListIter$::1n$chain_table$:NameHashTable$$n()_
08056920+      W?$ct:WCPtrConstSListIter$::1n$offset_table$:AddrHashTable$$n()_
080569b0+      W?$dt:WCPtrConstSListIter$::1n$offset_table$:AddrHashTable$$n()_
08056a70+      W?insert$:WCValListBase$::1npn$SymbolStruct$$1n$WCIsvSListBase$::1n$WCNIsvSLink$::1npn$2$$$1n$4::1npn$2$$n(rnxpn$2$)i
08056aa0+      W?append$:WCValListBase$::1npn$chain_table$:NameHashTable$$1n$WCIsvSListBase$::1n$WCNIsvSLink$::1npn$2:3$$$1n$5::1npn$2:3$$n(rnxpn$2:3$)i
08056ad0+      W?append$:WCValListBase$::1npn$offset_table$:AddrHashTable$$1n$WCIsvSListBase$::1n$WCNIsvSLink$::1npn$2:3$$$1n$5::1npn$2:3$$n(rnxpn$2:3$)i
08056b00+      W?$ct:WCPtrListBase$::1n$chain_table$:NameHashTable$$1n$WCValSList$::1npn$1:2$$n(pn(ui)pnvpn(pnvui)v)_
08056ba0+      W?$ct:WCPtrListBase$::1n$offset_table$:AddrHashTable$$1n$WCValSList$::1npn$1:2$$n(pn(ui)pnvpn(pnvui)v)_
08056c40+      W?$ct:WCValSList$::1npn$chain_table$:NameHashTable$$n(pn(ui)pnvpn(pnvui)v)_
08056ce0+      W?$ct:WCValSList$::1npn$offset_table$:AddrHashTable$$n(pn(ui)pnvpn(pnvui)v)_
08056d80+      W?$ct:WCPtrSListIter$::1n$chain_table$:NameHashTable$$n()_
08056e00+      W?$ct:WCPtrSListIter$::1n$offset_table$:AddrHashTable$$n()_
08056e80+      W?clear$:WCBareVectorBase$::1npnvn()v
08056e90+      W?$od:WCValVector$::1npnvn(i)rnpnv
08056f00+      W?clearAndDestroy$:WCIsvSListBase$::1n$WCNIsvSLink$::1npn$LFTypeRecord$$$n()v
08056f10+      W?isEmpty$:WCIsvSListBase$::1n$WCNIsvSLink$::1npn$SymbolStruct$$$n.x()i
08056f20+      W?find$:WCValListBase$::1npn$SymbolStruct$$1n$WCIsvSListBase$::1n$WCNIsvSLink$::1npn$2$$$1n$4::1npn$2$$n.x(i)pn$2$
08056f30+      W?$ct:WCValListBase$::1npn$chain_table$:NameHashTable$$1n$WCIsvSListBase$::1n$WCNIsvSLink$::1npn$1:2$$$1n$4::1npn$1:2$$n(pn(ui)pnvpn(pnvui)v)_
08056fc0+      W?WCListNew$:WCValListBase$::1npn$chain_table$:NameHashTable$$1n$WCIsvSListBase$::1n$WCNIsvSLink$::1npn$2:3$$$1n$5::1npn$2:3$$n(rnxpn$2:3$)pn$5::1npn$2:3$$
08057000+      W?$ct:WCValListBase$::1npn$offset_table$:AddrHashTable$$1n$WCIsvSListBase$::1n$WCNIsvSLink$::1npn$1:2$$$1n$4::1npn$1:2$$n(pn(ui)pnvpn(pnvui)v)_
08057090+      W?WCListNew$:WCValListBase$::1npn$offset_table$:AddrHashTable$$1n$WCIsvSListBase$::1n$WCNIsvSLink$::1npn$2:3$$$1n$5::1npn$2:3$$n(rnxpn$2:3$)pn$5::1npn$2:3$$
080570d0+      W?$ct:WCValListIterBase$::1npn$chain_table$:NameHashTable$$1n$WCPtrSList$::1n$1:2$$1n$WCNIsvSLink$::1npn$1:2$$n()_
08057130+      W?$ct:WCValListIterBase$::1npn$offset_table$:AddrHashTable$$1n$WCPtrSList$::1n$1:2$$1n$WCNIsvSLink$::1npn$1:2$$n()_
0806c440       W?$Wvf0Gok:SymbolStruct$$nx[]pn()v
0806c480       W?$Wvf0Hok:CSStartSearch$$nx[]pn()v
0806c4c0+      W?$Wvf0Fok:CSPageAlign$$nx[]pn()v
0806c500+      W?$Wvf1Eo4:WCPtrListBase$::1n$chain_table$:NameHashTable$$1n$WCValSList$::1npn$1:2$$$nx[]pn()v
0806c510+      W?$Wvf1Fo4:WCPtrListBase$::1n$offset_table$:AddrHashTable$$1n$WCValSList$::1npn$1:2$$$nx[]pn()v
0806c520+      W?$Wvf0no4:WCValSList$::1npn$chain_table$:NameHashTable$$$nx[]pn()v
0806c530+      W?$Wvf0oo4:WCValSList$::1npn$offset_table$:AddrHashTable$$$nx[]pn()v
0806c540+      W?$Wvf0lo4:WCPtrSList$::1n$chain_table$:NameHashTable$$$nx[]pn()v
0806c550+      W?$Wvf0mo4:WCPtrSList$::1n$offset_table$:AddrHashTable$$$nx[]pn()v
0806c560+      W?$Wvf0so4:WCStack$::1npn$SymbolStruct$$1n$WCPtrSList$::1n$1$$$nx[]pn()v
0806c570       W?$Wvf1Ro4:WCValListIterBase$::1npn$LFTypeRecord$$1n$WCPtrSList$::1n$1$$1n$WCNIsvSLink$::1npn$1$$$nx[]pn()v
0806c580+      W?$Wvf1Ro4:WCValListIterBase$::1npn$SymbolStruct$$1n$WCPtrSList$::1n$1$$1n$WCNIsvSLink$::1npn$1$$$nx[]pn()v
0806c590+      W?$Wvf1jo4:WCValListIterBase$::1npn$chain_table$:NameHashTable$$1n$WCPtrSList$::1n$1:2$$1n$WCNIsvSLink$::1npn$1:2$$$nx[]pn()v
0806c5a0+      W?$Wvf1ko4:WCValListIterBase$::1npn$offset_table$:AddrHashTable$$1n$WCPtrSList$::1n$1:2$$1n$WCNIsvSLink$::1npn$1:2$$$nx[]pn()v
0806c5b0       W?$Wvf0bo4:WCPtrSListIter$::1n$LFTypeRecord$$$nx[]pn()v
0806c5c0+      W?$Wvf0bo4:WCPtrSListIter$::1n$SymbolStruct$$$nx[]pn()v
0806c5d0+      W?$Wvf0po4:WCPtrSListIter$::1n$chain_table$:NameHashTable$$$nx[]pn()v
0806c5e0+      W?$Wvf0qo4:WCPtrSListIter$::1n$offset_table$:AddrHashTable$$$nx[]pn()v
0806c5f0+      W?$Wvf0go4:WCPtrConstSListIter$::1n$SymbolStruct$$$nx[]pn()v
0806c600+      W?$Wvf0uo4:WCPtrConstSListIter$::1n$chain_table$:NameHashTable$$$nx[]pn()v
0806c610+      W?$Wvf0vo4:WCPtrConstSListIter$::1n$offset_table$:AddrHashTable$$$nx[]pn()v
0806c620       W?$Wts0Gn$SymbolStruct$$$nx[]uc
0806c640       W?$Wts0Hn$CSStartSearch$$$nx[]uc
0806c660+      W?$Wts0Fn$CSPageAlign$$$nx[]uc
0806c680+      W?$Wts0ln$WCPtrSList$::1n$chain_table$:NameHashTable$$$$nx[]uc
0806c6a0+      W?$Wts0mn$WCPtrSList$::1n$offset_table$:AddrHashTable$$$$nx[]uc
0806c6c0+      W?$Wts0sn$WCStack$::1npn$SymbolStruct$$1n$WCPtrSList$::1n$1$$$$nx[]uc
0806c6e0       W?$Wts0bn$WCPtrSListIter$::1n$LFTypeRecord$$$$nx[]uc
0806c700+      W?$Wts0gn$WCPtrConstSListIter$::1n$SymbolStruct$$$$nx[]uc
0806c720+      W?$Wts0Hn$NameHashTable$$$nx[]uc
0806c740+      W?$Wts0Hn$AddrHashTable$$$nx[]uc
0806c760+      W?$Wts0un$WCPtrConstSListIter$::1n$chain_table$:NameHashTable$$$$nx[]uc
0806c780+      W?$Wts0vn$WCPtrConstSListIter$::1n$offset_table$:AddrHashTable$$$$nx[]uc
0806c7a0+      W?$Wts0nn$WCValSList$::1npn$chain_table$:NameHashTable$$$$nx[]uc
0806c7c0+      W?$Wts0on$WCValSList$::1npn$offset_table$:AddrHashTable$$$$nx[]uc
0806c7e0+      W?$Wts0bn$WCPtrSListIter$::1n$SymbolStruct$$$$nx[]uc
0806c800+      W?$Wts0pn$WCPtrSListIter$::1n$chain_table$:NameHashTable$$$$nx[]uc
080714a0+      W?$Wti0p$WCPtrSListIter$::1n$offset_table$:AddrHashTable$$$$n[]uc
080714d8+      W?$Wti0o$WCPtrSListIter$::1n$chain_table$:NameHashTable$$$$n[]uc
0807150f+      W?$Wti0a$WCPtrSListIter$::1n$SymbolStruct$$$$n[]uc
08071538+      W?$Wti0n$WCValSList$::1npn$offset_table$:AddrHashTable$$$$n[]uc
0807156e+      W?$Wti0m$WCValSList$::1npn$chain_table$:NameHashTable$$$$n[]uc
080715a3+      W?$Wti0u$WCPtrConstSListIter$::1n$offset_table$:AddrHashTable$$$$n[]uc
080715e0+      W?$Wti0t$WCPtrConstSListIter$::1n$chain_table$:NameHashTable$$$$n[]uc
0807161c+      W?$Wti0G$AddrHashTable$$$n[]uc
08071631+      W?$Wti0G$NameHashTable$$$n[]uc
08071646+      W?$Wti0f$WCPtrConstSListIter$::1n$SymbolStruct$$$$n[]uc
08071674       W?$Wti0a$WCPtrSListIter$::1n$LFTypeRecord$$$$n[]uc
0807169d+      W?$Wti0r$WCStack$::1npn$SymbolStruct$$1n$WCPtrSList$::1n$1$$$$n[]uc
080716d7+      W?$Wti0l$WCPtrSList$::1n$offset_table$:AddrHashTable$$$$n[]uc
0807170b+      W?$Wti0k$WCPtrSList$::1n$chain_table$:NameHashTable$$$$n[]uc
0807173e+      W?$Wti0E$CSPageAlign$$$n[]uc
08071751       W?$Wti0G$CSStartSearch$$$n[]uc
08071766       W?$Wti0F$SymbolStruct$$$n[]uc
08057190+      W?$ct:WCIsvSListBase$::1n$WCNIsvSLink$::1npn$chain_table$:NameHashTable$$$n()_
08057200+      W?$ct:WCIsvSListBase$::1n$WCNIsvSLink$::1npn$offset_table$:AddrHashTable$$$n()_
08055400+      W?TryToInsert$:AddrHashTable$n(pn$SymbolStruct$$)q
080554d0+      W?Compare$:AddrHashTable$n(pnxvpnxv)i
08055500+      W?Put$:AddrHashTable$n.x(rn$ExeMaker$$)v
0806c820+      W?$Wts0qn$WCPtrSListIter$::1n$offset_table$:AddrHashTable$$$$nx[]uc
08084128       W?symStack$:SstAlignSym$n$WCStack$::1npn$SymbolStruct$$1n$WCPtrSList$::1n$3$$$
Module: cssymbol.obj(/mnt/sda5/.user/root/src/openwatcom-1.9/bld/cvpack/cpp/cssymbol.cpp)
08059b60+      W?$dt:CSCompile$n()_
08059c20+      W?$dt:CSRegister$n()_
08059cc0+      W?FixType$:CSRegister$n()v
08059ce0+      W?$dt:CSConstant$n()_
08059da0+      W?FixType$:CSConstant$n()v
08059dc0+      W?$dt:CSUdt$n()_
08059e60+      W?FixType$:CSUdt$n()v
08059e80+      W?$dt:CSEndBlock$n()_
08059f20+      W?$dt:CSObjName$n()_
08059fc0+      W?$dt:CSEndOfArg$n()_
0805a060+      W?$dt:CSCobolUdt$n()_
0805a100+      W?FixType$:CSCobolUdt$n()v
0805a120+      W?$dt:CSManyReg$n()_
0805a1e0+      W?FixType$:CSManyReg$n()v
0805a200+      W?$dt:CSReturn$n()_
0805a2c0+      W?$dt:CSEntryThis$n()_
0805a390+      W?$dt:CSBPRel16$n()_
0805a430+      W?FixType$:CSBPRel16$n()v
0805a450+      W?$dt:CSLData16$n()_
0805a4f0+      W?DataSegment$:CSLData16$n.x()ui
0805a500+      W?MemOffset$:CSLData16$n.x()ui
0805a510+      W?FixType$:CSLData16$n()v
0805a530+      W?$dt:CSPub16$n()_
0805a5d0+      W?DataSegment$:CSPub16$n.x()ui
0805a5e0+      W?CodeSegment$:CSPub16$n.x()ui
0805a5f0+      W?MemOffset$:CSPub16$n.x()ui
0805a600+      W?FixType$:CSPub16$n()v
0805a620+      W?$dt:CSLProc16$n()_
0805a6c0+      W?CodeSegment$:CSLProc16$n.x()ui
0805a6d0+      W?MemOffset$:CSLProc16$n.x()ui
0805a6e0+      W?IsStartSym$:CSLProc16$n.x()q
0805a6f0+      W?SetParent$:CSLProc16$n(ul)v
0805a700+      W?SetNext$:CSLProc16$n(ul)v
0805a710+      W?SetEnd$:CSLProc16$n(ul)v
0805a720+      W?FixType$:CSLProc16$n()v
0805a740+      W?$dt:CSThunk16$n()_
0805a7e0+      W?IsStartSym$:CSThunk16$n.x()q
0805a7f0+      W?CodeSegment$:CSThunk16$n.x()ui
0805a800+      W?MemOffset$:CSThunk16$n.x()ui
0805a810+      W?SetParent$:CSThunk16$n(ul)v
0805a820+      W?SetNext$:CSThunk16$n(ul)v
0805a830+      W?SetEnd$:CSThunk16$n(ul)v
0805a840+      W?$dt:CSBlock16$n()_
0805a8e0+      W?IsStartSym$:CSBlock16$n.x()q
0805a8f0+      W?CodeSegment$:CSBlock16$n.x()ui
0805a900+      W?MemOffset$:CSBlock16$n.x()ui
0805a910+      W?SetParent$:CSBlock16$n(ul)v
0805a920+      W?SetEnd$:CSBlock16$n(ul)v
0805a930+      W?$dt:CSWith16$n()_
0805a9f0+      W?IsStartSym$:CSWith16$n.x()q
0805aa00+      W?CodeSegment$:CSWith16$n.x()ui
0805aa10+      W?MemOffset$:CSWith16$n.x()ui
0805aa20+      W?SetParent$:CSWith16$n(ul)v
0805aa30+      W?SetEnd$:CSWith16$n(ul)v
0805aa40+      W?$dt:CSLabel16$n()_
0805aae0+      W?CodeSegment$:CSLabel16$n.x()ui
0805aaf0+      W?MemOffset$:CSLabel16$n.x()ui
0805ab00+      W?$dt:CSCExModel16$n()_
0805abc0+      W?$dt:CSVftPath16$n()_
0805ac60+      W?DataSegment$:CSVftPath16$n.x()ui
0805ac70+      W?MemOffset$:CSVftPath16$n.x()ui
0805ac80+      W?FixType$:CSVftPath16$n()v
0805acb0+      W?$dt:CSRegRel16$n()_
0805ad50+      W?FixType$:CSRegRel16$n()v
0805ad70+      W?$dt:CSBPRel32$n()_
0805ae10+      W?FixType$:CSBPRel32$n()v
0805ae30+      W?$dt:CSLData32$n()_
0805aed0+      W?DataSegment$:CSLData32$n.x()ui
0805aee0+      W?MemOffset$:CSLData32$n.x()ui
0805aef0+      W?FixType$:CSLData32$n()v
0805af10+      W?$dt:CSPub32$n()_
0805afb0+      W?DataSegment$:CSPub32$n.x()ui
0805afc0+      W?CodeSegment$:CSPub32$n.x()ui
0805afd0+      W?MemOffset$:CSPub32$n.x()ui
0805afe0+      W?FixType$:CSPub32$n()v
0805b000+      W?$dt:CSPub32_new$n()_
0805b0a0+      W?DataSegment$:CSPub32_new$n.x()ui
0805b0b0+      W?CodeSegment$:CSPub32_new$n.x()ui
0805b0c0+      W?MemOffset$:CSPub32_new$n.x()ui
0805b0d0+      W?FixType$:CSPub32_new$n()v
0805b0f0+      W?$dt:CSLProc32$n()_
0805b190+      W?CodeSegment$:CSLProc32$n.x()ui
0805b1a0+      W?MemOffset$:CSLProc32$n.x()ui
0805b1b0+      W?IsStartSym$:CSLProc32$n.x()q
0805b1c0+      W?SetParent$:CSLProc32$n(ul)v
0805b1d0+      W?SetNext$:CSLProc32$n(ul)v
0805b1e0+      W?SetEnd$:CSLProc32$n(ul)v
0805b1f0+      W?FixType$:CSLProc32$n()v
0805b210+      W?$dt:CSThunk32$n()_
0805b2b0+      W?IsStartSym$:CSThunk32$n.x()q
0805b2c0+      W?CodeSegment$:CSThunk32$n.x()ui
0805b2d0+      W?MemOffset$:CSThunk32$n.x()ui
0805b2e0+      W?SetParent$:CSThunk32$n(ul)v
0805b2f0+      W?SetNext$:CSThunk32$n(ul)v
0805b300+      W?SetEnd$:CSThunk32$n(ul)v
0805b310+      W?$dt:CSBlock32$n()_
0805b3b0+      W?IsStartSym$:CSBlock32$n.x()q
0805b3c0+      W?CodeSegment$:CSBlock32$n.x()ui
0805b3d0+      W?MemOffset$:CSBlock32$n.x()ui
0805b3e0+      W?SetParent$:CSBlock32$n(ul)v
0805b3f0+      W?SetEnd$:CSBlock32$n(ul)v
0805b400+      W?$dt:CSWith32$n()_
0805b4c0+      W?IsStartSym$:CSWith32$n.x()q
0805b4d0+      W?CodeSegment$:CSWith32$n.x()ui
0805b4e0+      W?MemOffset$:CSWith32$n.x()ui
0805b4f0+      W?SetParent$:CSWith32$n(ul)v
0805b500+      W?SetEnd$:CSWith32$n(ul)v
0805b510+      W?$dt:CSLabel32$n()_
0805b5b0+      W?CodeSegment$:CSLabel32$n.x()ui
0805b5c0+      W?MemOffset$:CSLabel32$n.x()ui
0805b5d0+      W?$dt:CSCExModel32$n()_
0805b690+      W?$dt:CSVftPath32$n()_
0805b730+      W?DataSegment$:CSVftPath32$n.x()ui
0805b740+      W?MemOffset$:CSVftPath32$n.x()ui
0805b750+      W?FixType$:CSVftPath32$n()v
0805b780+      W?$dt:CSRegRel32$n()_
0805b820+      W?FixType$:CSRegRel32$n()v
0805b840+      W?$dt:CSLThread32$n()_
0805b8e0+      W?DataSegment$:CSLThread32$n.x()ui
0805b8f0+      W?MemOffset$:CSLThread32$n.x()ui
0805b900+      W?FixType$:CSLThread32$n()v
08057270       W?$ra:SymbolStruct$n.x(rnx$0$)q
08057290       W?$ct:SymbolStruct$n(usus)_
08057320+      W?$ct:SymbolStruct$n($s_common$$)_
080573c0+      W?$ct:SymbolStruct$n($s_common$$pnxaui)_
08057460+      W?byt_toupper$:SymbolStruct$n(uc)uc
08057470+      W?dwrd_toupper$:SymbolStruct$n(ul)ul
08057480       W?checkSum$:SymbolStruct$n(pnxa)ul
080574f0       W?Error$:SymbolStruct$n(pnxa)pn$1$
08057520       W?Construct$:CSCompile$n(pnxa)pn$SymbolStruct$$
08057630       W?Construct$:CSRegister$n(pnxa)pn$SymbolStruct$$
08057700       W?Construct$:CSConstant$n(pnxa)pn$SymbolStruct$$
08057830       W?Construct$:CSUdt$n(pnxa)pn$SymbolStruct$$
080578f0       W?Construct$:CSStartSearch$n(pnxa)pn$SymbolStruct$$
080579b0       W?Construct$:CSEndBlock$n(pnxa)pn$SymbolStruct$$
08057a50       W?Construct$:CSSkipRecord$n(pnxa)pn$SymbolStruct$$
08057a60       W?Construct$:CSObjName$n(pnxa)pn$SymbolStruct$$
08057b20       W?Construct$:CSEndOfArg$n(pnxa)pn$SymbolStruct$$
08057bc0       W?Construct$:CSCobolUdt$n(pnxa)pn$SymbolStruct$$
08057c80       W?Construct$:CSManyReg$n(pnxa)pn$SymbolStruct$$
08057da0       W?Construct$:CSReturn$n(pnxa)pn$SymbolStruct$$
08057ec0       W?Construct$:CSEntryThis$n(pnxa)pn$SymbolStruct$$
08057fc0       W?Construct$:CSBPRel16$n(pnxa)pn$SymbolStruct$$
08058090       W?Construct$:CSLData16$n(pnxa)pn$SymbolStruct$$
08058170       W?Construct$:CSPub16$n(pnxa)pn$SymbolStruct$$
08058250       W?Construct$:CSLProc16$n(pnxa)pn$SymbolStruct$$
08058360       W?Construct$:CSThunk16$n(pnxa)pn$SymbolStruct$$
08058450       W?Construct$:CSBlock16$n(pnxa)pn$SymbolStruct$$
08058530       W?Construct$:CSWith16$n(pnxa)pn$SymbolStruct$$
08058630       W?Construct$:CSLabel16$n(pnxa)pn$SymbolStruct$$
08058700       W?Construct$:CSCExModel16$n(pnxa)pn$SymbolStruct$$
08058810       W?Construct$:CSVftPath16$n(pnxa)pn$SymbolStruct$$
080588e0       W?Construct$:CSRegRel16$n(pnxa)pn$SymbolStruct$$
080589b0       W?Construct$:CSBPRel32$n(pnxa)pn$SymbolStruct$$
08058a80       W?Construct$:CSLData32$n(pnxa)pn$SymbolStruct$$
08058b60       W?Construct$:CSPub32$n(pnxa)pn$SymbolStruct$$
08058c40       W?Construct$:CSPub32_new$n(pnxa)pn$SymbolStruct$$
08058d20       W?Construct$:CSLProc32$n(pnxa)pn$SymbolStruct$$
08058e20       W?Construct$:CSThunk32$n(pnxa)pn$SymbolStruct$$
08058f10       W?Construct$:CSBlock32$n(pnxa)pn$SymbolStruct$$
08058ff0       W?Construct$:CSWith32$n(pnxa)pn$SymbolStruct$$
080590f0       W?Construct$:CSLabel32$n(pnxa)pn$SymbolStruct$$
080591c0       W?Construct$:CSCExModel32$n(pnxa)pn$SymbolStruct$$
080592d0       W?Construct$:CSVftPath32$n(pnxa)pn$SymbolStruct$$
080593a0       W?Construct$:CSRegRel32$n(pnxa)pn$SymbolStruct$$
08059470       W?Construct$:CSLThread32$n(pnxa)pn$SymbolStruct$$
08059560+      W?DerivedPut$:CSCompile$n.x(rn$ExeMaker$$)v
08059590+      W?DerivedPut$:CSRegister$n.x(rn$ExeMaker$$)v
080595b0+      W?DerivedPut$:CSConstant$n.x(rn$ExeMaker$$)v
080595e0+      W?DerivedPut$:CSUdt$n.x(rn$ExeMaker$$)v
08059600       W?DerivedPut$:CSStartSearch$n.x(rn$ExeMaker$$)v
08059620+      W?DerivedPut$:CSObjName$n.x(rn$ExeMaker$$)v
08059640+      W?DerivedPut$:CSCobolUdt$n.x(rn$ExeMaker$$)v
08059660+      W?DerivedPut$:CSManyReg$n.x(rn$ExeMaker$$)v
08059690+      W?DerivedPut$:CSReturn$n.x(rn$ExeMaker$$)v
080596c0+      W?DerivedPut$:CSEntryThis$n.x(rn$ExeMaker$$)v
080596d0       W?Put$:SymbolStruct$n.x(rn$ExeMaker$$)v
08059740+      W?DerivedPut$:CSBPRel16$n.x(rn$ExeMaker$$)v
08059760+      W?DerivedPut$:CSLData16$n.x(rn$ExeMaker$$)v
08059780+      W?DerivedPut$:CSPub16$n.x(rn$ExeMaker$$)v
080597a0+      W?DerivedPut$:CSLProc16$n.x(rn$ExeMaker$$)v
080597c0+      W?DerivedPut$:CSThunk16$n.x(rn$ExeMaker$$)v
080597e0+      W?DerivedPut$:CSBlock16$n.x(rn$ExeMaker$$)v
08059800+      W?DerivedPut$:CSWith16$n.x(rn$ExeMaker$$)v
08059820+      W?DerivedPut$:CSLabel16$n.x(rn$ExeMaker$$)v
08059840+      W?DerivedPut$:CSCExModel16$n.x(rn$ExeMaker$$)v
08059870+      W?DerivedPut$:CSVftPath16$n.x(rn$ExeMaker$$)v
08059890+      W?DerivedPut$:CSRegRel16$n.x(rn$ExeMaker$$)v
080598b0+      W?DerivedPut$:CSBPRel32$n.x(rn$ExeMaker$$)v
080598d0+      W?DerivedPut$:CSLData32$n.x(rn$ExeMaker$$)v
080598f0+      W?DerivedPut$:CSPub32$n.x(rn$ExeMaker$$)v
08059910+      W?DerivedPut$:CSPub32_new$n.x(rn$ExeMaker$$)v
08059930+      W?DerivedPut$:CSLProc32$n.x(rn$ExeMaker$$)v
08059950+      W?DerivedPut$:CSThunk32$n.x(rn$ExeMaker$$)v
08059970+      W?DerivedPut$:CSBlock32$n.x(rn$ExeMaker$$)v
08059990+      W?DerivedPut$:CSWith32$n.x(rn$ExeMaker$$)v
080599b0+      W?DerivedPut$:CSLabel32$n.x(rn$ExeMaker$$)v
080599d0+      W?DerivedPut$:CSCExModel32$n.x(rn$ExeMaker$$)v
08059a00+      W?DerivedPut$:CSVftPath32$n.x(rn$ExeMaker$$)v
08059a20+      W?DerivedPut$:CSRegRel32$n.x(rn$ExeMaker$$)v
08059a40+      W?DerivedPut$:CSLThread32$n.x(rn$ExeMaker$$)v
08059a60       W?DerivedPut$:CSProcRef$n.x(rn$ExeMaker$$)v
08059ac0       W?DerivedPut$:CSDataRef$n.x(rn$ExeMaker$$)v
0805b9a0+      W?$ct:__sspdf$:cv_proc$n(rnx$0:1$)_
0805ba00+      W?$ct:__uiq7nf$:__8tjdl6cv_return_flags$n(rnx$0:1$)_
0805ba30+      W?$ct:__101t1f$:__6bn8u8cv_compile$n(rnx$0:1$)_
0806d9f0+      W?$Wvf0Dok:CSCompile$$nx[]pn()v
0806da30+      W?$Wvf0Eok:CSRegister$$nx[]pn()v
0806da70+      W?$Wvf0Eok:CSConstant$$nx[]pn()v
0806dab0+      W?$Wvf09ok:CSUdt$$nx[]pn()v
0806daf0+      W?$Wvf0Eok:CSEndBlock$$nx[]pn()v
0806db30+      W?$Wvf0Dok:CSObjName$$nx[]pn()v
0806db70+      W?$Wvf0Eok:CSEndOfArg$$nx[]pn()v
0806dbb0+      W?$Wvf0Eok:CSCobolUdt$$nx[]pn()v
0806dbf0+      W?$Wvf0Dok:CSManyReg$$nx[]pn()v
0806dc30+      W?$Wvf0Cok:CSReturn$$nx[]pn()v
0806dc70+      W?$Wvf0Fok:CSEntryThis$$nx[]pn()v
0806dcb0+      W?$Wvf0Dok:CSBPRel16$$nx[]pn()v
0806dcf0+      W?$Wvf0Dok:CSLData16$$nx[]pn()v
0806dd30+      W?$Wvf0Bok:CSPub16$$nx[]pn()v
0806dd70+      W?$Wvf0Dok:CSLProc16$$nx[]pn()v
0806ddb0+      W?$Wvf0Dok:CSThunk16$$nx[]pn()v
0806ddf0+      W?$Wvf0Dok:CSBlock16$$nx[]pn()v
0806de30+      W?$Wvf0Cok:CSWith16$$nx[]pn()v
0806de70+      W?$Wvf0Dok:CSLabel16$$nx[]pn()v
0806deb0+      W?$Wvf0Gok:CSCExModel16$$nx[]pn()v
0806def0+      W?$Wvf0Fok:CSVftPath16$$nx[]pn()v
0806df30+      W?$Wvf0Eok:CSRegRel16$$nx[]pn()v
0806df70+      W?$Wvf0Dok:CSBPRel32$$nx[]pn()v
0806dfb0+      W?$Wvf0Dok:CSLData32$$nx[]pn()v
0806dff0+      W?$Wvf0Bok:CSPub32$$nx[]pn()v
0806e030+      W?$Wvf0Fok:CSPub32_new$$nx[]pn()v
0806e070+      W?$Wvf0Dok:CSLProc32$$nx[]pn()v
0806e0b0+      W?$Wvf0Dok:CSThunk32$$nx[]pn()v
0806e0f0+      W?$Wvf0Dok:CSBlock32$$nx[]pn()v
0806e130+      W?$Wvf0Cok:CSWith32$$nx[]pn()v
0806e170+      W?$Wvf0Dok:CSLabel32$$nx[]pn()v
0806e1b0+      W?$Wvf0Gok:CSCExModel32$$nx[]pn()v
0806e1f0+      W?$Wvf0Fok:CSVftPath32$$nx[]pn()v
0806e230+      W?$Wvf0Eok:CSRegRel32$$nx[]pn()v
0806e270+      W?$Wvf0Fok:CSLThread32$$nx[]pn()v
0806e2b0+      W?$Wts0Dn$CSCompile$$$nx[]uc
0806e2d0+      W?$Wts0En$CSRegister$$$nx[]uc
0806e2f0+      W?$Wts0En$CSConstant$$$nx[]uc
0806e310+      W?$Wts09n$CSUdt$$$nx[]uc
0806e330+      W?$Wts0En$CSEndBlock$$$nx[]uc
0806e350+      W?$Wts0Dn$CSObjName$$$nx[]uc
0806e370+      W?$Wts0En$CSEndOfArg$$$nx[]uc
0806e390+      W?$Wts0En$CSCobolUdt$$$nx[]uc
0806e3b0+      W?$Wts0Dn$CSManyReg$$$nx[]uc
0806e3d0+      W?$Wts0Cn$CSReturn$$$nx[]uc
0806e3f0+      W?$Wts0Fn$CSEntryThis$$$nx[]uc
0806e410+      W?$Wts0Dn$CSBPRel16$$$nx[]uc
0806e430+      W?$Wts0Dn$CSLData16$$$nx[]uc
0806e450+      W?$Wts0Bn$CSPub16$$$nx[]uc
0806e470+      W?$Wts0Dn$CSLProc16$$$nx[]uc
0806e490+      W?$Wts0Dn$CSThunk16$$$nx[]uc
0806e4b0+      W?$Wts0Dn$CSBlock16$$$nx[]uc
0806e4d0+      W?$Wts0Cn$CSWith16$$$nx[]uc
0806e4f0+      W?$Wts0Dn$CSLabel16$$$nx[]uc
0806e510+      W?$Wts0Gn$CSCExModel16$$$nx[]uc
0806e530+      W?$Wts0Fn$CSVftPath16$$$nx[]uc
0806e550+      W?$Wts0En$CSRegRel16$$$nx[]uc
0806e570+      W?$Wts0Dn$CSBPRel32$$$nx[]uc
0806e590+      W?$Wts0Dn$CSLData32$$$nx[]uc
0806e5b0+      W?$Wts0Bn$CSPub32$$$nx[]uc
0806e5d0+      W?$Wts0Fn$CSPub32_new$$$nx[]uc
0806e5f0+      W?$Wts0Dn$CSLProc32$$$nx[]uc
0806e610+      W?$Wts0Dn$CSThunk32$$$nx[]uc
0806e630+      W?$Wts0Dn$CSBlock32$$$nx[]uc
0806e650+      W?$Wts0Cn$CSWith32$$$nx[]uc
0806e670+      W?$Wts0Dn$CSLabel32$$$nx[]uc
0806e690+      W?$Wts0Gn$CSCExModel32$$$nx[]uc
0806e6b0+      W?$Wts0Fn$CSVftPath32$$$nx[]uc
0806e6d0+      W?$Wts0En$CSRegRel32$$$nx[]uc
0806e6f0+      W?$Wts0Fn$CSLThread32$$$nx[]uc
0807178c+      W?$Wti0E$CSLThread32$$$n[]uc
080717a0+      W?$Wti0D$CSRegRel32$$$n[]uc
080717b4+      W?$Wti0E$CSVftPath32$$$n[]uc
080717c8+      W?$Wti0F$CSCExModel32$$$n[]uc
080717dc+      W?$Wti0C$CSLabel32$$$n[]uc
080717f0+      W?$Wti0B$CSWith32$$$n[]uc
08071800+      W?$Wti0C$CSBlock32$$$n[]uc
08071814+      W?$Wti0C$CSThunk32$$$n[]uc
08071828+      W?$Wti0C$CSLProc32$$$n[]uc
0807183c+      W?$Wti0E$CSPub32_new$$$n[]uc
08071850+      W?$Wti0A$CSPub32$$$n[]uc
08071860+      W?$Wti0C$CSLData32$$$n[]uc
08071874+      W?$Wti0C$CSBPRel32$$$n[]uc
08071888+      W?$Wti0D$CSRegRel16$$$n[]uc
0807189c+      W?$Wti0E$CSVftPath16$$$n[]uc
080718b0+      W?$Wti0F$CSCExModel16$$$n[]uc
080718c4+      W?$Wti0C$CSLabel16$$$n[]uc
080718d8+      W?$Wti0B$CSWith16$$$n[]uc
080718e8+      W?$Wti0C$CSBlock16$$$n[]uc
080718fc+      W?$Wti0C$CSThunk16$$$n[]uc
08071910+      W?$Wti0C$CSLProc16$$$n[]uc
08071924+      W?$Wti0A$CSPub16$$$n[]uc
08071934+      W?$Wti0C$CSLData16$$$n[]uc
08071948+      W?$Wti0C$CSBPRel16$$$n[]uc
0807195c+      W?$Wti0E$CSEntryThis$$$n[]uc
08071970+      W?$Wti0B$CSReturn$$$n[]uc
08071980+      W?$Wti0C$CSManyReg$$$n[]uc
08071994+      W?$Wti0D$CSCobolUdt$$$n[]uc
080719a8+      W?$Wti0D$CSEndOfArg$$$n[]uc
080719bc+      W?$Wti0C$CSObjName$$$n[]uc
080719d0+      W?$Wti0D$CSEndBlock$$$n[]uc
080719e4+      W?$Wti08$CSUdt$$$n[]uc
080719f4+      W?$Wti0D$CSConstant$$$n[]uc
08071a08+      W?$Wti0D$CSRegister$$$n[]uc
08071a1c+      W?$Wti0C$CSCompile$$$n[]uc
08059b20       W?DerivedPut$:CSPageAlign$n.x(rn$ExeMaker$$)v
0807177c+      W?_padTable$:SymbolStruct$n[]pna
Module: makeexe.obj(/mnt/sda5/.user/root/src/openwatcom-1.9/bld/cvpack/cpp/makeexe.cpp)
0805bc10+      W?$dt:WriteError$n()_
0805bc20+      W?$ct:WriteError$n(rnx$0$)_
0805bc40+      W?$dt:WCValListIterBase$::1npn$cv_dir_entry$$1n$WCPtrSList$::1n$1$$1n$WCNIsvSLink$::1npn$1$$n()_
0805bc90+      W?current$:WCValListIterBase$::1npn$cv_dir_entry$$1n$WCPtrSList$::1n$2$$1n$WCNIsvSLink$::1npn$2$$n.x()pn$2$
0805bcb0+      W?$dt:WCPtrSListIter$::1n$cv_dir_entry$$n()_
0805bd50+      W?$dt:WCPtrConstSListIter$::1n$cv_dir_entry$$n()_
0805be10+      W?append$:WCValListBase$::1npn$cv_dir_entry$$1n$WCIsvSListBase$::1n$WCNIsvSLink$::1npn$2$$$1n$4::1npn$2$$n(rnxpn$2$)i
0805be40+      W?WCListNew$:WCValListBase$::1npn$cv_dir_entry$$1n$WCIsvSListBase$::1n$WCNIsvSLink$::1npn$2$$$1n$4::1npn$2$$n(rnxpn$2$)pn$4::1npn$2$$
0806ea70+      W?$Wvf0Eo0:WriteError$$nx[]pn()v
0806ea80+      W?$Wvf1Ro4:WCValListIterBase$::1npn$cv_dir_entry$$1n$WCPtrSList$::1n$1$$1n$WCNIsvSLink$::1npn$1$$$nx[]pn()v
0806ea90+      W?$Wvf0bo4:WCPtrSListIter$::1n$cv_dir_entry$$$nx[]pn()v
0806eaa0+      W?$Wvf0go4:WCPtrConstSListIter$::1n$cv_dir_entry$$$nx[]pn()v
0806eab0+      W?$Wth0Gnrn$WriteError$$$nx[]uc
0806ead0+      W?$Wts0gn$WCPtrConstSListIter$::1n$cv_dir_entry$$$$nx[]uc
0806eaf0+      W?$Wts0En$WriteError$$$nx[]uc
08071a2d+      W?$Wti0a$WCPtrSListIter$::1n$cv_dir_entry$$$$n[]uc
08071a56+      W?$Wti0D$WriteError$$$n[]uc
08071a68+      W?$Wti0f$WCPtrConstSListIter$::1n$cv_dir_entry$$$$n[]uc
0805baa0       W?Insert$:ODirectory$n($$TE$$usulul)v
0805bae0       W?Put$:ODirectory$n(rn$ExeMaker$$)v
0805bbd0       W?Write$:ExeMaker$n(pnxaui)v
0806eb10+      W?$Wts0bn$WCPtrSListIter$::1n$cv_dir_entry$$$$nx[]uc
Module: symdis.obj(/mnt/sda5/.user/root/src/openwatcom-1.9/bld/cvpack/cpp/symdis.cpp)
0805c3c0+      W?$dt:CSProcRef$n()_
0805c480+      W?cSum$:CSProcRef$n.x()ul
0805c490+      W?DataSegment$:CSProcRef$n.x()ui
0805c4a0+      W?MemOffset$:CSProcRef$n.x()ui
0805c4b0+      W?Name$:CSProcRef$n.x()pnxa
0805c4c0+      W?$dt:CSDataRef$n()_
0805c580+      W?cSum$:CSDataRef$n.x()ul
0805c590+      W?DataSegment$:CSDataRef$n.x()ui
0805c5a0+      W?MemOffset$:CSDataRef$n.x()ui
0805c5b0+      W?Name$:CSDataRef$n.x()pnxa
0805c650+      W?isEmpty$:WCValListBase$::1npn$SymbolStruct$$1n$WCIsvSListBase$::1n$WCNIsvSLink$::1npn$2$$$1n$4::1npn$2$$n.x()i
0806eef0+      W?$Wvf0Dok:CSProcRef$$nx[]pn()v
0806ef30+      W?$Wvf0Dok:CSDataRef$$nx[]pn()v
0806ef70+      W?$Wts0Dn$CSProcRef$$$nx[]uc
08071b58+      W?$Wti0C$CSDataRef$$$n[]uc
08071b6c+      W?$Wti0C$CSProcRef$$$n[]uc
0805be80+      W?Build$:SymbolDistributor$n.x(pnxauirn$SstAlignSym$$)v
0805c330       W?Distribute$:SymbolDistributor$n.x(uirn$SstAlignSym$$)q
0806ef90+      W?$Wts0Dn$CSDataRef$$$nx[]uc
08071a98       W?_symConstructorTable$:SymbolDistributor$n[]pn(pnxa)pn$SymbolStruct$$
Module: typemap.obj(/mnt/sda5/.user/root/src/openwatcom-1.9/bld/cvpack/cpp/typemap.cpp)
0805cae0+      W?$od:WCValVector$::1n$__304un0mappingStruct$:TypeIndexMap$$n.x(i)rnx$1:2$
0805cb30+      W?base_index_check$:WCBareVectorBase$::1n$__304un0mappingStruct$:TypeIndexMap$$n.x(i)i
0805c660       W?$ct:TypeIndexMap$n(uius)_
0805c720       W?Insert$:TypeIndexMap$n(usus)v
0805c870       W?Lookup$:TypeIndexMap$n.x(us)us
0805c960       W?Reset$:TypeIndexMap$n(ui)v
Module: typearay.obj(/mnt/sda5/.user/root/src/openwatcom-1.9/bld/cvpack/cpp/typearay.cpp)
0805d050+      W?$dt:GlobalTypeContainer$n()_
0805d060+      W?$ct:GlobalListContainer$n()_
0805d100+      W?$dt:GlobalListContainer$n()_
0805d1d0+      W?Find$:GlobalListContainer$n(pn$LFTypeRecord$$)rn$WCPtrSList$::1n$2$$
0805d1e0+      W?Insert$:GlobalListContainer$n(pn$LFTypeRecord$$)v
0805d200+      W?$ct:GlobalHashContainer$n()_
0805d280+      W?$dt:GlobalHashContainer$n()_
0805d340+      W?Find$:GlobalHashContainer$n(pn$LFTypeRecord$$)rn$WCPtrSList$::1n$2$$
0805cb60+      W?Insert$:GlobalHashContainer$n(pn$LFTypeRecord$$)v
0805cbb0+      W?Rehash$:GlobalHashContainer$n()v
0805cd30+      W?HFn$:GlobalHashContainer$n(rn$VariantString$$)ul
0805cd70       W?$ct:GlobalTypeArray$n()_
0805cfa0       W?DerivedInsert$:GlobalTypeArray$n(pn$LFTypeRecord$$)v
0805d3a0       W?$ct:WCPtrSListIter$::1n$LFTypeRecord$$n()_
0805d420+      W?$ct:WCValListIterBase$::1npn$LFTypeRecord$$1n$WCPtrSList$::1n$1$$1n$WCNIsvSLink$::1npn$1$$n()_
0806f720+      W?$Wvf0No0:GlobalListContainer$$nx[]pn()v
0806f730+      W?$Wvf0No0:GlobalHashContainer$$nx[]pn()v
0806f740+      W?$Wts0Nn$GlobalListContainer$$$nx[]uc
0806f760+      W?$Wts0Nn$GlobalHashContainer$$$nx[]uc
08071b7d+      W?$Wti0M$GlobalHashContainer$$$n[]uc
08071b98+      W?$Wti0M$GlobalListContainer$$$n[]uc
0805cfc0       W?Find$:GlobalTypeArray$n(pn$LFTypeRecord$$)rn$WCPtrSList$::1n$2$$
0805d010       W?DerivedInsert$:LocalTypeArray$n(pn$LFTypeRecord$$)v
Module: typercrd.obj(/mnt/sda5/.user/root/src/openwatcom-1.9/bld/cvpack/cpp/typercrd.cpp)
0805d990+      W?$dt:LFTypeRecord$n()_
0805da20+      W?IsEquivalent$:LFTypeRecord$n(rn$1$)q
0805da40+      W?$dt:LFGlobalTypeRecord$n()_
0805dad0+      W?$ct:Recorder$n()_
0805db60+      W?$dt:Recorder$n()_
0805dbd0+      W?$ct:MyNodeStack$n()_
0805dc60+      W?$dt:MyNodeStack$n()_
0805d550       W?$ra:LFTypeRecord$n.x(rnx$0$)q
0805d570+      W?ConvertIndex$:LFTypeRecord$n(us)ui
0805d5a0       W?$ct:LFTypeRecord$n(uspnxa)_
0805d5f0+      W?$ct:LFTypeRecord$n(pn$0$)_
0805d620       W?$ct:LFGlobalTypeRecord$n(uspnxa)_
0805d680       W?$ct:LFGlobalTypeRecord$n(pn$LFTypeRecord$$)_
0805dcd0+      W?$dt:WCPtrListBase$::1n$LFGlobalTypeRecord$$1n$WCValSList$::1npn$1$$n()_
0805dd40+      W?base_equivalent$:WCValSList$::1nusn.x(rnxusrnxus)i
0805dd50+      W?$dt:WCValSList$::1nusn()_
0805ddf0+      W?base_equivalent$:WCValSList$::1npn$LFGlobalTypeRecord$$n.x(rnxpn$2$rnxpn$2$)i
0805de00+      W?$dt:WCValSList$::1npn$LFGlobalTypeRecord$$n()_
0805dea0+      W?base_equivalent$:WCPtrSList$::1n$LFGlobalTypeRecord$$n.x(rnxpn$2$rnxpn$2$)i
0805deb0+      W?$ct:WCPtrSList$::1n$LFGlobalTypeRecord$$n()_
0805df50+      W?$dt:WCPtrSList$::1n$LFGlobalTypeRecord$$n()_
0805e010+      W?$dt:WCValListIterBase$::1npn$LFGlobalTypeRecord$$1n$WCPtrSList$::1n$1$$1n$WCNIsvSLink$::1npn$1$$n()_
0805e060+      W?current$:WCValListIterBase$::1npn$LFGlobalTypeRecord$$1n$WCPtrSList$::1n$2$$1n$WCNIsvSLink$::1npn$2$$n.x()pn$2$
0805e080+      W?$dt:WCPtrSListIter$::1n$LFGlobalTypeRecord$$n()_
0805e120+      W?$ct:WCStack$::1nus1n$WCValSList$::1nus$n()_
0805e1c0+      W?$dt:WCStack$::1nus1n$WCValSList$::1nus$n()_
0805e280+      W?get$:WCValListBase$::1nus1n$WCIsvSListBase$::1n$WCNIsvSLink$::1nus$$1n$3::1nus$n(i)us
0805e2b0+      W?$ct:WCPtrListBase$::1n$LFGlobalTypeRecord$$1n$WCValSList$::1npn$1$$n(pn(ui)pnvpn(pnvui)v)_
0805e350+      W?$ct:WCValSList$::1nusn()_
0805e3f0+      W?$ct:WCValSList$::1npn$LFGlobalTypeRecord$$n(pn(ui)pnvpn(pnvui)v)_
0805e490+      W?clearAndDestroy$:WCIsvSListBase$::1n$WCNIsvSLink$::1nus$n()v
0805e4a0+      W?entries$:WCIsvSListBase$::1n$WCNIsvSLink$::1npn$LFGlobalTypeRecord$$$n.x()i
0805e4b0+      W?$ct:WCValListBase$::1nus1n$WCIsvSListBase$::1n$WCNIsvSLink$::1nus$$1n$2::1nus$n(pn(ui)pnvpn(pnvui)v)_
0805e540+      W?$ct:WCValListBase$::1npn$LFGlobalTypeRecord$$1n$WCIsvSListBase$::1n$WCNIsvSLink$::1npn$1$$$1n$3::1npn$1$$n(pn(ui)pnvpn(pnvui)v)_
0806fe20+      W?$Wvf0Goc:LFTypeRecord$$nx[]pn()v
0806fe30+      W?$Wvf0Moc:LFGlobalTypeRecord$$nx[]pn()v
0806fe40+      W?$Wvf14o4:WCPtrListBase$::1n$LFGlobalTypeRecord$$1n$WCValSList$::1npn$1$$$nx[]pn()v
0806fe50+      W?$Wvf0Ko4:WCValSList$::1nus$nx[]pn()v
0806fe60+      W?$Wvf0fo4:WCValSList$::1npn$LFGlobalTypeRecord$$$nx[]pn()v
0806fe70+      W?$Wvf0do4:WCPtrSList$::1n$LFGlobalTypeRecord$$$nx[]pn()v
0806fe80+      W?$Wvf1Xo4:WCValListIterBase$::1npn$LFGlobalTypeRecord$$1n$WCPtrSList$::1n$1$$1n$WCNIsvSLink$::1npn$1$$$nx[]pn()v
0806fe90+      W?$Wvf0ho4:WCPtrSListIter$::1n$LFGlobalTypeRecord$$$nx[]pn()v
0806fea0+      W?$Wvf0co4:WCStack$::1nus1n$WCValSList$::1nus$$nx[]pn()v
0806feb0+      W?$Wts0Gn$LFTypeRecord$$$nx[]uc
0806fed0+      W?$Wts0Mn$LFGlobalTypeRecord$$$nx[]uc
0806fef0+      W?$Wts0Fn$MyNodeStack$$$nx[]uc
0806ff10+      W?$Wts0Cn$Recorder$$$nx[]uc
0806ff30+      W?$Wts0hn$WCPtrSListIter$::1n$LFGlobalTypeRecord$$$$nx[]uc
0806ff50+      W?$Wts0Kn$WCValSList$::1nus$$nx[]uc
0806ff70+      W?$Wts0fn$WCValSList$::1npn$LFGlobalTypeRecord$$$$nx[]uc
0806ff90+      W?$Wts0dn$WCPtrSList$::1n$LFGlobalTypeRecord$$$$nx[]uc
08071c60+      W?$Wti0b$WCStack$::1nus1n$WCValSList$::1nus$$$n[]uc
08071c8c+      W?$Wti0c$WCPtrSList$::1n$LFGlobalTypeRecord$$$$n[]uc
08071cb8+      W?$Wti0e$WCValSList$::1npn$LFGlobalTypeRecord$$$$n[]uc
08071ce8+      W?$Wti0J$WCValSList$::1nus$$n[]uc
08071d00+      W?$Wti0g$WCPtrSListIter$::1n$LFGlobalTypeRecord$$$$n[]uc
08071d30+      W?$Wti0B$Recorder$$$n[]uc
08071d40+      W?$Wti0E$MyNodeStack$$$n[]uc
08071d54+      W?$Wti0L$LFGlobalTypeRecord$$$n[]uc
08071d70+      W?$Wti0F$LFTypeRecord$$$n[]uc
0805e5d0+      W?$ct:WCIsvSListBase$::1n$WCNIsvSLink$::1nus$n()_
0805e640+      W?$ct:WCIsvSListBase$::1n$WCNIsvSLink$::1npn$LFGlobalTypeRecord$$$n()_
0805d6e0+      W?IsEquivalent$:LFGlobalTypeRecord$n(rn$LFTypeRecord$$)q
0805d800+      W?RewindAndUndo$:Recorder$n()v
0805d840+      W?MarkLoop$:MyNodeStack$n(pn$LFGlobalTypeRecord$$)v
0806ffb0+      W?$Wts0cn$WCStack$::1nus1n$WCValSList$::1nus$$$nx[]uc
08071bd4+      W?_typeConstructorTable$:LFTypeRecord$n[]pn(pnxaui)pn$LFLeafStruct$$
08084140+      W?_nodeStack$:LFGlobalTypeRecord$n$MyNodeStack$$
08084158+      W?_recorder$:LFGlobalTypeRecord$n$Recorder$$
Module: common.obj(/mnt/sda5/.user/root/src/openwatcom-1.9/bld/cvpack/cpp/common.cpp)
0805e6b0       W?ToTypeIndex$n(ui)ui
0805e6c0       W?ToTableIndex$n(us)ui
0805e6d0       W?PrefixStrLen$n(pnxa)ui
0805e6e0       W?Warning$n(pnxa)v
Module: /mnt/sda5/.user/root/src/openwatcom-1.9/rel2/lib386/plbx3r.lib(fsregist.cpp)
0805e720+      __wcpp_4_dispatch_dummy__
0805e744       __wcpp_4_fs_lookup__
0805e7e8       __wcpp_4_fs_handler_rtn__
0805e8bc       __wcpp_4_unwind_global__
0805e900       __wcpp_4_raise_exception__
Module: /mnt/sda5/.user/root/src/openwatcom-1.9/rel2/lib386/plbx3r.lib(cppdata.cpp)
08084170       __wint_thread_data
08084194       __compiled_under_generic
Module: /mnt/sda5/.user/root/src/openwatcom-1.9/rel2/lib386/plbx3r.lib(stablcl.cpp)
0805e930       __wcpp_4_lcl_register__
Module: /mnt/sda5/.user/root/src/openwatcom-1.9/rel2/lib386/plbx3r.lib(dtorarst.cpp)
0805e940       __wcpp_4_dtor_array_store__
Module: /mnt/sda5/.user/root/src/openwatcom-1.9/rel2/lib386/plbx3r.lib(opdelarr.cpp)
0805e970       W?$dan(pnv)v
Module: /mnt/sda5/.user/root/src/openwatcom-1.9/rel2/lib386/plbx3r.lib(opdel.cpp)
0805e980       W?$dln(pnv)v
Module: /mnt/sda5/.user/root/src/openwatcom-1.9/rel2/lib386/plbx3r.lib(ifsdestr.cpp)
08070040       W?$Wvf0Io22:ifstream$:std$$nx[]pn()v
08070050       W?$Wvf0Io2e:ifstream$:std$$nx[]pn()v
08070060       W?$Wvf0Io40:ifstream$:std$$nx[]pn()v
08071d84       W?$Wti0F$istream$:std$$$n[]uc
08071d98       W?$Wti0J$fstreambase$:std$$$n[]uc
08071db0       W?$Wti0B$ios$:std$$$n[]uc
0805ea90       W?$Wvt0Y.@dt:ifstream$:std$o26$:0:1$dtn()_$:istream$:std$n()pnv
0805eaa0       W?$Wvt0W.@dt:ifstream$:std$c$:0:1$dtn()_$:ios$:std$n()pnv
0805eab0       W?.tdtor$:istream$:std$n()pnv
0805eac0       W?.tdtor$:fstreambase$:std$n()pnv
0805ead0       W?.tdtor$:ios$:std$n()pnv
0805e990       W?$dt:ifstream$:std$n()_
08070070       W?$Wva0Ho0:ifstream$:std$$nx[]uc
Module: /mnt/sda5/.user/root/src/openwatcom-1.9/rel2/lib386/plbx3r.lib(ofsdestr.cpp)
08070130       W?$Wvf0Io22:ofstream$:std$$nx[]pn()v
08070140       W?$Wvf0Io2a:ofstream$:std$$nx[]pn()v
08070150       W?$Wvf0Io3r:ofstream$:std$$nx[]pn()v
08070160+      W?$Wts0Hn$ofstream$:std$$$nx[]uc
08071dc0       W?$Wti0F$ostream$:std$$$n[]uc
0805ebe0       W?$Wvt0Y.@dt:ofstream$:std$o26$:0:1$dtn()_$:ostream$:std$n()pnv
0805ebf0       W?$Wvt0W.@dt:ofstream$:std$c$:0:1$dtn()_$:ios$:std$n()pnv
0805ec00       W?.tdtor$:ostream$:std$n()pnv
0805eae0       W?$dt:ofstream$:std$n()_
08070180       W?$Wva0Ho0:ofstream$:std$$nx[]uc
08071dd4       W?$Wti0G$ofstream$:std$$$n[]uc
Module: /mnt/sda5/.user/root/src/openwatcom-1.9/rel2/lib386/plbx3r.lib(stabthrw.cpp)
0805f3d0+      W?$ct:exception$:std$n()_
0805f410+      W?$ct:exception$:std$n(rnx$0:1$)_
0805f460+      W?$ct:exception$:std$n(pnxa)_
0805f4a0+      W?$dt:exception$:std$n()_
0805f530+      W?what$:exception$:std$n.x()pnxa
0805f570+      W?$ct:bad_exception$:std$n()_
0805f5c0+      W?$ct:bad_exception$:std$n(rnx$0:1$)_
0805f610+      W?$dt:bad_exception$:std$n()_
080702c0+      W?$Wvf0Io4:exception$:std$$nx[]pn()v
080702d0+      W?$Wvf0Mo4:bad_exception$:std$$nx[]pn()v
080702e0+      W?$Wth0Onrn$bad_exception$:std$$$nx[]uc
08070300+      W?$Wts0In$exception$:std$$$nx[]uc
08070320+      W?$Wts0Mn$bad_exception$:std$$$nx[]uc
08070340+      W?$Wts0Hn$_EXC_PR_FNEXC$$$nx[]uc
08070360+      W?$Wts0Gn$_EXC_PR_DTOR$$$nx[]uc
08070380       W?$Wts0Gn$_EXC_PR_FREE$$$nx[]uc
080703a0       W?$Wts0Bn$_EXC_PR$$$nx[]uc
080703c0+      W?$Wva0Mo0:bad_exception$:std$$nx[]uc
08071de9       W?$Wti0A$_EXC_PR$$$n[]uc
08071df8       W?$Wti0F$_EXC_PR_FREE$$$n[]uc
08071e0c+      W?$Wti0F$_EXC_PR_DTOR$$$n[]uc
08071e20+      W?$Wti0G$_EXC_PR_FNEXC$$$n[]uc
08071e35+      W?$Wti0L$bad_exception$:std$$$n[]uc
0805f6c0+      W?.tcctor$:bad_exception$:std$n(rnx$1:2$)rn$1:2$
0805f6d0+      W?.tdtor$:bad_exception$:std$n()pnv
0805f6e0+      W?.tdtor$:exception$:std$n()pnv
0805f29c*      __wcpp_4_rethrow__
0805f2e0       __wcpp_4_catch_done__
0805f340       __wcpp_4_throw__
0805f384*      __wcpp_4_throw_zero__
080703e0+      W?$Wva0Io0:exception$:std$$nx[]uc
08071e4f+      W?$Wti0H$exception$:std$$$n[]uc
Module: /mnt/sda5/.user/root/src/openwatcom-1.9/rel2/lib386/plbx3r.lib(opnewarr.cpp)
0805f6f0       W?$nan(ui)pnv
Module: /mnt/sda5/.user/root/src/openwatcom-1.9/rel2/lib386/plbx3r.lib(osttellp.cpp)
0805f700       W?tellp$:ostream$:std$n()l
Module: /mnt/sda5/.user/root/src/openwatcom-1.9/rel2/lib386/plbx3r.lib(ostspsto.cpp)
0805f740       W?seekp$:ostream$:std$n(li)rn$1:2$
Module: /mnt/sda5/.user/root/src/openwatcom-1.9/rel2/lib386/plbx3r.lib(ioicerr.cpp)
080841d8       W?cerr$:std$n$ostream$:1$
08070420       W?$Wts0Cn$stdiobuf$$$nx[]uc
08070440       W?$Wts0Gn$ostream$:std$$$nx[]uc
08071e95+      W?$Wti0G$cerr_initfini$$$n[]uc
0805f850       W?.tdtor$:stdiobuf$n()pnv
0805f824+      W?$ct:cerr_initfini$n()_
0805f838+      W?$dt:cerr_initfini$n()_
08070460+      W?$Wts0Hn$cerr_initfini$$$nx[]uc
08071eaa       W?$Wti0B$stdiobuf$$$n[]uc
Module: /mnt/sda5/.user/root/src/openwatcom-1.9/rel2/lib386/plbx3r.lib(ostincch.cpp)
0805f860       W?$ob:ostream$:std$n(pnxa)rn$0:1$
Module: /mnt/sda5/.user/root/src/openwatcom-1.9/rel2/lib386/plbx3r.lib(ostflush.cpp)
0805f8e0       W?flush$:ostream$:std$n()rn$1:2$
Module: /mnt/sda5/.user/root/src/openwatcom-1.9/rel2/lib386/plbx3r.lib(opnew.cpp)
0805f920       W?$nwn(ui)pnv
Module: /mnt/sda5/.user/root/src/openwatcom-1.9/rel2/lib386/plbx3r.lib(fsbclose.cpp)
0805f970       W?close$:fstreambase$:std$n()v
Module: /mnt/sda5/.user/root/src/openwatcom-1.9/rel2/lib386/plbx3r.lib(stabdtor.cpp)
0805fc60       __wcpp_4_destruct_internal__
0805fc7c       __wcpp_4_destruct_all__
0805fc80*      __wcpp_4_destruct__
Module: /mnt/sda5/.user/root/src/openwatcom-1.9/rel2/lib386/plbx3r.lib(setnwhdl.cpp)
0805fca0       W?set_new_handler$n(pn()v)pn()v
Module: /mnt/sda5/.user/root/src/openwatcom-1.9/rel2/lib386/linux/clib3r.lib(setjmp)
0805fcb0       _setjmp_
0805fcdf       longjmp_
Module: /mnt/sda5/.user/root/src/openwatcom-1.9/rel2/lib386/linux/clib3r.lib(stricmp.c)
0805fd50       stricmp_
Module: /mnt/sda5/.user/root/src/openwatcom-1.9/rel2/lib386/plbx3r.lib(flfoprot.cpp)
08070480       W?openprot$:filebuf$:std$nxi
Module: /mnt/sda5/.user/root/src/openwatcom-1.9/rel2/lib386/plbx3r.lib(ifsconnm.cpp)
080704d0       W?$Wvb0Ho0:ifstream$:std$$nx[]ui
080704d8       W?$Wvb0Io26:ifstream$:std$$nx[]ui
0805fd90       W?$ct:ifstream$:std$n(pnxaii)_
Module: /mnt/sda5/.user/root/src/openwatcom-1.9/rel2/lib386/plbx3r.lib(ioicout.cpp)
08084258       W?cout$:std$n$ostream$:1$
08071eec+      W?$Wti0G$cout_initfini$$$n[]uc
0805feb4+      W?$ct:cout_initfini$n()_
0805febc+      W?$dt:cout_initfini$n()_
08070510+      W?$Wts0Hn$cout_initfini$$$nx[]uc
Module: /mnt/sda5/.user/root/src/openwatcom-1.9/rel2/lib386/plbx3r.lib(manendl.cpp)
0805fed0       W?endl$:std$n(rn$ostream$:1$)rn$2:1$
Module: /mnt/sda5/.user/root/src/openwatcom-1.9/rel2/lib386/plbx3r.lib(ostinomn.cpp)
0805fef0       W?$ob:ostream$:std$n(pn(rn$0:1$)rn$0:1$)rn$0:1$
Module: /mnt/sda5/.user/root/src/openwatcom-1.9/rel2/lib386/linux/clib3r.lib(tmpnm.c)
0805ff80       tmpnam_
Module: /mnt/sda5/.user/root/src/openwatcom-1.9/rel2/lib386/plbx3r.lib(ofsconnm.cpp)
08070574+      W?$Wvb0Ho0:ofstream$:std$$nx[]ui
0807057c+      W?$Wvb0Io26:ofstream$:std$$nx[]ui
08060040       W?$ct:ofstream$:std$n(pnxaii)_
Module: /mnt/sda5/.user/root/src/openwatcom-1.9/rel2/lib386/linux/clib3r.lib(remove.c)
08060110       remove_
Module: /mnt/sda5/.user/root/src/openwatcom-1.9/rel2/lib386/linux/clib3r.lib(rename.c)
08060120       rename_
Module: /mnt/sda5/.user/root/src/openwatcom-1.9/rel2/lib386/linux/clib3r.lib(errno.c)
08060150       __get_errno_ptr_
08084394+      _errno
Module: /mnt/sda5/.user/root/src/openwatcom-1.9/rel2/lib386/linux/clib3r.lib(strerror.c)
08060c90       strerror_
08060cb0*      _strerror_
08071f04+      __sys_errlist
080720fc+      __sys_nerr
Module: /mnt/sda5/.user/root/src/openwatcom-1.9/rel2/lib386/linux/clib3r.lib(exit.c)
08060d71       exit_
08060d83*      _exit_
Module: /mnt/sda5/.user/root/src/openwatcom-1.9/rel2/lib386/plbx3r.lib(opnewp.cpp)
08060d90       W?$nwn(uipnv)pnv
Module: /mnt/sda5/.user/root/src/openwatcom-1.9/rel2/lib386/plbx3r.lib(wcexcept.cpp)
08060da0       W?base_throw_empty_container$:WCExcept$n.x()v
08060dc8       W?base_throw_index_range$:WCExcept$n.x()v
08060df0       W?base_throw_not_empty$:WCExcept$n()v
08060e28*      W?base_throw_not_unique$:WCExcept$n.x()v
08060e50       W?base_throw_out_of_memory$:WCExcept$n.x()v
08060e78       W?base_throw_resize_required$:WCExcept$n.x()v
08060ea0*      W?base_throw_zero_buckets$:WCExcept$n.x()v
08060ec8       W?base_throw_iter_range$:WCIterExcept$n.x()v
08060ef0       W?base_throw_undef_item$:WCIterExcept$n.x()v
08060f40+      W?$ct:failure$:WCIterExcept$n(rnx$0:1$)_
08060f50+      W?$dt:failure$:WCIterExcept$n()_
08060f60+      W?$ct:failure$:WCExcept$n(rnx$0:1$)_
08060f70+      W?$dt:failure$:WCExcept$n()_
08070590+      W?$Wth0Nnrn$failure$:WCExcept$$$nx[]uc
080705b0+      W?$Wth0Rnrn$failure$:WCIterExcept$$$nx[]uc
080705d0+      W?$Wts0Ln$failure$:WCExcept$$$nx[]uc
080705f0       W?$Wts0Mn$__WATCOM_exception$$$nx[]uc
08072100+      W?$Wti0O$failure$:WCIterExcept$$$n[]uc
0807211d       W?$Wti0L$__WATCOM_exception$$$n[]uc
08060f80       W?$ct:__WATCOM_exception$n(rnx$0$)_
08060f90       W?$dt:__WATCOM_exception$n()_
08060f18       W?base_throw_undef_iter$:WCIterExcept$n.x()v
08070610+      W?$Wts0Pn$failure$:WCIterExcept$$$nx[]uc
08072137+      W?$Wti0K$failure$:WCExcept$$$n[]uc
Module: /mnt/sda5/.user/root/src/openwatcom-1.9/rel2/lib386/linux/clib3r.lib(memset.c)
08060fa0       memset_
Module: /mnt/sda5/.user/root/src/openwatcom-1.9/rel2/lib386/plbx3r.lib(wclist.cpp)
08070670+      W?$Wva0Ho0:WCIsvListBase$$nx[]uc
08072150+      W?$Wti0G$WCIsvListBase$$$n[]uc
08060fc0+      W?base_next$:WCIsvListBase$n.x(pnx$WCSLink$$i)pn$2$
08060fdc       W?base_insert$:WCIsvListBase$n(pn$WCSLink$$)v
08061000+      W?base_index_check$:WCIsvListBase$n.x(i)i
08061038+      W?base_bfind$:WCIsvListBase$n.x(i)pn$WCSLink$$
08061050       W?base_sfind$:WCIsvListBase$n.x(i)pn$WCSLink$$
08061060+      W?base_dfind$:WCIsvListBase$n.x(i)pn$WCDLink$$
080610ac       W?base_sget$:WCIsvListBase$n(i)pn$WCSLink$$
080610e4*      W?base_dget$:WCIsvListBase$n(i)pn$WCDLink$$
0806112c*      W?base_index$:WCIsvListBase$n.x(pnx$WCSLink$$)i
08061174+      W?base_clear$:WCIsvListBase$n()v
08061184       W?base_destroy$:WCIsvListBase$n()v
080611c8       W?$dt:WCIsvListBase$n()_
0806122c       W?base_advance$:WCListIterBase$n(i)pn$WCSLink$$
080612cc*      W?base_retreat$:WCListIterBase$n(i)pn$WCDLink$$
08061370*      W?base_tail_hit$:WCListIterBase$n(pn$WCSLink$$)pn$2$
0806138c*      W?base_tail_unhit$:WCListIterBase$n(pn$WCSLink$$)v
08070690+      W?$Wva0Co0:WCExcept$$nx[]uc
Module: /mnt/sda5/.user/root/src/openwatcom-1.9/rel2/lib386/plbx3r.lib(pure_err.cpp)
080613a0       __wcpp_4_pure_error__
Module: /mnt/sda5/.user/root/src/openwatcom-1.9/rel2/lib386/plbx3r.lib(undefed.cpp)
080613d0       __wcpp_4_undefed_cdtor__
Module: /mnt/sda5/.user/root/src/openwatcom-1.9/rel2/lib386/linux/clib3r.lib(cstart)
080613e2       _cstart_
080613e2*      _start
Module: /mnt/sda5/.user/root/src/openwatcom-1.9/rel2/lib386/linux/clib3r.lib(cmainlnx.c)
08061450       __LinuxMain
08084498       __argc
0808449c+      __argv
Module: /mnt/sda5/.user/root/src/openwatcom-1.9/rel2/lib386/plbx3r.lib(moddtorr.cpp)
0807346e       ___wcpp_4_data_module_dtor_ref_
Module: /mnt/sda5/.user/root/src/openwatcom-1.9/rel2/lib386/plbx3r.lib(fsroot.cpp)
08073456       ___wcpp_4_data_init_fs_root_
Module: /mnt/sda5/.user/root/src/openwatcom-1.9/rel2/lib386/plbx3r.lib(istsgstp.cpp)
080614f0       W?seekg$:istream$:std$n(l)rn$1:2$
Module: /mnt/sda5/.user/root/src/openwatcom-1.9/rel2/lib386/plbx3r.lib(istread.cpp)
08061550       W?read$:istream$:std$n(pnai)rn$1:2$
Module: /mnt/sda5/.user/root/src/openwatcom-1.9/rel2/lib386/linux/clib3r.lib(qsort.c)
08061640       qsort_
Module: /mnt/sda5/.user/root/src/openwatcom-1.9/rel2/lib386/plbx3r.lib(istsgsto.cpp)
08061cf0       W?seekg$:istream$:std$n(li)rn$1:2$
Module: /mnt/sda5/.user/root/src/openwatcom-1.9/rel2/lib386/plbx3r.lib(isttellg.cpp)
08061d40       W?tellg$:istream$:std$n()l
Module: /mnt/sda5/.user/root/src/openwatcom-1.9/rel2/lib386/plbx3r.lib(iosclear.cpp)
08061d70       W?clear$:ios$:std$n(i)i
Module: /mnt/sda5/.user/root/src/openwatcom-1.9/rel2/lib386/plbx3r.lib(ifsconfd.cpp)
08061d90       W?$ct:ifstream$:std$n(i)_
Module: /mnt/sda5/.user/root/src/openwatcom-1.9/rel2/lib386/linux/clib3r.lib(strncmp.c)
08061e50       strncmp_
Module: /mnt/sda5/.user/root/src/openwatcom-1.9/rel2/lib386/plbx3r.lib(ostinulo.cpp)
08061e80       W?$ob:ostream$:std$n(ul)rn$0:1$
Module: /mnt/sda5/.user/root/src/openwatcom-1.9/rel2/lib386/plbx3r.lib(ctorarst.cpp)
080622c0+      W?$ct:_RTDTOR$n()_
08061fb0+      W?$dt:_CTAS$n()_
080622d0+      W?$ct:_CTAS$n()_
08062148*      __wcpp_4_ctor_array_storage_1m__
08062190*      __wcpp_4_ctor_array_storage_1s__
080621d8*      __wcpp_4_ctor_array_storage_2s__
08062220*      __wcpp_4_ctor_array_storage_gm__
08062270       __wcpp_4_ctor_array_storage_gs__
08070720+      W?$Wts09n$_CTAS$$$nx[]uc
08072168+      W?$Wti08$_CTAS$$$n[]uc
Module: /mnt/sda5/.user/root/src/openwatcom-1.9/rel2/lib386/linux/clib3r.lib(lrotl.c)
080622e0       _lrotl_
Module: /mnt/sda5/.user/root/src/openwatcom-1.9/rel2/lib386/plbx3r.lib(ostwrite.cpp)
080622f0       W?write$:ostream$:std$n(pnxai)rn$1:2$
Module: /mnt/sda5/.user/root/src/openwatcom-1.9/rel2/lib386/plbx3r.lib(stabdisp.cpp)
080625cc       __wcpp_4_dispatchable__
Module: /mnt/sda5/.user/root/src/openwatcom-1.9/rel2/lib386/plbx3r.lib(stabmod.cpp)
08062620       __wcpp_4_module_dtor__
0806264c       __wcpp_4_mod_register__
Module: /mnt/sda5/.user/root/src/openwatcom-1.9/rel2/lib386/plbx3r.lib(stabadt.cpp)
08062660+      W?dtor_the_array$n(pn$_RTARCTOR$$)pnv
080626a4       W?$dt:_RTARCTOR$n()_
080626bc       __wcpp_4_dtor_array__
08070750       W?$Wts0Dn$_RTARCTOR$$$nx[]uc
08072178       W?$Wti0C$_RTARCTOR$$$n[]uc
Module: /mnt/sda5/.user/root/src/openwatcom-1.9/rel2/lib386/linux/clib3r.lib(nfree.c)
08062730       _nfree_
08062730       free_
080844a0+      ___MiniHeapFreeRover
Module: /mnt/sda5/.user/root/src/openwatcom-1.9/rel2/lib386/plbx3r.lib(istdestr.cpp)
080707b0       W?$Wvf0Go8:istream$:std$$nx[]pn()v
080707c0       W?$Wvf0Ho1p:istream$:std$$nx[]pn()v
080707d0+      W?$Wts0Gn$istream$:std$$$nx[]uc
08062900       W?$Wvt0V.@dt:istream$:std$c$:0:1$dtn()_$:ios$:std$n()pnv
08062830       W?$dt:istream$:std$n()_
080707f0       W?$Wva0Go0:istream$:std$$nx[]uc
Module: /mnt/sda5/.user/root/src/openwatcom-1.9/rel2/lib386/plbx3r.lib(fsbdestr.cpp)
08070870       W?$Wvf0Lo22:fstreambase$:std$$nx[]pn()v
08070880       W?$Wvf0Lo3j:fstreambase$:std$$nx[]pn()v
08070890+      W?$Wts0Kn$fstreambase$:std$$$nx[]uc
080629f0       W?$Wvt0Z.@dt:fstreambase$:std$c$:0:1$dtn()_$:ios$:std$n()pnv
08062a00       W?.tdtor$:filebuf$:std$n()pnv
08062910       W?$dt:fstreambase$:std$n()_
080708b0       W?$Wva0Ko0:fstreambase$:std$$nx[]uc
Module: /mnt/sda5/.user/root/src/openwatcom-1.9/rel2/lib386/plbx3r.lib(iosdestr.cpp)
08070900       W?$Wvf0Do19:ios$:std$$nx[]pn()v
08070910+      W?$Wts0Cn$ios$:std$$$nx[]uc
08062a10       W?$dt:ios$:std$n()_
08070930       W?$Wva0Co0:ios$:std$$nx[]uc
Module: /mnt/sda5/.user/root/src/openwatcom-1.9/rel2/lib386/plbx3r.lib(ostdestr.cpp)
08070980       W?$Wvf0Go4:ostream$:std$$nx[]pn()v
08070990       W?$Wvf0Ho1l:ostream$:std$$nx[]pn()v
08062b70       W?$Wvt0V.@dt:ostream$:std$c$:0:1$dtn()_$:ios$:std$n()pnv
08062aa0       W?$dt:ostream$:std$n()_
080709a0       W?$Wva0Go0:ostream$:std$$nx[]uc
Module: /mnt/sda5/.user/root/src/openwatcom-1.9/rel2/lib386/plbx3r.lib(exc_pr.cpp)
08062b80       W?$ct:_EXC_PR$n(pn$_RTCTL$$pn$RW_DTREG$$$EXCSTATE$$)_
08062ba8       W?$dt:_EXC_PR$n()_
08062bb8       W?$ct:_EXC_PR_FREE$n(pn$_RTCTL$$pn$RW_DTREG$$$EXCSTATE$$pn$ACTIVE_EXC$$)_
08062bcc       W?$dt:_EXC_PR_FREE$n()_
08062c04       W?$ct:_EXC_PR_DTOR$n(pn$_RTCTL$$pn$RW_DTREG$$$EXCSTATE$$pn$ACTIVE_EXC$$)_
08062c14       W?$ct:_EXC_PR_FNEXC$n(pn$_RTCTL$$pn$RW_DTREG$$pn$2$pn$ACTIVE_EXC$$)_
08062c34       W?$dt:_EXC_PR_FNEXC$n()_
08062c3c       W?$dt:_EXC_PR_DTOR$n()_
Module: /mnt/sda5/.user/root/src/openwatcom-1.9/rel2/lib386/plbx3r.lib(vfun_err.cpp)
08062c60       __wcpp_4_undef_vfun__
Module: /mnt/sda5/.user/root/src/openwatcom-1.9/rel2/lib386/plbx3r.lib(unexpect.cpp)
08062c90       W?unexpected$:std$n()v
Module: /mnt/sda5/.user/root/src/openwatcom-1.9/rel2/lib386/plbx3r.lib(callterm.cpp)
08062d30       __wcpp_4_corrupted_stack__
08062d44       __wcpp_4_call_terminate__
Module: /mnt/sda5/.user/root/src/openwatcom-1.9/rel2/lib386/plbx3r.lib(tsequiv.cpp)
08062d70       __wcpp_4_ts_refed__
08062d88+      __wcpp_4_ts_pnted__
08062dbc       __wcpp_4_ts_equiv__
Module: /mnt/sda5/.user/root/src/openwatcom-1.9/rel2/lib386/plbx3r.lib(stabinit.cpp)
08062ea0       __wcpp_4_exc_setup__
Module: /mnt/sda5/.user/root/src/openwatcom-1.9/rel2/lib386/linux/clib3r.lib(stack386.c)
08062f40       stackavail_
Module: /mnt/sda5/.user/root/src/openwatcom-1.9/rel2/lib386/plbx3r.lib(fatalerr.cpp)
08062f50       __wcpp_4_fatal_runtime_error__
Module: /mnt/sda5/.user/root/src/openwatcom-1.9/rel2/lib386/linux/clib3r.lib(stk)
08062f9d*      __STK
08062fa1*      __CHK
08062f9a       __GRO
08062fba*      __STKOVERFLOW_
Module: /mnt/sda5/.user/root/src/openwatcom-1.9/rel2/lib386/plbx3r.lib(allocexc.cpp)
08063054       __wcpp_4_alloc_exc__
080632a4       __wcpp_4_free_exc__
080632dc       __wcpp_4_find_active__
080632f8       __wcpp_4_dtor_free_exc__
Module: /mnt/sda5/.user/root/src/openwatcom-1.9/rel2/lib386/plbx3r.lib(stabtrav.cpp)
080633c0       __wcpp_4_stab_entry__
080633d8*      __wcpp_4_stab_trav_comp__
080634bc       __wcpp_4_stab_trav_init__
080634e0       __wcpp_4_stab_trav_next__
08063538       __wcpp_4_stab_trav_move__
Module: /mnt/sda5/.user/root/src/openwatcom-1.9/rel2/lib386/plbx3r.lib(ljmpinit.cpp)
0807345c       ___wcpp_4_data_init_longjmp_
Module: /mnt/sda5/.user/root/src/openwatcom-1.9/rel2/lib386/plbx3r.lib(ostopfx.cpp)
08063560       W?do_opfx$:ostream$:std$n()i
Module: /mnt/sda5/.user/root/src/openwatcom-1.9/rel2/lib386/plbx3r.lib(iossetst.cpp)
08063600+      W?$ct:failure$:ios$:std$n(rnx$0:1:2$)_
08063610+      W?$dt:failure$:ios$:std$n()_
08070a10+      W?$Wth0Nnrn$failure$:ios$:std$$$nx[]uc
08070a30+      W?$Wts0Ln$failure$:ios$:std$$$nx[]uc
080635d0       W?setstate$:ios$:std$n(i)v
0807218c+      W?$Wti0K$failure$:ios$:std$$$n[]uc
Module: /mnt/sda5/.user/root/src/openwatcom-1.9/rel2/lib386/linux/clib3r.lib(iobaddr.c)
08063620       __get_std_stream_
08063620*      __get_std_file_
Module: /mnt/sda5/.user/root/src/openwatcom-1.9/rel2/lib386/plbx3r.lib(sdfconfp.cpp)
08070a48       W?$Wvf0Do19:stdiobuf$$nx[]pn()v
080721a8       W?$Wti0H$streambuf$:std$$$n[]uc
08063640       W?$ct:stdiobuf$n(pn$__iobuf$$)_
08070a78       W?$Wva0Co0:stdiobuf$$nx[]uc
Module: /mnt/sda5/.user/root/src/openwatcom-1.9/rel2/lib386/plbx3r.lib(ostconsf.cpp)
08070ab0       W?$Wvb0Go0:ostream$:std$$nx[]ui
08063650       W?$ct:ostream$:std$n(pn$streambuf$:1$)_
Module: /mnt/sda5/.user/root/src/openwatcom-1.9/rel2/lib386/plbx3r.lib(sdfdestr.cpp)
080637b0       W?.tdtor$:streambuf$:std$n()pnv
080636e0       W?$dt:stdiobuf$n()_
Module: /mnt/sda5/.user/root/src/openwatcom-1.9/rel2/lib386/plbx3r.lib(iouwrtit.cpp)
080637c0       W?writeitem$:__WATCOM_ios$n(rn$ostream$:std$$pnxaii)i
Module: /mnt/sda5/.user/root/src/openwatcom-1.9/rel2/lib386/linux/clib3r.lib(nmalloc.c)
08063b10       _nmalloc_
08063b10       malloc_
080721c0       ___nheapbeg
080721c4       ___MiniHeapRover
080721c8       ___LargestSizeB4MiniHeapRover
Module: /mnt/sda5/.user/root/src/openwatcom-1.9/rel2/lib386/plbx3r.lib(flfclose.cpp)
08063c00       W?close$:filebuf$:std$n()pn$1:2$
Module: /mnt/sda5/.user/root/src/openwatcom-1.9/rel2/lib386/linux/clib3r.lib(ljmphdl.c)
080721cc       ___longjmp_handler
Module: /mnt/sda5/.user/root/src/openwatcom-1.9/rel2/lib386/plbx3r.lib(fsbconnm.cpp)
08070b2c       W?$Wvb0Ko0:fstreambase$:std$$nx[]ui
08063c50       W?$ct:fstreambase$:std$n(pnxaii)_
Module: /mnt/sda5/.user/root/src/openwatcom-1.9/rel2/lib386/plbx3r.lib(istconde.cpp)
08070b34+      W?$Wvb0Go0:istream$:std$$nx[]ui
08063d40       W?$ct:istream$:std$n()_
Module: /mnt/sda5/.user/root/src/openwatcom-1.9/rel2/lib386/plbx3r.lib(iosconde.cpp)
08063d90       W?$ct:ios$:std$n()_
Module: /mnt/sda5/.user/root/src/openwatcom-1.9/rel2/lib386/plbx3r.lib(ostput.cpp)
08063da0       W?put$:ostream$:std$n(a)rn$1:2$
Module: /mnt/sda5/.user/root/src/openwatcom-1.9/rel2/lib386/linux/clib3r.lib(tmpdir.c)
08063e50       __tmpdir_
Module: /mnt/sda5/.user/root/src/openwatcom-1.9/rel2/lib386/linux/clib3r.lib(getpid.c)
08063e70       getpid_
Module: /mnt/sda5/.user/root/src/openwatcom-1.9/rel2/lib386/linux/clib3r.lib(access.c)
08063ea0       access_
Module: /mnt/sda5/.user/root/src/openwatcom-1.9/rel2/lib386/linux/clib3r.lib(seterrno.c)
08063ecc       __set_errno_
08063ed8*      __set_EDOM_
08063ee4*      __set_ERANGE_
08063ef0*      __set_EINVAL_
Module: /mnt/sda5/.user/root/src/openwatcom-1.9/rel2/lib386/plbx3r.lib(ostconde.cpp)
08063f10       W?$ct:ostream$:std$n()_
Module: /mnt/sda5/.user/root/src/openwatcom-1.9/rel2/lib386/linux/clib3r.lib(unlink.c)
08063f50       unlink_
Module: /mnt/sda5/.user/root/src/openwatcom-1.9/rel2/lib386/linux/clib3r.lib(strncpy.c)
08063f80       strncpy_
Module: /mnt/sda5/.user/root/src/openwatcom-1.9/rel2/lib386/linux/clib3r.lib(initrtns.c)
08063fd0       __InitRtns
08064020       __FiniRtns
Module: /mnt/sda5/.user/root/src/openwatcom-1.9/rel2/lib386/linux/clib3r.lib(mainlnx.c)
080721d0+      ___FirstThreadData
080721d4+      ___GetThreadPtr
080721d8*      __AccessFileH
080721dc*      __ReleaseFileH
080721e0*      __AccessIOB
080721e4*      __ReleaseIOB
080721e8*      __AccessNHeap
080721ec*      __AccessFHeap
080721f0*      __ReleaseNHeap
080721f4*      __ReleaseFHeap
08064080*      __threadid_
080640b0*      __LinuxInit_
080640c0       __exit_
080721f8*      __AccessTDList
080721fc*      __ReleaseTDList
Module: /mnt/sda5/.user/root/src/openwatcom-1.9/rel2/lib386/linux/clib3r.lib(__stos)
080640e0       __STOSB
08064117*      __STOSD
Module: /mnt/sda5/.user/root/src/openwatcom-1.9/rel2/lib386/plbx3r.lib(prwdata.cpp)
080844a4       __wint_pure_error_flag
080844a6       __wint_undef_vfun_flag
080844a8       __wint_module_init
Module: /mnt/sda5/.user/root/src/openwatcom-1.9/rel2/lib386/linux/clib3r.lib(segdefns)
08048103       ___begtext
08067000*      __nullarea
08073438       __Start_XI
0807346e       __End_XI
0807346e       __Start_YI
0807347a       __End_YI
Module: /mnt/sda5/.user/root/src/openwatcom-1.9/rel2/lib386/linux/clib3r.lib(crwdata)
08072208*      __LpCmdLine
0807220c       __LpPgmName
08072200*      __dynend
08072204       __curbrk
08072210       __STACKLOW
08072214       __STACKTOP
08072218       __ASTACKSIZ
0807221c       __ASTACKPTR
08072220*      __cbyte
08072224*      __cbyte2
08072228*      __child
0807222e*      __Envptr
08072232*      __Envseg
0807222c*      __no87
08072234*      ___FPE_handler
Module: /mnt/sda5/.user/root/src/openwatcom-1.9/rel2/lib386/linux/clib3r.lib(sbrklnx.c)
080641a0       sbrk_
080641b0       __brk_
080641e0*      brk_
Module: /mnt/sda5/.user/root/src/openwatcom-1.9/rel2/lib386/linux/clib3r.lib(environ.c)
080844ac       ___env_mask
080844b0       _environ
080844b4*      __wenviron
Module: /mnt/sda5/.user/root/src/openwatcom-1.9/rel2/lib386/linux/clib3r.lib(amblksiz.c)
08072238       __amblksiz
Module: /mnt/sda5/.user/root/src/openwatcom-1.9/rel2/lib386/plbx3r.lib(istipfx.cpp)
08064210       W?ipfx$:istream$:std$n(i)i
Module: /mnt/sda5/.user/root/src/openwatcom-1.9/rel2/lib386/plbx3r.lib(stfdsgtn.cpp)
08064250       W?do_sgetn$:streambuf$:std$n(pnai)i
Module: /mnt/sda5/.user/root/src/openwatcom-1.9/rel2/lib386/plbx3r.lib(istdipfx.cpp)
080642d0       W?do_ipfx$:istream$:std$n(i)i
Module: /mnt/sda5/.user/root/src/openwatcom-1.9/rel2/lib386/plbx3r.lib(istdread.cpp)
08064360       W?do_read$:istream$:std$n(pnai)rn$1:2$
Module: /mnt/sda5/.user/root/src/openwatcom-1.9/rel2/lib386/plbx3r.lib(fsbconfd.cpp)
08064410       W?$ct:fstreambase$:std$n(i)_
Module: /mnt/sda5/.user/root/src/openwatcom-1.9/rel2/lib386/plbx3r.lib(ioufgtba.cpp)
080644f0       W?__FlagsToBase$n(l)i
Module: /mnt/sda5/.user/root/src/openwatcom-1.9/rel2/lib386/plbx3r.lib(ostadpre.cpp)
08064520       W?__AddPrefix$n(apnarniil)v
Module: /mnt/sda5/.user/root/src/openwatcom-1.9/rel2/lib386/linux/clib3r.lib(ltoa.c)
08064580       ultoa_
080645d0*      ltoa_
Module: /mnt/sda5/.user/root/src/openwatcom-1.9/rel2/lib386/linux/clib3r.lib(strupr.c)
08064600       strupr_
Module: /mnt/sda5/.user/root/src/openwatcom-1.9/rel2/lib386/plbx3r.lib(tssize.cpp)
08064644       __wcpp_4_ts_size__
Module: /mnt/sda5/.user/root/src/openwatcom-1.9/rel2/lib386/plbx3r.lib(stabactv.cpp)
08064680       __wcpp_4_ctor_varray__
Module: /mnt/sda5/.user/root/src/openwatcom-1.9/rel2/lib386/plbx3r.lib(stabact.cpp)
08064720       __wcpp_4_ctor_array__
Module: /mnt/sda5/.user/root/src/openwatcom-1.9/rel2/lib386/plbx3r.lib(stfdspun.cpp)
080647b0       W?do_sputn$:streambuf$:std$n(pnxai)i
Module: /mnt/sda5/.user/root/src/openwatcom-1.9/rel2/lib386/linux/clib3r.lib(mem.c)
08064850       __MemAllocator
08064900       __MemFree
Module: /mnt/sda5/.user/root/src/openwatcom-1.9/rel2/lib386/plbx3r.lib(flfdestr.cpp)
08070bd0       W?$Wvf0Ho19:filebuf$:std$$nx[]pn()v
08070c00+      W?$Wts0Gn$filebuf$:std$$$nx[]uc
08064a40       W?$dt:filebuf$:std$n()_
08070c20       W?$Wva0Go0:filebuf$:std$$nx[]uc
0807223c       W?$Wti0F$filebuf$:std$$$n[]uc
Module: /mnt/sda5/.user/root/src/openwatcom-1.9/rel2/lib386/plbx3r.lib(ioufrxal.cpp)
08064b10       W?free_xalloc_storage$:__WATCOM_ios$n(pn$ios$:std$$)v
Module: /mnt/sda5/.user/root/src/openwatcom-1.9/rel2/lib386/plbx3r.lib(termnate.cpp)
08064b30       W?terminate$:std$n()v
Module: /mnt/sda5/.user/root/src/openwatcom-1.9/rel2/lib386/linux/clib3r.lib(_strcmp)
08064b60       strcmp_
Module: /mnt/sda5/.user/root/src/openwatcom-1.9/rel2/lib386/linux/clib3r.lib(enterdb.c)
08064ca0       __EnterWVIDEO_
08072250+      ___WD_Present
Module: /mnt/sda5/.user/root/src/openwatcom-1.9/rel2/lib386/linux/clib3r.lib(xmsglnx.c)
08064cd0       __exit_with_msg_
08064d20       __fatal_runtime_error_
Module: /mnt/sda5/.user/root/src/openwatcom-1.9/rel2/lib386/plbx3r.lib(areaexc.cpp)
08072254       ___EXC_AREA
Module: /mnt/sda5/.user/root/src/openwatcom-1.9/rel2/lib386/plbx3r.lib(bittest.cpp)
08064d40       __wcpp_4_bit_test__
08064d60       __wcpp_4_bit_off__
Module: /mnt/sda5/.user/root/src/openwatcom-1.9/rel2/lib386/plbx3r.lib(ljmpdtor.cpp)
08064de8       __wcpp_4_lj_handler__
Module: /mnt/sda5/.user/root/src/openwatcom-1.9/rel2/lib386/linux/clib3r.lib(flush.c)
08064df0       __flush_
Module: /mnt/sda5/.user/root/src/openwatcom-1.9/rel2/lib386/plbx3r.lib(iosfail.cpp)
08064ec0       W?$ct:failure$:ios$:std$n(i)_
Module: /mnt/sda5/.user/root/src/openwatcom-1.9/rel2/lib386/linux/clib3r.lib(iob.c)
08073270       ___iob
080844b8       ___OpenStreams
080844bc       ___ClosedStreams
Module: /mnt/sda5/.user/root/src/openwatcom-1.9/rel2/lib386/plbx3r.lib(stfpbfai.cpp)
08064ed0       W?pbackfail$:streambuf$:std$n(i)i
Module: /mnt/sda5/.user/root/src/openwatcom-1.9/rel2/lib386/plbx3r.lib(sdfoverf.cpp)
08064ee0       W?overflow$:stdiobuf$n(i)i
Module: /mnt/sda5/.user/root/src/openwatcom-1.9/rel2/lib386/plbx3r.lib(sdfundrf.cpp)
08065040       W?underflow$:stdiobuf$n()i
Module: /mnt/sda5/.user/root/src/openwatcom-1.9/rel2/lib386/plbx3r.lib(stfsbuf.cpp)
08065160       W?setbuf$:streambuf$:std$n(pnai)pn$1:2$
Module: /mnt/sda5/.user/root/src/openwatcom-1.9/rel2/lib386/plbx3r.lib(stfseekp.cpp)
080651b0       W?seekpos$:streambuf$:std$n(li)l
Module: /mnt/sda5/.user/root/src/openwatcom-1.9/rel2/lib386/plbx3r.lib(sdfsync.cpp)
080651c0       W?sync$:stdiobuf$n()i
Module: /mnt/sda5/.user/root/src/openwatcom-1.9/rel2/lib386/plbx3r.lib(stfdoall.cpp)
080651f0       W?doallocate$:streambuf$:std$n()i
Module: /mnt/sda5/.user/root/src/openwatcom-1.9/rel2/lib386/plbx3r.lib(stfconde.cpp)
08070c3c       W?$Wvf0Jo19:streambuf$:std$$nx[]pn()v
08065230       W?$ct:streambuf$:std$n()_
08070c6c       W?$Wva0Io0:streambuf$:std$$nx[]uc
Module: /mnt/sda5/.user/root/src/openwatcom-1.9/rel2/lib386/plbx3r.lib(iosinit.cpp)
08065280       W?init$:ios$:std$n(pn$streambuf$:2$)v
Module: /mnt/sda5/.user/root/src/openwatcom-1.9/rel2/lib386/plbx3r.lib(stfdestr.cpp)
080652d0       W?$dt:streambuf$:std$n()_
Module: /mnt/sda5/.user/root/src/openwatcom-1.9/rel2/lib386/linux/clib3r.lib(nmemneed.c)
080652f0       __nmemneed_
Module: /mnt/sda5/.user/root/src/openwatcom-1.9/rel2/lib386/linux/clib3r.lib(grownear.c)
08065380+      __LastFree_
08065400       __ExpandDGROUP_
Module: /mnt/sda5/.user/root/src/openwatcom-1.9/rel2/lib386/linux/clib3r.lib(close.c)
08065500       close_
Module: /mnt/sda5/.user/root/src/openwatcom-1.9/rel2/lib386/plbx3r.lib(flfconde.cpp)
08065530       W?$ct:filebuf$:std$n()_
Module: /mnt/sda5/.user/root/src/openwatcom-1.9/rel2/lib386/plbx3r.lib(flfopen.cpp)
08065550       W?open$:filebuf$:std$n(pnxaii)pn$1:2$
Module: /mnt/sda5/.user/root/src/openwatcom-1.9/rel2/lib386/linux/clib3r.lib(getenv.c)
080655f0       getenv_
Module: /mnt/sda5/.user/root/src/openwatcom-1.9/rel2/lib386/linux/clib3r.lib(mthrdini.c)
08065650       __InitThreadData_
08073430*      ___ThreadDataSize
Module: /mnt/sda5/.user/root/src/openwatcom-1.9/rel2/lib386/linux/clib3r.lib(sys_exit.c)
08065660       sys_exit_
Module: /mnt/sda5/.user/root/src/openwatcom-1.9/rel2/lib386/linux/clib3r.lib(dosseg)
00001234       __DOSseg__
Module: /mnt/sda5/.user/root/src/openwatcom-1.9/rel2/lib386/linux/clib3r.lib(sys_brk.c)
08065670       sys_brk_
Module: /mnt/sda5/.user/root/src/openwatcom-1.9/rel2/lib386/linux/clib3r.lib(setenvp.c)
08065690       __setenvp_
Module: /mnt/sda5/.user/root/src/openwatcom-1.9/rel2/lib386/plbx3r.lib(manws.cpp)
08065700       W?ws$:std$n(rn$istream$:1$)rn$2:1$
Module: /mnt/sda5/.user/root/src/openwatcom-1.9/rel2/lib386/plbx3r.lib(flfattac.cpp)
08065730       W?attach$:filebuf$:std$n(i)pn$1:2$
Module: /mnt/sda5/.user/root/src/openwatcom-1.9/rel2/lib386/linux/clib3r.lib(alphabet.c)
08067428       ___Alphabet
Module: /mnt/sda5/.user/root/src/openwatcom-1.9/rel2/lib386/plbx3r.lib(flfpbfai.cpp)
08065770       W?pbackfail$:filebuf$:std$n(i)i
Module: /mnt/sda5/.user/root/src/openwatcom-1.9/rel2/lib386/plbx3r.lib(flfoverf.cpp)
08065830       W?overflow$:filebuf$:std$n(i)i
Module: /mnt/sda5/.user/root/src/openwatcom-1.9/rel2/lib386/plbx3r.lib(flfundrf.cpp)
08065a50       W?underflow$:filebuf$:std$n()i
Module: /mnt/sda5/.user/root/src/openwatcom-1.9/rel2/lib386/plbx3r.lib(flfsetbf.cpp)
08065b60       W?setbuf$:filebuf$:std$n(pnai)pn$streambuf$:2$
Module: /mnt/sda5/.user/root/src/openwatcom-1.9/rel2/lib386/plbx3r.lib(flfseeko.cpp)
08065bc0       W?seekoff$:filebuf$:std$n(lii)l
Module: /mnt/sda5/.user/root/src/openwatcom-1.9/rel2/lib386/plbx3r.lib(flfsync.cpp)
08065c10       W?sync$:filebuf$:std$n()i
Module: /mnt/sda5/.user/root/src/openwatcom-1.9/rel2/lib386/linux/clib3r.lib(liballoc.c)
08065cb0       _plib_malloc_
08065cc0       _plib_free_
Module: /mnt/sda5/.user/root/src/openwatcom-1.9/rel2/lib386/linux/clib3r.lib(write.c)
08065cd0       write_
Module: /mnt/sda5/.user/root/src/openwatcom-1.9/rel2/lib386/linux/clib3r.lib(__lseek.c)
08065d00       __lseek_
Module: /mnt/sda5/.user/root/src/openwatcom-1.9/rel2/lib386/linux/clib3r.lib(qwritunx.c)
08065d30       __qwrite_
Module: /mnt/sda5/.user/root/src/openwatcom-1.9/rel2/lib386/linux/clib3r.lib(fsync.c)
08065d80       fsync_
Module: /mnt/sda5/.user/root/src/openwatcom-1.9/rel2/lib386/linux/clib3r.lib(initfile.c)
08065de0       __InitFiles_
Module: /mnt/sda5/.user/root/src/openwatcom-1.9/rel2/lib386/linux/clib3r.lib(ioexit.c)
08065ee0*      fcloseall_
08065ef0       __full_io_exit_
Module: /mnt/sda5/.user/root/src/openwatcom-1.9/rel2/lib386/linux/clib3r.lib(fwrite.c)
08065f00       fwrite_
Module: /mnt/sda5/.user/root/src/openwatcom-1.9/rel2/lib386/linux/clib3r.lib(memmove.c)
08066040       memmove_
Module: /mnt/sda5/.user/root/src/openwatcom-1.9/rel2/lib386/linux/clib3r.lib(fgetc.c)
080660a0+      __fill_buffer_
08066150       fgetc_
Module: /mnt/sda5/.user/root/src/openwatcom-1.9/rel2/lib386/plbx3r.lib(stfsetb.cpp)
080661c0       W?setb$:streambuf$:std$n(pnapnai)v
Module: /mnt/sda5/.user/root/src/openwatcom-1.9/rel2/lib386/linux/clib3r.lib(heapen.c)
08066220*      _heapenable_
08073434       ___heap_enabled
Module: /mnt/sda5/.user/root/src/openwatcom-1.9/rel2/lib386/linux/clib3r.lib(plusopen.c)
08066230       __plusplus_open_
Module: /mnt/sda5/.user/root/src/openwatcom-1.9/rel2/lib386/plbx3r.lib(istpeek.cpp)
080662f0       W?peek$:istream$:std$n()i
Module: /mnt/sda5/.user/root/src/openwatcom-1.9/rel2/lib386/linux/clib3r.lib(isspace.c)
08066350       isspace_
Module: /mnt/sda5/.user/root/src/openwatcom-1.9/rel2/lib386/plbx3r.lib(istget.cpp)
08066360       W?get$:istream$:std$n()i
Module: /mnt/sda5/.user/root/src/openwatcom-1.9/rel2/lib386/linux/clib3r.lib(plusfsta.c)
080663e0       __plusplus_fstat_
Module: /mnt/sda5/.user/root/src/openwatcom-1.9/rel2/lib386/linux/clib3r.lib(lseek.c)
08066430       lseek_
Module: /mnt/sda5/.user/root/src/openwatcom-1.9/rel2/lib386/linux/clib3r.lib(tell.c)
08066440       tell_
Module: /mnt/sda5/.user/root/src/openwatcom-1.9/rel2/lib386/linux/clib3r.lib(read.c)
08066460       read_
Module: /mnt/sda5/.user/root/src/openwatcom-1.9/rel2/lib386/linux/clib3r.lib(fclose.c)
08066490+      __doclose_
08066500       __shutdown_stream_
08066520*      fclose_
Module: /mnt/sda5/.user/root/src/openwatcom-1.9/rel2/lib386/linux/clib3r.lib(freefp.c)
08066550       __freefp_
08066590       __purgefp_
Module: /mnt/sda5/.user/root/src/openwatcom-1.9/rel2/lib386/linux/clib3r.lib(ioalloc.c)
080665c0       __ioalloc_
Module: /mnt/sda5/.user/root/src/openwatcom-1.9/rel2/lib386/linux/clib3r.lib(flushall.c)
08066660       __flushall_
080666a0*      flushall_
Module: /mnt/sda5/.user/root/src/openwatcom-1.9/rel2/lib386/linux/clib3r.lib(qreadunx.c)
080666b0       __qread_
Module: /mnt/sda5/.user/root/src/openwatcom-1.9/rel2/lib386/linux/clib3r.lib(stat.c)
08066700       stat_
Module: /mnt/sda5/.user/root/src/openwatcom-1.9/rel2/lib386/linux/clib3r.lib(openlnx.c)
08066730*      open_
08066750       sopen_
Module: /mnt/sda5/.user/root/src/openwatcom-1.9/rel2/lib386/linux/clib3r.lib(istable.c)
08066770       __IsTable
Module: /mnt/sda5/.user/root/src/openwatcom-1.9/rel2/lib386/linux/clib3r.lib(fcntl.c)
08066880       fcntl_
Module: /mnt/sda5/.user/root/src/openwatcom-1.9/rel2/lib386/linux/clib3r.lib(chktty.c)
080668c0       __chktty_
Module: /mnt/sda5/.user/root/src/openwatcom-1.9/rel2/lib386/linux/clib3r.lib(sys_open.c)
080668f0       sys_open_
Module: /mnt/sda5/.user/root/src/openwatcom-1.9/rel2/lib386/linux/clib3r.lib(isattlnx.c)
08066920       isatty_
Module: /mnt/sda5/.user/root/src/openwatcom-1.9/rel2/lib386/linux/clib3r.lib(tcgattr.c)
08066960       tcgetattr_
Module: /mnt/sda5/.user/root/src/openwatcom-1.9/rel2/lib386/linux/clib3r.lib(ioctl.c)
08066970       ioctl_
Module: /mnt/sda5/.user/root/src/openwatcom-1.9/rel2/lib386/plbx3r.lib(stfseeko.cpp)
080669b0       W?seekoff$:streambuf$:std$n(lii)l
Module: /mnt/sda5/.user/root/src/openwatcom-1.9/rel2/lib386/plbx3r.lib(stfsync.cpp)
080669c0       W?sync$:streambuf$:std$n()i


                        +--------------------+
                        |   Libraries Used   |
                        +--------------------+

/mnt/sda5/.user/root/src/openwatcom-1.9/rel2/lib386/linux/clib3r.lib
/mnt/sda5/.user/root/src/openwatcom-1.9/rel2/lib386/plbx3r.lib


                        +-----------------------+
                        |   Linker Statistics   |
                        +-----------------------+

Stack size:  1000 (4096.)
Memory size:  0003bdb5 (245173.)
Entry point address: 080613e2
Link time: 00:00.00
