Open Watcom Linker Version 1.9
Portions Copyright (c) 1985-2002 Sybase, Inc. All Rights Reserved.
Created on:       12/12/16 02:41:38
Executable Image: rfx.exe
creating a DOS executable


                        +------------+
                        |   Groups   |
                        +------------+

Group                           Address              Size
=====                           =======              ====

DGROUP                          0a7b:0000            00003000



                        +--------------+
                        |   Segments   |
                        +--------------+

Segment                Class          Group          Address         Size
=======                =====          =====          =======         ====

rfx_TEXT               CODE           AUTO           0000:0000       00002d49
rfxacc_TEXT            CODE           AUTO           0000:2d50       00000a93
stubs_TEXT             CODE           AUTO           0000:37f0       00000001
remmisc_TEXT           CODE           AUTO           0000:3800       00000230
remfile_TEXT           CODE           AUTO           0000:3a30       00000820
remenv_TEXT            CODE           AUTO           0000:4250       0000019f
doserr_TEXT            CODE           AUTO           0000:43f0       00000034
dbgfile_TEXT           CODE           AUTO           0000:4430       00000a11
localdos_TEXT          CODE           AUTO           0000:4e50       00000272
trpsupp_TEXT           CODE           AUTO           0000:50d0       000003f5
trpld_TEXT             CODE           AUTO           0000:54d0       000002f3
dosfilio_TEXT          CODE           AUTO           0000:57d0       0000017d
_TEXT                  CODE           AUTO           0000:5950       00004e5c
FAR_DATA               FAR_DATA       AUTO           0a7a:000c       00000000
_NULL                  BEGDATA        DGROUP         0a7b:0000       00000020
_AFTERNULL             BEGDATA        DGROUP         0a7d:0000       00000002
CONST                  DATA           DGROUP         0a7d:0002       0000081c
CONST2                 DATA           DGROUP         0afe:000e       00000008
_DATA                  DATA           DGROUP         0b00:0000       0000093e
XIB                    DATA           DGROUP         0b93:000e       00000000
XI                     DATA           DGROUP         0b93:000e       00000024
XIE                    DATA           DGROUP         0b96:0002       00000000
YIB                    DATA           DGROUP         0b96:0002       00000000
YI                     DATA           DGROUP         0b96:0002       00000018
YIE                    DATA           DGROUP         0b97:000a       00000000
STRINGS                DATA           DGROUP         0b97:000a       00000000
DATA                   DATA           DGROUP         0b97:000a       00000000
_BSS                   BSS            DGROUP         0b98:0000       00001624
STACK                  STACK          DGROUP         0cfb:0000       00000800


                        +----------------+
                        |   Memory Map   |
                        +----------------+

* = unreferenced symbol
+ = symbol only referenced locally

Address        Symbol
=======        ======

Module: rfx.obj(/mnt/sda5/.user/root/src/openwatcom-1.9/bld/wv/rfx/rfx.c)
0a7b:11d0*     _SysConfig
0a7b:11d8+     _Buff
0a7b:22f8+     _CopySpecs
0a7b:22fc+     _Info
0a7b:2328*     _TrpFile
0a7b:232c+     _TxtBuff
0a7b:2330      _DbgSwitches
0a7b:0850*     __Literal_No_Mem_4_Path
0a7b:0863*     _NullStr
0a7b:0864+     _MaxOnLine
0a7b:0866+     _Typing
0a7b:0868+     _ErrorStatus
0a7b:086a+     _DefaultLocation
0a7b:086c+     _HelpText
0a7b:0df0*     _ErrMessages
0000:0042      StrCopy_
0000:00f8      StartupErr_
0000:0126      GrabHandlers_
0000:0126      RestoreHandlers_
0000:0128+     WriteNL_
0000:013e+     CheckError_
0000:0168*     FreeRing_
0000:0192*     DbgAlloc_
0000:0198*     DbgFree_
0000:019e+     WriteBoth_
0000:01dc*     TransSetErr_
0000:01e2*     SysSetErr_
0000:01f4+     MyStrDup_
0000:0248+     Copy_
0000:026e+     Fill_
0000:0286+     CopyStr_
0000:02a0+     DItoD_
0000:02fc+     ItoD_
0000:0322*     GetDrv_
0000:0338+     SetDrv_
0000:0378*     RemoveDir_
0000:0388*     SetDir_
0000:0398*     GetDir_
0000:03a8*     Erase_
0000:03be*     MakeDir_
0000:03ce*     GetAttrs_
0000:03de+     IsDevice_
0000:041e*     FindFirst_
0000:0444+     FindNext_
0000:046c+     Rename_
0000:0488*     FreeSpace_
0000:049c+     SameDate_
0000:0538+     Prompt_
0000:08fe      main_
0000:09e6+     Option_
0000:0a12+     CopyCmd_
0000:0a32+     ProcessCmd_
0000:0abc+     ProcessArgv_
0000:0df6+     Renamef_
0000:0fd4+     ProcRename_
0000:109a+     AddCopySpec_
0000:1108+     FreeCopySpec_
0000:11d8+     WrtCopy_
0000:1304+     FiniCopy_
0000:1360+     DoCopy_
0000:14e0+     RRecurse_
0000:16b0+     CopyASpec_
0000:199a+     ProcCopy_
0000:1c20+     ProcType_
0000:1c6a+     DirOpenf_
0000:1e1a+     DirReadf_
0000:1e70      Format_
0000:2016+     GetFreeSpace_
0000:204e+     ProcDir_
0000:228c+     ProcCD_
0000:2446+     ProcMakeDir_
0000:2476+     Scratchf_
0000:2546+     BuildDFSList_
0000:25e8+     ProcErase_
0000:270c+     ProcDelDir_
0000:2830+     ProcDrive_
0000:28b4+     CopyMax_
0000:28e4+     _FileParse_
0000:2a94+     CopyStrMax_
0000:2ae6+     Replace_
0000:2b5e+     FinishName_
0000:2cc4+     Squish_
0000:2d1e      TrapClientString_
Module: rfxacc.obj(/mnt/sda5/.user/root/src/openwatcom-1.9/bld/wv/rfx/rfxacc.c)
0000:2d50      InitRFXSupp_
0000:2d70      RemoteRename_
0000:2e08      RemoteMkDir_
0000:2e86      RemoteRmDir_
0000:2f04      RemoteSetDrv_
0000:2f6e      RemoteGetDrv_
0000:2fc8      RemoteSetCWD_
0000:3046      RemoteGetFileAttr_
0000:30dc*     RemoteSetFileAttr_
0000:315c      RemoteGetFreeSpace_
0000:3472      RemoteDateTime_
0000:354e      RemoteGetCwd_
0000:35c0      RemoteFindFirst_
0000:3650      RemoteFindNext_
0000:36c6*     RemoteFindClose_
0000:3732*     RenameNameToCannonical_
0a7b:2450+     _SuppRFXId
Module: stubs.obj(/mnt/sda5/.user/root/src/openwatcom-1.9/bld/wv/rfx/stubs.c)
0000:37f0*     InvalidateTblCache_
0000:37f0*     CheckForNewThreads_
0000:37f0*     SetNilAddr_
0000:37f0*     IndirectSeg_
0000:37f0*     RemapSection_
0000:37f0*     GetRealSeg_
0000:37f0*     SetupCall_
0000:37f0*     FreeThreads_
0000:37f0*     AddThread_
0000:37f0*     WndUser_
0000:37f0*     SectLoad_
0000:37f0*     SameAddrSpace_
0a7b:2454*     _OvlSize
0a7b:2456      _CheckSize
0a7b:2458*     _DbgRegs
0a7b:245a*     _TaskId
Module: remmisc.obj(/mnt/sda5/.user/root/src/openwatcom-1.9/bld/wv/c/remmisc.c)
0a7b:245c      _MaxPacketLen
0000:3800      InitTrap_
0000:390e      GetSuppId_
0000:3984*     RemoteSuspend_
0000:39ac*     RemoteResume_
0000:39d4      RemoteErrMsg_
0000:39fa      FiniTrap_
Module: remfile.obj(/mnt/sda5/.user/root/src/openwatcom-1.9/bld/wv/c/remfile.c)
0000:3a30+     GetCachedHandle_
0000:3a6c+     InitHandleCache_
0000:3a8e+     AddCachedHandle_
0000:3acc+     DelCachedHandle_
0000:3b0a      InitFileSupp_
0000:3b64      HaveRemoteFiles_
0000:3b76      RemoteStringToFullName_
0000:3c84      RemoteOpen_
0000:3e2c*     MaxRemoteWriteSize_
0000:3e9a      RemoteWrite_
0000:3ec4      RemoteWriteConsole_
0000:3f74*     MaxRemoteReadSize_
0000:3f7c      RemoteRead_
0000:400e      RemoteSeek_
0000:40bc      RemoteClose_
0000:4136      RemoteErase_
0000:41c6*     RemoteFork_
0a7b:24c4      _RemFile
Module: remenv.obj(/mnt/sda5/.user/root/src/openwatcom-1.9/bld/wv/c/remenv.c)
0000:4250*     InitEnvSupp_
0000:4270*     RemoteSetEnvironmentVariable_
0000:432c*     RemoteGetEnvironmentVariable_
Module: doserr.obj(/mnt/sda5/.user/root/src/openwatcom-1.9/bld/wv/rfx/doserr.c)
0000:43f0      GetDOSErrMsg_
0a7b:0ee0+     _DosErrMsgs
Module: dbgfile.obj(/mnt/sda5/.user/root/src/openwatcom-1.9/bld/wv/c/dbgfile.c)
0000:4430      RealFName_
0000:44ae+     FileLoc_
0000:4558      ReadStream_
0000:4558*     ReadText_
0000:4592      WriteStream_
0000:45cc      WriteText_
0000:460c+     SeekStream_
0000:4652      FileOpen_
0000:4702      FileClose_
0000:4740      FileRemove_
0000:476e*     WriteToPgmScreen_
0000:4774*     FileHandleInfo_
0000:4780      SysErrMsg_
0000:47d0      StashErrCode_
0000:481c      GetLastErr_
0000:4822      GetSystemErrCode_
0000:4840      GetSystemHandle_
0000:4856*     IsAbsolutePath_
0000:48b8*     AppendPathDelim_
0000:4928*     SkipPathInfo_
0000:4972+     ExtPointer_
0000:49d4*     MakeFileName_
0000:4b0c      LclStringToFullName_
0000:4d36*     FullPathOpen_
0000:4d4e*     LocalFullPathOpen_
0000:4dc6      PathOpen_
0000:4ddc*     LocalPathOpen_
0000:4df2      SysFileInit_
0000:4e40      PathInit_
Module: localdos.obj(/mnt/sda5/.user/root/src/openwatcom-1.9/bld/wv/rfx/dosi86/localdos.c)
0000:4e66      LocalTime_
0000:4e92      LocalDate_
0000:4eca      LocalInteractive_
0000:4eec      LocalGetBuff_
0000:4f78      LocalRename_
0000:4f90      LocalMkDir_
0000:4fa2      LocalRmDir_
0000:4fb4      LocalSetDrv_
0000:4fc0      LocalGetDrv_
0000:4fc8      LocalSetCWD_
0000:4fda      LocalGetFileAttr_
0000:4ffc      LocalGetFreeSpace_
0000:500c      LocalDateTime_
0000:5054      LocalGetCwd_
0000:5068      LocalFindFirst_
0000:5092      LocalFindNext_
0000:50a6      LocalSetFileAttr_
Module: trpsupp.obj(/mnt/sda5/.user/root/src/openwatcom-1.9/bld/dig/c/trpsupp.c)
0000:50d0*     TrapSetFailCallBack_
0000:50da*     TrapSetAccessCallBack_
0000:50e4*     TrapFailAllRequests_
0000:50f0      TrapSimpAccess_
0000:515a      TrapAccess_
0000:5494+     ReqFuncProxy_
0a7b:26a0      _ReqFunc
0a7b:26a4      _TrapVer
Module: trpld.obj(/mnt/sda5/.user/root/src/openwatcom-1.9/bld/dig/c/dos/trpld.c)
0000:54d0      KillTrap_
0000:5504      LoadTrap_
Module: dosfilio.obj(/mnt/sda5/.user/root/src/openwatcom-1.9/bld/wv/dos/c/dosfilio.c)
0000:57d0      LocalErrMsg_
0000:57d6      LocalOpen_
0000:5838      LocalRead_
0000:5866      LocalWrite_
0000:5894      LocalSeek_
0000:58e0      LocalClose_
0000:58fe      LocalErase_
0000:5922      LocalHandle_
0000:5926*     PopErrBox_
0a7b:0f38      _LclFile
0a7b:0f3e*     _LclPathSep
Module: inthdlrs.obj(inthdlrs)
0000:595a      InitInt_
0000:5997      FiniInt_
0000:59e5      CtrlCHit_
Module: /mnt/sda5/.user/root/src/openwatcom-1.9/rel2/lib286/dos/clibl.lib(exit.c)
0000:59f1+     __null_int23_exit_
0000:59f2      exit_
0000:5a23*     _exit_
0a7b:0f40+     ___int23_exit
0a7b:0f44+     ___FPE_handler_exit
Module: /mnt/sda5/.user/root/src/openwatcom-1.9/rel2/lib286/dos/clibl.lib(fmalloc.c)
0000:5a3c      _fmalloc_
0000:5a3c      malloc_
0a7b:0f48+     ___fheap
0a7b:0f4a      ___fheapRover
0a7b:0f4c      ___LargestSizeB4Rover
Module: /mnt/sda5/.user/root/src/openwatcom-1.9/rel2/lib286/dos/clibl.lib(ffree.c)
0000:5b49      _ffree_
0000:5b49      free_
Module: /mnt/sda5/.user/root/src/openwatcom-1.9/rel2/lib286/dos/clibl.lib(i4d)
0000:5b90      __I4D
0000:5bdf      __U4D
Module: /mnt/sda5/.user/root/src/openwatcom-1.9/rel2/lib286/dos/clibl.lib(toupper.c)
0000:5c63      toupper_
Module: /mnt/sda5/.user/root/src/openwatcom-1.9/rel2/lib286/dos/clibl.lib(getenv.c)
0000:5c71      getenv_
Module: /mnt/sda5/.user/root/src/openwatcom-1.9/rel2/lib286/dos/clibl.lib(tolower.c)
0000:5d36      tolower_
Module: /mnt/sda5/.user/root/src/openwatcom-1.9/rel2/lib286/dos/clibl.lib(strtok.c)
0000:5d44      strtok_
Module: /mnt/sda5/.user/root/src/openwatcom-1.9/rel2/lib286/dos/clibl.lib(strlwr.c)
0000:5e14      strlwr_
Module: /mnt/sda5/.user/root/src/openwatcom-1.9/rel2/lib286/dos/clibl.lib(system.c)
0000:5e36      system_
Module: /mnt/sda5/.user/root/src/openwatcom-1.9/rel2/lib286/dos/clibl.lib(strncpy.c)
0000:5eb1      strncpy_
Module: /mnt/sda5/.user/root/src/openwatcom-1.9/rel2/lib286/dos/clibl.lib(getch.c)
0000:5eed      getch_
Module: /mnt/sda5/.user/root/src/openwatcom-1.9/rel2/lib286/dos/clibl.lib(strstr.c)
0000:5f07      strstr_
Module: /mnt/sda5/.user/root/src/openwatcom-1.9/rel2/lib286/dos/clibl.lib(strupr.c)
0000:5fc1      strupr_
Module: /mnt/sda5/.user/root/src/openwatcom-1.9/rel2/lib286/dos/clibl.lib(cstart)
0a7b:0000*     __nullarea
0a7b:0f52*     __ovlflag
0a7b:0f53*     __intno
0a7b:0f54*     __ovlvec
0000:5fe4      _cstart_
0000:60b7*     _Not_Enough_Memory_
0000:61eb      __exit_
0000:620a      __do_exit_with_msg__
0000:6268      __GETDS
Module: /mnt/sda5/.user/root/src/openwatcom-1.9/rel2/lib286/dos/clibl.lib(cmodel)
0000:6272      _big_code_
0000:6272*     CodeModelMismatch
Module: /mnt/sda5/.user/root/src/openwatcom-1.9/rel2/lib286/dos/clibl.lib(argcv.c)
0a7b:26b4      __argv
0a7b:26b8      ___argv
0a7b:26bc      __argc
0a7b:26be      ___argc
Module: /mnt/sda5/.user/root/src/openwatcom-1.9/rel2/lib286/dos/clibl.lib(i4m)
0000:6272      __I4M
0000:6272      __U4M
Module: /mnt/sda5/.user/root/src/openwatcom-1.9/rel2/lib286/dos/clibl.lib(open.c)
0000:6486      open_
0000:64bd+     sopen_
Module: /mnt/sda5/.user/root/src/openwatcom-1.9/rel2/lib286/dos/clibl.lib(close.c)
0000:64ea      close_
Module: /mnt/sda5/.user/root/src/openwatcom-1.9/rel2/lib286/dos/clibl.lib(read.c)
0000:64ef      read_
Module: /mnt/sda5/.user/root/src/openwatcom-1.9/rel2/lib286/dos/clibl.lib(lseek.c)
0000:65d3      lseek_
Module: /mnt/sda5/.user/root/src/openwatcom-1.9/rel2/lib286/dos/clibl.lib(memmove.c)
0000:6604      memmove_
Module: /mnt/sda5/.user/root/src/openwatcom-1.9/rel2/lib286/dos/clibl.lib(stack086.c)
0000:667a      stackavail_
Module: /mnt/sda5/.user/root/src/openwatcom-1.9/rel2/lib286/dos/clibl.lib(sprintf.c)
0000:6688      sprintf_
Module: /mnt/sda5/.user/root/src/openwatcom-1.9/rel2/lib286/dos/clibl.lib(crwdata)
0a7b:0f58      __curbrk
0a7b:0f60      __STACKLOW
0a7b:0f62      __STACKTOP
0a7b:0f64      __cbyte
0a7b:0f66      __child
0a7b:0f68      __no87
0a7b:0f76      ___FPE_handler
0a7b:0f5a      __psp
0a7b:0f6a      __get_ovl_stack
0a7b:0f6e      __restore_ovl_stack
0a7b:0f72      __close_ovl_file
0a7b:0f7a      __LpCmdLine
0a7b:0f7e      __LpPgmName
0a7b:0f5c      __osmajor
0a7b:0f5d      __osminor
0a7b:0f5e      __osmode
0a7b:0f5f      __HShift
Module: /mnt/sda5/.user/root/src/openwatcom-1.9/rel2/lib286/dos/clibl.lib(initrtns.c)
0000:66f3      __InitRtns
0000:66f3*     __FInitRtns
0000:674e      __FiniRtns
0000:674e*     __FFiniRtns
Module: /mnt/sda5/.user/root/src/openwatcom-1.9/rel2/lib286/dos/clibl.lib(hpgrw086.c)
0000:67b2      __CMain_nheapgrow_
Module: /mnt/sda5/.user/root/src/openwatcom-1.9/rel2/lib286/dos/clibl.lib(mem.c)
0000:67c0      __MemAllocator
0000:688a      __MemFree
Module: /mnt/sda5/.user/root/src/openwatcom-1.9/rel2/lib286/dos/clibl.lib(growseg.c)
0000:69e7      __GrowSeg_
Module: /mnt/sda5/.user/root/src/openwatcom-1.9/rel2/lib286/dos/clibl.lib(allocseg.c)
0000:6ad9      __AllocSeg_
Module: /mnt/sda5/.user/root/src/openwatcom-1.9/rel2/lib286/dos/clibl.lib(fmemneed.c)
0000:6b70      __fmemneed_
Module: /mnt/sda5/.user/root/src/openwatcom-1.9/rel2/lib286/dos/clibl.lib(nmalloc.c)
0000:6b73      _nmalloc_
0a7b:0f82      ___nheapbeg
0a7b:0f84      ___MiniHeapRover
0a7b:0f86      ___LargestSizeB4MiniHeapRover
Module: /mnt/sda5/.user/root/src/openwatcom-1.9/rel2/lib286/dos/clibl.lib(nfree.c)
0000:6c4d      _nfree_
0a7b:26c0+     ___MiniHeapFreeRover
Module: /mnt/sda5/.user/root/src/openwatcom-1.9/rel2/lib286/dos/clibl.lib(environ.c)
0a7b:26c2      ___env_mask
0a7b:26c6      _environ
0a7b:26ca*     __wenviron
Module: /mnt/sda5/.user/root/src/openwatcom-1.9/rel2/lib286/dos/clibl.lib(mbterm.c)
0000:6d48      _mbterm_
Module: /mnt/sda5/.user/root/src/openwatcom-1.9/rel2/lib286/dos/clibl.lib(mbsnextc.c)
0000:6d8a      _mbsnextc_
Module: /mnt/sda5/.user/root/src/openwatcom-1.9/rel2/lib286/dos/clibl.lib(mbcupper.c)
0000:6dbb      _mbctoupper_
Module: /mnt/sda5/.user/root/src/openwatcom-1.9/rel2/lib286/dos/clibl.lib(mbsinc.c)
0000:6dde      _mbsinc_
Module: /mnt/sda5/.user/root/src/openwatcom-1.9/rel2/lib286/dos/clibl.lib(setbits.c)
0000:6e1a      __setbits_
Module: /mnt/sda5/.user/root/src/openwatcom-1.9/rel2/lib286/dos/clibl.lib(bits.c)
0a7b:083e      __Bits
Module: /mnt/sda5/.user/root/src/openwatcom-1.9/rel2/lib286/dos/clibl.lib(_slashc.c)
0000:6e72      __Slash_C_
Module: /mnt/sda5/.user/root/src/openwatcom-1.9/rel2/lib286/dos/clibl.lib(splp.c)
0000:6e9e      spawnlp_
Module: /mnt/sda5/.user/root/src/openwatcom-1.9/rel2/lib286/dos/clibl.lib(xmsg.c)
0000:6ebc*     __exit_with_msg_
0000:6ec1      __fatal_runtime_error_
Module: /mnt/sda5/.user/root/src/openwatcom-1.9/rel2/lib286/dos/clibl.lib(cmain086.c)
0000:6edf      __CMain
Module: /mnt/sda5/.user/root/src/openwatcom-1.9/rel2/lib286/dos/clibl.lib(uselfn.c)
0a7b:0f88      ___uselfn
Module: /mnt/sda5/.user/root/src/openwatcom-1.9/rel2/lib286/dos/clibl.lib(dosseg)
0000:6f0a      __DOSseg__
Module: /mnt/sda5/.user/root/src/openwatcom-1.9/rel2/lib286/dos/clibl.lib(initargv.c)
0000:6f0b      __Init_Argv_
0000:6f6e+     _getargv_
0000:716d      __Fini_Argv_
Module: /mnt/sda5/.user/root/src/openwatcom-1.9/rel2/lib286/dos/clibl.lib(opendos.c)
0000:7197      _dos_open_
Module: /mnt/sda5/.user/root/src/openwatcom-1.9/rel2/lib286/dos/clibl.lib(iomode.c)
0000:71bd      __GetIOMode_
0000:71e2      __SetIOMode_nogrow_
0a7b:0f8a      ___NFiles
0a7b:0f8c      ___init_mode
0a7b:0fb4      ___io_mode
Module: /mnt/sda5/.user/root/src/openwatcom-1.9/rel2/lib286/dos/clibl.lib(isatt.c)
0000:7205      isatty_
Module: /mnt/sda5/.user/root/src/openwatcom-1.9/rel2/lib286/dos/clibl.lib(seterrno.c)
0000:7221      __set_errno_
0000:7235*     __set_EDOM_
0000:7247*     __set_ERANGE_
0000:7259*     __set_EINVAL_
0000:726e      __set_doserrno_
Module: /mnt/sda5/.user/root/src/openwatcom-1.9/rel2/lib286/dos/clibl.lib(dosret.c)
0000:727a      _dosretax_
0000:727f*     _dosret0_
0000:7286      __set_errno_dos_
0000:72e4*     __set_errno_dos_reterr_
Module: /mnt/sda5/.user/root/src/openwatcom-1.9/rel2/lib286/dos/clibl.lib(errno.c)
0000:72ef      __get_errno_ptr_
0000:72f6      __get_doserrno_ptr_
0a7b:26d2+     _errno
0a7b:26d4+     __doserrno
Module: /mnt/sda5/.user/root/src/openwatcom-1.9/rel2/lib286/dos/clibl.lib(umaskval.c)
0a7b:0fcc      ___umaskval
Module: /mnt/sda5/.user/root/src/openwatcom-1.9/rel2/lib286/dos/clibl.lib(creatdos.c)
0000:72fd      _dos_creat_
0000:7321*     _dos_creatnew_
Module: /mnt/sda5/.user/root/src/openwatcom-1.9/rel2/lib286/dos/clibl.lib(stiomode.c)
0000:7343+     __grow_iomode_
0000:7406+     __shrink_iomode_
0000:7441      __SetIOMode_
Module: /mnt/sda5/.user/root/src/openwatcom-1.9/rel2/lib286/dos/clibl.lib(iob.c)
0a7b:0fce      ___iob
0a7b:1136      __fmode
0a7b:26d8      ___OpenStreams
0a7b:26dc      ___ClosedStreams
Module: /mnt/sda5/.user/root/src/openwatcom-1.9/rel2/lib286/dos/clibl.lib(_clse.c)
0000:74a4      __close_
Module: /mnt/sda5/.user/root/src/openwatcom-1.9/rel2/lib286/dos/clibl.lib(iomodtty.c)
0000:74d7      __ChkTTYIOMode_
0000:7515*     __IOMode_
Module: /mnt/sda5/.user/root/src/openwatcom-1.9/rel2/lib286/dos/clibl.lib(__lseek.c)
0000:7525      __lseek_
Module: /mnt/sda5/.user/root/src/openwatcom-1.9/rel2/lib286/dos/clibl.lib(vsprintf.c)
0000:7578      vsprintf_
Module: /mnt/sda5/.user/root/src/openwatcom-1.9/rel2/lib286/dos/clibl.lib(sgdef086)
0a7b:118e      __Start_XI
0a7b:11b2      __End_XI
0a7b:11b2      __Start_YI
0a7b:11ca      __End_YI
Module: /mnt/sda5/.user/root/src/openwatcom-1.9/rel2/lib286/dos/clibl.lib(heapgrow.c)
0000:75a4*     _heapgrow_
0000:75a4*     _fheapgrow_
0000:75a5      _nheapgrow_
Module: /mnt/sda5/.user/root/src/openwatcom-1.9/rel2/lib286/dos/clibl.lib(heapen.c)
0000:761f*     _heapenable_
0a7b:1138      ___heap_enabled
Module: /mnt/sda5/.user/root/src/openwatcom-1.9/rel2/lib286/dos/clibl.lib(amblksiz.c)
0a7b:113a      __amblksiz
Module: /mnt/sda5/.user/root/src/openwatcom-1.9/rel2/lib286/dos/clibl.lib(nmemneed.c)
0000:7630      __nmemneed_
Module: /mnt/sda5/.user/root/src/openwatcom-1.9/rel2/lib286/dos/clibl.lib(grownear.c)
0000:76b8      __LastFree_
0000:7732      __ExpandDGROUP_
Module: /mnt/sda5/.user/root/src/openwatcom-1.9/rel2/lib286/dos/clibl.lib(setenvp.c)
0000:7861      __setenvp_
0000:7964      __freeenvp_
Module: /mnt/sda5/.user/root/src/openwatcom-1.9/rel2/lib286/dos/clibl.lib(mbisdbcs.c)
0a7b:26e4      ___IsDBCS
Module: /mnt/sda5/.user/root/src/openwatcom-1.9/rel2/lib286/dos/clibl.lib(mbislead.c)
0000:79c2*     _ismbblead_
0a7b:26e6      ___MBCSIsTable
Module: /mnt/sda5/.user/root/src/openwatcom-1.9/rel2/lib286/dos/clibl.lib(mbinit.c)
0000:7a1c      __mbinit_
0a7b:113c      ___MBCodePage
Module: /mnt/sda5/.user/root/src/openwatcom-1.9/rel2/lib286/dos/clibl.lib(mbdtoupp.c)
0000:7af7      _mbdtoupper_
Module: /mnt/sda5/.user/root/src/openwatcom-1.9/rel2/lib286/dos/clibl.lib(spvp.c)
0000:7b05      spawnvp_
Module: /mnt/sda5/.user/root/src/openwatcom-1.9/rel2/lib286/dos/clibl.lib(enterdb.c)
0000:7b26      __EnterWVIDEO_
0a7b:113e+     ___WD_Present
Module: /mnt/sda5/.user/root/src/openwatcom-1.9/rel2/lib286/dos/clibl.lib(___argc.c)
0a7b:27e8      ____Argv
0a7b:27ec      ____Argc
Module: /mnt/sda5/.user/root/src/openwatcom-1.9/rel2/lib286/dos/clibl.lib(histsplt.c)
0a7b:27ee      ___historical_splitparms
Module: /mnt/sda5/.user/root/src/openwatcom-1.9/rel2/lib286/dos/clibl.lib(doserror)
0000:7b4a      __doserror_
Module: /mnt/sda5/.user/root/src/openwatcom-1.9/rel2/lib286/dos/clibl.lib(frealloc.c)
0000:7b58*     _frealloc_
0000:7b58      realloc_
Module: /mnt/sda5/.user/root/src/openwatcom-1.9/rel2/lib286/dos/clibl.lib(initfile.c)
0000:7c34      __InitFiles_
Module: /mnt/sda5/.user/root/src/openwatcom-1.9/rel2/lib286/dos/clibl.lib(ioexit.c)
0000:7d82*     fcloseall_
0000:7d89      __full_io_exit_
Module: /mnt/sda5/.user/root/src/openwatcom-1.9/rel2/lib286/dos/clibl.lib(prtf.c)
0000:7d93      __prtf_
Module: /mnt/sda5/.user/root/src/openwatcom-1.9/rel2/lib286/dos/clibl.lib(sbrk.c)
0000:8b61*     sbrk_
0000:8b71      __brk_
Module: /mnt/sda5/.user/root/src/openwatcom-1.9/rel2/lib286/dos/clibl.lib(clearenv.c)
0000:8bdb      clearenv_
Module: /mnt/sda5/.user/root/src/openwatcom-1.9/rel2/lib286/dos/clibl.lib(spvpe.c)
0000:8cbd      spawnvpe_
Module: /mnt/sda5/.user/root/src/openwatcom-1.9/rel2/lib286/dos/clibl.lib(fmsize.c)
0000:8e3a*     _msize_
0000:8e3a      _fmsize_
Module: /mnt/sda5/.user/root/src/openwatcom-1.9/rel2/lib286/dos/clibl.lib(nexpand.c)
0000:8e4b      __HeapManager_expand_
0000:8fc2      _nexpand_
Module: /mnt/sda5/.user/root/src/openwatcom-1.9/rel2/lib286/dos/clibl.lib(fexpand.c)
0000:9015      _fexpand_
0000:9015*     _expand_
Module: /mnt/sda5/.user/root/src/openwatcom-1.9/rel2/lib286/dos/clibl.lib(fclose.c)
0000:904a+     __doclose_
0000:90fb      __shutdown_stream_
0000:9115*     fclose_
0a7b:27f0+     ___RmTmpFileFn
Module: /mnt/sda5/.user/root/src/openwatcom-1.9/rel2/lib286/dos/clibl.lib(freefp.c)
0000:9160      __freefp_
0000:91db      __purgefp_
Module: /mnt/sda5/.user/root/src/openwatcom-1.9/rel2/lib286/dos/clibl.lib(wctomb.c)
0000:921c      wctomb_
Module: /mnt/sda5/.user/root/src/openwatcom-1.9/rel2/lib286/dos/clibl.lib(itoa.c)
0000:9245+     utoa_
0000:92a2      itoa_
Module: /mnt/sda5/.user/root/src/openwatcom-1.9/rel2/lib286/dos/clibl.lib(noefgfmt.c)
0a7b:1140      ___EFG_printf
0a7b:1144*     ___EFG_scanf
Module: /mnt/sda5/.user/root/src/openwatcom-1.9/rel2/lib286/dos/clibl.lib(lltoa.c)
0000:92d9      ulltoa_
0000:93be*     lltoa_
Module: /mnt/sda5/.user/root/src/openwatcom-1.9/rel2/lib286/dos/clibl.lib(ltoa.c)
0000:9420      ultoa_
0000:948f*     ltoa_
Module: /mnt/sda5/.user/root/src/openwatcom-1.9/rel2/lib286/dos/clibl.lib(stk)
0000:94c3      __STK
0000:94e3*     __STKOVERFLOW_
Module: /mnt/sda5/.user/root/src/openwatcom-1.9/rel2/lib286/dos/clibl.lib(spve.c)
0000:956c      spawnve_
Module: /mnt/sda5/.user/root/src/openwatcom-1.9/rel2/lib286/dos/clibl.lib(strlen.c)
0000:996e      strlen_
Module: /mnt/sda5/.user/root/src/openwatcom-1.9/rel2/lib286/dos/clibl.lib(strchr.c)
0000:9983      strchr_
Module: /mnt/sda5/.user/root/src/openwatcom-1.9/rel2/lib286/dos/clibl.lib(memcpy.c)
0000:99a2      memcpy_
Module: /mnt/sda5/.user/root/src/openwatcom-1.9/rel2/lib286/dos/clibl.lib(bfree.c)
0000:99c4      _bfree_
Module: /mnt/sda5/.user/root/src/openwatcom-1.9/rel2/lib286/dos/clibl.lib(bexpand.c)
0000:99e9      _bexpand_
Module: /mnt/sda5/.user/root/src/openwatcom-1.9/rel2/lib286/dos/clibl.lib(flush.c)
0000:9a42      __flush_
Module: /mnt/sda5/.user/root/src/openwatcom-1.9/rel2/lib286/dos/clibl.lib(alphabet.c)
0a7b:0818      ___Alphabet
Module: /mnt/sda5/.user/root/src/openwatcom-1.9/rel2/lib286/dos/clibl.lib(finddos.c)
0000:9b75      _dos_findfirst_
0000:9ba8*     _dos_findnext_
0000:9bbb*     _dos_findclose_
Module: /mnt/sda5/.user/root/src/openwatcom-1.9/rel2/lib286/dos/clibl.lib(cenvarg.c)
0000:9bd8      __cenvarg_
0000:9dc8      __ccmdline_
Module: /mnt/sda5/.user/root/src/openwatcom-1.9/rel2/lib286/dos/clibl.lib(dospawn)
0000:9e59      __dospawn
Module: /mnt/sda5/.user/root/src/openwatcom-1.9/rel2/lib286/dos/clibl.lib(execaddr.c)
0000:9f41      __execaddr_
0a7b:1182+     ___Exec_addr
Module: /mnt/sda5/.user/root/src/openwatcom-1.9/rel2/lib286/dos/clibl.lib(split2.c)
0000:9fc8      _splitpath2_
Module: /mnt/sda5/.user/root/src/openwatcom-1.9/rel2/lib286/dos/clibl.lib(save8087.c)
0a7b:1186      ___Save8087
0a7b:118a      ___Rest8087
Module: /mnt/sda5/.user/root/src/openwatcom-1.9/rel2/lib286/dos/clibl.lib(dosmem)
0000:a17a      _dos_allocmem_
0000:a19c      _dos_freemem_
0000:a1aa*     _dos_setblock_
Module: /mnt/sda5/.user/root/src/openwatcom-1.9/rel2/lib286/dos/clibl.lib(fmemcpy.c)
0000:a1c6      _fmemcpy_
Module: /mnt/sda5/.user/root/src/openwatcom-1.9/rel2/lib286/dos/clibl.lib(makepath.c)
0000:a202      _makepath_
Module: /mnt/sda5/.user/root/src/openwatcom-1.9/rel2/lib286/dos/clibl.lib(strcpy.c)
0000:a44e      strcpy_
Module: /mnt/sda5/.user/root/src/openwatcom-1.9/rel2/lib286/dos/clibl.lib(spl.c)
0000:a499      spawnl_
Module: /mnt/sda5/.user/root/src/openwatcom-1.9/rel2/lib286/dos/clibl.lib(stricmp.c)
0000:a4c4      stricmp_
Module: /mnt/sda5/.user/root/src/openwatcom-1.9/rel2/lib286/dos/clibl.lib(qwrit.c)
0000:a501      __qwrite_
Module: /mnt/sda5/.user/root/src/openwatcom-1.9/rel2/lib286/dos/clibl.lib(fsync.c)
0000:a55e      fsync_
Module: /mnt/sda5/.user/root/src/openwatcom-1.9/rel2/lib286/dos/clibl.lib(mbsnccnt.c)
0000:a563      _mbsnccnt_
Module: /mnt/sda5/.user/root/src/openwatcom-1.9/rel2/lib286/dos/clibl.lib(mbsncpy.c)
0000:a597      _mbsncpy_
Module: /mnt/sda5/.user/root/src/openwatcom-1.9/rel2/lib286/dos/clibl.lib(mbsnbcnt.c)
0000:a5cd      _mbsnbcnt_
Module: /mnt/sda5/.user/root/src/openwatcom-1.9/rel2/lib286/dos/clibl.lib(mbconv.c)
0000:a646      _mbvtop_
Module: /mnt/sda5/.user/root/src/openwatcom-1.9/rel2/lib286/dos/clibl.lib(mbclen.c)
0000:a65b      _mbclen_
Module: /mnt/sda5/.user/root/src/openwatcom-1.9/rel2/lib286/dos/clibl.lib(mbsdec.c)
0000:a689      _mbsdec_
Module: /mnt/sda5/.user/root/src/openwatcom-1.9/rel2/lib286/dos/clibl.lib(filedos.c)
0000:a716*     _dos_close_
0000:a724      _dos_commit_
Module: /mnt/sda5/.user/root/src/openwatcom-1.9/rel2/lib286/dos/clibl.lib(mbsnbcpy.c)
0000:a734      _mbsnbcpy_


                        +--------------------+
                        |   Libraries Used   |
                        +--------------------+

/mnt/sda5/.user/root/src/openwatcom-1.9/rel2/lib286/dos/clibl.lib


                        +-----------------------+
                        |   Linker Statistics   |
                        +-----------------------+

Stack size:  0800 (2048.)
Memory size:  d7b0 (55216.)
Entry point address: 0000:5fe4
Link time: 00:00.00
