Open Watcom Linker Version 1.9
Portions Copyright (c) 1985-2002 Sybase, Inc. All Rights Reserved.
Created on:       12/12/16 02:40:28
Executable Image: codeview.dll
creating a Windows NT character-mode dynamic link library


                        +------------+
                        |   Groups   |
                        +------------+

Group                           Address              Size
=====                           =======              ====

DGROUP                          0040d000             0000018c



                        +--------------+
                        |   Segments   |
                        +--------------+

Segment                Class          Group          Address         Size
=======                =====          =====          =======         ====

_TEXT                  CODE           AUTO           00401000        0000b0f0
CONST                  DATA           DGROUP         0040d000        00000025
CONST2                 DATA           DGROUP         0040d028        00000000
_DATA                  DATA           DGROUP         0040d028        000000f8
_BSS                   BSS            DGROUP         0040d120        0000006c


                        +----------------+
                        |   Memory Map   |
                        +----------------+

* = unreferenced symbol
+ = symbol only referenced locally

Address        Symbol
=======        ======

Module: dipimp.obj(/mnt/sda5/.user/root/src/openwatcom-1.9/bld/dip/c/dipimp.c)
00401000       DIPLOAD
00401030       DCAlloc_
00401040*      DCAllocZ_
00401070*      DCRealloc_
00401080       DCFree_
00401090       DCMapAddr_
004010a0       DCSymCreate_
004010b0       DCItemLocation_
004010c0       DCAssignLocation_
004010d0       DCSameAddrSpace_
00401100*      DCAddrSection_
00401110*      DCOpen_
00401120       DCSeek_
00401130       DCRead_
00401140*      DCReadAt_
004011a0       DCWrite_
004011b0       DCClose_
004011c0*      DCRemove_
004011d0       DCStatus_
004011e0*      DCCurrMAD_
00401200*      DCMachineData_
00401250+      DIPImpOldTypeBase_
0040d028+      _ImpInterface
0040d120       _NilAddr
0040d128+      _Client
Module: cvmisc.obj(/mnt/sda5/.user/root/src/openwatcom-1.9/bld/dip/codeview/c/cvmisc.c)
00401268       _DIPImpName
004012a0       DIPImpQueryHandleSize_
004012b0       DIPImpMoreMem_
004012c0       DIPImpStartup_
004012d0       DIPImpCancel_
004012d0       DIPImpShutdown_
004012e0       NameCopy_
00401320       FindDirEntry_
004013e0       WalkDirList_
004014a0       GetNumLeaf_
00401560       DoIndirection_
00401620       NYI_
00401620       Confused_
Module: cvld.obj(/mnt/sda5/.user/root/src/openwatcom-1.9/bld/dip/codeview/c/cvld.c)
00401c70       DIPImpLoadInfo_
00401d70       DIPImpMapInfo_
00401dd0       SegIsExecutable_
00401df0       MapLogical_
00401e30       DIPImpUnloadInfo_
0040d12c       _ImageList
Module: cvmod.obj(/mnt/sda5/.user/root/src/openwatcom-1.9/bld/dip/codeview/c/cvmod.c)
00401ea0       DIPImpWalkModList_
00401ee0       DIPImpModName_
00401f70       GetCompInfo_
00401fd0       DIPImpModSrcLang_
00402000       DIPImpModInfo_
004020d0       ImpAddrMod_
00402160       DIPImpAddrMod_
00402180       DIPImpModAddr_
00402210       DIPImpModDefault_
Module: cvtype.obj(/mnt/sda5/.user/root/src/openwatcom-1.9/bld/dip/codeview/c/cvtype.c)
00402480       TypeIndexFillIn_
004024a0       DIPImpTypeFreeAll_
004024a0       DIPImpTypeRelease_
004024a0       DIPImpTypeAddRef_
00402540       TypeCallInfo_
004025d0       TypeMemberFuncInfo_
00402680       TypeSymGetName_
004032d0       TypeSymGetAddr_
004034f0       TypeSymGetType_
004035c0       TypeSymGetValue_
00403680       TypeSymGetInfo_
00403950       TypeSymWalkList_
00403a20       TypeSearchTagName_
00403da0       TypeSearchNestedSym_
00403e60       DIPImpWalkTypeList_
00403f10       DIPImpTypeMod_
00403fe0       ImpTypeInfo_
00403fe0       DIPImpTypeInfo_
00404390       ImpTypeBase_
00404570       DIPImpTypeBase_
00404b90       DIPImpTypeArrayInfo_
00404ba0       DIPImpTypeProcInfo_
00404ca0       DIPImpTypePtrAddrSpace_
00404fc0       DIPImpTypeThunkAdjust_
00405160       DIPImpTypeCmp_
00405180       DIPImpTypeName_
Module: cvsym.obj(/mnt/sda5/.user/root/src/openwatcom-1.9/bld/dip/codeview/c/cvsym.c)
00405250       SymFillIn_
00405700       ImpSymLocation_
00405700       DIPImpSymLocation_
00406700       SymFindMatchingSym_
00406990+      DoWalkSymList_
00406ba0       DIPImpWalkSymList_
00406bc0       DIPImpWalkSymListEx_
00406be0       DIPImpSymMod_
00406d70       DIPImpSymName_
00406d90       ImpSymType_
00406d90       DIPImpSymType_
00406de0       ImpSymValue_
00406de0       DIPImpSymValue_
00406ea0       DIPImpSymInfo_
00407120       DIPImpSymParmLocation_
00407450       DIPImpSymObjType_
004074b0       DIPImpSymObjLocation_
00407620       DIPImpAddrSym_
00407ae0+      DoImpLookupSym_
00407c40       DIPImpLookupSym_
00407c60       DIPImpLookupSymEx_
00407c80       DIPImpAddrScope_
00407cf0       DIPImpScopeOuter_
00407dd0       DIPImpSymCmp_
00407df0       DIPImpSymFreeAll_
00407df0       DIPImpSymRelease_
00407df0       DIPImpSymAddRef_
Module: cvcue.obj(/mnt/sda5/.user/root/src/openwatcom-1.9/bld/dip/codeview/c/cvcue.c)
00407e00       DIPImpWalkFileList_
00407f10       DIPImpCueMod_
00407f20       DIPImpCueFile_
00407f90       DIPImpCueFileId_
00407fa0       DIPImpCueLine_
00408000       DIPImpCueColumn_
00408010       DIPImpCueAddr_
00408250       DIPImpCueAdjust_
00408300       DIPImpLineCue_
00408470+      SearchOffsets_
00408580+      SearchFile_
00408710       DIPImpAddrCue_
00408800       DIPImpCueCmp_
Module: cvvirt.obj(/mnt/sda5/.user/root/src/openwatcom-1.9/bld/dip/codeview/c/cvvirt.c)
00408850       VMInit_
004088a0       VMFini_
004089e0       VMBlock_
00408d70       VMRecord_
00408db0       VMShrink_
Module: cvloc.obj(/mnt/sda5/.user/root/src/openwatcom-1.9/bld/dip/codeview/c/cvloc.c)
00409050       LocationCreate_
00409080       LocationAdd_
00409170       LocationTrunc_
004091c0       LocationManyReg_
004093e0       LocationOneReg_
Module: demangle.obj(/mnt/sda5/.user/root/src/openwatcom-1.9/bld/lib_misc/c/demangle.c)
0040b7e0*      __demangle_t_
0040b840       __demangle_l_
0040b8b0*      __demangle_r_
0040b940*      __scope_name_
0040b9e0       __is_mangled_
0040bac0*      __is_mangled_internal_
0040bb00*      __unmangled_name_
0040bb70*      __demangled_basename_
0040bbe0*      __parse_mangled_name_
0040bc40*      __mangle_operator_
Module: /mnt/sda5/.user/root/src/openwatcom-1.9/rel2/lib386/nt/clib3r.lib(memset.c)
0040bd80       memset_
Module: /mnt/sda5/.user/root/src/openwatcom-1.9/rel2/lib386/nt/clib3r.lib(memcmp.c)
0040bda0       memcmp_
Module: /mnt/sda5/.user/root/src/openwatcom-1.9/rel2/lib386/nt/clib3r.lib(memicmp.c)
0040bdc0       memicmp_
Module: /mnt/sda5/.user/root/src/openwatcom-1.9/rel2/lib386/nt/clib3r.lib(memmove.c)
0040be00       memmove_
Module: /mnt/sda5/.user/root/src/openwatcom-1.9/rel2/lib386/nt/clib3r.lib(itoa.c)
0040be60+      utoa_
0040beb0       itoa_
Module: /mnt/sda5/.user/root/src/openwatcom-1.9/rel2/lib386/nt/clib3r.lib(toupper.c)
0040bee0       toupper_
Module: /mnt/sda5/.user/root/src/openwatcom-1.9/rel2/lib386/nt/clib3r.lib(istable.c)
0040bef0       __IsTable
Module: /mnt/sda5/.user/root/src/openwatcom-1.9/rel2/lib386/nt/clib3r.lib(tolower.c)
0040c000       tolower_
Module: /mnt/sda5/.user/root/src/openwatcom-1.9/rel2/lib386/nt/clib3r.lib(strncmp.c)
0040c010       strncmp_
Module: /mnt/sda5/.user/root/src/openwatcom-1.9/rel2/lib386/nt/clib3r.lib(__stos)
0040c040       __STOSB
0040c077*      __STOSD
Module: /mnt/sda5/.user/root/src/openwatcom-1.9/rel2/lib386/nt/clib3r.lib(alphabet.c)
0040d000       ___Alphabet


                        +----------------------+
                        |   Imported Symbols   |
                        +----------------------+

Symbol                              Module
======                              ======



                        +--------------------+
                        |   Libraries Used   |
                        +--------------------+

/mnt/sda5/.user/root/src/openwatcom-1.9/rel2/lib386/nt/clib3r.lib


                        +-----------------------+
                        |   Linker Statistics   |
                        +-----------------------+

Stack size:  0000 (0.)
Memory size:  b27c (45692.)
Entry point address: 00000000
Link time: 00:00.00
