Open Watcom Linker Version 1.9
Portions Copyright (c) 1985-2002 Sybase, Inc. All Rights Reserved.
Created on:       12/12/16 02:41:12
Executable Image: wv.exe
creating a DOS/4G executable


                        +------------+
                        |   Groups   |
                        +------------+

Group                           Address              Size
=====                           =======              ====

DGROUP                          0003:00000000        0000f4c0



                        +--------------+
                        |   Segments   |
                        +--------------+

Segment                Class          Group          Address         Size
=======                =====          =====          =======         ====

BEGTEXT                CODE           AUTO           0001:00000000   00000010
_TEXT                  CODE           AUTO           0001:00000010   000794ab
rmhandlr_TEXT16        CODE           AUTO           0002:00000000   00002256
_NULL                  BEGDATA        DGROUP         0003:00000000   00000004
_AFTERNULL             BEGDATA        DGROUP         0003:00000004   00000000
CONST                  DATA           DGROUP         0003:00000004   00000ddc
CONST2                 DATA           DGROUP         0003:00000de0   00000948
_DATA                  DATA           DGROUP         0003:00001730   00005e2c
XIB                    DATA           DGROUP         0003:0000755c   00000000
XI                     DATA           DGROUP         0003:0000755c   00000042
XIE                    DATA           DGROUP         0003:0000759e   00000000
YIB                    DATA           DGROUP         0003:0000759e   00000000
YI                     DATA           DGROUP         0003:0000759e   00000024
YIE                    DATA           DGROUP         0003:000075c2   00000000
TIB                    DATA           DGROUP         0003:000075c2   00000000
TI                     DATA           DGROUP         0003:000075c2   00000000
TIE                    DATA           DGROUP         0003:000075c2   00000000
DATA                   DATA           DGROUP         0003:000075c2   00000000
_BSS                   BSS            DGROUP         0003:000075d0   00004eec
STACK                  STACK          DGROUP         0003:0000c4c0   00003000


                        +----------------+
                        |   Memory Map   |
                        +----------------+

* = unreferenced symbol
+ = symbol only referenced locally

Address        Symbol
=======        ======

Module: dsxfork.obj(/mnt/sda5/.user/root/src/openwatcom-1.9/bld/wv/dsx/asm/dsxfork.asm)
0001:00000010* RedirectInOut_
0001:00000071* RestoreInOut_
0001:0000014c  _fork_
Module: dsxstart.obj(/mnt/sda5/.user/root/src/openwatcom-1.9/bld/wv/dsx/c/dsxstart.c)
0001:00000180  TBreak_
0001:000001a0  MyGetRMVector_
0001:000001d0  MySetRMVector_
0001:000001e0  GrabHandlers_
0001:000002d0  RestoreHandlers_
0001:000003b0  KillDebugger_
0001:000003d0  GUImain_
0001:000004b0  GUISysInit_
0001:000004c0  WndCleanUp_
0001:000004d0  GUISysFini_
0001:00000500  SysGUI_
0003:000075f4  _RMData
0003:000075f8  _PMData
Module: dsxchk.obj(/mnt/sda5/.user/root/src/openwatcom-1.9/bld/wv/dsx/c/dsxchk.c)
0001:00000510  CheckPointMem_
0001:00000520  CheckPointRestore_
Module: dsxcmd.obj(/mnt/sda5/.user/root/src/openwatcom-1.9/bld/wv/dsx/c/dsxcmd.c)
0001:00000550  OptDelim_
0001:00000560  SetNumLines_
0001:00000570  SetNumColumns_
0001:000005b0  ProcSysOption_
0001:00000690  ProcSysOptInit_
0001:000006e0  GetCmdArg_
0001:000006f0  SetCmdArgStart_
0003:000017ae  _WndStyle
Module: dsxfilio.obj(/mnt/sda5/.user/root/src/openwatcom-1.9/bld/wv/dsx/c/dsxfilio.c)
0001:00000700  LocalErrMsg_
0001:00000710  LocalOpen_
0001:00000790  LocalRead_
0001:000007c0  LocalWrite_
0001:000007f0  LocalSeek_
0001:00000840  LocalClose_
0001:00000870  LocalErase_
0001:00000890  LocalHandle_
0001:000008a0  PopErrBox_
0003:000017b0  _LclFile
0003:000017b6  _LclPathSep
Module: dsxscrn.obj(/mnt/sda5/.user/root/src/openwatcom-1.9/bld/wv/dsx/c/dsxscrn.c)
0003:000017b8  _FlipMech
0003:000017b9  _ScrnMode
0001:00000ad0  RingBell_
0001:00000e70  DebugScreenRecover_
0001:00001250  ForceLines_
0001:000012e0  ConfigScreen_
0001:00002140  InitScreen_
0001:000021c0  UsrScrnMode_
0001:000022e0* DbgScrnMode_
0001:00002330  DebugScreen_
0001:000023f0  UserScreen_
0001:000024f0  SaveMainWindowPos_
0001:00002520  FiniScreen_
0001:00002590  uiinitcursor_
0001:000025a0  uisetcursor_
0001:000026c0  uioffcursor_
0001:00002700  uiswapcursor_
0001:00002710  uifinicursor_
0001:00002720  uirefresh_
Module: dsxlkup.obj(/mnt/sda5/.user/root/src/openwatcom-1.9/bld/wv/dsx/c/dsxlkup.c)
0001:00002730  DOSEnvFind_
0001:00002790  EnvLkup_
Module: dsxhdlr.obj(/mnt/sda5/.user/root/src/openwatcom-1.9/bld/wv/dsx/asm/dsxhdlr.asm)
0002:000021b1  RMTrapHandler_
0002:000021dc  RawSwitchHandler_
0002:00002254  BackFromRealMode_
0002:0000209c  RMTrapInit_
0002:000020c8  RMTrapAccess_
0002:000020fa  RMTrapFini_
0002:00002229  Interrupt10_
0002:00002244  Interrupt15_
0002:00002238  Interrupt1b_23_
0002:0000223f  Interrupt24_
0002:00000000  _RMSegStart
0002:00000000  _RMDataStart
0002:00002256  _RMSegEnd
Module: dsxmem.obj(/mnt/sda5/.user/root/src/openwatcom-1.9/bld/wv/dsx/c/dsxmem.c)
0001:000027b0  SysSetMemLimit_
Module: fingmsg.obj(/mnt/sda5/.user/root/src/openwatcom-1.9/bld/wv/c/fingmsg.c)
0001:00002800  InitAboutMessage_
0001:00002860  FiniAboutMessage_
0003:000017c8  _AboutMessage
0003:00001804  _FingMessageSize
0003:00001808  _AboutSize
0003:0000180c* _DOS4GOPTIONS
Module: dipman.obj(/mnt/sda5/.user/root/src/openwatcom-1.9/bld/dig/c/dipman.c)
0001:00002880  DCSymCreate_
0001:00002880+ XDIPCliSymCreate_
0001:000028a0  DIPInit_
0001:000028f0  DIPLoad_
0001:00002980  DIPRegister_
0001:000029e0* DIPFiniLatest_
0001:00002a40  DIPFini_
0001:00002a90  DIPHandleSize_
0001:00002ab0  DIPMoreMem_
0001:00002af0  DIPCancel_
0001:00002b70+ FindImageMapSlot_
0001:00002ca0  DIPCreateProcess_
0001:00002df0* DIPSetProcess_
0001:00002e00  DIPDestroyProcess_
0001:00002e30  DIPPriority_
0001:00002e80  DIPLoadInfo_
0001:00002f90  DIPMapInfo_
0001:00002ff0  DIPUnloadInfo_
0001:00003040  DIPImagePriority_
0001:00003090  WalkImageList_
0001:00003150  WalkModList_
0001:000031b0* WalkTypeList_
0001:00003440+ WalkSymListEx_
0001:00003470  WalkSymList_
0001:00003490  WalkFileList_
0001:00003540  ImageExtra_
0001:00003590  ImageDIP_
0001:000035e0  ModName_
0001:00003640  ModSrcLang_
0001:000036a0  ModHasInfo_
0001:00003710  ModDefault_
0001:00003780  ModAddr_
0001:00003800  TypeMod_
0001:00003850  TypeInfo_
0001:000038f0  TypeCreate_
0001:00003910  TypePointer_
0001:000039a0  TypeBase_
0001:00003a60* TypeAddRef_
0001:00003ab0* TypeRelease_
0001:00003b00* TypeFreeAll_
0001:00003b40  TypeArrayInfo_
0001:00003bc0  TypeProcInfo_
0001:00003c20  TypePtrAddrSpace_
0001:00003c80  TypeThunkAdjust_
0001:00003ce0* TypeCmp_
0001:00003d40  TypeName_
0001:00003d90  SymMod_
0001:00003dd0  SymName_
0001:00003e20  SymType_
0001:00003e70  SymLocation_
0001:00003eb0  SymValue_
0001:00003ef0  SymInfo_
0001:00003f40  SymParmLocation_
0001:00003f90  SymObjType_
0001:00003fe0  SymObjLocation_
0001:00004030* SymCmp_
0001:00004090* SymAddRef_
0001:000040e0* SymRelease_
0001:00004130* SymFreeAll_
0001:00004170  CueMod_
0001:000041c0  CueFile_
0001:00004200  CueFileId_
0001:00004240  CueAdjust_
0001:000042a0  CueLine_
0001:000042e0  CueColumn_
0001:00004320  CueAddr_
0001:000043a0  LineCue_
0001:00004430  AddrCue_
0001:000044e0* CueCmp_
0001:00004540  AddrMod_
0001:00004600  AddrSym_
0001:000046c0+ LookupSymEx_
0001:00004910  LookupSym_
0001:00004920  AddrScope_
0001:000049c0  ScopeOuter_
0003:00001858  _DIPDefaults
0003:0000187e+ _DIPClientInterface
Module: dipld.obj(/mnt/sda5/.user/root/src/openwatcom-1.9/bld/dig/c/dsx/dipld.c)
0001:00004c40  DIPSysUnload_
0001:00004c50  DIPSysLoad_
Module: madman.obj(/mnt/sda5/.user/root/src/openwatcom-1.9/bld/dig/c/madman.c)
0003:000018cc+ _MADClientInterface
0001:00004d30  MADTypeInfoForHost_
0001:00004dc0  MADInit_
0001:00004e10  MADRegister_
0001:00004fa0  MADLoad_
0001:00005130+ MADUnload_
0001:00005180  MADLoaded_
0001:000051c0  MADActiveSet_
0001:000051f0* MADStateCreate_
0001:00005250* MADStateSet_
0001:000052c0* MADStateCopy_
0001:000052e0+ MADStateDestroy_
0001:00005330  MADFini_
0001:00005360  MADWalk_
0001:00005390  MADNameFile_
0001:00005410  MADNameDescription_
0001:000054a0  MADAddrAdd_
0001:000054e0  MADAddrComp_
0001:00005510  MADAddrDiff_
0001:00005540  MADAddrMap_
0001:00005550  MADAddrFlat_
0001:00005560  MADAddrInterrupt_
0001:00005590  MADTypeWalk_
0001:000055c0  MADTypeName_
0001:000055e0  MADTypePreferredRadix_
0001:00005610  MADTypeForDIPType_
0001:00005630  MADTypeInfo_
0001:00005740  MADTypeDefault_
0001:000060d0  MADTypeConvert_
0001:000065e0  MADTypeToString_
0001:00006670  MADTypeHandleToString_
0001:000066a0  MADRegistersSize_
0001:000066b0  MADRegistersHost_
0001:000066c0  MADRegistersTarget_
0001:000066e0  MADRegSetWalk_
0001:00006710  MADRegSetName_
0001:00006740  MADRegSetLevel_
0001:00006750  MADRegSetDisplayGrouping_
0001:00006770  MADRegSetDisplayGetPiece_
0001:000067c0  MADRegSetDisplayModify_
0001:000067e0  MADRegSetDisplayToggleList_
0001:000067f0  MADRegSetDisplayToggle_
0001:00006800  MADRegModified_
0001:00006820  MADRegInspectAddr_
0001:00006870  MADRegWalk_
0001:00006a20  MADRegFullName_
0001:00006a80  MADRegSpecialGet_
0001:00006ab0  MADRegSpecialSet_
0001:00006ae0  MADRegSpecialName_
0001:00006b10  MADRegFromContextItem_
0001:00006b40  MADRegUpdateStart_
0001:00006b70  MADRegUpdateEnd_
0001:00006b90  MADCallStackGrowsUp_
0001:00006bb0  MADCallTypeList_
0001:00006bd0  MADCallBuildFrame_
0001:00006c20  MADCallReturnReg_
0001:00006c60  MADCallParmRegList_
0001:00006c90  MADCallUpStackSize_
0001:00006ca0  MADCallUpStackInit_
0001:00006cd0  MADCallUpStackLevel_
0001:00006d10  MADDisasmDataSize_
0001:00006d30  MADDisasmNameMax_
0001:00006d50  MADDisasm_
0001:00006dd0  MADDisasmFormat_
0001:00006df0  MADDisasmInsSize_
0001:00006e10  MADDisasmInsUndoable_
0001:00006e40  MADDisasmControl_
0001:00006e60  MADDisasmInsNext_
0001:00006e90  MADDisasmInspectAddr_
0001:00006ee0  MADDisasmMemRefWalk_
0001:00006f10  MADDisasmToggleList_
0001:00006f20  MADDisasmToggle_
0001:00006f40  MADTraceSize_
0001:00006f60  MADTraceInit_
0001:00006f90  MADTraceOne_
0001:00006fc0  MADTraceHaveRecursed_
0001:00006ff0  MADTraceSimulate_
0001:00007020  MADTraceFini_
0001:00007060  MADUnexpectedBreak_
Module: madld.obj(/mnt/sda5/.user/root/src/openwatcom-1.9/bld/dig/c/dsx/madld.c)
0001:00007210  MADSysUnload_
0001:00007220  MADSysLoad_
Module: i64.obj(/mnt/sda5/.user/root/src/openwatcom-1.9/bld/watcom/c/i64.c)
0001:000072c0  I32ToI64_
0001:000072d0  U32ToU64_
0001:000072e0  U64Neg_
0001:00007310  U64Add_
0001:00007330* U64IncDec_
0001:00007360  U64Sub_
0001:00007380  U64Mul_
0001:000073f0  U64Div_
0001:000074f0  I64Div_
0001:000075a0  U64Cmp_
0001:000075e0  U64Test_
0001:00007600  I64Cmp_
0001:00007630  I64Test_
0001:00007660  I64ShiftR_
0001:000076b0  U64ShiftR_
0001:00007710* U64Shift_
0001:00007720  U64ShiftL_
Module: trpsupp.obj(/mnt/sda5/.user/root/src/openwatcom-1.9/bld/dig/c/trpsupp.c)
0001:00007750  TrapSetFailCallBack_
0001:00007760* TrapSetAccessCallBack_
0001:00007770* TrapFailAllRequests_
0001:00007780  TrapSimpAccess_
0001:000077d0  TrapAccess_
0001:00007ab0* ReqFuncProxy_
0003:000077a8  _ReqFunc
0003:000077ac  _TrapVer
Module: trplddsx.obj(/mnt/sda5/.user/root/src/openwatcom-1.9/bld/wv/dsx/c/trplddsx.c)
0003:00001a64  _DPMICheck
0001:00007ad0+ _find_entry
0001:00007b40+ _D32NullPtrCheck
0001:00007be0  SaveOrigVectors_
0001:00007d10  RestoreOrigVectors_
0001:00008800  LoadTrap_
0001:00008aa0  KillTrap_
Module: dumb.obj(/mnt/sda5/.user/root/src/openwatcom-1.9/bld/dig/c/dumb.c)
0001:00008b30+ ReqConnect_
0001:00008b50+ ReqSimpleStub_
0001:00008b60+ ReqGet_supplementary_service_
0001:00008b80+ ReqMap_addr_
0001:00008bb0+ ReqSplit_cmd_
0001:00008bb0+ ReqGet_lib_name_
0001:00008bb0+ ReqGet_next_alias_
0001:00008bb0+ ReqSet_break_
0001:00008bb0+ ReqProg_kill_
0001:00008bb0+ ReqChecksum_mem_
0001:00008bd0+ ReqProg_load_
0001:00008bf0+ ReqSet_watch_
0001:00008c10+ ReqRead_user_keyboard_
0001:00008c20+ ReqRedirect_stdout_
0001:00008c20+ ReqRedirect_stdin_
0001:00008c40+ DumbRequest_
0001:00008c60  LoadDumbTrap_
0003:0000785c+ _Out_Mx_Ptr
Module: spawn.obj(/mnt/sda5/.user/root/src/openwatcom-1.9/bld/wv/c/spawn.c)
0001:00008c80  Spawn_
0001:00008cc0  SpawnP_
0001:00008d00  SpawnPP_
0001:00008d50  Suicide_
Module: dbgchain.obj(/mnt/sda5/.user/root/src/openwatcom-1.9/bld/wv/c/dbgchain.c)
0001:00008d70  FindNextIns_
0001:000091b0  InitTraceBack_
0001:000091d0  FiniTraceBack_
0001:00009210  UpdateTraceBack_
0001:00009280  GetCallChain_
0001:000092a0  ShowCalls_
0001:00009340  UnWindToFrame_
Module: dbgvar.obj(/mnt/sda5/.user/root/src/openwatcom-1.9/bld/wv/c/dbgvar.c)
0003:0000787c  _TypeDisplay
0001:000093f0  VarDisplayIsStruct_
0001:00009430  VarDisplayIsHidden_
0001:00009450  VarDisplaySetHidden_
0001:00009480  VarDisplayFlipHide_
0001:000094d0  VarDisplayUpdate_
0001:00009500  VarDisplayShowMembers_
0001:00009510  VarDisplaySetMembers_
0001:00009530+ VarDisplaySetBits_
0001:00009550+ VarDisplayFindParent_
0001:00009580  VarDisplayDirty_
0001:000095a0  VarDisplayInit_
0001:000095b0  VarDisplayedOnTop_
0001:000095d0  VarDisplayOnTop_
0001:00009690  VarDisplayFini_
0001:00009760  VarDisplayAddStruct_
0001:00009820  VarDisplayAddField_
0001:000098c0  VarDisplayAlias_
0001:00009930  VarDisplayType_
0001:00009a50  VarErrState_
0001:00009a70  VarOldErrState_
0001:00009b10* VarNodeInvalid_
0001:0000a1b0  VarExpand_
0001:0000a570+ VarExpandNode_
0001:0000a590+ VarFirstExpandNode_
0001:0000a620* VarFirstNode_
0001:0000a680+ VarNextRowNode_
0001:0000a6b0  VarNextVisibleSibling_
0001:0000aa50  VarFindRowNode_
0001:0000aa80  VarRowTotal_
0001:0000aaf0  VarFindRoot_
0001:0000abf0  VarFindRow_
0001:0000ac60  VarDoneRow_
0001:0000ae00+ VarBaseName_
0001:0000ae80  VarBuildName_
0001:0000b110  VarDeExpand_
0001:0000b190  VarAllNodesInvalid_
0001:0000b1c0  VarAdd1_
0001:0000b270  VarExpandRow_
0001:0000b2f0  VarExpandRowNoCollapse_
0001:0000b370  VarGetStackClass_
0001:0000b3a0  VarExpandable_
0001:0000b3b0  VarIsPointer_
0001:0000b3c0  VarPrintText_
0001:0000b460  VarDelete_
0001:0000b530* VarDisplayIsHex_
0001:0000b540  VarDisplaySetHex_
0001:0000b570  VarDisplaySetArrayHex_
0001:0000b5b0* VarDisplayIsDecimal_
0001:0000b5c0  VarDisplaySetDecimal_
0001:0000b5f0  VarDisplaySetArrayDec_
0001:0000b630* VarDisplayIsChar_
0001:0000b640  VarDisplaySetChar_
0001:0000b660* VarDisplayIsString_
0001:0000b670  VarDisplaySetString_
0001:0000b690* VarDisplayIsPointer_
0001:0000b6a0  VarDisplaySetPointer_
0001:0000b6c0  VarBreakOnWrite_
0001:0000b6f0  VarAddWatch_
0001:0000b720  VarAddNodeToScope_
0001:0000b790* VarFindRootRow_
0001:0000b800  VarNewCurrRadix_
0001:0000b810* VarNewDisplayRadix_
0001:0000b820* VarGetOnTop_
0001:0000b840+ VarGetGadget_
0001:0000b8d0* VarSetGadget_
0001:0000b8e0* VarSetOnTop_
0001:0000bae0+ VarGetValue_
0001:0000bd60+ VarSetValue_
0001:0000c090  VarDeleteAllScopes_
0001:0000c0c0  VarDeleteAScope_
0001:0000c130  VarUnMap_
0001:0000c1b0  VarReMap_
0001:0000c250  VarInitInfo_
0001:0000c280  VarFiniInfo_
0001:0000c2b0  VarOkToCache_
0001:0000c2c0  VarKillExprSPCache_
0001:0000c2f0  VarInfoRefresh_
0001:0000c490  VarInspectPointer_
0001:0000c4d0  VarInspectMemory_
0001:0000c500* VarInspectCode_
0001:0000c530  VarIsLValue_
0001:0000c560+ VarGetDepths_
0001:0000c590  VarRefreshVisible_
0001:0000c6f0  VarDoAssign_
0001:0000c7a0  VarGetDisplayPiece_
0001:0000c930  VarParentIsArray_
0003:00007881  _VarError
Module: dbgvset.obj(/mnt/sda5/.user/root/src/openwatcom-1.9/bld/wv/c/dbgvset.c)
0001:0000c990+ Attributes_
0001:0000cf80  TypeSet_
0001:0000d0c0  TypeConf_
Module: dbgass.obj(/mnt/sda5/.user/root/src/openwatcom-1.9/bld/wv/c/dbgass.c)
0001:0000d2b0  InsMemRef_
Module: dbgimg.obj(/mnt/sda5/.user/root/src/openwatcom-1.9/bld/wv/c/dbgimg.c)
0001:0000d2e0  ImgSymName_
0001:0000d350  ImgSort_
Module: dbglist.obj(/mnt/sda5/.user/root/src/openwatcom-1.9/bld/wv/c/dbglist.c)
0001:0000d380  ConfigEvent_
0001:0000d390  ConfigCalls_
Module: dbgpend.obj(/mnt/sda5/.user/root/src/openwatcom-1.9/bld/wv/c/dbgpend.c)
0001:0000d4a0  DoProcPending_
0001:0000d4c0  ProcInput_
0001:0000d4f0  DoInput_
Module: ambigsym.obj(/mnt/sda5/.user/root/src/openwatcom-1.9/bld/wv/c/ambigsym.c)
0001:0000d520  SymPickText_
0001:0000d5c0  Disambiguate_
Module: addarith.obj(/mnt/sda5/.user/root/src/openwatcom-1.9/bld/wv/c/addarith.c)
0001:0000d750  AddAliasInfo_
0001:0000d7a0  FreeAliasInfo_
0001:0000d7d0  DeAlias_
0001:0000d800  AddrComp_
0001:0000d8d0  AddrAdd_
0001:0000d910  AddrAddWrap_
0001:0000d950  AddrDiff_
0001:0000d990  SameAddrSpace_
Module: dbgbrk.obj(/mnt/sda5/.user/root/src/openwatcom-1.9/bld/wv/c/dbgbrk.c)
0001:0000da70  InitBPs_
0001:0000db20  InsertBPs_
0001:0000dce0  RemoveBPs_
0001:0000dd40  GetBPAddr_
0001:0000ddc0  GetBPText_
0001:0000de80  FindBreakByLine_
0001:0000df10  FindBreak_
0001:0000e080  DispBPMsg_
0001:0000e5c0  ActPoint_
0001:0000e5e0  BrkEnableAll_
0001:0000e610  BrkDisableAll_
0001:0000e640  RemovePoint_
0001:0000e6c0  RemoveBreak_
0001:0000e6f0  BrkClearAll_
0001:0000e720  BPsDeac_
0001:0000e770  BPsUnHit_
0001:0000e7b0  RecordNewPoint_
0001:0000e7d0  RecordPointStart_
0001:0000e800  RecordClearPoint_
0001:0000e820  GetBreakOnImageCmd_
0001:0000e8a0+ ShowBPs_
0001:0000e900  ProcBreak_
0001:0000ecf0  CopySourceLine_
0001:0000ed30  GetBPSymAddr_
0001:0000edb0  SetPointAddr_
0001:0000efb0  BrkCheckWatchLimit_
0001:0000f230  AddBreak_
0001:0000f2c0  ToggleBreak_
0001:0000f380  BrkAddrRefresh_
0001:0000f3e0+ SetBPCountDown_
0001:0000f400* GetBPAutoDestruct_
0001:0000f410* SetBPAutoDestruct_
0001:0000f420* SetBPCondition_
0001:0000f470* SetBPPatch_
0001:0000f4f0* SetBPResume_
0001:0000f500* GetBPCountDown_
0001:0000f510* GetBPCondition_
0001:0000f530* GetBPPatch_
0001:0000f570* GetBPResume_
0001:0000f9c0  BreakWrite_
0001:0000fb10* BreakOnRawMemory_
0001:0000fb50  BreakOnExprSP_
0001:0000fbd0  PointFini_
0001:0000fcb0  CheckBPErrors_
0001:0000fcf0  BrkCmdError_
0001:0000fd20  CheckBPs_
0001:000100b0  UpdateWPs_
0001:00010110  InsertWPs_
0001:00010190  SaveBreaksToFile_
0001:000101c0  RestoreBreaksFromFile_
0001:00010220  FindFirstCue_
0001:00010250  BreakAllModEntries_
0001:00010360  ClearAllModBreaks_
0001:000103b0* GetRowAddrDirectly_
0001:00010440* GetBPAt_
0001:00010460* GetBPsCount_
Module: dbgcall.obj(/mnt/sda5/.user/root/src/openwatcom-1.9/bld/wv/c/dbgcall.c)
0001:000104a0  FiniCall_
0001:00010780  CallSet_
0001:00010790  CallConf_
0001:00010860  ProcCall_
Module: dbgcall2.obj(/mnt/sda5/.user/root/src/openwatcom-1.9/bld/wv/c/dbgcall2.c)
0001:00010ac0  FreezeRegs_
0001:00010b10  UnFreezeRegs_
0001:00010bd0  PerformExplicitCall_
0001:00010d30  PerformCall_
Module: dbgcmd.obj(/mnt/sda5/.user/root/src/openwatcom-1.9/bld/wv/c/dbgcmd.c)
0001:00010de0  DoCmd_
Module: dbgcmdln.obj(/mnt/sda5/.user/root/src/openwatcom-1.9/bld/wv/c/dbgcmdln.c)
0003:000079b4  _DownLoadTask
0001:00010df0+ SetupChar_
0001:00010e40* NextChar_
0001:00010e50+ OptError_
0001:00010ee0  HasEquals_
0001:00010f00+ WantEquals_
0001:00010f30* SkipSpaces_
0001:00010f40+ GetValueLong_
0001:00010fa0  GetValue_
0001:00010fd0  GetMemory_
0001:000110b0* GetItem_
0001:000110c0+ GetFileName_
0001:00011100+ GetRawItem_
0001:00011640  ProcCmd_
Module: dbgdot.obj(/mnt/sda5/.user/root/src/openwatcom-1.9/bld/wv/c/dbgdot.c)
0001:00011760  GetDotAddr_
0001:000117b0  SetCodeLoc_
0001:000117d0* SetDataLoc_
0001:000117f0  SetCodeDot_
0001:00011830  SetDataDot_
0001:00011860  GetCodeDot_
0001:00011890  GetDataDot_
Module: dbgexec.obj(/mnt/sda5/.user/root/src/openwatcom-1.9/bld/wv/c/dbgexec.c)
0001:000118f0  SetProgState_
0001:00011a10  SetMsgText_
0001:00011eb0  ExecProg_
0001:00012210  ReportTrap_
0001:00012360  Execute_
0001:000124b0  Go_
Module: dbgexpr.obj(/mnt/sda5/.user/root/src/openwatcom-1.9/bld/wv/c/dbgexpr.c)
0001:00012520  InitLC_
0001:00012610  CreateLC_
0001:00012650+ FreeLC_
0001:00012690  MoveLC_
0001:000126c0+ DupLC_
0001:000126e0  CreateEntry_
0001:00012750  AllocatedString_
0001:000127b0  DeleteEntry_
0001:000127f0  StkEntry_
0001:00012860  MoveSP_
0001:00012870  SwapStack_
0001:000128f0  FreezeStack_
0001:00012930  UnFreezeStack_
0001:000129a0+ DupStringVal_
0001:00012a10  DupStack_
0001:00012af0  PushName_
0001:00012b20  PushNum_
0001:00012b50  PushNum64_
0001:00012b80  PushRealNum_
0001:00012bc0  PushSymHandle_
0001:00012be0  ExprSetAddrInfo_
0001:00012c40  PushAddr_
0001:00012c80  PushLocation_
0001:00012cd0  CombineEntries_
0001:00012d30  MoveTH_
0001:00012d80  PushType_
0001:00012de0  PushInt_
0001:00012e40  PushString_
0001:00012e90  PopEntry_
0001:00012f60  TstEQ_
0001:00013070  TstLT_
0001:00013190  TstTrue_
0001:000131c0  TstExist_
0001:00013220  MakeAddr_
0001:000132c0  FreePgmStack_
0001:00013360  ExprPurge_
0001:000133c0  MarkArrayOrder_
0001:000133e0  StartSubscript_
0001:000133f0  AddSubscript_
0001:000134c0  EndSubscript_
0003:00001e00  _ExprSP
Module: dbgexpr2.obj(/mnt/sda5/.user/root/src/openwatcom-1.9/bld/wv/c/dbgexpr2.c)
0001:000135a0  ClassifyType_
0001:000135c0  ClassifyEntry_
0001:000136c0  ExprGetSymList_
0001:00013730  ExprSymbol_
0001:000137b0  NameResolve_
0001:00013810  SymResolve_
0001:00013930  LValue_
0001:00013980  ClassNum_
0001:00013af0  ExprResolve_
0001:00013c80  LRValue_
0001:00013ec0  RValue_
0001:00013ee0  ExprValue_
Module: dbgexpr3.obj(/mnt/sda5/.user/root/src/openwatcom-1.9/bld/wv/c/dbgexpr3.c)
0001:00013f60+ ConvIdx_
0001:000140a0  FromItem_
0001:000142d0  ToItem_
0001:00014ad0  ConvertTo_
0001:00014e40  BinOp_
0001:00014e60  AddOp_
0001:00014e80  ToItemMAD_
Module: dbgexpr4.obj(/mnt/sda5/.user/root/src/openwatcom-1.9/bld/wv/c/dbgexpr4.c)
0001:00014f70  DoPlus_
0001:000150e0  DoMinus_
0001:00015280  DoMul_
0001:000153c0  DoDiv_
0001:000155e0  DoMod_
0001:00015690  DoAnd_
0001:00015700  DoOr_
0001:00015770  DoXor_
0001:000157e0  DoShift_
0001:00015890  DoAddr_
0001:00015950  DoAPoints_
0001:00015a70  DoPoints_
0001:00015c00  DoConvert_
0001:00015c40  DoLConvert_
0001:00015cf0  DoMakeComplex_
0001:00015dd0  DoStringConcat_
0001:00015eb0  DoGivenField_
0001:00015fa0  DoField_
0001:00016210  DoScope_
0001:00016350  DoAssign_
0001:000169c0  DoCall_
Module: dbgfile.obj(/mnt/sda5/.user/root/src/openwatcom-1.9/bld/wv/c/dbgfile.c)
0001:00017080  RealFName_
0001:00017100  FileLoc_
0001:000171a0  ReadStream_
0001:000171a0  ReadText_
0001:000171c0  WriteStream_
0001:000171e0  WriteText_
0001:00017220  SeekStream_
0001:00017250  FileOpen_
0001:000172f0  FileClose_
0001:00017320  FileRemove_
0001:00017350  WriteToPgmScreen_
0001:00017370  FileHandleInfo_
0001:00017380  SysErrMsg_
0001:000173c0  StashErrCode_
0001:00017400* GetLastErr_
0001:00017410* GetSystemErrCode_
0001:00017420  GetSystemHandle_
0001:00017430  IsAbsolutePath_
0001:00017490  AppendPathDelim_
0001:000174e0  SkipPathInfo_
0001:00017520  ExtPointer_
0001:00017580  MakeFileName_
0001:000176b0  LclStringToFullName_
0001:000178c0  FullPathOpen_
0001:000178d0  LocalFullPathOpen_
0001:00017950  FindWritable_
0001:00017ad0  PathOpen_
0001:00017ae0  LocalPathOpen_
0001:00017af0  SysFileInit_
0001:00017b40  PathFini_
0001:00017bd0  PathInit_
Module: dbghook.obj(/mnt/sda5/.user/root/src/openwatcom-1.9/bld/wv/c/dbghook.c)
0001:00017c30  InitHook_
0001:00017c40  FiniHook_
0001:00017c70  ProcHook_
0001:00017cf0  ConfigHook_
0001:00017d70  HookNotify_
0001:00017de0  HookPendingPush_
Module: dbginvk.obj(/mnt/sda5/.user/root/src/openwatcom-1.9/bld/wv/c/dbginvk.c)
0001:00017e90  ImplicitSet_
0001:00017ec0  ImplicitConf_
0001:000182b0  Invoke_
0001:00018360  ProfileInvoke_
0001:00018480  CreateInvokeFile_
0001:000184a0  InvokeAFile_
0001:000184b0  ProcInvoke_
Module: dbglkup.obj(/mnt/sda5/.user/root/src/openwatcom-1.9/bld/wv/c/dbglkup.c)
0001:000185a0  InitLook_
0001:000185f0  FiniLook_
0001:00018600  LookCaseSet_
0001:00018640  LookSet_
0001:00018880  LookConf_
0001:00018910  Lookup_
0001:00018a10  LookupModName_
0001:00018ae0  LookupImageName_
0001:00018b60  LookupSymList_
0001:00018d40  FreeSymHandle_
0001:00018d70  PurgeSymHandles_
0001:00018ea0  FindNullSym_
0001:00018ec0  SetWDPresent_
Module: dbgloc.obj(/mnt/sda5/.user/root/src/openwatcom-1.9/bld/wv/c/dbgloc.c)
0001:00018f20  LocationCreate_
0001:00018f60  LocationAppend_
0001:00018fa0  LocationSet_
0001:00018fd0  LocationAdd_
0001:00019ac0  LocationAssign_
Module: dbglog.obj(/mnt/sda5/.user/root/src/openwatcom-1.9/bld/wv/c/dbglog.c)
0001:00019b90  LogInit_
0001:00019ba0  LogFini_
0001:00019bc0  LogLine_
0001:00019c70  LogStart_
0001:00019c80  LogEnd_
0001:00019cd0  ProcLog_
Module: dbgmain.obj(/mnt/sda5/.user/root/src/openwatcom-1.9/bld/wv/c/dbgmain.c)
0001:00019db0  GetCmdName_
0001:00019dd0+ DebugInit_
0001:00019f00  ReportTask_
0001:00019f90  ChkBreak_
0001:00019fb0  ProcACmd_
0001:0001a180  DebugMain_
0001:0001a200  DebugExit_
0001:0001a210  DebugFini_
0001:0001a2c0  InitCapabilities_
0001:0001a320+ CapabilitiesGet8ByteBreakpointSupport_
0001:0001a3b0+ CapabilitiesSet8ByteBreakpointSupport_
0001:0001a450+ CapabilitiesGetExactBreakpointSupport_
0001:0001a4e0  CapabilitiesSetExactBreakpointSupport_
0003:000021a8+ _SuppCapabilitiesId
Module: dbgmem.obj(/mnt/sda5/.user/root/src/openwatcom-1.9/bld/wv/c/dbgmem.c)
0001:0001a590  ChangeMemUndoable_
0001:0001a630  ProgPeekWrap_
0001:0001a6d0  ItemSize_
0001:0001a910  ItemGetMAD_
0001:0001a940  ItemPutMAD_
Module: memtypes.obj(/mnt/sda5/.user/root/src/openwatcom-1.9/bld/wv/c/memtypes.c)
0001:0001aa80  MemInitTypes_
0001:0001aaf0  MemFiniTypes_
0001:0001ab40  GetMADMaxFormatWidth_
Module: dbgmisc.obj(/mnt/sda5/.user/root/src/openwatcom-1.9/bld/wv/c/dbgmisc.c)
0001:0001ac10  Flip_
0001:0001ac40  ProcFlip_
0001:0001aca0  ConfigFlip_
0001:0001acf0  ProcRemark_
0001:0001ad20  ProcDo_
0001:0001ad30  ProcAssign_
0001:0001adb0  GoToAddr_
0001:0001ae00  StepIntoFunction_
0001:0001ae40  SkipToAddr_
0001:0001ae90  GoToReturn_
0001:0001aef0  ProcGo_
0001:0001b190  ProcSkip_
0001:0001b1c0  ProcIf_
0001:0001b2a0  ProcWhile_
0001:0001b320  ProcError_
0001:0001b390  ProcQuit_
0001:0001b410  MakeThdCurr_
0001:0001b530  IsThdCurr_
0001:0001b620  GetNextTID_
0001:0001b670  NameThread_
0001:0001b750  CheckForNewThreads_
0001:0001b7c0  FindThread_
0001:0001b7e0  ProcThread_
0001:0001b910  FreeThreads_
Module: dbgovl.obj(/mnt/sda5/.user/root/src/openwatcom-1.9/bld/wv/c/dbgovl.c)
0001:0001b940  InitOvlState_
0001:0001ba10  FiniOvlState_
0001:0001ba50  InvalidateTblCache_
0001:0001ba60  SectIsLoaded_
0001:0001baf0  SectLoad_
0001:0001bb70  SectTblRead_
0001:0001bb90  SetStateOvlSect_
0001:0001bbb0  TransOvlRetAddr_
0001:0001bbd0  RemapSection_
0001:0001bbf0  AddrSection_
0001:0001bc70  AddrFix_
0001:0001bcb0  AddrFloat_
Module: dbgparse.obj(/mnt/sda5/.user/root/src/openwatcom-1.9/bld/wv/c/dbgparse.c)
0001:0001bd50  SetUpExpr_
0001:0001bd60  EvalLValExpr_
0001:0001bd80  EvalExpr_
0001:0001bda0  NormalExpr_
0001:0001bdc0  ChkExpr_
0001:0001bde0  ReqU64Expr_
0001:0001be50  ReqLongExpr_
0001:0001be70  ReqExpr_
0001:0001be90  OptExpr_
0001:0001bed0  MakeMemoryAddr_
0001:0001bf80  ReqMemAddr_
0001:0001bfd0  CallExpr_
0001:0001c020  OptMemAddr_
0001:0001c050  SetTokens_
0001:0001c070  LangInit_
0001:0001c090  LangFini_
0001:0001c190  LangLoad_
Module: dbgprint.obj(/mnt/sda5/.user/root/src/openwatcom-1.9/bld/wv/c/dbgprint.c)
0001:0001c1c0  StartPrintBuff_
0001:0001c250  EndPrintBuff_
0001:0001c8f0  PrintChar_
0001:0001ca10  PrintString_
0001:0001ca20  ForcePrintString_
0001:0001d3a0  PrintValue_
0001:0001d6a0  DoPrintList_
0001:0001d6d0  ChkPrintList_
0001:0001d740  ProcPrint_
Module: dbgreg.obj(/mnt/sda5/.user/root/src/openwatcom-1.9/bld/wv/c/dbgreg.c)
0001:0001d7e0  DefAddr_
0001:0001d880  GetRegIP_
0001:0001d8b0  SetRegIP_
0001:0001d8f0  RecordSetRegIP_
0001:0001d940  SetRegSP_
0001:0001d970+ SetRegBP_
0001:0001d9a0  GetRegSP_
0001:0001d9e0  GetRegBP_
0001:0001db20  SetMemBefore_
0001:0001db50  SetMemAfter_
0001:0001dc90  ResizeRegData_
0001:0001de90  ClearMachState_
0001:0001df20  InitMachState_
0001:0001df70  FiniMachState_
0001:0001dfa0  SetupMachState_
0001:0001e030  CopyMachState_
0001:0001e0a0  AllocMachState_
0001:0001e100  FreeMachState_
0001:0001e120  CollapseMachState_
0001:0001e1d0  CheckStackPos_
0001:0001e250  AdvMachState_
0001:0001e360  ChangeMem_
0001:0001e450  UndoLevel_
0001:0001e4a0  SetStackPos_
0001:0001e5a0  GetStackPos_
0001:0001e6a0  LastMachState_
0001:0001e6b0  PosMachState_
0001:0001e820  LastStackPos_
0001:0001e830  MoveStackPos_
0001:0001e860  ProcRegister_
0001:0001e8a0  ProcUndo_
0001:0001e900* GetActionString_
0001:0001e940* GetUndoString_
0001:0001e960* GetRedoString_
0001:0001e990  ProcStackPos_
0001:0001e9d0  GoHome_
0001:0001ea10  ParseRegSet_
0001:0001eb00  RegValue_
0001:0001eb50  RegNewValue_
0003:00002260  _CurrRegSize
Module: dbgscan.obj(/mnt/sda5/.user/root/src/openwatcom-1.9/bld/wv/c/dbgscan.c)
0001:0001ed60  InitScan_
0001:0001edb0  FiniScan_
0001:0001ede0  ScanPos_
0001:0001edf0  ScanLen_
0001:0001ee00  ScanCmd_
0001:0001ef90  ScanType_
0001:0001f000  ScanCall_
0001:0001f080  ScanEOC_
0001:0001f0f0  TokenName_
0001:0001f1f0  Recog_
0001:0001f250  ScanQuote_
0001:0001f2c0  ScanItem_
0001:0001f380  ReqEOC_
0001:0001f3b0  FlushEOC_
0001:0001f6f0  NamePos_
0001:0001f700  NameLen_
0001:0001f880  ScanExpr_
0001:0001f8b0  AddChar_
0001:0001f8c0  AddCEscapeChar_
0001:0001f8e0  AddActualChar_
0001:0001fa50  RawScanInit_
0001:0001fa70  RawScanChar_
0001:0001fa80  RawScanAdvance_
0001:0001faa0  RawScanFini_
0001:0001fab0  Scan_
0001:0001fae0  IntNumVal_
0001:0001fb10  RealNumVal_
0001:0001fb40  NewCurrRadix_
0001:0001fb60  SetCurrRadix_
0001:0001fb80  RestoreRadix_
0001:0001fba0  ReScan_
0001:0001fbc0  DefaultRadixSet_
0001:0001fbe0  RadixSet_
0001:0001fc80  RadixConf_
0001:0001fcb0  FindRadixSpec_
0001:0001fcf0  AddHexSpec_
0001:0001fd60  ForceSym2Num_
0003:00002276  _scan_string
0003:00002278  _StringStart
0003:0000227c  _StringLength
0003:00002280  _ScanCCharNum
Module: dbgshow.obj(/mnt/sda5/.user/root/src/openwatcom-1.9/bld/wv/c/dbgshow.c)
0001:0001fdf0  GetCmdEntry_
0001:0001fe30  ConfigCmdList_
0001:0001ff40  ConfigLine_
0001:0001ffb0  DoConfig_
0001:000200e0  ProcShow_
0001:00020140  SaveConfigToFile_
0001:00020150  RestoreConfigFromFile_
Module: dbgsrc.obj(/mnt/sda5/.user/root/src/openwatcom-1.9/bld/wv/c/dbgsrc.c)
0001:00020160  FreeRing_
0001:00020180  InitSource_
0001:00020190  FiniSource_
0001:000201b0  DeleteRing_
0001:00020200  InsertRing_
0001:00020250  RingEnd_
0001:00020260  AddSourceSpec_
0001:00020290  SourceName_
0001:000202a0  NextSourceSpec_
0001:000202b0  SourceSet_
0001:00020380  SourceConf_
0001:000203e0  OpenSrcFile_
Module: dbgstdio.obj(/mnt/sda5/.user/root/src/openwatcom-1.9/bld/wv/c/dbgstdio.c)
0001:00020620  StdInNew_
0001:00020630  StdOutNew_
Module: dbgsys.obj(/mnt/sda5/.user/root/src/openwatcom-1.9/bld/wv/c/dbgsys.c)
0001:00020640  DoSystem_
0001:000206d0  ProcSystem_
Module: dbgutil.obj(/mnt/sda5/.user/root/src/openwatcom-1.9/bld/wv/c/dbgutil.c)
0001:00020750  DefaultSize_
0001:00020870  CnvULongHex_
0001:00020890  CnvLongDec_
0001:000208b0  CnvULongDec_
0001:000208d0  CnvLong_
0001:000208f0  CnvULong_
0001:00020910  AddrTypeToString_
0001:00020980  AddrToIOString_
0001:000209c0  AddrToString_
0001:00020a00  QualifiedSymName_
0001:00020ae0  CnvAddr_
0001:00020c40  CnvNearestAddr_
0001:00020c90  StrAddr_
0001:00020cc0  UniqStrAddr_
0001:00020cf0  LineAddr_
0001:00020d90  Ring_
0001:00020da0  Warn_
0001:00020e00  AllocCmdList_
0001:00020e40  FreeCmdList_
0001:00020e60  LockCmdList_
0001:00020e70  TypeInpStack_
0001:00020e90  ClearInpStack_
0001:00020eb0  SetInpStack_
0001:00020ed0  PopInpStack_
0001:00020f30  PushInpStack_
0001:00021000  CopyInpFlags_
0001:00021060  PushCmdList_
0001:00021080  PurgeInpStack_
0001:000210c0  FreezeInpStack_
0001:000210e0  UnAsm_
0001:00021130  ModImageName_
0001:00021160  DupStrLen_
0001:000211b0  DupStr_
0001:000211f0  RegFindData_
Module: dbg_dbg.obj(/mnt/sda5/.user/root/src/openwatcom-1.9/bld/wv/c/dbg_dbg.c)
0001:000212a0  LookupRegName_
0001:00021300  LookupInternalName_
0001:00021380  LookupUserName_
0001:000213e0  PurgeUserNames_
0001:00021420  CreateSym_
0001:000215c0  InternalValue_
Module: dbgprog.obj(/mnt/sda5/.user/root/src/openwatcom-1.9/bld/wv/c/dbgprog.c)
0001:00021800  InitCmd_
0001:00021990  FindLocalDebugInfo_
0001:00021b50* DownLoadCode_
0001:00021b60  FiniCmd_
0001:00021b70  InitLocalInfo_
0001:00021b80  FiniLocalInfo_
0001:00021ba0  ImagePrimary_
0001:00021bb0  ImageEntry_
0001:00021bc0  DefAddrSpaceForMod_
0001:00021c30  DefAddrSpaceForAddr_
0001:00021cc0  MapAddrForImage_
0001:00021da0  UnMapAddress_
0001:00021ea0  UnMapPoints_
0001:00021ee0  FreeImage_
0001:00022070  GetLastImageName_
0001:00022500  UnLoadSymInfo_
0001:00022540  ReLoadSymInfo_
0001:00022570  ReMapImageAddress_
0001:000225e0+ ReMapAddress_
0001:000227b0  ReMapPoints_
0001:00022880* LoadDeferredSymbols_
0001:000228e0  AddLibInfo_
0001:000229f0  SetProgStartHook_
0001:00022bf0  LoadProg_
0001:00022c80  ReleaseProgOvlay_
0001:00022d30  InitMappableAddr_
0001:00022d40  FiniMappableAddr_
0001:00022d60  GetProgName_
0001:00022f20  GetProgArgs_
0001:00022f30* SetSymName_
0001:00023040  LoadNewProg_
0001:000233d0  ReStart_
0001:00023a10  SymUserModLoad_
0001:00023af0  SymUserModUnload_
0001:00023b40  ProcNew_
0001:00023b70  RecordNewProg_
0003:00008460+ _LocalDebugInfo
Module: strutil.obj(/mnt/sda5/.user/root/src/openwatcom-1.9/bld/wv/c/strutil.c)
0001:00023c30  StrCopy_
0001:00023c50  StrTrim_
0001:00023c90  FmtStr_
0001:00023fd0  Format_
Module: stub.obj(/mnt/sda5/.user/root/src/openwatcom-1.9/bld/wv/c/stub.c)
0001:00024000* __RAISE
0001:00024010* _matherr_
Module: dbgwalk.obj(/mnt/sda5/.user/root/src/openwatcom-1.9/bld/wv/c/dbgwalk.c)
0001:000240d0  SSLWalk_
Module: dynmem.obj(/mnt/sda5/.user/root/src/openwatcom-1.9/bld/wv/c/dynmem.c)
0001:00024320  __nmemneed_
0001:00024350* ExtraAlloc_
0001:00024350  DbgAlloc_
0001:00024360  DbgMustAlloc_
0001:00024390* ExtraRealloc_
0001:00024390  DbgRealloc_
0001:000243a0  DbgFree_
0001:000243b0  ChkAlloc_
0001:000243d0  MemFini_
0001:000244b0  MemExpand_
0001:000244b0  MemInit_
0001:00024510* ExtraFree_
Module: dbgsem.obj(/mnt/sda5/.user/root/src/openwatcom-1.9/bld/wv/c/dbgsem.c)
0003:00008ce4  _ScanSavePtr
0001:00025b60* SemAllowClosestLine_
0001:000260e0  SSLSemantic_
0001:000261a0  SSLError_
0001:000261d0  SSLOutToken_
0001:00026300  SSLNextToken_
0001:00026310  SSLCurrToken_
Module: dbgtrace.obj(/mnt/sda5/.user/root/src/openwatcom-1.9/bld/wv/c/dbgtrace.c)
0001:00026320  ResizeTraceData_
0001:00026420  TraceStart_
0001:00026440  TraceHow_
0001:00026560  TraceSimulate_
0001:000265a0  TraceModifications_
0001:000265f0  TraceStop_
0001:00026600  TraceKill_
0001:00026650  SourceStep_
0001:000268a0+ CheckForDLLThunk_
0001:00026930  TraceCheck_
0001:00026da0+ PerformTrace_
0001:00026fb0  HasLineInfo_
0001:00027000  ExecTrace_
0001:00027120  ProcTrace_
0001:00027220  FiniTrace_
0001:00027260  LevelSet_
0001:000272b0  LevelConf_
Module: dbgexins.obj(/mnt/sda5/.user/root/src/openwatcom-1.9/bld/wv/c/dbgexins.c)
0001:000272e0  AsmExam_
0001:00027310  SrcExam_
Module: dbgexdat.obj(/mnt/sda5/.user/root/src/openwatcom-1.9/bld/wv/c/dbgexdat.c)
0001:00027480  ProcExamine_
Module: dbgmodfy.obj(/mnt/sda5/.user/root/src/openwatcom-1.9/bld/wv/c/dbgmodfy.c)
0001:000275e0  ProcModify_
Module: dbgtback.obj(/mnt/sda5/.user/root/src/openwatcom-1.9/bld/wv/c/dbgtback.c)
0001:00027680  FixOvlRetAddr_
0001:000276c0  WalkCallChain_
0001:000278f0  ReturnAddress_
Module: dbgerr.obj(/mnt/sda5/.user/root/src/openwatcom-1.9/bld/wv/c/dbgerr.c)
0001:00027930  Error_
0001:00027b60  PrevError_
Module: namelist.obj(/mnt/sda5/.user/root/src/openwatcom-1.9/bld/wv/c/namelist.c)
0001:00027f00  NameListAddModules_
0001:00027fd0  NameListInit_
0001:00027ff0  NameListFree_
0001:00028020  NameListNumRows_
0001:00028030  NameListName_
0001:00028090  NameListAddr_
0001:000280e0  NameListHandle_
Module: modlist.obj(/mnt/sda5/.user/root/src/openwatcom-1.9/bld/wv/c/modlist.c)
0001:000280f0  ModHasSourceInfo_
0001:000281c0  ModCompare_
0001:00028270  ModListAddModules_
0001:00028300  ModListInit_
0001:00028340  ModListFree_
0001:00028370  ModListNumRows_
0001:00028380  ModListMod_
0001:000283a0  ModListName_
0001:000283d0  ModFirstAddr_
Module: sortlist.obj(/mnt/sda5/.user/root/src/openwatcom-1.9/bld/watcom/c/sortlist.c)
0001:00028600  SortLinkedList_
Module: remmisc.obj(/mnt/sda5/.user/root/src/openwatcom-1.9/bld/wv/c/remmisc.c)
0003:00008d4c  _MaxPacketLen
0001:00028640  InitSuppServices_
0001:00028670  FiniSuppServices_
0001:00028680  InitTrap_
0001:00028800  GetSuppId_
0001:00028880  RemoteSuspend_
0001:000288b0  RemoteResume_
0001:000288e0  RemoteErrMsg_
0001:00028910  FiniTrap_
Module: remcore.obj(/mnt/sda5/.user/root/src/openwatcom-1.9/bld/wv/c/remcore.c)
0001:00028a80  FiniCache_
0001:00028aa0  InitCache_
0001:00028b10* HaveCache_
0001:00028bb0  ProgPeek_
0001:00028bf0  ProgPoke_
0001:00028d00* ProgChkSum_
0001:00028d60  PortPeek_
0001:00028da0  PortPoke_
0001:00028e50  ReadDbgRegs_
0001:00028e80  WriteDbgRegs_
0001:00028ef0+ ArgsLen_
0001:00028f10  ClearMachineDataCache_
0001:00028f40  DoLoad_
0001:000290a0  KillProgOvlay_
0001:00029130  MakeProgRun_
0001:00029210  Redirect_
0001:000292a0  RemoteMapAddr_
0001:00029310  RemoteSetUserScreen_
0001:00029340  RemoteSetDebugScreen_
0001:00029370  RemoteReadUserKey_
0001:000293a0  RemoteGetLibName_
0001:00029400  RemoteGetMsgText_
0001:00029460  RemoteMachineData_
0001:000295e0  RemoteSetBreak_
0001:00029630  RemoteRestoreBreak_
0001:00029680  RemoteSetWatch_
0001:000296f0  RemoteRestoreWatch_
0001:00029740  RemoteSplitCmd_
0001:000297c0  CheckSegAlias_
0001:00029810  GetSysConfig_
0001:00029840  InitCoreSupp_
0001:00029890  FiniCoreSupp_
0001:000298c0  TrapClientString_
Module: remfinfo.obj(/mnt/sda5/.user/root/src/openwatcom-1.9/bld/wv/c/remfinfo.c)
0001:000298f0  InitFileInfoSupp_
0001:00029910  RemoteGetFileDate_
0001:000299d0  RemoteSetFileDate_
Module: remenv.obj(/mnt/sda5/.user/root/src/openwatcom-1.9/bld/wv/c/remenv.c)
0001:00029a70  InitEnvSupp_
0001:00029a90* RemoteSetEnvironmentVariable_
0001:00029b50* RemoteGetEnvironmentVariable_
Module: remfile.obj(/mnt/sda5/.user/root/src/openwatcom-1.9/bld/wv/c/remfile.c)
0001:00029c00+ GetCachedHandle_
0001:00029c40+ InitHandleCache_
0001:00029c70+ AddCachedHandle_
0001:00029cb0+ DelCachedHandle_
0001:00029d00  InitFileSupp_
0001:00029d50  HaveRemoteFiles_
0001:00029d60  RemoteStringToFullName_
0001:00029e60  RemoteOpen_
0001:0002a000  MaxRemoteWriteSize_
0001:0002a080  RemoteWrite_
0001:0002a0a0  RemoteWriteConsole_
0001:0002a160* MaxRemoteReadSize_
0001:0002a170  RemoteRead_
0001:0002a200  RemoteSeek_
0001:0002a290  RemoteClose_
0001:0002a310  RemoteErase_
0001:0002a3b0  RemoteFork_
0003:00008df0  _RemFile
Module: remthrd.obj(/mnt/sda5/.user/root/src/openwatcom-1.9/bld/wv/c/remthrd.c)
0001:0002a430  InitThreadSupp_
0001:0002a450  RemoteGetNextThread_
0001:0002a4c0  RemoteSetThreadWithErr_
0001:0002a540  RemoteSetThread_
0001:0002a550  RemoteFreezeThread_
0001:0002a5a0  RemoteThawThread_
0001:0002a5f0  RemoteThdName_
0003:00008df8+ _SuppThreadId
Module: removl.obj(/mnt/sda5/.user/root/src/openwatcom-1.9/bld/wv/c/removl.c)
0001:0002a640  InitOvlSupp_
0001:0002a660  RemoteOvlSectSize_
0001:0002a6b0  RemoteOvlSectPos_
0001:0002a7b0  RemoteSectTblRead_
0001:0002a7f0  RemoteSectTblWrite_
0001:0002a850  RemoteOvlTransAddr_
0001:0002a910  RemoteOvlRetAddr_
Module: ldsupp.obj(/mnt/sda5/.user/root/src/openwatcom-1.9/bld/wv/c/ldsupp.c)
0001:0002a9d0  LDToD_
0001:0002aa00  DToLD_
0001:0002aa30  LDToS_
0001:0002aa80  SToLD_
0001:0002aaa0  LDCmp_
0001:0002aae0  LDAdd_
0001:0002ab10  LDSub_
0001:0002ab40  LDMul_
0001:0002ab70  LDDiv_
Module: doserr.obj(/mnt/sda5/.user/root/src/openwatcom-1.9/bld/wv/c/doserr.c)
0001:0002aba0  GetDOSErrMsg_
0003:0000239c+ _DosErrMsgs
Module: diginter.obj(/mnt/sda5/.user/root/src/openwatcom-1.9/bld/wv/c/diginter.c)
0001:0002abd0  DIGCliAlloc_
0001:0002abe0  DIGCliRealloc_
0001:0002abf0  DIGCliFree_
0001:0002ac00  DIGCliOpen_
0001:0002ac10  DIGCliSeek_
0001:0002ac20  DIGCliRead_
0001:0002ac30  DIGCliWrite_
0001:0002ac40  DIGCliClose_
0001:0002ac50  DIGCliRemove_
0001:0002ac60  DIGCliMachineData_
Module: dipinter.obj(/mnt/sda5/.user/root/src/openwatcom-1.9/bld/wv/c/dipinter.c)
0001:0002aca0  DIPCliImageUnload_
0001:0002acc0  DIPCliMapAddr_
0001:0002acd0  DIPCliSymCreate_
0001:0002ad00  MadTypeToDipTypeInfo_
0001:0002ad70  RegLocation_
0001:0002add0  DIPCliItemLocation_
0001:0002b040  DIPCliAssignLocation_
0001:0002b050  DIPCliSameAddrSpace_
0001:0002b080  DIPCliAddrSection_
0001:0002b090  DIPCliStatus_
0001:0002b0a0  DIPCliCurrMAD_
0001:0002b0b0  DeAliasAddrMod_
0001:0002b0e0  DeAliasAddrSym_
0001:0002b110  DeAliasAddrScope_
0001:0002b140  DeAliasAddrCue_
0001:0002b3f0+ WVSymFreeAll_
0001:0002b3f0+ WVSymRelease_
0001:0002b3f0+ WVSymAddRef_
0001:0002b3f0+ WVTypeFreeAll_
0001:0002b3f0+ WVTypeRelease_
0001:0002b3f0+ WVTypeAddRef_
0001:0002b560  DIPMsgText_
0001:0002b5e0  InitDbgInfo_
0001:0002b700  FiniDbgInfo_
0001:0002b710  IsInternalMod_
0001:0002b720  IsInternalModName_
Module: madinter.obj(/mnt/sda5/.user/root/src/openwatcom-1.9/bld/wv/c/madinter.c)
0001:0002b740  MADCliAddrSection_
0001:0002b750  MADCliAddrOvlReturn_
0001:0002b760  MADCliAddrToString_
0001:0002b7d0  MADCliMemExpr_
0001:0002b830  MADCliReadMem_
0001:0002b860  MADCliWriteMem_
0001:0002b890  MADCliString_
0001:0002b8f0  MADCliAddString_
0001:0002b900  MADCliRadixPrefix_
0001:0002b9a0  MADCliNotify_
0001:0002ba00  MADCliSystemConfig_
0001:0002ba10  InitMADInfo_
0001:0002ba30  FiniMADInfo_
0001:0002ba40  GetMADTypeHandleDefaultAt_
0001:0002ba70  GetMADTypeDefaultAt_
0001:0002baa0  GetMADTypeDefault_
0001:0002bb00  ReportMADFailure_
0001:0002bc10  CheckMADChange_
0001:0002bd40  GetMADNormalizedString_
0001:0002bd60  GetMADTypeNameForCmd_
0001:0002bdb0  FindMADTypeHandle_
0001:0002be60  FindMAD_
Module: dbglit.obj(/mnt/sda5/.user/root/src/openwatcom-1.9/bld/wv/c/dbglit.c)
0001:0002be90  InitLiterals_
0001:0002bea0  FiniLiterals_
Module: dbginsty.obj(/mnt/sda5/.user/root/src/openwatcom-1.9/bld/wv/c/dbginsty.c)
0001:0002beb0  BreakOnSelected_
0001:0002bee0  ScanSelectedExpr_
0001:0002bf30  WndGetExprSPInspectType_
0001:0002c0d0  WndEvalInspectExpr_
Module: dbgdata.obj(/mnt/sda5/.user/root/src/openwatcom-1.9/bld/wv/c/dbgdata.c)
0003:00008e10  _DbgTmpBrk
0003:00008e80  _SysConfig
0003:00008e88  _UserTmpBrk
0003:00008ef8  _NilAddr
0003:00008f00  _PgmStackUsage
0003:00008f28  _DipFiles
0003:00008f50  _Context
0003:00009040  _TxtBuff
0003:00009044  _NameBuff
0003:00009048  _SrchHistory
0003:0000904c  _InpStack
0003:00009050  _ContextMod
0003:00009054  _CodeAddrMod
0003:00009058  _ExecThd
0003:0000905c  _MemSize
0003:00009060  _OvlSize
0003:00009064  _CheckSize
0003:00009068  _CmdStart
0003:0000906c  _CmdHistory
0003:00009070  _DbgImageList
0003:00009074  _TaskId
0003:00009078  _SkipCount
0003:0000907c  _BrkList
0003:00009080  _HeadThd
0003:00009084  _InvCount
0003:00009088  _InvokeFile
0003:0000908c  _DbgRegs
0003:00009090  _SrcSpec
0003:00009094  _ExprAddrDepth
0003:00009098  _PrevRegs
0003:0000909c  _TrpFile
0003:000090a0  _InitCmdList
0003:000090a4  _DbgSwitches
0003:000090b0  _DIPStatus
0003:000090b2  _CurrRadix
0003:000090b3  _DbgLevel
0003:000090b4  _ActiveWindowLevel
0003:00002688  _Supports8ByteBreakpoints
0003:0000268c  _SupportsExactBreakpoints
0003:00002690  _Language
0003:00002694  _NestedCallLevel
0003:00002698  _WndFlags
0003:0000269c  _DbgBuffers
0003:00002ac6  _OnOffNameTab
0003:000090b5  _DefRadix
0003:000090b6  _CurrToken
0003:000090b7  _ScrnState
Module: dbgevent.obj(/mnt/sda5/.user/root/src/openwatcom-1.9/bld/wv/c/dbgevent.c)
0001:0002c210  RecordInit_
0001:0002c220  RecordFini_
0001:0002c250  ShowReplay_
0001:0002c2a0  OkToSaveReplay_
0001:0002c2c0  SaveReplayToFile_
0001:0002c2d0  RestoreReplayFromFile_
0001:0002c380  ProcRecord_
0001:0002c400  RecordStart_
0001:0002c430  ReplayTo_
0001:0002c500  CheckEventRecorded_
0001:0002c530  RecordEvent_
0001:0002c670  RecordAsynchEvent_
0001:0002c690  RecordGo_
0001:0002c6c0  RecordCommand_
0001:0002c720  SetRecord_
0001:0002c740  GetEventAddress_
0003:000090bc  _EventList
Module: dbgdll.obj(/mnt/sda5/.user/root/src/openwatcom-1.9/bld/wv/c/dbgdll.c)
0001:0002c7a0  DLLMatch_
0001:0002c810  DLLListName_
0001:0002c820  NextDLLList_
0001:0002c830  AddDLLList_
0001:0002c870  BreakOnImageLoad_
0001:0002c8d0  InitDLLList_
0001:0002c8e0  FiniDLLList_
0001:0002c900  RecordClearDLLBreaks_
0001:0002c940  RecordSetDLLBreaks_
0003:000090c0  _DLLList
Module: dlgscan.obj(/mnt/sda5/.user/root/src/openwatcom-1.9/bld/wv/c/dlgscan.c)
0001:0002cae0  DlgScanLong_
0001:0002caf0* DlgScanSyntax_
0001:0002cb10  DlgScanCodeAddr_
0001:0002cb20  DlgScanDataAddr_
0001:0002cb30  DlgScanGivenAddr_
0001:0002cb40  DlgScanAny_
0001:0002cb50  DlgScanString_
0001:0002cb80  DlgScanModName_
Module: dbgset.obj(/mnt/sda5/.user/root/src/openwatcom-1.9/bld/wv/c/dbgset.c)
0001:0002cb90  SwitchOnOff_
0001:0002cbf0  ProcSet_
0001:0002cc10  ConfigSet_
0001:0002cdc0  ShowSwitch_
0001:0002cdf0  LangSetInit_
0001:0002ce50  LangSetFini_
0001:0002ce60  NewLang_
0001:0002d500  PendingToggles_
0001:0002dc30  SupportFini_
0001:0002dd90  IsSupportRoutine_
Module: srcmgt.obj(/mnt/sda5/.user/root/src/openwatcom-1.9/bld/watcom/c/srcmgt.c)
0001:0002de70  FClearOpenSourceCache_
0001:0002de90  FOpenSource_
0001:0002df20  FSize_
0001:0002df50  FLastOffset_
0001:0002df70  FileIsRemote_
0001:0002df90  FGetName_
0001:0002dfa0  FDoneSource_
0001:0002e1b0  FCurrLine_
0001:0002e1c0  FReadLine_
0003:00002d1c+ _FileList
Module: dbgupdt.obj(/mnt/sda5/.user/root/src/openwatcom-1.9/bld/wv/c/dbgupdt.c)
0001:0002e320  DbgUpdate_
Module: symcomp.obj(/mnt/sda5/.user/root/src/openwatcom-1.9/bld/wv/c/symcomp.c)
0001:0002e430  SymCompInit_
0001:0002e540  SymCompFini_
0001:0002e570  SymCompMatches_
0003:00002d20+ _SortedNames
Module: litengin.obj(/mnt/sda5/.user/root/src/openwatcom-1.9/bld/wv/c/litengin.c)
0003:000090dc  __LITMSTR_REG_USER
0003:000090e0  __LITMSTR_SIGNED
0003:000090e4  __LITMSTR_HALF
0003:000090e8  __LITMSTR_HWORD
0003:000090ec  __LITMSTR_MMX
0003:000090f0  __LITMSTR_XMM
0003:000090f4  __LITMSTR_UNSIGNED
0003:000090f8  __LITMSTR_DBLW
0003:000090fc  __LITMSTR_INT
0003:00009100  __LITMSTR_MPSEUDOINS
0003:00009104  __LITMSTR_REG_SYMBOLIC
0003:00009108  __LITMSTR_MVAX
0003:0000910c  __LITMSTR_F_FLOAT
0003:00009110  __LITMSTR_G_FLOAT
0003:00009114  __LITMSTR_D_FLOAT
0003:00009118  __LITMSTR_VAX
0003:0000911c  __LITMSTR_REG_NUMERIC
0003:00009120  __LITMSTR_IEEE
0003:00009124  __LITMSTR_PSEUDOINS
0003:00009128  __LITMSTR_MSYMBOLIC
0003:0000912c  __LITMSTR_INT64
0003:00009130  __LITMSTR_N64_PTR
0003:00009134  __LITMSTR_AFFINE
0003:00009138  __LITMSTR_PROJECTIVE
0003:0000913c  __LITMSTR_RAWINS
0003:00009140  __LITMSTR_MOS
0003:00009144  __LITMSTR_REG_OS
0003:00009148  __LITMSTR_UNSIGNED64
0003:0000914c  __LITMSTR_PCDOUBLE
0003:00009150  __LITMSTR_DOWN
0003:00009154  __LITMSTR_UP
0003:00009158  __LITMSTR_CHOP
0003:0000915c  __LITMSTR_ZERO
0003:00009160  __LITMSTR_PCEXTENDED
0003:00009164  __LITMSTR_EMPTY
0003:00009168  __LITMSTR_HEX
0003:0000916c  __LITMSTR_REG_NORMAL
0003:00009170  __LITMSTR_REG_EXTENDED
0003:00009174  __LITMSTR_PCZERO
0003:00009178  __LITMSTR_VALID
0003:0000917c  __LITMSTR_MHEX
0003:00009180  __LITMSTR_SPECIAL
0003:00009184  __LITMSTR_PCSINGLE
0003:00009188  __LITMSTR_EMULATOR
0003:0000918c  __LITMSTR_DECIMAL
0003:00009190  __LITMSTR_MEXTENDED
0003:00009194  __LITMSTR_NEAREST
0003:00009198  __LITMSTR_UPPER
0003:0000919c  __LITMSTR_MINSIDE
0003:000091a0  __LITMSTR_OUTSIDE
0003:000091a4  __LITMSTR_MUPPER
0003:000091a8  __LITMSTR_INSIDE
0003:000091ac  __LITMSTR_FPU
0003:000091b0  __LITMSTR_FAR
0003:000091b4  __LITMSTR_LOWER
0003:000091b8  __LITMSTR_INTERRUPT
0003:000091bc  __LITMSTR_FLOAT
0003:000091c0  __LITMSTR_N32_PTR
0003:000091c4  __LITMSTR_CPU
0003:000091c8  __LITMSTR_F32_PTR
0003:000091cc  __LITMSTR_N16_PTR
0003:000091d0  __LITMSTR_NONE
0003:000091d4  __LITMSTR_F16_PTR
0003:000091d8  __LITMSTR_EXTENDED
0003:000091dc  __LITMSTR_DOUBLE
0003:000091e0  __LITMSTR_NEAR
0003:000091e4  __LITERR_CANT_RESTART
0003:000091e8  __LITMSTR_CHAR
0003:000091ec  __LITMSTR_UCHAR
0003:000091f0  __LITMSTR_QWORD
0003:000091f4  __LITERR_NEAR_TOKEN
0003:000091f8  __LITERR_AMBIG_SRC_FILE
0003:000091fc  __LITMSTR_NIL
0003:00009200  __LITMSTR_LWORD
0003:00009204  __LITERR_NO_SRC_FILE
0003:00009208  __LITMSTR_LONG
0003:0000920c  __LITERR_BAD_PARSE_VERSION
0003:00009210  __LITMSTR_ULONG
0003:00009214  __LITERR_WANT_MODULE
0003:00009218  __LITERR_REMOTE_LINK_BROKEN
0003:0000921c  __LITMSTR_WORD
0003:00009220  __LITMSTR_DWORD
0003:00009224  __LITMSTR_SHORT
0003:00009228  __LITMSTR_BYTE
0003:0000922c  __LITMSTR_USHORT
0003:00009230  __LITERR_NO_RETURN_ADDRESS
0003:00009234  __LITERR_CALL_NOT_ALLOWED
0003:00009238  __LITERR_NO_ACCESS
0003:0000923c  __LITERR_NO_OBJECT_FOR_CALL
0003:00009240  __LITERR_CANT_KILL_PROGRAM
0003:00009244  __LITERR_NO_IMAGE
0003:00009248  __LITERR_EXECUTING_AT
0003:0000924c  __LITERR_NOT_PRINTABLE
0003:00009250  __LITERR_STK_UNDERFL
0003:00009254  __LITERR_TOO_MANY_SCANRESTORE
0003:00009258  __LITERR_PARSE_FILE
0003:0000925c  __LITERR_INVALID_OPERATOR
0003:00009260  __LITERR_NOT_WATCH_SIZE
0003:00009264  __LITERR_CALLED_FROM
0003:00009268  __LITERR_STK_OVERFL
0003:0000926c  __LITERR_NEAR_END_OF_LINE
0003:00009270  __LITERR_BAD_HOOK
0003:00009274  __LITERR_NEAR_END_OF_COMMAND
0003:00009278  __LITERR_TOO_MANY_SCANSAVE
0003:0000927c  __LITERR_CHAR_STAR_STAR
0003:00009280  __LITERR_BAD_SUBSTRING_INDEX
0003:00009284  __LITERR_WANT_END_STRING
0003:00009288  __LITERR_EXPR_TOO_LONG
0003:0000928c  __LITERR_NO_OVL_STATE
0003:00009290  __LITERR_NO_READ_PORT
0003:00009294  __LITERR_ZERO_MOD
0003:00009298  __LITERR_NO_LANG
0003:0000929c  __LITERR_NO_WRITE_MEM
0003:000092a0  __LITERR_ZERO_DIV
0003:000092a4  __LITERR_NO_WRITE_PORT
0003:000092a8  __LITERR_NO_MAKE_CURR_THREAD
0003:000092ac  __LITERR_WANT_COMMAND_LIST
0003:000092b0  __LITERR_NO_READ_MEM
0003:000092b4  __LITERR_TOO_MANY_CALLS
0003:000092b8  __LITERR_NO_SUCH_THREAD
0003:000092bc  __LITERR_EXPR_STACK_OVER
0003:000092c0  __LITERR_CANT_SET_ALL_THREADS
0003:000092c4  __LITERR_DBG_INTERRUPT
0003:000092c8  __LITERR_UNKNOWN_SYMBOL
0003:000092cc  __LITERR_NO_SUCH_POINT
0003:000092d0  __LITERR_VOID_BASE
0003:000092d4  __LITERR_NO_SOURCE_INFO
0003:000092d8  __LITERR_SYS_FAIL
0003:000092dc  __LITERR_CANNOT_RESTORE_STDOUT
0003:000092e0  __LITERR_FILE_NOT_OPEN
0003:000092e4  __LITERR_NEED_ADDRESS
0003:000092e8  __LITERR_SYM_NOT_CREATED
0003:000092ec  __LITERR_INCONSISTENT_GO
0003:000092f0  __LITERR_NO_ROUTINE
0003:000092f4  __LITERR_POINT_EXISTS
0003:000092f8  __LITERR_TOO_MANY_PARMS
0003:000092fc  __LITERR_DUPLICATE_TYPE_SPEC
0003:00009300  __LITERR_ILL_TYPE
0003:00009304  __LITERR_CANNOT_RESTORE_STDIN
0003:00009308  __LITERR_ILLEGAL_TYPE_SPEC
0003:0000930c  __LITERR_NO_MODULE
0003:00009310  __LITERR_TYPE_CONVERSION
0003:00009314  __LITERR_WANT_EOC
0003:00009318  __LITERR_NO_MEMORY_FOR_EXPR
0003:0000931c  __LITERR_NO_MEMORY_FOR_DEBUG
0003:00009320  __LITERR_LOG_NOT_STARTED
0003:00009324  __LITERR_LOG_STARTED
0003:00009328  __LITERR_NO_MEMORY
0003:0000932c  __LITERR_WANT_ON_OFF
0003:00009330  __LITERR_WANT_REG_NAME
0003:00009334  __LITERR_NO_MEMORY_FOR_WINDOW
0003:00009338  __LITERR_WANT_TOKEN
0003:0000933c  __LITERR_WANT_NAME
0003:00009340  __LITERR_BAD_SUBCOMMAND
0003:00009344  __LITERR_BAD_OPTION
0003:00009348  __LITERR_NO_CODE
0003:0000934c  __LITERR_WANT_OPERAND
0003:00009350+ __LITERR_BAD_TYPE_NAME
0003:00009354  __LITERR_WANT_FILENAME
0003:00009358  __LITERR_BAD_CALL_TYPE
0003:0000935c  __LITERR_WANT_LOOKUP_ITEM
0003:00009360  __LITLDS_INFO_BAD_VERSION
0003:00009364  __LITIO
0003:00009368  __LITBAD_TRAP_FILE
0003:0000936c  __LITLDS_INFO_INVALID
0003:00009370  __LITDIP_load_failed
0003:00009374  __LITNo_DIPs_Found
0003:00009378  __LITLMS_FREAD_FAILED
0003:0000937c  __LITSym_Info_Load_Failed
0003:00009380  __LITERR_GENERIC
0003:00009384  __LITLMS_INVALID_MAD_VERSION
0003:00009388  __LITLDS_INVALID_DIP
0003:0000938c  __LITERR_BAD_COMMAND
0003:00009390  __LITOUT_OF_DOS_MEMORY
0003:00009394  __LITINCORRECT_TRAP_FILE_VERSION
0003:00009398  __LITLMS_UNREGISTERED_MAD
0003:0000939c  __LITERR_BAD_RADIX
0003:000093a0  __LITLMS_INVALID_MAD
0003:000093a4  __LITCANT_LOAD_TRAP_FILE
0003:000093a8  __LITLMS_RECURSIVE_MAD_FAILURE
0003:000093ac  __LITStr_ACTION_MODIFY_REGISTER
0003:000093b0  __LITUnknown_type
0003:000093b4  __LITLDS_INVALID_DIP_VERSION
0003:000093b8  __LITStr_ACTION_MODIFY_MEMORY
0003:000093bc  __LITfield
0003:000093c0  __LITinherited_members
0003:000093c4  __LITLDS_FSEEK_FAILED
0003:000093c8  __LITLDS_FREAD_FAILED
0003:000093cc  __LITLDS_FWRITE_FAILED
0003:000093d0  __LITStr_ACTION_THREAD_CHANGE
0003:000093d4  __LITLDS_TOO_MANY_DIPS
0003:000093d8  __LITStr_ACTION_MODIFY_IP
0003:000093dc  __LITLDS_NO_MEM
0003:000093e0  __LITStr_ACTION_ASSIGNMENT
0003:000093e4  __LITStr_ACTION_MODIFY_VARIABLE
0003:000093e8  __LITStr_ACTION_EXECUTE
0003:000093ec  __LITImage_Not_Loaded
0003:000093f0  __LITLDS_FOPEN_FAILED
0003:000093f4  __LITStruct
0003:000093f8  __LITTask_Exception
0003:000093fc  __LITUser_Interupt
0003:00009400  __LITDead
0003:00009404  __LITNo_Visible_Members
0003:00009408  __LITBottom_Of_Stack
0003:0000940c  __LITThread_Not_Exist
0003:00009410  __LITRunnable
0003:00009414  __LITTop_Of_Stack
0003:00009418  __LITDLL_UnLoaded
0003:0000941c  __LITFrozen
0003:00009420  __LITArray
0003:00009424  __LITNew_Task
0003:00009428  __LITNo_More_Undos
0003:0000942c  __LITCurrent
0003:00009430  __LITNo_Task
0003:00009434  __LITDLL_Loaded
0003:00009438  __LITTask_Completed
0003:0000943c  __LITBreak_on_DLL_Load
0003:00009440  __LITTask_Not_Loaded
0003:00009444  __LITSTARTUP_No_Recog_Optn
0003:00009448  __LITEnd_Of_Line
0003:0000944c+ __LITDebugger_Startup_Error
0003:00009450+ __LITMSG_Unexpected_Break
0003:00009454  __LITMap_Selector
0003:00009458  __LITSTARTUP_Expect_Eql
0003:0000945c  __LITInternal_Error
0003:00009460  __LITNewVal
0003:00009464  __LITSTARTUP_MAD_Not_Init
0003:00009468  __LITSTARTUP_Num_Too_Big
0003:0000946c  __LITSTARTUP_Expect_End_Env_Str
0003:00009470  __LITMap_Named_Selector
0003:00009474  __LITBreak_on_execute
0003:00009478  __LITNum_Name
0003:0000947c  __LITBreak_on_write
0003:00009480  __LITOldVal
0003:00009484  __LITNew_Expression
0003:00009488  __LITSym_Name_Name
0003:0000948c  __LITSTARTUP_Invalid_Num
0003:00009490  __LITWARN_ONLY_MAX_EXPAND_ARRAY_ELEMENTS
0003:00009494  __LITQuest_Marks
0003:00009498  __LITEmpty
0003:0000949c  __LITSTARTUP_Expect_Brace
0003:000094a0  __LITSTARTUP_Loading_PRS
0003:000094a4  __LITSTARTUP_Invalid_Option
0003:000094a8  __LITSTARTUP_DIP_Not_Init
0003:000094ac  __LITSTARTUP_DIP_Not_Register
0003:000094b0+ __LITWARN_Unable_To_Remap_Tmp
0001:0002e630  InitEngineLiterals_
0001:0002f4b0  FiniEngineLiterals_
0003:000094b4  __LITWARN_No_Nxt_Src_Ln
Module: litwd.obj(/mnt/sda5/.user/root/src/openwatcom-1.9/bld/wv/c/litwd.c)
0003:000094b8  __LITDOS_invalid_drive
0003:000094bc+ __LITUnable_to_get_rm_sel
0003:000094c0  __LITUnable_to_alloc_DOS_mem
0003:000094c4  __LITDOS_remove_cd
0003:000094c8  __LITDOS_invalid_data
0003:000094cc  __LITDOS_not_same_device
0003:000094d0  __LITDOS_access_denied
0003:000094d4  __LITDOS_too_many_open_files
0003:000094d8  __LITDOS_invalid_format
0003:000094dc  __LITDOS_memory_control
0003:000094e0  __LITDOS_invalid_address
0003:000094e4+ __LITERR_NOT_PROCEDURE
0003:000094e8  __LITDOS_invalid_environment
0003:000094ec  __LITDOS_path_not_found
0003:000094f0+ __LITERR_CANT_GET_RV
0003:000094f4  __LITDOS_invalid_handle
0003:000094f8  __LITDOS_invalid_access_code
0003:000094fc  __LITDOS_insufficient_memory
0003:00009500  __LITDOS_invalid_function
0003:00009504  __LITERR_RX_10
0003:00009508  __LITERR_RX_11
0003:0000950c  __LITERR_RX_12
0003:00009510  __LITERR_RX_13
0003:00009514  __LITDOS_file_not_found
0003:00009518  __LITERR_RX_9
0003:0000951c  __LITERR_RX_7
0003:00009520  __LITERR_RX_4
0003:00009524  __LITERR_RX_5
0003:00009528  __LITERR_RX_2
0003:0000952c  __LITERR_RX_3
0003:00009530  __LITERR_RX_1
0003:00009534  __LITERR_MACRO_NOT_VALID
0003:00009538  __LITERR_WANT_MENU_ITEM
0003:0000953c  __LITUnable_to_init_ui
0003:00009540  __LITERR_BAD_TAB
0003:00009544  __LITERR_BAD_DCLICK
0003:00009548  __LITERR_BAD_ARRAY_INDEX
0003:0000954c  __LITERR_WIND_NOT_OPEN
0003:00009550  __LITERR_BAD_WINDOW_ATTR
0003:00009554  __LITERR_BAD_COLOUR_ATTR
0003:00009558  __LITERR_BAD_WIND_NAME
0003:0000955c  __LITERR_MATCH_NOT_SUPPORTED
0003:00009560  __LITERR_RX_8
0003:00009564  __LITERR_RX_6
0003:00009568  __LITWindowXMM
0003:0000956c  __LITID
0003:00009570  __LITWindowReplay
0003:00009574  __LITNo_Source_Line
0003:00009578  __LITWindowFPU
0003:0000957c  __LITWindowGlobals
0003:00009580  __LITNo_text_to_complete
0003:00009584  __LITWindowAccelerator
0003:00009588  __LITWindowModules
0003:0000958c  __LITWindowSearch
0003:00009590  __LITWindowMMX
0003:00009594  __LITWindowGlobal_Functions
0003:00009598  __LITWindowCalls
0003:0000959c  __LITExecutable_File
0003:000095a0  __LITWindowFunctions
0003:000095a4  __LITDebug_Information_Type
0003:000095a8  __LITDebug_Information
0003:000095ac  __LITNo_Match_Found
0003:000095b0  __LITState
0003:000095b4  __LITWindowLocals
0003:000095b8  __LITWindowAssembly
0003:000095bc  __LITWindowWatches
0003:000095c0  __LITWindowStack
0003:000095c4  __LITWindowRegisters
0003:000095c8  __LITWindowCurrent
0003:000095cc  __LITWindowLog
0003:000095d0  __LITWindowImages
0003:000095d4  __LITWindowFile_Variables
0003:000095d8  __LITWindowFileView
0003:000095dc  __LITWindowVariable
0003:000095e0  __LITWindowThreads
0003:000095e4  __LITWindowBinary
0003:000095e8  __LITWindowMemory
0003:000095ec  __LITWindowSource
0003:000095f0  __LITWindowAll
0003:000095f4  __LITWindowIO_Ports
0003:000095f8  __LITWindowTmpFile
0003:000095fc  __LITWindowBrk
0003:00009600  __LITBreakpoint_File_Name
0003:00009604  __LITDLL_Name
0003:00009608  __LITCancel
0003:0000960c  __LITEnter_Window
0003:00009610  __LITSymbol_List
0003:00009614  __LITConfiguration_File_Name
0003:00009618  __LITSymbol_File
0003:0000961c  __LITThe_WATCOM_Debugger
0003:00009620  __LITOK
0003:00009624  __LITError
0003:00009628  __LITAbout_The_WATCOM_Debugger
0003:0000962c  __LITModules
0003:00009630  __LITDlgBreak
0003:00009634  __LITReplay_File_Name
0003:00009638  __LITXModule_
0003:0000963c  __LITNew_Source
0003:00009640  __LITProgram_Name
0003:00009644  __LITGoWhere
0003:00009648  __LITXSymbol_
0003:0000964c  __LITEnter_New_Command
0003:00009650  __LITmac_main_menu
0003:00009654+ __LITThe_WATCOM_Debugger_for_PowerBuilder
0003:00009658+ __LITPowerBuilder_Debugger_Already_Running
0003:0000965c  __LITMacro_Type
0003:00009660  __LITmac_command_string
0003:00009664  __LITMac_Window
0003:00009668  __LITRedefine_Key
0003:0000966c  __LITmac_popup_menu
0003:00009670  __LITNew_Offset
0003:00009674  __LITDefinition
0003:00009678  __LITNew_Port_Addr
0003:0000967c  __LITNew_Line
0003:00009680  __LITPress_the_Key
0003:00009684  __LITNew_Addr
0003:00009688  __LITMem_Addr
0003:0000968c  __LITNew_Module
0003:00009690  __LITEnter_File_Name
0003:00009694  __LITKey_Name
0003:00009698+ __LITPowerBuilder_Not_Running
0003:0000969c  __LITWARN_Asynch_Event
0003:000096a0  __LITWARN_Cycle_Detected
0003:000096a4  __LITWARN_Losing_Redo
0003:000096a8  __LITWARN_Incomplete_Undo
0003:000096ac  __LITWARN_Program_Will_Slow
0003:000096b0+ __LITWARN_Unable_To_Remap
0003:000096b4  __LITWARN_Kill_PowerBuilder
0003:000096b8+ __LITFirst_UI_Message
0001:0002fe60  DUIInitLiterals_
0001:00030600  DUIFiniLiterals_
0003:000096bc  __LITWARN_Source_Not_Available
Module: dui.obj(/mnt/sda5/.user/root/src/openwatcom-1.9/bld/wv/c/dui.c)
0001:00030b20  DUIUpdate_
0001:00030b40  DUIStatusText_
0001:00030b50  DUIMsgBox_
0001:00030b60  DUIDlgTxt_
0001:00030b70  DUIInfoBox_
0001:00030b80  DUIStop_
0001:00030b90  DUIClose_
0001:00030ba0  DUIInit_
0001:00030c10  DUIFini_
0001:00030c60  DUIFreshAll_
0001:00030c70  DUIStopRefresh_
0001:00030c80  DUIShow_
0001:00030cc0  DUIWndUser_
0001:00030cd0  DUIWndDebug_
0001:00030ce0  DUIShowLogWindow_
0001:00030cf0  ReqWndName_
0001:00030d20  DUIGetMonitorType_
0001:00030d50  DUIScreenSizeY_
0001:00030d60  DUIScreenSizeX_
0001:00030d70  DUIErrorBox_
0001:00030d90  DUIArrowCursor_
0001:00030da0  DUILoadString_
0001:00030db0  DUIAskIfAsynchOk_
0001:00030dd0  DUIFlushKeys_
0001:00030de0  DUIPlayDead_
0001:00030df0  DUISysEnd_
0001:00030e00  DUISysStart_
0001:00030e10  DUIRingBell_
0001:00030e20  DUIProcPendingPaint_
0001:00030e30  DUIInfoRelease_
0001:00030e50  DUIExitCriticalSection_
0001:00030e50  DUIEnterCriticalSection_
0001:00030e60  DUIHourGlass_
0001:00030e70  WndDoInput_
0001:00030e80  DUIGetSourceLine_
0001:00030ea0  DUICopyCopied_
0001:00030ea0  DUICopySize_
0001:00030ed0  DUIIsDBCS_
0001:00030ee0  DUIEnvLkup_
0001:00030ef0  DUIDirty_
0001:00030f00  DUISrcOrAsmInspect_
0001:00030f20  DUIAddrInspect_
0001:00030f40  DUIRemoveBreak_
0001:00030f50  StartupErr_
0001:00030f60* DUISymbolsCancelled_
0001:00030f60  DUICopyCancelled_
0001:00030f70  DUIImageLoaded_
Module: dbgwset.obj(/mnt/sda5/.user/root/src/openwatcom-1.9/bld/wv/c/dbgwset.c)
0001:00030fc0  DClickSet_
0001:00031020  DClickConf_
0001:00031040  InputSet_
0001:000310b0  InputConf_
0001:000310f0  LookUpCtrlKey_
0001:00031160  KeyName_
0001:000313f0  MacAddDel_
0001:00031540  MacroSet_
0001:00031620  MacroConf_
0001:000316b0  FiniMacros_
0001:00031700  TabIntervalGet_
0001:00031710  TabIntervalSet_
0001:00031730  TabSet_
0001:00031790  TabConf_
0001:000317c0  SearchSet_
0001:000318a0  SearchConf_
Module: dbginsp.obj(/mnt/sda5/.user/root/src/openwatcom-1.9/bld/wv/c/dbginsp.c)
0001:00031940  WndTmpFileInspect_
0001:00031a50  WndFileInspect_
0001:00031b30  WndFuncInspect_
0001:00031b50  WndGblFuncInspect_
0001:00031b80  WndGblVarInspect_
0001:00031bb0  WndMemInspect_
0001:00031c00  WndIOInspect_
0001:00031c30  WndAddrInspect_
0001:00031c50  WndAsmInspect_
0001:00031db0  WndSrcInspect_
0001:00031de0  WndSrcOrAsmInspect_
0001:00031e10  WndNewSrcInspect_
0001:00031e30  WndModInspect_
0001:00031ed0  WndModListInspect_
0001:00031fe0  WndInspectExprSP_
0001:00032010  WndInspect_
0001:00032050  WndClassInspect_
0001:00032080  WndVarInspect_
Module: dbgicon.obj(/mnt/sda5/.user/root/src/openwatcom-1.9/bld/wv/c/dbgicon.c)
0003:000031e8  _MainIcon
0003:000031f0  _AsmIcon
0003:000031f8  _BrkIcon
0003:00003200  _CallIcon
0003:00003208  _FPUIcon
0003:00003210  _MMXIcon
0003:00003218  _XMMIcon
0003:00003220  _FuncIcon
0003:00003228  _GlobIcon
0003:00003230  _AclIcon
0003:00003238  _ImgIcon
0003:00003240  _IOIcon
0003:00003248  _LogIcon
0003:00003250  _MemIcon
0003:00003258  _ModIcon
0003:00003260  _RegIcon
0003:00003268  _RepIcon
0003:00003270  _SrcIcon
0003:00003278  _SrchIcon
0003:00003280  _StkIcon
0003:00003288  _TrdIcon
0003:00003290  _VarIcon
0003:00003298  _LocIcon
0003:000032a0  _WatIcon
Module: dbgdisp.obj(/mnt/sda5/.user/root/src/openwatcom-1.9/bld/wv/c/dbgdisp.c)
0003:000096d4+ _WndMainRect
0001:000320d0  ScanStatus_
0001:00032160  GetWndFont_
0001:00032190  WndFontHook_
0001:000321d0  WndMainClientSize_
0001:000321f0  WndMainResized_
0001:00032270  WndResizeHook_
0001:000322e0  InitFont_
0001:000322f0  FiniFont_
0001:00032380  ProcFont_
0001:00032490  ConfigFont_
0001:000324c0* FontChange_
0001:00032910  ProcDisplay_
0001:00032a10  ConfigDisp_
0003:0000975c  _WndPosition
Module: dbgpaint.obj(/mnt/sda5/.user/root/src/openwatcom-1.9/bld/wv/c/dbgpaint.c)
0003:000032f4  _WndStatusColour
0003:000032f6  _WndPlainAttr
0003:000032f7  _WndSelectedAttr
0003:000032f8  _WndCursorAttr
0003:0000330b  _WndColours
0003:00003334  _WndNumColours
0001:00032cc0  WndMapTabAttr_
0001:00032da0  ProcPaint_
0001:00032f90  ProcPendingPaint_
0001:00033010  FiniPaint_
0001:00033050  GetWndColours_
0001:00033340  ConfigPaint_
0001:000333a0  InitPaint_
0003:000034b0* _WndTabStopAttr
Module: dbgcap.obj(/mnt/sda5/.user/root/src/openwatcom-1.9/bld/wv/c/dbgcap.c)
0001:000333b0  CaptureError_
0001:00033410  ProcCapture_
Module: wndalloc.obj(/mnt/sda5/.user/root/src/openwatcom-1.9/bld/wv/c/wndalloc.c)
0001:000334d0  WndNoMemory_
0001:000334f0  WndAlloc_
0001:00033500  WndRealloc_
0001:00033510  WndFree_
0001:00033520* WndMemFini_
0001:00033530  WndMemInit_
Module: dlgambig.obj(/mnt/sda5/.user/root/src/openwatcom-1.9/bld/wv/c/dlgambig.c)
0001:00033540  DUIDisambiguate_
Module: dlgscomp.obj(/mnt/sda5/.user/root/src/openwatcom-1.9/bld/wv/c/dlgscomp.c)
0001:000335d0  DlgGetMatchString_
0001:00033640  SymComplete_
Module: modcomp.obj(/mnt/sda5/.user/root/src/openwatcom-1.9/bld/wv/c/modcomp.c)
0001:000337b0  ModComplete_
Module: wndsys.obj(/mnt/sda5/.user/root/src/openwatcom-1.9/bld/wv/c/wndsys.c)
0003:000034c8  _WndGadgetHint
0003:00003514  _WndGadgetArray
0003:0000364c  _WndGadgetArraySize
0003:00003650  _WndGadgetSecondary
0003:00003654  _WndGadgetAttr
0003:000037cc+ _WndNormal
0003:000037dc  _WndLong
0003:000037ec+ _WndMemMetrics
0003:000037fc+ _WndWide
0003:0000380c+ _WndWideLong
0003:0000381c+ _WndFileMetrics
0003:0000382c  _WndMetrics
0003:000038a8* _NoMetrics
0001:000338d0  DbgWndSearch_
0001:000338e0+ ProcPUINYI_
0001:00033900  ProcWndSearch_
0001:00033920+ ProcWndTabLeft_
0001:00033930+ ProcWndTabRight_
0001:00033940  ProcSearchAll_
0001:00033970+ ProcWndPopUp_
0001:00033980  ProcWndFindNext_
0001:000339a0  ProcWndFindPrev_
0001:000339e0  ProcWindow_
0001:00033a10  WndSysStart_
0001:00033a20  WndSysEnd_
0001:00033a30  WndStop_
0001:00033a40  WndUser_
0001:00033aa0  WndDebug_
0001:00033aa0  WndStartFreshAll_
0001:00033b20  WndRedraw_
0001:00033c20  WndProcMacro_
0001:00033cc0  WndSysInit_
0001:00033d00  SetUnderLine_
0001:00033d30  SetGadgetLine_
0001:00033d40  FiniGadget_
0001:00033d80  InitGadget_
0001:00033e00  OpenGadget_
0001:00033e10  CheckOpenGadget_
0001:00033e60  WndEndFreshAll_
0001:00033e70  WndFlushKeys_
0001:00033e80  WndMsgBox_
0001:00033eb0  WndInfoBox_
0001:00033ee0  WndSetOpenNoShow_
0001:00033ef0  DbgTitleWndCreate_
0001:000340a0  DbgWndCreate_
0001:000340c0  WndRXError_
0003:000099bc  _MaxGadgetLength
Module: wnddump.obj(/mnt/sda5/.user/root/src/openwatcom-1.9/bld/wv/c/wnddump.c)
0001:00034390  WndDumpPrompt_
0001:000343b0  WndDumpFile_
0001:00034430  WndDumpLog_
Module: dlgabout.obj(/mnt/sda5/.user/root/src/openwatcom-1.9/bld/wv/c/dlgabout.c)
0001:00034450  DlgAbout_
Module: dlgstk.obj(/mnt/sda5/.user/root/src/openwatcom-1.9/bld/wv/c/dlgstk.c)
0001:00034570  DlgUpTheStack_
0001:00034580  DlgBackInTime_
0001:000345b0  DlgIncompleteUndo_
Module: dlgayn.obj(/mnt/sda5/.user/root/src/openwatcom-1.9/bld/wv/c/dlgayn.c)
0001:00034650  DlgAreYouNuts_
Module: dlgsrc.obj(/mnt/sda5/.user/root/src/openwatcom-1.9/bld/wv/c/dlgsrc.c)
0001:00034680  DlgSource_
Module: dlgdll.obj(/mnt/sda5/.user/root/src/openwatcom-1.9/bld/wv/c/dlgdll.c)
0001:000346b0  DlgBreakDLL_
Module: dlglist.obj(/mnt/sda5/.user/root/src/openwatcom-1.9/bld/wv/c/dlglist.c)
0001:000349e0  DlgList_
Module: dlgfile.obj(/mnt/sda5/.user/root/src/openwatcom-1.9/bld/wv/c/dlgfile.c)
0001:00034a40  SetLastExe_
0001:00034a50* GetLastExe_
0001:00034a60* SetLastCfg_
0001:00034ac0  InitBrowse_
0001:00034b30  FiniBrowse_
0001:00034c10  ProcConfigFile_
0001:00034c40  WndShutDownHook_
0001:00034cd0  ConfigSave_
0001:00034d40  BreakSave_
0001:00034da0  ReplaySave_
0001:00034e10  FileBrowse_
0001:00034e50  ExeBrowse_
0001:00034e70  SymBrowse_
0001:00034e90  AllBrowse_
0001:00034ec0  GetDmpName_
Module: dlgnewp.obj(/mnt/sda5/.user/root/src/openwatcom-1.9/bld/wv/c/dlgnewp.c)
0001:00035080  DlgNewProg_
Module: dlgexpr.obj(/mnt/sda5/.user/root/src/openwatcom-1.9/bld/wv/c/dlgexpr.c)
0001:000350f0  DlgGetLong_
0001:00035100  DlgGetCodeAddr_
0001:00035110  DlgGetDataAddr_
0001:00035120  DlgSetLong_
0001:000351b0  DlgLongExpr_
0001:000351f0  DlgAnyExpr_
0001:00035240  DlgCodeAddr_
0001:00035280  DlgDataAddr_
0001:000352c0  DlgGivenAddr_
0001:000352f0  DlgModName_
0001:00035340  DlgString_
0001:00035370  DlgMadTypeExpr_
Module: dlgbreak.obj(/mnt/sda5/.user/root/src/openwatcom-1.9/bld/wv/c/dlgbreak.c)
0001:00035cb0  DlgBreak_
Module: dlgvarx.obj(/mnt/sda5/.user/root/src/openwatcom-1.9/bld/wv/c/dlgvarx.c)
0001:00035f10  DlgVarExpand_
Module: dlgcmd.obj(/mnt/sda5/.user/root/src/openwatcom-1.9/bld/wv/c/dlgcmd.c)
0001:00036070  DlgCmd_
Module: dlgnewws.obj(/mnt/sda5/.user/root/src/openwatcom-1.9/bld/wv/c/dlgnewws.c)
0001:00036140  DlgNewWithMod_
0001:00036150  DlgNewWithSym_
Module: wndhelp.obj(/mnt/sda5/.user/root/src/openwatcom-1.9/bld/wv/c/wndhelp.c)
0001:00036160  InitHelp_
0001:00036180  FiniHelp_
0001:000362a0  ProcHelp_
0001:000362b0  DoProcHelp_
Module: wndmenu.obj(/mnt/sda5/.user/root/src/openwatcom-1.9/bld/wv/c/wndmenu.c)
0001:00036310  PlayDead_
0001:00036430  GetMenuLabel_
0001:00036520  AccelMenuItem_
0001:000366e0  ProcAccel_
0001:000367b0  SetLogMenuItems_
0001:000367d0  SetMADMenuItems_
0001:00036840  SetTargMenuItems_
0001:00036860  InitMenus_
0001:000368b0  SetBrkMenuItems_
0001:00036900  FiniMenus_
0001:00036950  WndMenuSetHotKey_
0001:000369e0  AddMenuAccel_
0001:00036b10  WndMainMenuProc_
0003:0000416c  _WndMainMenu
0003:0000425c  _WndNumMenus
0003:00004260  _WndInfoTab
0003:000042dc  _MainTab
Module: dbgwfpu.obj(/mnt/sda5/.user/root/src/openwatcom-1.9/bld/wv/c/dbgwfpu.c)
0001:000374b0  FPUChangeOptions_
0001:000374d0  WndFPUOpen_
Module: dbgwmac.obj(/mnt/sda5/.user/root/src/openwatcom-1.9/bld/wv/c/dbgwmac.c)
0001:000376a0  MacKeyHit_
0001:00038000  WndMacOpen_
0003:0000440c  _MacInfo
Module: dbgwglob.obj(/mnt/sda5/.user/root/src/openwatcom-1.9/bld/wv/c/dbgwglob.c)
0001:00038090+ GlobMenuItem_
0001:000381b0+ GlobNumRows_
0001:000381c0+ GlobGetLine_
0001:00038200  GlobNewMod_
0001:00038220+ GlobRefresh_
0001:00038270+ GlobEventProc_
0001:000382c0  GlobChangeOptions_
0001:000382e0  WndGlobOpen_
0001:000382f0  DoWndGlobOpen_
0003:00004444+ _GlobMenu
0003:000044bc  _GlobInfo
Module: dbgwfunc.obj(/mnt/sda5/.user/root/src/openwatcom-1.9/bld/wv/c/dbgwfunc.c)
0001:000386e0  FuncNewMod_
0001:00038890  FuncChangeOptions_
0001:000388b0  DoWndFuncOpen_
0001:00038900  WndFuncOpen_
0001:00038910  WndGblFuncOpen_
0003:00004584  _FuncInfo
Module: dbgwcall.obj(/mnt/sda5/.user/root/src/openwatcom-1.9/bld/wv/c/dbgwcall.c)
0001:00038c70  WndCallOpen_
0003:0000464c  _CallInfo
Module: dbgwmod.obj(/mnt/sda5/.user/root/src/openwatcom-1.9/bld/wv/c/dbgwmod.c)
0001:00039160  ModNewHandle_
0001:000392d0  ModChangeOptions_
0001:000392f0  WndModOpen_
0001:00039300  DoWndModOpen_
0003:0000472c  _ModInfo
Module: dbgwsrch.obj(/mnt/sda5/.user/root/src/openwatcom-1.9/bld/wv/c/dbgwsrch.c)
0001:00039990  WndSrchOpen_
0003:0000477c  _SrchInfo
Module: dbgwdlg.obj(/mnt/sda5/.user/root/src/openwatcom-1.9/bld/wv/c/dbgwdlg.c)
0001:00039a80  DlgInfoRelease_
0001:00039be0  WndDlgTxt_
0001:00039c30  WndDlgFini_
0001:00039cc0  WndDlgOpen_
0003:000047c4  _LogInfo
Module: dbgwfil.obj(/mnt/sda5/.user/root/src/openwatcom-1.9/bld/wv/c/dbgwfil.c)
0001:00039d00  SrcJoinAsm_
0001:00039d10  SrcNewAsmNotify_
0001:00039d80  SrcFreeAsm_
0001:0003a4c0  FileOpenGadget_
0001:0003a520  FileBreakGadget_
0001:0003ab50  SrcMoveDot_
0001:0003ac70  SrcWndFind_
0001:0003ad00  SrcHasFileOpen_
0001:0003b030  DoWndFileOpen_
0001:0003b230  DoWndSrcOpen_
0001:0003b270  WndSrcOpen_
0001:0003b310  ProcView_
0003:0000494c  _FileInfo
Module: dbgwass.obj(/mnt/sda5/.user/root/src/openwatcom-1.9/bld/wv/c/dbgwass.c)
0001:0003b7b0  AsmJoinSrc_
0001:0003b7c0  AsmNewSrcNotify_
0001:0003b9b0  AsmMoveDot_
0001:0003bb00  AsmWndFind_
0001:0003bb40  AsmFreeSrc_
0001:0003bc30  AsmOpenGadget_
0001:0003d1e0  AsmChangeOptions_
0001:0003d1f0  DoWndAsmOpen_
0001:0003d2d0  WndAsmOpen_
0003:00004ad4  _AsmInfo
Module: dbgwimg.obj(/mnt/sda5/.user/root/src/openwatcom-1.9/bld/wv/c/dbgwimg.c)
0001:0003d680  WndImgOpen_
0003:00004b9c  _ImgInfo
Module: dbgwbrk.obj(/mnt/sda5/.user/root/src/openwatcom-1.9/bld/wv/c/dbgwbrk.c)
0001:0003dad0  WndBrkOpen_
0003:00004c94  _BrkInfo
Module: dbgwio.obj(/mnt/sda5/.user/root/src/openwatcom-1.9/bld/wv/c/dbgwio.c)
0001:0003e010  SetIOMenuItems_
0001:0003e030  InitIOWindow_
0001:0003e110  FiniIOWindow_
0001:0003e180  IONewAddr_
0001:0003e1b0  DoWndIOOpen_
0001:0003e270  WndIOOpen_
0003:00004d60  _IOInfo
Module: dbgwrep.obj(/mnt/sda5/.user/root/src/openwatcom-1.9/bld/wv/c/dbgwrep.c)
0001:0003e5a0  WndRepOpen_
0003:00004de0  _RepInfo
Module: dbgwmem.obj(/mnt/sda5/.user/root/src/openwatcom-1.9/bld/wv/c/dbgwmem.c)
0001:0003eb10  MemSetLength_
0001:0003eb20  MemSetFollow_
0001:0003fb60  InitMemWindow_
0001:0003fc70  FiniMemWindow_
0001:0003fdf0  DoWndMemOpen_
0001:0003fe80  WndMemOpen_
0001:0003fea0  WndStkOpen_
0001:0003ff20  DoWndBinOpen_
0003:00004fbc  _BinInfo
0003:00004ff4  _MemInfo
0003:0000502c+ _StkInfo
Module: dbgwregs.obj(/mnt/sda5/.user/root/src/openwatcom-1.9/bld/wv/c/dbgwregs.c)
0001:0003ff70  RegChangeOptions_
0001:0003ff90  WndRegOpen_
Module: dbgwmmx.obj(/mnt/sda5/.user/root/src/openwatcom-1.9/bld/wv/c/dbgwmmx.c)
0001:0003ffb0  MMXChangeOptions_
0001:0003ffd0  WndMMXOpen_
Module: dbgwxmm.obj(/mnt/sda5/.user/root/src/openwatcom-1.9/bld/wv/c/dbgwxmm.c)
0001:00040010  XMMChangeOptions_
0001:00040030  WndXMMOpen_
Module: dbgwmadr.obj(/mnt/sda5/.user/root/src/openwatcom-1.9/bld/wv/c/dbgwmadr.c)
0001:00040b00  MadRegChangeOptions_
0001:00040b20  WndMadRegOpen_
0003:000050ac  _MadRegInfo
Module: dbgwtogl.obj(/mnt/sda5/.user/root/src/openwatcom-1.9/bld/wv/c/dbgwtogl.c)
0001:00040b50  WndAppendToggles_
0001:00040c30  WndDeleteToggles_
Module: dbgwvar.obj(/mnt/sda5/.user/root/src/openwatcom-1.9/bld/wv/c/dbgwvar.c)
0001:00040cf0  WndVarAdd_
0001:00041db0  VarSaveWndToScope_
0001:00041de0  VarRestoreWndFromScope_
0001:00042050  VarInfoRelease_
0001:00042060  VarUnMapScopes_
0001:00042070  VarFreeScopes_
0001:000420c0  VarReMapScopes_
0001:000420e0  VarChangeOptions_
0001:000421c0  WndVarOpen_
0001:000421d0  WndWatOpen_
0001:000421e0  WndLclOpen_
0001:000421f0  WndFSVOpen_
0001:000422d0  GraphicDisplay_
0003:000054a0  _VarInfo
Module: dbgwthrd.obj(/mnt/sda5/.user/root/src/openwatcom-1.9/bld/wv/c/dbgwthrd.c)
0001:00042570  WndTrdOpen_
0003:00005524  _TrdInfo
Module: dlgwind.obj(/mnt/sda5/.user/root/src/openwatcom-1.9/bld/wv/c/dlgwind.c)
0001:000429f0  DlgWndSet_
Module: dbgwdata.obj(/mnt/sda5/.user/root/src/openwatcom-1.9/bld/wv/c/dbgwdata.c)
0003:0000555c  _WndOpenTab
0003:000055d8  _WndNameTab
0003:0000a27c  _WndMacroList
Module: dlgoptn.obj(/mnt/sda5/.user/root/src/openwatcom-1.9/bld/wv/c/dlgoptn.c)
0001:00042d90  DlgOptSet_
Module: dbgtool.obj(/mnt/sda5/.user/root/src/openwatcom-1.9/bld/wv/c/dbgtool.c)
0001:00042dc0  InitToolBar_
0001:00042e00  FiniToolBar_
0001:00042e20  WndToolOpen_
0001:00042e50  WndToolClose_
Module: dbgfing.obj(/mnt/sda5/.user/root/src/openwatcom-1.9/bld/wv/c/dbgfing.c)
0001:00042e60  FingClose_
0001:00042fe0  FingOpen_
Module: helpio.obj(/mnt/sda5/.user/root/src/openwatcom-1.9/bld/wv/c/helpio.c)
0001:00043120  HelpFileLen_
0001:00043140  HelpRead_
0001:00043150* HelpWrite_
0001:00043160  HelpSeek_
0001:00043170  HelpTell_
0001:00043190  HelpOpen_
0001:000431b0  HelpClose_
0001:000431c0  HelpAccess_
0001:000431e0  HelpGetCWD_
0001:000431f0  HelpSearchEnv_
Module: /mnt/sda5/.user/root/src/openwatcom-1.9/bld/ui/dos/dos386/ui.lib(/mnt/sda5/.user/root/src/openwatcom-1.9/bld/ui/dos/c/uibios.c)
0003:0000a294+ _BIOSVidPage
0001:000431f4  firstmeg_
0001:00043201  IdleInterrupt_
0001:00043211* setvideomode_
0001:00043218* uiset80col_
0001:0004325d  video_buffer_
0001:00043313+ dbcs_vector_table_
0001:00043400+ initdbcs_
0001:0004343c  uiisdbcs_
0001:00043458  uionnec_
0001:0004345b  uicharlen_
0001:0004349a+ IsTextMode_
0001:00043555+ initmonitor_
0001:00043660  initbios_
0001:000437a2  uiclockdelay_
0001:000437b3  finibios_
0001:000437b8  physupdate_
Module: /mnt/sda5/.user/root/src/openwatcom-1.9/bld/gui/ui/dos386/gui.lib(/mnt/sda5/.user/root/src/openwatcom-1.9/bld/gui/ui/c/guigmous.c)
0001:000438f0  GUIInitGraphicsMouse_
0001:00043910  GUIInitMouse_
0001:00043960  GUIFiniMouse_
0001:000439a0  GUIGMouseOn_
0001:000439f0  GUIGMouseOff_
0001:00043a10  GUIHasCharRemap_
Module: /mnt/sda5/.user/root/src/openwatcom-1.9/bld/ui/dos/dos386/ui.lib(/mnt/sda5/.user/root/src/openwatcom-1.9/bld/ui/c/uiinit.c)
0001:00043a16  uistart_
0001:00043a4c* uiinit_
0001:00043a68  uistop_
0001:00043a77* uifini_
0001:00043a90  uiswap_
Module: /mnt/sda5/.user/root/src/openwatcom-1.9/bld/ui/dos/dos386/ui.lib(/mnt/sda5/.user/root/src/openwatcom-1.9/bld/ui/c/uidata.c)
0003:00005840  _UIData
Module: /mnt/sda5/.user/root/src/openwatcom-1.9/bld/ui/dos/dos386/ui.lib(/mnt/sda5/.user/root/src/openwatcom-1.9/bld/ui/dos/c/uimous.c)
0001:00043a9a  checkmouse_
0001:00043bda+ uimousespeed_
0001:00043c0c  setupmouse_
0001:00043d02  initmouse_
0001:00043d57  finimouse_
0001:00043d65  uisetmouseposn_
0003:00005844+ _MouseTime
0003:0000a2ac  _Points
Module: /mnt/sda5/.user/root/src/openwatcom-1.9/bld/aui/dos386/aui.lib(/mnt/sda5/.user/root/src/openwatcom-1.9/bld/aui/c/wndutil.c)
0001:00043e00  WndCharCol_
0001:00043e30  WndLastCharCol_
0001:00043e50  WndPrevCharCol_
0001:00043e60* WndPrevChar_
0001:00043e70  WndCurrToGUIPoint_
0001:00043e90  WndCoordToGUIPoint_
0001:00043f00  WndPieceIsTab_
0001:00043f30* WndPieceIsHot_
0001:00043f60  WndFindActive_
0001:00043f90  WndValid_
0001:00043fc0  WndDirty_
0001:00043fd0  WndZapped_
0001:00043ff0  WndExtentX_
0001:00044020  WndFindClass_
0001:00044040  WndSetWndMax_
0001:00044090  WndNext_
0001:000440c0  WndForAllClass_
Module: /mnt/sda5/.user/root/src/openwatcom-1.9/bld/ui/dos/dos386/ui.lib(/mnt/sda5/.user/root/src/openwatcom-1.9/bld/ui/dos/c/uicurs.c)
0001:000440f1  _uioffcursor_
0001:0004413a+ _uioncursor_
0001:0004413a  _uifinicursor_
0001:00044321* _uigetcursor_
0001:000443a6  _uisetcursor_
0001:000443e9  _uiswapcursor_
0001:00044402  _uiinitcursor_
Module: /mnt/sda5/.user/root/src/openwatcom-1.9/bld/ui/dos/dos386/ui.lib(/mnt/sda5/.user/root/src/openwatcom-1.9/bld/ui/c/uirfrsh.c)
0001:000444d2  uidorefresh_
Module: /mnt/sda5/.user/root/src/openwatcom-1.9/bld/aui/dos386/aui.lib(/mnt/sda5/.user/root/src/openwatcom-1.9/bld/aui/c/wndmem.c)
0001:00044560  WndMustAlloc_
0001:00044580  WndMustRealloc_
Module: /mnt/sda5/.user/root/src/openwatcom-1.9/rel2/lib386/dos/math387r.lib(ldcvt.c)
0001:0004467a  _LDScale10x_
0001:00044c46  __LDcvt_
Module: /mnt/sda5/.user/root/src/openwatcom-1.9/rel2/lib386/dos/math387r.lib(fchop87)
0001:00045094  __CHP
Module: /mnt/sda5/.user/root/src/openwatcom-1.9/rel2/lib386/dos/emu387.lib(386)
0001:000450ac  __init_387_emulator
0001:000450b1* __fini_387_emulator
Module: /mnt/sda5/.user/root/src/openwatcom-1.9/rel2/lib386/dos/math387r.lib(gcvt.c)
0001:000450b6  gcvt_
Module: /mnt/sda5/.user/root/src/openwatcom-1.9/rel2/lib386/dos/math387r.lib(strtod.c)
0001:000456da+ __Strtold_
0001:00045841  strtod_
Module: /mnt/sda5/.user/root/src/openwatcom-1.9/bld/aui/dos386/aui.lib(/mnt/sda5/.user/root/src/openwatcom-1.9/bld/aui/c/wndstat.c)
0001:00045990  WndCreateStatusWindow_
0001:000459c0  WndHaveStatusWindow_
0001:000459e0  WndCloseStatusWindow_
0001:00045a20  WndStatusText_
0001:00045a70  GUIClearStatusText_
0001:00045a90  WndResetStatusText_
0001:00045aa0  WndInternalStatusText_
0003:0000a2bc+ _WndStatusString
Module: /mnt/sda5/.user/root/src/openwatcom-1.9/bld/aui/dos386/aui.lib(/mnt/sda5/.user/root/src/openwatcom-1.9/bld/aui/c/guimain.c)
0003:0000a310  _WndScale
0003:0000a318  _WndMax
0003:0000a320  _WndScreen
0003:0000a328+ _WndClickHook
0003:0000a330  _WndMain
0003:0000a334* _WndSwitches
0003:000058f0  _WndMaxDirtyRects
0003:000058f4+ _WndDClick
0003:000058f8  _WndIgnoreAllEvents
0001:00045af0  WndGetDClick_
0001:00045b00  WndSetDClick_
0001:00045b80* WndInitWithMenuRes_
0001:00045c40  WndInit_
0001:00045c50  WndShowWndMain_
0001:00045c60  WndFini_
0001:00045c90* WndInitNumRows_
0001:00045e10  WndInstallClickHook_
0001:00046650  WndArrowCursor_
0001:00046680* WndSetCursor_
0001:000466b0  WndHourGlass_
0001:000466c0* WndHourCursor_
0001:00046700  WndMainEventProc_
Module: /mnt/sda5/.user/root/src/openwatcom-1.9/bld/aui/dos386/aui.lib(/mnt/sda5/.user/root/src/openwatcom-1.9/bld/aui/c/wndhist.c)
0001:00046730  WndInitHistory_
0001:00046770  WndFiniHistory_
0001:00046820  WndSaveToHistory_
0001:000468e0  WndPrevFromHistory_
0001:000469c0  WndNextFromHistory_
Module: /mnt/sda5/.user/root/src/openwatcom-1.9/bld/aui/dos386/aui.lib(/mnt/sda5/.user/root/src/openwatcom-1.9/bld/aui/c/wndcreat.c)
0001:00046a70* WndSetTitleSize_
0001:00046a80  WndSetTitle_
0001:00046a90  WndGetTitle_
0001:00046ce0  WndCreateWithStruct_
0001:00046d10  WndCreateWithStructAndMenuRes_
0001:00046d40  WndInitCreateStruct_
0001:00046d80* WndCreate_
0001:00046db0  WndDestroy_
0001:00046e30  WndClose_
0001:00046e50  WndSetMainMenuText_
0001:00046e80  WndSetIcon_
0003:00005904  _WndMainMenuPtr
0003:0000a340  _WndPopupMenuPtr
Module: /mnt/sda5/.user/root/src/openwatcom-1.9/bld/aui/dos386/aui.lib(/mnt/sda5/.user/root/src/openwatcom-1.9/bld/aui/c/wnddirt.c)
0001:00046fe0  WndDirtyScreenRange_
0001:00047000  WndDirtyScreenChar_
0001:00047020  WndDirtyScreenPiece_
0001:00047040  WndAdjustDirt_
0001:00047070  WndDirtyScreenRow_
0001:00047090* WndDirtyRect_
0001:000470d0  WndRowDirty_
0001:00047110  WndRowDirtyImmed_
0001:00047150  WndPieceDirty_
0001:00047190  WndStopRefresh_
0001:000471a0+ WndPaintDirt_
0001:00047510  WndFreshAll_
0003:00005908  _WndDoingRefresh
Module: /mnt/sda5/.user/root/src/openwatcom-1.9/bld/aui/dos386/aui.lib(/mnt/sda5/.user/root/src/openwatcom-1.9/bld/aui/c/wndshrnk.c)
0001:00047580  WndShrinkToMouse_
0001:00047710  WndMinimizeWindow_
0001:00047720  WndMaximizeWindow_
0001:00047730  WndIsMinimized_
0001:00047770  WndIsMaximized_
0001:00047780  WndRestoreWindow_
0001:00047790  WndGetRect_
0001:000477a0  WndShowWindow_
0001:000477b0  WndResizeWindow_
0001:000477c0  WndShowAll_
Module: /mnt/sda5/.user/root/src/openwatcom-1.9/bld/gui/ui/dos386/gui.lib(/mnt/sda5/.user/root/src/openwatcom-1.9/bld/gui/c/guiisgui.c)
0001:00047840  GUIIsGUI_
Module: /mnt/sda5/.user/root/src/openwatcom-1.9/bld/gui/ui/dos386/gui.lib(/mnt/sda5/.user/root/src/openwatcom-1.9/bld/gui/ui/c/guismetr.c)
0001:00047850  GUIGetSystemMetrics_
Module: /mnt/sda5/.user/root/src/openwatcom-1.9/bld/aui/dos386/aui.lib(/mnt/sda5/.user/root/src/openwatcom-1.9/bld/aui/c/wndmsg.c)
0001:000478f0  WndDisplayMessage_
Module: /mnt/sda5/.user/root/src/openwatcom-1.9/bld/aui/dos386/aui.lib(/mnt/sda5/.user/root/src/openwatcom-1.9/bld/aui/c/wndldstr.c)
0001:00047920  WndLoadString_
Module: /mnt/sda5/.user/root/src/openwatcom-1.9/bld/gui/ui/dos386/gui.lib(/mnt/sda5/.user/root/src/openwatcom-1.9/bld/gui/ui/c/guiclen.c)
0001:00047990  GUICharLen_
0001:000479a0  GUIIsDBCS_
Module: /mnt/sda5/.user/root/src/openwatcom-1.9/bld/aui/dos386/aui.lib(/mnt/sda5/.user/root/src/openwatcom-1.9/bld/aui/c/wndfront.c)
0001:000479b0  WndToFront_
0001:000479c0  WndRestoreToFront_
0001:000479f0  WndNextNonIconToFront_
0001:00047a10  WndChooseNew_
Module: /mnt/sda5/.user/root/src/openwatcom-1.9/bld/aui/dos386/aui.lib(/mnt/sda5/.user/root/src/openwatcom-1.9/bld/aui/c/dlgsrch.c)
0001:00047af0+ RXEvent_
0001:00047b40  DlgClickHistory_
0001:00047b70  DlgSetHistory_
0001:00047c70  DlgHistoryKey_
0001:00047dc0+ SrchEvent_
0001:00047f60  DlgSearch_
0001:00047f70  DlgSearchAll_
0003:0000590c  _SrchIgnoreCase
0003:0000590d  _SrchMagicChars
0003:00005921  _SrchRX
0003:00005922  _SrchIgnoreMagic
Module: /mnt/sda5/.user/root/src/openwatcom-1.9/bld/aui/dos386/aui.lib(/mnt/sda5/.user/root/src/openwatcom-1.9/bld/aui/c/wndcurr.c)
0001:00047fa0  WndSetPoint_
0001:00048240  WndGetCurrent_
0001:00048270  WndNewCurrent_
0001:000482a0  WndMoveCurrent_
0001:00048300  WndHasCurrent_
0001:00048310  WndNoCurrent_
0001:00048330* WndCurrRow_
0001:00048360  WndNextCurrent_
0001:00048440  WndPrevCurrent_
0001:00048560  WndFirstCurrent_
0001:00048580  WndLastCurrent_
0001:000485c0  WndCheckCurrentValid_
0001:00048660  WndCurrVisible_
0001:00048710  WndDirtyCurr_
0001:00048760  WndDirtyCurrChar_
0001:00048790  WndSetCurrCol_
Module: /mnt/sda5/.user/root/src/openwatcom-1.9/bld/aui/dos386/aui.lib(/mnt/sda5/.user/root/src/openwatcom-1.9/bld/aui/c/wndpaint.c)
0001:00048ba0+ WndPaintRows_
0001:00048d00  WndProcPaint_
0001:00048d20  WndForcePaint_
Module: /mnt/sda5/.user/root/src/openwatcom-1.9/bld/aui/dos386/aui.lib(/mnt/sda5/.user/root/src/openwatcom-1.9/bld/aui/c/wndcrsr.c)
0001:00048d50+ WndAtTop_
0001:00048ef0  WndScrollUp_
0001:00048f40  WndScrollDown_
0001:00048f90  WndCursorUp_
0001:00048fb0  WndCursorDown_
0001:00048ff0  WndPageUp_
0001:00049010  WndPageDown_
0001:00049030  WndTabLeft_
0001:000490a0  WndCursorLeft_
0001:00049140  WndTabRight_
0001:000491a0  WndCursorRight_
0001:00049230  WndScrollTop_
0001:00049250  WndScrollBottom_
0001:00049270  WndCursorStart_
0001:00049280  WndCursorEnd_
Module: /mnt/sda5/.user/root/src/openwatcom-1.9/bld/aui/dos386/aui.lib(/mnt/sda5/.user/root/src/openwatcom-1.9/bld/aui/c/wndfont.c)
0001:00049290  WndSetFontInfo_
0001:000492c0  WndSetSysFont_
0001:000492e0  WndGetFontInfo_
Module: /mnt/sda5/.user/root/src/openwatcom-1.9/bld/gui/ui/dos386/gui.lib(/mnt/sda5/.user/root/src/openwatcom-1.9/bld/gui/c/guimem.c)
0001:00049300* GUIMemPrintLine_
0001:00049300* GUIMemPrtUsage_
0001:00049300  GUIMemClose_
0001:00049300  GUIMemOpen_
0001:00049300* GUIMemRedirect_
0001:00049310  GUIMemAlloc_
0001:00049320  GUIMemFree_
0001:00049330  GUIMemRealloc_
Module: /mnt/sda5/.user/root/src/openwatcom-1.9/bld/aui/dos386/aui.lib(/mnt/sda5/.user/root/src/openwatcom-1.9/bld/aui/c/wndrect.c)
0001:00049460  WndPosToRect_
0001:000494a0  WndRectToPos_
Module: /mnt/sda5/.user/root/src/openwatcom-1.9/bld/gui/ui/dos386/gui.lib(/mnt/sda5/.user/root/src/openwatcom-1.9/bld/gui/ui/c/guistub.c)
0001:000494d0* GUIGetEditSelect_
0001:000494d0* GUISetEditSelect_
0001:000494d0* GUIIsControlEnabled_
0001:000494d0  GUIEnableControl_
0001:000494d0* GUISetHorizontalExtent_
0001:000494d0  GUI3DDialogInit_
0001:000494d0  GUIFontsSupported_
0001:000494d0  GUISetSystemFont_
0001:000494d0  GUISetFontInfo_
0001:000494d0* GUIChangeFont_
0001:000494e0  GUISetMouseCursor_
0001:000494e0  GUIGetFontFromUser_
0001:000494e0  GUIGetFontInfo_
0001:000494f0* GUIScrollCaret_
0001:000494f0* GUIShowControl_
0001:000494f0* GUIHideControl_
0001:000494f0  GUIResetMouseCursor_
Module: /mnt/sda5/.user/root/src/openwatcom-1.9/bld/gui/ui/dos386/gui.lib(/mnt/sda5/.user/root/src/openwatcom-1.9/bld/gui/c/guimin.c)
0001:00049500  GUIGetMinSize_
Module: /mnt/sda5/.user/root/src/openwatcom-1.9/bld/aui/dos386/aui.lib(/mnt/sda5/.user/root/src/openwatcom-1.9/bld/aui/c/wndtool.c)
0001:00049520* WndCreateToolBar_
0001:00049590  WndCreateToolBarWithTips_
0001:00049600  WndHaveToolBar_
0001:00049610  WndCloseToolBar_
0001:00049630  WndToolHeight_
0001:00049640  WndToolFixed_
0001:00049650  WndSetToolBar_
0003:0000a344+ _ToolHeight
Module: /mnt/sda5/.user/root/src/openwatcom-1.9/bld/gui/ui/dos386/gui.lib(/mnt/sda5/.user/root/src/openwatcom-1.9/bld/gui/ui/c/guicolor.c)
0001:00049690  GUIXSetColours_
0001:00049750* GUIGetBack_
0001:00049760* GUIGetFore_
0001:00049770  GUIMakeColour_
0001:00049780  GUISetWindowColours_
0001:000497c0  GUISetDialColours_
0001:00049b00  GUIResetDialColours_
0001:00049b30  GUISetBackgroundColour_
0001:00049b50  GUIGetDialogColours_
0001:00049b90  GUISetDialogColours_
0001:00049bd0+ GetColour_
0001:00049bf0  GUIXGetWindowColours_
0001:00049c40* GUIGetRGBFromUser_
0001:00049c40* GUIGetRGB_
0001:00049c40* GUISetRGB_
0001:00049c50* GUIGetWndColour_
0001:00049c90* GUISetWndColour_
Module: /mnt/sda5/.user/root/src/openwatcom-1.9/bld/aui/dos386/aui.lib(/mnt/sda5/.user/root/src/openwatcom-1.9/bld/aui/c/wndcolor.c)
0001:00049cc0  WndSetColours_
0001:00049d10* WndBackGround_
Module: /mnt/sda5/.user/root/src/openwatcom-1.9/bld/aui/dos386/aui.lib(/mnt/sda5/.user/root/src/openwatcom-1.9/bld/aui/c/dlgpick.c)
0001:00049d90  DlgPickWithRtn2_
0001:00049dc0+ DoDlgPick_
0001:00049dd0  DlgPickWithRtn_
0001:00049df0+ DlgPickText_
0001:00049e00* DlgPick_
Module: /mnt/sda5/.user/root/src/openwatcom-1.9/bld/gui/ui/dos386/gui.lib(/mnt/sda5/.user/root/src/openwatcom-1.9/bld/gui/c/guipick.c)
0001:00049e10  GUIPickEvent_
0001:00049eb0  GUIDlgPickWithRtn_
0001:00049f30  GUIDlgPick_
Module: /mnt/sda5/.user/root/src/openwatcom-1.9/bld/aui/dos386/aui.lib(/mnt/sda5/.user/root/src/openwatcom-1.9/bld/aui/c/wnddlg.c)
0001:00049fc0  DlgGetParent_
0001:00049ff0  DlgOpen_
0001:0004a030  ResDlgOpen_
Module: /mnt/sda5/.user/root/src/openwatcom-1.9/bld/gui/ui/dos386/gui.lib(/mnt/sda5/.user/root/src/openwatcom-1.9/bld/gui/c/guindlg.c)
0001:0004a070  GUIDlgBuffGetText_
0001:0004a3e0* GUISetModalDlgs_
0001:0004a3f0  GUIDlgOpen_
0001:0004a420  GUIModalDlgOpen_
0001:0004a450* GUISysModalDlgOpen_
Module: /mnt/sda5/.user/root/src/openwatcom-1.9/bld/gui/ui/dos386/gui.lib(/mnt/sda5/.user/root/src/openwatcom-1.9/bld/gui/ui/c/guifocus.c)
0001:0004a480  GUISetFocus_
Module: /mnt/sda5/.user/root/src/openwatcom-1.9/bld/gui/ui/dos386/gui.lib(/mnt/sda5/.user/root/src/openwatcom-1.9/bld/gui/ui/c/guixedit.c)
0001:0004a4b0  GUISetEditText_
0001:0004a570  GUISetText_
0001:0004a690  GUIClearText_
0001:0004a6a0  GUISelectAll_
Module: /mnt/sda5/.user/root/src/openwatcom-1.9/bld/aui/dos386/aui.lib(/mnt/sda5/.user/root/src/openwatcom-1.9/bld/aui/c/wndsrch.c)
0001:0004a6b0  WndSetSrchItem_
0001:0004a700  WndCompileRX_
0001:0004a730  WndFreeRX_
0001:0004a740  WndSetMagicStr_
0001:0004a7a0  WndRXFind_
0001:0004a820  WndSearch_
0003:00005a98  _WndDoingSearch
Module: /mnt/sda5/.user/root/src/openwatcom-1.9/bld/aui/dos386/aui.lib(/mnt/sda5/.user/root/src/openwatcom-1.9/bld/aui/c/wndpop.c)
0001:0004ada0+ CalcMaxId_
0001:0004adf0  NullPopupMenu_
0001:0004ae80  WndAddPopupMenu_
0001:0004af80  WndNullPopItem_
0001:0004b090+ WndSelPopPiece_
0001:0004b2d0  WndSelPopItem_
0001:0004b320+ WndKeyPopItem_
0001:0004b390* WndPopUp_
0001:0004b420  WndChangeMenuAll_
0001:0004b4a0  WndMenuEnableAll_
0001:0004b4c0  WndMenuGrayAll_
0001:0004b4f0* WndMenuIgnoreAll_
0001:0004b520* WndMenuRespectAll_
0001:0004b540+ DoMenuBitOn_
0001:0004b5d0  WndMenuCheck_
0001:0004b5e0  WndMenuEnable_
0001:0004b600  WndMenuIgnore_
0001:0004b610  WndCreateFloatingPopup_
0001:0004b660  WndInvokePopUp_
0001:0004b790  WndKeyPopUp_
0001:0004b7c0  WndRowPopUp_
0001:0004b800* WndSetMainMenu_
0001:0004b830  WndClick_
0001:0004b900  WndSetPopup_
0001:0004b990  WndEnableMainMenu_
0001:0004b9f0  WndCheckMainMenu_
Module: /mnt/sda5/.user/root/src/openwatcom-1.9/bld/gui/ui/dos386/gui.lib(/mnt/sda5/.user/root/src/openwatcom-1.9/bld/gui/ui/c/guispawn.c)
0001:0004ba40  GUISpawnStart_
0001:0004ba50  GUISpawnEnd_
Module: /mnt/sda5/.user/root/src/openwatcom-1.9/bld/aui/dos386/aui.lib(/mnt/sda5/.user/root/src/openwatcom-1.9/bld/aui/c/wndgadgt.c)
0001:0004ba90  WndGetGadgetSize_
0001:0004baa0  WndSetGadgetLine_
0001:0004bae0  WndGadgetInit_
Module: /mnt/sda5/.user/root/src/openwatcom-1.9/bld/gui/ui/dos386/gui.lib(/mnt/sda5/.user/root/src/openwatcom-1.9/bld/gui/c/guihot.c)
0001:0004bb20  GUIInitHotSpots_
0001:0004bb80* GUIGetNumHotSpots_
0001:0004bb90  GUIGetHotSpotSize_
0003:0000a380  _GUINumHotSpots
Module: /mnt/sda5/.user/root/src/openwatcom-1.9/bld/gui/ui/dos386/gui.lib(/mnt/sda5/.user/root/src/openwatcom-1.9/bld/gui/ui/c/guiflush.c)
0001:0004bbd0  GUIFlushKeys_
Module: /mnt/sda5/.user/root/src/openwatcom-1.9/bld/aui/dos386/aui.lib(/mnt/sda5/.user/root/src/openwatcom-1.9/bld/aui/c/wndmeth.c)
0001:0004bbe0  NoScroll_
0001:0004bbe0  WndNoOpen_
0001:0004bbf0+ NoGetLine_
0001:0004bc00  NoEndPaint_
0001:0004bc00  NoBegPaint_
0001:0004bc00  NoNotify_
0001:0004bc00  NoModify_
0001:0004bc10  NoRefresh_
0001:0004bc20  NoMenuItem_
0001:0004bc30  NoNumRows_
0001:0004bc40  NoNextRow_
0001:0004bc50  NoEventProc_
0001:0004bc70  WndMenuItem_
0001:0004bc90  WndFiniCacheLines_
0001:0004bcc0  WndKillCacheEntries_
0001:0004bd20  WndKillCacheLines_
0001:0004bee0  WndSetCache_
0001:0004bf30  WndGetLineAbs_
0001:0004bf40  WndGetLine_
0001:0004c060  WndFirstMenuItem_
0001:0004c080* WndNoRow_
0001:0004c090  WndModify_
0001:0004c0b0  WndNotify_
0001:0004c0d0  WndBegPaint_
0001:0004c0f0  WndEndPaint_
0001:0004c110  WndRefresh_
0001:0004c130  WndEvent_
0001:0004c140  WndNumRows_
0001:0004c150  WndNextRow_
0003:00005aa0  _NoInfo
0003:0000a384+ _CacheLine
0003:0000b4b4+ _CacheCurr
Module: /mnt/sda5/.user/root/src/openwatcom-1.9/bld/gui/ui/dos386/gui.lib(/mnt/sda5/.user/root/src/openwatcom-1.9/bld/gui/c/guiextra.c)
0001:0004c160  GUISetExtra_
0001:0004c170  GUIGetExtra_
Module: /mnt/sda5/.user/root/src/openwatcom-1.9/bld/gui/ui/dos386/gui.lib(/mnt/sda5/.user/root/src/openwatcom-1.9/bld/gui/ui/c/guixdlg.c)
0001:0004c180* GUISetJapanese_
0001:0004c1d0  GUIDeleteDialog_
0001:0004c210  GUIGetDlgByWnd_
0001:0004c280+ GUIGetControlId_
0001:0004c2e0  GUIGetDialog_
0001:0004c2f0  GUIGetField_
0001:0004c330  GUIPushControlEvents_
0001:0004c340  GUIPopControlEvents_
0001:0004c390  GUIInsertDialog_
0001:0004c420  GUIRefreshControl_
0001:0004c480  GUIGetList_
0001:0004c4d0  GUIGetFocus_
0001:0004c540+ GUIDoFreeField_
0001:0004c6a0+ GUIDoAddControl_
0001:0004c990  GUIDeleteField_
0001:0004cb00  GUIAddAControl_
0001:0004cbe0  GUIResizeDialog_
0001:0004cce0  GUIFocusChangeNotify_
0001:0004cd40  GUIProcessControlNotify_
0001:0004cdd0  GUIXCreateDialog_
0001:0004d0a0  GUIFreeDialog_
0001:0004d0f0  GUICloseDialog_
0001:0004d120  GUIGetDlgRect_
Module: /mnt/sda5/.user/root/src/openwatcom-1.9/bld/gui/ui/dos386/gui.lib(/mnt/sda5/.user/root/src/openwatcom-1.9/bld/gui/ui/c/guixaddt.c)
0001:0004d180* GUIControlSetRedraw_
0001:0004d1f0  GUIAddText_
0001:0004d230  GUIAddTextList_
0001:0004d270  GUIDeleteItem_
0001:0004d2a0  GUIClearList_
0001:0004d300  GUIGetCurrSelect_
0001:0004d350  GUISetCurrSelect_
0001:0004d3a0  GUIGetListSize_
0001:0004d3d0* GUIInsertText_
0001:0004d410* GUISetTopIndex_
0001:0004d460* GUIGetTopIndex_
Module: /mnt/sda5/.user/root/src/openwatcom-1.9/bld/gui/ui/dos386/gui.lib(/mnt/sda5/.user/root/src/openwatcom-1.9/bld/gui/ui/c/guigtext.c)
0001:0004d570  GUIGetText_
0001:0004d590  GUIGetListItem_
Module: /mnt/sda5/.user/root/src/openwatcom-1.9/bld/gui/ui/dos386/gui.lib(/mnt/sda5/.user/root/src/openwatcom-1.9/bld/gui/ui/c/guistext.c)
0001:0004d5a0  GUISetWindowText_
0001:0004d5c0* GUIGetWindowTextLength_
0001:0004d5f0  GUIGetWindowText_
Module: /mnt/sda5/.user/root/src/openwatcom-1.9/bld/aui/dos386/aui.lib(/mnt/sda5/.user/root/src/openwatcom-1.9/bld/aui/c/wndfdlg.c)
0001:0004d640+ DlgGetFileName_
0001:0004d670  DlgFileBrowse_
Module: /mnt/sda5/.user/root/src/openwatcom-1.9/bld/gui/ui/dos386/gui.lib(/mnt/sda5/.user/root/src/openwatcom-1.9/bld/gui/ui/c/guicontr.c)
0001:0004d7a0  GUIAddControl_
0001:0004d840  GUIGetControl_
0001:0004d860  GUIGetControlByIndex_
0001:0004d8c0  GUIInsertControl_
0001:0004d910* GUIDeleteControl_
0001:0004d980  GUIFreeAllControls_
0001:0004d9f0  GUILimitEditText_
0001:0004da00  GUIResizeControls_
0001:0004da50  GUIProcessControlEvent_
0001:0004dac0* GUIEnumControls_
0001:0004daf0* GUIGetControlClass_
0001:0004db10+ GUIGetControlRect_
0001:0004db60* GUIResizeControl_
0001:0004dc20* GUIIsControlVisible_
Module: /mnt/sda5/.user/root/src/openwatcom-1.9/bld/aui/dos386/aui.lib(/mnt/sda5/.user/root/src/openwatcom-1.9/bld/aui/c/dlgnew.c)
0001:0004dc30  DlgNewEvent_
0001:0004dcb0  DlgNewWithCtl_
0001:0004dd30  DlgNew_
Module: /mnt/sda5/.user/root/src/openwatcom-1.9/bld/gui/ui/dos386/gui.lib(/mnt/sda5/.user/root/src/openwatcom-1.9/bld/gui/ui/c/guicheck.c)
0001:0004dd90  GUIIsChecked_
0001:0004dde0  GUISetChecked_
Module: /mnt/sda5/.user/root/src/openwatcom-1.9/bld/gui/ui/dos386/gui.lib(/mnt/sda5/.user/root/src/openwatcom-1.9/bld/gui/ui/c/guihelp.c)
0001:0004de50  GUIHelpInit_
0001:0004de60  GUIHelpFini_
0001:0004de80  GUIShowHelp_
0001:0004ded0  GUIShowHtmlHelp_
0001:0004dee0+ GUIDisplayHelp_
0001:0004df30* GUIDisplayHelpId_
Module: /mnt/sda5/.user/root/src/openwatcom-1.9/bld/aui/dos386/aui.lib(/mnt/sda5/.user/root/src/openwatcom-1.9/bld/aui/c/wndsel.c)
0001:0004df40  WndSelectEvent_
0001:0004dfc0  WndSelEnds_
0001:0004e000  WndSelected_
0001:0004e140  WndSelSetStart_
0001:0004e170  WndSelGetEndPiece_
0001:0004e1b0* WndSelSetEnd_
0001:0004e1d0  WndSelPieceChange_
0001:0004e2c0  WndSelChange_
0001:0004e2e0  WndNoSelect_
0001:0004e370* WndSelRow_
0001:0004e3a0  SetWndMenuRow_
0001:0004e3f0  WndToSelectMode_
0001:0004e440  WndEndSelectEvent_
0003:0000b4b8  _WndMenuRow
0003:0000b4bc  _WndMenuPiece
Module: /mnt/sda5/.user/root/src/openwatcom-1.9/bld/aui/dos386/aui.lib(/mnt/sda5/.user/root/src/openwatcom-1.9/bld/aui/c/wndscrol.c)
0001:0004e450  WndFixedThumb_
0001:0004e480  WndSetThumbPercent_
0001:0004e490  WndSetThumbPos_
0001:0004e4a0  WndSetVScrollRange_
0001:0004e4b0  WndResetScroll_
0001:0004e4c0  WndVScrollWidth_
0001:0004e4e0* WndHasNumRows_
0001:0004e4f0  WndSetThumb_
0001:0004e660  WndScrollAbs_
0001:0004e670  WndScroll_
0001:0004e690  WndSetHScroll_
0001:0004e6e0+ WndCurrHScrollPos_
0001:0004e760  WndHScrollToCurr_
0001:0004e780  WndHScrollNotify_
Module: /mnt/sda5/.user/root/src/openwatcom-1.9/bld/aui/dos386/aui.lib(/mnt/sda5/.user/root/src/openwatcom-1.9/bld/aui/c/wndchar.c)
0001:0004e7c0  WndSetIDChars_
0001:0004e7d0  WndIDChar_
0001:0004e820  WndKeyChar_
Module: /mnt/sda5/.user/root/src/openwatcom-1.9/bld/gui/ui/dos386/gui.lib(/mnt/sda5/.user/root/src/openwatcom-1.9/bld/gui/c/guiwnclr.c)
0001:0004e830  GUISetColours_
0001:0004e850  GUIFreeColours_
0001:0004e870  GUIGetNumWindowColours_
0001:0004e880  GUIGetWindowColours_
Module: /mnt/sda5/.user/root/src/openwatcom-1.9/bld/ui/dos/dos386/ui.lib(/mnt/sda5/.user/root/src/openwatcom-1.9/bld/ui/c/uigchar.c)
0001:0004e8aa  DBCSCharacterMap_
0003:00005be0  _UiGChar
0003:00005c02+ _UiDBCSChar
0003:00005c24+ _UiNECChar
Module: /mnt/sda5/.user/root/src/openwatcom-1.9/bld/ui/dos/dos386/ui.lib(/mnt/sda5/.user/root/src/openwatcom-1.9/bld/ui/dos/c/uikeyb.c)
0001:0004e959* uiextkeyboard_
0001:0004e967* getkey_
0001:0004e973* checkkey_
0001:0004e98d  flushkey_
0001:0004e9b4* checkshift_
0001:0004e9c0  uicheckshift_
0001:0004e9cc  initkeyboard_
0001:0004ea3a  keyboardevent_
0001:0004ea3a* uikeyboardevent_
Module: /mnt/sda5/.user/root/src/openwatcom-1.9/bld/ui/dos/dos386/ui.lib(/mnt/sda5/.user/root/src/openwatcom-1.9/bld/ui/dos/c/gmouse.c)
0001:0004ecec+ DrawEgaVgaCursor_
0001:0004f053+ EraseEgaVgaCursor_
0001:0004f05a  uifinigmouse_
0001:0004f09f  uiinitgmouse_
Module: /mnt/sda5/.user/root/src/openwatcom-1.9/bld/ui/dos/dos386/ui.lib(/mnt/sda5/.user/root/src/openwatcom-1.9/bld/ui/dos/c/uimapch.c)
0001:0004f1d8+ UIMapCharacters_
0001:0004f23a  FlipCharacterMap_
Module: /mnt/sda5/.user/root/src/openwatcom-1.9/bld/ui/dos/dos386/ui.lib(/mnt/sda5/.user/root/src/openwatcom-1.9/bld/ui/c/uimousev.c)
0003:0000b548  _MouseCol
0003:0000b54a  _MouseRow
0003:0000b54c  _MouseStatus
0003:0000b54e  _MouseOn
0001:0004f290* uivmouseinstalled_
0001:0004f290  uimouseinstalled_
0001:0004f298* uimouseforceoff_
0001:0004f2a9* uimouseforceon_
0001:0004f2b0  uionmouse_
0001:0004f2e8  uioffmouse_
0001:0004f2ef  uihidemouse_
0001:0004f316  mouseevent_
0001:0004f504  uimousepos_
0001:0004f5ff  uivmousepos_
0001:0004f65e  uiswapmouse_
0001:0004f695* uigetmrow_
0001:0004f69c* uigetmcol_
0001:0004f6a3  uigetmouse_
0003:0000b550  _MouseInstalled
Module: /mnt/sda5/.user/root/src/openwatcom-1.9/bld/ui/dos/dos386/ui.lib(/mnt/sda5/.user/root/src/openwatcom-1.9/bld/ui/c/uialloc.c)
0001:0004f6ec* UIMemPrintLine_
0001:0004f6ec* UIMemPrtUsage_
0001:0004f6ec  UIMemClose_
0001:0004f6ec  UIMemOpen_
0001:0004f6ec* UIMemRedirect_
0001:0004f6ed  uicalloc_
0001:0004f6f2  uimalloc_
0001:0004f6f7  uifree_
0001:0004f6fc  uirealloc_
Module: /mnt/sda5/.user/root/src/openwatcom-1.9/bld/ui/dos/dos386/ui.lib(/mnt/sda5/.user/root/src/openwatcom-1.9/bld/ui/c/uiattr.c)
0003:00005e7d+ _VGAcolours
0003:00005ebd+ _ui_vga_colour_attrs
0003:00005ee2+ _ui_colour_attrs
0003:00005f07+ _ui_bw_attrs
0003:00005f2c+ _ui_mono_attrs
0001:0004f701  uiattrs_
0001:0004f799* uivgaattrs_
0001:0004f7d8+ uisetblinkattr_
0001:0004f811* uigetblinkattr_
Module: /mnt/sda5/.user/root/src/openwatcom-1.9/bld/ui/dos/dos386/ui.lib(/mnt/sda5/.user/root/src/openwatcom-1.9/bld/ui/c/uiback.c)
0001:0004f8a5  uirestorebackground_
0001:0004f8d2  openbackground_
0001:0004f907  closebackground_
0001:0004f914+ uibackgroundbuffer_
0001:0004f959* uiremovebackground_
0001:0004f99f* uikeepbackground_
Module: /mnt/sda5/.user/root/src/openwatcom-1.9/bld/ui/dos/dos386/ui.lib(/mnt/sda5/.user/root/src/openwatcom-1.9/bld/ui/c/uiforce.c)
0001:0004fa18  forceevfini_
0001:0004fa18  forceevinit_
0001:0004fa19  uiforceevadd_
0001:0004fa5b* uiforceevflush_
0001:0004fa99  forcedevent_
Module: /mnt/sda5/.user/root/src/openwatcom-1.9/bld/ui/dos/dos386/ui.lib(/mnt/sda5/.user/root/src/openwatcom-1.9/bld/ui/dos/c/uibmous.c)
0003:00005f94  _DrawCursor
0003:00005f98  _EraseCursor
0001:0004fc8e  uimousealign_
0001:0004fc94  uisetmouse_
0001:0004fcbb  uimouse_
Module: /mnt/sda5/.user/root/src/openwatcom-1.9/bld/ui/dos/dos386/ui.lib(/mnt/sda5/.user/root/src/openwatcom-1.9/bld/ui/dos/c/uiget.c)
0001:0004fceb  uiflush_
0001:0004fcf7  uiclock_
0001:0004fda9  uiget_
0001:0004fdae* uieventsource_
Module: /mnt/sda5/.user/root/src/openwatcom-1.9/bld/ui/dos/dos386/ui.lib(/mnt/sda5/.user/root/src/openwatcom-1.9/bld/ui/dos/c/uiutil.c)
0001:0004fdf3  installed_
Module: /mnt/sda5/.user/root/src/openwatcom-1.9/bld/gui/ui/dos386/gui.lib(/mnt/sda5/.user/root/src/openwatcom-1.9/bld/gui/ui/c/guixtent.c)
0001:0004fe30  GUIGetExtentX_
0001:0004fe90* GUIGetControlExtentX_
0001:0004fea0* GUIGetControlExtentY_
0001:0004feb0* GUIGetExtentY_
Module: /mnt/sda5/.user/root/src/openwatcom-1.9/bld/gui/ui/dos386/gui.lib(/mnt/sda5/.user/root/src/openwatcom-1.9/bld/gui/ui/c/guidirty.c)
0001:0004fed0  GUIWndDirty_
Module: /mnt/sda5/.user/root/src/openwatcom-1.9/bld/gui/ui/dos386/gui.lib(/mnt/sda5/.user/root/src/openwatcom-1.9/bld/gui/ui/c/guicrect.c)
0001:0004ff60  GUIGetClientRect_
0001:0004ff80* GUIGetPaintRect_
Module: /mnt/sda5/.user/root/src/openwatcom-1.9/bld/gui/ui/dos386/gui.lib(/mnt/sda5/.user/root/src/openwatcom-1.9/bld/gui/c/guizlist.c)
0001:0004ffe0  GUIDeleteFromList_
0001:00050030  GUIFrontOfList_
0001:00050050  GUIGetFront_
0001:00050060  GUIGetNextWindow_
0001:00050080  GUIIsValidWindow_
Module: /mnt/sda5/.user/root/src/openwatcom-1.9/bld/ui/dos/dos386/ui.lib(/mnt/sda5/.user/root/src/openwatcom-1.9/bld/ui/c/uiarea.c)
0001:000500a7  dividearea_
Module: /mnt/sda5/.user/root/src/openwatcom-1.9/rel2/lib386/dos/math387r.lib(ldclass.c)
0001:0005025b  __LDClass_
0001:000502ab* _FLClass_
Module: /mnt/sda5/.user/root/src/openwatcom-1.9/rel2/lib386/dos/math387r.lib(bufld386)
0001:000502bc  __ZBuf2LD
Module: /mnt/sda5/.user/root/src/openwatcom-1.9/rel2/lib386/dos/math387r.lib(inf_nan.c)
0003:000015ec* ___f_infinity
0003:000015f0* ___f_posqnan
0003:000015f4  ___d_infinity
0003:000015fc  ___d_posqnan
0003:00001604* ___ld_infinity
0003:0000160c* ___ld_posqnan
Module: /mnt/sda5/.user/root/src/openwatcom-1.9/bld/gui/ui/dos386/gui.lib(/mnt/sda5/.user/root/src/openwatcom-1.9/bld/gui/ui/c/guistat.c)
0001:000503c0  GUICreateStatusWindow_
0001:00050450  GUIResizeStatusWindow_
0001:000504d0  GUIDrawStatus_
0001:00050560  GUIDrawStatusText_
0001:000505c0  GUIHasStatus_
0001:000505d0  GUIFreeStatus_
0001:00050610  GUIResizeStatus_
0001:00050640  GUICloseStatusWindow_
Module: /mnt/sda5/.user/root/src/openwatcom-1.9/bld/aui/dos386/aui.lib(/mnt/sda5/.user/root/src/openwatcom-1.9/bld/aui/c/wndfref.c)
0001:000506b0  WndForceRefresh_
Module: /mnt/sda5/.user/root/src/openwatcom-1.9/bld/gui/ui/dos386/gui.lib(/mnt/sda5/.user/root/src/openwatcom-1.9/bld/gui/ui/c/guidbclk.c)
0001:000506c0  GUISetDClickRate_
Module: /mnt/sda5/.user/root/src/openwatcom-1.9/bld/gui/ui/dos386/gui.lib(/mnt/sda5/.user/root/src/openwatcom-1.9/bld/gui/c/guirscal.c)
0001:000506e0  GUIGetRoundScale_
Module: /mnt/sda5/.user/root/src/openwatcom-1.9/bld/gui/ui/dos386/gui.lib(/mnt/sda5/.user/root/src/openwatcom-1.9/bld/gui/c/guiscale.c)
0001:00050740  GUISetScale_
0001:00050770  GUIGetScale_
0001:000507a0  GUISetScreen_
0001:000507c0  GUIGetScreen_
0001:000507f0+ GUIConvert_
0001:00050880  GUIConvertRect_
0001:000508c0+ GUIConvertPoint_
0001:00050910* GUIScaleToScreen_
0001:00050930  GUIScaleToScreenR_
0001:00050950* GUIScreenToScale_
0001:00050970  GUIScreenToScaleR_
0001:00050990  GUIScaleToScreenRPt_
0001:000509b0* GUIScreenToScaleRPt_
Module: /mnt/sda5/.user/root/src/openwatcom-1.9/bld/gui/ui/dos386/gui.lib(/mnt/sda5/.user/root/src/openwatcom-1.9/bld/gui/ui/c/guixinit.c)
0001:000509d0  GUIGetWindowStyles_
0001:000509e0  GUIWndInit_
0001:00050b00* GUISetF10Menus_
0001:00050b20  GUIIsInit_
Module: /mnt/sda5/.user/root/src/openwatcom-1.9/bld/gui/ui/dos386/gui.lib(/mnt/sda5/.user/root/src/openwatcom-1.9/bld/gui/c/guiimmdi.c)
0001:00050b30  GUIMDIInitMenuOnly_
Module: /mnt/sda5/.user/root/src/openwatcom-1.9/bld/gui/ui/dos386/gui.lib(/mnt/sda5/.user/root/src/openwatcom-1.9/bld/gui/ui/c/guimenu.c)
0001:00050ce0  GUIFreeMenuItems_
0001:00050d20+ GUIAllocMenuItems_
0001:00050ee0  GUIGetMenuPopupCount_
0001:00050f20  GUIEnableMenuItem_
0001:00050f90  GUISetMenuText_
0001:00051020  GUICheckMenuItem_
0001:00051080  GUIChangeMenu_
0001:00051100+ GUIGetNumIgnore_
0001:00051130  GUICreateMenuItems_
0001:000511c0+ GUIAllocVBarMenu_
0001:00051500  GUICreateMenus_
0001:00051580+ GUIFreeVBarMenu_
0001:000515b0  GUIFreeMenus_
0001:000515f0  GUISetBetweenTitles_
0001:00051600* GUIAppendMenuByOffset_
0001:00051740  GUIDeleteMenuItem_
0001:000517d0  GUIDeleteToolbarMenuItem_
0001:00051840  GUIResetMenus_
0001:000518e0* GUIEnableMenus_
0001:00051970+ GUIInsertMenu_
0001:000519f0* GUIInsertMenuByID_
0001:00051a70* GUIAppendMenu_
0001:00051ac0  GUIAppendToolbarMenu_
0001:00051b10+ AddMenuItemToPopup_
0001:00051ba0  GUIAppendMenuToPopup_
0001:00051bc0  GUIInsertMenuToPopup_
Module: /mnt/sda5/.user/root/src/openwatcom-1.9/bld/aui/dos386/aui.lib(/mnt/sda5/.user/root/src/openwatcom-1.9/bld/aui/c/wndimain.c)
0001:00051be0  WndInitWndMain_
Module: /mnt/sda5/.user/root/src/openwatcom-1.9/bld/aui/dos386/aui.lib(/mnt/sda5/.user/root/src/openwatcom-1.9/bld/aui/c/wndmnsz.c)
0001:00051bf0  WndSetWndMainSize_
Module: /mnt/sda5/.user/root/src/openwatcom-1.9/bld/aui/dos386/aui.lib(/mnt/sda5/.user/root/src/openwatcom-1.9/bld/aui/c/wndbgch.c)
0003:00005fc4  _WndBackgroundChar
Module: /mnt/sda5/.user/root/src/openwatcom-1.9/bld/gui/ui/dos386/gui.lib(/mnt/sda5/.user/root/src/openwatcom-1.9/bld/gui/ui/c/guixdraw.c)
0001:00051c20  GUIInitDrawingChars_
0001:00051de0  GUIGetCharacter_
0001:00051e00* GUISetCharacter_
0001:000525b0  GUIWndRfrshArea_
0001:00052760  GUIWndUpdate_
0003:0000b57c  _DrawingChars
Module: /mnt/sda5/.user/root/src/openwatcom-1.9/bld/gui/ui/dos386/gui.lib(/mnt/sda5/.user/root/src/openwatcom-1.9/bld/gui/ui/c/guixsys.c)
0001:000527d0+ GUIWndGetEvent_
0001:000527f0  uistartevent_
0001:00052800  uidoneevent_
0001:00052870+ GUICleanup_
0001:00052930  GUIXMain_
0001:00052970  GUIXSetupWnd_
0001:000529a0  GUISetBackgroundChar_
0001:000529b0+ GUISetupStruct1_
0001:000529d0+ GUISetupStruct2_
0001:00052aa0  GUISetupStruct_
0001:00052ad0  GUIXCreateWindow_
0003:00006000  _GUICurrWnd
0003:00006004  _GUIAllEvents
Module: /mnt/sda5/.user/root/src/openwatcom-1.9/bld/gui/ui/dos386/gui.lib(/mnt/sda5/.user/root/src/openwatcom-1.9/bld/gui/ui/c/guixwind.c)
0001:00052c30* GUIWantPartialRows_
0001:00052c50  GUIFreeWindowMemory_
0001:00052e00  GUIDestroyDialog_
0001:00052e10  GUICloseWnd_
0001:00052e40  GUIDestroyWnd_
0001:00052e50  GUIGetRow_
0001:00052e80* GUIGetCol_
0001:00052eb0* GUIShowWindowNA_
0001:00052eb0  GUIShowWindow_
0001:00052ec0* GUIHideWindow_
0001:00052ed0* GUIIsWindowVisible_
0001:00052ee0* GUIIsFirstInstance_
Module: /mnt/sda5/.user/root/src/openwatcom-1.9/bld/gui/ui/dos386/gui.lib(/mnt/sda5/.user/root/src/openwatcom-1.9/bld/gui/ui/c/guigetnr.c)
0001:00052ef0  GUIGetNumRows_
Module: /mnt/sda5/.user/root/src/openwatcom-1.9/bld/gui/ui/dos386/gui.lib(/mnt/sda5/.user/root/src/openwatcom-1.9/bld/gui/ui/c/guitextm.c)
0001:00052f00  GUIGetTextMetrics_
0001:00052f30  GUIGetDlgTextMetrics_
0001:00052f40* GUIGetMaxDialogSize_
Module: /mnt/sda5/.user/root/src/openwatcom-1.9/bld/gui/ui/dos386/gui.lib(/mnt/sda5/.user/root/src/openwatcom-1.9/bld/gui/ui/c/guirange.c)
0001:00052fa0  GUISetHScrollRange_
0001:00052fd0* GUISetVScrollRange_
0001:00053010* GUISetHScrollRangeCols_
0001:00053030  GUISetVScrollRangeRows_
0001:00053050+ GUIGetVScrollRangeRows_
0001:00053070* GUIGetVScrollRange_
0001:000530a0+ GUIGetHScrollRangeCols_
0001:000530c0* GUIGetHScrollRange_
Module: /mnt/sda5/.user/root/src/openwatcom-1.9/bld/aui/dos386/aui.lib(/mnt/sda5/.user/root/src/openwatcom-1.9/bld/aui/c/wndchoos.c)
0001:000530f0  WndChooseEvent_
0001:00053150* WndDoneChoose_
0001:00053160  WndKeyEscape_
0001:00053180* WndStartChoose_
0001:00053190  WndSayMatchMode_
0001:000532e0  WndKeyChoose_
0001:000534e0  WndKeyRubOut_
Module: /mnt/sda5/.user/root/src/openwatcom-1.9/bld/aui/dos386/aui.lib(/mnt/sda5/.user/root/src/openwatcom-1.9/bld/aui/c/wndmouse.c)
0001:00053580* WndGetMouseRow_
0001:00053640  WndLButtonDown_
0001:00053720  WndLButtonUp_
0001:000537f0  WndLDblClk_
0001:00053870  WndRButtonDown_
0001:00053970  WndRButtonUp_
0001:00053a00  WndMouseButtonIsDown_
0001:00053a20  WndIgnoreMouseMove_
0001:00053a40  WndMouseMove_
Module: /mnt/sda5/.user/root/src/openwatcom-1.9/bld/aui/dos386/aui.lib(/mnt/sda5/.user/root/src/openwatcom-1.9/bld/aui/c/wndqryhk.c)
0001:00053ac0  WndQueryEndSessionHook_
Module: /mnt/sda5/.user/root/src/openwatcom-1.9/bld/aui/dos386/aui.lib(/mnt/sda5/.user/root/src/openwatcom-1.9/bld/aui/c/wndendhk.c)
0001:00053ad0  WndEndSessionHook_
Module: /mnt/sda5/.user/root/src/openwatcom-1.9/bld/gui/ui/dos386/gui.lib(/mnt/sda5/.user/root/src/openwatcom-1.9/bld/gui/c/guicreat.c)
0001:00053ae0  GUICreateWindow_
0003:0000601c  _GUIMDI
Module: /mnt/sda5/.user/root/src/openwatcom-1.9/bld/gui/ui/dos386/gui.lib(/mnt/sda5/.user/root/src/openwatcom-1.9/bld/gui/ui/c/guisicon.c)
0001:00053b40  GUISetIcon_
Module: /mnt/sda5/.user/root/src/openwatcom-1.9/bld/gui/ui/dos386/gui.lib(/mnt/sda5/.user/root/src/openwatcom-1.9/bld/gui/ui/c/guidrect.c)
0001:00053b90  GUIWndDirtyRect_
Module: /mnt/sda5/.user/root/src/openwatcom-1.9/bld/gui/ui/dos386/gui.lib(/mnt/sda5/.user/root/src/openwatcom-1.9/bld/gui/ui/c/guidrow.c)
0001:00053ce0  GUIWndDirtyRow_
Module: /mnt/sda5/.user/root/src/openwatcom-1.9/bld/gui/ui/dos386/gui.lib(/mnt/sda5/.user/root/src/openwatcom-1.9/bld/gui/ui/c/guiscrol.c)
0001:00053d30  GUIScroll_
0001:00053e70+ SetScroll_
0001:00053e90  GUIInitHScroll_
0001:00053eb0* GUIInitHScrollCol_
0001:00053ed0* GUIInitVScroll_
0001:00053ef0  GUIInitVScrollRow_
0001:00053f10  GUISetHScroll_
0001:00053f30* GUISetHScrollCol_
0001:00053f50* GUISetVScroll_
0001:00053f70* GUISetVScrollRow_
Module: /mnt/sda5/.user/root/src/openwatcom-1.9/bld/gui/ui/dos386/gui.lib(/mnt/sda5/.user/root/src/openwatcom-1.9/bld/gui/c/guidraw.c)
0001:00053f90  GUIDrawText_
0001:00053fe0* GUIDrawTextPos_
0001:00054000  GUIDrawTextExtent_
0001:00054050* GUIDrawTextExtentPos_
0001:00054070* GUIDrawTextRGB_
0001:000540c0* GUIDrawTextPosRGB_
0001:000540e0* GUIDrawTextExtentRGB_
0001:00054130* GUIDrawTextExtentPosRGB_
Module: /mnt/sda5/.user/root/src/openwatcom-1.9/bld/gui/ui/dos386/gui.lib(/mnt/sda5/.user/root/src/openwatcom-1.9/bld/gui/ui/c/guidoscr.c)
0001:000542c0  GUIDoHScroll_
0001:000542e0  GUIDoVScroll_
0001:00054300* GUIDoHScrollClip_
0001:00054310  GUIDoVScrollClip_
Module: /mnt/sda5/.user/root/src/openwatcom-1.9/bld/gui/ui/dos386/gui.lib(/mnt/sda5/.user/root/src/openwatcom-1.9/bld/gui/c/guipixel.c)
0001:00054320  GUITruncToPixel_
Module: /mnt/sda5/.user/root/src/openwatcom-1.9/bld/gui/ui/dos386/gui.lib(/mnt/sda5/.user/root/src/openwatcom-1.9/bld/gui/ui/c/guirect.c)
0001:00054340  GUIGetRect_
Module: /mnt/sda5/.user/root/src/openwatcom-1.9/bld/gui/ui/dos386/gui.lib(/mnt/sda5/.user/root/src/openwatcom-1.9/bld/gui/ui/c/guimouse.c)
0001:000543c0  GUIGetMousePosn_
Module: /mnt/sda5/.user/root/src/openwatcom-1.9/bld/gui/ui/dos386/gui.lib(/mnt/sda5/.user/root/src/openwatcom-1.9/bld/gui/ui/c/guisize.c)
0001:000545c0* GUISetCheckResizeAreaForChildren_
0001:000545e0  GUICheckResizeAreaForChildren_
0001:000546a0  GUICheckResizeAreaForParent_
0001:000549c0  GUICheckMove_
0001:00054b50  GUICheckArea_
0001:00054ca0  GUIWndMoveSize_
0001:00054dd0+ GUICalcIconArea_
0001:00054fa0  GUIZoomWnd_
0001:000550f0  GUIResizeWindow_
0001:00055190  GUISetRestoredSize_
0001:000551e0* GUIGetRestoredSize_
0001:00055230  GUIMinimizeWindow_
0001:00055250  GUIMaximizeWindow_
0001:00055270  GUIRestoreWindow_
0001:00055290  GUIIsMaximized_
0001:000552a0  GUIIsMinimized_
Module: /mnt/sda5/.user/root/src/openwatcom-1.9/bld/gui/ui/dos386/gui.lib(/mnt/sda5/.user/root/src/openwatcom-1.9/bld/gui/ui/c/guixdisp.c)
0001:000553c0+ DisplayMessage_
0001:000553f0+ GUIStrnDup_
0001:00055460+ TabFilter_
0001:000556d0+ AdjustVert_
0001:00055840  GUIDisplayMessage_
Module: /mnt/sda5/.user/root/src/openwatcom-1.9/bld/gui/ui/dos386/gui.lib(/mnt/sda5/.user/root/src/openwatcom-1.9/bld/gui/ui/c/guildstr.c)
0001:00055a60  GUIIsLoadStrInitialized_
0001:00055a70  GUILoadStrInit_
0001:00055b40  GUILoadStrFini_
0001:00055b70  GUILoadString_
0001:00055bb0  GUILoadDialogTemplate_
0001:00055c00  GUILoadMenuTemplate_
0003:000062c0  _WResRtns
Module: /mnt/sda5/.user/root/src/openwatcom-1.9/bld/gui/ui/dos386/gui.lib(/mnt/sda5/.user/root/src/openwatcom-1.9/bld/gui/ui/c/guifront.c)
0001:00055c50  GUIBringToFront_
0001:00055d00* GUIActivateNC_
Module: /mnt/sda5/.user/root/src/openwatcom-1.9/bld/gui/ui/dos386/gui.lib(/mnt/sda5/.user/root/src/openwatcom-1.9/bld/gui/ui/c/guistrin.c)
0001:00055d50  GUIGetStringPos_
Module: /mnt/sda5/.user/root/src/openwatcom-1.9/bld/gui/ui/dos386/gui.lib(/mnt/sda5/.user/root/src/openwatcom-1.9/bld/gui/ui/c/guixbar.c)
0001:00055da0  GUIDrawBar_
0001:00055e10  GUIDrawBarGroup_
Module: /mnt/sda5/.user/root/src/openwatcom-1.9/bld/gui/ui/dos386/gui.lib(/mnt/sda5/.user/root/src/openwatcom-1.9/bld/gui/ui/c/guidrawr.c)
0001:00056110* GUIDrawRect_
0001:00056130* GUIFillRect_
0001:00056150  GUIFillBar_
0001:00056170  GUIDrawLine_
0001:00056230* GUIDrawRectRGB_
0001:00056230* GUIFillRectRGB_
0001:00056240* GUIDrawLineRGB_
Module: /mnt/sda5/.user/root/src/openwatcom-1.9/bld/gui/ui/dos386/gui.lib(/mnt/sda5/.user/root/src/openwatcom-1.9/bld/gui/ui/c/guixhot.c)
0001:00056250  GUIXInitHotSpots_
0001:000562f0  GUIDrawHotSpot_
0001:00056330  GUIXCleanupHotSpots_
0003:000062e0  _GUIHotSpots
Module: /mnt/sda5/.user/root/src/openwatcom-1.9/bld/gui/ui/dos386/gui.lib(/mnt/sda5/.user/root/src/openwatcom-1.9/bld/gui/ui/c/guitool.c)
0001:00056360  GUIXCreateFixedToolbar_
0001:000567f0  GUIXCreateToolBar_
0001:000569c0  GUIXCreateToolBarWithTips_
0001:000569f0  GUIXCloseToolBar_
0001:00056ad0  GUIHasToolBar_
0001:00056ae0  GUIToolBarFixed_
0001:00056b30* GUIChangeToolBar_
Module: /mnt/sda5/.user/root/src/openwatcom-1.9/bld/gui/ui/dos386/gui.lib(/mnt/sda5/.user/root/src/openwatcom-1.9/bld/gui/c/guihtool.c)
0001:00056b70* GUICreateFloatToolBar_
0001:00056bd0  GUICreateToolBar_
0001:00056c30  GUICreateToolBarWithTips_
0001:00056c90  GUICloseToolBar_
Module: /mnt/sda5/.user/root/src/openwatcom-1.9/bld/ui/dos/dos386/ui.lib(/mnt/sda5/.user/root/src/openwatcom-1.9/bld/ui/c/uimenu.c)
0001:00056cb3  uisetbetweentitles_
0001:00056cb9  uialtchar_
0001:00056e6d  uidisplayitem_
0001:0005716e  uidrawmenu_
0001:000571d3  uiclosepopup_
0001:000571e4  uiopenpopup_
0001:00057395+ process_menuevent_
0001:000578eb* uigeteventfrompos_
0001:00057957  menuevent_
0001:00057a6e  uidescmenu_
0001:00057ca2  uimenutitlebar_
0001:00057d11* uienablemenuitem_
0001:00057d48* uimenuindicators_
0001:00057d62  uisetmenudesc_
0001:00057dee  uimenuson_
0001:00057df9  uimenuheight_
0001:00057e11  uimenudisable_
0001:00057e2f  uimenuisdisabled_
0001:00057e44* uimenugetaltpressed_
0001:00057e59  uimenusetaltpressed_
0001:00057e77  uinomenus_
0001:00057e79  uimenubar_
0001:00057ed7* uimenus_
0001:00057f14* uiactivatemenus_
0001:00057f36* uiignorealt_
0001:00057f44  uigetcurrentmenu_
Module: /mnt/sda5/.user/root/src/openwatcom-1.9/bld/gui/ui/dos386/gui.lib(/mnt/sda5/.user/root/src/openwatcom-1.9/bld/gui/ui/c/guiwhole.c)
0001:00057f80  GUIWholeWndDirty_
Module: /mnt/sda5/.user/root/src/openwatcom-1.9/bld/ui/dos/dos386/ui.lib(/mnt/sda5/.user/root/src/openwatcom-1.9/bld/ui/c/uigadget.c)
0003:000063c0  _VertScrollFrame
0003:000063c2  _HorzScrollFrame
0003:000063c4  _SliderChar
0003:000063c6  _LeftPoint
0003:000063c8  _RightPoint
0003:000063ca  _UpPoint
0003:000063cc  _DownPoint
0001:00057faa  uishowgadget_
0001:000581cc  uiinitgadget_
0001:000581dd  uidrawgadget_
0001:000581ff  uisetgadget_
0001:0005820b  uifinigadget_
0001:0005820c  uisetgadgetnodraw_
0001:00058211  uigadgetfilter_
Module: /mnt/sda5/.user/root/src/openwatcom-1.9/bld/gui/ui/dos386/gui.lib(/mnt/sda5/.user/root/src/openwatcom-1.9/bld/gui/c/guisdef.c)
0003:0000b694  ___LITApplIcon
0003:0000b698  ___LITEmpty
0003:0000b69c  ___LITBrightGreen
0003:0000b6a0  ___LITOS2_Dialog_Font
0003:0000b6a4  ___LITBrightCyan
0003:0000b6a8  ___LITBrightBlue
0003:0000b6ac  ___LITBrightRed
0003:0000b6b0  ___LITBlank
0003:0000b6b4  ___LITBrightYellow
0003:0000b6b8  ___LITTable_of_Contents
0003:0000b6bc  ___LITInternal_Last_Message
0003:0000b6c0  ___LITBrightWhite
0003:0000b6c4  ___LITBrightMagenta
0003:0000b6c8  ___LITWhite
0003:0000b6cc  ___LITWindows_Dialog_Font
0003:0000b6d0  ___LITGrey
0003:0000b6d4  ___LITXNo
0003:0000b6d8  ___LITXIgnore
0003:0000b6dc  ___LITBlack
0003:0000b6e0  ___LITFix_Toolbar_Hint
0003:0000b6e4  ___LITCyan
0003:0000b6e8  ___LITBrown
0003:0000b6ec  ___LITBlue
0003:0000b6f0  ___LITGreen
0003:0000b6f4  ___LITExclamation
0003:0000b6f8  ___LITXAbort
0003:0000b6fc  ___LITWindow_Name_Hint
0003:0000b700  ___LITColour
0003:0000b704  ___LITXFix_Toolbar
0003:0000b708  ___LITStop_Bang
0003:0000b70c  ___LITMagenta
0003:0000b710  ___LITRed
0003:0000b714  ___LITXRetry
0003:0000b718  ___LITSelect_Window
0003:0000b71c  ___LITXYes
0003:0000b720  ___LITNexXt
0003:0000b724  ___LITArrange_Icons_Hint
0003:0000b728  ___LITClose
0003:0000b72c  ___LITFDlg_Open_Text
0003:0000b730  ___LITTile_Horz_Hint
0003:0000b734  ___LITCascade_Hint
0003:0000b738  ___LITTile_XVert
0003:0000b73c  ___LITTile_Vert_Hint
0003:0000b740  ___LITTile_XHorz
0003:0000b744  ___LITRestore
0003:0000b748  ___LITMove
0003:0000b74c  ___LITMore_Windows_Hint
0003:0000b750  ___LITXMore_Windows
0003:0000b754  ___LITXClose
0003:0000b758  ___LITSize
0003:0000b75c  ___LITXCascade
0003:0000b760  ___LITMinimize
0003:0000b764  ___LITXArrange_Icons
0003:0000b768  ___LITMaximize
0003:0000b76c  ___LITXFix_Tool_Bar
0003:0000b770  ___LITFile_Exists_Replace
0003:0000b774  ___LITChange_XFont_
0003:0000b778  ___LITCancel
0003:0000b77c  ___LITOpen_Failed
0003:0000b780  ___LITDrives_Colon
0003:0000b784  ___LITFDlg_Save_Text
0003:0000b788  ___LITList_Files_of_Type_Colon
0003:0000b78c  ___LITPen_Failed
0003:0000b790  ___LITFile_Name_Colon
0003:0000b794  ___LITChange_Font_for_this_window
0003:0000b798  ___LITMake_Tool_Bar_Fixed
0003:0000b79c  ___LITFloating_Toolbar
0003:0000b7a0  ___LITInternal_First_Message
0003:0000b7a4  ___LITDirectories_Colon
0003:0000b7a8  ___LITOK
Module: /mnt/sda5/.user/root/src/openwatcom-1.9/bld/gui/ui/dos386/gui.lib(/mnt/sda5/.user/root/src/openwatcom-1.9/bld/gui/c/guidlg.c)
0001:00058540  GUICreateDialog_
0001:00058550  GUICreateResDialog_
0001:00058570  GUICreateSysModalDialog_
Module: /mnt/sda5/.user/root/src/openwatcom-1.9/bld/ui/dos/dos386/ui.lib(/mnt/sda5/.user/root/src/openwatcom-1.9/bld/ui/c/uidialog.c)
0001:00058b9f  uiprintfield_
0001:00058be3+ ui_split_line_
0001:00058c85+ uiinitdialog_
0001:00058da7* uifinidialog_
0001:00058e65  uireinitdialog_
0001:00058ef7  uigetdialogarea_
0001:00058f0c  uibegdialog_
0001:00058fd0  uiupdatecombobox_
0001:00059043  uiupdateedit_
0001:000590df+ pulldownfilter_
0001:000592dd+ uidialogexitcurr_
0001:000592f4  uidialogsetcurr_
0001:00059346  uimovefield_
0001:000593a2  uiredrawdialog_
0001:000593de  uiresizedialog_
0001:000597f0+ uihotkeyfilter_
0001:000598ed  uiprocessdialogevent_
0001:00059ac9  uidialog_
0001:00059bd5  uifreedialog_
0001:00059c21  uienddialog_
0001:00059c39* uidialogisdirty_
0001:00059c49* uidialogsetdirty_
Module: /mnt/sda5/.user/root/src/openwatcom-1.9/bld/gui/ui/dos386/gui.lib(/mnt/sda5/.user/root/src/openwatcom-1.9/bld/gui/c/guiutil.c)
0001:00059c60* GUIStripTrailingBlanks_
0001:00059ce0  GUIStrDup_
0001:00059d60  GUIStoreArgs_
0001:00059d80* GUIGetArgs_
0001:00059db0* GUIIsRootWindow_
0001:00059dd0  GUIGetRootWindow_
Module: /mnt/sda5/.user/root/src/openwatcom-1.9/bld/gui/ui/dos386/gui.lib(/mnt/sda5/.user/root/src/openwatcom-1.9/bld/gui/ui/c/guihotsp.c)
0001:00059de0  GUICreateHot_
0001:00059e60  GUIFreeHotSpot_
0001:00059e80  GUISetHotSpotText_
Module: /mnt/sda5/.user/root/src/openwatcom-1.9/bld/aui/dos386/aui.lib(/mnt/sda5/.user/root/src/openwatcom-1.9/bld/aui/c/rxwrap.c)
0003:0000b7cc  _RegExpError
0001:00059f20  RegComp_
0001:0005ab60  RegExec_
0001:0005b110* RegAnchor_
0003:00006444  _SrchMetaChars
0003:00006452+ _RealTabs
Module: /mnt/sda5/.user/root/src/openwatcom-1.9/bld/gui/ui/dos386/gui.lib(/mnt/sda5/.user/root/src/openwatcom-1.9/bld/gui/c/guihflt.c)
0001:0005b120  GUICreateFloatingPopup_
Module: /mnt/sda5/.user/root/src/openwatcom-1.9/bld/ui/dos/dos386/ui.lib(/mnt/sda5/.user/root/src/openwatcom-1.9/bld/ui/dos/c/uispawn.c)
0001:0005b18d  uispawnstart_
0001:0005b1ac  uispawnend_
Module: /mnt/sda5/.user/root/src/openwatcom-1.9/bld/ui/dos/dos386/ui.lib(/mnt/sda5/.user/root/src/openwatcom-1.9/bld/ui/c/uiblank.c)
0001:0005b219* uiblankattr_
0001:0005b22c* uiblankarea_
0001:0005b246  uiblankscreen_
Module: /mnt/sda5/.user/root/src/openwatcom-1.9/bld/ui/dos/dos386/ui.lib(/mnt/sda5/.user/root/src/openwatcom-1.9/bld/ui/c/uidirty.c)
0001:0005b253  dirtyarea_
0001:0005b2d5  dirtynext_
0001:0005b325  uidirty_
Module: /mnt/sda5/.user/root/src/openwatcom-1.9/bld/gui/ui/dos386/gui.lib(/mnt/sda5/.user/root/src/openwatcom-1.9/bld/gui/c/guihook.c)
0001:0005b340  GUISetHotSpotCleanup_
0001:0005b350  GUICleanupHotSpots_
0001:0005b370* GUISetXChangeTitle_
0001:0005b380  GUIXChangeTitle_
0001:0005b3a0  GUISetXInitMDI_
0001:0005b3b0  GUIXInitMDI_
0001:0005b3d0  GUISetInitMDI_
0001:0005b3e0  GUIInitMDI_
0001:0005b400  GUIChangeMDITitle_
0001:0005b420  GUISetMDIChangeTitle_
0001:0005b430  GUISetMDIBroughtToFront_
0001:0005b440  GUIMDIBroughtToFront_
0001:0005b460  GUISetMDIDelete_
0001:0005b470  GUIMDIDelete_
0001:0005b490  GUISetMDIResetMenus_
0001:0005b4a0  GUIMDIResetMenus_
0001:0005b4c0  GUISetMDIDeleteMenuItem_
0001:0005b4d0  GUIMDIDeleteMenuItem_
0001:0005b4f0* GUISetEnableMDIActions_
0001:0005b500  GUIEnableMDIActions_
0001:0005b520* GUISetAddMDIActions_
0001:0005b530  GUIAddMDIActions_
Module: /mnt/sda5/.user/root/src/openwatcom-1.9/bld/ui/dos/dos386/ui.lib(/mnt/sda5/.user/root/src/openwatcom-1.9/bld/ui/c/uilist.c)
0001:0005b544* uigetlist_
0001:0005b54d* uiputlist_
0001:0005b55a  uipushlist_
0001:0005b596* uichecklist_
0001:0005b5b8  uipoplist_
0001:0005b5dc  uiinlist_
0001:0005b634* uiintoplist_
Module: /mnt/sda5/.user/root/src/openwatcom-1.9/bld/gui/ui/dos386/gui.lib(/mnt/sda5/.user/root/src/openwatcom-1.9/bld/gui/ui/c/guilistb.c)
0001:0005b680  GUIClearListBox_
0001:0005b6a0  GUIListBoxDeleteItem_
0001:0005b760  GUIFreeList_
0001:0005b7d0  GUIFillInListBox_
0001:0005b7f0  GUICreateListBox_
0001:0005b820  GUICreateEditMLE_
0001:0005b8f0  GUIListSize_
0001:0005ba40  GUIListBoxAddText_
0001:0005baa0  GUIListBoxAddTextList_
0001:0005bb20  GUIGetListBoxText_
0001:0005bb50  GUIListCurr_
0001:0005bb90  GUIListBoxTopIndex_
0001:0005bbc0* GUISetListItemData_
0001:0005bbc0* GUIDropDown_
0001:0005bbd0* GUIGetListItemData_
Module: /mnt/sda5/.user/root/src/openwatcom-1.9/bld/gui/ui/dos386/gui.lib(/mnt/sda5/.user/root/src/openwatcom-1.9/bld/gui/ui/c/guixutil.c)
0001:0005bbe0* GUISetRedraw_
0001:0005bbf0  GUIIsOpen_
0001:0005bc00  GUISetUseArea_
0001:0005bc50  GUISetUseWnd_
0001:0005bc60  GUIPtInRect_
0001:0005bd20  GUIOverlap_
0001:0005bd40  GUISetDialogArea_
0001:0005bd90  GUIAdjustDialogArea_
0001:0005bda0  GUIGetSAREA_
0001:0005bdd0  GUIGetClientSAREA_
0001:0005be00  GUISetArea_
0001:0005c010  GUIMakeEditCopy_
0001:0005c060  GUIRedrawTitle_
0001:0005c070  GUIMakeRelative_
0001:0005c0e0  GUIJustSetWindowText_
0001:0005c110* GUIInArea_
0001:0005c150  GUIDirtyArea_
0001:0005c160  GUIGetTopWnd_
0001:0005c180  GUIGetFirstSibling_
0001:0005c1a0  GUIGetParentWindow_
0001:0005c1b0  GUIXGetRootWindow_
0001:0005c1d0  GUISetCursor_
0001:0005c1f0* GUIUnHookF1_
0001:0005c1f0* GUIHookF1_
Module: /mnt/sda5/.user/root/src/openwatcom-1.9/bld/gui/ui/dos386/gui.lib(/mnt/sda5/.user/root/src/openwatcom-1.9/bld/gui/c/guimkey.c)
0001:0005c210  GUIMapKey_
0001:0005c670  GUIGetKeyState_
0003:000064fc  _KeyState
Module: /mnt/sda5/.user/root/src/openwatcom-1.9/bld/gui/ui/dos386/gui.lib(/mnt/sda5/.user/root/src/openwatcom-1.9/bld/gui/ui/c/guirdlg.c)
0001:0005c690+ GUIFreeDialogBoxControlPtrs_
0001:0005c6e0+ GUIFreeDialogBoxHeader_
0001:0005d060  GUICreateDialogFromRes_
Module: /mnt/sda5/.user/root/src/openwatcom-1.9/bld/ui/dos/dos386/ui.lib(/mnt/sda5/.user/root/src/openwatcom-1.9/bld/ui/c/uiyield.c)
0001:0005d2a5  uiyield_
Module: /mnt/sda5/.user/root/src/openwatcom-1.9/bld/gui/ui/dos386/gui.lib(/mnt/sda5/.user/root/src/openwatcom-1.9/bld/gui/ui/c/guixloop.c)
0003:00006508  _GUIUserEvents
0001:0005d5c0  GUICreatePopup_
0001:0005dc30  GUIGetMenuWindow_
0001:0005dda0  GUIProcessEvent_
Module: /mnt/sda5/.user/root/src/openwatcom-1.9/bld/gui/ui/dos386/gui.lib(/mnt/sda5/.user/root/src/openwatcom-1.9/bld/gui/ui/c/guifdlg.c)
0001:0005e780+ Compare_
0001:0005f400+ ProcessOKorDClick_
0001:0005f720+ GetFileNameEvent_
0001:0005f8f0  GUIGetFileName_
0001:0005f950* GUIHookFileDlg_
Module: /mnt/sda5/.user/root/src/openwatcom-1.9/bld/gui/ui/dos386/gui.lib(/mnt/sda5/.user/root/src/openwatcom-1.9/bld/gui/ui/c/guixscal.c)
0001:0005fa20  GUIGetScreenArea_
0001:0005fa50  GUIMulDiv_
0001:0005faf0  GUIScreenToScaleRect_
0001:0005fb10  GUIScreenToScaleRectR_
0001:0005fb30  GUIScaleToScreenRect_
0001:0005fb50  GUIScaleToScreenRectR_
Module: /mnt/sda5/.user/root/src/openwatcom-1.9/bld/gui/ui/dos386/gui.lib(/mnt/sda5/.user/root/src/openwatcom-1.9/bld/help/c/helpopen.c)
0001:0005fd20+ do_init_
0001:0005fe40  helpinit_
0001:0005ff10  help_reinit_
0001:0005ff80  helpfini_
0003:00006718  _HelpFiles
Module: /mnt/sda5/.user/root/src/openwatcom-1.9/bld/gui/ui/dos386/gui.lib(/mnt/sda5/.user/root/src/openwatcom-1.9/bld/help/c/help.c)
0001:00060010+ hlp_ut_screen_area_
0001:00060060+ hlp_ut_position_
0001:000606c0+ help_next_field_
0001:00060860* Free_Stack_
0001:00060880+ help_in_tab_
0001:00061d40  showhelp_
0001:00061fd0+ do_showhelp_
Module: /mnt/sda5/.user/root/src/openwatcom-1.9/bld/gui/ui/dos386/gui.lib(/mnt/sda5/.user/root/src/openwatcom-1.9/bld/gui/ui/c/guithumb.c)
0001:00062260* GUISetHScrollThumb_
0001:000622a0  GUISetVScrollThumb_
Module: /mnt/sda5/.user/root/src/openwatcom-1.9/bld/gui/ui/dos386/gui.lib(/mnt/sda5/.user/root/src/openwatcom-1.9/bld/gui/ui/c/guigscrl.c)
0001:000622e0* GUIGetHScrollCol_
0001:00062300* GUIGetVScrollRow_
0001:00062320  GUIGetHScroll_
0001:00062350* GUIGetVScroll_
Module: /mnt/sda5/.user/root/src/openwatcom-1.9/bld/ui/dos/dos386/ui.lib(/mnt/sda5/.user/root/src/openwatcom-1.9/bld/ui/dos/c/charmap.c)
0001:0006237c  SetSequencer_
0001:000623d2  ResetSequencer_
0001:0006243b  SetWriteMap_
0001:00062446* CallVid_
Module: /mnt/sda5/.user/root/src/openwatcom-1.9/bld/ui/dos/dos386/ui.lib(/mnt/sda5/.user/root/src/openwatcom-1.9/bld/ui/c/uivscrn.c)
0001:00062457  findvscreen_
0001:000624ad  uivdirty_
0001:000624bb  uivsetactive_
0001:000624d3  uivsetcursor_
Module: /mnt/sda5/.user/root/src/openwatcom-1.9/bld/ui/dos/dos386/ui.lib(/mnt/sda5/.user/root/src/openwatcom-1.9/bld/ui/c/uibfill.c)
0001:00062506  bfill_
Module: /mnt/sda5/.user/root/src/openwatcom-1.9/bld/ui/dos/dos386/ui.lib(/mnt/sda5/.user/root/src/openwatcom-1.9/bld/ui/c/uibcopy.c)
0001:00062547  uibcopy_
Module: /mnt/sda5/.user/root/src/openwatcom-1.9/bld/ui/dos/dos386/ui.lib(/mnt/sda5/.user/root/src/openwatcom-1.9/bld/ui/c/uiwin.c)
0001:000625f2+ findspot_
0001:00062657  closewindow_
0001:000626a1  openwindow_
0001:000626cc  movewindow_
0001:000626f6  frontwindow_
Module: /mnt/sda5/.user/root/src/openwatcom-1.9/bld/ui/dos/dos386/ui.lib(/mnt/sda5/.user/root/src/openwatcom-1.9/bld/ui/c/uiballoc.c)
0001:00062724  bframe_
0001:00062739  balloc_
0001:0006276b  bunframe_
0001:00062780  bfree_
Module: /mnt/sda5/.user/root/src/openwatcom-1.9/bld/ui/dos/dos386/ui.lib(/mnt/sda5/.user/root/src/openwatcom-1.9/bld/ui/dos/c/uisnow.c)
0001:0006278e  vertretrace_
0001:0006278f  issnow_
Module: /mnt/sda5/.user/root/src/openwatcom-1.9/bld/ui/dos/dos386/ui.lib(/mnt/sda5/.user/root/src/openwatcom-1.9/bld/ui/c/uipget.c)
0001:000627b7  saveevent_
0001:000627dd  getprime_
0001:00062805* uivgetprimevent_
0001:00062805* uivgetprime_
0003:0000b8e0  _Event
Module: /mnt/sda5/.user/root/src/openwatcom-1.9/bld/ui/dos/dos386/ui.lib(/mnt/sda5/.user/root/src/openwatcom-1.9/bld/ui/dos/c/uihook.c)
0001:0006280c  uieventsourcehook_
Module: /mnt/sda5/.user/root/src/openwatcom-1.9/bld/ui/dos/dos386/ui.lib(/mnt/sda5/.user/root/src/openwatcom-1.9/bld/ui/c/uivfill.c)
0001:0006280d  uivfill_
Module: /mnt/sda5/.user/root/src/openwatcom-1.9/bld/ui/dos/dos386/ui.lib(/mnt/sda5/.user/root/src/openwatcom-1.9/bld/ui/c/uivstr.c)
0001:00062875  uitextfield_
0001:0006294e  uivtextput_
0001:0006299f* uivrawput_
Module: /mnt/sda5/.user/root/src/openwatcom-1.9/bld/gui/ui/dos386/gui.lib(/mnt/sda5/.user/root/src/openwatcom-1.9/bld/gui/ui/c/guiximdi.c)
0001:00062a70  XFakeInitMDI_
Module: /mnt/sda5/.user/root/src/openwatcom-1.9/bld/gui/ui/dos386/gui.lib(/mnt/sda5/.user/root/src/openwatcom-1.9/bld/gui/c/guimdi.c)
0003:00006990+ _GUIMDIMenuID
0003:00006994+ _Root
0001:00062a90* GUIGetRoot_
0001:00062d20  MDIDeleteMenu_
0001:00062d40  MDIResetMenus_
0001:00062dc0* GUIEnableMDIMenus_
0001:00062e50  InitMDI_
0001:00062fa0  ChangeTitle_
0001:00062fe0  BroughtToFront_
0001:00063050+ FindNextMDIMenuWindowNotInArray_
0001:000630c0  MDIDelete_
0001:00063370+ GUIGetNumChildWindows_
0001:000633a0* GUIGetNumIconicWindows_
0001:00063420  GUIMDIMoreWindows_
0001:00063480  GUIMDIGetWindow_
Module: /mnt/sda5/.user/root/src/openwatcom-1.9/bld/gui/ui/dos386/gui.lib(/mnt/sda5/.user/root/src/openwatcom-1.9/bld/gui/ui/c/guifloat.c)
0001:00063510  GUIProcessMenuCurr_
0001:00063600  GUICreateMenuPopup_
0001:00063880  GUIXCreateFloatingPopup_
0001:000638d0* GUITrackFloatingPopup_
0003:000069b0  _GUIPopupMenu
Module: /mnt/sda5/.user/root/src/openwatcom-1.9/bld/gui/ui/dos386/gui.lib(/mnt/sda5/.user/root/src/openwatcom-1.9/bld/gui/c/guihint.c)
0001:00063a50+ GUIHasHintType_
0001:00063a80  GUIDisplayHintText_
0001:00063af0* GUISetHintText_
0001:00063b10  GUIHasHintText_
0001:00063b30  GUIDeleteHintText_
0001:00063c30+ CountMenus_
0001:00063c70+ InsertHint_
0001:00063cd0  GUIAppendHintText_
0001:00063d50  GUIInitHint_
0001:00063e20  GUIInitToolbarHint_
0001:00063ec0  GUIFreeHint_
Module: /mnt/sda5/.user/root/src/openwatcom-1.9/bld/gui/ui/dos386/gui.lib(/mnt/sda5/.user/root/src/openwatcom-1.9/bld/gui/ui/c/guisysme.c)
0001:00063f20  GUISetSystemMenuFlags_
0001:00063fe0  GUISetSystemMenu_
0001:000640e0  GUIProcessSysMenuEvent_
Module: /mnt/sda5/.user/root/src/openwatcom-1.9/bld/gui/ui/dos386/gui.lib(/mnt/sda5/.user/root/src/openwatcom-1.9/bld/gui/ui/c/guirmenu.c)
0001:00064510  GUIFreeGUIMenuStruct_
0001:000646c0  GUICreateMenuStructFromRes_
Module: /mnt/sda5/.user/root/src/openwatcom-1.9/bld/gui/ui/dos386/gui.lib(/mnt/sda5/.user/root/src/openwatcom-1.9/bld/gui/ui/c/guigadgt.c)
0001:00064780  GUIUseGadget_
0001:000647e0  GUIDrawGadgetLine_
0001:00064970  GUISetShowGadget_
0001:00064a10  GUIGadgetFilter_
0001:00064ae0  GUIInitGadget_
0001:00064b20  GUICreateGadget_
0001:00064c30  GUIGetScrollOffset_
Module: /mnt/sda5/.user/root/src/openwatcom-1.9/bld/gui/ui/dos386/gui.lib(/mnt/sda5/.user/root/src/openwatcom-1.9/bld/gui/ui/c/guiicon.c)
0001:00064c40  GUIDrawIcon_
Module: /mnt/sda5/.user/root/src/openwatcom-1.9/bld/ui/dos/dos386/ui.lib(/mnt/sda5/.user/root/src/openwatcom-1.9/bld/ui/c/uimget.c)
0001:00064d15  uivgetevent_
0001:00064d15  uivget_
0001:00064d1f* uiungetevent_
0001:00064d2f* uiflushevent_
Module: /mnt/sda5/.user/root/src/openwatcom-1.9/bld/gui/ui/dos386/gui.lib(/mnt/sda5/.user/root/src/openwatcom-1.9/bld/gui/ui/c/guiuiev.c)
0001:00064d40  GUIUIProcessEvent_
Module: /mnt/sda5/.user/root/src/openwatcom-1.9/bld/gui/ui/dos386/gui.lib(/mnt/sda5/.user/root/src/openwatcom-1.9/bld/gui/c/guiev.c)
0001:00064d50  GUIDoneEventProcessing_
0001:00064d50  GUIStartEventProcessing_
Module: /mnt/sda5/.user/root/src/openwatcom-1.9/bld/gui/ui/dos386/gui.lib(/mnt/sda5/.user/root/src/openwatcom-1.9/bld/gui/c/guistr.c)
0001:00064db0  GUIInitInternalStringTable_
0001:000651d0  GUIFiniInternalStringTable_
Module: /mnt/sda5/.user/root/src/openwatcom-1.9/bld/gui/ui/dos386/gui.lib(/mnt/sda5/.user/root/src/openwatcom-1.9/bld/gui/c/guideath.c)
0001:00065490  GUIDeath_
Module: /mnt/sda5/.user/root/src/openwatcom-1.9/bld/gui/ui/dos386/gui.lib(/mnt/sda5/.user/root/src/openwatcom-1.9/bld/gui/c/guiextnm.c)
0001:000654a0  GUIGetExtName_
0001:000654c0* GUISetExtName_
Module: /mnt/sda5/.user/root/src/openwatcom-1.9/bld/gui/ui/dos386/gui.lib(/mnt/sda5/.user/root/src/openwatcom-1.9/bld/gui/c/guidead.c)
0001:00065510  GUIDead_
Module: /mnt/sda5/.user/root/src/openwatcom-1.9/bld/gui/ui/dos386/gui.lib(/mnt/sda5/.user/root/src/openwatcom-1.9/bld/gui/ui/c/guixmain.c)
0001:00065520  main_
0003:00006ab8  _GUIMainTouched
Module: /mnt/sda5/.user/root/src/openwatcom-1.9/bld/gui/ui/dos386/gui.lib(/mnt/sda5/.user/root/src/openwatcom-1.9/bld/gui/c/guifcrck.c)
0001:00065530  GUIFirstCrack_
Module: /mnt/sda5/.user/root/src/openwatcom-1.9/bld/ui/dos/dos386/ui.lib(/mnt/sda5/.user/root/src/openwatcom-1.9/bld/ui/c/uivopen.c)
0001:0006558f  uivopen_
0001:00065768  uivclose_
0001:0006579d  uivresize_
0001:000658b8  uivmove_
Module: /mnt/sda5/.user/root/src/openwatcom-1.9/bld/ui/dos/dos386/ui.lib(/mnt/sda5/.user/root/src/openwatcom-1.9/bld/ui/c/uivhide.c)
0001:00065903  uivhide_
0001:00065929  uivshow_
Module: /mnt/sda5/.user/root/src/openwatcom-1.9/bld/gui/ui/dos386/gui.lib(/mnt/sda5/.user/root/src/openwatcom-1.9/bld/gui/c/guisetup.c)
0001:00065950  GUISetupWnd_
Module: /mnt/sda5/.user/root/src/openwatcom-1.9/bld/gui/ui/dos386/gui.lib(/mnt/sda5/.user/root/src/openwatcom-1.9/bld/gui/ui/c/guidrawt.c)
0001:000659a0  GUIXDrawText_
0001:00065cd0  GUIXDrawTextRGB_
Module: /mnt/sda5/.user/root/src/openwatcom-1.9/bld/ui/dos/dos386/ui.lib(/mnt/sda5/.user/root/src/openwatcom-1.9/bld/ui/c/uivmove.c)
0001:00065cd3  uivmoveblock_
Module: /mnt/sda5/.user/root/src/openwatcom-1.9/rel2/lib386/dos/clib3r.lib(strcspn.c)
0001:00065e10  strcspn_
Module: /mnt/sda5/.user/root/src/openwatcom-1.9/rel2/lib386/dos/clib3r.lib(strnset.c)
0001:00065e60  strnset_
Module: /mnt/sda5/.user/root/src/openwatcom-1.9/rel2/lib386/dos/clib3r.lib(write.c)
0001:00065f90  write_
Module: /mnt/sda5/.user/root/src/openwatcom-1.9/rel2/lib386/dos/clib3r.lib(tell.c)
0001:000661d0  tell_
Module: /mnt/sda5/.user/root/src/openwatcom-1.9/bld/sdk/rc/wres/small386/ms_r/wres.lib(loadfind.c)
0001:000661f0  FindResources_
0003:00006abc  _FileShift
Module: /mnt/sda5/.user/root/src/openwatcom-1.9/bld/sdk/rc/wres/small386/ms_r/wres.lib(loadstr.c)
0001:00066438+ WResLoadString2_
0001:000664e8  WResLoadString_
0001:00066500  OpenResFile_
0001:00066510+ InitResources2_
0001:00066538  InitResources_
0001:00066548* CloseResFile2_
0001:00066554  CloseResFile_
0001:0006656c* LoadstrInitStatics_
0003:0000bc58  _MainDir
Module: /mnt/sda5/.user/root/src/openwatcom-1.9/rel2/lib386/dos/clib3r.lib(iob.c)
0003:00006ac0  ___iob
0003:00006cc8  __fmode
0003:0000bc5c  ___OpenStreams
0003:0000bc60  ___ClosedStreams
Module: /mnt/sda5/.user/root/src/openwatcom-1.9/bld/sdk/rc/wres/small386/ms_r/wres.lib(loadres.c)
0001:000665b4+ WResLoadResource2_
0001:00066674  WResLoadResource_
Module: /mnt/sda5/.user/root/src/openwatcom-1.9/bld/ui/dos/dos386/ui.lib(/mnt/sda5/.user/root/src/openwatcom-1.9/bld/ui/c/uibox.c)
0001:00066691  drawbox_
0001:000667d7  blowup_
0001:000668af  uidrawbox_
Module: /mnt/sda5/.user/root/src/openwatcom-1.9/bld/ui/dos/dos386/ui.lib(/mnt/sda5/.user/root/src/openwatcom-1.9/bld/ui/c/uibstr.c)
0001:00066923  bstring_
0001:00066968  braw_
Module: /mnt/sda5/.user/root/src/openwatcom-1.9/bld/ui/dos/dos386/ui.lib(/mnt/sda5/.user/root/src/openwatcom-1.9/bld/ui/c/uipopup.c)
0001:00066c6f+ uicreatepopupdesc_
0001:00066e5a  uiposfloatingpopup_
0001:000673a9  uicreatepopupinarea_
0001:000673cc+ uicreatesubpopup_
0001:00067412  uicreatesubpopupinarea_
0001:00067432* uicreatepopup_
Module: /mnt/sda5/.user/root/src/openwatcom-1.9/bld/ui/dos/dos386/ui.lib(/mnt/sda5/.user/root/src/openwatcom-1.9/bld/ui/c/uivutil.c)
0001:00067498  isdialogue_
0001:000674a8  isscreen_
0001:000674c7* uisetsnow_
Module: /mnt/sda5/.user/root/src/openwatcom-1.9/bld/gui/ui/dos386/gui.lib(/mnt/sda5/.user/root/src/openwatcom-1.9/bld/gui/ui/c/uimenucr.c)
0001:000674e0  uimenucurr_
Module: /mnt/sda5/.user/root/src/openwatcom-1.9/bld/ui/dos/dos386/ui.lib(/mnt/sda5/.user/root/src/openwatcom-1.9/bld/ui/c/uiprot.c)
0001:000674e5  uiunprotect_
0001:0006750c  uiprotect_
Module: /mnt/sda5/.user/root/src/openwatcom-1.9/bld/ui/dos/dos386/ui.lib(/mnt/sda5/.user/root/src/openwatcom-1.9/bld/ui/c/uiledit.c)
0001:0006758b  uiedittrim_
0001:0006759d* uieditmarking_
0001:000675d1  uibegedit_
0001:000676e5  uieditpushlist_
0001:000676f9  uieditpoplist_
0001:0006774f  uiledit_
0001:00067843* uieditinsert_
0001:000678c3  uiendedit_
0001:0006790b  uieditisdirty_
0001:00067932* uieditautoclear_
0001:00067947* uieditcursor_
0001:00067958* uieditdirty_
0001:00067962* uieditclean_
0003:00006d44+ _UIEdit
Module: /mnt/sda5/.user/root/src/openwatcom-1.9/bld/ui/dos/dos386/ui.lib(/mnt/sda5/.user/root/src/openwatcom-1.9/bld/ui/c/uimisc.c)
0001:0006796c  uisetscreenarea_
0001:000679a8  uisetarea_
0001:000679f4  uiposition_
0001:00067a4e  uiopen_
0001:00067a8b  uiclose_
0001:00067a9c  uicntrtext_
0001:00067ae0  uinocursor_
0001:00067ae8  uicursor_
Module: /mnt/sda5/.user/root/src/openwatcom-1.9/bld/ui/dos/dos386/ui.lib(/mnt/sda5/.user/root/src/openwatcom-1.9/bld/ui/c/uilstbox.c)
0001:00067af2  uigetlistelement_
0001:00067b2a  uipaintlistbox_
0001:00067c7f+ checkitem_
0001:00067cf0  uiupdatelistbox_
0001:00067d63  uiboxpushlist_
0001:00067d6d  uiboxpoplist_
0001:00067d9b  uilistsize_
0001:00067db3  uimovelistbox_
0001:00067dd1  uibeglistbox_
0001:00067e9c  uiendlistbox_
0001:00067f45+ charselect_
0001:00067fb2  uilistbox_
Module: /mnt/sda5/.user/root/src/openwatcom-1.9/bld/ui/dos/dos386/ui.lib(/mnt/sda5/.user/root/src/openwatcom-1.9/bld/ui/c/uihotspt.c)
0001:000683a5  uidrawhottext_
0001:000684b7  uihotspot_
0001:00068661  uiposnhotspots_
0001:00068702  uiprinthotspots_
0001:00068726* uioffhotspots_
0001:00068761  uihotspotfilter_
0001:000688d0  uiisdefaulthotspot_
Module: /mnt/sda5/.user/root/src/openwatcom-1.9/rel2/lib386/dos/clib3r.lib(strncat.c)
0001:00068900  strncat_
Module: /mnt/sda5/.user/root/src/openwatcom-1.9/bld/gui/ui/dos386/gui.lib(/mnt/sda5/.user/root/src/openwatcom-1.9/bld/gui/ui/c/uidchfld.c)
0001:00068940  uidialogchangefield_
Module: /mnt/sda5/.user/root/src/openwatcom-1.9/bld/ui/dos/dos386/ui.lib(/mnt/sda5/.user/root/src/openwatcom-1.9/bld/ui/c/uidevent.c)
0001:00068945  uidialogevent_
Module: /mnt/sda5/.user/root/src/openwatcom-1.9/bld/gui/ui/dos386/gui.lib(/mnt/sda5/.user/root/src/openwatcom-1.9/bld/help/c/dialcb.c)
0001:00068950  uidialogcallback_
Module: /mnt/sda5/.user/root/src/openwatcom-1.9/rel2/lib386/dos/clib3r.lib(strncmp.c)
0001:00068960  strncmp_
Module: /mnt/sda5/.user/root/src/openwatcom-1.9/bld/gui/ui/dos386/gui.lib(/mnt/sda5/.user/root/src/openwatcom-1.9/bld/gui/ui/c/guimapky.c)
0001:00068990  GUISetKeyState_
0001:000689c0  GUIMapKeys_
Module: /mnt/sda5/.user/root/src/openwatcom-1.9/rel2/lib386/dos/clib3r.lib(itoa.c)
0001:00068ea0  utoa_
0001:00068ef0  itoa_
Module: /mnt/sda5/.user/root/src/openwatcom-1.9/bld/gui/ui/dos386/gui.lib(/mnt/sda5/.user/root/src/openwatcom-1.9/bld/gui/ui/c/guismove.c)
0001:00068f60  GUIStartMoveResize_
0001:00068f90  GUIStartKeyboardMoveResize_
0001:00069260* MoveResizeCancel_
0001:00069270  GUIDoKeyboardMoveResize_
0001:00069350  GUIDoMoveResize_
0001:000693b0  GUIDoMoveResizeCheck_
Module: /mnt/sda5/.user/root/src/openwatcom-1.9/bld/gui/ui/dos386/gui.lib(/mnt/sda5/.user/root/src/openwatcom-1.9/bld/gui/ui/c/guikey.c)
0001:00069400  GUIProcessAltMenuEvent_
Module: /mnt/sda5/.user/root/src/openwatcom-1.9/bld/gui/ui/dos386/gui.lib(/mnt/sda5/.user/root/src/openwatcom-1.9/bld/gui/ui/c/guixhook.c)
0001:000694a0  GUISetMDIProcessEvent_
0001:000694b0  GUIMDIProcessEvent_
Module: /mnt/sda5/.user/root/src/openwatcom-1.9/rel2/lib386/dos/clib3r.lib(dosdrive)
0001:000694c4* _dos_getdrive_
0001:000694d8  _dos_setdrive_
Module: /mnt/sda5/.user/root/src/openwatcom-1.9/rel2/lib386/dos/clib3r.lib(chdir.c)
0001:000694f0  chdir_
Module: /mnt/sda5/.user/root/src/openwatcom-1.9/rel2/lib386/dos/clib3r.lib(_istrcc_.asm)
0001:0006950c  strcasecmp_
Module: /mnt/sda5/.user/root/src/openwatcom-1.9/rel2/lib386/dos/clib3r.lib(strtok.c)
0001:00069520  strtok_
Module: /mnt/sda5/.user/root/src/openwatcom-1.9/rel2/lib386/dos/clib3r.lib(gtcwd.c)
0001:000695d0  getcwd_
Module: /mnt/sda5/.user/root/src/openwatcom-1.9/rel2/lib386/dos/clib3r.lib(dir.c)
0001:000696c0+ _opendir_
0001:000698c0  opendir_
0001:000698e0  readdir_
0001:00069910  closedir_
0001:00069950* rewinddir_
Module: /mnt/sda5/.user/root/src/openwatcom-1.9/rel2/lib386/dos/clib3r.lib(stat.c)
0001:000699ee  stat_
Module: /mnt/sda5/.user/root/src/openwatcom-1.9/bld/gui/ui/dos386/gui.lib(/mnt/sda5/.user/root/src/openwatcom-1.9/bld/gui/ui/c/helpmem.c)
0001:00069c50  HelpMemFree_
0001:00069c60  HelpMemAlloc_
0001:00069c70  HelpMemRealloc_
Module: /mnt/sda5/.user/root/src/openwatcom-1.9/rel2/lib386/dos/clib3r.lib(splitpat.c)
0001:00069cc0  _splitpath_
Module: /mnt/sda5/.user/root/src/openwatcom-1.9/bld/gui/ui/dos386/gui.lib(/mnt/sda5/.user/root/src/openwatcom-1.9/bld/help/c/search.c)
0001:00069ff0  HelpFindFirst_
0001:0006a080  HelpGetIndexedTopic_
0001:0006a0f0  HelpFindTopicOffset_
0001:0006a160  InitHelpSearch_
0001:0006a3c0  GetDefTopic_
0001:0006a3d0* GetDescrip_
0001:0006a3e0  FiniHelpSearch_
0003:00006dd0+ _curFile
0003:0000bc68+ _curPage
0003:0000c068+ _pageIndex
0003:0000c06c+ _pageHeader
0003:0000c070+ _stringBlock
Module: /mnt/sda5/.user/root/src/openwatcom-1.9/bld/ui/dos/dos386/ui.lib(/mnt/sda5/.user/root/src/openwatcom-1.9/bld/ui/c/uivattr.c)
0001:0006a420  uivattribute_
0001:0006a466* uivattrflip_
Module: /mnt/sda5/.user/root/src/openwatcom-1.9/bld/ui/dos/dos386/ui.lib(/mnt/sda5/.user/root/src/openwatcom-1.9/bld/ui/c/uitab.c)
0001:0006a54f  uitabfilter_
Module: /mnt/sda5/.user/root/src/openwatcom-1.9/bld/gui/ui/dos386/gui.lib(/mnt/sda5/.user/root/src/openwatcom-1.9/bld/help/c/dlg.c)
0001:0006a870+ GetListBoxItem_
0001:0006a9a0  HelpDialogCallBack_
0001:0006aa30  SearchDlgFini_
0001:0006aa60  HelpSearch_
Module: /mnt/sda5/.user/root/src/openwatcom-1.9/bld/gui/ui/dos386/gui.lib(/mnt/sda5/.user/root/src/openwatcom-1.9/bld/help/c/helpscan.c)
0001:0006ad50+ freeHyperlinkInfo_
0001:0006ad70  ScanLine_
Module: /mnt/sda5/.user/root/src/openwatcom-1.9/rel2/lib386/dos/clib3r.lib(atoi.c)
0001:0006af00  atoi_
Module: /mnt/sda5/.user/root/src/openwatcom-1.9/bld/gui/ui/dos386/gui.lib(/mnt/sda5/.user/root/src/openwatcom-1.9/bld/help/c/vvscroll.c)
0001:0006af50  vvscroll_
Module: /mnt/sda5/.user/root/src/openwatcom-1.9/bld/gui/ui/dos386/gui.lib(/mnt/sda5/.user/root/src/openwatcom-1.9/bld/help/c/msgbox.c)
0001:0006b040  ShowMsgBox_
0003:00006e98+ _helpMsgBox
Module: /mnt/sda5/.user/root/src/openwatcom-1.9/bld/ui/dos/dos386/ui.lib(/mnt/sda5/.user/root/src/openwatcom-1.9/bld/ui/c/uicheck.c)
0001:0006b0d0  okarea_
0001:0006b0fe  oksubarea_
0001:0006b111  okline_
0001:0006b137  okopen_
Module: /mnt/sda5/.user/root/src/openwatcom-1.9/bld/ui/dos/dos386/ui.lib(/mnt/sda5/.user/root/src/openwatcom-1.9/bld/ui/c/uifar.c)
0001:0006b142  _farfill
0001:0006b162  _farcopy
0001:0006b180  _farstring
0001:0006b1da  _farattrib
0001:0006b1fb  _farattrflip
Module: /mnt/sda5/.user/root/src/openwatcom-1.9/bld/ui/dos/dos386/ui.lib(/mnt/sda5/.user/root/src/openwatcom-1.9/bld/ui/c/uimem.c)
0001:0006b220  faralloc_
0001:0006b225  farfree_
Module: /mnt/sda5/.user/root/src/openwatcom-1.9/bld/gui/ui/dos386/gui.lib(/mnt/sda5/.user/root/src/openwatcom-1.9/bld/gui/ui/c/guienum.c)
0001:0006b230  GUIEnumChildWindows_
Module: /mnt/sda5/.user/root/src/openwatcom-1.9/bld/sdk/rc/wres/small386/ms_r/wres.lib(resmenu.c)
0001:0006b260* ResWriteMenuHeader_
0001:0006b290* ResWriteMenuExHeader_
0001:0006b2f4+ ResWriteMenuItemPopup_
0001:0006b344* ResWriteMenuExItemPopup_
0001:0006b3dc+ ResWriteMenuItemNormal_
0001:0006b440* ResWriteMenuExItemNormal_
0001:0006b4c8* ResWriteMenuItem_
0001:0006b4ec+ ResReadMenuHeader_
0001:0006b52c* ResReadMenuExtraBytes_
0001:0006b568* ResIsMenuEx_
0001:0006b594* ResIsHeaderMenuEx_
0001:0006b5a0* ResReadMenuExItem_
0001:0006b680* ResReadMenuItem_
0001:0006b700* ResReadMenuItem32_
0001:0006b780  ResNewMenuItem_
0001:0006b7bc  ResFreeMenuItem_
Module: /mnt/sda5/.user/root/src/openwatcom-1.9/rel2/lib386/dos/clib3r.lib(cstart)
0001:00000003* ___begtext
0003:00000000* __nullarea
0003:00006ed4  __D16Infoseg
0003:00006ed6  __x386_zero_base_selector
0001:0006b7f4  _cstart_
0001:0006ba42  __exit_
0001:0006ba44  __do_exit_with_msg__
0001:0006ba8c  __GETDS
0001:0006ba8c  ___GETDSStart_
0001:0006ba97  ___GETDSEnd_
Module: /mnt/sda5/.user/root/src/openwatcom-1.9/rel2/lib386/dos/clib3r.lib(argcv.c)
0003:0000c08c  __argc
0003:0000c090  __argv
0003:0000c094  ___argc
0003:0000c098  ___argv
Module: /mnt/sda5/.user/root/src/openwatcom-1.9/bld/ui/dos/dos386/ui.lib(/mnt/sda5/.user/root/src/openwatcom-1.9/bld/ui/c/uibfake.c)
0001:0006baa0  bfake_
Module: /mnt/sda5/.user/root/src/openwatcom-1.9/rel2/lib386/dos/clib3r.lib(setbits.c)
0001:0006bae0  __setbits_
Module: /mnt/sda5/.user/root/src/openwatcom-1.9/rel2/lib386/dos/clib3r.lib(bits.c)
0003:00001614  __Bits
Module: /mnt/sda5/.user/root/src/openwatcom-1.9/rel2/lib386/dos/clib3r.lib(__lseek.c)
0001:0006bb20  __lseek_
Module: /mnt/sda5/.user/root/src/openwatcom-1.9/rel2/lib386/dos/clib3r.lib(dosret.c)
0001:0006bb70  _dosretax_
0001:0006bb80* _dosret0_
0001:0006bb90  __set_errno_dos_
0001:0006bc10* __set_errno_dos_reterr_
Module: /mnt/sda5/.user/root/src/openwatcom-1.9/rel2/lib386/dos/clib3r.lib(seterrno.c)
0001:0006bc1c  __set_errno_
0001:0006bc28* __set_EDOM_
0001:0006bc34  __set_ERANGE_
0001:0006bc40* __set_EINVAL_
0001:0006bc51  __set_doserrno_
Module: /mnt/sda5/.user/root/src/openwatcom-1.9/rel2/lib386/dos/clib3r.lib(iomode.c)
0001:0006bc60  __GetIOMode_
0001:0006bc80  __SetIOMode_nogrow_
0003:00006eec  ___NFiles
0003:00006ef0  ___init_mode
0003:00006f40  ___io_mode
Module: /mnt/sda5/.user/root/src/openwatcom-1.9/rel2/lib386/dos/clib3r.lib(stk)
0001:0006bcb7* __STK
0001:0006bca4  __CHK
0001:0006bcb4  __GRO
0001:0006bcd5  __STKOVERFLOW_
Module: /mnt/sda5/.user/root/src/openwatcom-1.9/bld/sdk/rc/wres/small386/ms_r/wres.lib(wriidfn.c)
0001:0006bcf0  WResInitIDFromNum_
Module: /mnt/sda5/.user/root/src/openwatcom-1.9/bld/sdk/rc/wres/small386/ms_r/wres.lib(wrfindrs.c)
0001:0006bd00  __FindType_
0001:0006bd24  __FindRes_
0001:0006bd48  __FindLang_
0001:0006bd84  WResFindResource_
Module: /mnt/sda5/.user/root/src/openwatcom-1.9/bld/sdk/rc/wres/small386/ms_r/wres.lib(wrgetli.c)
0001:0006be00  WResGetLangInfo_
0001:0006be14* WResGetFileInfo_
Module: /mnt/sda5/.user/root/src/openwatcom-1.9/bld/sdk/rc/wres/small386/ms_r/wres.lib(ropenfro.c)
0001:0006be30  ResOpenFileRO_
Module: /mnt/sda5/.user/root/src/openwatcom-1.9/bld/sdk/rc/wres/small386/ms_r/wres.lib(wrinitdi.c)
0001:0006be80  WResInitDir_
Module: /mnt/sda5/.user/root/src/openwatcom-1.9/bld/sdk/rc/wres/small386/ms_r/wres.lib(wrreaddi.c)
0001:0006c60c  WResReadDir_
0001:0006c618+ WResReadDir2_
Module: /mnt/sda5/.user/root/src/openwatcom-1.9/bld/sdk/rc/wres/small386/ms_r/wres.lib(wrfreedi.c)
0001:0006c6d0+ __FreeLangList_
0001:0006c6fc+ __FreeResList_
0001:0006c734  __FreeTypeList_
0001:0006c76c  WResFreeDir_
Module: /mnt/sda5/.user/root/src/openwatcom-1.9/bld/sdk/rc/wres/small386/ms_r/wres.lib(rclosef.c)
0001:0006c790  ResCloseFile_
Module: /mnt/sda5/.user/root/src/openwatcom-1.9/rel2/lib386/dos/clib3r.lib(initfile.c)
0001:0006c7b0  __InitFiles_
Module: /mnt/sda5/.user/root/src/openwatcom-1.9/rel2/lib386/dos/clib3r.lib(ioexit.c)
0001:0006c8b0* fcloseall_
0001:0006c8c0  __full_io_exit_
Module: /mnt/sda5/.user/root/src/openwatcom-1.9/bld/ui/dos/dos386/ui.lib(/mnt/sda5/.user/root/src/openwatcom-1.9/bld/ui/c/uibpix.c)
0001:0006c8cc  bpixel_
Module: /mnt/sda5/.user/root/src/openwatcom-1.9/bld/ui/dos/dos386/ui.lib(/mnt/sda5/.user/root/src/openwatcom-1.9/bld/ui/c/uivline.c)
0001:0006ca47  uiveditevent_
0001:0006cbd3* uiveditline_
0001:0006cbf9  uiveditinit_
0001:0006cc45  uiveditfini_
0003:00006f58  _LineEvents
Module: /mnt/sda5/.user/root/src/openwatcom-1.9/rel2/lib386/dos/clib3r.lib(alphabet.c)
0003:00000cdc  ___Alphabet
Module: /mnt/sda5/.user/root/src/openwatcom-1.9/bld/ui/dos/dos386/ui.lib(/mnt/sda5/.user/root/src/openwatcom-1.9/bld/ui/c/uiband.c)
0001:0006cc76  uibandinit_
0001:0006ccca  uibandmove_
0001:0006cced  uibandfini_
Module: /mnt/sda5/.user/root/src/openwatcom-1.9/rel2/lib386/dos/clib3r.lib(doserror)
0001:0006cd0c  __doserror_
Module: /mnt/sda5/.user/root/src/openwatcom-1.9/rel2/lib386/dos/clib3r.lib(mbsnextc.c)
0001:0006cd20  _mbsnextc_
Module: /mnt/sda5/.user/root/src/openwatcom-1.9/rel2/lib386/dos/clib3r.lib(mbsinc.c)
0001:0006cd60  _mbsinc_
Module: /mnt/sda5/.user/root/src/openwatcom-1.9/rel2/lib386/dos/clib3r.lib(finddos.c)
0001:0006cd90  _dos_findfirst_
0001:0006cde0  _dos_findnext_
0001:0006ce40  _dos_findclose_
Module: /mnt/sda5/.user/root/src/openwatcom-1.9/rel2/lib386/dos/clib3r.lib(strdup.c)
0001:0006ce50  __clib_strdup_
Module: /mnt/sda5/.user/root/src/openwatcom-1.9/rel2/lib386/dos/clib3r.lib(mbschr.c)
0001:0006cea0  _mbschr_
Module: /mnt/sda5/.user/root/src/openwatcom-1.9/rel2/lib386/dos/clib3r.lib(mbscmp.c)
0001:0006cf00  _mbscmp_
Module: /mnt/sda5/.user/root/src/openwatcom-1.9/rel2/lib386/dos/clib3r.lib(mbspbrk.c)
0001:0006cf70  _mbspbrk_
Module: /mnt/sda5/.user/root/src/openwatcom-1.9/rel2/lib386/dos/clib3r.lib(fullpath.c)
0001:0006cfc0+ _sys_fullpath_
0001:0006d2e0  _fullpath_
Module: /mnt/sda5/.user/root/src/openwatcom-1.9/rel2/lib386/dos/clib3r.lib(fstat.c)
0001:0006d360  fstat_
Module: /mnt/sda5/.user/root/src/openwatcom-1.9/rel2/lib386/dos/clib3r.lib(errno.c)
0001:0006d480  __get_errno_ptr_
0001:0006d490  __get_doserrno_ptr_
0003:0000c0d4+ _errno
0003:0000c0d8+ __doserrno
Module: /mnt/sda5/.user/root/src/openwatcom-1.9/rel2/lib386/dos/clib3r.lib(d2ttime.c)
0001:0006d4a0  _d2ttime_
Module: /mnt/sda5/.user/root/src/openwatcom-1.9/rel2/lib386/dos/clib3r.lib(mbsnccnt.c)
0001:0006d520  _mbsnccnt_
Module: /mnt/sda5/.user/root/src/openwatcom-1.9/rel2/lib386/dos/clib3r.lib(mbsncpy.c)
0001:0006d550  _mbsncpy_
Module: /mnt/sda5/.user/root/src/openwatcom-1.9/rel2/lib386/dos/clib3r.lib(mbsnbcnt.c)
0001:0006d570  _mbsnbcnt_
Module: /mnt/sda5/.user/root/src/openwatcom-1.9/bld/ui/dos/dos386/ui.lib(/mnt/sda5/.user/root/src/openwatcom-1.9/bld/ui/c/uibattr.c)
0001:0006d5d1  battribute_
0001:0006d62f  battrflip_
Module: /mnt/sda5/.user/root/src/openwatcom-1.9/bld/ui/dos/dos386/ui.lib(/mnt/sda5/.user/root/src/openwatcom-1.9/bld/ui/c/uibarf.c)
0001:0006d684  uibarf_
Module: /mnt/sda5/.user/root/src/openwatcom-1.9/rel2/lib386/dos/clib3r.lib(fmemmove.c)
0001:0006d690  _fmemmove_
Module: /mnt/sda5/.user/root/src/openwatcom-1.9/bld/ui/dos/dos386/ui.lib(/mnt/sda5/.user/root/src/openwatcom-1.9/bld/ui/c/uifmem.c)
0001:0006d717  uifaralloc_
0001:0006d726  uifarfree_
Module: /mnt/sda5/.user/root/src/openwatcom-1.9/bld/sdk/rc/wres/small386/ms_r/wres.lib(wrerror.c)
0001:0006d730  WresRecordError_
Module: /mnt/sda5/.user/root/src/openwatcom-1.9/bld/sdk/rc/wres/small386/ms_r/wres.lib(write.c)
0001:0006d768  ResWriteUint8_
0001:0006d798  ResWriteUint16_
0001:0006d7c8  ResWriteUint32_
0001:0006d7f8+ WResWriteWResIDNameUni_
0001:0006d8e0* WResWriteWResIDName_
0001:0006d8ec* WResWriteWResID_
0001:0006d934* WResWriteTypeRecord_
0001:0006d978* WResWriteResRecord_
0001:0006d9bc* WResWriteLangRecord_
0001:0006d9ec* WResWriteHeaderRecord_
0001:0006da5c* WResWriteExtHeader_
0001:0006da8c+ ResWriteStringLen_
0001:0006db10  ResWriteString_
0001:0006db44+ ResWriteNameOrOrdinal_
0001:0006dc44* MResWriteResourceHeader_
0001:0006dd78* WriteInitStatics_
0003:00006f84+ _ConvToUnicode
Module: /mnt/sda5/.user/root/src/openwatcom-1.9/bld/sdk/rc/wres/small386/ms_r/wres.lib(resseek.c)
0001:0006dd90* ResSeek_
0001:0006ddb0  ResPadDWord_
Module: /mnt/sda5/.user/root/src/openwatcom-1.9/bld/sdk/rc/wres/small386/ms_r/wres.lib(rduint32.c)
0001:0006de10  ResReadUint32_
Module: /mnt/sda5/.user/root/src/openwatcom-1.9/bld/sdk/rc/wres/small386/ms_r/wres.lib(rduint16.c)
0001:0006de60  ResReadUint16_
Module: /mnt/sda5/.user/root/src/openwatcom-1.9/bld/sdk/rc/wres/small386/ms_r/wres.lib(rrdstr.c)
0001:0006deb0  ResReadString_
0001:0006df20  ResRead32String_
Module: /mnt/sda5/.user/root/src/openwatcom-1.9/rel2/lib386/dos/clib3r.lib(cmain386.c)
0001:0006dfa0  __CMain
Module: /mnt/sda5/.user/root/src/openwatcom-1.9/rel2/lib386/dos/clib3r.lib(initrtns.c)
0001:0006dff0  __InitRtns
0001:0006e040  __FiniRtns
Module: /mnt/sda5/.user/root/src/openwatcom-1.9/rel2/lib386/dos/clib3r.lib(dosseg)
0000:00001234  __DOSseg__
Module: /mnt/sda5/.user/root/src/openwatcom-1.9/rel2/lib386/dos/clib3r.lib(crwdata)
0003:00006fc3  __osmajor
0003:00006fc4  __osminor
0003:00006f98  __psp
0003:00006fba  __Extender
0003:00006fbb  __ExtenderSubtype
0003:00006fbc  __X32VM
0003:00006f9c* __x386_stacklow
0003:00006f90  __LpCmdLine
0003:00006f94  __LpPgmName
0003:00006f88  __dynend
0003:00006f8c  __curbrk
0003:00006f9c  __STACKLOW
0003:00006fa0  __STACKTOP
0003:00006fa4  __ASTACKSIZ
0003:00006fa8  __ASTACKPTR
0003:00006fac* __cbyte
0003:00006fb0* __cbyte2
0003:00006fb4  __child
0003:00006fbd  __Envptr
0003:00006fc1  __Envseg
0003:00006fb8  __no87
0003:00006fc5  ___FPE_handler
Module: /mnt/sda5/.user/root/src/openwatcom-1.9/rel2/lib386/dos/clib3r.lib(uselfn.c)
0003:00006fcc  ___uselfn
Module: /mnt/sda5/.user/root/src/openwatcom-1.9/rel2/lib386/dos/clib3r.lib(initargv.c)
0001:0006e0a0  __Init_Argv_
0001:0006e0f0+ _getargv_
0001:0006e290  __Fini_Argv_
Module: /mnt/sda5/.user/root/src/openwatcom-1.9/rel2/lib386/dos/clib3r.lib(xmsg.c)
0001:0006e2a0* __exit_with_msg_
0001:0006e2b0  __fatal_runtime_error_
Module: /mnt/sda5/.user/root/src/openwatcom-1.9/bld/sdk/rc/wres/small386/ms_r/wres.lib(wridcmp.c)
0001:0006e2d0  WResIDCmp_
Module: /mnt/sda5/.user/root/src/openwatcom-1.9/rel2/lib386/dos/clib3r.lib(setmd.c)
0001:0006e310  setmode_
Module: /mnt/sda5/.user/root/src/openwatcom-1.9/bld/sdk/rc/wres/small386/ms_r/wres.lib(ralliae.c)
0001:0006e3d0  ResAddLLItemAtEnd_
Module: /mnt/sda5/.user/root/src/openwatcom-1.9/bld/sdk/rc/wres/small386/ms_r/wres.lib(wrrfrr.c)
0001:0006e400  WResReadFixedResRecord_
0001:0006e440  WResReadFixedResRecord1_
0001:0006e480  WResReadFixedResRecord2_
Module: /mnt/sda5/.user/root/src/openwatcom-1.9/bld/sdk/rc/wres/small386/ms_r/wres.lib(wridexby.c)
0001:0006e500  WResIDExtraBytes_
Module: /mnt/sda5/.user/root/src/openwatcom-1.9/bld/sdk/rc/wres/small386/ms_r/wres.lib(wrrewrid.c)
0001:0006e510  WResReadExtraWResID_
Module: /mnt/sda5/.user/root/src/openwatcom-1.9/bld/sdk/rc/wres/small386/ms_r/wres.lib(wrrftr.c)
0001:0006e570  WResReadFixedTypeRecord_
0001:0006e5b8  WResReadFixedTypeRecord2_
Module: /mnt/sda5/.user/root/src/openwatcom-1.9/bld/sdk/rc/wres/small386/ms_r/wres.lib(wrrhr.c)
0001:0006e630  WResReadHeaderRecord_
0001:0006e6a8  WResReadExtHeader_
Module: /mnt/sda5/.user/root/src/openwatcom-1.9/bld/sdk/rc/wres/small386/ms_r/wres.lib(mrrdrh.c)
0001:0006e6f0  M32ResReadResourceHeader_
0001:0006e85c  MResReadResourceHeader_
Module: /mnt/sda5/.user/root/src/openwatcom-1.9/bld/sdk/rc/wres/small386/ms_r/wres.lib(wrfree.c)
0001:0006e900  MResFreeResourceHeader_
Module: /mnt/sda5/.user/root/src/openwatcom-1.9/bld/sdk/rc/wres/small386/ms_r/wres.lib(wridfnoo.c)
0001:0006e940  WResIDFromNameOrOrd_
Module: /mnt/sda5/.user/root/src/openwatcom-1.9/bld/sdk/rc/wres/small386/ms_r/wres.lib(wraddres.c)
0001:0006eabc* WResAddResource_
0001:0006eb18  WResAddResource2_
Module: /mnt/sda5/.user/root/src/openwatcom-1.9/bld/sdk/rc/wres/small386/ms_r/wres.lib(wriswrf.c)
0001:0006ec40  WResFindResType_
0001:0006ecd8* WResIsWResFile_
Module: /mnt/sda5/.user/root/src/openwatcom-1.9/rel2/lib386/dos/clib3r.lib(nmalloc.c)
0001:0006ecf0  _nmalloc_
0001:0006ecf0  malloc_
0003:00006fd0  ___nheapbeg
0003:00006fd4  ___MiniHeapRover
0003:00006fd8  ___LargestSizeB4MiniHeapRover
Module: /mnt/sda5/.user/root/src/openwatcom-1.9/rel2/lib386/dos/clib3r.lib(fclose.c)
0001:0006edf0+ __doclose_
0001:0006ee70  __shutdown_stream_
0001:0006ee90* fclose_
0003:0000c2e0+ ___RmTmpFileFn
Module: /mnt/sda5/.user/root/src/openwatcom-1.9/rel2/lib386/dos/clib3r.lib(freefp.c)
0001:0006eec0  __freefp_
0001:0006ef00  __purgefp_
Module: /mnt/sda5/.user/root/src/openwatcom-1.9/bld/ui/dos/dos386/ui.lib(/mnt/sda5/.user/root/src/openwatcom-1.9/bld/ui/c/uipad.c)
0001:0006ef22  uipadblanks_
Module: /mnt/sda5/.user/root/src/openwatcom-1.9/bld/ui/dos/dos386/ui.lib(/mnt/sda5/.user/root/src/openwatcom-1.9/bld/ui/c/uivedit.c)
0001:0006ef8f+ secondbyte_
0001:0006efaa  uieditevent_
Module: /mnt/sda5/.user/root/src/openwatcom-1.9/rel2/lib386/dos/clib3r.lib(mbisdbcs.c)
0003:0000c2e4  ___IsDBCS
Module: /mnt/sda5/.user/root/src/openwatcom-1.9/rel2/lib386/dos/clib3r.lib(mbislead.c)
0001:0006f370* _ismbblead_
0003:0000c2e8  ___MBCSIsTable
Module: /mnt/sda5/.user/root/src/openwatcom-1.9/rel2/lib386/dos/clib3r.lib(mbconv.c)
0001:0006f390  _mbvtop_
Module: /mnt/sda5/.user/root/src/openwatcom-1.9/rel2/lib386/dos/clib3r.lib(mbclen.c)
0001:0006f3b0  _mbclen_
Module: /mnt/sda5/.user/root/src/openwatcom-1.9/rel2/lib386/dos/clib3r.lib(mbterm.c)
0001:0006f3e0  _mbterm_
Module: /mnt/sda5/.user/root/src/openwatcom-1.9/rel2/lib386/dos/clib3r.lib(mbccmp.c)
0001:0006f420  _mbccmp_
Module: /mnt/sda5/.user/root/src/openwatcom-1.9/rel2/lib386/dos/clib3r.lib(filelen.c)
0001:0006f460  filelength_
Module: /mnt/sda5/.user/root/src/openwatcom-1.9/rel2/lib386/dos/clib3r.lib(mktime.c)
0001:0006f4b0  mktime_
Module: /mnt/sda5/.user/root/src/openwatcom-1.9/rel2/lib386/dos/clib3r.lib(mbsnbcpy.c)
0001:0006f540  _mbsnbcpy_
Module: /mnt/sda5/.user/root/src/openwatcom-1.9/bld/sdk/rc/wres/small386/ms_r/wres.lib(varstr.c)
0001:0006f5a0  VarStringStart_
0001:0006f5d4  VarStringAddChar_
0001:0006f62c  VarStringEnd_
Module: /mnt/sda5/.user/root/src/openwatcom-1.9/bld/sdk/rc/wres/small386/ms_r/wres.lib(rduint8.c)
0001:0006f6d0  ResReadUint8_
Module: /mnt/sda5/.user/root/src/openwatcom-1.9/rel2/lib386/dos/clib3r.lib(cinit.c)
0001:0006f720  __CommonInit_
Module: /mnt/sda5/.user/root/src/openwatcom-1.9/rel2/lib386/dos/clib3r.lib(___argc.c)
0003:0000c3ec  ____Argc
0003:0000c3f0  ____Argv
Module: /mnt/sda5/.user/root/src/openwatcom-1.9/rel2/lib386/dos/clib3r.lib(exit.c)
0001:0006f780+ __null_int23_exit_
0001:0006f781  exit_
0001:0006f7ad* _exit_
0003:00006fdc+ ___int23_exit
0003:00006fe0  ___FPE_handler_exit
Module: /mnt/sda5/.user/root/src/openwatcom-1.9/rel2/lib386/dos/clib3r.lib(sgdef086)
0003:0000755c  __Start_XI
0003:0000759e  __End_XI
0003:0000759e  __Start_YI
0003:000075c2  __End_YI
Module: /mnt/sda5/.user/root/src/openwatcom-1.9/rel2/lib386/dos/clib3r.lib(histsplt.c)
0003:0000c3f4  ___historical_splitparms
Module: /mnt/sda5/.user/root/src/openwatcom-1.9/rel2/lib386/dos/clib3r.lib(enterdb.c)
0001:0006f7d0  __EnterWVIDEO_
0003:00006fe4+ ___WD_Present
Module: /mnt/sda5/.user/root/src/openwatcom-1.9/bld/sdk/rc/wres/small386/ms_r/wres.lib(wridnacm.c)
0001:0006f840  WResIDNameCmp_
Module: /mnt/sda5/.user/root/src/openwatcom-1.9/rel2/lib386/dos/clib3r.lib(stiomode.c)
0001:0006f890+ __grow_iomode_
0001:0006f950+ __shrink_iomode_
0001:0006f980  __SetIOMode_
Module: /mnt/sda5/.user/root/src/openwatcom-1.9/bld/sdk/rc/wres/small386/ms_r/wres.lib(rrnamoor.c)
0001:0006f9f0  ResReadNameOrOrdinal_
0001:0006fae0  ResRead32NameOrOrdinal_
Module: /mnt/sda5/.user/root/src/openwatcom-1.9/bld/sdk/rc/wres/small386/ms_r/wres.lib(wridfrst.c)
0001:0006fbd0  WResIDFromStr_
Module: /mnt/sda5/.user/root/src/openwatcom-1.9/bld/sdk/rc/wres/small386/ms_r/wres.lib(wridfrnu.c)
0001:0006fc50  WResIDFromNum_
Module: /mnt/sda5/.user/root/src/openwatcom-1.9/bld/sdk/rc/wres/small386/ms_r/wres.lib(wrfirres.c)
0001:0006fcb0* WResFirstResource_
0001:0006fce0  WResSetEmptyWindow_
0001:0006fcfc  WResMakeWindow_
Module: /mnt/sda5/.user/root/src/openwatcom-1.9/rel2/lib386/dos/clib3r.lib(mem.c)
0001:0006fd10  __MemAllocator
0001:0006fdc0  __MemFree
Module: /mnt/sda5/.user/root/src/openwatcom-1.9/rel2/lib386/dos/clib3r.lib(grownear.c)
0001:0006ff80+ __FreeDPMIBlocks_
0001:0006fff0  __ReAllocDPMIBlock_
0001:00070180+ __LastFree_
0001:000703f0  __ExpandDGROUP_
Module: /mnt/sda5/.user/root/src/openwatcom-1.9/rel2/lib386/dos/clib3r.lib(_clse.c)
0001:00070540  __close_
Module: /mnt/sda5/.user/root/src/openwatcom-1.9/rel2/lib386/dos/clib3r.lib(flush.c)
0001:00070590  __flush_
Module: /mnt/sda5/.user/root/src/openwatcom-1.9/rel2/lib386/dos/clib3r.lib(mbinit.c)
0001:000706b5  __mbinit_
0001:00070786+ dos_get_dbcs_lead_table_
0001:0007087a+ dos_get_code_page_
0003:00006fe8  ___MBCodePage
Module: /mnt/sda5/.user/root/src/openwatcom-1.9/rel2/lib386/dos/clib3r.lib(locmktim.c)
0001:00070a20  __local_mktime_
Module: /mnt/sda5/.user/root/src/openwatcom-1.9/rel2/lib386/dos/clib3r.lib(gmtime.c)
0001:00070ba0  __brktime_
0001:00070ca0+ _gmtime_
0001:00070cc0* gmtime_
Module: /mnt/sda5/.user/root/src/openwatcom-1.9/rel2/lib386/dos/clib3r.lib(tzset.c)
0003:00006fec  ___start_dst
0003:00007010  ___end_dst
0003:00007138* _tzname
0003:00007140  _timezone
0003:00007144  _daylight
0003:00007148  ___dst_adjust
0001:00070cd0* __DontCacheOSTZ_
0001:00070ce0* __CacheOSTZ_
0001:000711f0+ __parse_tz_
0001:00071420  tzset_
Module: /mnt/sda5/.user/root/src/openwatcom-1.9/rel2/lib386/dos/clib3r.lib(timeutil.c)
0001:00071590  __isindst_
Module: /mnt/sda5/.user/root/src/openwatcom-1.9/rel2/lib386/dos/clib3r.lib(amblksiz.c)
0003:00007198  __amblksiz
Module: /mnt/sda5/.user/root/src/openwatcom-1.9/rel2/lib386/dos/clib3r.lib(dpmihost.c)
0001:000718c0  __DPMI_hosted_
Module: /mnt/sda5/.user/root/src/openwatcom-1.9/rel2/lib386/dos/clib3r.lib(iomodtty.c)
0001:00071960  __ChkTTYIOMode_
0001:000719a0* __IOMode_
Module: /mnt/sda5/.user/root/src/openwatcom-1.9/rel2/lib386/dos/clib3r.lib(nfree.c)
0001:000719c0  _nfree_
0001:000719c0  free_
0003:0000c420  ___MiniHeapFreeRover
Module: /mnt/sda5/.user/root/src/openwatcom-1.9/rel2/lib386/dos/clib3r.lib(heapen.c)
0001:00071ac0  _heapenable_
0003:000071a0  ___heap_enabled
Module: /mnt/sda5/.user/root/src/openwatcom-1.9/rel2/lib386/dos/clib3r.lib(minreal.c)
0003:0000c424  ___minreal
Module: /mnt/sda5/.user/root/src/openwatcom-1.9/rel2/lib386/dos/clib3r.lib(sbrk386.c)
0001:00071ad0* sbrk_
0001:00071bb0  __brk_
Module: /mnt/sda5/.user/root/src/openwatcom-1.9/rel2/lib386/dos/clib3r.lib(qwrit.c)
0001:00071cd0  __qwrite_
Module: /mnt/sda5/.user/root/src/openwatcom-1.9/rel2/lib386/dos/clib3r.lib(fsync.c)
0001:00071d50  fsync_
Module: /mnt/sda5/.user/root/src/openwatcom-1.9/rel2/lib386/dos/clib3r.lib(intdx386.c)
0001:00071d60  intdosx_
Module: /mnt/sda5/.user/root/src/openwatcom-1.9/rel2/lib386/dos/clib3r.lib(leapyear.c)
0001:00071dd0  __leapyear_
0003:00000d0c  ___diyr
0003:00000d26  ___dilyr
Module: /mnt/sda5/.user/root/src/openwatcom-1.9/rel2/lib386/dos/clib3r.lib(isatt.c)
0001:00071e10  isatty_
Module: /mnt/sda5/.user/root/src/openwatcom-1.9/rel2/lib386/dos/clib3r.lib(filedos.c)
0001:00071e30* _dos_close_
0001:00071e40  _dos_commit_
Module: /mnt/sda5/.user/root/src/openwatcom-1.9/rel2/lib386/dos/clib3r.lib(memset.c)
0001:00071e50  memset_
Module: /mnt/sda5/.user/root/src/openwatcom-1.9/rel2/lib386/dos/clib3r.lib(inirmsel.c)
0003:0000c428  __ExtenderRealModeSelector
Module: /mnt/sda5/.user/root/src/openwatcom-1.9/rel2/lib386/dos/clib3r.lib(memmove.c)
0001:00071f80  memmove_
Module: /mnt/sda5/.user/root/src/openwatcom-1.9/rel2/lib386/dos/clib3r.lib(istable.c)
0003:0000161c  __IsTable
Module: /mnt/sda5/.user/root/src/openwatcom-1.9/rel2/lib386/dos/clib3r.lib(sprintf.c)
0001:00071fe0  sprintf_
Module: /mnt/sda5/.user/root/src/openwatcom-1.9/rel2/lib386/dos/clib3r.lib(strupr.c)
0001:00072010  strupr_
Module: /mnt/sda5/.user/root/src/openwatcom-1.9/rel2/lib386/dos/clib3r.lib(strstr.c)
0001:00072030  strstr_
Module: /mnt/sda5/.user/root/src/openwatcom-1.9/rel2/lib386/dos/clib3r.lib(setjmp)
0001:000720f8  _setjmp_
0001:00072127  longjmp_
Module: /mnt/sda5/.user/root/src/openwatcom-1.9/rel2/lib386/dos/clib3r.lib(_strcmp)
0001:00072190  strcmp_
Module: /mnt/sda5/.user/root/src/openwatcom-1.9/rel2/lib386/dos/clib3r.lib(stricmp.c)
0001:000722d0  stricmp_
Module: /mnt/sda5/.user/root/src/openwatcom-1.9/rel2/lib386/dos/clib3r.lib(tolower.c)
0001:00072310  tolower_
Module: /mnt/sda5/.user/root/src/openwatcom-1.9/rel2/lib386/dos/clib3r.lib(puts.c)
0001:00072320  puts_
Module: /mnt/sda5/.user/root/src/openwatcom-1.9/rel2/lib386/dos/clib3r.lib(strtol.c)
0001:00072570  strtoul_
0001:00072580* strtol_
Module: /mnt/sda5/.user/root/src/openwatcom-1.9/rel2/lib386/dos/clib3r.lib(fltused.c)
0003:00007230  _fltused_
Module: /mnt/sda5/.user/root/src/openwatcom-1.9/rel2/lib386/dos/clib3r.lib(_8087)
0003:00007234  __8087
0003:00007235  __real87
Module: /mnt/sda5/.user/root/src/openwatcom-1.9/rel2/lib386/dos/clib3r.lib(strlwr.c)
0001:00072590  strlwr_
Module: /mnt/sda5/.user/root/src/openwatcom-1.9/rel2/lib386/dos/clib3r.lib(toupper.c)
0001:000725b0  toupper_
Module: /mnt/sda5/.user/root/src/openwatcom-1.9/rel2/lib386/dos/clib3r.lib(memicmp.c)
0001:000725c0  memicmp_
Module: /mnt/sda5/.user/root/src/openwatcom-1.9/rel2/lib386/dos/clib3r.lib(strnicmp.c)
0001:00072600  strnicmp_
Module: /mnt/sda5/.user/root/src/openwatcom-1.9/rel2/lib386/dos/clib3r.lib(memcmp.c)
0001:00072650  memcmp_
Module: /mnt/sda5/.user/root/src/openwatcom-1.9/rel2/lib386/dos/clib3r.lib(nrealloc.c)
0001:00072670* _nrealloc_
0001:00072670  realloc_
Module: /mnt/sda5/.user/root/src/openwatcom-1.9/rel2/lib386/dos/clib3r.lib(getenv.c)
0001:00072710  getenv_
Module: /mnt/sda5/.user/root/src/openwatcom-1.9/rel2/lib386/dos/clib3r.lib(nheapwal.c)
0001:000727a0  _heapwalk_
0001:000727b0+ __NHeapWalk_
0001:00072860* _nheapwalk_
Module: /mnt/sda5/.user/root/src/openwatcom-1.9/rel2/lib386/dos/clib3r.lib(qsort.c)
0001:000728d0  qsort_
Module: /mnt/sda5/.user/root/src/openwatcom-1.9/rel2/lib386/dos/clib3r.lib(open.c)
0001:000731d0  open_
0001:000731f0+ sopen_
Module: /mnt/sda5/.user/root/src/openwatcom-1.9/rel2/lib386/dos/clib3r.lib(close.c)
0001:00073220  close_
Module: /mnt/sda5/.user/root/src/openwatcom-1.9/rel2/lib386/dos/clib3r.lib(read.c)
0001:00073230  read_
Module: /mnt/sda5/.user/root/src/openwatcom-1.9/rel2/lib386/dos/clib3r.lib(lseek.c)
0001:00073360  lseek_
Module: /mnt/sda5/.user/root/src/openwatcom-1.9/rel2/lib386/dos/clib3r.lib(intr.c)
0001:00073390  intr_
Module: /mnt/sda5/.user/root/src/openwatcom-1.9/rel2/lib386/dos/clib3r.lib(int386.c)
0001:000733a0  int386_
Module: /mnt/sda5/.user/root/src/openwatcom-1.9/rel2/lib386/dos/clib3r.lib(dosinite.asm)
0001:000733be  __sys_init_387_emulator
0001:000734ee  __sys_fini_387_emulator
Module: /mnt/sda5/.user/root/src/openwatcom-1.9/rel2/lib386/dos/clib3r.lib(hugeval.c)
0003:00001720  __HugeValue
Module: /mnt/sda5/.user/root/src/openwatcom-1.9/rel2/lib386/dos/clib3r.lib(strncpy.c)
0001:000735a0  strncpy_
Module: /mnt/sda5/.user/root/src/openwatcom-1.9/rel2/lib386/dos/clib3r.lib(split2.c)
0001:00073630  _splitpath2_
Module: /mnt/sda5/.user/root/src/openwatcom-1.9/rel2/lib386/dos/clib3r.lib(makepath.c)
0001:000737a0  _makepath_
Module: /mnt/sda5/.user/root/src/openwatcom-1.9/rel2/lib386/dos/clib3r.lib(calloc.c)
0001:00073950  calloc_
Module: /mnt/sda5/.user/root/src/openwatcom-1.9/rel2/lib386/dos/clib3r.lib(stack386.c)
0001:00073970  stackavail_
Module: /mnt/sda5/.user/root/src/openwatcom-1.9/rel2/lib386/dos/clib3r.lib(cmdname.c)
0001:00073980  _cmdname_
Module: /mnt/sda5/.user/root/src/openwatcom-1.9/rel2/lib386/dos/clib3r.lib(__stos)
0001:000739b0  __STOSB
0001:000739e7* __STOSD
Module: /mnt/sda5/.user/root/src/openwatcom-1.9/rel2/lib386/dos/clib3r.lib(vsprintf.c)
0001:00073a80  vsprintf_
Module: /mnt/sda5/.user/root/src/openwatcom-1.9/rel2/lib386/dos/clib3r.lib(ljmphdl.c)
0003:00007284  ___longjmp_handler
Module: /mnt/sda5/.user/root/src/openwatcom-1.9/rel2/lib386/dos/clib3r.lib(fputs.c)
0001:00073ab0  fputs_
Module: /mnt/sda5/.user/root/src/openwatcom-1.9/rel2/lib386/dos/clib3r.lib(fputc.c)
0001:00073b40  fputc_
Module: /mnt/sda5/.user/root/src/openwatcom-1.9/rel2/lib386/dos/clib3r.lib(setefg.c)
0001:00073c00  __setEFGfmt_
Module: /mnt/sda5/.user/root/src/openwatcom-1.9/rel2/lib386/dos/clib3r.lib(chk8087.c)
0001:00073c40* _fpreset_
0001:00073c60+ __init_8087_
0001:00073ca0+ __default_sigfpe_handler_
0001:00073cc0  __chk8087_
Module: /mnt/sda5/.user/root/src/openwatcom-1.9/rel2/lib386/dos/clib3r.lib(nmsize.c)
0001:00073d30  _nmsize_
0001:00073d30* _msize_
Module: /mnt/sda5/.user/root/src/openwatcom-1.9/rel2/lib386/dos/clib3r.lib(nexpand.c)
0001:00073d40  _nexpand_
0001:00073d40* _expand_
0001:00073db0+ __HeapManager_expand_
Module: /mnt/sda5/.user/root/src/openwatcom-1.9/rel2/lib386/dos/clib3r.lib(environ.c)
0003:0000c42c  ___env_mask
0003:0000c430  _environ
0003:0000c434* __wenviron
Module: /mnt/sda5/.user/root/src/openwatcom-1.9/rel2/lib386/dos/clib3r.lib(mbcupper.c)
0001:00073f80  _mbctoupper_
Module: /mnt/sda5/.user/root/src/openwatcom-1.9/rel2/lib386/dos/clib3r.lib(opendos.c)
0001:00073fa0  _dos_open_
Module: /mnt/sda5/.user/root/src/openwatcom-1.9/rel2/lib386/dos/clib3r.lib(umaskval.c)
0003:00007288  ___umaskval
Module: /mnt/sda5/.user/root/src/openwatcom-1.9/rel2/lib386/dos/clib3r.lib(creatdos.c)
0001:00073fc0  _dos_creat_
0001:00073fe0* _dos_creatnew_
Module: /mnt/sda5/.user/root/src/openwatcom-1.9/rel2/lib386/dos/clib3r.lib(int386xa)
0001:00073ff8  __int386x_
0001:00074054  _DoINTR_
Module: /mnt/sda5/.user/root/src/openwatcom-1.9/rel2/lib386/dos/clib3r.lib(segread.c)
0001:000743e0  segread_
Module: /mnt/sda5/.user/root/src/openwatcom-1.9/rel2/lib386/dos/clib3r.lib(intx386.c)
0001:00074410  int386x_
Module: /mnt/sda5/.user/root/src/openwatcom-1.9/rel2/lib386/dos/emu387.lib(emu387)
0001:000747ec  __int7_pl3
0001:00074810* __int7_X32VM
0001:0007485c  __int7
Module: /mnt/sda5/.user/root/src/openwatcom-1.9/rel2/lib386/dos/clib3r.lib(hook387.c)
0001:000779a0  __hook387
0001:00077a50  __unhook387
Module: /mnt/sda5/.user/root/src/openwatcom-1.9/rel2/lib386/dos/clib3r.lib(8087cw.c)
0003:00007310  __8087cw
Module: /mnt/sda5/.user/root/src/openwatcom-1.9/rel2/lib386/dos/clib3r.lib(mbsdec.c)
0001:00077a90  _mbsdec_
Module: /mnt/sda5/.user/root/src/openwatcom-1.9/rel2/lib386/dos/clib3r.lib(prtf.c)
0001:00077b10  __prtf_
Module: /mnt/sda5/.user/root/src/openwatcom-1.9/rel2/lib386/dos/clib3r.lib(ioalloc.c)
0001:00078980  __ioalloc_
Module: /mnt/sda5/.user/root/src/openwatcom-1.9/rel2/lib386/dos/clib3r.lib(noefgfmt.c)
0003:00007314  ___EFG_printf
0003:00007318  ___EFG_scanf
Module: /mnt/sda5/.user/root/src/openwatcom-1.9/rel2/lib386/dos/math387r.lib(efgfmt.c)
0001:00078a32  _EFG_Format_
Module: /mnt/sda5/.user/root/src/openwatcom-1.9/rel2/lib386/dos/math387r.lib(cnvs2d.c)
0001:00078ba2  __cnvs2d_
Module: /mnt/sda5/.user/root/src/openwatcom-1.9/rel2/lib386/dos/clib3r.lib(save8087.c)
0003:0000731c  ___Save8087
0003:00007320  ___Rest8087
Module: /mnt/sda5/.user/root/src/openwatcom-1.9/rel2/lib386/dos/clib3r.lib(init8087)
0001:00078bb4  __x87id
Module: /mnt/sda5/.user/root/src/openwatcom-1.9/rel2/lib386/dos/clib3r.lib(grabfp87.c)
0001:00078bf0  __GrabFP87_
Module: /mnt/sda5/.user/root/src/openwatcom-1.9/rel2/lib386/dos/clib3r.lib(setenvp.c)
0001:00078c60  __setenvp_
0001:00078d40  __freeenvp_
Module: /mnt/sda5/.user/root/src/openwatcom-1.9/rel2/lib386/dos/clib3r.lib(mbdtoupp.c)
0001:00078d90  _mbdtoupper_
Module: /mnt/sda5/.user/root/src/openwatcom-1.9/rel2/lib386/dos/clib3r.lib(fpexcept.c)
0001:00078db0  __FPE_exception_
Module: /mnt/sda5/.user/root/src/openwatcom-1.9/rel2/lib386/dos/clib3r.lib(wctomb.c)
0001:00078dc0  wctomb_
Module: /mnt/sda5/.user/root/src/openwatcom-1.9/rel2/lib386/dos/clib3r.lib(lltoa.c)
0001:00078df0  ulltoa_
0001:00078e60* lltoa_
Module: /mnt/sda5/.user/root/src/openwatcom-1.9/rel2/lib386/dos/clib3r.lib(ltoa.c)
0001:00078e90  ultoa_
0001:00078ee0* ltoa_
Module: /mnt/sda5/.user/root/src/openwatcom-1.9/rel2/lib386/dos/clib3r.lib(chktty.c)
0001:00078f10  __chktty_
Module: /mnt/sda5/.user/root/src/openwatcom-1.9/rel2/lib386/dos/clib3r.lib(rtcntrl.c)
0001:00078f50* _SetLD64bit_
0001:00078f60* _SetLD80bit_
0001:00078f70  _LDisDouble_
Module: /mnt/sda5/.user/root/src/openwatcom-1.9/rel2/lib386/dos/clib3r.lib(fpe387)
0003:00007328  ___PMSeg
0003:0000732a  ___PMAddr
0003:0000732e  ___RMAddr
0001:00078f80  __Init_FPE_handler_
0001:00078fb8  __Fini_FPE_handler_
Module: /mnt/sda5/.user/root/src/openwatcom-1.9/rel2/lib386/dos/clib3r.lib(fpeinth)
0001:00078ff4  __FPEHandler_
0001:00078ff4  ___FPEHandlerStart_
0001:00079001  __FPE2Handler_
0001:00079103  ___FPEHandlerEnd_
Module: /mnt/sda5/.user/root/src/openwatcom-1.9/rel2/lib386/dos/clib3r.lib(clearenv.c)
0001:00079240  clearenv_
Module: /mnt/sda5/.user/root/src/openwatcom-1.9/rel2/lib386/dos/clib3r.lib(fpephar)
0001:000792d0  __Phar_hook_init_
0001:00079396  __Phar_hook_fini_
Module: /mnt/sda5/.user/root/src/openwatcom-1.9/rel2/lib386/dos/clib3r.lib(fpedos4g)
0001:000793c4  __DOS4G_hook_init_
0001:000793f2  __DOS4G_hook_fini_
Module: /mnt/sda5/.user/root/src/openwatcom-1.9/rel2/lib386/dos/clib3r.lib(fpeint.c)
0003:00007550  ___FPE_int
0003:00007551  ___IRQ_num
0003:00007552+ ___IRQ_int
0003:00007553  ___MST_pic
0003:00007554+ ___SLV_pic
Module: /mnt/sda5/.user/root/src/openwatcom-1.9/rel2/lib386/dos/clib3r.lib(nonibm.c)
0001:00079460+ __is_nonIBM_
0003:00007558  ___NonIBM


                        +---------------------+
                        |   Module Segments   |
                        +---------------------+

! = 32-bit segment
c = initialized communal data

Module          Segment               Class           Address         Size
======          =======               =====           =======         ====

/mnt/sda5/.user/root/src/openwatcom-1.9/bld/wv/dsx/asm/dsxfork.asm
                CONST                 DATA           0003:00000004  ! 0000000c
                _BSS                  BSS            0003:000075d0  ! 00000006
                _TEXT                 CODE           0001:00000010  ! 00000169
/mnt/sda5/.user/root/src/openwatcom-1.9/bld/wv/dsx/c/dsxstart.c
                _TEXT                 CODE           0001:00000180  ! 00000383
                CONST                 DATA           0003:00000010  ! 00000000
                CONST2                DATA           0003:00000de0  ! 00000000
                _DATA                 DATA           0003:00001730  ! 00000000
                _BSS                  BSS            0003:000075e0  ! 0000001e
/mnt/sda5/.user/root/src/openwatcom-1.9/bld/wv/dsx/c/dsxchk.c
                _TEXT                 CODE           0001:00000510  ! 00000011
                CONST                 DATA           0003:00000010  ! 00000000
                CONST2                DATA           0003:00000de0  ! 00000000
                _DATA                 DATA           0003:00001730  ! 00000000
/mnt/sda5/.user/root/src/openwatcom-1.9/bld/wv/dsx/c/dsxcmd.c
                _TEXT                 CODE           0001:00000530  ! 000001c7
                CONST                 DATA           0003:00000010  ! 00000000
                CONST2                DATA           0003:00000de0  ! 00000000
                _DATA                 DATA           0003:00001730  ! 0000007f
                _BSS                  BSS            0003:00007600  ! 00000004
/mnt/sda5/.user/root/src/openwatcom-1.9/bld/wv/dsx/c/dsxfilio.c
                _TEXT                 CODE           0001:00000700  ! 000001c9
                CONST                 DATA           0003:00000010  ! 00000000
                CONST2                DATA           0003:00000de0  ! 00000000
                _DATA                 DATA           0003:000017b0  ! 00000007
/mnt/sda5/.user/root/src/openwatcom-1.9/bld/wv/dsx/c/dsxscrn.c
                _TEXT                 CODE           0001:000008d0  ! 00001e5e
                CONST                 DATA           0003:00000010  ! 00000000
                CONST2                DATA           0003:00000de0  ! 00000000
                _DATA                 DATA           0003:000017b8  ! 0000000f
                _BSS                  BSS            0003:00007610  ! 00000071
/mnt/sda5/.user/root/src/openwatcom-1.9/bld/wv/dsx/c/dsxlkup.c
                _TEXT                 CODE           0001:00002730  ! 00000080
                CONST                 DATA           0003:00000010  ! 00000001
                CONST2                DATA           0003:00000de0  ! 00000000
                _DATA                 DATA           0003:000017c8  ! 00000000
/mnt/sda5/.user/root/src/openwatcom-1.9/bld/wv/dsx/asm/dsxhdlr.asm
                rmhandlr_TEXT16       CODE           0002:00000000    00002256
/mnt/sda5/.user/root/src/openwatcom-1.9/bld/wv/dsx/c/dsxmem.c
                _TEXT                 CODE           0001:000027b0  ! 0000004f
                CONST                 DATA           0003:00000014  ! 00000000
                CONST2                DATA           0003:00000de0  ! 00000000
                _DATA                 DATA           0003:000017c8  ! 00000000
/mnt/sda5/.user/root/src/openwatcom-1.9/bld/wv/c/fingmsg.c
                _TEXT                 CODE           0001:00002800  ! 00000075
                CONST                 DATA           0003:00000014  ! 00000222
                CONST2                DATA           0003:00000de0  ! 00000000
                _DATA                 DATA           0003:000017c8  ! 0000008a
/mnt/sda5/.user/root/src/openwatcom-1.9/bld/dig/c/dipman.c
                _TEXT                 CODE           0001:00002880  ! 000021c7
                CONST                 DATA           0003:00000238  ! 00000000
                CONST2                DATA           0003:00000de0  ! 0000000c
                _DATA                 DATA           0003:00001854  ! 00000076
                _BSS                  BSS            0003:00007684  ! 0000011c
/mnt/sda5/.user/root/src/openwatcom-1.9/bld/dig/c/dsx/dipld.c
                _TEXT                 CODE           0001:00004a50  ! 000002c9
                CONST                 DATA           0003:00000238  ! 00000004
                CONST2                DATA           0003:00000dec  ! 00000000
                _DATA                 DATA           0003:000018cc  ! 00000000
/mnt/sda5/.user/root/src/openwatcom-1.9/bld/dig/c/madman.c
                _TEXT                 CODE           0001:00004d20  ! 00002352
                CONST                 DATA           0003:0000023c  ! 000000c3
                CONST2                DATA           0003:00000dec  ! 000000d7
                _DATA                 DATA           0003:000018cc  ! 00000190
                _BSS                  BSS            0003:000077a0  ! 00000008
/mnt/sda5/.user/root/src/openwatcom-1.9/bld/dig/c/dsx/madld.c
                _TEXT                 CODE           0001:00007080  ! 0000023d
                CONST                 DATA           0003:00000300  ! 00000004
                CONST2                DATA           0003:00000ec4  ! 00000000
                _DATA                 DATA           0003:00001a5c  ! 00000000
/mnt/sda5/.user/root/src/openwatcom-1.9/bld/watcom/c/i64.c
                _TEXT                 CODE           0001:000072c0  ! 0000048e
                CONST                 DATA           0003:00000304  ! 00000000
                CONST2                DATA           0003:00000ec4  ! 00000000
                _DATA                 DATA           0003:00001a5c  ! 00000000
/mnt/sda5/.user/root/src/openwatcom-1.9/bld/dig/c/trpsupp.c
                _TEXT                 CODE           0001:00007750  ! 00000376
                CONST                 DATA           0003:00000304  ! 00000000
                CONST2                DATA           0003:00000ec4  ! 00000000
                _DATA                 DATA           0003:00001a5c  ! 00000008
                _BSS                  BSS            0003:000077a8  ! 00000008
/mnt/sda5/.user/root/src/openwatcom-1.9/bld/wv/dsx/c/trplddsx.c
                _TEXT                 CODE           0001:00007ad0  ! 00001052
                CONST                 DATA           0003:00000304  ! 00000015
                CONST2                DATA           0003:00000ec4  ! 00000000
                _DATA                 DATA           0003:00001a64  ! 00000036
                _BSS                  BSS            0003:000077b0  ! 000000ac
/mnt/sda5/.user/root/src/openwatcom-1.9/bld/dig/c/dumb.c
                _TEXT                 CODE           0001:00008b30  ! 00000146
                CONST                 DATA           0003:0000031c  ! 00000000
                CONST2                DATA           0003:00000ec4  ! 0000009c
                _DATA                 DATA           0003:00001a9c  ! 00000000
                _BSS                  BSS            0003:0000785c  ! 00000004
/mnt/sda5/.user/root/src/openwatcom-1.9/bld/wv/c/spawn.c
                _TEXT                 CODE           0001:00008c80  ! 000000f0
                CONST                 DATA           0003:0000031c  ! 0000001e
                CONST2                DATA           0003:00000f60  ! 00000000
                _DATA                 DATA           0003:00001a9c  ! 00000000
                _BSS                  BSS            0003:00007860  ! 00000004
/mnt/sda5/.user/root/src/openwatcom-1.9/bld/wv/c/dbgchain.c
                _TEXT                 CODE           0001:00008d70  ! 0000062b
                CONST                 DATA           0003:0000033c  ! 00000007
                CONST2                DATA           0003:00000f60  ! 00000000
                _DATA                 DATA           0003:00001a9c  ! 00000000
/mnt/sda5/.user/root/src/openwatcom-1.9/bld/wv/c/dbgvar.c
                _TEXT                 CODE           0001:000093a0  ! 000035ec
                CONST                 DATA           0003:00000344  ! 0000004a
                CONST2                DATA           0003:00000f60  ! 00000000
                _DATA                 DATA           0003:00001a9c  ! 00000004
                _BSS                  BSS            0003:00007864  ! 0000001e
/mnt/sda5/.user/root/src/openwatcom-1.9/bld/wv/c/dbgvset.c
                _TEXT                 CODE           0001:0000c990  ! 00000861
                CONST                 DATA           0003:00000390  ! 00000016
                CONST2                DATA           0003:00000f60  ! 00000000
                _DATA                 DATA           0003:00001aa0  ! 000000c3
/mnt/sda5/.user/root/src/openwatcom-1.9/bld/wv/c/dbgass.c
                _TEXT                 CODE           0001:0000d200  ! 000000e0
                CONST                 DATA           0003:000003a8  ! 00000000
                CONST2                DATA           0003:00000f60  ! 00000000
                _DATA                 DATA           0003:00001b64  ! 00000000
/mnt/sda5/.user/root/src/openwatcom-1.9/bld/wv/c/dbgimg.c
                _TEXT                 CODE           0001:0000d2e0  ! 00000097
                CONST                 DATA           0003:000003a8  ! 00000000
                CONST2                DATA           0003:00000f60  ! 00000000
                _DATA                 DATA           0003:00001b64  ! 00000000
/mnt/sda5/.user/root/src/openwatcom-1.9/bld/wv/c/dbglist.c
                _TEXT                 CODE           0001:0000d380  ! 0000001a
                CONST                 DATA           0003:000003a8  ! 00000000
                CONST2                DATA           0003:00000f60  ! 00000000
                _DATA                 DATA           0003:00001b64  ! 00000000
/mnt/sda5/.user/root/src/openwatcom-1.9/bld/wv/c/dbgpend.c
                _TEXT                 CODE           0001:0000d3a0  ! 00000176
                CONST                 DATA           0003:000003a8  ! 00000000
                CONST2                DATA           0003:00000f60  ! 00000000
                _DATA                 DATA           0003:00001b64  ! 00000000
/mnt/sda5/.user/root/src/openwatcom-1.9/bld/wv/c/ambigsym.c
                _TEXT                 CODE           0001:0000d520  ! 00000230
                CONST                 DATA           0003:000003a8  ! 00000006
                CONST2                DATA           0003:00000f60  ! 00000000
                _DATA                 DATA           0003:00001b64  ! 00000000
/mnt/sda5/.user/root/src/openwatcom-1.9/bld/wv/c/addarith.c
                _TEXT                 CODE           0001:0000d750  ! 000002f3
                CONST                 DATA           0003:000003b0  ! 00000000
                CONST2                DATA           0003:00000f60  ! 00000000
                _DATA                 DATA           0003:00001b64  ! 00000004
/mnt/sda5/.user/root/src/openwatcom-1.9/bld/wv/c/dbgbrk.c
                _TEXT                 CODE           0001:0000da50  ! 00002a17
                CONST                 DATA           0003:000003b0  ! 00000032
                CONST2                DATA           0003:00000f60  ! 00000000
                _DATA                 DATA           0003:00001b68  ! 000000c0
/mnt/sda5/.user/root/src/openwatcom-1.9/bld/wv/c/dbgcall.c
                _TEXT                 CODE           0001:00010470  ! 0000064c
                CONST                 DATA           0003:000003e4  ! 00000000
                CONST2                DATA           0003:00000f60  ! 00000000
                _DATA                 DATA           0003:00001c28  ! 00000000
                _BSS                  BSS            0003:00007884  ! 0000002e
/mnt/sda5/.user/root/src/openwatcom-1.9/bld/wv/c/dbgcall2.c
                _TEXT                 CODE           0001:00010ac0  ! 000002a6
                CONST                 DATA           0003:000003e4  ! 00000000
                CONST2                DATA           0003:00000f60  ! 00000000
                _DATA                 DATA           0003:00001c28  ! 00000004
                _BSS                  BSS            0003:000078b4  ! 000000f4
/mnt/sda5/.user/root/src/openwatcom-1.9/bld/wv/c/dbgcmd.c
                _TEXT                 CODE           0001:00010d70  ! 0000007f
                CONST                 DATA           0003:000003e4  ! 00000000
                CONST2                DATA           0003:00000f60  ! 00000000
                _DATA                 DATA           0003:00001c2c  ! 00000000
/mnt/sda5/.user/root/src/openwatcom-1.9/bld/wv/c/dbgcmdln.c
                _TEXT                 CODE           0001:00010df0  ! 0000096f
                CONST                 DATA           0003:000003e4  ! 00000008
                CONST2                DATA           0003:00000f60  ! 00000000
                _DATA                 DATA           0003:00001c2c  ! 000000d1
                _BSS                  BSS            0003:000079a8  ! 0000000e
/mnt/sda5/.user/root/src/openwatcom-1.9/bld/wv/c/dbgdot.c
                _TEXT                 CODE           0001:00011760  ! 00000152
                CONST                 DATA           0003:000003ec  ! 00000000
                CONST2                DATA           0003:00000f60  ! 00000000
                _DATA                 DATA           0003:00001d00  ! 00000000
                _BSS                  BSS            0003:000079b8  ! 00000010
/mnt/sda5/.user/root/src/openwatcom-1.9/bld/wv/c/dbgexec.c
                _TEXT                 CODE           0001:000118c0  ! 00000c5c
                CONST                 DATA           0003:000003ec  ! 00000075
                CONST2                DATA           0003:00000f60  ! 00000000
                _DATA                 DATA           0003:00001d00  ! 00000008
                _BSS                  BSS            0003:000079c8  ! 00000004
/mnt/sda5/.user/root/src/openwatcom-1.9/bld/wv/c/dbgexpr.c
                _TEXT                 CODE           0001:00012520  ! 00000fde
                CONST                 DATA           0003:00000464  ! 00000000
                CONST2                DATA           0003:00000f60  ! 00000000
                _DATA                 DATA           0003:00001d10  ! 000000f4
/mnt/sda5/.user/root/src/openwatcom-1.9/bld/wv/c/dbgexpr2.c
                _TEXT                 CODE           0001:00013500  ! 00000a11
                CONST                 DATA           0003:00000464  ! 00000000
                CONST2                DATA           0003:00000f60  ! 00000000
                _DATA                 DATA           0003:00001e04  ! 00000000
/mnt/sda5/.user/root/src/openwatcom-1.9/bld/wv/c/dbgexpr3.c
                _TEXT                 CODE           0001:00013f20  ! 0000104a
                CONST                 DATA           0003:00000464  ! 00000000
                CONST2                DATA           0003:00000f60  ! 00000054
                _DATA                 DATA           0003:00001e04  ! 00000231
/mnt/sda5/.user/root/src/openwatcom-1.9/bld/wv/c/dbgexpr4.c
                _TEXT                 CODE           0001:00014f70  ! 0000210e
                CONST                 DATA           0003:00000464  ! 00000016
                CONST2                DATA           0003:00000fb4  ! 00000000
                _DATA                 DATA           0003:00002038  ! 00000000
                _BSS                  BSS            0003:000079cc  ! 00000400
/mnt/sda5/.user/root/src/openwatcom-1.9/bld/wv/c/dbgfile.c
                _TEXT                 CODE           0001:00017080  ! 00000ba4
                CONST                 DATA           0003:0000047c  ! 0000000b
                CONST2                DATA           0003:00000fb4  ! 00000000
                _DATA                 DATA           0003:00002038  ! 00000000
                _BSS                  BSS            0003:00007dcc  ! 000001c4
/mnt/sda5/.user/root/src/openwatcom-1.9/bld/wv/c/dbghook.c
                _TEXT                 CODE           0001:00017c30  ! 0000025e
                CONST                 DATA           0003:00000488  ! 00000002
                CONST2                DATA           0003:00000fb4  ! 00000000
                _DATA                 DATA           0003:00002038  ! 0000005f
                _BSS                  BSS            0003:00007f90  ! 0000002d
/mnt/sda5/.user/root/src/openwatcom-1.9/bld/wv/c/dbginvk.c
                _TEXT                 CODE           0001:00017e90  ! 00000672
                CONST                 DATA           0003:0000048c  ! 00000007
                CONST2                DATA           0003:00000fb4  ! 00000000
                _DATA                 DATA           0003:00002098  ! 00000000
                _BSS                  BSS            0003:00007fc0  ! 00000005
/mnt/sda5/.user/root/src/openwatcom-1.9/bld/wv/c/dbglkup.c
                _TEXT                 CODE           0001:00018510  ! 00000a02
                CONST                 DATA           0003:00000494  ! 00000049
                CONST2                DATA           0003:00000fb4  ! 00000000
                _DATA                 DATA           0003:00002098  ! 0000001c
                _BSS                  BSS            0003:00007fc8  ! 00000008
/mnt/sda5/.user/root/src/openwatcom-1.9/bld/wv/c/dbgloc.c
                _TEXT                 CODE           0001:00018f20  ! 00000c61
                CONST                 DATA           0003:000004e0  ! 00000000
                CONST2                DATA           0003:00000fb4  ! 00000000
                _DATA                 DATA           0003:000020b4  ! 00000000
/mnt/sda5/.user/root/src/openwatcom-1.9/bld/wv/c/dbglog.c
                _TEXT                 CODE           0001:00019b90  ! 0000021b
                CONST                 DATA           0003:000004e0  ! 00000000
                CONST2                DATA           0003:00000fb4  ! 0000000c
                _DATA                 DATA           0003:000020b4  ! 0000000e
                _BSS                  BSS            0003:00007fd0  ! 00000004
/mnt/sda5/.user/root/src/openwatcom-1.9/bld/wv/c/dbgmain.c
                _TEXT                 CODE           0001:00019db0  ! 000007d6
                CONST                 DATA           0003:000004e0  ! 0000000d
                CONST2                DATA           0003:00000fc0  ! 00000098
                _DATA                 DATA           0003:000020c4  ! 000000e8
                _BSS                  BSS            0003:00007fd4  ! 0000000d
/mnt/sda5/.user/root/src/openwatcom-1.9/bld/wv/c/dbgmem.c
                _TEXT                 CODE           0001:0001a590  ! 000003d3
                CONST                 DATA           0003:000004f0  ! 00000009
                CONST2                DATA           0003:00001058  ! 00000000
                _DATA                 DATA           0003:000021ac  ! 00000064
/mnt/sda5/.user/root/src/openwatcom-1.9/bld/wv/c/memtypes.c
                _TEXT                 CODE           0001:0001a970  ! 00000295
                CONST                 DATA           0003:000004fc  ! 00000000
                CONST2                DATA           0003:00001058  ! 00000000
                _DATA                 DATA           0003:00002210  ! 00000000
/mnt/sda5/.user/root/src/openwatcom-1.9/bld/wv/c/dbgmisc.c
                _TEXT                 CODE           0001:0001ac10  ! 00000d22
                CONST                 DATA           0003:000004fc  ! 00000000
                CONST2                DATA           0003:00001058  ! 00000000
                _DATA                 DATA           0003:00002210  ! 0000003a
/mnt/sda5/.user/root/src/openwatcom-1.9/bld/wv/c/dbgovl.c
                _TEXT                 CODE           0001:0001b940  ! 000003b2
                CONST                 DATA           0003:000004fc  ! 00000000
                CONST2                DATA           0003:00001058  ! 00000000
                _DATA                 DATA           0003:0000224c  ! 00000000
                _BSS                  BSS            0003:00007fe4  ! 0000000d
/mnt/sda5/.user/root/src/openwatcom-1.9/bld/wv/c/dbgparse.c
                _TEXT                 CODE           0001:0001bd00  ! 000004b8
                CONST                 DATA           0003:000004fc  ! 00000004
                CONST2                DATA           0003:00001058  ! 00000000
                _DATA                 DATA           0003:0000224c  ! 00000000
                _BSS                  BSS            0003:00007ff4  ! 00000010
/mnt/sda5/.user/root/src/openwatcom-1.9/bld/wv/c/dbgprint.c
                _TEXT                 CODE           0001:0001c1c0  ! 0000161b
                CONST                 DATA           0003:00000500  ! 00000005
                CONST2                DATA           0003:00001058  ! 00000000
                _DATA                 DATA           0003:0000224c  ! 00000010
                _BSS                  BSS            0003:00008004  ! 0000040e
/mnt/sda5/.user/root/src/openwatcom-1.9/bld/wv/c/dbgreg.c
                _TEXT                 CODE           0001:0001d7e0  ! 000014a1
                CONST                 DATA           0003:00000508  ! 0000000d
                CONST2                DATA           0003:00001058  ! 00000000
                _DATA                 DATA           0003:0000225c  ! 00000008
                _BSS                  BSS            0003:00008414  ! 0000000d
/mnt/sda5/.user/root/src/openwatcom-1.9/bld/wv/c/dbgscan.c
                _TEXT                 CODE           0001:0001ec90  ! 00001159
                CONST                 DATA           0003:00000518  ! 00000006
                CONST2                DATA           0003:00001058  ! 00000000
                _DATA                 DATA           0003:00002264  ! 0000002d
                _BSS                  BSS            0003:00008430  ! 00000020
/mnt/sda5/.user/root/src/openwatcom-1.9/bld/wv/c/dbgshow.c
                _TEXT                 CODE           0001:0001fdf0  ! 00000365
                CONST                 DATA           0003:00000520  ! 00000006
                CONST2                DATA           0003:00001058  ! 00000000
                _DATA                 DATA           0003:00002294  ! 0000007c
/mnt/sda5/.user/root/src/openwatcom-1.9/bld/wv/c/dbgsrc.c
                _TEXT                 CODE           0001:00020160  ! 000003e9
                CONST                 DATA           0003:00000528  ! 00000006
                CONST2                DATA           0003:00001058  ! 00000000
                _DATA                 DATA           0003:00002310  ! 00000005
/mnt/sda5/.user/root/src/openwatcom-1.9/bld/wv/c/dbgstdio.c
                _TEXT                 CODE           0001:00020550  ! 000000e7
                CONST                 DATA           0003:00000530  ! 00000000
                CONST2                DATA           0003:00001058  ! 00000000
                _DATA                 DATA           0003:00002318  ! 00000000
/mnt/sda5/.user/root/src/openwatcom-1.9/bld/wv/c/dbgsys.c
                _TEXT                 CODE           0001:00020640  ! 00000104
                CONST                 DATA           0003:00000530  ! 00000000
                CONST2                DATA           0003:00001058  ! 00000000
                _DATA                 DATA           0003:00002318  ! 0000000e
/mnt/sda5/.user/root/src/openwatcom-1.9/bld/wv/c/dbgutil.c
                _TEXT                 CODE           0001:00020750  ! 00000ab8
                CONST                 DATA           0003:00000530  ! 00000000
                CONST2                DATA           0003:00001058  ! 00000000
                _DATA                 DATA           0003:00002328  ! 00000000
/mnt/sda5/.user/root/src/openwatcom-1.9/bld/wv/c/dbg_dbg.c
                _TEXT                 CODE           0001:00021210  ! 000005e7
                CONST                 DATA           0003:00000530  ! 00000000
                CONST2                DATA           0003:00001058  ! 00000474
                _DATA                 DATA           0003:00002328  ! 00000000
                _BSS                  BSS            0003:00008450  ! 00000004
/mnt/sda5/.user/root/src/openwatcom-1.9/bld/wv/c/dbgprog.c
                _TEXT                 CODE           0001:00021800  ! 00002426
                CONST                 DATA           0003:00000530  ! 00000032
                CONST2                DATA           0003:000014cc  ! 00000018
                _DATA                 DATA           0003:00002328  ! 0000002f
                _BSS                  BSS            0003:00008454  ! 00000810
/mnt/sda5/.user/root/src/openwatcom-1.9/bld/wv/c/strutil.c
                _TEXT                 CODE           0001:00023c30  ! 000003c1
                CONST                 DATA           0003:00000564  ! 00000000
                CONST2                DATA           0003:000014e4  ! 00000000
                _DATA                 DATA           0003:00002358  ! 00000000
/mnt/sda5/.user/root/src/openwatcom-1.9/bld/wv/c/stub.c
                _TEXT                 CODE           0001:00024000  ! 00000017
                CONST                 DATA           0003:00000564  ! 00000000
                CONST2                DATA           0003:000014e4  ! 00000000
                _DATA                 DATA           0003:00002358  ! 00000000
/mnt/sda5/.user/root/src/openwatcom-1.9/bld/wv/c/dbgwalk.c
                _TEXT                 CODE           0001:00024020  ! 000002f9
                CONST                 DATA           0003:00000564  ! 00000000
                CONST2                DATA           0003:000014e4  ! 00000000
                _DATA                 DATA           0003:00002358  ! 00000000
                _BSS                  BSS            0003:00008c64  ! 00000004
/mnt/sda5/.user/root/src/openwatcom-1.9/bld/wv/c/dynmem.c
                _TEXT                 CODE           0001:00024320  ! 000001f9
                CONST                 DATA           0003:00000564  ! 0000004e
                CONST2                DATA           0003:000014e4  ! 00000000
                _DATA                 DATA           0003:00002358  ! 00000000
/mnt/sda5/.user/root/src/openwatcom-1.9/bld/wv/c/dbgsem.c
                _TEXT                 CODE           0001:00024520  ! 00001df9
                CONST                 DATA           0003:000005b4  ! 00000024
                CONST2                DATA           0003:000014e4  ! 00000040
                _DATA                 DATA           0003:00002358  ! 00000001
                _BSS                  BSS            0003:00008c68  ! 00000088
/mnt/sda5/.user/root/src/openwatcom-1.9/bld/wv/c/dbgtrace.c
                _TEXT                 CODE           0001:00026320  ! 00000fb7
                CONST                 DATA           0003:000005d8  ! 0000000b
                CONST2                DATA           0003:00001524  ! 00000003
                _DATA                 DATA           0003:0000235c  ! 00000028
                _BSS                  BSS            0003:00008cf0  ! 00000058
/mnt/sda5/.user/root/src/openwatcom-1.9/bld/wv/c/dbgexins.c
                _TEXT                 CODE           0001:000272e0  ! 0000005f
                CONST                 DATA           0003:000005e4  ! 00000000
                CONST2                DATA           0003:00001528  ! 00000000
                _DATA                 DATA           0003:00002384  ! 00000000
/mnt/sda5/.user/root/src/openwatcom-1.9/bld/wv/c/dbgexdat.c
                _TEXT                 CODE           0001:00027340  ! 00000180
                CONST                 DATA           0003:000005e4  ! 00000000
                CONST2                DATA           0003:00001528  ! 0000000c
                _DATA                 DATA           0003:00002384  ! 00000011
/mnt/sda5/.user/root/src/openwatcom-1.9/bld/wv/c/dbgmodfy.c
                _TEXT                 CODE           0001:000274c0  ! 000001bd
                CONST                 DATA           0003:000005e4  ! 00000000
                CONST2                DATA           0003:00001534  ! 00000000
                _DATA                 DATA           0003:00002398  ! 00000000
/mnt/sda5/.user/root/src/openwatcom-1.9/bld/wv/c/dbgtback.c
                _TEXT                 CODE           0001:00027680  ! 000002a9
                CONST                 DATA           0003:000005e4  ! 00000000
                CONST2                DATA           0003:00001534  ! 00000000
                _DATA                 DATA           0003:00002398  ! 00000000
                _BSS                  BSS            0003:00008d48  ! 00000004
/mnt/sda5/.user/root/src/openwatcom-1.9/bld/wv/c/dbgerr.c
                _TEXT                 CODE           0001:00027930  ! 00000246
                CONST                 DATA           0003:000005e4  ! 00000008
                CONST2                DATA           0003:00001534  ! 00000000
                _DATA                 DATA           0003:00002398  ! 00000000
/mnt/sda5/.user/root/src/openwatcom-1.9/bld/wv/c/namelist.c
                _TEXT                 CODE           0001:00027b80  ! 00000569
                CONST                 DATA           0003:000005ec  ! 00000000
                CONST2                DATA           0003:00001534  ! 00000000
                _DATA                 DATA           0003:00002398  ! 00000000
/mnt/sda5/.user/root/src/openwatcom-1.9/bld/wv/c/modlist.c
                _TEXT                 CODE           0001:000280f0  ! 0000035c
                CONST                 DATA           0003:000005ec  ! 00000000
                CONST2                DATA           0003:00001534  ! 00000000
                _DATA                 DATA           0003:00002398  ! 00000000
/mnt/sda5/.user/root/src/openwatcom-1.9/bld/watcom/c/sortlist.c
                _TEXT                 CODE           0001:00028450  ! 000001d6
                CONST                 DATA           0003:000005ec  ! 00000000
                CONST2                DATA           0003:00001534  ! 00000000
                _DATA                 DATA           0003:00002398  ! 00000000
/mnt/sda5/.user/root/src/openwatcom-1.9/bld/wv/c/remmisc.c
                _TEXT                 CODE           0001:00028630  ! 00000315
                CONST                 DATA           0003:000005ec  ! 00000005
                CONST2                DATA           0003:00001534  ! 00000000
                _DATA                 DATA           0003:00002398  ! 00000000
                _BSS                  BSS            0003:00008d4c  ! 00000005
/mnt/sda5/.user/root/src/openwatcom-1.9/bld/wv/c/remcore.c
                _TEXT                 CODE           0001:00028950  ! 00000f98
                CONST                 DATA           0003:000005f4  ! 00000000
                CONST2                DATA           0003:00001534  ! 00000000
                _DATA                 DATA           0003:00002398  ! 00000004
                _BSS                  BSS            0003:00008d54  ! 00000010
/mnt/sda5/.user/root/src/openwatcom-1.9/bld/wv/c/remfinfo.c
                _TEXT                 CODE           0001:000298f0  ! 00000180
                CONST                 DATA           0003:000005f4  ! 00000009
                CONST2                DATA           0003:00001534  ! 00000000
                _DATA                 DATA           0003:0000239c  ! 00000000
                _BSS                  BSS            0003:00008d64  ! 00000004
/mnt/sda5/.user/root/src/openwatcom-1.9/bld/wv/c/remenv.c
                _TEXT                 CODE           0001:00029a70  ! 0000018a
                CONST                 DATA           0003:00000600  ! 0000000c
                CONST2                DATA           0003:00001534  ! 00000000
                _DATA                 DATA           0003:0000239c  ! 00000000
                _BSS                  BSS            0003:00008d68  ! 00000004
/mnt/sda5/.user/root/src/openwatcom-1.9/bld/wv/c/remfile.c
                _TEXT                 CODE           0001:00029c00  ! 0000082f
                CONST                 DATA           0003:0000060c  ! 00000006
                CONST2                DATA           0003:00001534  ! 00000000
                _DATA                 DATA           0003:0000239c  ! 00000000
                _BSS                  BSS            0003:00008d6c  ! 0000008a
/mnt/sda5/.user/root/src/openwatcom-1.9/bld/wv/c/remthrd.c
                _TEXT                 CODE           0001:0002a430  ! 00000202
                CONST                 DATA           0003:00000614  ! 00000008
                CONST2                DATA           0003:00001534  ! 00000000
                _DATA                 DATA           0003:0000239c  ! 00000000
                _BSS                  BSS            0003:00008df8  ! 00000004
/mnt/sda5/.user/root/src/openwatcom-1.9/bld/wv/c/removl.c
                _TEXT                 CODE           0001:0002a640  ! 00000385
                CONST                 DATA           0003:0000061c  ! 00000009
                CONST2                DATA           0003:00001534  ! 00000000
                _DATA                 DATA           0003:0000239c  ! 00000000
                _BSS                  BSS            0003:00008dfc  ! 00000004
/mnt/sda5/.user/root/src/openwatcom-1.9/bld/wv/c/ldsupp.c
                _TEXT                 CODE           0001:0002a9d0  ! 000001c7
                CONST                 DATA           0003:00000628  ! 00000000
                CONST2                DATA           0003:00001534  ! 00000030
                _DATA                 DATA           0003:0000239c  ! 00000000
/mnt/sda5/.user/root/src/openwatcom-1.9/bld/wv/c/doserr.c
                _TEXT                 CODE           0001:0002aba0  ! 00000023
                CONST                 DATA           0003:00000628  ! 0000000a
                CONST2                DATA           0003:00001564  ! 00000000
                _DATA                 DATA           0003:0000239c  ! 00000048
/mnt/sda5/.user/root/src/openwatcom-1.9/bld/wv/c/diginter.c
                _TEXT                 CODE           0001:0002abd0  ! 000000c7
                CONST                 DATA           0003:00000634  ! 00000000
                CONST2                DATA           0003:00001564  ! 00000000
                _DATA                 DATA           0003:000023e4  ! 00000000
/mnt/sda5/.user/root/src/openwatcom-1.9/bld/wv/c/dipinter.c
                _TEXT                 CODE           0001:0002aca0  ! 00000a9e
                CONST                 DATA           0003:00000634  ! 00000000
                CONST2                DATA           0003:00001564  ! 00000012
                _DATA                 DATA           0003:000023e4  ! 0000016c
/mnt/sda5/.user/root/src/openwatcom-1.9/bld/wv/c/madinter.c
                _TEXT                 CODE           0001:0002b740  ! 00000745
                CONST                 DATA           0003:00000634  ! 0000000a
                CONST2                DATA           0003:00001578  ! 00000000
                _DATA                 DATA           0003:00002550  ! 00000138
                _BSS                  BSS            0003:00008e00  ! 00000002
/mnt/sda5/.user/root/src/openwatcom-1.9/bld/wv/c/dbglit.c
                _TEXT                 CODE           0001:0002be90  ! 0000001a
                CONST                 DATA           0003:00000640  ! 00000000
                CONST2                DATA           0003:00001578  ! 00000000
                _DATA                 DATA           0003:00002688  ! 00000000
/mnt/sda5/.user/root/src/openwatcom-1.9/bld/wv/c/dbginsty.c
                _TEXT                 CODE           0001:0002beb0  ! 00000307
                CONST                 DATA           0003:00000640  ! 0000000d
                CONST2                DATA           0003:00001578  ! 00000000
                _DATA                 DATA           0003:00002688  ! 00000000
/mnt/sda5/.user/root/src/openwatcom-1.9/bld/wv/c/dbgdata.c
                _TEXT                 CODE           0001:0002c1c0  ! 00000000
                CONST                 DATA           0003:00000650  ! 00000000
                CONST2                DATA           0003:00001578  ! 00000000
                _DATA                 DATA           0003:00002688  ! 00000446
                _BSS                  BSS            0003:00008e10  ! 000002a8
/mnt/sda5/.user/root/src/openwatcom-1.9/bld/wv/c/dbgevent.c
                _TEXT                 CODE           0001:0002c1c0  ! 000005e0
                CONST                 DATA           0003:00000650  ! 00000013
                CONST2                DATA           0003:00001578  ! 00000000
                _DATA                 DATA           0003:00002ad0  ! 00000000
                _BSS                  BSS            0003:000090b8  ! 00000008
/mnt/sda5/.user/root/src/openwatcom-1.9/bld/wv/c/dbgdll.c
                _TEXT                 CODE           0001:0002c7a0  ! 000001d1
                CONST                 DATA           0003:00000664  ! 00000000
                CONST2                DATA           0003:00001578  ! 00000000
                _DATA                 DATA           0003:00002ad0  ! 00000000
                _BSS                  BSS            0003:000090c0  ! 00000004
/mnt/sda5/.user/root/src/openwatcom-1.9/bld/wv/c/dlgscan.c
                _TEXT                 CODE           0001:0002c980  ! 0000020d
                CONST                 DATA           0003:00000664  ! 00000000
                CONST2                DATA           0003:00001578  ! 00000000
                _DATA                 DATA           0003:00002ad0  ! 00000000
/mnt/sda5/.user/root/src/openwatcom-1.9/bld/wv/c/dbgset.c
                _TEXT                 CODE           0001:0002cb90  ! 00001250
                CONST                 DATA           0003:00000664  ! 00000004
                CONST2                DATA           0003:00001578  ! 00000074
                _DATA                 DATA           0003:00002ad0  ! 0000024b
                _BSS                  BSS            0003:000090c4  ! 00000018
/mnt/sda5/.user/root/src/openwatcom-1.9/bld/watcom/c/srcmgt.c
                _TEXT                 CODE           0001:0002dde0  ! 0000053b
                CONST                 DATA           0003:00000668  ! 00000000
                CONST2                DATA           0003:000015ec  ! 00000000
                _DATA                 DATA           0003:00002d1c  ! 00000004
/mnt/sda5/.user/root/src/openwatcom-1.9/bld/wv/c/dbgupdt.c
                _TEXT                 CODE           0001:0002e320  ! 00000104
                CONST                 DATA           0003:00000668  ! 00000000
                CONST2                DATA           0003:000015ec  ! 00000000
                _DATA                 DATA           0003:00002d20  ! 00000000
/mnt/sda5/.user/root/src/openwatcom-1.9/bld/wv/c/symcomp.c
                _TEXT                 CODE           0001:0002e430  ! 000001f3
                CONST                 DATA           0003:00000668  ! 00000000
                CONST2                DATA           0003:000015ec  ! 00000000
                _DATA                 DATA           0003:00002d20  ! 00000004
/mnt/sda5/.user/root/src/openwatcom-1.9/bld/wv/c/litengin.c
                _TEXT                 CODE           0001:0002e630  ! 00001826
                CONST                 DATA           0003:00000668  ! 00000000
                CONST2                DATA           0003:000015ec  ! 00000000
                _DATA                 DATA           0003:00002d24  ! 00000000
                _BSS                  BSS            0003:000090dc  ! 000003dc
/mnt/sda5/.user/root/src/openwatcom-1.9/bld/wv/c/litwd.c
                _TEXT                 CODE           0001:0002fe60  ! 00000cb4
                CONST                 DATA           0003:00000668  ! 00000000
                CONST2                DATA           0003:000015ec  ! 00000000
                _DATA                 DATA           0003:00002d24  ! 00000000
                _BSS                  BSS            0003:000094b8  ! 00000208
/mnt/sda5/.user/root/src/openwatcom-1.9/bld/wv/c/dui.c
                _TEXT                 CODE           0001:00030b20  ! 00000495
                CONST                 DATA           0003:00000668  ! 00000008
                CONST2                DATA           0003:000015ec  ! 00000000
                _DATA                 DATA           0003:00002d24  ! 00000000
/mnt/sda5/.user/root/src/openwatcom-1.9/bld/wv/c/dbgwset.c
                _TEXT                 CODE           0001:00030fc0  ! 00000956
                CONST                 DATA           0003:00000670  ! 000000a5
                CONST2                DATA           0003:000015ec  ! 00000000
                _DATA                 DATA           0003:00002d24  ! 000004c4
                _BSS                  BSS            0003:000096c0  ! 00000014
/mnt/sda5/.user/root/src/openwatcom-1.9/bld/wv/c/dbginsp.c
                _TEXT                 CODE           0001:00031920  ! 000007a7
                CONST                 DATA           0003:00000718  ! 00000000
                CONST2                DATA           0003:000015ec  ! 00000000
                _DATA                 DATA           0003:000031e8  ! 00000000
/mnt/sda5/.user/root/src/openwatcom-1.9/bld/wv/c/dbgicon.c
                _TEXT                 CODE           0001:000320d0  ! 00000000
                CONST                 DATA           0003:00000718  ! 00000064
                CONST2                DATA           0003:000015ec  ! 00000000
                _DATA                 DATA           0003:000031e8  ! 000000c0
/mnt/sda5/.user/root/src/openwatcom-1.9/bld/wv/c/dbgdisp.c
                _TEXT                 CODE           0001:000320d0  ! 00000be6
                CONST                 DATA           0003:0000077c  ! 0000003e
                CONST2                DATA           0003:000015ec  ! 00000000
                _DATA                 DATA           0003:000032a8  ! 00000049
                _BSS                  BSS            0003:000096d4  ! 00000268
/mnt/sda5/.user/root/src/openwatcom-1.9/bld/wv/c/dbgpaint.c
                _TEXT                 CODE           0001:00032cc0  ! 000006e1
                CONST                 DATA           0003:000007bc  ! 0000004f
                CONST2                DATA           0003:000015ec  ! 00000000
                _DATA                 DATA           0003:000032f4  ! 000001bd
                _BSS                  BSS            0003:0000993c  ! 00000078
/mnt/sda5/.user/root/src/openwatcom-1.9/bld/wv/c/dbgcap.c
                _TEXT                 CODE           0001:000333b0  ! 0000011a
                CONST                 DATA           0003:0000080c  ! 00000000
                CONST2                DATA           0003:000015ec  ! 00000000
                _DATA                 DATA           0003:000034b4  ! 00000014
                _BSS                  BSS            0003:000099b4  ! 00000001
/mnt/sda5/.user/root/src/openwatcom-1.9/bld/wv/c/wndalloc.c
                _TEXT                 CODE           0001:000334d0  ! 00000065
                CONST                 DATA           0003:0000080c  ! 00000000
                CONST2                DATA           0003:000015ec  ! 00000000
                _DATA                 DATA           0003:000034c8  ! 00000000
/mnt/sda5/.user/root/src/openwatcom-1.9/bld/wv/c/dlgambig.c
                _TEXT                 CODE           0001:00033540  ! 00000049
                CONST                 DATA           0003:0000080c  ! 00000001
                CONST2                DATA           0003:000015ec  ! 00000000
                _DATA                 DATA           0003:000034c8  ! 00000000
/mnt/sda5/.user/root/src/openwatcom-1.9/bld/wv/c/dlgscomp.c
                _TEXT                 CODE           0001:00033590  ! 000001e5
                CONST                 DATA           0003:00000810  ! 00000000
                CONST2                DATA           0003:000015ec  ! 00000000
                _DATA                 DATA           0003:000034c8  ! 00000000
                _BSS                  BSS            0003:000099b8  ! 00000004
/mnt/sda5/.user/root/src/openwatcom-1.9/bld/wv/c/modcomp.c
                _TEXT                 CODE           0001:00033780  ! 00000136
                CONST                 DATA           0003:00000810  ! 00000000
                CONST2                DATA           0003:000015ec  ! 00000000
                _DATA                 DATA           0003:000034c8  ! 00000000
/mnt/sda5/.user/root/src/openwatcom-1.9/bld/wv/c/wndsys.c
                _TEXT                 CODE           0001:000338c0  ! 00000817
                CONST                 DATA           0003:00000810  ! 00000098
                CONST2                DATA           0003:000015ec  ! 00000000
                _DATA                 DATA           0003:000034c8  ! 00000424
                _BSS                  BSS            0003:000099bc  ! 00000004
/mnt/sda5/.user/root/src/openwatcom-1.9/bld/wv/c/wnddump.c
                _TEXT                 CODE           0001:000340e0  ! 00000361
                CONST                 DATA           0003:000008a8  ! 00000002
                CONST2                DATA           0003:000015ec  ! 00000000
                _DATA                 DATA           0003:000038ec  ! 00000000
/mnt/sda5/.user/root/src/openwatcom-1.9/bld/wv/c/dbgintrn.c
                _TEXT                 CODE           0001:00034450  ! 00000000
                CONST                 DATA           0003:000008ac  ! 00000000
                CONST2                DATA           0003:000015ec  ! 00000000
                _DATA                 DATA           0003:000038ec  ! 00000000
/mnt/sda5/.user/root/src/openwatcom-1.9/bld/wv/c/dlgabout.c
                _TEXT                 CODE           0001:00034450  ! 00000062
                CONST                 DATA           0003:000008ac  ! 00000002
                CONST2                DATA           0003:000015ec  ! 00000000
                _DATA                 DATA           0003:000038ec  ! 00000000
/mnt/sda5/.user/root/src/openwatcom-1.9/bld/wv/c/dlgstk.c
                _TEXT                 CODE           0001:000344c0  ! 0000010f
                CONST                 DATA           0003:000008b0  ! 00000000
                CONST2                DATA           0003:000015ec  ! 00000000
                _DATA                 DATA           0003:000038ec  ! 00000000
/mnt/sda5/.user/root/src/openwatcom-1.9/bld/wv/c/dlgayn.c
                _TEXT                 CODE           0001:000345d0  ! 000000a7
                CONST                 DATA           0003:000008b0  ! 00000000
                CONST2                DATA           0003:000015ec  ! 00000000
                _DATA                 DATA           0003:000038ec  ! 00000000
/mnt/sda5/.user/root/src/openwatcom-1.9/bld/wv/c/dlgsrc.c
                _TEXT                 CODE           0001:00034680  ! 0000002f
                CONST                 DATA           0003:000008b0  ! 00000000
                CONST2                DATA           0003:000015ec  ! 00000000
                _DATA                 DATA           0003:000038ec  ! 00000000
/mnt/sda5/.user/root/src/openwatcom-1.9/bld/wv/c/dlgdll.c
                _TEXT                 CODE           0001:000346b0  ! 0000002f
                CONST                 DATA           0003:000008b0  ! 00000000
                CONST2                DATA           0003:000015ec  ! 00000000
                _DATA                 DATA           0003:000038ec  ! 00000000
/mnt/sda5/.user/root/src/openwatcom-1.9/bld/wv/c/dlglist.c
                _TEXT                 CODE           0001:000346e0  ! 00000336
                CONST                 DATA           0003:000008b0  ! 00000000
                CONST2                DATA           0003:000015ec  ! 00000000
                _DATA                 DATA           0003:000038ec  ! 00000000
/mnt/sda5/.user/root/src/openwatcom-1.9/bld/wv/c/dlgfile.c
                _TEXT                 CODE           0001:00034a20  ! 000004d1
                CONST                 DATA           0003:000008b0  ! 0000017c
                CONST2                DATA           0003:000015ec  ! 00000000
                _DATA                 DATA           0003:000038ec  ! 00000015
                _BSS                  BSS            0003:000099c0  ! 00000018
/mnt/sda5/.user/root/src/openwatcom-1.9/bld/wv/c/dlgnewp.c
                _TEXT                 CODE           0001:00034f00  ! 000001b1
                CONST                 DATA           0003:00000a2c  ! 00000000
                CONST2                DATA           0003:000015ec  ! 00000000
                _DATA                 DATA           0003:00003904  ! 00000000
                _BSS                  BSS            0003:000099d8  ! 00000800
/mnt/sda5/.user/root/src/openwatcom-1.9/bld/wv/c/dlgexpr.c
                _TEXT                 CODE           0001:000350c0  ! 0000033f
                CONST                 DATA           0003:00000a2c  ! 00000001
                CONST2                DATA           0003:000015ec  ! 00000000
                _DATA                 DATA           0003:00003904  ! 00000000
/mnt/sda5/.user/root/src/openwatcom-1.9/bld/wv/c/dlgbreak.c
                _TEXT                 CODE           0001:00035400  ! 000009be
                CONST                 DATA           0003:00000a30  ! 00000002
                CONST2                DATA           0003:000015ec  ! 00000000
                _DATA                 DATA           0003:00003904  ! 00000000
/mnt/sda5/.user/root/src/openwatcom-1.9/bld/wv/c/dlgvarx.c
                _TEXT                 CODE           0001:00035dc0  ! 0000019f
                CONST                 DATA           0003:00000a34  ! 00000000
                CONST2                DATA           0003:000015ec  ! 00000000
                _DATA                 DATA           0003:00003904  ! 00000000
/mnt/sda5/.user/root/src/openwatcom-1.9/bld/wv/c/dlgcmd.c
                _TEXT                 CODE           0001:00035f60  ! 00000130
                CONST                 DATA           0003:00000a34  ! 00000000
                CONST2                DATA           0003:000015ec  ! 00000000
                _DATA                 DATA           0003:00003904  ! 00000000
/mnt/sda5/.user/root/src/openwatcom-1.9/bld/wv/c/dlgnewws.c
                _TEXT                 CODE           0001:00036090  ! 000000ca
                CONST                 DATA           0003:00000a34  ! 00000001
                CONST2                DATA           0003:000015ec  ! 00000000
                _DATA                 DATA           0003:00003904  ! 000000a0
                _BSS                  BSS            0003:0000a1d8  ! 00000004
/mnt/sda5/.user/root/src/openwatcom-1.9/bld/wv/c/wndhelp.c
                _TEXT                 CODE           0001:00036160  ! 000001b0
                CONST                 DATA           0003:00000a38  ! 00000040
                CONST2                DATA           0003:000015ec  ! 00000000
                _DATA                 DATA           0003:000039a4  ! 00000000
                _BSS                  BSS            0003:0000a1dc  ! 00000004
/mnt/sda5/.user/root/src/openwatcom-1.9/bld/wv/c/wndmenu.c
                _TEXT                 CODE           0001:00036310  ! 0000119d
                CONST                 DATA           0003:00000a78  ! 00000001
                CONST2                DATA           0003:000015ec  ! 00000000
                _DATA                 DATA           0003:000039a4  ! 0000093e
                _BSS                  BSS            0003:0000a1e0  ! 00000018
/mnt/sda5/.user/root/src/openwatcom-1.9/bld/wv/c/dbgwfpu.c
                _TEXT                 CODE           0001:000374b0  ! 00000058
                CONST                 DATA           0003:00000a7c  ! 00000000
                CONST2                DATA           0003:000015ec  ! 00000000
                _DATA                 DATA           0003:000042e4  ! 00000000
/mnt/sda5/.user/root/src/openwatcom-1.9/bld/wv/c/dbgwmac.c
                _TEXT                 CODE           0001:00037510  ! 00000b25
                CONST                 DATA           0003:00000a7c  ! 00000019
                CONST2                DATA           0003:000015ec  ! 00000000
                _DATA                 DATA           0003:000042e4  ! 00000160
                _BSS                  BSS            0003:0000a1f8  ! 00000010
/mnt/sda5/.user/root/src/openwatcom-1.9/bld/wv/c/dbgwglob.c
                _TEXT                 CODE           0001:00038040  ! 000002e6
                CONST                 DATA           0003:00000a98  ! 00000001
                CONST2                DATA           0003:000015ec  ! 00000000
                _DATA                 DATA           0003:00004444  ! 000000b0
/mnt/sda5/.user/root/src/openwatcom-1.9/bld/wv/c/dbgwfunc.c
                _TEXT                 CODE           0001:00038330  ! 000005ef
                CONST                 DATA           0003:00000a9c  ! 00000001
                CONST2                DATA           0003:000015ec  ! 00000000
                _DATA                 DATA           0003:000044f4  ! 000000c8
/mnt/sda5/.user/root/src/openwatcom-1.9/bld/wv/c/dbgwcall.c
                _TEXT                 CODE           0001:00038920  ! 00000381
                CONST                 DATA           0003:00000aa0  ! 00000003
                CONST2                DATA           0003:000015ec  ! 00000000
                _DATA                 DATA           0003:000045bc  ! 000000c8
/mnt/sda5/.user/root/src/openwatcom-1.9/bld/wv/c/dbgwmod.c
                _TEXT                 CODE           0001:00038cb0  ! 00000686
                CONST                 DATA           0003:00000aa4  ! 00000001
                CONST2                DATA           0003:000015ec  ! 00000000
                _DATA                 DATA           0003:00004684  ! 000000e0
/mnt/sda5/.user/root/src/openwatcom-1.9/bld/wv/c/dbgwsrch.c
                _TEXT                 CODE           0001:00039340  ! 00000661
                CONST                 DATA           0003:00000aa8  ! 00000000
                CONST2                DATA           0003:000015ec  ! 00000000
                _DATA                 DATA           0003:00004764  ! 00000050
/mnt/sda5/.user/root/src/openwatcom-1.9/bld/wv/c/dbgwdlg.c
                _TEXT                 CODE           0001:000399b0  ! 00000347
                CONST                 DATA           0003:00000aa8  ! 00000000
                CONST2                DATA           0003:000015ec  ! 00000000
                _DATA                 DATA           0003:000047b4  ! 00000048
                _BSS                  BSS            0003:0000a208  ! 00000004
/mnt/sda5/.user/root/src/openwatcom-1.9/bld/wv/c/dbgwfil.c
                _TEXT                 CODE           0001:00039d00  ! 000016d7
                CONST                 DATA           0003:00000aa8  ! 00000016
                CONST2                DATA           0003:000015ec  ! 00000000
                _DATA                 DATA           0003:000047fc  ! 00000188
/mnt/sda5/.user/root/src/openwatcom-1.9/bld/wv/c/dbgwass.c
                _TEXT                 CODE           0001:0003b3e0  ! 00001f39
                CONST                 DATA           0003:00000ac0  ! 00000016
                CONST2                DATA           0003:000015ec  ! 00000000
                _DATA                 DATA           0003:00004984  ! 00000188
/mnt/sda5/.user/root/src/openwatcom-1.9/bld/wv/c/dbgwimg.c
                _TEXT                 CODE           0001:0003d320  ! 00000386
                CONST                 DATA           0003:00000ad8  ! 00000003
                CONST2                DATA           0003:000015ec  ! 00000000
                _DATA                 DATA           0003:00004b0c  ! 000000c8
                _BSS                  BSS            0003:0000a20c  ! 0000000c
/mnt/sda5/.user/root/src/openwatcom-1.9/bld/wv/c/dbgwbrk.c
                _TEXT                 CODE           0001:0003d6b0  ! 00000464
                CONST                 DATA           0003:00000adc  ! 00000001
                CONST2                DATA           0003:000015ec  ! 00000000
                _DATA                 DATA           0003:00004bd4  ! 000000f8
/mnt/sda5/.user/root/src/openwatcom-1.9/bld/wv/c/dbgwio.c
                _TEXT                 CODE           0001:0003db20  ! 000007a1
                CONST                 DATA           0003:00000ae0  ! 00000000
                CONST2                DATA           0003:000015ec  ! 00000000
                _DATA                 DATA           0003:00004ccc  ! 000000cc
                _BSS                  BSS            0003:0000a218  ! 00000028
/mnt/sda5/.user/root/src/openwatcom-1.9/bld/wv/c/dbgwrep.c
                _TEXT                 CODE           0001:0003e2d0  ! 000002f2
                CONST                 DATA           0003:00000ae0  ! 00000000
                CONST2                DATA           0003:000015ec  ! 00000000
                _DATA                 DATA           0003:00004d98  ! 00000080
                _BSS                  BSS            0003:0000a240  ! 00000010
/mnt/sda5/.user/root/src/openwatcom-1.9/bld/wv/c/dbgwmem.c
                _TEXT                 CODE           0001:0003e5d0  ! 0000199e
                CONST                 DATA           0003:00000ae0  ! 0000002a
                CONST2                DATA           0003:000015ec  ! 00000000
                _DATA                 DATA           0003:00004e18  ! 0000024c
                _BSS                  BSS            0003:0000a250  ! 0000002c
/mnt/sda5/.user/root/src/openwatcom-1.9/bld/wv/c/dbgwregs.c
                _TEXT                 CODE           0001:0003ff70  ! 00000039
                CONST                 DATA           0003:00000b0c  ! 00000000
                CONST2                DATA           0003:000015ec  ! 00000000
                _DATA                 DATA           0003:00005064  ! 00000000
/mnt/sda5/.user/root/src/openwatcom-1.9/bld/wv/c/dbgwmmx.c
                _TEXT                 CODE           0001:0003ffb0  ! 00000058
                CONST                 DATA           0003:00000b0c  ! 00000000
                CONST2                DATA           0003:000015ec  ! 00000000
                _DATA                 DATA           0003:00005064  ! 00000000
/mnt/sda5/.user/root/src/openwatcom-1.9/bld/wv/c/dbgwxmm.c
                _TEXT                 CODE           0001:00040010  ! 00000058
                CONST                 DATA           0003:00000b0c  ! 00000000
                CONST2                DATA           0003:000015ec  ! 00000000
                _DATA                 DATA           0003:00005064  ! 00000000
/mnt/sda5/.user/root/src/openwatcom-1.9/bld/wv/c/dbgwmadr.c
                _TEXT                 CODE           0001:00040070  ! 00000ade
                CONST                 DATA           0003:00000b0c  ! 00000009
                CONST2                DATA           0003:000015ec  ! 00000000
                _DATA                 DATA           0003:00005064  ! 00000080
/mnt/sda5/.user/root/src/openwatcom-1.9/bld/wv/c/dbgwtogl.c
                _TEXT                 CODE           0001:00040b50  ! 0000010e
                CONST                 DATA           0003:00000b18  ! 00000000
                CONST2                DATA           0003:000015ec  ! 00000000
                _DATA                 DATA           0003:000050e4  ! 00000000
/mnt/sda5/.user/root/src/openwatcom-1.9/bld/wv/c/dbgwvar.c
                _TEXT                 CODE           0001:00040c60  ! 0000167a
                CONST                 DATA           0003:00000b18  ! 00000006
                CONST2                DATA           0003:000015ec  ! 00000000
                _DATA                 DATA           0003:000050e4  ! 000003f4
/mnt/sda5/.user/root/src/openwatcom-1.9/bld/wv/c/dbgwthrd.c
                _TEXT                 CODE           0001:000422e0  ! 000002b6
                CONST                 DATA           0003:00000b20  ! 00000000
                CONST2                DATA           0003:000015ec  ! 00000000
                _DATA                 DATA           0003:000054d8  ! 00000084
/mnt/sda5/.user/root/src/openwatcom-1.9/bld/wv/c/dlgwind.c
                _TEXT                 CODE           0001:000425a0  ! 00000477
                CONST                 DATA           0003:00000b20  ! 00000000
                CONST2                DATA           0003:000015ec  ! 00000000
                _DATA                 DATA           0003:0000555c  ! 00000000
/mnt/sda5/.user/root/src/openwatcom-1.9/bld/wv/c/dbgwdata.c
                _TEXT                 CODE           0001:00042a20  ! 00000000
                CONST                 DATA           0003:00000b20  ! 00000000
                CONST2                DATA           0003:000015ec  ! 00000000
                _DATA                 DATA           0003:0000555c  ! 00000154
                _BSS                  BSS            0003:0000a27c  ! 00000004
/mnt/sda5/.user/root/src/openwatcom-1.9/bld/wv/c/dlgoptn.c
                _TEXT                 CODE           0001:00042a20  ! 00000397
                CONST                 DATA           0003:00000b20  ! 00000000
                CONST2                DATA           0003:000015ec  ! 00000000
                _DATA                 DATA           0003:000056b0  ! 00000000
/mnt/sda5/.user/root/src/openwatcom-1.9/bld/wv/c/dbgtool.c
                _TEXT                 CODE           0001:00042dc0  ! 0000009e
                CONST                 DATA           0003:00000b20  ! 00000001
                CONST2                DATA           0003:000015ec  ! 00000000
                _DATA                 DATA           0003:000056b0  ! 000000b4
/mnt/sda5/.user/root/src/openwatcom-1.9/bld/wv/c/dbgfing.c
                _TEXT                 CODE           0001:00042e60  ! 000002c0
                CONST                 DATA           0003:00000b24  ! 00000002
                CONST2                DATA           0003:000015ec  ! 00000000
                _DATA                 DATA           0003:00005764  ! 0000003c
                _BSS                  BSS            0003:0000a280  ! 00000010
/mnt/sda5/.user/root/src/openwatcom-1.9/bld/wv/c/helpio.c
                _TEXT                 CODE           0001:00043120  ! 000000d4
                CONST                 DATA           0003:00000b28  ! 00000000
                CONST2                DATA           0003:000015ec  ! 00000000
                _DATA                 DATA           0003:000057a0  ! 0000000c
/mnt/sda5/.user/root/src/openwatcom-1.9/bld/ui/dos/c/uibios.c
                _TEXT                 CODE           0001:000431f4  ! 000006fb
                CONST                 DATA           0003:00000b28  ! 00000000
                CONST2                DATA           0003:000015ec  ! 00000000
                _DATA                 DATA           0003:000057ac  ! 0000008c
                _BSS                  BSS            0003:0000a290  ! 00000012
/mnt/sda5/.user/root/src/openwatcom-1.9/bld/gui/ui/c/guigmous.c
                _TEXT                 CODE           0001:000438f0  ! 00000126
                CONST                 DATA           0003:00000b28  ! 00000000
                CONST2                DATA           0003:000015ec  ! 00000000
                _DATA                 DATA           0003:00005838  ! 00000008
/mnt/sda5/.user/root/src/openwatcom-1.9/bld/ui/c/uiinit.c
                _TEXT                 CODE           0001:00043a16  ! 00000084
                CONST                 DATA           0003:00000b28  ! 00000000
                CONST2                DATA           0003:000015ec  ! 00000000
                _DATA                 DATA           0003:00005840  ! 00000000
/mnt/sda5/.user/root/src/openwatcom-1.9/bld/ui/c/uidata.c
                _TEXT                 CODE           0001:00043a9a  ! 00000000
                CONST                 DATA           0003:00000b28  ! 00000000
                CONST2                DATA           0003:000015ec  ! 00000000
                _DATA                 DATA           0003:00005840  ! 00000004
/mnt/sda5/.user/root/src/openwatcom-1.9/bld/ui/dos/c/uimous.c
                _TEXT                 CODE           0001:00043a9a  ! 00000360
                CONST                 DATA           0003:00000b28  ! 00000000
                CONST2                DATA           0003:000015ec  ! 00000000
                _DATA                 DATA           0003:00005844  ! 00000004
                _BSS                  BSS            0003:0000a2a4  ! 0000000a
/mnt/sda5/.user/root/src/openwatcom-1.9/bld/aui/c/wndutil.c
                _TEXT                 CODE           0001:00043e00  ! 000002f1
                CONST                 DATA           0003:00000b28  ! 00000000
                CONST2                DATA           0003:000015ec  ! 00000000
                _DATA                 DATA           0003:00005848  ! 00000000
/mnt/sda5/.user/root/src/openwatcom-1.9/bld/ui/dos/c/uicurs.c
                _TEXT                 CODE           0001:000440f1  ! 00000341
                CONST                 DATA           0003:00000b28  ! 00000000
                CONST2                DATA           0003:000015ec  ! 00000000
                _DATA                 DATA           0003:00005848  ! 00000000
                _BSS                  BSS            0003:0000a2b0  ! 0000000a
/mnt/sda5/.user/root/src/openwatcom-1.9/bld/ui/c/uirfrsh.c
                _TEXT                 CODE           0001:00044432  ! 00000126
                CONST                 DATA           0003:00000b28  ! 00000000
                CONST2                DATA           0003:000015ec  ! 00000000
                _DATA                 DATA           0003:00005848  ! 00000000
/mnt/sda5/.user/root/src/openwatcom-1.9/bld/aui/c/wndmem.c
                _TEXT                 CODE           0001:00044560  ! 0000003b
                CONST                 DATA           0003:00000b28  ! 00000000
                CONST2                DATA           0003:000015ec  ! 00000000
                _DATA                 DATA           0003:00005848  ! 00000000
ldcvt.c         _TEXT                 CODE           0001:0004459b  ! 00000af8
                CONST                 DATA           0003:00000b28  ! 00000000
                CONST2                DATA           0003:000015ec  ! 00000000
                _DATA                 DATA           0003:00005848  ! 000000a8
fchop87         _TEXT                 CODE           0001:00045094  ! 00000017
                _DATA                 DATA           0003:000058f0  ! 00000000
386             _TEXT                 CODE           0001:000450ac  ! 0000000a
                _DATA                 DATA           0003:000058f0  ! 00000000
                XIB                   DATA           0003:0000755c  ! 00000000
                XI                    DATA           0003:0000755c  ! 00000006
                XIE                   DATA           0003:0000759e  ! 00000000
                YIB                   DATA           0003:0000759e  ! 00000000
                YI                    DATA           0003:0000759e  ! 00000006
                YIE                   DATA           0003:000075c2  ! 00000000
gcvt.c          _TEXT                 CODE           0001:000450b6  ! 0000010a
                CONST                 DATA           0003:00000b28  ! 00000000
                CONST2                DATA           0003:000015ec  ! 00000000
                _DATA                 DATA           0003:000058f0  ! 00000000
strtod.c        _TEXT                 CODE           0001:000451c0  ! 000007c5
                CONST                 DATA           0003:00000b28  ! 00000000
                CONST2                DATA           0003:000015ec  ! 00000000
                _DATA                 DATA           0003:000058f0  ! 00000000
/mnt/sda5/.user/root/src/openwatcom-1.9/bld/aui/c/wndstat.c
                _TEXT                 CODE           0001:00045990  ! 0000015b
                CONST                 DATA           0003:00000b28  ! 00000000
                CONST2                DATA           0003:000015ec  ! 00000000
                _DATA                 DATA           0003:000058f0  ! 00000000
                _BSS                  BSS            0003:0000a2bc  ! 00000051
/mnt/sda5/.user/root/src/openwatcom-1.9/bld/aui/c/guimain.c
                _TEXT                 CODE           0001:00045af0  ! 00000c3e
                CONST                 DATA           0003:00000b28  ! 00000001
                CONST2                DATA           0003:000015ec  ! 00000000
                _DATA                 DATA           0003:000058f0  ! 00000012
                _BSS                  BSS            0003:0000a310  ! 00000029
/mnt/sda5/.user/root/src/openwatcom-1.9/bld/aui/c/wndhist.c
                _TEXT                 CODE           0001:00046730  ! 00000337
                CONST                 DATA           0003:00000b2c  ! 00000000
                CONST2                DATA           0003:000015ec  ! 00000000
                _DATA                 DATA           0003:00005904  ! 00000000
/mnt/sda5/.user/root/src/openwatcom-1.9/bld/aui/c/wndcreat.c
                _TEXT                 CODE           0001:00046a70  ! 00000417
                CONST                 DATA           0003:00000b2c  ! 00000001
                CONST2                DATA           0003:000015ec  ! 00000000
                _DATA                 DATA           0003:00005904  ! 00000004
                _BSS                  BSS            0003:0000a33c  ! 00000008
/mnt/sda5/.user/root/src/openwatcom-1.9/bld/aui/c/wnddirt.c
                _TEXT                 CODE           0001:00046e90  ! 000006e3
                CONST                 DATA           0003:00000b30  ! 00000002
                CONST2                DATA           0003:000015ec  ! 00000000
                _DATA                 DATA           0003:00005908  ! 00000001
/mnt/sda5/.user/root/src/openwatcom-1.9/bld/aui/c/wndshrnk.c
                _TEXT                 CODE           0001:00047580  ! 000002b7
                CONST                 DATA           0003:00000b34  ! 00000000
                CONST2                DATA           0003:000015ec  ! 00000000
                _DATA                 DATA           0003:0000590c  ! 00000000
/mnt/sda5/.user/root/src/openwatcom-1.9/bld/gui/c/guiisgui.c
                _TEXT                 CODE           0001:00047840  ! 00000003
                CONST                 DATA           0003:00000b34  ! 00000000
                CONST2                DATA           0003:000015ec  ! 00000000
                _DATA                 DATA           0003:0000590c  ! 00000000
/mnt/sda5/.user/root/src/openwatcom-1.9/bld/gui/ui/c/guismetr.c
                _TEXT                 CODE           0001:00047850  ! 00000093
                CONST                 DATA           0003:00000b34  ! 00000000
                CONST2                DATA           0003:000015ec  ! 00000000
                _DATA                 DATA           0003:0000590c  ! 00000000
/mnt/sda5/.user/root/src/openwatcom-1.9/bld/aui/c/wndmsg.c
                _TEXT                 CODE           0001:000478f0  ! 00000024
                CONST                 DATA           0003:00000b34  ! 00000000
                CONST2                DATA           0003:000015ec  ! 00000000
                _DATA                 DATA           0003:0000590c  ! 00000000
/mnt/sda5/.user/root/src/openwatcom-1.9/bld/aui/c/wndldstr.c
                _TEXT                 CODE           0001:00047920  ! 00000066
                CONST                 DATA           0003:00000b34  ! 00000000
                CONST2                DATA           0003:000015ec  ! 00000000
                _DATA                 DATA           0003:0000590c  ! 00000000
/mnt/sda5/.user/root/src/openwatcom-1.9/bld/gui/ui/c/guiclen.c
                _TEXT                 CODE           0001:00047990  ! 00000015
                CONST                 DATA           0003:00000b34  ! 00000000
                CONST2                DATA           0003:000015ec  ! 00000000
                _DATA                 DATA           0003:0000590c  ! 00000000
/mnt/sda5/.user/root/src/openwatcom-1.9/bld/aui/c/wndfront.c
                _TEXT                 CODE           0001:000479b0  ! 00000098
                CONST                 DATA           0003:00000b34  ! 00000000
                CONST2                DATA           0003:000015ec  ! 00000000
                _DATA                 DATA           0003:0000590c  ! 00000000
/mnt/sda5/.user/root/src/openwatcom-1.9/bld/aui/c/dlgsrch.c
                _TEXT                 CODE           0001:00047a50  ! 00000543
                CONST                 DATA           0003:00000b34  ! 0000000e
                CONST2                DATA           0003:000015ec  ! 00000000
                _DATA                 DATA           0003:0000590c  ! 0000002a
/mnt/sda5/.user/root/src/openwatcom-1.9/bld/aui/c/wndcurr.c
                _TEXT                 CODE           0001:00047fa0  ! 000007f9
                CONST                 DATA           0003:00000b44  ! 00000000
                CONST2                DATA           0003:000015ec  ! 00000000
                _DATA                 DATA           0003:00005938  ! 00000000
/mnt/sda5/.user/root/src/openwatcom-1.9/bld/aui/c/wndpaint.c
                _TEXT                 CODE           0001:000487a0  ! 000005af
                CONST                 DATA           0003:00000b44  ! 00000002
                CONST2                DATA           0003:000015ec  ! 00000000
                _DATA                 DATA           0003:00005938  ! 00000000
/mnt/sda5/.user/root/src/openwatcom-1.9/bld/aui/c/wndcrsr.c
                _TEXT                 CODE           0001:00048d50  ! 00000540
                CONST                 DATA           0003:00000b48  ! 00000000
                CONST2                DATA           0003:000015ec  ! 00000000
                _DATA                 DATA           0003:00005938  ! 00000000
/mnt/sda5/.user/root/src/openwatcom-1.9/bld/aui/c/wndfont.c
                _TEXT                 CODE           0001:00049290  ! 00000069
                CONST                 DATA           0003:00000b48  ! 00000000
                CONST2                DATA           0003:000015ec  ! 00000000
                _DATA                 DATA           0003:00005938  ! 00000000
/mnt/sda5/.user/root/src/openwatcom-1.9/bld/gui/c/guimem.c
                _TEXT                 CODE           0001:00049300  ! 00000035
                CONST                 DATA           0003:00000b48  ! 00000000
                CONST2                DATA           0003:000015ec  ! 00000000
                _DATA                 DATA           0003:00005938  ! 00000000
/mnt/sda5/.user/root/src/openwatcom-1.9/bld/aui/c/wndrect.c
                _TEXT                 CODE           0001:00049340  ! 00000189
                CONST                 DATA           0003:00000b48  ! 00000000
                CONST2                DATA           0003:000015ec  ! 00000000
                _DATA                 DATA           0003:00005938  ! 00000000
/mnt/sda5/.user/root/src/openwatcom-1.9/bld/gui/ui/c/guistub.c
                _TEXT                 CODE           0001:000494d0  ! 00000021
                CONST                 DATA           0003:00000b48  ! 00000000
                CONST2                DATA           0003:000015ec  ! 00000000
                _DATA                 DATA           0003:00005938  ! 00000000
/mnt/sda5/.user/root/src/openwatcom-1.9/bld/gui/c/guimin.c
                _TEXT                 CODE           0001:00049500  ! 0000001c
                CONST                 DATA           0003:00000b48  ! 00000000
                CONST2                DATA           0003:000015ec  ! 00000000
                _DATA                 DATA           0003:00005938  ! 00000000
/mnt/sda5/.user/root/src/openwatcom-1.9/bld/aui/c/wndtool.c
                _TEXT                 CODE           0001:00049520  ! 00000144
                CONST                 DATA           0003:00000b48  ! 00000000
                CONST2                DATA           0003:000015ec  ! 00000000
                _DATA                 DATA           0003:00005938  ! 00000001
                _BSS                  BSS            0003:0000a344  ! 00000004
/mnt/sda5/.user/root/src/openwatcom-1.9/bld/gui/ui/c/guicolor.c
                _TEXT                 CODE           0001:00049670  ! 0000064c
                CONST                 DATA           0003:00000b48  ! 00000000
                CONST2                DATA           0003:000015ec  ! 00000000
                _DATA                 DATA           0003:0000593c  ! 0000003b
/mnt/sda5/.user/root/src/openwatcom-1.9/bld/aui/c/wndcolor.c
                _TEXT                 CODE           0001:00049cc0  ! 00000087
                CONST                 DATA           0003:00000b48  ! 00000000
                CONST2                DATA           0003:000015ec  ! 00000000
                _DATA                 DATA           0003:00005978  ! 00000000
/mnt/sda5/.user/root/src/openwatcom-1.9/bld/aui/c/dlgpick.c
                _TEXT                 CODE           0001:00049d50  ! 000000bc
                CONST                 DATA           0003:00000b48  ! 00000000
                CONST2                DATA           0003:000015ec  ! 00000000
                _DATA                 DATA           0003:00005978  ! 00000000
                _BSS                  BSS            0003:0000a348  ! 00000010
/mnt/sda5/.user/root/src/openwatcom-1.9/bld/gui/c/guipick.c
                _TEXT                 CODE           0001:00049e10  ! 0000012d
                CONST                 DATA           0003:00000b48  ! 00000000
                CONST2                DATA           0003:000015ec  ! 00000000
                _DATA                 DATA           0003:00005978  ! 00000078
/mnt/sda5/.user/root/src/openwatcom-1.9/bld/aui/c/wnddlg.c
                _TEXT                 CODE           0001:00049f40  ! 00000121
                CONST                 DATA           0003:00000b48  ! 00000000
                CONST2                DATA           0003:000015ec  ! 00000000
                _DATA                 DATA           0003:000059f0  ! 00000044
                _BSS                  BSS            0003:0000a358  ! 00000028
/mnt/sda5/.user/root/src/openwatcom-1.9/bld/gui/c/guindlg.c
                _TEXT                 CODE           0001:0004a070  ! 00000408
                CONST                 DATA           0003:00000b48  ! 00000000
                CONST2                DATA           0003:000015ec  ! 00000000
                _DATA                 DATA           0003:00005a34  ! 00000061
/mnt/sda5/.user/root/src/openwatcom-1.9/bld/gui/ui/c/guifocus.c
                _TEXT                 CODE           0001:0004a480  ! 00000029
                CONST                 DATA           0003:00000b48  ! 00000000
                CONST2                DATA           0003:000015ec  ! 00000000
                _DATA                 DATA           0003:00005a98  ! 00000000
/mnt/sda5/.user/root/src/openwatcom-1.9/bld/gui/ui/c/guixedit.c
                _TEXT                 CODE           0001:0004a4b0  ! 000001f3
                CONST                 DATA           0003:00000b48  ! 00000000
                CONST2                DATA           0003:000015ec  ! 00000000
                _DATA                 DATA           0003:00005a98  ! 00000000
/mnt/sda5/.user/root/src/openwatcom-1.9/bld/aui/c/wndsrch.c
                _TEXT                 CODE           0001:0004a6b0  ! 000006eb
                CONST                 DATA           0003:00000b48  ! 00000001
                CONST2                DATA           0003:000015ec  ! 00000000
                _DATA                 DATA           0003:00005a98  ! 00000001
/mnt/sda5/.user/root/src/openwatcom-1.9/bld/aui/c/wndpop.c
                _TEXT                 CODE           0001:0004ada0  ! 00000c9b
                CONST                 DATA           0003:00000b4c  ! 00000000
                CONST2                DATA           0003:000015ec  ! 00000000
                _DATA                 DATA           0003:00005a9c  ! 00000000
/mnt/sda5/.user/root/src/openwatcom-1.9/bld/gui/ui/c/guispawn.c
                _TEXT                 CODE           0001:0004ba40  ! 00000041
                CONST                 DATA           0003:00000b4c  ! 00000000
                CONST2                DATA           0003:000015ec  ! 00000000
                _DATA                 DATA           0003:00005a9c  ! 00000000
/mnt/sda5/.user/root/src/openwatcom-1.9/bld/aui/c/wndgadgt.c
                _TEXT                 CODE           0001:0004ba90  ! 00000062
                CONST                 DATA           0003:00000b4c  ! 00000000
                CONST2                DATA           0003:000015ec  ! 00000000
                _DATA                 DATA           0003:00005a9c  ! 00000002
/mnt/sda5/.user/root/src/openwatcom-1.9/bld/gui/c/guihot.c
                _TEXT                 CODE           0001:0004bb00  ! 000000c9
                CONST                 DATA           0003:00000b4c  ! 00000000
                CONST2                DATA           0003:000015ec  ! 00000000
                _DATA                 DATA           0003:00005aa0  ! 00000000
                _BSS                  BSS            0003:0000a380  ! 00000004
/mnt/sda5/.user/root/src/openwatcom-1.9/bld/gui/ui/c/guiflush.c
                _TEXT                 CODE           0001:0004bbd0  ! 00000005
                CONST                 DATA           0003:00000b4c  ! 00000000
                CONST2                DATA           0003:000015ec  ! 00000000
                _DATA                 DATA           0003:00005aa0  ! 00000000
/mnt/sda5/.user/root/src/openwatcom-1.9/bld/aui/c/wndmeth.c
                _TEXT                 CODE           0001:0004bbe0  ! 00000579
                CONST                 DATA           0003:00000b4c  ! 00000001
                CONST2                DATA           0003:000015ec  ! 00000000
                _DATA                 DATA           0003:00005aa0  ! 00000038
                _BSS                  BSS            0003:0000a384  ! 00001134
/mnt/sda5/.user/root/src/openwatcom-1.9/bld/gui/c/guiextra.c
                _TEXT                 CODE           0001:0004c160  ! 00000014
                CONST                 DATA           0003:00000b50  ! 00000000
                CONST2                DATA           0003:000015ec  ! 00000000
                _DATA                 DATA           0003:00005ad8  ! 00000000
/mnt/sda5/.user/root/src/openwatcom-1.9/bld/gui/ui/c/guixdlg.c
                _TEXT                 CODE           0001:0004c180  ! 00000ff8
                CONST                 DATA           0003:00000b50  ! 00000000
                CONST2                DATA           0003:000015ec  ! 00000000
                _DATA                 DATA           0003:00005ad8  ! 00000068
/mnt/sda5/.user/root/src/openwatcom-1.9/bld/gui/ui/c/guixaddt.c
                _TEXT                 CODE           0001:0004d180  ! 0000031e
                CONST                 DATA           0003:00000b50  ! 00000000
                CONST2                DATA           0003:000015ec  ! 00000000
                _DATA                 DATA           0003:00005b40  ! 00000000
/mnt/sda5/.user/root/src/openwatcom-1.9/bld/gui/ui/c/guigtext.c
                _TEXT                 CODE           0001:0004d4a0  ! 000000fa
                CONST                 DATA           0003:00000b50  ! 00000000
                CONST2                DATA           0003:000015ec  ! 00000000
                _DATA                 DATA           0003:00005b40  ! 00000000
/mnt/sda5/.user/root/src/openwatcom-1.9/bld/gui/ui/c/guistext.c
                _TEXT                 CODE           0001:0004d5a0  ! 000000a0
                CONST                 DATA           0003:00000b50  ! 00000000
                CONST2                DATA           0003:000015ec  ! 00000000
                _DATA                 DATA           0003:00005b40  ! 00000000
/mnt/sda5/.user/root/src/openwatcom-1.9/bld/aui/c/wndfdlg.c
                _TEXT                 CODE           0001:0004d640  ! 0000015a
                CONST                 DATA           0003:00000b50  ! 00000002
                CONST2                DATA           0003:000015ec  ! 00000000
                _DATA                 DATA           0003:00005b40  ! 00000000
/mnt/sda5/.user/root/src/openwatcom-1.9/bld/gui/ui/c/guicontr.c
                _TEXT                 CODE           0001:0004d7a0  ! 0000048b
                CONST                 DATA           0003:00000b54  ! 00000000
                CONST2                DATA           0003:000015ec  ! 00000000
                _DATA                 DATA           0003:00005b40  ! 00000000
/mnt/sda5/.user/root/src/openwatcom-1.9/bld/aui/c/dlgnew.c
                _TEXT                 CODE           0001:0004dc30  ! 00000156
                CONST                 DATA           0003:00000b54  ! 00000001
                CONST2                DATA           0003:000015ec  ! 00000000
                _DATA                 DATA           0003:00005b40  ! 00000078
/mnt/sda5/.user/root/src/openwatcom-1.9/bld/gui/ui/c/guicheck.c
                _TEXT                 CODE           0001:0004dd90  ! 000000c0
                CONST                 DATA           0003:00000b58  ! 00000000
                CONST2                DATA           0003:000015ec  ! 00000000
                _DATA                 DATA           0003:00005bb8  ! 00000000
/mnt/sda5/.user/root/src/openwatcom-1.9/bld/gui/ui/c/guihelp.c
                _TEXT                 CODE           0001:0004de50  ! 000000e3
                CONST                 DATA           0003:00000b58  ! 00000001
                CONST2                DATA           0003:000015ec  ! 00000000
                _DATA                 DATA           0003:00005bb8  ! 00000008
/mnt/sda5/.user/root/src/openwatcom-1.9/bld/aui/c/wndsel.c
                _TEXT                 CODE           0001:0004df40  ! 00000505
                CONST                 DATA           0003:00000b5c  ! 00000000
                CONST2                DATA           0003:000015ec  ! 00000000
                _DATA                 DATA           0003:00005bc0  ! 00000000
                _BSS                  BSS            0003:0000b4b8  ! 00000008
/mnt/sda5/.user/root/src/openwatcom-1.9/bld/aui/c/wndscrol.c
                _TEXT                 CODE           0001:0004e450  ! 00000370
                CONST                 DATA           0003:00000b5c  ! 00000000
                CONST2                DATA           0003:000015ec  ! 00000000
                _DATA                 DATA           0003:00005bc0  ! 00000000
/mnt/sda5/.user/root/src/openwatcom-1.9/bld/aui/c/wndchar.c
                _TEXT                 CODE           0001:0004e7c0  ! 0000006c
                CONST                 DATA           0003:00000b5c  ! 00000004
                CONST2                DATA           0003:000015ec  ! 00000000
                _DATA                 DATA           0003:00005bc0  ! 00000004
/mnt/sda5/.user/root/src/openwatcom-1.9/bld/gui/c/guiwnclr.c
                _TEXT                 CODE           0001:0004e830  ! 0000007a
                CONST                 DATA           0003:00000b60  ! 00000000
                CONST2                DATA           0003:000015ec  ! 00000000
                _DATA                 DATA           0003:00005bc4  ! 0000001c
/mnt/sda5/.user/root/src/openwatcom-1.9/bld/ui/c/uigchar.c
                _TEXT                 CODE           0001:0004e8aa  ! 000000af
                CONST                 DATA           0003:00000b60  ! 00000000
                CONST2                DATA           0003:000015ec  ! 00000000
                _DATA                 DATA           0003:00005be0  ! 00000066
/mnt/sda5/.user/root/src/openwatcom-1.9/bld/ui/dos/c/uikeyb.c
                _TEXT                 CODE           0001:0004e959  ! 00000215
                CONST                 DATA           0003:00000b60  ! 00000000
                CONST2                DATA           0003:000015ec  ! 00000000
                _DATA                 DATA           0003:00005c48  ! 00000040
                _BSS                  BSS            0003:0000b4c0  ! 00000001
/mnt/sda5/.user/root/src/openwatcom-1.9/bld/ui/dos/c/gmouse.c
                _TEXT                 CODE           0001:0004eb6e  ! 000005fa
                CONST                 DATA           0003:00000b60  ! 00000000
                CONST2                DATA           0003:000015ec  ! 00000000
                _DATA                 DATA           0003:00005c88  ! 00000044
                _BSS                  BSS            0003:0000b4c4  ! 00000084
/mnt/sda5/.user/root/src/openwatcom-1.9/bld/ui/dos/c/uimapch.c
                _TEXT                 CODE           0001:0004f168  ! 00000128
                CONST                 DATA           0003:00000b60  ! 00000000
                CONST2                DATA           0003:000015ec  ! 00000000
                _DATA                 DATA           0003:00005ccc  ! 00000155
/mnt/sda5/.user/root/src/openwatcom-1.9/bld/ui/c/uimousev.c
                _TEXT                 CODE           0001:0004f290  ! 0000045c
                CONST                 DATA           0003:00000b60  ! 00000000
                CONST2                DATA           0003:000015ec  ! 00000000
                _DATA                 DATA           0003:00005e24  ! 00000056
                _BSS                  BSS            0003:0000b548  ! 00000009
/mnt/sda5/.user/root/src/openwatcom-1.9/bld/ui/c/uialloc.c
                _TEXT                 CODE           0001:0004f6ec  ! 00000015
                CONST                 DATA           0003:00000b60  ! 00000000
                CONST2                DATA           0003:000015ec  ! 00000000
                _DATA                 DATA           0003:00005e7c  ! 00000000
/mnt/sda5/.user/root/src/openwatcom-1.9/bld/ui/c/uiattr.c
                _TEXT                 CODE           0001:0004f701  ! 00000116
                CONST                 DATA           0003:00000b60  ! 00000000
                CONST2                DATA           0003:000015ec  ! 00000000
                _DATA                 DATA           0003:00005e7c  ! 000000fa
/mnt/sda5/.user/root/src/openwatcom-1.9/bld/ui/c/uiback.c
                _TEXT                 CODE           0001:0004f817  ! 000001d3
                CONST                 DATA           0003:00000b60  ! 00000000
                CONST2                DATA           0003:000015ec  ! 00000000
                _DATA                 DATA           0003:00005f78  ! 00000000
/mnt/sda5/.user/root/src/openwatcom-1.9/bld/ui/c/uiforce.c
                _TEXT                 CODE           0001:0004f9ea  ! 000000df
                CONST                 DATA           0003:00000b60  ! 00000000
                CONST2                DATA           0003:000015ec  ! 00000000
                _DATA                 DATA           0003:00005f78  ! 0000001c
/mnt/sda5/.user/root/src/openwatcom-1.9/bld/ui/dos/c/uibmous.c
                _TEXT                 CODE           0001:0004fac9  ! 00000222
                CONST                 DATA           0003:00000b60  ! 00000000
                CONST2                DATA           0003:000015ec  ! 00000000
                _DATA                 DATA           0003:00005f94  ! 0000000b
                _BSS                  BSS            0003:0000b554  ! 00000007
/mnt/sda5/.user/root/src/openwatcom-1.9/bld/ui/dos/c/uiget.c
                _TEXT                 CODE           0001:0004fceb  ! 00000108
                CONST                 DATA           0003:00000b60  ! 00000000
                CONST2                DATA           0003:000015ec  ! 00000000
                _DATA                 DATA           0003:00005fa0  ! 00000004
/mnt/sda5/.user/root/src/openwatcom-1.9/bld/ui/dos/c/uiutil.c
                _TEXT                 CODE           0001:0004fdf3  ! 00000036
                CONST                 DATA           0003:00000b60  ! 00000000
                CONST2                DATA           0003:000015ec  ! 00000000
                _DATA                 DATA           0003:00005fa4  ! 00000000
/mnt/sda5/.user/root/src/openwatcom-1.9/bld/gui/ui/c/guixtent.c
                _TEXT                 CODE           0001:0004fe30  ! 0000009e
                CONST                 DATA           0003:00000b60  ! 00000000
                CONST2                DATA           0003:000015ec  ! 00000000
                _DATA                 DATA           0003:00005fa4  ! 00000000
/mnt/sda5/.user/root/src/openwatcom-1.9/bld/gui/ui/c/guidirty.c
                _TEXT                 CODE           0001:0004fed0  ! 00000086
                CONST                 DATA           0003:00000b60  ! 00000000
                CONST2                DATA           0003:000015ec  ! 00000000
                _DATA                 DATA           0003:00005fa4  ! 00000000
/mnt/sda5/.user/root/src/openwatcom-1.9/bld/gui/ui/c/guicrect.c
                _TEXT                 CODE           0001:0004ff60  ! 0000004f
                CONST                 DATA           0003:00000b60  ! 00000000
                CONST2                DATA           0003:000015ec  ! 00000000
                _DATA                 DATA           0003:00005fa4  ! 00000000
/mnt/sda5/.user/root/src/openwatcom-1.9/bld/gui/c/guizlist.c
                _TEXT                 CODE           0001:0004ffb0  ! 000000f7
                CONST                 DATA           0003:00000b60  ! 00000000
                CONST2                DATA           0003:000015ec  ! 00000000
                _DATA                 DATA           0003:00005fa4  ! 00000004
/mnt/sda5/.user/root/src/openwatcom-1.9/bld/ui/c/uiarea.c
                _TEXT                 CODE           0001:000500a7  ! 000001b4
                CONST                 DATA           0003:00000b60  ! 00000000
                CONST2                DATA           0003:000015ec  ! 00000000
                _DATA                 DATA           0003:00005fa8  ! 00000000
ldclass.c       _TEXT                 CODE           0001:0005025b  ! 0000005f
                CONST                 DATA           0003:00000b60  ! 00000000
                CONST2                DATA           0003:000015ec  ! 00000000
                _DATA                 DATA           0003:00005fa8  ! 00000000
bufld386        _TEXT                 CODE           0001:000502bc  ! 000000a3
                _DATA                 DATA           0003:00005fa8  ! 00000000
inf_nan.c       _TEXT                 CODE           0001:0005035f  ! 00000000
                CONST                 DATA           0003:00000b60  ! 00000000
                CONST2                DATA           0003:000015ec  ! 00000028
                _DATA                 DATA           0003:00005fa8  ! 00000000
/mnt/sda5/.user/root/src/openwatcom-1.9/bld/gui/ui/c/guistat.c
                _TEXT                 CODE           0001:00050360  ! 00000349
                CONST                 DATA           0003:00000b60  ! 00000000
                CONST2                DATA           0003:00001614  ! 00000000
                _DATA                 DATA           0003:00005fa8  ! 00000000
/mnt/sda5/.user/root/src/openwatcom-1.9/bld/aui/c/wndfref.c
                _TEXT                 CODE           0001:000506b0  ! 0000000c
                CONST                 DATA           0003:00000b60  ! 00000000
                CONST2                DATA           0003:00001614  ! 00000000
                _DATA                 DATA           0003:00005fa8  ! 00000000
/mnt/sda5/.user/root/src/openwatcom-1.9/bld/gui/ui/c/guidbclk.c
                _TEXT                 CODE           0001:000506c0  ! 00000011
                CONST                 DATA           0003:00000b60  ! 00000000
                CONST2                DATA           0003:00001614  ! 00000000
                _DATA                 DATA           0003:00005fa8  ! 00000000
/mnt/sda5/.user/root/src/openwatcom-1.9/bld/gui/c/guirscal.c
                _TEXT                 CODE           0001:000506e0  ! 00000060
                CONST                 DATA           0003:00000b60  ! 00000000
                CONST2                DATA           0003:00001614  ! 00000000
                _DATA                 DATA           0003:00005fa8  ! 00000000
/mnt/sda5/.user/root/src/openwatcom-1.9/bld/gui/c/guiscale.c
                _TEXT                 CODE           0001:00050740  ! 00000283
                CONST                 DATA           0003:00000b60  ! 00000000
                CONST2                DATA           0003:00001614  ! 00000000
                _DATA                 DATA           0003:00005fa8  ! 00000000
                _BSS                  BSS            0003:0000b55c  ! 00000020
/mnt/sda5/.user/root/src/openwatcom-1.9/bld/gui/ui/c/guixinit.c
                _TEXT                 CODE           0001:000509d0  ! 00000156
                CONST                 DATA           0003:00000b60  ! 00000000
                CONST2                DATA           0003:00001614  ! 00000000
                _DATA                 DATA           0003:00005fa8  ! 00000004
/mnt/sda5/.user/root/src/openwatcom-1.9/bld/gui/c/guiimmdi.c
                _TEXT                 CODE           0001:00050b30  ! 0000004d
                CONST                 DATA           0003:00000b60  ! 00000000
                CONST2                DATA           0003:00001614  ! 00000000
                _DATA                 DATA           0003:00005fac  ! 00000000
/mnt/sda5/.user/root/src/openwatcom-1.9/bld/gui/ui/c/guimenu.c
                _TEXT                 CODE           0001:00050b80  ! 00001054
                CONST                 DATA           0003:00000b60  ! 00000000
                CONST2                DATA           0003:00001614  ! 00000000
                _DATA                 DATA           0003:00005fac  ! 00000018
/mnt/sda5/.user/root/src/openwatcom-1.9/bld/aui/c/wndimain.c
                _TEXT                 CODE           0001:00051be0  ! 00000005
                CONST                 DATA           0003:00000b60  ! 00000000
                CONST2                DATA           0003:00001614  ! 00000000
                _DATA                 DATA           0003:00005fc4  ! 00000000
/mnt/sda5/.user/root/src/openwatcom-1.9/bld/aui/c/wndmnsz.c
                _TEXT                 CODE           0001:00051bf0  ! 00000023
                CONST                 DATA           0003:00000b60  ! 00000000
                CONST2                DATA           0003:00001614  ! 00000000
                _DATA                 DATA           0003:00005fc4  ! 00000000
/mnt/sda5/.user/root/src/openwatcom-1.9/bld/aui/c/wndbgch.c
                _TEXT                 CODE           0001:00051c20  ! 00000000
                CONST                 DATA           0003:00000b60  ! 00000000
                CONST2                DATA           0003:00001614  ! 00000000
                _DATA                 DATA           0003:00005fc4  ! 00000001
/mnt/sda5/.user/root/src/openwatcom-1.9/bld/gui/ui/c/guixdraw.c
                _TEXT                 CODE           0001:00051c20  ! 00000ba4
                CONST                 DATA           0003:00000b60  ! 00000000
                CONST2                DATA           0003:00001614  ! 00000000
                _DATA                 DATA           0003:00005fc8  ! 00000038
                _BSS                  BSS            0003:0000b57c  ! 0000001e
/mnt/sda5/.user/root/src/openwatcom-1.9/bld/gui/ui/c/guixsys.c
                _TEXT                 CODE           0001:000527d0  ! 00000426
                CONST                 DATA           0003:00000b60  ! 00000000
                CONST2                DATA           0003:00001614  ! 00000000
                _DATA                 DATA           0003:00006000  ! 0000001c
/mnt/sda5/.user/root/src/openwatcom-1.9/bld/gui/ui/c/guixwind.c
                _TEXT                 CODE           0001:00052c00  ! 000002e3
                CONST                 DATA           0003:00000b60  ! 00000000
                CONST2                DATA           0003:00001614  ! 00000000
                _DATA                 DATA           0003:0000601c  ! 00000000
/mnt/sda5/.user/root/src/openwatcom-1.9/bld/gui/ui/c/guigetnr.c
                _TEXT                 CODE           0001:00052ef0  ! 00000005
                CONST                 DATA           0003:00000b60  ! 00000000
                CONST2                DATA           0003:00001614  ! 00000000
                _DATA                 DATA           0003:0000601c  ! 00000000
/mnt/sda5/.user/root/src/openwatcom-1.9/bld/gui/ui/c/guitextm.c
                _TEXT                 CODE           0001:00052f00  ! 00000068
                CONST                 DATA           0003:00000b60  ! 00000000
                CONST2                DATA           0003:00001614  ! 00000000
                _DATA                 DATA           0003:0000601c  ! 00000000
/mnt/sda5/.user/root/src/openwatcom-1.9/bld/gui/ui/c/guirange.c
                _TEXT                 CODE           0001:00052f70  ! 00000172
                CONST                 DATA           0003:00000b60  ! 00000000
                CONST2                DATA           0003:00001614  ! 00000000
                _DATA                 DATA           0003:0000601c  ! 00000000
/mnt/sda5/.user/root/src/openwatcom-1.9/bld/aui/c/wndchoos.c
                _TEXT                 CODE           0001:000530f0  ! 00000484
                CONST                 DATA           0003:00000b60  ! 00000000
                CONST2                DATA           0003:00001614  ! 00000000
                _DATA                 DATA           0003:0000601c  ! 00000000
/mnt/sda5/.user/root/src/openwatcom-1.9/bld/aui/c/wndmouse.c
                _TEXT                 CODE           0001:00053580  ! 00000540
                CONST                 DATA           0003:00000b60  ! 00000000
                CONST2                DATA           0003:00001614  ! 00000000
                _DATA                 DATA           0003:0000601c  ! 00000000
                _BSS                  BSS            0003:0000b59c  ! 0000003b
/mnt/sda5/.user/root/src/openwatcom-1.9/bld/aui/c/wndqryhk.c
                _TEXT                 CODE           0001:00053ac0  ! 00000003
                CONST                 DATA           0003:00000b60  ! 00000000
                CONST2                DATA           0003:00001614  ! 00000000
                _DATA                 DATA           0003:0000601c  ! 00000000
/mnt/sda5/.user/root/src/openwatcom-1.9/bld/aui/c/wndendhk.c
                _TEXT                 CODE           0001:00053ad0  ! 00000001
                CONST                 DATA           0003:00000b60  ! 00000000
                CONST2                DATA           0003:00001614  ! 00000000
                _DATA                 DATA           0003:0000601c  ! 00000000
/mnt/sda5/.user/root/src/openwatcom-1.9/bld/gui/c/guicreat.c
                _TEXT                 CODE           0001:00053ae0  ! 00000051
                CONST                 DATA           0003:00000b60  ! 00000000
                CONST2                DATA           0003:00001614  ! 00000000
                _DATA                 DATA           0003:0000601c  ! 00000001
/mnt/sda5/.user/root/src/openwatcom-1.9/bld/gui/ui/c/guisicon.c
                _TEXT                 CODE           0001:00053b40  ! 00000045
                CONST                 DATA           0003:00000b60  ! 00000000
                CONST2                DATA           0003:00001614  ! 00000000
                _DATA                 DATA           0003:00006020  ! 00000000
/mnt/sda5/.user/root/src/openwatcom-1.9/bld/gui/ui/c/guidrect.c
                _TEXT                 CODE           0001:00053b90  ! 00000143
                CONST                 DATA           0003:00000b60  ! 00000000
                CONST2                DATA           0003:00001614  ! 00000000
                _DATA                 DATA           0003:00006020  ! 00000000
/mnt/sda5/.user/root/src/openwatcom-1.9/bld/gui/ui/c/guidrow.c
                _TEXT                 CODE           0001:00053ce0  ! 0000004f
                CONST                 DATA           0003:00000b60  ! 00000000
                CONST2                DATA           0003:00001614  ! 00000000
                _DATA                 DATA           0003:00006020  ! 00000000
/mnt/sda5/.user/root/src/openwatcom-1.9/bld/gui/ui/c/guiscrol.c
                _TEXT                 CODE           0001:00053d30  ! 00000257
                CONST                 DATA           0003:00000b60  ! 00000000
                CONST2                DATA           0003:00001614  ! 00000000
                _DATA                 DATA           0003:00006020  ! 00000000
/mnt/sda5/.user/root/src/openwatcom-1.9/bld/gui/c/guidraw.c
                _TEXT                 CODE           0001:00053f90  ! 000001bf
                CONST                 DATA           0003:00000b60  ! 00000000
                CONST2                DATA           0003:00001614  ! 00000000
                _DATA                 DATA           0003:00006020  ! 00000000
/mnt/sda5/.user/root/src/openwatcom-1.9/bld/gui/ui/c/guidoscr.c
                _TEXT                 CODE           0001:00054150  ! 000001ce
                CONST                 DATA           0003:00000b60  ! 00000000
                CONST2                DATA           0003:00001614  ! 00000000
                _DATA                 DATA           0003:00006020  ! 00000000
/mnt/sda5/.user/root/src/openwatcom-1.9/bld/gui/c/guipixel.c
                _TEXT                 CODE           0001:00054320  ! 00000017
                CONST                 DATA           0003:00000b60  ! 00000000
                CONST2                DATA           0003:00001614  ! 00000000
                _DATA                 DATA           0003:00006020  ! 00000000
/mnt/sda5/.user/root/src/openwatcom-1.9/bld/gui/ui/c/guirect.c
                _TEXT                 CODE           0001:00054340  ! 00000072
                CONST                 DATA           0003:00000b60  ! 00000000
                CONST2                DATA           0003:00001614  ! 00000000
                _DATA                 DATA           0003:00006020  ! 00000000
/mnt/sda5/.user/root/src/openwatcom-1.9/bld/gui/ui/c/guimouse.c
                _TEXT                 CODE           0001:000543c0  ! 00000057
                CONST                 DATA           0003:00000b60  ! 00000000
                CONST2                DATA           0003:00001614  ! 00000000
                _DATA                 DATA           0003:00006020  ! 00000000
/mnt/sda5/.user/root/src/openwatcom-1.9/bld/gui/ui/c/guisize.c
                _TEXT                 CODE           0001:00054420  ! 00000e88
                CONST                 DATA           0003:00000b60  ! 00000000
                CONST2                DATA           0003:00001614  ! 00000000
                _DATA                 DATA           0003:00006020  ! 00000000
/mnt/sda5/.user/root/src/openwatcom-1.9/bld/gui/ui/c/guixdisp.c
                _TEXT                 CODE           0001:000552b0  ! 00000790
                CONST                 DATA           0003:00000b60  ! 0000000b
                CONST2                DATA           0003:00001614  ! 00000000
                _DATA                 DATA           0003:00006020  ! 00000291
/mnt/sda5/.user/root/src/openwatcom-1.9/bld/gui/ui/c/guildstr.c
                _TEXT                 CODE           0001:00055a40  ! 00000209
                CONST                 DATA           0003:00000b6c  ! 00000033
                CONST2                DATA           0003:00001614  ! 00000000
                _DATA                 DATA           0003:000062b4  ! 0000002c
/mnt/sda5/.user/root/src/openwatcom-1.9/bld/gui/ui/c/guifront.c
                _TEXT                 CODE           0001:00055c50  ! 000000fe
                CONST                 DATA           0003:00000ba0  ! 00000000
                CONST2                DATA           0003:00001614  ! 00000000
                _DATA                 DATA           0003:000062e0  ! 00000000
/mnt/sda5/.user/root/src/openwatcom-1.9/bld/gui/ui/c/guistrin.c
                _TEXT                 CODE           0001:00055d50  ! 0000004f
                CONST                 DATA           0003:00000ba0  ! 00000000
                CONST2                DATA           0003:00001614  ! 00000000
                _DATA                 DATA           0003:000062e0  ! 00000000
/mnt/sda5/.user/root/src/openwatcom-1.9/bld/gui/ui/c/guixbar.c
                _TEXT                 CODE           0001:00055da0  ! 000000e1
                CONST                 DATA           0003:00000ba0  ! 00000000
                CONST2                DATA           0003:00001614  ! 00000000
                _DATA                 DATA           0003:000062e0  ! 00000000
/mnt/sda5/.user/root/src/openwatcom-1.9/bld/gui/ui/c/guidrawr.c
                _TEXT                 CODE           0001:00055e90  ! 000003b5
                CONST                 DATA           0003:00000ba0  ! 00000000
                CONST2                DATA           0003:00001614  ! 00000000
                _DATA                 DATA           0003:000062e0  ! 00000000
/mnt/sda5/.user/root/src/openwatcom-1.9/bld/gui/ui/c/guixhot.c
                _TEXT                 CODE           0001:00056250  ! 0000010c
                CONST                 DATA           0003:00000ba0  ! 00000000
                CONST2                DATA           0003:00001614  ! 00000000
                _DATA                 DATA           0003:000062e0  ! 00000004
/mnt/sda5/.user/root/src/openwatcom-1.9/bld/gui/ui/c/guitool.c
                _TEXT                 CODE           0001:00056360  ! 00000802
                CONST                 DATA           0003:00000ba0  ! 00000000
                CONST2                DATA           0003:00001614  ! 00000000
                _DATA                 DATA           0003:000062e4  ! 00000080
/mnt/sda5/.user/root/src/openwatcom-1.9/bld/gui/c/guihtool.c
                _TEXT                 CODE           0001:00056b70  ! 00000143
                CONST                 DATA           0003:00000ba0  ! 00000000
                CONST2                DATA           0003:00001614  ! 00000000
                _DATA                 DATA           0003:00006364  ! 00000000
/mnt/sda5/.user/root/src/openwatcom-1.9/bld/ui/c/uimenu.c
                _TEXT                 CODE           0001:00056cb3  ! 000012c7
                CONST                 DATA           0003:00000ba0  ! 00000024
                CONST2                DATA           0003:00001614  ! 00000000
                _DATA                 DATA           0003:00006364  ! 00000059
                _BSS                  BSS            0003:0000b5d8  ! 000000bc
/mnt/sda5/.user/root/src/openwatcom-1.9/bld/gui/ui/c/guiwhole.c
                _TEXT                 CODE           0001:00057f80  ! 0000002a
                CONST                 DATA           0003:00000bc4  ! 00000000
                CONST2                DATA           0003:00001614  ! 00000000
                _DATA                 DATA           0003:000063c0  ! 00000000
/mnt/sda5/.user/root/src/openwatcom-1.9/bld/ui/c/uigadget.c
                _TEXT                 CODE           0001:00057faa  ! 00000537
                CONST                 DATA           0003:00000bc4  ! 00000000
                CONST2                DATA           0003:00001614  ! 00000000
                _DATA                 DATA           0003:000063c0  ! 0000001b
/mnt/sda5/.user/root/src/openwatcom-1.9/bld/gui/c/guisdef.c
                _TEXT                 CODE           0001:000584f0  ! 00000000
                CONST                 DATA           0003:00000bc4  ! 00000000
                CONST2                DATA           0003:00001614  ! 00000000
                _DATA                 DATA           0003:000063dc  ! 00000000
                _BSS                  BSS            0003:0000b694  ! 00000118
/mnt/sda5/.user/root/src/openwatcom-1.9/bld/gui/c/guidlg.c
                _TEXT                 CODE           0001:000584f0  ! 0000008f
                CONST                 DATA           0003:00000bc4  ! 00000000
                CONST2                DATA           0003:00001614  ! 00000000
                _DATA                 DATA           0003:000063dc  ! 00000000
/mnt/sda5/.user/root/src/openwatcom-1.9/bld/ui/c/uidialog.c
                _TEXT                 CODE           0001:0005857f  ! 000016d8
                CONST                 DATA           0003:00000bc4  ! 00000002
                CONST2                DATA           0003:00001614  ! 00000000
                _DATA                 DATA           0003:000063dc  ! 0000005a
/mnt/sda5/.user/root/src/openwatcom-1.9/bld/gui/c/guiutil.c
                _TEXT                 CODE           0001:00059c60  ! 00000175
                CONST                 DATA           0003:00000bc8  ! 00000000
                CONST2                DATA           0003:00001614  ! 00000000
                _DATA                 DATA           0003:00006438  ! 0000000c
/mnt/sda5/.user/root/src/openwatcom-1.9/bld/gui/ui/c/guihotsp.c
                _TEXT                 CODE           0001:00059de0  ! 000000e4
                CONST                 DATA           0003:00000bc8  ! 00000001
                CONST2                DATA           0003:00001614  ! 00000000
                _DATA                 DATA           0003:00006444  ! 00000000
/mnt/sda5/.user/root/src/openwatcom-1.9/bld/aui/c/rxwrap.c
                _TEXT                 CODE           0001:00059ed0  ! 0000124d
                CONST                 DATA           0003:00000bcc  ! 00000000
                CONST2                DATA           0003:00001614  ! 00000000
                _DATA                 DATA           0003:00006444  ! 0000000f
                _BSS                  BSS            0003:0000b7ac  ! 00000025
/mnt/sda5/.user/root/src/openwatcom-1.9/bld/gui/c/guihflt.c
                _TEXT                 CODE           0001:0005b120  ! 0000006d
                CONST                 DATA           0003:00000bcc  ! 00000000
                CONST2                DATA           0003:00001614  ! 00000000
                _DATA                 DATA           0003:00006454  ! 00000000
/mnt/sda5/.user/root/src/openwatcom-1.9/bld/ui/dos/c/uispawn.c
                _TEXT                 CODE           0001:0005b18d  ! 00000024
                CONST                 DATA           0003:00000bcc  ! 00000000
                CONST2                DATA           0003:00001614  ! 00000000
                _DATA                 DATA           0003:00006454  ! 00000000
/mnt/sda5/.user/root/src/openwatcom-1.9/bld/ui/c/uiblank.c
                _TEXT                 CODE           0001:0005b1b1  ! 000000a2
                CONST                 DATA           0003:00000bcc  ! 00000000
                CONST2                DATA           0003:00001614  ! 00000000
                _DATA                 DATA           0003:00006454  ! 00000000
/mnt/sda5/.user/root/src/openwatcom-1.9/bld/ui/c/uidirty.c
                _TEXT                 CODE           0001:0005b253  ! 000000ed
                CONST                 DATA           0003:00000bcc  ! 00000000
                CONST2                DATA           0003:00001614  ! 00000000
                _DATA                 DATA           0003:00006454  ! 00000000
/mnt/sda5/.user/root/src/openwatcom-1.9/bld/gui/c/guihook.c
                _TEXT                 CODE           0001:0005b340  ! 00000204
                CONST                 DATA           0003:00000bcc  ! 00000000
                CONST2                DATA           0003:00001614  ! 00000000
                _DATA                 DATA           0003:00006454  ! 0000002c
/mnt/sda5/.user/root/src/openwatcom-1.9/bld/ui/c/uilist.c
                _TEXT                 CODE           0001:0005b544  ! 0000010b
                CONST                 DATA           0003:00000bcc  ! 00000000
                CONST2                DATA           0003:00001614  ! 00000000
                _DATA                 DATA           0003:00006480  ! 0000007c
/mnt/sda5/.user/root/src/openwatcom-1.9/bld/gui/ui/c/guilistb.c
                _TEXT                 CODE           0001:0005b650  ! 00000583
                CONST                 DATA           0003:00000bcc  ! 00000003
                CONST2                DATA           0003:00001614  ! 00000000
                _DATA                 DATA           0003:000064fc  ! 00000000
/mnt/sda5/.user/root/src/openwatcom-1.9/bld/gui/ui/c/guixutil.c
                _TEXT                 CODE           0001:0005bbe0  ! 00000627
                CONST                 DATA           0003:00000bd0  ! 00000000
                CONST2                DATA           0003:00001614  ! 00000000
                _DATA                 DATA           0003:000064fc  ! 00000000
/mnt/sda5/.user/root/src/openwatcom-1.9/bld/gui/c/guimkey.c
                _TEXT                 CODE           0001:0005c210  ! 00000477
                CONST                 DATA           0003:00000bd0  ! 00000000
                CONST2                DATA           0003:00001614  ! 00000000
                _DATA                 DATA           0003:000064fc  ! 00000001
/mnt/sda5/.user/root/src/openwatcom-1.9/bld/gui/ui/c/guirdlg.c
                _TEXT                 CODE           0001:0005c690  ! 00000c15
                CONST                 DATA           0003:00000bd0  ! 00000000
                CONST2                DATA           0003:00001614  ! 00000000
                _DATA                 DATA           0003:00006500  ! 00000000
/mnt/sda5/.user/root/src/openwatcom-1.9/bld/ui/c/uiyield.c
                _TEXT                 CODE           0001:0005d2a5  ! 00000001
                CONST                 DATA           0003:00000bd0  ! 00000000
                CONST2                DATA           0003:00001614  ! 00000000
                _DATA                 DATA           0003:00006500  ! 00000000
/mnt/sda5/.user/root/src/openwatcom-1.9/bld/gui/ui/c/guixloop.c
                _TEXT                 CODE           0001:0005d2b0  ! 00001061
                CONST                 DATA           0003:00000bd0  ! 00000000
                CONST2                DATA           0003:00001614  ! 00000000
                _DATA                 DATA           0003:00006500  ! 00000034
                _BSS                  BSS            0003:0000b7d4  ! 00000001
/mnt/sda5/.user/root/src/openwatcom-1.9/bld/gui/ui/c/guifdlg.c
                _TEXT                 CODE           0001:0005e320  ! 000016f2
                CONST                 DATA           0003:00000bd0  ! 0000000f
                CONST2                DATA           0003:00001614  ! 00000000
                _DATA                 DATA           0003:00006534  ! 000001e1
/mnt/sda5/.user/root/src/openwatcom-1.9/bld/gui/ui/c/guixscal.c
                _TEXT                 CODE           0001:0005fa20  ! 0000014b
                CONST                 DATA           0003:00000be0  ! 00000000
                CONST2                DATA           0003:00001614  ! 00000000
                _DATA                 DATA           0003:00006718  ! 00000000
/mnt/sda5/.user/root/src/openwatcom-1.9/bld/help/c/helpopen.c
                _TEXT                 CODE           0001:0005fb70  ! 0000044e
                CONST                 DATA           0003:00000be0  ! 00000005
                CONST2                DATA           0003:00001614  ! 00000000
                _DATA                 DATA           0003:00006718  ! 00000078
                _BSS                  BSS            0003:0000b7d8  ! 00000004
/mnt/sda5/.user/root/src/openwatcom-1.9/bld/help/c/help.c
                _TEXT                 CODE           0001:0005ffc0  ! 00002220
                CONST                 DATA           0003:00000be8  ! 00000068
                CONST2                DATA           0003:00001614  ! 00000000
                _DATA                 DATA           0003:00006790  ! 000001d0
                _BSS                  BSS            0003:0000b7dc  ! 00000101
/mnt/sda5/.user/root/src/openwatcom-1.9/bld/gui/ui/c/guithumb.c
                _TEXT                 CODE           0001:000621e0  ! 000000f2
                CONST                 DATA           0003:00000c50  ! 00000000
                CONST2                DATA           0003:00001614  ! 00000000
                _DATA                 DATA           0003:00006960  ! 00000000
/mnt/sda5/.user/root/src/openwatcom-1.9/bld/gui/ui/c/guigscrl.c
                _TEXT                 CODE           0001:000622e0  ! 0000009c
                CONST                 DATA           0003:00000c50  ! 00000000
                CONST2                DATA           0003:00001614  ! 00000000
                _DATA                 DATA           0003:00006960  ! 00000000
/mnt/sda5/.user/root/src/openwatcom-1.9/bld/ui/dos/c/charmap.c
                _TEXT                 CODE           0001:0006237c  ! 000000db
                CONST                 DATA           0003:00000c50  ! 00000000
                CONST2                DATA           0003:00001614  ! 00000000
                _DATA                 DATA           0003:00006960  ! 00000000
/mnt/sda5/.user/root/src/openwatcom-1.9/bld/ui/c/uivscrn.c
                _TEXT                 CODE           0001:00062457  ! 000000af
                CONST                 DATA           0003:00000c50  ! 00000000
                CONST2                DATA           0003:00001614  ! 00000000
                _DATA                 DATA           0003:00006960  ! 00000000
/mnt/sda5/.user/root/src/openwatcom-1.9/bld/ui/c/uibfill.c
                _TEXT                 CODE           0001:00062506  ! 00000041
                CONST                 DATA           0003:00000c50  ! 00000000
                CONST2                DATA           0003:00001614  ! 00000000
                _DATA                 DATA           0003:00006960  ! 00000000
/mnt/sda5/.user/root/src/openwatcom-1.9/bld/ui/c/uibcopy.c
                _TEXT                 CODE           0001:00062547  ! 0000005b
                CONST                 DATA           0003:00000c50  ! 00000000
                CONST2                DATA           0003:00001614  ! 00000000
                _DATA                 DATA           0003:00006960  ! 00000000
/mnt/sda5/.user/root/src/openwatcom-1.9/bld/ui/c/uiwin.c
                _TEXT                 CODE           0001:000625a2  ! 00000182
                CONST                 DATA           0003:00000c50  ! 00000000
                CONST2                DATA           0003:00001614  ! 00000000
                _DATA                 DATA           0003:00006960  ! 00000000
/mnt/sda5/.user/root/src/openwatcom-1.9/bld/ui/c/uiballoc.c
                _TEXT                 CODE           0001:00062724  ! 0000006a
                CONST                 DATA           0003:00000c50  ! 00000000
                CONST2                DATA           0003:00001614  ! 00000000
                _DATA                 DATA           0003:00006960  ! 00000000
/mnt/sda5/.user/root/src/openwatcom-1.9/bld/ui/dos/c/uisnow.c
                _TEXT                 CODE           0001:0006278e  ! 00000029
                CONST                 DATA           0003:00000c50  ! 00000000
                CONST2                DATA           0003:00001614  ! 00000000
                _DATA                 DATA           0003:00006960  ! 00000000
/mnt/sda5/.user/root/src/openwatcom-1.9/bld/ui/c/uipget.c
                _TEXT                 CODE           0001:000627b7  ! 00000055
                CONST                 DATA           0003:00000c50  ! 00000000
                CONST2                DATA           0003:00001614  ! 00000000
                _DATA                 DATA           0003:00006960  ! 00000000
                _BSS                  BSS            0003:0000b8e0  ! 00000004
/mnt/sda5/.user/root/src/openwatcom-1.9/bld/ui/dos/c/uihook.c
                _TEXT                 CODE           0001:0006280c  ! 00000001
                CONST                 DATA           0003:00000c50  ! 00000000
                CONST2                DATA           0003:00001614  ! 00000000
                _DATA                 DATA           0003:00006960  ! 00000000
/mnt/sda5/.user/root/src/openwatcom-1.9/bld/ui/c/uivfill.c
                _TEXT                 CODE           0001:0006280d  ! 00000068
                CONST                 DATA           0003:00000c50  ! 00000000
                CONST2                DATA           0003:00001614  ! 00000000
                _DATA                 DATA           0003:00006960  ! 00000000
/mnt/sda5/.user/root/src/openwatcom-1.9/bld/ui/c/uivstr.c
                _TEXT                 CODE           0001:00062875  ! 00000191
                CONST                 DATA           0003:00000c50  ! 00000000
                CONST2                DATA           0003:00001614  ! 00000000
                _DATA                 DATA           0003:00006960  ! 00000000
/mnt/sda5/.user/root/src/openwatcom-1.9/bld/gui/ui/c/guiximdi.c
                _TEXT                 CODE           0001:00062a10  ! 00000079
                CONST                 DATA           0003:00000c50  ! 00000000
                CONST2                DATA           0003:00001614  ! 00000000
                _DATA                 DATA           0003:00006960  ! 00000000
/mnt/sda5/.user/root/src/openwatcom-1.9/bld/gui/c/guimdi.c
                _TEXT                 CODE           0001:00062a90  ! 00000a05
                CONST                 DATA           0003:00000c50  ! 00000001
                CONST2                DATA           0003:00001614  ! 00000000
                _DATA                 DATA           0003:00006960  ! 00000048
                _BSS                  BSS            0003:0000b8e4  ! 000002f4
/mnt/sda5/.user/root/src/openwatcom-1.9/bld/gui/ui/c/guifloat.c
                _TEXT                 CODE           0001:000634a0  ! 00000459
                CONST                 DATA           0003:00000c54  ! 00000000
                CONST2                DATA           0003:00001614  ! 00000000
                _DATA                 DATA           0003:000069a8  ! 0000000c
/mnt/sda5/.user/root/src/openwatcom-1.9/bld/gui/c/guihint.c
                _TEXT                 CODE           0001:00063900  ! 000005f8
                CONST                 DATA           0003:00000c54  ! 00000000
                CONST2                DATA           0003:00001614  ! 00000000
                _DATA                 DATA           0003:000069b4  ! 00000000
/mnt/sda5/.user/root/src/openwatcom-1.9/bld/gui/ui/c/guisysme.c
                _TEXT                 CODE           0001:00063f00  ! 00000235
                CONST                 DATA           0003:00000c54  ! 00000000
                CONST2                DATA           0003:00001614  ! 00000000
                _DATA                 DATA           0003:000069b4  ! 00000070
/mnt/sda5/.user/root/src/openwatcom-1.9/bld/gui/ui/c/guirmenu.c
                _TEXT                 CODE           0001:00064140  ! 00000631
                CONST                 DATA           0003:00000c54  ! 00000000
                CONST2                DATA           0003:00001614  ! 00000000
                _DATA                 DATA           0003:00006a24  ! 00000000
/mnt/sda5/.user/root/src/openwatcom-1.9/bld/gui/ui/c/guigadgt.c
                _TEXT                 CODE           0001:00064780  ! 000004b6
                CONST                 DATA           0003:00000c54  ! 00000000
                CONST2                DATA           0003:00001614  ! 00000000
                _DATA                 DATA           0003:00006a24  ! 00000004
/mnt/sda5/.user/root/src/openwatcom-1.9/bld/gui/ui/c/guiicon.c
                _TEXT                 CODE           0001:00064c40  ! 000000d5
                CONST                 DATA           0003:00000c54  ! 00000000
                CONST2                DATA           0003:00001614  ! 00000000
                _DATA                 DATA           0003:00006a28  ! 00000000
/mnt/sda5/.user/root/src/openwatcom-1.9/bld/ui/c/uimget.c
                _TEXT                 CODE           0001:00064d15  ! 00000026
                CONST                 DATA           0003:00000c54  ! 00000000
                CONST2                DATA           0003:00001614  ! 00000000
                _DATA                 DATA           0003:00006a28  ! 00000000
/mnt/sda5/.user/root/src/openwatcom-1.9/bld/gui/ui/c/guiuiev.c
                _TEXT                 CODE           0001:00064d40  ! 00000001
                CONST                 DATA           0003:00000c54  ! 00000000
                CONST2                DATA           0003:00001614  ! 00000000
                _DATA                 DATA           0003:00006a28  ! 00000000
/mnt/sda5/.user/root/src/openwatcom-1.9/bld/gui/c/guiev.c
                _TEXT                 CODE           0001:00064d50  ! 00000001
                CONST                 DATA           0003:00000c54  ! 00000000
                CONST2                DATA           0003:00001614  ! 00000000
                _DATA                 DATA           0003:00006a28  ! 00000000
/mnt/sda5/.user/root/src/openwatcom-1.9/bld/gui/c/guistr.c
                _TEXT                 CODE           0001:00064d60  ! 0000072f
                CONST                 DATA           0003:00000c54  ! 00000000
                CONST2                DATA           0003:00001614  ! 00000000
                _DATA                 DATA           0003:00006a28  ! 00000000
                _BSS                  BSS            0003:0000bbd8  ! 00000080
/mnt/sda5/.user/root/src/openwatcom-1.9/bld/gui/c/guideath.c
                _TEXT                 CODE           0001:00065490  ! 00000006
                CONST                 DATA           0003:00000c54  ! 00000000
                CONST2                DATA           0003:00001614  ! 00000000
                _DATA                 DATA           0003:00006a28  ! 00000000
/mnt/sda5/.user/root/src/openwatcom-1.9/bld/gui/c/guiextnm.c
                _TEXT                 CODE           0001:000654a0  ! 0000006a
                CONST                 DATA           0003:00000c54  ! 00000000
                CONST2                DATA           0003:00001614  ! 00000000
                _DATA                 DATA           0003:00006a28  ! 00000090
/mnt/sda5/.user/root/src/openwatcom-1.9/bld/gui/c/guidead.c
                _TEXT                 CODE           0001:00065510  ! 00000006
                CONST                 DATA           0003:00000c54  ! 00000000
                CONST2                DATA           0003:00001614  ! 00000000
                _DATA                 DATA           0003:00006ab8  ! 00000000
/mnt/sda5/.user/root/src/openwatcom-1.9/bld/gui/ui/c/guixmain.c
                _TEXT                 CODE           0001:00065520  ! 00000005
                CONST                 DATA           0003:00000c54  ! 00000000
                CONST2                DATA           0003:00001614  ! 00000000
                _DATA                 DATA           0003:00006ab8  ! 00000001
/mnt/sda5/.user/root/src/openwatcom-1.9/bld/gui/c/guifcrck.c
                _TEXT                 CODE           0001:00065530  ! 00000003
                CONST                 DATA           0003:00000c54  ! 00000000
                CONST2                DATA           0003:00001614  ! 00000000
                _DATA                 DATA           0003:00006abc  ! 00000000
/mnt/sda5/.user/root/src/openwatcom-1.9/bld/ui/c/uivopen.c
                _TEXT                 CODE           0001:00065533  ! 000003d0
                CONST                 DATA           0003:00000c54  ! 00000000
                CONST2                DATA           0003:00001614  ! 00000000
                _DATA                 DATA           0003:00006abc  ! 00000000
/mnt/sda5/.user/root/src/openwatcom-1.9/bld/ui/c/uivhide.c
                _TEXT                 CODE           0001:00065903  ! 00000046
                CONST                 DATA           0003:00000c54  ! 00000000
                CONST2                DATA           0003:00001614  ! 00000000
                _DATA                 DATA           0003:00006abc  ! 00000000
/mnt/sda5/.user/root/src/openwatcom-1.9/bld/gui/c/guisetup.c
                _TEXT                 CODE           0001:00065950  ! 00000048
                CONST                 DATA           0003:00000c54  ! 00000000
                CONST2                DATA           0003:00001614  ! 00000000
                _DATA                 DATA           0003:00006abc  ! 00000000
/mnt/sda5/.user/root/src/openwatcom-1.9/bld/gui/ui/c/guidrawt.c
                _TEXT                 CODE           0001:000659a0  ! 00000333
                CONST                 DATA           0003:00000c54  ! 00000000
                CONST2                DATA           0003:00001614  ! 00000000
                _DATA                 DATA           0003:00006abc  ! 00000000
/mnt/sda5/.user/root/src/openwatcom-1.9/bld/ui/c/uivmove.c
                _TEXT                 CODE           0001:00065cd3  ! 00000136
                CONST                 DATA           0003:00000c54  ! 00000000
                CONST2                DATA           0003:00001614  ! 00000000
                _DATA                 DATA           0003:00006abc  ! 00000000
strcspn.c       _TEXT                 CODE           0001:00065e10  ! 00000048
                CONST                 DATA           0003:00000c54  ! 00000000
                CONST2                DATA           0003:00001614  ! 00000000
                _DATA                 DATA           0003:00006abc  ! 00000000
strnset.c       _TEXT                 CODE           0001:00065e60  ! 00000017
                CONST                 DATA           0003:00000c54  ! 00000000
                CONST2                DATA           0003:00001614  ! 00000000
                _DATA                 DATA           0003:00006abc  ! 00000000
write.c         _TEXT                 CODE           0001:00065e80  ! 00000342
                CONST                 DATA           0003:00000c54  ! 00000000
                CONST2                DATA           0003:00001614  ! 00000000
                _DATA                 DATA           0003:00006abc  ! 00000000
tell.c          _TEXT                 CODE           0001:000661d0  ! 00000011
                CONST                 DATA           0003:00000c54  ! 00000000
                CONST2                DATA           0003:00001614  ! 00000000
                _DATA                 DATA           0003:00006abc  ! 00000000
loadfind.c      _TEXT                 CODE           0001:000661f0  ! 0000010f
                CONST                 DATA           0003:00000c54  ! 00000018
                CONST2                DATA           0003:00001614  ! 00000000
                _DATA                 DATA           0003:00006abc  ! 00000004
loadstr.c       _TEXT                 CODE           0001:00066300  ! 00000274
                CONST                 DATA           0003:00000c6c  ! 00000000
                CONST2                DATA           0003:00001614  ! 00000000
                _DATA                 DATA           0003:00006ac0  ! 00000000
                _BSS                  BSS            0003:0000bc58  ! 00000004
iob.c           _TEXT                 CODE           0001:00066580  ! 00000000
                CONST                 DATA           0003:00000c6c  ! 00000000
                CONST2                DATA           0003:00001614  ! 00000000
                _DATA                 DATA           0003:00006ac0  ! 0000020c
                _BSS                  BSS            0003:0000bc5c  ! 00000008
                XIB                   DATA           0003:0000755c  ! 00000000
                XI                    DATA           0003:00007562  ! 00000006
                XIE                   DATA           0003:0000759e  ! 00000000
                YIB                   DATA           0003:0000759e  ! 00000000
                YI                    DATA           0003:000075a4  ! 00000006
                YIE                   DATA           0003:000075c2  ! 00000000
loadres.c       _TEXT                 CODE           0001:00066580  ! 00000111
                CONST                 DATA           0003:00000c6c  ! 00000000
                CONST2                DATA           0003:00001614  ! 00000000
                _DATA                 DATA           0003:00006ccc  ! 00000000
/mnt/sda5/.user/root/src/openwatcom-1.9/bld/ui/c/uibox.c
                _TEXT                 CODE           0001:00066691  ! 00000292
                CONST                 DATA           0003:00000c6c  ! 00000000
                CONST2                DATA           0003:00001614  ! 00000000
                _DATA                 DATA           0003:00006ccc  ! 00000000
/mnt/sda5/.user/root/src/openwatcom-1.9/bld/ui/c/uibstr.c
                _TEXT                 CODE           0001:00066923  ! 00000082
                CONST                 DATA           0003:00000c6c  ! 00000000
                CONST2                DATA           0003:00001614  ! 00000000
                _DATA                 DATA           0003:00006ccc  ! 00000000
/mnt/sda5/.user/root/src/openwatcom-1.9/bld/ui/c/uipopup.c
                _TEXT                 CODE           0001:000669a5  ! 00000af3
                CONST                 DATA           0003:00000c6c  ! 00000000
                CONST2                DATA           0003:00001614  ! 00000000
                _DATA                 DATA           0003:00006ccc  ! 00000078
/mnt/sda5/.user/root/src/openwatcom-1.9/bld/ui/c/uivutil.c
                _TEXT                 CODE           0001:00067498  ! 0000003f
                CONST                 DATA           0003:00000c6c  ! 00000000
                CONST2                DATA           0003:00001614  ! 00000000
                _DATA                 DATA           0003:00006d44  ! 00000000
/mnt/sda5/.user/root/src/openwatcom-1.9/bld/gui/ui/c/uimenucr.c
                _TEXT                 CODE           0001:000674e0  ! 00000005
                CONST                 DATA           0003:00000c6c  ! 00000000
                CONST2                DATA           0003:00001614  ! 00000000
                _DATA                 DATA           0003:00006d44  ! 00000000
/mnt/sda5/.user/root/src/openwatcom-1.9/bld/ui/c/uiprot.c
                _TEXT                 CODE           0001:000674e5  ! 00000047
                CONST                 DATA           0003:00000c6c  ! 00000000
                CONST2                DATA           0003:00001614  ! 00000000
                _DATA                 DATA           0003:00006d44  ! 00000000
/mnt/sda5/.user/root/src/openwatcom-1.9/bld/ui/c/uiledit.c
                _TEXT                 CODE           0001:0006752c  ! 00000440
                CONST                 DATA           0003:00000c6c  ! 00000000
                CONST2                DATA           0003:00001614  ! 00000000
                _DATA                 DATA           0003:00006d44  ! 0000001c
/mnt/sda5/.user/root/src/openwatcom-1.9/bld/ui/c/uimisc.c
                _TEXT                 CODE           0001:0006796c  ! 00000186
                CONST                 DATA           0003:00000c6c  ! 00000000
                CONST2                DATA           0003:00001614  ! 00000000
                _DATA                 DATA           0003:00006d60  ! 00000000
/mnt/sda5/.user/root/src/openwatcom-1.9/bld/ui/c/uilstbox.c
                _TEXT                 CODE           0001:00067af2  ! 000008aa
                CONST                 DATA           0003:00000c6c  ! 00000001
                CONST2                DATA           0003:00001614  ! 00000000
                _DATA                 DATA           0003:00006d60  ! 0000004e
/mnt/sda5/.user/root/src/openwatcom-1.9/bld/ui/c/uihotspt.c
                _TEXT                 CODE           0001:0006839c  ! 0000055d
                CONST                 DATA           0003:00000c70  ! 00000000
                CONST2                DATA           0003:00001614  ! 00000000
                _DATA                 DATA           0003:00006db0  ! 00000004
strncat.c       _TEXT                 CODE           0001:00068900  ! 0000003f
                CONST                 DATA           0003:00000c70  ! 00000000
                CONST2                DATA           0003:00001614  ! 00000000
                _DATA                 DATA           0003:00006db4  ! 00000000
/mnt/sda5/.user/root/src/openwatcom-1.9/bld/gui/ui/c/uidchfld.c
                _TEXT                 CODE           0001:00068940  ! 00000005
                CONST                 DATA           0003:00000c70  ! 00000000
                CONST2                DATA           0003:00001614  ! 00000000
                _DATA                 DATA           0003:00006db4  ! 00000000
/mnt/sda5/.user/root/src/openwatcom-1.9/bld/ui/c/uidevent.c
                _TEXT                 CODE           0001:00068945  ! 00000005
                CONST                 DATA           0003:00000c70  ! 00000000
                CONST2                DATA           0003:00001614  ! 00000000
                _DATA                 DATA           0003:00006db4  ! 00000000
/mnt/sda5/.user/root/src/openwatcom-1.9/bld/help/c/dialcb.c
                _TEXT                 CODE           0001:00068950  ! 00000008
                CONST                 DATA           0003:00000c70  ! 00000000
                CONST2                DATA           0003:00001614  ! 00000000
                _DATA                 DATA           0003:00006db4  ! 00000000
strncmp.c       _TEXT                 CODE           0001:00068960  ! 00000029
                CONST                 DATA           0003:00000c70  ! 00000000
                CONST2                DATA           0003:00001614  ! 00000000
                _DATA                 DATA           0003:00006db4  ! 00000000
/mnt/sda5/.user/root/src/openwatcom-1.9/bld/gui/ui/c/guimapky.c
                _TEXT                 CODE           0001:00068990  ! 0000050b
                CONST                 DATA           0003:00000c70  ! 00000000
                CONST2                DATA           0003:00001614  ! 00000000
                _DATA                 DATA           0003:00006db4  ! 00000000
itoa.c          _TEXT                 CODE           0001:00068ea0  ! 00000074
                CONST                 DATA           0003:00000c70  ! 00000000
                CONST2                DATA           0003:00001614  ! 00000000
                _DATA                 DATA           0003:00006db4  ! 00000000
/mnt/sda5/.user/root/src/openwatcom-1.9/bld/gui/ui/c/guismove.c
                _TEXT                 CODE           0001:00068f20  ! 000004d6
                CONST                 DATA           0003:00000c70  ! 00000000
                CONST2                DATA           0003:00001614  ! 00000000
                _DATA                 DATA           0003:00006db4  ! 00000014
                _BSS                  BSS            0003:0000bc64  ! 00000001
/mnt/sda5/.user/root/src/openwatcom-1.9/bld/gui/ui/c/guikey.c
                _TEXT                 CODE           0001:00069400  ! 00000095
                CONST                 DATA           0003:00000c70  ! 00000000
                CONST2                DATA           0003:00001614  ! 00000000
                _DATA                 DATA           0003:00006dc8  ! 00000000
/mnt/sda5/.user/root/src/openwatcom-1.9/bld/gui/ui/c/guixhook.c
                _TEXT                 CODE           0001:000694a0  ! 00000023
                CONST                 DATA           0003:00000c70  ! 00000000
                CONST2                DATA           0003:00001614  ! 00000000
                _DATA                 DATA           0003:00006dc8  ! 00000004
dosdrive        _TEXT                 CODE           0001:000694c4  ! 00000028
                _DATA                 DATA           0003:00006dcc  ! 00000000
chdir.c         _TEXT                 CODE           0001:000694f0  ! 00000019
                CONST                 DATA           0003:00000c70  ! 00000000
                CONST2                DATA           0003:00001614  ! 00000000
                _DATA                 DATA           0003:00006dcc  ! 00000000
_istrcc_.asm    _TEXT                 CODE           0001:0006950c  ! 00000005
                _DATA                 DATA           0003:00006dcc  ! 00000000
strtok.c        _TEXT                 CODE           0001:00069520  ! 000000ae
                CONST                 DATA           0003:00000c70  ! 00000000
                CONST2                DATA           0003:00001614  ! 00000000
                _DATA                 DATA           0003:00006dcc  ! 00000004
gtcwd.c         _TEXT                 CODE           0001:000695d0  ! 0000009d
                CONST                 DATA           0003:00000c70  ! 00000000
                CONST2                DATA           0003:00001614  ! 00000000
                _DATA                 DATA           0003:00006dd0  ! 00000000
dir.c           _TEXT                 CODE           0001:00069670  ! 0000030e
                CONST                 DATA           0003:00000c70  ! 00000004
                CONST2                DATA           0003:00001614  ! 00000000
                _DATA                 DATA           0003:00006dd0  ! 00000000
stat.c          _TEXT                 CODE           0001:0006997e  ! 000002cd
                CONST                 DATA           0003:00000c74  ! 0000000b
                CONST2                DATA           0003:00001614  ! 00000000
                _DATA                 DATA           0003:00006dd0  ! 00000000
/mnt/sda5/.user/root/src/openwatcom-1.9/bld/gui/ui/c/helpmem.c
                _TEXT                 CODE           0001:00069c50  ! 00000025
                CONST                 DATA           0003:00000c80  ! 00000000
                CONST2                DATA           0003:00001614  ! 00000000
                _DATA                 DATA           0003:00006dd0  ! 00000000
splitpat.c      _TEXT                 CODE           0001:00069c80  ! 0000010b
                CONST                 DATA           0003:00000c80  ! 00000000
                CONST2                DATA           0003:00001614  ! 00000000
                _DATA                 DATA           0003:00006dd0  ! 00000000
/mnt/sda5/.user/root/src/openwatcom-1.9/bld/help/c/search.c
                _TEXT                 CODE           0001:00069d90  ! 00000690
                CONST                 DATA           0003:00000c80  ! 00000012
                CONST2                DATA           0003:00001614  ! 00000000
                _DATA                 DATA           0003:00006dd0  ! 00000004
                _BSS                  BSS            0003:0000bc68  ! 0000040c
/mnt/sda5/.user/root/src/openwatcom-1.9/bld/ui/c/uivattr.c
                _TEXT                 CODE           0001:0006a420  ! 0000008a
                CONST                 DATA           0003:00000c94  ! 00000000
                CONST2                DATA           0003:00001614  ! 00000000
                _DATA                 DATA           0003:00006dd4  ! 00000000
/mnt/sda5/.user/root/src/openwatcom-1.9/bld/ui/c/uitab.c
                _TEXT                 CODE           0001:0006a4aa  ! 00000359
                CONST                 DATA           0003:00000c94  ! 00000000
                CONST2                DATA           0003:00001614  ! 00000000
                _DATA                 DATA           0003:00006dd4  ! 00000000
/mnt/sda5/.user/root/src/openwatcom-1.9/bld/help/c/dlg.c
                _TEXT                 CODE           0001:0006a810  ! 00000380
                CONST                 DATA           0003:00000c94  ! 00000012
                CONST2                DATA           0003:00001614  ! 00000000
                _DATA                 DATA           0003:00006dd4  ! 00000098
                _BSS                  BSS            0003:0000c074  ! 00000014
/mnt/sda5/.user/root/src/openwatcom-1.9/bld/help/c/helpscan.c
                _TEXT                 CODE           0001:0006ab90  ! 00000367
                CONST                 DATA           0003:00000ca8  ! 00000000
                CONST2                DATA           0003:00001614  ! 00000000
                _DATA                 DATA           0003:00006e6c  ! 00000011
atoi.c          _TEXT                 CODE           0001:0006af00  ! 00000049
                CONST                 DATA           0003:00000ca8  ! 00000000
                CONST2                DATA           0003:00001614  ! 00000000
                _DATA                 DATA           0003:00006e80  ! 00000000
/mnt/sda5/.user/root/src/openwatcom-1.9/bld/help/c/vvscroll.c
                _TEXT                 CODE           0001:0006af50  ! 000000ec
                CONST                 DATA           0003:00000ca8  ! 00000000
                CONST2                DATA           0003:00001614  ! 00000000
                _DATA                 DATA           0003:00006e80  ! 00000000
/mnt/sda5/.user/root/src/openwatcom-1.9/bld/help/c/msgbox.c
                _TEXT                 CODE           0001:0006b040  ! 0000005b
                CONST                 DATA           0003:00000ca8  ! 00000003
                CONST2                DATA           0003:00001614  ! 00000000
                _DATA                 DATA           0003:00006e80  ! 00000054
                _BSS                  BSS            0003:0000c088  ! 00000004
/mnt/sda5/.user/root/src/openwatcom-1.9/bld/ui/c/uicheck.c
                _TEXT                 CODE           0001:0006b09b  ! 000000a7
                CONST                 DATA           0003:00000cac  ! 00000000
                CONST2                DATA           0003:00001614  ! 00000000
                _DATA                 DATA           0003:00006ed4  ! 00000000
/mnt/sda5/.user/root/src/openwatcom-1.9/bld/ui/c/uifar.c
                _TEXT                 CODE           0001:0006b142  ! 000000de
                CONST                 DATA           0003:00000cac  ! 00000000
                CONST2                DATA           0003:00001614  ! 00000000
                _DATA                 DATA           0003:00006ed4  ! 00000000
/mnt/sda5/.user/root/src/openwatcom-1.9/bld/ui/c/uimem.c
                _TEXT                 CODE           0001:0006b220  ! 0000000a
                CONST                 DATA           0003:00000cac  ! 00000000
                CONST2                DATA           0003:00001614  ! 00000000
                _DATA                 DATA           0003:00006ed4  ! 00000000
/mnt/sda5/.user/root/src/openwatcom-1.9/bld/gui/ui/c/guienum.c
                _TEXT                 CODE           0001:0006b230  ! 00000024
                CONST                 DATA           0003:00000cac  ! 00000000
                CONST2                DATA           0003:00001614  ! 00000000
                _DATA                 DATA           0003:00006ed4  ! 00000000
resmenu.c       _TEXT                 CODE           0001:0006b260  ! 00000594
                CONST                 DATA           0003:00000cac  ! 00000000
                CONST2                DATA           0003:00001614  ! 00000000
                _DATA                 DATA           0003:00006ed4  ! 00000000
cstart          _TEXT                 CODE           0001:0006b7f4  ! 000002a3
                _DATA                 DATA           0003:00006ed4  ! 00000004
                XIB                   DATA           0003:0000755c  ! 00000000
                XI                    DATA           0003:00007568  ! 00000000
                XIE                   DATA           0003:0000759e  ! 00000000
                YIB                   DATA           0003:0000759e  ! 00000000
                YI                    DATA           0003:000075aa  ! 00000000
                YIE                   DATA           0003:000075c2  ! 00000000
                BEGTEXT               CODE           0001:00000000  ! 00000010
                _NULL                 BEGDATA        0003:00000000  ! 00000004
                _AFTERNULL            BEGDATA        0003:00000004  ! 00000000
                CONST                 DATA           0003:00000cac  ! 00000000
                TIB                   DATA           0003:000075c2  ! 00000000
                TI                    DATA           0003:000075c2  ! 00000000
                TIE                   DATA           0003:000075c2  ! 00000000
                DATA                  DATA           0003:000075c2  ! 00000000
                _BSS                  BSS            0003:0000c08c  ! 00000000
                STACK                 STACK          0003:0000c4c0  ! 00010000
argcv.c         _TEXT                 CODE           0001:0006baa0  ! 00000000
                CONST                 DATA           0003:00000cac  ! 00000000
                CONST2                DATA           0003:00001614  ! 00000000
                _DATA                 DATA           0003:00006ed8  ! 00000000
                _BSS                  BSS            0003:0000c08c  ! 00000010
                XIB                   DATA           0003:0000755c  ! 00000000
                XI                    DATA           0003:00007568  ! 00000006
                XIE                   DATA           0003:0000759e  ! 00000000
                YIB                   DATA           0003:0000759e  ! 00000000
                YI                    DATA           0003:000075aa  ! 00000006
                YIE                   DATA           0003:000075c2  ! 00000000
/mnt/sda5/.user/root/src/openwatcom-1.9/bld/ui/c/uibfake.c
                _TEXT                 CODE           0001:0006baa0  ! 00000034
                CONST                 DATA           0003:00000cac  ! 00000000
                CONST2                DATA           0003:00001614  ! 00000000
                _DATA                 DATA           0003:00006ed8  ! 00000000
setbits.c       _TEXT                 CODE           0001:0006bae0  ! 00000037
                CONST                 DATA           0003:00000cac  ! 00000000
                CONST2                DATA           0003:00001614  ! 00000000
                _DATA                 DATA           0003:00006ed8  ! 00000000
bits.c          _TEXT                 CODE           0001:0006bb20  ! 00000000
                CONST                 DATA           0003:00000cac  ! 00000000
                CONST2                DATA           0003:00001614  ! 00000008
                _DATA                 DATA           0003:00006ed8  ! 00000000
__lseek.c       _TEXT                 CODE           0001:0006bb20  ! 00000042
                CONST                 DATA           0003:00000cac  ! 00000000
                CONST2                DATA           0003:0000161c  ! 00000000
                _DATA                 DATA           0003:00006ed8  ! 00000000
dosret.c        _TEXT                 CODE           0001:0006bb70  ! 000000ac
                CONST                 DATA           0003:00000cac  ! 00000000
                CONST2                DATA           0003:0000161c  ! 00000000
                _DATA                 DATA           0003:00006ed8  ! 00000014
seterrno.c      _TEXT                 CODE           0001:0006bc1c  ! 00000041
                CONST                 DATA           0003:00000cac  ! 00000000
                CONST2                DATA           0003:0000161c  ! 00000000
                _DATA                 DATA           0003:00006eec  ! 00000000
iomode.c        _TEXT                 CODE           0001:0006bc60  ! 0000003a
                CONST                 DATA           0003:00000cac  ! 00000000
                CONST2                DATA           0003:0000161c  ! 00000000
                _DATA                 DATA           0003:00006eec  ! 00000058
stk             _TEXT                 CODE           0001:0006bc9c  ! 00000048
                _DATA                 DATA           0003:00006f44  ! 00000012
                XIB                   DATA           0003:0000755c  ! 00000000
                XI                    DATA           0003:0000756e  ! 00000006
                XIE                   DATA           0003:0000759e  ! 00000000
                YIB                   DATA           0003:0000759e  ! 00000000
                YI                    DATA           0003:000075b0  ! 00000000
                YIE                   DATA           0003:000075c2  ! 00000000
wriidfn.c       _TEXT                 CODE           0001:0006bcf0  ! 00000008
                CONST                 DATA           0003:00000cac  ! 00000000
                CONST2                DATA           0003:0000161c  ! 00000000
                _DATA                 DATA           0003:00006f58  ! 00000000
wrfindrs.c      _TEXT                 CODE           0001:0006bd00  ! 000000f5
                CONST                 DATA           0003:00000cac  ! 00000000
                CONST2                DATA           0003:0000161c  ! 00000000
                _DATA                 DATA           0003:00006f58  ! 00000000
wrgetli.c       _TEXT                 CODE           0001:0006be00  ! 00000025
                CONST                 DATA           0003:00000cac  ! 00000000
                CONST2                DATA           0003:0000161c  ! 00000000
                _DATA                 DATA           0003:00006f58  ! 00000000
ropenfro.c      _TEXT                 CODE           0001:0006be30  ! 00000041
                CONST                 DATA           0003:00000cac  ! 00000000
                CONST2                DATA           0003:0000161c  ! 00000000
                _DATA                 DATA           0003:00006f58  ! 00000000
wrinitdi.c      _TEXT                 CODE           0001:0006be80  ! 0000003e
                CONST                 DATA           0003:00000cac  ! 00000000
                CONST2                DATA           0003:0000161c  ! 00000000
                _DATA                 DATA           0003:00006f58  ! 00000000
wrreaddi.c      _TEXT                 CODE           0001:0006bec0  ! 0000080a
                CONST                 DATA           0003:00000cac  ! 00000000
                CONST2                DATA           0003:0000161c  ! 00000000
                _DATA                 DATA           0003:00006f58  ! 00000000
wrfreedi.c      _TEXT                 CODE           0001:0006c6d0  ! 000000b4
                CONST                 DATA           0003:00000cac  ! 00000000
                CONST2                DATA           0003:0000161c  ! 00000000
                _DATA                 DATA           0003:00006f58  ! 00000000
rclosef.c       _TEXT                 CODE           0001:0006c790  ! 00000020
                CONST                 DATA           0003:00000cac  ! 00000000
                CONST2                DATA           0003:0000161c  ! 00000000
                _DATA                 DATA           0003:00006f58  ! 00000000
initfile.c      _TEXT                 CODE           0001:0006c7b0  ! 00000094
                CONST                 DATA           0003:00000cac  ! 0000002e
                CONST2                DATA           0003:0000161c  ! 00000000
                _DATA                 DATA           0003:00006f58  ! 00000000
ioexit.c        _TEXT                 CODE           0001:0006c850  ! 0000007c
                CONST                 DATA           0003:00000cdc  ! 00000000
                CONST2                DATA           0003:0000161c  ! 00000000
                _DATA                 DATA           0003:00006f58  ! 00000000
/mnt/sda5/.user/root/src/openwatcom-1.9/bld/ui/c/uibpix.c
                _TEXT                 CODE           0001:0006c8cc  ! 00000047
                CONST                 DATA           0003:00000cdc  ! 00000000
                CONST2                DATA           0003:0000161c  ! 00000000
                _DATA                 DATA           0003:00006f58  ! 00000000
/mnt/sda5/.user/root/src/openwatcom-1.9/bld/ui/c/uivline.c
                _TEXT                 CODE           0001:0006c913  ! 00000335
                CONST                 DATA           0003:00000cdc  ! 00000000
                CONST2                DATA           0003:0000161c  ! 00000000
                _DATA                 DATA           0003:00006f58  ! 0000002c
alphabet.c      _TEXT                 CODE           0001:0006cc50  ! 00000000
                CONST                 DATA           0003:00000cdc  ! 00000025
                CONST2                DATA           0003:0000161c  ! 00000000
                _DATA                 DATA           0003:00006f84  ! 00000000
/mnt/sda5/.user/root/src/openwatcom-1.9/bld/ui/c/uiband.c
                _TEXT                 CODE           0001:0006cc50  ! 000000b9
                CONST                 DATA           0003:00000d04  ! 00000000
                CONST2                DATA           0003:0000161c  ! 00000000
                _DATA                 DATA           0003:00006f84  ! 00000000
                _BSS                  BSS            0003:0000c09c  ! 00000035
doserror        _TEXT                 CODE           0001:0006cd0c  ! 00000013
                _DATA                 DATA           0003:00006f84  ! 00000000
mbsnextc.c      _TEXT                 CODE           0001:0006cd20  ! 00000037
                CONST                 DATA           0003:00000d04  ! 00000000
                CONST2                DATA           0003:0000161c  ! 00000000
                _DATA                 DATA           0003:00006f84  ! 00000000
mbsinc.c        _TEXT                 CODE           0001:0006cd60  ! 0000002d
                CONST                 DATA           0003:00000d04  ! 00000000
                CONST2                DATA           0003:0000161c  ! 00000000
                _DATA                 DATA           0003:00006f84  ! 00000000
finddos.c       _TEXT                 CODE           0001:0006cd90  ! 000000b3
                CONST                 DATA           0003:00000d04  ! 00000000
                CONST2                DATA           0003:0000161c  ! 00000000
                _DATA                 DATA           0003:00006f84  ! 00000000
strdup.c        _TEXT                 CODE           0001:0006ce50  ! 0000004c
                CONST                 DATA           0003:00000d04  ! 00000000
                CONST2                DATA           0003:0000161c  ! 00000000
                _DATA                 DATA           0003:00006f84  ! 00000000
mbschr.c        _TEXT                 CODE           0001:0006cea0  ! 0000005f
                CONST                 DATA           0003:00000d04  ! 00000000
                CONST2                DATA           0003:0000161c  ! 00000000
                _DATA                 DATA           0003:00006f84  ! 00000000
mbscmp.c        _TEXT                 CODE           0001:0006cf00  ! 0000006b
                CONST                 DATA           0003:00000d04  ! 00000000
                CONST2                DATA           0003:0000161c  ! 00000000
                _DATA                 DATA           0003:00006f84  ! 00000000
mbspbrk.c       _TEXT                 CODE           0001:0006cf70  ! 00000048
                CONST                 DATA           0003:00000d04  ! 00000000
                CONST2                DATA           0003:0000161c  ! 00000000
                _DATA                 DATA           0003:00006f84  ! 00000000
fullpath.c      _TEXT                 CODE           0001:0006cfc0  ! 00000391
                CONST                 DATA           0003:00000d04  ! 00000000
                CONST2                DATA           0003:0000161c  ! 00000000
                _DATA                 DATA           0003:00006f84  ! 00000000
fstat.c         _TEXT                 CODE           0001:0006d360  ! 00000112
                CONST                 DATA           0003:00000d04  ! 00000000
                CONST2                DATA           0003:0000161c  ! 00000000
                _DATA                 DATA           0003:00006f84  ! 00000000
errno.c         _TEXT                 CODE           0001:0006d480  ! 00000016
                CONST                 DATA           0003:00000d04  ! 00000000
                CONST2                DATA           0003:0000161c  ! 00000000
                _DATA                 DATA           0003:00006f84  ! 00000000
                _BSS                  BSS            0003:0000c0d4  ! 00000008
d2ttime.c       _TEXT                 CODE           0001:0006d4a0  ! 00000079
                CONST                 DATA           0003:00000d04  ! 00000000
                CONST2                DATA           0003:0000161c  ! 00000000
                _DATA                 DATA           0003:00006f84  ! 00000000
mbsnccnt.c      _TEXT                 CODE           0001:0006d520  ! 0000002c
                CONST                 DATA           0003:00000d04  ! 00000000
                CONST2                DATA           0003:0000161c  ! 00000000
                _DATA                 DATA           0003:00006f84  ! 00000000
mbsncpy.c       _TEXT                 CODE           0001:0006d550  ! 00000020
                CONST                 DATA           0003:00000d04  ! 00000000
                CONST2                DATA           0003:0000161c  ! 00000000
                _DATA                 DATA           0003:00006f84  ! 00000000
mbsnbcnt.c      _TEXT                 CODE           0001:0006d570  ! 00000061
                CONST                 DATA           0003:00000d04  ! 00000000
                CONST2                DATA           0003:0000161c  ! 00000000
                _DATA                 DATA           0003:00006f84  ! 00000000
/mnt/sda5/.user/root/src/openwatcom-1.9/bld/ui/c/uibattr.c
                _TEXT                 CODE           0001:0006d5d1  ! 000000b3
                CONST                 DATA           0003:00000d04  ! 00000000
                CONST2                DATA           0003:0000161c  ! 00000000
                _DATA                 DATA           0003:00006f84  ! 00000000
/mnt/sda5/.user/root/src/openwatcom-1.9/bld/ui/c/uibarf.c
                _TEXT                 CODE           0001:0006d684  ! 00000001
                CONST                 DATA           0003:00000d04  ! 00000000
                CONST2                DATA           0003:0000161c  ! 00000000
                _DATA                 DATA           0003:00006f84  ! 00000000
fmemmove.c      _TEXT                 CODE           0001:0006d690  ! 00000087
                CONST                 DATA           0003:00000d04  ! 00000000
                CONST2                DATA           0003:0000161c  ! 00000000
                _DATA                 DATA           0003:00006f84  ! 00000000
/mnt/sda5/.user/root/src/openwatcom-1.9/bld/ui/c/uifmem.c
                _TEXT                 CODE           0001:0006d717  ! 00000014
                CONST                 DATA           0003:00000d04  ! 00000000
                CONST2                DATA           0003:0000161c  ! 00000000
                _DATA                 DATA           0003:00006f84  ! 00000000
wrerror.c       _TEXT                 CODE           0001:0006d730  ! 00000001
                CONST                 DATA           0003:00000d04  ! 00000000
                CONST2                DATA           0003:0000161c  ! 00000000
                _DATA                 DATA           0003:00006f84  ! 00000000
write.c         _TEXT                 CODE           0001:0006d740  ! 0000064e
                CONST                 DATA           0003:00000d04  ! 00000001
                CONST2                DATA           0003:0000161c  ! 00000000
                _DATA                 DATA           0003:00006f84  ! 00000004
                _BSS                  BSS            0003:0000c0dc  ! 00000200
resseek.c       _TEXT                 CODE           0001:0006dd90  ! 00000080
                CONST                 DATA           0003:00000d08  ! 00000000
                CONST2                DATA           0003:0000161c  ! 00000000
                _DATA                 DATA           0003:00006f88  ! 00000000
rduint32.c      _TEXT                 CODE           0001:0006de10  ! 0000004b
                CONST                 DATA           0003:00000d08  ! 00000000
                CONST2                DATA           0003:0000161c  ! 00000000
                _DATA                 DATA           0003:00006f88  ! 00000000
rduint16.c      _TEXT                 CODE           0001:0006de60  ! 0000004b
                CONST                 DATA           0003:00000d08  ! 00000000
                CONST2                DATA           0003:0000161c  ! 00000000
                _DATA                 DATA           0003:00006f88  ! 00000000
rrdstr.c        _TEXT                 CODE           0001:0006deb0  ! 000000e3
                CONST                 DATA           0003:00000d08  ! 00000000
                CONST2                DATA           0003:0000161c  ! 00000000
                _DATA                 DATA           0003:00006f88  ! 00000000
cmain386.c      _TEXT                 CODE           0001:0006dfa0  ! 0000003e
                CONST                 DATA           0003:00000d08  ! 00000000
                CONST2                DATA           0003:0000161c  ! 00000000
                _DATA                 DATA           0003:00006f88  ! 00000000
initrtns.c      _TEXT                 CODE           0001:0006dfe0  ! 000000b5
                CONST                 DATA           0003:00000d08  ! 00000000
                CONST2                DATA           0003:0000161c  ! 00000000
                _DATA                 DATA           0003:00006f88  ! 00000000
dosseg          _TEXT                 CODE           0001:0006e098  ! 00000000
                _DATA                 DATA           0003:00006f88  ! 00000000
crwdata         _TEXT                 CODE           0001:0006e098  ! 00000001
                _DATA                 DATA           0003:00006f88  ! 00000041
uselfn.c        _TEXT                 CODE           0001:0006e0a0  ! 00000000
                CONST                 DATA           0003:00000d08  ! 00000000
                CONST2                DATA           0003:0000161c  ! 00000000
                _DATA                 DATA           0003:00006fcc  ! 00000001
initargv.c      _TEXT                 CODE           0001:0006e0a0  ! 000001fe
                CONST                 DATA           0003:00000d08  ! 00000000
                CONST2                DATA           0003:0000161c  ! 00000000
                _DATA                 DATA           0003:00006fd0  ! 00000000
                _BSS                  BSS            0003:0000c2dc  ! 00000004
xmsg.c          _TEXT                 CODE           0001:0006e2a0  ! 00000030
                CONST                 DATA           0003:00000d08  ! 00000000
                CONST2                DATA           0003:0000161c  ! 00000000
                _DATA                 DATA           0003:00006fd0  ! 00000000
wridcmp.c       _TEXT                 CODE           0001:0006e2d0  ! 00000031
                CONST                 DATA           0003:00000d08  ! 00000000
                CONST2                DATA           0003:0000161c  ! 00000000
                _DATA                 DATA           0003:00006fd0  ! 00000000
setmd.c         _TEXT                 CODE           0001:0006e310  ! 000000ba
                CONST                 DATA           0003:00000d08  ! 00000000
                CONST2                DATA           0003:0000161c  ! 00000000
                _DATA                 DATA           0003:00006fd0  ! 00000000
ralliae.c       _TEXT                 CODE           0001:0006e3d0  ! 00000029
                CONST                 DATA           0003:00000d08  ! 00000000
                CONST2                DATA           0003:0000161c  ! 00000000
                _DATA                 DATA           0003:00006fd0  ! 00000000
wrrfrr.c        _TEXT                 CODE           0001:0006e400  ! 000000f9
                CONST                 DATA           0003:00000d08  ! 00000000
                CONST2                DATA           0003:0000161c  ! 00000000
                _DATA                 DATA           0003:00006fd0  ! 00000000
wridexby.c      _TEXT                 CODE           0001:0006e500  ! 0000000e
                CONST                 DATA           0003:00000d08  ! 00000000
                CONST2                DATA           0003:0000161c  ! 00000000
                _DATA                 DATA           0003:00006fd0  ! 00000000
wrrewrid.c      _TEXT                 CODE           0001:0006e510  ! 0000005a
                CONST                 DATA           0003:00000d08  ! 00000000
                CONST2                DATA           0003:0000161c  ! 00000000
                _DATA                 DATA           0003:00006fd0  ! 00000000
wrrftr.c        _TEXT                 CODE           0001:0006e570  ! 000000be
                CONST                 DATA           0003:00000d08  ! 00000000
                CONST2                DATA           0003:0000161c  ! 00000000
                _DATA                 DATA           0003:00006fd0  ! 00000000
wrrhr.c         _TEXT                 CODE           0001:0006e630  ! 000000b6
                CONST                 DATA           0003:00000d08  ! 00000000
                CONST2                DATA           0003:0000161c  ! 00000000
                _DATA                 DATA           0003:00006fd0  ! 00000000
mrrdrh.c        _TEXT                 CODE           0001:0006e6f0  ! 0000020c
                CONST                 DATA           0003:00000d08  ! 00000000
                CONST2                DATA           0003:0000161c  ! 00000000
                _DATA                 DATA           0003:00006fd0  ! 00000000
wrfree.c        _TEXT                 CODE           0001:0006e900  ! 00000033
                CONST                 DATA           0003:00000d08  ! 00000000
                CONST2                DATA           0003:0000161c  ! 00000000
                _DATA                 DATA           0003:00006fd0  ! 00000000
wridfnoo.c      _TEXT                 CODE           0001:0006e940  ! 00000012
                CONST                 DATA           0003:00000d08  ! 00000000
                CONST2                DATA           0003:0000161c  ! 00000000
                _DATA                 DATA           0003:00006fd0  ! 00000000
wraddres.c      _TEXT                 CODE           0001:0006e960  ! 000002dc
                CONST                 DATA           0003:00000d08  ! 00000000
                CONST2                DATA           0003:0000161c  ! 00000000
                _DATA                 DATA           0003:00006fd0  ! 00000000
wriswrf.c       _TEXT                 CODE           0001:0006ec40  ! 000000a6
                CONST                 DATA           0003:00000d08  ! 00000000
                CONST2                DATA           0003:0000161c  ! 00000000
                _DATA                 DATA           0003:00006fd0  ! 00000000
nmalloc.c       _TEXT                 CODE           0001:0006ecf0  ! 000000ff
                CONST                 DATA           0003:00000d08  ! 00000000
                CONST2                DATA           0003:0000161c  ! 00000000
                _DATA                 DATA           0003:00006fd0  ! 0000000c
fclose.c        _TEXT                 CODE           0001:0006edf0  ! 000000cf
                CONST                 DATA           0003:00000d08  ! 00000000
                CONST2                DATA           0003:0000161c  ! 00000000
                _DATA                 DATA           0003:00006fdc  ! 00000000
                _BSS                  BSS            0003:0000c2e0  ! 00000004
freefp.c        _TEXT                 CODE           0001:0006eec0  ! 00000062
                CONST                 DATA           0003:00000d08  ! 00000000
                CONST2                DATA           0003:0000161c  ! 00000000
                _DATA                 DATA           0003:00006fdc  ! 00000000
/mnt/sda5/.user/root/src/openwatcom-1.9/bld/ui/c/uipad.c
                _TEXT                 CODE           0001:0006ef22  ! 0000001c
                CONST                 DATA           0003:00000d08  ! 00000000
                CONST2                DATA           0003:0000161c  ! 00000000
                _DATA                 DATA           0003:00006fdc  ! 00000000
/mnt/sda5/.user/root/src/openwatcom-1.9/bld/ui/c/uivedit.c
                _TEXT                 CODE           0001:0006ef3e  ! 00000428
                CONST                 DATA           0003:00000d08  ! 00000000
                CONST2                DATA           0003:0000161c  ! 00000000
                _DATA                 DATA           0003:00006fdc  ! 00000000
mbisdbcs.c      _TEXT                 CODE           0001:0006f370  ! 00000000
                CONST                 DATA           0003:00000d08  ! 00000000
                CONST2                DATA           0003:0000161c  ! 00000000
                _DATA                 DATA           0003:00006fdc  ! 00000000
                _BSS                  BSS            0003:0000c2e4  ! 00000004
mbislead.c      _TEXT                 CODE           0001:0006f370  ! 00000017
                CONST                 DATA           0003:00000d08  ! 00000000
                CONST2                DATA           0003:0000161c  ! 00000000
                _DATA                 DATA           0003:00006fdc  ! 00000000
                _BSS                  BSS            0003:0000c2e8  ! 00000101
                XIB                   DATA           0003:0000755c  ! 00000000
                XI                    DATA           0003:00007574  ! 00000006
                XIE                   DATA           0003:0000759e  ! 00000000
mbconv.c        _TEXT                 CODE           0001:0006f390  ! 0000001a
                CONST                 DATA           0003:00000d08  ! 00000000
                CONST2                DATA           0003:0000161c  ! 00000000
                _DATA                 DATA           0003:00006fdc  ! 00000000
mbclen.c        _TEXT                 CODE           0001:0006f3b0  ! 0000002b
                CONST                 DATA           0003:00000d08  ! 00000000
                CONST2                DATA           0003:0000161c  ! 00000000
                _DATA                 DATA           0003:00006fdc  ! 00000000
mbterm.c        _TEXT                 CODE           0001:0006f3e0  ! 0000003c
                CONST                 DATA           0003:00000d08  ! 00000000
                CONST2                DATA           0003:0000161c  ! 00000000
                _DATA                 DATA           0003:00006fdc  ! 00000000
mbccmp.c        _TEXT                 CODE           0001:0006f420  ! 0000003b
                CONST                 DATA           0003:00000d08  ! 00000000
                CONST2                DATA           0003:0000161c  ! 00000000
                _DATA                 DATA           0003:00006fdc  ! 00000000
filelen.c       _TEXT                 CODE           0001:0006f460  ! 00000043
                CONST                 DATA           0003:00000d08  ! 00000000
                CONST2                DATA           0003:0000161c  ! 00000000
                _DATA                 DATA           0003:00006fdc  ! 00000000
mktime.c        _TEXT                 CODE           0001:0006f4b0  ! 00000084
                CONST                 DATA           0003:00000d08  ! 00000000
                CONST2                DATA           0003:0000161c  ! 00000000
                _DATA                 DATA           0003:00006fdc  ! 00000000
mbsnbcpy.c      _TEXT                 CODE           0001:0006f540  ! 00000060
                CONST                 DATA           0003:00000d08  ! 00000000
                CONST2                DATA           0003:0000161c  ! 00000000
                _DATA                 DATA           0003:00006fdc  ! 00000000
varstr.c        _TEXT                 CODE           0001:0006f5a0  ! 00000121
                CONST                 DATA           0003:00000d08  ! 00000000
                CONST2                DATA           0003:0000161c  ! 00000000
                _DATA                 DATA           0003:00006fdc  ! 00000000
rduint8.c       _TEXT                 CODE           0001:0006f6d0  ! 0000004b
                CONST                 DATA           0003:00000d08  ! 00000000
                CONST2                DATA           0003:0000161c  ! 00000000
                _DATA                 DATA           0003:00006fdc  ! 00000000
cinit.c         _TEXT                 CODE           0001:0006f720  ! 0000005d
                CONST                 DATA           0003:00000d08  ! 00000000
                CONST2                DATA           0003:0000161c  ! 00000000
                _DATA                 DATA           0003:00006fdc  ! 00000000
___argc.c       _TEXT                 CODE           0001:0006f780  ! 00000000
                CONST                 DATA           0003:00000d08  ! 00000000
                CONST2                DATA           0003:0000161c  ! 00000000
                _DATA                 DATA           0003:00006fdc  ! 00000000
                _BSS                  BSS            0003:0000c3ec  ! 00000008
exit.c          _TEXT                 CODE           0001:0006f780  ! 00000043
                CONST                 DATA           0003:00000d08  ! 00000000
                CONST2                DATA           0003:0000161c  ! 00000000
                _DATA                 DATA           0003:00006fdc  ! 00000008
sgdef086        _TEXT                 CODE           0001:0006f7c4  ! 00000000
                _DATA                 DATA           0003:00006fe4  ! 00000000
                XIB                   DATA           0003:0000755c  ! 00000000
                XI                    DATA           0003:0000757a  ! 00000000
                XIE                   DATA           0003:0000759e  ! 00000000
                YIB                   DATA           0003:0000759e  ! 00000000
                YI                    DATA           0003:000075b0  ! 00000000
                YIE                   DATA           0003:000075c2  ! 00000000
histsplt.c      _TEXT                 CODE           0001:0006f7d0  ! 00000000
                CONST                 DATA           0003:00000d08  ! 00000000
                CONST2                DATA           0003:0000161c  ! 00000000
                _DATA                 DATA           0003:00006fe4  ! 00000000
                _BSS                  BSS            0003:0000c3f4  ! 00000004
enterdb.c       _TEXT                 CODE           0001:0006f7d0  ! 00000026
                CONST                 DATA           0003:00000d08  ! 00000000
                CONST2                DATA           0003:0000161c  ! 00000000
                _DATA                 DATA           0003:00006fe4  ! 00000001
wridnacm.c      _TEXT                 CODE           0001:0006f800  ! 0000008b
                CONST                 DATA           0003:00000d08  ! 00000000
                CONST2                DATA           0003:0000161c  ! 00000000
                _DATA                 DATA           0003:00006fe8  ! 00000000
stiomode.c      _TEXT                 CODE           0001:0006f890  ! 00000152
                CONST                 DATA           0003:00000d08  ! 00000000
                CONST2                DATA           0003:0000161c  ! 00000000
                _DATA                 DATA           0003:00006fe8  ! 00000000
                _BSS                  BSS            0003:0000c3f8  ! 00000004
                YIB                   DATA           0003:0000759e  ! 00000000
                YI                    DATA           0003:000075b0  ! 00000006
                YIE                   DATA           0003:000075c2  ! 00000000
rrnamoor.c      _TEXT                 CODE           0001:0006f9f0  ! 000001dc
                CONST                 DATA           0003:00000d08  ! 00000000
                CONST2                DATA           0003:0000161c  ! 00000000
                _DATA                 DATA           0003:00006fe8  ! 00000000
wridfrst.c      _TEXT                 CODE           0001:0006fbd0  ! 00000077
                CONST                 DATA           0003:00000d08  ! 00000000
                CONST2                DATA           0003:0000161c  ! 00000000
                _DATA                 DATA           0003:00006fe8  ! 00000000
wridfrnu.c      _TEXT                 CODE           0001:0006fc50  ! 00000055
                CONST                 DATA           0003:00000d08  ! 00000000
                CONST2                DATA           0003:0000161c  ! 00000000
                _DATA                 DATA           0003:00006fe8  ! 00000000
wrfirres.c      _TEXT                 CODE           0001:0006fcb0  ! 0000005a
                CONST                 DATA           0003:00000d08  ! 00000000
                CONST2                DATA           0003:0000161c  ! 00000000
                _DATA                 DATA           0003:00006fe8  ! 00000000
mem.c           _TEXT                 CODE           0001:0006fd10  ! 000001e6
                CONST                 DATA           0003:00000d08  ! 00000000
                CONST2                DATA           0003:0000161c  ! 00000000
                _DATA                 DATA           0003:00006fe8  ! 00000000
grownear.c      _TEXT                 CODE           0001:0006ff00  ! 0000063a
                CONST                 DATA           0003:00000d08  ! 00000000
                CONST2                DATA           0003:0000161c  ! 00000000
                _DATA                 DATA           0003:00006fe8  ! 00000000
_clse.c         _TEXT                 CODE           0001:00070540  ! 00000045
                CONST                 DATA           0003:00000d08  ! 00000000
                CONST2                DATA           0003:0000161c  ! 00000000
                _DATA                 DATA           0003:00006fe8  ! 00000000
flush.c         _TEXT                 CODE           0001:00070590  ! 000000eb
                CONST                 DATA           0003:00000d08  ! 00000000
                CONST2                DATA           0003:0000161c  ! 00000000
                _DATA                 DATA           0003:00006fe8  ! 00000000
mbinit.c        _TEXT                 CODE           0001:0007067b  ! 00000399
                CONST                 DATA           0003:00000d08  ! 00000000
                CONST2                DATA           0003:0000161c  ! 00000000
                _DATA                 DATA           0003:00006fe8  ! 00000004
locmktim.c      _TEXT                 CODE           0001:00070a20  ! 00000131
                CONST                 DATA           0003:00000d08  ! 00000000
                CONST2                DATA           0003:0000161c  ! 00000000
                _DATA                 DATA           0003:00006fec  ! 00000000
gmtime.c        _TEXT                 CODE           0001:00070b60  ! 0000016d
                CONST                 DATA           0003:00000d08  ! 00000000
                CONST2                DATA           0003:0000161c  ! 00000000
                _DATA                 DATA           0003:00006fec  ! 00000000
                _BSS                  BSS            0003:0000c3fc  ! 00000024
tzset.c         _TEXT                 CODE           0001:00070cd0  ! 00000775
                CONST                 DATA           0003:00000d08  ! 00000003
                CONST2                DATA           0003:0000161c  ! 00000000
                _DATA                 DATA           0003:00006fec  ! 000001ac
timeutil.c      _TEXT                 CODE           0001:00071450  ! 00000470
                CONST                 DATA           0003:00000d0c  ! 00000000
                CONST2                DATA           0003:0000161c  ! 00000000
                _DATA                 DATA           0003:00007198  ! 00000000
amblksiz.c      _TEXT                 CODE           0001:000718c0  ! 00000000
                CONST                 DATA           0003:00000d0c  ! 00000000
                CONST2                DATA           0003:0000161c  ! 00000000
                _DATA                 DATA           0003:00007198  ! 00000004
dpmihost.c      _TEXT                 CODE           0001:000718c0  ! 00000097
                CONST                 DATA           0003:00000d0c  ! 00000000
                CONST2                DATA           0003:0000161c  ! 00000000
                _DATA                 DATA           0003:0000719c  ! 00000004
iomodtty.c      _TEXT                 CODE           0001:00071960  ! 00000051
                CONST                 DATA           0003:00000d0c  ! 00000000
                CONST2                DATA           0003:0000161c  ! 00000000
                _DATA                 DATA           0003:000071a0  ! 00000000
nfree.c         _TEXT                 CODE           0001:000719c0  ! 000000f1
                CONST                 DATA           0003:00000d0c  ! 00000000
                CONST2                DATA           0003:0000161c  ! 00000000
                _DATA                 DATA           0003:000071a0  ! 00000000
                _BSS                  BSS            0003:0000c420  ! 00000004
heapen.c        _TEXT                 CODE           0001:00071ac0  ! 00000010
                CONST                 DATA           0003:00000d0c  ! 00000000
                CONST2                DATA           0003:0000161c  ! 00000000
                _DATA                 DATA           0003:000071a0  ! 00000004
minreal.c       _TEXT                 CODE           0001:00071ad0  ! 00000000
                CONST                 DATA           0003:00000d0c  ! 00000000
                CONST2                DATA           0003:0000161c  ! 00000000
                _DATA                 DATA           0003:000071a4  ! 00000000
                _BSS                  BSS            0003:0000c424  ! 00000004
sbrk386.c       _TEXT                 CODE           0001:00071ad0  ! 000001f4
                CONST                 DATA           0003:00000d0c  ! 00000000
                CONST2                DATA           0003:0000161c  ! 00000000
                _DATA                 DATA           0003:000071a4  ! 00000000
qwrit.c         _TEXT                 CODE           0001:00071cd0  ! 0000007a
                CONST                 DATA           0003:00000d0c  ! 00000000
                CONST2                DATA           0003:0000161c  ! 00000000
                _DATA                 DATA           0003:000071a4  ! 00000000
fsync.c         _TEXT                 CODE           0001:00071d50  ! 00000005
                CONST                 DATA           0003:00000d0c  ! 00000000
                CONST2                DATA           0003:0000161c  ! 00000000
                _DATA                 DATA           0003:000071a4  ! 00000000
intdx386.c      _TEXT                 CODE           0001:00071d60  ! 00000069
                CONST                 DATA           0003:00000d0c  ! 00000000
                CONST2                DATA           0003:0000161c  ! 00000000
                _DATA                 DATA           0003:000071a4  ! 00000000
leapyear.c      _TEXT                 CODE           0001:00071dd0  ! 00000032
                CONST                 DATA           0003:00000d0c  ! 00000034
                CONST2                DATA           0003:0000161c  ! 00000000
                _DATA                 DATA           0003:000071a4  ! 00000000
isatt.c         _TEXT                 CODE           0001:00071e10  ! 0000001e
                CONST                 DATA           0003:00000d40  ! 00000000
                CONST2                DATA           0003:0000161c  ! 00000000
                _DATA                 DATA           0003:000071a4  ! 00000000
filedos.c       _TEXT                 CODE           0001:00071e30  ! 00000020
                CONST                 DATA           0003:00000d40  ! 00000000
                CONST2                DATA           0003:0000161c  ! 00000000
                _DATA                 DATA           0003:000071a4  ! 00000000
memset.c        _TEXT                 CODE           0001:00071e50  ! 00000018
                CONST                 DATA           0003:00000d40  ! 00000000
                CONST2                DATA           0003:0000161c  ! 00000000
                _DATA                 DATA           0003:000071a4  ! 00000000
inirmsel.c      _TEXT                 CODE           0001:00071e70  ! 00000103
                CONST                 DATA           0003:00000d40  ! 00000050
                CONST2                DATA           0003:0000161c  ! 00000000
                _DATA                 DATA           0003:000071a4  ! 00000000
                _BSS                  BSS            0003:0000c428  ! 00000002
                XIB                   DATA           0003:0000755c  ! 00000000
                XI                    DATA           0003:0000757a  ! 00000006
                XIE                   DATA           0003:0000759e  ! 00000000
                YIB                   DATA           0003:0000759e  ! 00000000
                YI                    DATA           0003:000075b6  ! 00000006
                YIE                   DATA           0003:000075c2  ! 00000000
memmove.c       _TEXT                 CODE           0001:00071f80  ! 00000053
                CONST                 DATA           0003:00000d90  ! 00000000
                CONST2                DATA           0003:0000161c  ! 00000000
                _DATA                 DATA           0003:000071a4  ! 00000000
istable.c       _TEXT                 CODE           0001:00071fe0  ! 00000000
                CONST                 DATA           0003:00000d90  ! 00000000
                CONST2                DATA           0003:0000161c  ! 00000101
                _DATA                 DATA           0003:000071a4  ! 00000000
sprintf.c       _TEXT                 CODE           0001:00071fe0  ! 00000021
                CONST                 DATA           0003:00000d90  ! 00000000
                CONST2                DATA           0003:00001720  ! 00000000
                _DATA                 DATA           0003:000071a4  ! 00000000
strupr.c        _TEXT                 CODE           0001:00072010  ! 00000020
                CONST                 DATA           0003:00000d90  ! 00000000
                CONST2                DATA           0003:00001720  ! 00000000
                _DATA                 DATA           0003:000071a4  ! 00000000
strstr.c        _TEXT                 CODE           0001:00072030  ! 000000c5
                CONST                 DATA           0003:00000d90  ! 00000000
                CONST2                DATA           0003:00001720  ! 00000000
                _DATA                 DATA           0003:000071a4  ! 00000000
setjmp          _TEXT                 CODE           0001:000720f8  ! 00000093
                _DATA                 DATA           0003:000071a4  ! 00000000
_strcmp         _TEXT                 CODE           0001:00072190  ! 0000013e
                _DATA                 DATA           0003:000071a4  ! 00000000
stricmp.c       _TEXT                 CODE           0001:000722d0  ! 0000003b
                CONST                 DATA           0003:00000d90  ! 00000000
                CONST2                DATA           0003:00001720  ! 00000000
                _DATA                 DATA           0003:000071a4  ! 00000000
tolower.c       _TEXT                 CODE           0001:00072310  ! 0000000e
                CONST                 DATA           0003:00000d90  ! 00000000
                CONST2                DATA           0003:00001720  ! 00000000
                _DATA                 DATA           0003:000071a4  ! 00000000
puts.c          _TEXT                 CODE           0001:00072320  ! 00000030
                CONST                 DATA           0003:00000d90  ! 00000000
                CONST2                DATA           0003:00001720  ! 00000000
                _DATA                 DATA           0003:000071a4  ! 00000000
strtol.c        _TEXT                 CODE           0001:00072350  ! 0000023d
                CONST                 DATA           0003:00000d90  ! 00000000
                CONST2                DATA           0003:00001720  ! 00000000
                _DATA                 DATA           0003:000071a4  ! 0000008c
fltused.c       _TEXT                 CODE           0001:00072590  ! 00000000
                CONST                 DATA           0003:00000d90  ! 00000000
                CONST2                DATA           0003:00001720  ! 00000000
                _DATA                 DATA           0003:00007230  ! 00000004
                XIB                   DATA           0003:0000755c  ! 00000000
                XI                    DATA           0003:00007580  ! 00000006
                XIE                   DATA           0003:0000759e  ! 00000000
_8087           _TEXT                 CODE           0001:00072590  ! 00000000
                _DATA                 DATA           0003:00007234  ! 00000002
                XIB                   DATA           0003:0000755c  ! 00000000
                XI                    DATA           0003:00007586  ! 00000006
                XIE                   DATA           0003:0000759e  ! 00000000
                YIB                   DATA           0003:0000759e  ! 00000000
                YI                    DATA           0003:000075bc  ! 00000000
                YIE                   DATA           0003:000075c2  ! 00000000
strlwr.c        _TEXT                 CODE           0001:00072590  ! 00000020
                CONST                 DATA           0003:00000d90  ! 00000000
                CONST2                DATA           0003:00001720  ! 00000000
                _DATA                 DATA           0003:00007238  ! 00000000
toupper.c       _TEXT                 CODE           0001:000725b0  ! 0000000e
                CONST                 DATA           0003:00000d90  ! 00000000
                CONST2                DATA           0003:00001720  ! 00000000
                _DATA                 DATA           0003:00007238  ! 00000000
memicmp.c       _TEXT                 CODE           0001:000725c0  ! 00000040
                CONST                 DATA           0003:00000d90  ! 00000000
                CONST2                DATA           0003:00001720  ! 00000000
                _DATA                 DATA           0003:00007238  ! 00000000
strnicmp.c      _TEXT                 CODE           0001:00072600  ! 00000044
                CONST                 DATA           0003:00000d90  ! 00000000
                CONST2                DATA           0003:00001720  ! 00000000
                _DATA                 DATA           0003:00007238  ! 00000000
memcmp.c        _TEXT                 CODE           0001:00072650  ! 0000001e
                CONST                 DATA           0003:00000d90  ! 00000000
                CONST2                DATA           0003:00001720  ! 00000000
                _DATA                 DATA           0003:00007238  ! 00000000
nrealloc.c      _TEXT                 CODE           0001:00072670  ! 0000009d
                CONST                 DATA           0003:00000d90  ! 00000000
                CONST2                DATA           0003:00001720  ! 00000000
                _DATA                 DATA           0003:00007238  ! 00000000
getenv.c        _TEXT                 CODE           0001:00072710  ! 00000089
                CONST                 DATA           0003:00000d90  ! 00000000
                CONST2                DATA           0003:00001720  ! 00000000
                _DATA                 DATA           0003:00007238  ! 00000000
nheapwal.c      _TEXT                 CODE           0001:000727a0  ! 000000ce
                CONST                 DATA           0003:00000d90  ! 00000000
                CONST2                DATA           0003:00001720  ! 00000000
                _DATA                 DATA           0003:00007238  ! 00000000
qsort.c         _TEXT                 CODE           0001:00072870  ! 00000712
                CONST                 DATA           0003:00000d90  ! 00000000
                CONST2                DATA           0003:00001720  ! 00000000
                _DATA                 DATA           0003:00007238  ! 00000000
open.c          _TEXT                 CODE           0001:00072f90  ! 00000287
                CONST                 DATA           0003:00000d90  ! 00000000
                CONST2                DATA           0003:00001720  ! 00000000
                _DATA                 DATA           0003:00007238  ! 00000000
close.c         _TEXT                 CODE           0001:00073220  ! 00000005
                CONST                 DATA           0003:00000d90  ! 00000000
                CONST2                DATA           0003:00001720  ! 00000000
                _DATA                 DATA           0003:00007238  ! 00000000
read.c          _TEXT                 CODE           0001:00073230  ! 00000125
                CONST                 DATA           0003:00000d90  ! 00000000
                CONST2                DATA           0003:00001720  ! 00000000
                _DATA                 DATA           0003:00007238  ! 00000000
lseek.c         _TEXT                 CODE           0001:00073360  ! 0000002b
                CONST                 DATA           0003:00000d90  ! 00000000
                CONST2                DATA           0003:00001720  ! 00000000
                _DATA                 DATA           0003:00007238  ! 00000000
intr.c          _TEXT                 CODE           0001:00073390  ! 00000005
                CONST                 DATA           0003:00000d90  ! 00000000
                CONST2                DATA           0003:00001720  ! 00000000
                _DATA                 DATA           0003:00007238  ! 00000000
int386.c        _TEXT                 CODE           0001:000733a0  ! 0000001d
                CONST                 DATA           0003:00000d90  ! 00000000
                CONST2                DATA           0003:00001720  ! 00000000
                _DATA                 DATA           0003:00007238  ! 00000000
dosinite.asm    _TEXT                 CODE           0001:000733be  ! 000001df
                _DATA                 DATA           0003:00007238  ! 00000049
hugeval.c       _TEXT                 CODE           0001:000735a0  ! 00000000
                CONST                 DATA           0003:00000d90  ! 00000000
                CONST2                DATA           0003:00001720  ! 00000008
                _DATA                 DATA           0003:00007284  ! 00000000
strncpy.c       _TEXT                 CODE           0001:000735a0  ! 00000036
                CONST                 DATA           0003:00000d90  ! 00000000
                CONST2                DATA           0003:00001728  ! 00000000
                _DATA                 DATA           0003:00007284  ! 00000000
split2.c        _TEXT                 CODE           0001:000735e0  ! 00000197
                CONST                 DATA           0003:00000d90  ! 00000000
                CONST2                DATA           0003:00001728  ! 00000000
                _DATA                 DATA           0003:00007284  ! 00000000
makepath.c      _TEXT                 CODE           0001:00073780  ! 000001d0
                CONST                 DATA           0003:00000d90  ! 00000000
                CONST2                DATA           0003:00001728  ! 00000000
                _DATA                 DATA           0003:00007284  ! 00000000
calloc.c        _TEXT                 CODE           0001:00073950  ! 0000001a
                CONST                 DATA           0003:00000d90  ! 00000000
                CONST2                DATA           0003:00001728  ! 00000000
                _DATA                 DATA           0003:00007284  ! 00000000
stack386.c      _TEXT                 CODE           0001:00073970  ! 00000009
                CONST                 DATA           0003:00000d90  ! 00000000
                CONST2                DATA           0003:00001728  ! 00000000
                _DATA                 DATA           0003:00007284  ! 00000000
cmdname.c       _TEXT                 CODE           0001:00073980  ! 0000002b
                CONST                 DATA           0003:00000d90  ! 00000000
                CONST2                DATA           0003:00001728  ! 00000000
                _DATA                 DATA           0003:00007284  ! 00000000
__stos          _TEXT                 CODE           0001:000739b0  ! 000000a3
                _DATA                 DATA           0003:00007284  ! 00000000
vsprintf.c      _TEXT                 CODE           0001:00073a60  ! 00000035
                CONST                 DATA           0003:00000d90  ! 00000000
                CONST2                DATA           0003:00001728  ! 00000000
                _DATA                 DATA           0003:00007284  ! 00000000
ljmphdl.c       _TEXT                 CODE           0001:00073aa0  ! 00000001
                CONST                 DATA           0003:00000d90  ! 00000000
                CONST2                DATA           0003:00001728  ! 00000000
                _DATA                 DATA           0003:00007284  ! 00000004
fputs.c         _TEXT                 CODE           0001:00073ab0  ! 00000081
                CONST                 DATA           0003:00000d90  ! 00000000
                CONST2                DATA           0003:00001728  ! 00000000
                _DATA                 DATA           0003:00007288  ! 00000000
fputc.c         _TEXT                 CODE           0001:00073b40  ! 000000be
                CONST                 DATA           0003:00000d90  ! 00000000
                CONST2                DATA           0003:00001728  ! 00000000
                _DATA                 DATA           0003:00007288  ! 00000000
setefg.c        _TEXT                 CODE           0001:00073c00  ! 00000015
                CONST                 DATA           0003:00000d90  ! 00000000
                CONST2                DATA           0003:00001728  ! 00000000
                _DATA                 DATA           0003:00007288  ! 00000000
chk8087.c       _TEXT                 CODE           0001:00073c20  ! 00000106
                CONST                 DATA           0003:00000d90  ! 00000019
                CONST2                DATA           0003:00001728  ! 00000000
                _DATA                 DATA           0003:00007288  ! 00000000
nmsize.c        _TEXT                 CODE           0001:00073d30  ! 0000000b
                CONST                 DATA           0003:00000dac  ! 00000000
                CONST2                DATA           0003:00001728  ! 00000000
                _DATA                 DATA           0003:00007288  ! 00000000
nexpand.c       _TEXT                 CODE           0001:00073d40  ! 00000240
                CONST                 DATA           0003:00000dac  ! 00000000
                CONST2                DATA           0003:00001728  ! 00000000
                _DATA                 DATA           0003:00007288  ! 00000000
environ.c       _TEXT                 CODE           0001:00073f80  ! 00000000
                CONST                 DATA           0003:00000dac  ! 00000000
                CONST2                DATA           0003:00001728  ! 00000000
                _DATA                 DATA           0003:00007288  ! 00000000
                _BSS                  BSS            0003:0000c42c  ! 0000000c
                XIB                   DATA           0003:0000755c  ! 00000000
                XI                    DATA           0003:0000758c  ! 00000006
                XIE                   DATA           0003:0000759e  ! 00000000
                YIB                   DATA           0003:0000759e  ! 00000000
                YI                    DATA           0003:000075bc  ! 00000006
                YIE                   DATA           0003:000075c2  ! 00000000
mbcupper.c      _TEXT                 CODE           0001:00073f80  ! 0000001a
                CONST                 DATA           0003:00000dac  ! 00000000
                CONST2                DATA           0003:00001728  ! 00000000
                _DATA                 DATA           0003:00007288  ! 00000000
opendos.c       _TEXT                 CODE           0001:00073fa0  ! 00000018
                CONST                 DATA           0003:00000dac  ! 00000000
                CONST2                DATA           0003:00001728  ! 00000000
                _DATA                 DATA           0003:00007288  ! 00000000
umaskval.c      _TEXT                 CODE           0001:00073fc0  ! 00000000
                CONST                 DATA           0003:00000dac  ! 00000000
                CONST2                DATA           0003:00001728  ! 00000000
                _DATA                 DATA           0003:00007288  ! 00000004
creatdos.c      _TEXT                 CODE           0001:00073fc0  ! 00000037
                CONST                 DATA           0003:00000dac  ! 00000000
                CONST2                DATA           0003:00001728  ! 00000000
                _DATA                 DATA           0003:0000728c  ! 00000000
int386xa        _TEXT                 CODE           0001:00073ff8  ! 000003d9
                _DATA                 DATA           0003:0000728c  ! 00000000
segread.c       _TEXT                 CODE           0001:000743e0  ! 00000028
                CONST                 DATA           0003:00000dac  ! 00000000
                CONST2                DATA           0003:00001728  ! 00000000
                _DATA                 DATA           0003:0000728c  ! 00000000
intx386.c       _TEXT                 CODE           0001:00074410  ! 00000019
                CONST                 DATA           0003:00000dac  ! 00000000
                CONST2                DATA           0003:00001728  ! 00000000
                _DATA                 DATA           0003:0000728c  ! 00000000
emu387          _TEXT                 CODE           0001:0007442c  ! 0000356e
                _DATA                 DATA           0003:0000728c  ! 0000007e
hook387.c       _TEXT                 CODE           0001:000779a0  ! 000000e8
                CONST                 DATA           0003:00000dac  ! 00000010
                CONST2                DATA           0003:00001728  ! 00000000
                _DATA                 DATA           0003:0000730c  ! 00000002
                _BSS                  BSS            0003:0000c438  ! 00000080
8087cw.c        _TEXT                 CODE           0001:00077a90  ! 00000000
                CONST                 DATA           0003:00000dbc  ! 00000000
                CONST2                DATA           0003:00001728  ! 00000000
                _DATA                 DATA           0003:00007310  ! 00000002
mbsdec.c        _TEXT                 CODE           0001:00077a90  ! 0000007d
                CONST                 DATA           0003:00000dbc  ! 00000000
                CONST2                DATA           0003:00001728  ! 00000000
                _DATA                 DATA           0003:00007314  ! 00000000
prtf.c          _TEXT                 CODE           0001:00077b10  ! 00000e6d
                CONST                 DATA           0003:00000dbc  ! 00000000
                CONST2                DATA           0003:00001728  ! 00000000
                _DATA                 DATA           0003:00007314  ! 00000000
ioalloc.c       _TEXT                 CODE           0001:00078980  ! 00000096
                CONST                 DATA           0003:00000dbc  ! 00000000
                CONST2                DATA           0003:00001728  ! 00000000
                _DATA                 DATA           0003:00007314  ! 00000000
noefgfmt.c      _TEXT                 CODE           0001:00078a20  ! 00000012
                CONST                 DATA           0003:00000dbc  ! 00000022
                CONST2                DATA           0003:00001728  ! 00000000
                _DATA                 DATA           0003:00007314  ! 00000008
efgfmt.c        _TEXT                 CODE           0001:00078a32  ! 00000170
                CONST                 DATA           0003:00000de0  ! 00000000
                CONST2                DATA           0003:00001728  ! 00000000
                _DATA                 DATA           0003:0000731c  ! 00000000
cnvs2d.c        _TEXT                 CODE           0001:00078ba2  ! 0000000e
                CONST                 DATA           0003:00000de0  ! 00000000
                CONST2                DATA           0003:00001728  ! 00000000
                _DATA                 DATA           0003:0000731c  ! 00000000
save8087.c      _TEXT                 CODE           0001:00078bb0  ! 00000001
                CONST                 DATA           0003:00000de0  ! 00000000
                CONST2                DATA           0003:00001728  ! 00000000
                _DATA                 DATA           0003:0000731c  ! 00000008
init8087        _TEXT                 CODE           0001:00078bb4  ! 00000033
                _DATA                 DATA           0003:00007324  ! 00000000
grabfp87.c      _TEXT                 CODE           0001:00078bf0  ! 00000068
                CONST                 DATA           0003:00000de0  ! 00000000
                CONST2                DATA           0003:00001728  ! 00000000
                _DATA                 DATA           0003:00007324  ! 00000000
setenvp.c       _TEXT                 CODE           0001:00078c60  ! 0000012d
                CONST                 DATA           0003:00000de0  ! 00000000
                CONST2                DATA           0003:00001728  ! 00000000
                _DATA                 DATA           0003:00007324  ! 00000000
                _BSS                  BSS            0003:0000c4b8  ! 00000004
mbdtoupp.c      _TEXT                 CODE           0001:00078d90  ! 00000012
                CONST                 DATA           0003:00000de0  ! 00000000
                CONST2                DATA           0003:00001728  ! 00000000
                _DATA                 DATA           0003:00007324  ! 00000000
fpexcept.c      _TEXT                 CODE           0001:00078db0  ! 00000007
                CONST                 DATA           0003:00000de0  ! 00000000
                CONST2                DATA           0003:00001728  ! 00000000
                _DATA                 DATA           0003:00007324  ! 00000000
wctomb.c        _TEXT                 CODE           0001:00078dc0  ! 0000002e
                CONST                 DATA           0003:00000de0  ! 00000000
                CONST2                DATA           0003:00001728  ! 00000000
                _DATA                 DATA           0003:00007324  ! 00000000
lltoa.c         _TEXT                 CODE           0001:00078df0  ! 00000099
                CONST                 DATA           0003:00000de0  ! 00000000
                CONST2                DATA           0003:00001728  ! 00000000
                _DATA                 DATA           0003:00007324  ! 00000000
ltoa.c          _TEXT                 CODE           0001:00078e90  ! 00000074
                CONST                 DATA           0003:00000de0  ! 00000000
                CONST2                DATA           0003:00001728  ! 00000000
                _DATA                 DATA           0003:00007324  ! 00000000
chktty.c        _TEXT                 CODE           0001:00078f10  ! 00000032
                CONST                 DATA           0003:00000de0  ! 00000000
                CONST2                DATA           0003:00001728  ! 00000000
                _DATA                 DATA           0003:00007324  ! 00000000
rtcntrl.c       _TEXT                 CODE           0001:00078f50  ! 00000030
                CONST                 DATA           0003:00000de0  ! 00000000
                CONST2                DATA           0003:00001728  ! 00000000
                _DATA                 DATA           0003:00007324  ! 00000001
fpe387          _TEXT                 CODE           0001:00078f80  ! 00000074
                _DATA                 DATA           0003:00007328  ! 0000000a
fpeinth         _TEXT                 CODE           0001:00078ff4  ! 00000247
                _DATA                 DATA           0003:00007334  ! 0000021c
clearenv.c      _TEXT                 CODE           0001:00079240  ! 00000090
                CONST                 DATA           0003:00000de0  ! 00000000
                CONST2                DATA           0003:00001728  ! 00000000
                _DATA                 DATA           0003:00007550  ! 00000000
fpephar         _TEXT                 CODE           0001:000792d0  ! 000000f3
                _DATA                 DATA           0003:00007550  ! 00000000
fpedos4g        _TEXT                 CODE           0001:000793c4  ! 00000047
                _DATA                 DATA           0003:00007550  ! 00000000
fpeint.c        _TEXT                 CODE           0001:00079410  ! 0000004f
                CONST                 DATA           0003:00000de0  ! 00000000
                CONST2                DATA           0003:00001728  ! 00000000
                _DATA                 DATA           0003:00007550  ! 00000005
                XIB                   DATA           0003:0000755c  ! 00000000
                XI                    DATA           0003:00007592  ! 00000006
                XIE                   DATA           0003:0000759e  ! 00000000
nonibm.c        _TEXT                 CODE           0001:00079460  ! 0000005b
                CONST                 DATA           0003:00000de0  ! 00000000
                CONST2                DATA           0003:00001728  ! 00000000
                _DATA                 DATA           0003:00007558  ! 00000004
                XIB                   DATA           0003:0000755c  ! 00000000
                XI                    DATA           0003:00007598  ! 00000006
                XIE                   DATA           0003:0000759e  ! 00000000


                        +----------------------+
                        |   Imported Symbols   |
                        +----------------------+

Symbol                              Module
======                              ======



                        +--------------------+
                        |   Libraries Used   |
                        +--------------------+

/mnt/sda5/.user/root/src/openwatcom-1.9/bld/aui/dos386/aui.lib
/mnt/sda5/.user/root/src/openwatcom-1.9/bld/gui/ui/dos386/gui.lib
/mnt/sda5/.user/root/src/openwatcom-1.9/bld/ui/dos/dos386/ui.lib
/mnt/sda5/.user/root/src/openwatcom-1.9/bld/sdk/rc/wres/small386/ms_r/wres.lib
/mnt/sda5/.user/root/src/openwatcom-1.9/rel2/lib386/dos/math387r.lib
/mnt/sda5/.user/root/src/openwatcom-1.9/rel2/lib386/dos/emu387.lib
/mnt/sda5/.user/root/src/openwatcom-1.9/rel2/lib386/dos/clib3r.lib


                        +-----------------------+
                        |   Linker Statistics   |
                        +-----------------------+

Stack size:  3000 (12288.)
Memory size:  0008abd1 (568273.)
Entry point address: 0001:0006b7f4
Link time: 00:00.00
