Open Watcom Linker Version 1.9
Portions Copyright (c) 1985-2002 Sybase, Inc. All Rights Reserved.
Created on:       12/12/16 02:40:11
Executable Image: wdio.dll
creating an OS/2 16-bit dynamic link library


                        +------------+
                        |   Groups   |
                        +------------+

Group                           Address              Size
=====                           =======              ====

DGROUP                          0003:0000            00000340



                        +--------------+
                        |   Segments   |
                        +--------------+

Segment                Class          Group          Address         Size
=======                =====          =====          =======         ====

port                   IOPL_CODE      AUTO           0001:0000       0000001f
_TEXT                  CODE           AUTO           0002:0000       0000129a
_NULL                  BEGDATA        DGROUP         0003:0000       00000020
_AFTERNULL             BEGDATA        DGROUP         0003:0020       00000002
CONST                  DATA           DGROUP         0003:0022       00000036
CONST2                 DATA           DGROUP         0003:0058       00000000
_DATA                  DATA           DGROUP         0003:0058       0000011e
XIB                    DATA           DGROUP         0003:0176       00000000
XI                     DATA           DGROUP         0003:0176       00000000
XIE                    DATA           DGROUP         0003:0176       00000000
YIB                    DATA           DGROUP         0003:0176       00000000
YI                     DATA           DGROUP         0003:0176       00000006
YIE                    DATA           DGROUP         0003:017c       00000000
STRINGS                DATA           DGROUP         0003:017c       00000000
_BSS                   BSS            DGROUP         0003:017c       000001c2
STACK                  STACK          DGROUP         0003:0340       00000000


                        +----------------+
                        |   Memory Map   |
                        +----------------+

* = unreferenced symbol
+ = symbol only referenced locally

Address        Symbol
=======        ======

Module: wdio.obj(/mnt/sda5/.user/root/src/openwatcom-1.9/bld/trap/par/os2v2.pio/wdio.c)
0001:0000      OUTPORT
0001:0012      INPORT
Module: /mnt/sda5/.user/root/src/openwatcom-1.9/rel2/lib286/os2/clibdll.lib(cstart)
0003:0000*     __nullarea
0002:0000*     _cstart_
0002:0000      __DLLstart_
Module: /mnt/sda5/.user/root/src/openwatcom-1.9/rel2/lib286/os2/clibdll.lib(cmodel)
0002:007c      _big_code_
0002:007c*     CodeModelMismatch
Module: /mnt/sda5/.user/root/src/openwatcom-1.9/rel2/lib286/os2/clibdll.lib(maino16.c)
0003:017c*     ___iosemcount
0003:01a4*     ___iothreadid
0003:01cc*     ___iosemaphore
0003:021c+     __LpCmdLine
0003:0220+     __LpPgmName
0003:0224      __threadid
0003:0228+     _JmpBuff
0003:0242*     __cbyte2
0003:0244+     _RetCode
0003:0246      __STACKTOP
0003:0248*     __cbyte
0003:024a      __curbrk
0003:024c+     __dynend
0003:024e      __HShift
0002:007c+     __null_FPE_handler_
0002:007d      __OS2Main
0002:0166      __exit_
0003:0058*     ___FPE_handler
0003:0250+     __osmajor
0003:0251+     __osminor
0003:0252      __osmode
Module: /mnt/sda5/.user/root/src/openwatcom-1.9/rel2/lib286/os2/clibdll.lib(dosseg)
0002:018a      __DOSseg__
Module: /mnt/sda5/.user/root/src/openwatcom-1.9/rel2/lib286/os2/clibdll.lib(trdalloc.c)
0002:018b      __InitThreadProcessing_
0002:01b0      __SetupThreadProcessing_
0002:01ec      __FiniThreadProcessing_
0003:0254      ___ThreadData
Module: /mnt/sda5/.user/root/src/openwatcom-1.9/rel2/lib286/os2/clibdll.lib(xmsgo16.c)
0002:0252+     __exit_with_msg_
0002:029a      __fatal_runtime_error_
Module: /mnt/sda5/.user/root/src/openwatcom-1.9/rel2/lib286/os2/clibdll.lib(maxthrds.c)
0003:005c      ___MaxThreads
Module: /mnt/sda5/.user/root/src/openwatcom-1.9/rel2/lib286/os2/clibdll.lib(mthread.c)
0002:02b7+     __CloseSemaphore_
0002:02eb+     __AccessSemaphore_
0002:0333+     __ReleaseSemaphore_
0002:0387*     __AccessIOB_
0002:0394*     __ReleaseIOB_
0002:03a1*     __AccessFileH_
0002:03b0*     __ReleaseFileH_
0002:03bf      __AccessNHeap_
0002:03c8      __ReleaseNHeap_
0002:03d1      __AccessFHeap_
0002:03da      __ReleaseFHeap_
0002:03e3      __MultipleThread_
Module: /mnt/sda5/.user/root/src/openwatcom-1.9/rel2/lib286/os2/clibdll.lib(initrtns.c)
0002:0486      __InitRtns
0002:0486*     __FInitRtns
0002:04df      __FiniRtns
0002:04df*     __FFiniRtns
Module: /mnt/sda5/.user/root/src/openwatcom-1.9/rel2/lib286/os2/clibdll.lib(setjmp)
0002:0542      _setjmp_
0002:0578      longjmp_
Module: /mnt/sda5/.user/root/src/openwatcom-1.9/rel2/lib286/os2/clibdll.lib(cmain086.c)
0002:05bc      __CMain
Module: /mnt/sda5/.user/root/src/openwatcom-1.9/rel2/lib286/os2/clibdll.lib(thrdmax.c)
0002:05d3      __GETMAXTHREADS
Module: /mnt/sda5/.user/root/src/openwatcom-1.9/rel2/lib286/os2/clibdll.lib(calloc.c)
0002:05dc      calloc_
Module: /mnt/sda5/.user/root/src/openwatcom-1.9/rel2/lib286/os2/clibdll.lib(ffree.c)
0002:061b*     _ffree_
0002:061b      free_
Module: /mnt/sda5/.user/root/src/openwatcom-1.9/rel2/lib286/os2/clibdll.lib(enterdb.c)
0002:066e      __EnterWVIDEO_
0003:005e+     ___WD_Present
Module: /mnt/sda5/.user/root/src/openwatcom-1.9/rel2/lib286/os2/clibdll.lib(fheapmin.c)
0002:0692*     _fheapshrink_
0002:0692*     _fheapmin_
0002:0692*     _heapmin_
0002:0692      _heapshrink_
Module: /mnt/sda5/.user/root/src/openwatcom-1.9/rel2/lib286/os2/clibdll.lib(_getds)
0002:070a      __GETDS
Module: /mnt/sda5/.user/root/src/openwatcom-1.9/rel2/lib286/os2/clibdll.lib(sgdef086)
0003:0176      __Start_XI
0003:0176      __End_XI
0003:0176      __Start_YI
0003:017c      __End_YI
Module: /mnt/sda5/.user/root/src/openwatcom-1.9/rel2/lib286/os2/clibdll.lib(ljmphdl.c)
0003:0060      ___longjmp_handler
Module: /mnt/sda5/.user/root/src/openwatcom-1.9/rel2/lib286/os2/clibdll.lib(amblksiz.c)
0003:0064      __amblksiz
Module: /mnt/sda5/.user/root/src/openwatcom-1.9/rel2/lib286/os2/clibdll.lib(libmno16.c)
0002:0713      __dll_initialize_
Module: /mnt/sda5/.user/root/src/openwatcom-1.9/rel2/lib286/os2/clibdll.lib(i4m)
0002:0718*     __I4M
0002:0718      __U4M
Module: /mnt/sda5/.user/root/src/openwatcom-1.9/rel2/lib286/os2/clibdll.lib(fmalloc.c)
0002:0730*     _fmalloc_
0002:0730      malloc_
0003:0066      ___fheap
0003:0068      ___fheapRover
0003:006a      ___LargestSizeB4Rover
Module: /mnt/sda5/.user/root/src/openwatcom-1.9/rel2/lib286/os2/clibdll.lib(nmalloc.c)
0002:0843      __hidden_nmalloc_
0003:006c      ___nheapbeg
0003:006e      ___MiniHeapRover
0003:0070      ___LargestSizeB4MiniHeapRover
Module: /mnt/sda5/.user/root/src/openwatcom-1.9/rel2/lib286/os2/clibdll.lib(mem.c)
0002:0920      __MemAllocator
0002:09e6      __MemFree
Module: /mnt/sda5/.user/root/src/openwatcom-1.9/rel2/lib286/os2/clibdll.lib(nfree.c)
0002:0b3f      __hidden_nfree_
0003:033c+     ___MiniHeapFreeRover
Module: /mnt/sda5/.user/root/src/openwatcom-1.9/rel2/lib286/os2/clibdll.lib(heapmin.c)
0002:0c4a      __HeapMin_
Module: /mnt/sda5/.user/root/src/openwatcom-1.9/rel2/lib286/os2/clibdll.lib(freeseg.c)
0002:0d15+     __DoFreeSeg_
0002:0d6f      __FreeSeg_
Module: /mnt/sda5/.user/root/src/openwatcom-1.9/rel2/lib286/os2/clibdll.lib(dmaino16.c)
0002:0d7d      main_
Module: /mnt/sda5/.user/root/src/openwatcom-1.9/rel2/lib286/os2/clibdll.lib(growseg.c)
0002:0d81      __GrowSeg_
Module: /mnt/sda5/.user/root/src/openwatcom-1.9/rel2/lib286/os2/clibdll.lib(allocseg.c)
0002:0e88      __AllocSeg_
Module: /mnt/sda5/.user/root/src/openwatcom-1.9/rel2/lib286/os2/clibdll.lib(fmemneed.c)
0002:0f2f      __fmemneed_
Module: /mnt/sda5/.user/root/src/openwatcom-1.9/rel2/lib286/os2/clibdll.lib(nmemneed.c)
0002:0f32      __nmemneed_
Module: /mnt/sda5/.user/root/src/openwatcom-1.9/rel2/lib286/os2/clibdll.lib(grownear.c)
0002:0fba+     __LastFree_
0002:1034      __ExpandDGROUP_
Module: /mnt/sda5/.user/root/src/openwatcom-1.9/rel2/lib286/os2/clibdll.lib(dosret.c)
0002:1143*     _dosretax_
0002:1148*     _dosret0_
0002:114f      __set_errno_dos_
0002:1174*     __set_errno_dos_reterr_
Module: /mnt/sda5/.user/root/src/openwatcom-1.9/rel2/lib286/os2/clibdll.lib(heapen.c)
0002:117f*     _heapenable_
0003:0174      ___heap_enabled
Module: /mnt/sda5/.user/root/src/openwatcom-1.9/rel2/lib286/os2/clibdll.lib(sbrk.c)
0002:119f*     __hidden_sbrk_
0002:11af      __brk_
Module: /mnt/sda5/.user/root/src/openwatcom-1.9/rel2/lib286/os2/clibdll.lib(seterrno.c)
0002:1224      __set_errno_
0002:1239*     __set_EDOM_
0002:124c*     __set_ERANGE_
0002:125f*     __set_EINVAL_
0002:1275      __set_doserrno_
Module: /mnt/sda5/.user/root/src/openwatcom-1.9/rel2/lib286/os2/clibdll.lib(errno.c)
0002:1288      __get_errno_ptr_
0002:1291*     __get_doserrno_ptr_


                        +----------------------+
                        |   Imported Symbols   |
                        +----------------------+

Symbol                              Module
======                              ======

DOSGETHUGESHIFT                     DOSCALLS
DOSGETMACHINEMODE                   DOSCALLS
DOSGETVERSION                       DOSCALLS
DOSGETINFOSEG                       DOSCALLS
VIOWRTTTY                           VIOCALLS
DOSSEMCLEAR                         DOSCALLS
DOSSEMREQUEST                       DOSCALLS
DOSREALLOCSEG                       DOSCALLS
DOSFREESEG                          DOSCALLS
DOSSIZESEG                          DOSCALLS
DOSALLOCSEG                         DOSCALLS


                        +--------------------+
                        |   Libraries Used   |
                        +--------------------+

/mnt/sda5/.user/root/src/openwatcom-1.9/rel2/lib286/os2/os2.lib
/mnt/sda5/.user/root/src/openwatcom-1.9/rel2/lib286/os2/clibdll.lib


                        +-----------------------+
                        |   Linker Statistics   |
                        +-----------------------+

Stack size:  0000 (0.)
Memory size:  15f9 (5625.)
Link time: 00:00.00
