Open Watcom Linker Version 1.9
Portions Copyright (c) 1985-2002 Sybase, Inc. All Rights Reserved.
Created on:       12/12/16 02:39:25
Executable Image: vi.exe
creating a Windows 16-bit executable


                        +------------+
                        |   Groups   |
                        +------------+

Group                           Address              Size
=====                           =======              ====

DGROUP                          0007:0000            0000cd60



                        +--------------+
                        |   Segments   |
                        +--------------+

Segment                Class          Group          Address         Size
=======                =====          =====          =======         ====

version_TEXT           CODE           AUTO           0001:0000       00000000
name_TEXT              CODE           AUTO           0001:0000       00000000
key_TEXT               CODE           AUTO           0001:0000       000005d7
globals_TEXT           CODE           AUTO           0001:05e0       0000002d
pdata_TEXT             CODE           AUTO           0001:0610       00000000
exdata_TEXT            CODE           AUTO           0001:0610       00000000
srcdata_TEXT           CODE           AUTO           0001:0610       00000000
rxwrap_TEXT            CODE           AUTO           0001:0610       00001355
rxsupp_TEXT            CODE           AUTO           0001:1970       00000209
tab_hell_TEXT          CODE           AUTO           0001:1b80       000009e8
regsub_TEXT            CODE           AUTO           0001:2570       00000414
findrx_TEXT            CODE           AUTO           0001:2990       0000047f
mem_TEXT               CODE           AUTO           0001:2e10       00000506
fcbxmint_TEXT          CODE           AUTO           0001:3320       00000000
addstr_TEXT            CODE           AUTO           0001:3320       000000c4
llrtns_TEXT            CODE           AUTO           0001:33f0       0000036a
parse_TEXT             CODE           AUTO           0001:3760       000005e6
init_TEXT              CODE           AUTO           0001:3d50       00000b91
getopt_TEXT            CODE           AUTO           0001:48f0       00000396
autoenv_TEXT           CODE           AUTO           0001:4c90       000002f1
xmem_TEXT              CODE           AUTO           0001:4f90       00000001
fcbswap_TEXT           CODE           AUTO           0001:4fa0       00000148
clset_TEXT             CODE           AUTO           0001:50f0       000019f7
hist_TEXT              CODE           AUTO           0001:6af0       0000045d
samefile_TEXT          CODE           AUTO           0001:6f50       00000077
dirdisp_TEXT           CODE           AUTO           0001:6fd0       000008b5
expandfn_TEXT          CODE           AUTO           0001:7890       000001b8
getdir_TEXT            CODE           AUTO           0001:7a50       00000330
mapkey_TEXT            CODE           AUTO           0001:7d80       000008b9
editmv_TEXT            CODE           AUTO           0001:8640       0000051c
linenum_TEXT           CODE           AUTO           0001:8b60       00000146
linework_TEXT          CODE           AUTO           0001:8cb0       0000013c
undoclne_TEXT          CODE           AUTO           0001:8df0       000003b8
fcbdmp_TEXT            CODE           AUTO           0001:91b0       000001bc
file_TEXT              CODE           AUTO           0001:9370       00000daf
filemove_TEXT          CODE           AUTO           0001:a120       00000436
filelast_TEXT          CODE           AUTO           0001:a560       000001a0
fini_TEXT              CODE           AUTO           0001:a700       000005b7
autosave_TEXT          CODE           AUTO           0001:acc0       00000be6
srchook_TEXT           CODE           AUTO           0001:b8b0       0000042e
srcgoto_TEXT           CODE           AUTO           0001:bce0       000001f0
srcif_TEXT             CODE           AUTO           0001:bed0       000001b0
srcfile_TEXT           CODE           AUTO           0001:c080       00000574
srccs_TEXT             CODE           AUTO           0001:c600       000004db
srcexpr_TEXT           CODE           AUTO           0001:cae0       000001bc
srcvar_TEXT            CODE           AUTO           0001:cca0       00000564
srcinp_TEXT            CODE           AUTO           0001:d210       00000144
srcassgn_TEXT          CODE           AUTO           0001:d360       0000059b
srcexpnd_TEXT          CODE           AUTO           0001:d900       00000220
srcnextw_TEXT          CODE           AUTO           0001:db20       000000f0
filestk_TEXT           CODE           AUTO           0001:dc10       00000238
dotmode_TEXT           CODE           AUTO           0001:de50       000001f8
source_TEXT            CODE           AUTO           0001:e050       000011be
mark_TEXT              CODE           AUTO           0001:f210       000007bf
move_TEXT              CODE           AUTO           0002:0000       00000809
change_TEXT            CODE           AUTO           0002:0810       00000059
delete_TEXT            CODE           AUTO           0002:0870       0000014b
linefind_TEXT          CODE           AUTO           0002:09c0       00000491
dat_TEXT               CODE           AUTO           0002:0e60       000001a1
parsecl_TEXT           CODE           AUTO           0002:1010       0000077f
findcmd_TEXT           CODE           AUTO           0002:1790       00000bab
savebuf_TEXT           CODE           AUTO           0002:2340       00000bb4
error_TEXT             CODE           AUTO           0002:2f00       0000033f
cmdline_TEXT           CODE           AUTO           0002:3240       00001f98
editdc_TEXT            CODE           AUTO           0002:51e0       00000166
word_TEXT              CODE           AUTO           0002:5350       00000740
hide_TEXT              CODE           AUTO           0002:5a90       000000dd
editins_TEXT           CODE           AUTO           0002:5b70       00001385
getautoi_TEXT          CODE           AUTO           0002:6f00       00000222
replace_TEXT           CODE           AUTO           0002:7130       00000263
dir_TEXT               CODE           AUTO           0002:73a0       000003ca
select_TEXT            CODE           AUTO           0002:7770       00000474
io_TEXT                CODE           AUTO           0002:7bf0       000005d2
clread_TEXT            CODE           AUTO           0002:81d0       0000026c
cledit_TEXT            CODE           AUTO           0002:8440       00000787
misc_TEXT              CODE           AUTO           0002:8bd0       00000a52
tags_TEXT              CODE           AUTO           0002:9630       000005f9
alias_TEXT             CODE           AUTO           0002:9c30       00000410
bnddata_TEXT           CODE           AUTO           0002:a040       00000574
abandon_TEXT           CODE           AUTO           0002:a5c0       0000006a
filter_TEXT            CODE           AUTO           0002:a630       00000222
ex_TEXT                CODE           AUTO           0002:a860       00000665
exappend_TEXT          CODE           AUTO           0002:aed0       00000133
wingen_TEXT            CODE           AUTO           0002:b010       000004af
printf_TEXT            CODE           AUTO           0002:b4c0       00000592
getspcmd_TEXT          CODE           AUTO           0002:ba60       000002b8
selrgn_TEXT            CODE           AUTO           0002:bd20       00000c0b
cstatus_TEXT           CODE           AUTO           0002:c930       000000d1
help_TEXT              CODE           AUTO           0002:ca10       000001c6
readstr_TEXT           CODE           AUTO           0002:cbe0       00001579
tab_e_c_TEXT           CODE           AUTO           0002:e160       00000281
gencfg_TEXT            CODE           AUTO           0002:e3f0       00000e9a
fts_TEXT               CODE           AUTO           0002:f290       000009d2
fcbems_TEXT            CODE           AUTO           0002:fc70       00000000
fcbxms_TEXT            CODE           AUTO           0002:fc70       00000000
fcbdisk_TEXT           CODE           AUTO           0002:fc70       0000021f
fcbxmem_TEXT           CODE           AUTO           0002:fe90       00000000
fcbblock_TEXT          CODE           AUTO           0003:0000       000001c2
fcb_TEXT               CODE           AUTO           0003:01d0       0000056f
fcbmem_TEXT            CODE           AUTO           0003:0740       000001ec
fcbsplit_TEXT          CODE           AUTO           0003:0930       0000033b
fcbdup_TEXT            CODE           AUTO           0003:0c70       000001be
fcbmerge_TEXT          CODE           AUTO           0003:0e30       000001e5
linenew_TEXT           CODE           AUTO           0003:1020       0000025c
dc_TEXT                CODE           AUTO           0003:1280       00000970
lineptr_TEXT           CODE           AUTO           0003:1bf0       0000048c
linecfb_TEXT           CODE           AUTO           0003:2080       00000234
linedisp_TEXT          CODE           AUTO           0003:22c0       0000012b
linemisc_TEXT          CODE           AUTO           0003:23f0       000003e9
linedel_TEXT           CODE           AUTO           0003:27e0       000004e5
lineins_TEXT           CODE           AUTO           0003:2cd0       0000076c
lineyank_TEXT          CODE           AUTO           0003:3440       00000406
grep_TEXT              CODE           AUTO           0003:3850       00000cc8
editmain_TEXT          CODE           AUTO           0003:4520       00000a3e
filesave_TEXT          CODE           AUTO           0003:4f60       00000914
filenew_TEXT           CODE           AUTO           0003:5880       0000061a
undo_TEXT              CODE           AUTO           0003:5ea0       0000068d
undostks_TEXT          CODE           AUTO           0003:6530       0000060d
undo_do_TEXT           CODE           AUTO           0003:6b40       00000379
clglob_TEXT            CODE           AUTO           0003:6ec0       000005b2
clsubs_TEXT            CODE           AUTO           0003:7480       000009e5
shove_TEXT             CODE           AUTO           0003:7e70       000001aa
match_TEXT             CODE           AUTO           0003:8020       000003e7
cut_TEXT               CODE           AUTO           0003:8410       0000026e
opmove_TEXT            CODE           AUTO           0003:8680       00000c2d
srcgen_TEXT            CODE           AUTO           0003:92b0       000009b0
fmatch_TEXT            CODE           AUTO           0003:9c60       000001c2
status_TEXT            CODE           AUTO           0003:9e30       00000318
expr_TEXT              CODE           AUTO           0003:a150       00000d1c
op_TEXT                CODE           AUTO           0003:ae70       0000082c
lang_TEXT              CODE           AUTO           0003:b6a0       0000080b
sstyle_TEXT            CODE           AUTO           0003:beb0       00000a8b
sstyle_f_TEXT          CODE           AUTO           0003:c940       000009b1
sstyle_c_TEXT          CODE           AUTO           0003:d300       00000fde
sstyle_h_TEXT          CODE           AUTO           0003:e2e0       000002d1
sstyle_g_TEXT          CODE           AUTO           0003:e5c0       0000030b
sstyle_m_TEXT          CODE           AUTO           0003:e8d0       00000424
sstyle_p_TEXT          CODE           AUTO           0003:ed00       00000bfb
rcs_TEXT               CODE           AUTO           0003:f900       00000207
main_TEXT              CODE           AUTO           0003:fb10       000002de
mainwnd_TEXT           CODE           AUTO           0004:0000       000006f3
editwnd_TEXT           CODE           AUTO           0004:0700       0000104c
dosdir_TEXT            CODE           AUTO           0004:1750       000002af
time_TEXT              CODE           AUTO           0004:1a00       0000021a
stubs_TEXT             CODE           AUTO           0004:1c20       0000002f
color_TEXT             CODE           AUTO           0004:1c50       00000418
wstatus_TEXT           CODE           AUTO           0004:2070       000004b5
font_TEXT              CODE           AUTO           0004:2530       00000743
window_TEXT            CODE           AUTO           0004:2c80       0000064c
display_TEXT           CODE           AUTO           0004:32d0       0000090b
getkey_TEXT            CODE           AUTO           0004:3be0       000006d5
cursor_TEXT            CODE           AUTO           0004:42c0       0000077e
command_TEXT           CODE           AUTO           0004:4a40       00000214
utils_TEXT             CODE           AUTO           0004:4c60       00000ed5
menu_TEXT              CODE           AUTO           0004:5b40       00001ba0
filesel_TEXT           CODE           AUTO           0004:76e0       0000060d
flist_TEXT             CODE           AUTO           0004:7cf0       000002fe
message_TEXT           CODE           AUTO           0004:7ff0       000003cb
windir_TEXT            CODE           AUTO           0004:83c0       000001df
contain_TEXT           CODE           AUTO           0004:85a0       0000010e
bitmap_TEXT            CODE           AUTO           0004:86b0       000005f6
palette_TEXT           CODE           AUTO           0004:8cb0       000000dd
dde_TEXT               CODE           AUTO           0004:8d90       0000031b
srcwin_TEXT            CODE           AUTO           0004:90b0       000006b5
srcdde_TEXT            CODE           AUTO           0004:9770       000006c9
tool_TEXT              CODE           AUTO           0004:9e40       000009b7
wintica_TEXT           CODE           AUTO           0004:a800       00000105
repcnt_TEXT            CODE           AUTO           0004:a910       00000286
clipbrd_TEXT           CODE           AUTO           0004:aba0       000005e1
asavedlg_TEXT          CODE           AUTO           0004:b190       000000c0
profile_TEXT           CODE           AUTO           0004:b250       00000533
finddlg_TEXT           CODE           AUTO           0004:b790       0000042f
ectlsub_TEXT           CODE           AUTO           0004:bbc0       00000313
grepdlg_TEXT           CODE           AUTO           0004:bee0       0000010f
cmddlg_TEXT            CODE           AUTO           0004:bff0       000002a0
statwnd_TEXT           CODE           AUTO           0004:c290       00000907
toolbr_TEXT            CODE           AUTO           0004:cba0       000016eb
ftbar_TEXT             CODE           AUTO           0004:e290       00000945
about_TEXT             CODE           AUTO           0004:ebe0       00000349
startdlg_TEXT          CODE           AUTO           0004:ef30       00000134
usage_TEXT             CODE           AUTO           0004:f070       00000111
tagdlg_TEXT            CODE           AUTO           0004:f190       00000181
ldstr_TEXT             CODE           AUTO           0004:f320       000001df
hasshare_TEXT          CODE           AUTO           0004:f500       000000ea
getidata_TEXT          CODE           AUTO           0004:f5f0       00000011
ctl3d32_TEXT           CODE           AUTO           0004:f610       00000000
linedlg_TEXT           CODE           AUTO           0004:f610       000000f9
clrbar_TEXT            CODE           AUTO           0004:f710       00000145
clrpick_TEXT           CODE           AUTO           0004:f860       00000764
ftpick_TEXT            CODE           AUTO           0005:0000       0000046e
repdlg_TEXT            CODE           AUTO           0005:0470       00000470
setfs_TEXT             CODE           AUTO           0005:08e0       00000cca
setscr_TEXT            CODE           AUTO           0005:15b0       00000249
setgen_TEXT            CODE           AUTO           0005:1800       000004d1
util_TEXT              CODE           AUTO           0005:1ce0       0000019f
hotkey_TEXT            CODE           AUTO           0005:1e80       0000006a
ssbar_TEXT             CODE           AUTO           0005:1ef0       00000997
subclass_TEXT          CODE           AUTO           0005:2890       0000013a
snoop_TEXT             CODE           AUTO           0005:29d0       0000023a
wwinhelp_TEXT          CODE           AUTO           0005:2c10       00000183
hackdctl_TEXT          CODE           AUTO           0005:2da0       00000f08
filetype_TEXT          CODE           AUTO           0005:3cb0       00000001
exec_TEXT              CODE           AUTO           0005:3cc0       000001d0
doscmds_TEXT           CODE           AUTO           0005:3e90       000000a8
_TEXT                  CODE           AUTO           0006:0000       0000da0a
FAR_DATA               FAR_DATA       AUTO           0007:0000       00000000
_NULL                  BEGDATA        DGROUP         0007:0000       00000010
AFX_NULL               BEGDATA        DGROUP         0007:0010       00000000
CONST                  DATA           DGROUP         0007:0010       000004cc
CONST2                 DATA           DGROUP         0007:04dc       0000020c
_DATA                  DATA           DGROUP         0007:06f0       00003fe6
XIB                    DATA           DGROUP         0007:46d6       00000000
XI                     DATA           DGROUP         0007:46d6       00000036
XIE                    DATA           DGROUP         0007:470c       00000000
YIB                    DATA           DGROUP         0007:470c       00000000
YI                     DATA           DGROUP         0007:470c       0000001e
YIE                    DATA           DGROUP         0007:472a       00000000
STRINGS                DATA           DGROUP         0007:472a       00000000
DATA                   DATA           DGROUP         0007:472a       00000000
BCSD                   DATA           DGROUP         0007:472a       00000000
_BSS                   BSS            DGROUP         0007:4730       000047ae
STACK                  STACK          DGROUP         0007:8ee0       00003e80


                        +----------------+
                        |   Memory Map   |
                        +----------------+

* = unreferenced symbol
+ = symbol only referenced locally

Address        Symbol
=======        ======

Module: version.obj(/mnt/sda5/.user/root/src/openwatcom-1.9/bld/vi/c/version.c)
0007:06f0      _DATESTAMP_T
0007:06f9      _DATESTAMP_D
0007:0705      _AUTHOR
0007:0748      _VERSIONT
Module: name.obj(/mnt/sda5/.user/root/src/openwatcom-1.9/bld/vi/c/name.c)
0007:074c      _TITLE
Module: key.obj(/mnt/sda5/.user/root/src/openwatcom-1.9/bld/vi/c/key.c)
0001:00c0      GetVIKey_
0001:02c8      GetKey_
0001:036a      NonKeyboardEventsPending_
0001:0390      GetNextEvent_
0001:050e      ClearBreak_
0001:0528      KeyAdd_
0001:0558      KeyAddString_
0001:05ac      AddCurrentMouseEvent_
Module: globals.obj(/mnt/sda5/.user/root/src/openwatcom-1.9/bld/vi/c/globals.c)
0007:4b40      _SpawnPrompt
0007:4c40      _DirFiles
0007:5640      _SelRgn
0007:5650      _MatchData
0007:5698      _CurrentRegularExpression
0007:569c      _CurrentDirectory
0007:56a0      _TileColors
0007:56a4      _TmpDir
0007:56a8      _HomeDirectory
0007:56ac      _ReadBuffer
0007:56b0      _WriteBuffer
0007:56b4      _SwapBlocks
0007:56b8      _ClockTicks
0007:56bc      _DotCmd
0007:56c0      _DotBuffer
0007:56c4      _AltDotBuffer
0007:56c8      _MaxMemFreeAfterInit
0007:56cc      _MaxMemFree
0007:56d0      _StatusSections
0007:56d4      _UndoStack
0007:56d8      _UndoUndoStack
0007:56dc      _Comspec
0007:56e0      _KeyMaps
0007:56e4      _CurrentKeyMap
0007:56e8      _InputKeyMaps
0007:56ec      _CurrentLine
0007:56f0      _FcbThreadHead
0007:56f4      _InfoHead
0007:56f8      _CurrentFile
0007:56fc      _MarkList
0007:5700      _WorkLine
0007:5704      _InfoTail
0007:5708      _CurrentInfo
0007:570c      _FIgnore
0007:5710      _FcbThreadTail
0007:5714      _CurrentFcb
0007:5718      _EXEName
0007:571c      _Majick
0007:5720      _TagFileName
0007:5724      _StaticBuffer
0007:5728      _BndMemory
0007:572c      _NextAutoSave
0007:5730      _GrepDefault
0007:5734      _HistoryFile
0007:5738      _WordAltDefn
0007:573c      _WordDefn
0007:5740      _RepeatString
0007:574a      _Savebufs
0007:57a4      _SpecialSavebufs
0007:58b2      _SwapBlocksInUse
0007:58b4      _SourceErrCount
0007:58b6      _SwapBlockArraySize
0007:58b8      _AltDotCount
0007:58ba      _AltDotDigits
0007:58bc      _RepeatDigits
0007:58be      _LastError
0007:58c0      _DotCmdCount
0007:58c2      _RegExpError
0007:58c4      _DotDigits
0007:58c6      _DotCount
0007:58c8      _NumStatusSections
0007:58ca      _SystemRC
0007:58cc      _LastRetCode
0007:58ce      _WrapMargin
0007:58d0      _LastRC
0007:58d2      _DirFileCount
0007:58d4      _CurrentKeyMapCount
0007:58d6      _FcbBlocksInUse
0007:58d8      _HalfPageLines
0007:58da      _CurrFIgnore
0007:58dc      _LastEvent
0007:58de*     _SpinCount
0007:58e0      _MouseCol
0007:58e2      _MouseRow
0007:58e4      _MouseRepeatDelay
0007:0790      _MSG_CHARACTERS
0007:079b      _MSG_LINES
0007:07a1      _MSG_PRESSANYKEY
0007:07af      _MSG_DELETEDINTOBUFFER
0007:07c5      _MEMORIZE_MODE
0007:07d4      _CONFIG_FILE
0007:07e0      _SingleBlank
0007:07e2      _SingleSlash
0007:07e4      _BoolStr
0007:07ec*     _EditOpts
0007:07f8*     _NumEditOpts
0007:07fa      _EventList
0007:1ffa      _MouseSpeed
0007:1ffc      _MouseDoubleClickSpeed
0007:1ffe*     _MouseRepeatStartDelay
0007:2000      _LastMouseEvent
0007:2004      _FileEndString
0007:2008      _StatusString
0007:200c      _MaxPush
0007:200e      _Radix
0007:2010      _AutoSaveInterval
0007:2012      _PageLinesExposed
0007:2014      _StackK
0007:2016*     _SpinData
0007:201a      _ExitAttr
0007:201c      _CurrentPos
0007:2022      _LeftTopPos
0007:2028      _VirtualColumnDesired
0007:202a      _CurrentWindow
0007:202c      _MessageWindow
0007:202e      _StatusWindow
0007:2030      _MenuWindow
0007:2032      _CurrNumWindow
0007:2034      _CursorBlinkRate
0007:2036      _FilterHist
0007:203e      _CLHist
0007:2046      _FindHist
0007:204e      _LastFilesHist
0007:2056      _SavebufBound
0007:2068      _CurrentSavebuf
0007:206c      _WorkSavebuf
0007:2070      _SavebufNumber
0007:2072      _cmdlinew_info
0007:2084      _statusw_info
0007:2096      _repcntw_info
0007:20a8      _editw_info
0007:20ba      _extraw_info
0007:20cc      _filecw_info
0007:20de      _linenumw_info
0007:20f0      _dirw_info
0007:2102      _filelistw_info
0007:2114      _setw_info
0007:2126      _setvalw_info
0007:2138      _messagew_info
0007:214a      _menuw_info
0007:215c      _menubarw_info
0007:216e      _defaultw_info
0007:2180      _activemenu_info
0007:2192      _greyedmenu_info
0007:21a4      _activegreyedmenu_info
0007:21b8      _CommandBuffer
0007:21bc      _SwapFileHandle
0007:21be      _MaxSwapBlocks
0007:21c0      _MaxLine
0007:21c2      _MaxLinem1
0007:21c4      _crlf
0007:21c6      _OverstrikeCursorType
0007:21c8      _InsertCursorType
0007:21ca      _NormalCursorType
0007:21cc      _MatchCount
0007:21ce      _LineNumWinWidth
0007:21d0      _TabAmount
0007:21d2      _ShiftWidth
0007:21d4      _HardTab
0007:21d6      _maxdotbuffer
0007:21d8      _CurrentStatusColumn
0007:21da      _ClockX
0007:21dc      _ClockY
0007:21de      _SpinX
0007:21e0      _SpinY
0007:21e2      _MaxTileColors
0007:21e4      _MaxWindowTileX
0007:21e6      _MaxWindowTileY
0007:21e8      _MoveColor
0007:21e9      _ResizeColor
0007:21ea      _InactiveWindowColor
0007:21ec      _WindMaxWidth
0007:21ee      _WindMaxHeight
0007:21f0      _ToolBarButtonHeight
0007:21f2      _ToolBarButtonWidth
0007:21f4      _ToolBarColor
0007:21f5      _EndOfLineChar
0007:21f6      _EditFlags
0007:58e6      _MouseStatus
0007:58e8      _NoRepeatInfo
0007:58e9      _LastSavebuf
0007:58ea*     _VideoPage
Module: pdata.obj(/mnt/sda5/.user/root/src/openwatcom-1.9/bld/vi/c/pdata.c)
0007:2276      _ParseClTokens
0007:266e      _SetTokens1
0007:2911      _SetTokens2
0007:2bcd      _SetTokens2a
Module: exdata.obj(/mnt/sda5/.user/root/src/openwatcom-1.9/bld/vi/c/exdata.c)
0007:2c84      _ExTokens
Module: srcdata.obj(/mnt/sda5/.user/root/src/openwatcom-1.9/bld/vi/c/srcdata.c)
0007:2cca      _SourceTokens
0007:2d6f      _StrTokens
0007:58f0      _CurrentSrcLabel
0007:58f4      _VarTail
0007:58f8      _CurrentSrcData
0007:58fc      _VarHead
0007:5900      _ErrorValues
0007:5904      _ErrorTokens
0007:5908      _CurrentSrcLine
Module: rxwrap.obj(/mnt/sda5/.user/root/src/openwatcom-1.9/bld/vi/c/rxwrap.c)
0001:066a      RegComp_
0001:133c      RegExec_
0001:194e*     RegAnchor_
0007:2d86      _META
Module: rxsupp.obj(/mnt/sda5/.user/root/src/openwatcom-1.9/bld/vi/c/rxsupp.c)
0001:1970      IsMagicCharRegular_
0001:19bc      CurrentRegComp_
0001:19ea      GetCurrRegExpColumn_
0001:19f8      GetCurrRegExpLength_
0001:1a06      MakeExpressionNonRegular_
0001:1b10      RegExpAttrSave_
0001:1b5c      RegExpAttrRestore_
Module: tab_hell.obj(/mnt/sda5/.user/root/src/openwatcom-1.9/bld/vi/c/tab_hell.c)
0001:1be0      InsertTabSpace_
0001:1c9e      ExpandTabsInABufferUpToColumn_
0001:1d36      ExpandTabsInABuffer_
0001:1e46      WinVirtualCursorPosition_
0001:1e98      WinRealCursorPosition_
0001:1ef8      GetVirtualCursorPosition_
0001:1f76      VirtualColumnOnCurrentLine_
0001:201e      RealColumnOnCurrentLine_
0001:2046      CursorPositionOffRight_
0001:20cc*     RealCursorPositionInString_
0001:2100      RealCursorPositionOnLine_
0001:214c      VirtualLineLen_
0001:21a0      AddLeadingTabSpace_
0001:22fc      ConvertSpacesToTabsUpToColumn_
0007:5930      _TabCnt
Module: regsub.obj(/mnt/sda5/.user/root/src/openwatcom-1.9/bld/vi/c/regsub.c)
0001:2570      RegSub_
Module: findrx.obj(/mnt/sda5/.user/root/src/openwatcom-1.9/bld/vi/c/findrx.c)
0001:299c      FindRegularExpression_
0001:2b8a      FindRegularExpressionBackwards_
Module: mem.obj(/mnt/sda5/.user/root/src/openwatcom-1.9/bld/vi/c/mem.c)
0001:2fb4+     doMemAllocUnsafe_
0001:3036      MemAlloc_
0001:306a      MemAllocUnsafe_
0001:307e      MemFree_
0001:308a+     doMemReAllocUnsafe_
0001:315c      MemReAllocUnsafe_
0001:316c      MemReAlloc_
0001:319e      StaticAlloc_
0001:31f0      StaticFree_
0001:322e      StaticStart_
0001:3290      StaticFini_
0001:32a6      MemStrDup_
0007:2dc2      _maxStatic
Module: addstr.obj(/mnt/sda5/.user/root/src/openwatcom-1.9/bld/vi/c/addstr.c)
0001:3320      AddString2_
0001:3346      AddString_
0001:33ba      DeleteString_
Module: llrtns.obj(/mnt/sda5/.user/root/src/openwatcom-1.9/bld/vi/c/llrtns.c)
0001:33f0      AddLLItemAtEnd_
0001:348a      InsertLLItemAfter_
0001:34e8      InsertLLItemBefore_
0001:3546      DeleteLLItem_
0001:3616      ReplaceLLItem_
0001:36e0*     ValidateLL_
Module: parse.obj(/mnt/sda5/.user/root/src/openwatcom-1.9/bld/vi/c/parse.c)
0001:3762      RemoveLeadingSpaces_
0001:37a0      TranslateTabs_
0001:380a      GetStringWithPossibleQuote2_
0001:3876      GetStringWithPossibleQuote_
0001:3884      NextWord1_
0001:3916      NextWordSlash_
0001:3926      NextWord_
0001:3aa8      EliminateFirstN_
0001:3ad6      Tokenize_
0001:3bc2      GetNumberOfTokens_
0001:3bfa*     GetLongestTokenLength_
0001:3c3e      GetTokenString_
0001:3c88      ReplaceSubString_
Module: init.obj(/mnt/sda5/.user/root/src/openwatcom-1.9/bld/vi/c/init.c)
0001:3e78      SetConfigFileName_
0001:3e92      GetConfigFileName_
0001:3e9a      FiniCFName_
0001:48c8      InitializeEditor_
0007:2de8      _WordDefnDefault
Module: getopt.obj(/mnt/sda5/.user/root/src/openwatcom-1.9/bld/posix/misc/getopt.c)
0007:5984      _OptArg
0007:2dec+     _OptInd
0007:2dee+     _AltOptChar
0001:49b0      GetOpt_
0007:598a+     _OptChar
Module: autoenv.obj(/mnt/sda5/.user/root/src/openwatcom-1.9/bld/watcom/c/autoenv.c)
0001:4dea      watcom_setup_env_
Module: xmem.obj(/mnt/sda5/.user/root/src/openwatcom-1.9/bld/vi/c/xmem.c)
0001:4f90      ExtendedMemoryFini_
0001:4f90      ExtendedMemoryInit_
Module: fcbswap.obj(/mnt/sda5/.user/root/src/openwatcom-1.9/bld/vi/c/fcbswap.c)
0001:4fa0      FetchFcb_
0001:4fe0      SwapFcb_
0001:5026      RestoreToNormalMemory_
Module: clset.obj(/mnt/sda5/.user/root/src/openwatcom-1.9/bld/vi/c/clset.c)
0001:6864*     SettingSelected_
0001:68ce      Set_
0001:6a66      GetASetVal_
Module: hist.obj(/mnt/sda5/.user/root/src/openwatcom-1.9/bld/vi/c/hist.c)
0001:6b48      LoadHistory_
0001:6dd6      SaveHistory_
0001:6e50      FilterHistInit_
0001:6e7e      CLHistInit_
0001:6eac      FindHistInit_
0001:6eda      LastFilesHistInit_
0001:6f08      HistFini_
Module: samefile.obj(/mnt/sda5/.user/root/src/openwatcom-1.9/bld/vi/c/samefile.c)
0001:6f50      SameFile_
Module: dirdisp.obj(/mnt/sda5/.user/root/src/openwatcom-1.9/bld/vi/c/dirdisp.c)
0001:6fe6+     FileCompleteMouseHandler_
0001:73a6      FileCompleteMouseClick_
0001:7506+     displayFiles_
0001:774c      StartFileComplete_
0001:77f2      ContinueFileComplete_
0001:782a      FinishFileComplete_
0001:7858      PauseFileComplete_
Module: expandfn.obj(/mnt/sda5/.user/root/src/openwatcom-1.9/bld/vi/c/expandfn.c)
0001:7890      ExpandFileNames_
Module: getdir.obj(/mnt/sda5/.user/root/src/openwatcom-1.9/bld/vi/c/getdir.c)
0001:7d16      GetSortDir_
0001:7d4c      DirFini_
Module: mapkey.obj(/mnt/sda5/.user/root/src/openwatcom-1.9/bld/vi/c/mapkey.c)
0007:5aa0+     _currUndoStack
0001:7e1e      MapKey_
0001:800a      DoKeyMap_
0001:81d8      RunKeyMap_
0001:8238      StartInputKeyMap_
0001:82ae      DoneInputKeyMap_
0001:82c8+     extractViKeyToken_
0001:8368      AddKeyMap_
0001:847a      InitKeyMaps_
0001:84a2      FiniKeyMaps_
0001:8522      ExecuteBuffer_
0001:8586      LookUpCharToken_
Module: editmv.obj(/mnt/sda5/.user/root/src/openwatcom-1.9/bld/vi/c/editmv.c)
0001:8640      MoveScreenML_
0001:869e      MoveScreenDown_
0001:872e      MoveScreenUp_
0001:87c4      MoveScreenDownPageML_
0001:87e6      MoveScreenUpPageML_
0001:8812      MoveScreenLeftPageML_
0001:8836      MoveScreenRightPageML_
0001:8856      MovePage_
0001:8986      MovePageDown_
0001:89a6      MovePageUp_
0001:89c6      MovePosition_
0001:8b20      MoveHalfPageDown_
0001:8b2e      MoveHalfPageUp_
0001:8b3c      MoveScreenLeftRightML_
Module: linenum.obj(/mnt/sda5/.user/root/src/openwatcom-1.9/bld/vi/c/linenum.c)
0001:8b60      LineNumbersSetup_
Module: linework.obj(/mnt/sda5/.user/root/src/openwatcom-1.9/bld/vi/c/linework.c)
0001:8cb0      GetCurrentLine_
0001:8d0e      ReplaceCurrentLine_
0001:8dc8      DisplayWorkLine_
Module: undoclne.obj(/mnt/sda5/.user/root/src/openwatcom-1.9/bld/vi/c/undoclne.c)
0001:8df0      CurrentLineReplaceUndoStart_
0001:8ed0      CurrentLineReplaceUndoCancel_
0001:8f00      CurrentLineReplaceUndoEnd_
0001:9144      ConditionalCurrentLineReplaceUndoEnd_
Module: fcbdmp.obj(/mnt/sda5/.user/root/src/openwatcom-1.9/bld/vi/c/fcbdmp.c)
0001:9214      WalkUndo_
0001:9214      LineInfo_
0001:9214      SanityCheck_
0001:9214      FcbThreadDump_
0001:9214      FcbDump_
0001:9214      HeapCheck_
0001:9218      DumpMemory_
Module: file.obj(/mnt/sda5/.user/root/src/openwatcom-1.9/bld/vi/c/file.c)
0001:9466      SaveInfo_
0001:9566      SaveCurrentInfo_
0001:95e4      RestoreInfo_
0001:9d32      DisplayFileStatus_
0001:9f20      CTurnOffFileDisplayBits_
0001:9f78      CFileReadOnly_
0001:a02c      FileIOMessage_
0001:a058      IsTextFile_
0001:a0f0*     GimmeFileCount_
Module: filemove.obj(/mnt/sda5/.user/root/src/openwatcom-1.9/bld/vi/c/filemove.c)
0001:a120      NextFileDammit_
0001:a322      NextFile_
0001:a36e      RotateFileForward_
0001:a3aa      RotateFileBackwards_
0001:a3e8      GotoFile_
0001:a446      BringUpFile_
Module: filelast.obj(/mnt/sda5/.user/root/src/openwatcom-1.9/bld/vi/c/filelast.c)
0001:a572      UpdateLastFileList_
Module: fini.obj(/mnt/sda5/.user/root/src/openwatcom-1.9/bld/vi/c/fini.c)
0001:aa5c      Quit_
0001:aba6      ExitEditor_
0001:ac9e      QuitEditor_
0007:2e30+     _UsageMsg
0007:2e78      _OptEnvVar
Module: autosave.obj(/mnt/sda5/.user/root/src/openwatcom-1.9/bld/vi/c/autosave.c)
0001:ad30+     GetCurrentFilePath_
0001:af36      DoAutoSave_
0001:b12a      LostFileCheck_
0001:b24c      AutoSaveInit_
0001:b550      AutoSaveFini_
0001:b60a      SetNextAutoSaveTime_
0001:b63a      RemoveFromAutoSaveList_
Module: srchook.obj(/mnt/sda5/.user/root/src/openwatcom-1.9/bld/vi/c/srchook.c)
0001:b940      GetHookVar_
0001:bae4      SourceHook_
0001:bb06      SourceHookData_
0001:bb1c      HookScriptCheck_
0001:bb3e      InvokeColSelHook_
0001:bc36      InvokeLineSelHook_
0001:bcae      InvokeMenuHook_
Module: srcgoto.obj(/mnt/sda5/.user/root/src/openwatcom-1.9/bld/vi/c/srcgoto.c)
0001:bce0      SrcGoTo_
0001:bd8a      AddLabel_
Module: srcif.obj(/mnt/sda5/.user/root/src/openwatcom-1.9/bld/vi/c/srcif.c)
0001:beda      SrcIf_
0001:bf94      GetErrorTokenValue_
0001:c032      ReadErrorTokens_
Module: srcfile.obj(/mnt/sda5/.user/root/src/openwatcom-1.9/bld/vi/c/srcfile.c)
0001:c086      SrcOpen_
0001:c2a2      SrcRead_
0001:c47c      SrcWrite_
0001:c558      SrcClose_
Module: srccs.obj(/mnt/sda5/.user/root/src/openwatcom-1.9/bld/vi/c/srccs.c)
0001:c724      CSInit_
0001:c73a      CSFini_
0001:c7ce      CSIf_
0001:c7f8      CSElseIf_
0001:c87c      CSElse_
0001:c8da      CSEndif_
0001:c92a      CSWhile_
0001:c968      CSLoop_
0001:c98a      CSEndLoop_
0001:c9d4      CSUntil_
0001:ca70      CSContinue_
0001:ca90      CSBreak_
0001:cab0      CSQuif_
Module: srcexpr.obj(/mnt/sda5/.user/root/src/openwatcom-1.9/bld/vi/c/srcexpr.c)
0001:cae8      SrcExpr_
Module: srcvar.obj(/mnt/sda5/.user/root/src/openwatcom-1.9/bld/vi/c/srcvar.c)
0001:ccca      VarAddGlobalStr_
0001:ccda      VarAddRandC_
0001:cd3a      SetModifiedVar_
0001:cd56      VarAddGlobalLong_
0001:cd8c      VarAddStr_
0001:cf1c      VarListDelete_
0001:cf6a      VarName_
0001:d000      VarFind_
0001:d0ee      VarFini_
0001:d13a*     VarDump_
0001:d1a6*     VarSC_
Module: srcinp.obj(/mnt/sda5/.user/root/src/openwatcom-1.9/bld/vi/c/srcinp.c)
0001:d33c      SrcInput_
0001:d348      SrcGet_
Module: srcassgn.obj(/mnt/sda5/.user/root/src/openwatcom-1.9/bld/vi/c/srcassgn.c)
0001:d366      SrcAssign_
Module: srcexpnd.obj(/mnt/sda5/.user/root/src/openwatcom-1.9/bld/vi/c/srcexpnd.c)
0001:d936      Expand_
Module: srcnextw.obj(/mnt/sda5/.user/root/src/openwatcom-1.9/bld/vi/c/srcnextw.c)
0001:db22      SrcNextWord_
Module: filestk.obj(/mnt/sda5/.user/root/src/openwatcom-1.9/bld/vi/c/filestk.c)
0001:dc60      InitFileStack_
0001:dc8c      FiniFileStack_
0001:dca2      PushFileStack_
0001:dd7e      PushFileStackAndMsg_
0001:ddaa      PopFileStack_
Module: dotmode.obj(/mnt/sda5/.user/root/src/openwatcom-1.9/bld/vi/c/dotmode.c)
0001:de6a      SaveDotCmd_
0001:de9e      DoDotMode_
0001:df70      DoAltDotMode_
Module: source.obj(/mnt/sda5/.user/root/src/openwatcom-1.9/bld/vi/c/source.c)
0001:e10c      Source_
0001:e926      FileSPVAR_
0001:eb78      SourceError_
0001:f088      DeleteResidentScripts_
Module: mark.obj(/mnt/sda5/.user/root/src/openwatcom-1.9/bld/vi/c/mark.c)
0001:f252      SetMark_
0001:f2ee+     MarkOnLine_
0001:f33e+     RemoveMarkFromLine_
0001:f450      SetGenericMark_
0001:f56a      GoMark_
0001:f57e      GoMarkLine_
0001:f592*     GetMarkLine_
0001:f5ac*     GetMark_
0001:f6e0      VerifyMark_
0001:f8bc      AllocateMarkList_
0001:f8f4      SetMarkContext_
0001:f91a      FreeMarkList_
0001:f9b0      MemorizeCurrentContext_
Module: move.obj(/mnt/sda5/.user/root/src/openwatcom-1.9/bld/vi/c/move.c)
0002:0286      GoToLineRelCurs_
0002:0296      GoToLineNoRelCurs_
0002:02a4      SetCurrentLineNumber_
0002:0328      GoToColumnOK_
0002:0338      GoToColumnOnCurrentLine_
0002:037e      GoToColumn_
0002:0412      SetCurrentLine_
0002:04f8      CheckLeftColumn_
0002:0564      ValidateCurrentColumn_
0002:05c0      CheckCurrentColumn_
0002:066a      ShiftTab_
0002:068a      SetCurrentColumn_
0002:0712      LocateCmd_
Module: change.obj(/mnt/sda5/.user/root/src/openwatcom-1.9/bld/vi/c/change.c)
0002:0810      DoLineSubstitute_
0002:082e      DoSubstitute_
0002:084c      DoChangeLineEnd_
Module: delete.obj(/mnt/sda5/.user/root/src/openwatcom-1.9/bld/vi/c/delete.c)
0002:0870      DoDeleteRegion_
0002:089a      DoDeleteLineEnd_
0002:08be      DoDeleteCharAtCursor_
0002:0906      DoDeleteCharBeforeCursor_
0002:0940      DeleteSelectedRegion_
0002:097e      YankSelectedRegion_
Module: linefind.obj(/mnt/sda5/.user/root/src/openwatcom-1.9/bld/vi/c/linefind.c)
0002:0a88*     FindFirstCharNotInListForward_
0002:0afc*     FindFirstCharNotInListBackwards_
0002:0b64*     FindFirstCharInRangeForward_
0002:0bc6*     FindFirstCharNotInRangeForward_
0002:0c28*     FindFirstCharInRangeBackwards_
0002:0c84*     FindFirstCharNotInRangeBackward_
0002:0ce0      TestIfCharInRange_
0002:0d40      FindCharOnCurrentLine_
0002:0e12      FancyGotoLine_
Module: dat.obj(/mnt/sda5/.user/root/src/openwatcom-1.9/bld/vi/c/dat.c)
0002:0e60      ReadDataFile_
Module: parsecl.obj(/mnt/sda5/.user/root/src/openwatcom-1.9/bld/vi/c/parsecl.c)
0002:1010      ParseCommandLine_
0002:145c      GetAddress_
Module: findcmd.obj(/mnt/sda5/.user/root/src/openwatcom-1.9/bld/vi/c/findcmd.c)
0002:1794      FindCmdFini_
0002:17c2      HilightSearchString_
0002:181e      ResetLastFind_
0002:1848+     GetFindForward_
0002:1878+     GetFindBackwards_
0002:1a9c      DoFindForward_
0002:1aae      DoFindBackwards_
0002:1ae0+     JumpTo_
0002:1b2a      FancyDoFindMisc_
0002:1b80+     FancyDoFind_
0002:1ba8      DoNextFindForward_
0002:1be0      DoNextFindBackwards_
0002:1c18      DoNextFindForwardMisc_
0002:1c6a      DoNextFindBackwardsMisc_
0002:1d9e      GetFind_
0002:209e*     SaveFindRowColumn_
0002:20b0      ColorFind_
0002:214e      SetLastFind_
0002:2168      FancyDoReplace_
Module: savebuf.obj(/mnt/sda5/.user/root/src/openwatcom-1.9/bld/vi/c/savebuf.c)
0002:26d4      InsertSavebufBefore_
0002:26ee      InsertSavebufBefore2_
0002:2708      InsertSavebufAfter_
0002:272c*     InsertSavebufAfter2_
0002:2750      GetSavebufString_
0002:29f2      InitSavebufs_
0002:2a1a      FiniSavebufs_
0002:2a42      AddLineToSavebuf_
0002:2b44      AddSelRgnToSavebuf_
0002:2b8c      AddSelRgnToSavebufAndDelete_
0002:2b9e      AddFcbsToSavebuf_
0002:2c8e      SwitchSavebuf_
0002:2dd2      DoSavebufNumber_
0002:2e14      SetSavebufNumber_
0002:2e96      IsEmptySavebuf_
Module: error.obj(/mnt/sda5/.user/root/src/openwatcom-1.9/bld/vi/c/error.c)
0002:2f48      FatalError_
0002:2f80*     Die_
0002:2fda      GetErrorMsg_
0002:304c      Error_
0002:3112      ErrorBox_
0002:3212      ErrorFini_
Module: cmdline.obj(/mnt/sda5/.user/root/src/openwatcom-1.9/bld/vi/c/cmdline.c)
0002:32fa      InitCommandLine_
0002:3312      FiniCommandLine_
0002:33f0      ProcessCommandLine_
0002:33fc      FancyProcessCommandLine_
0002:340a      TryCompileableToken_
0002:3776      RunCommandLine_
0002:48a4      ProcessWindow_
0002:51ae+     BATCHER
Module: editdc.obj(/mnt/sda5/.user/root/src/openwatcom-1.9/bld/vi/c/editdc.c)
0002:5214      DeleteRangeOnCurrentLine_
0002:52a6      DeleteBlockFromCurrentLine_
Module: word.obj(/mnt/sda5/.user/root/src/openwatcom-1.9/bld/vi/c/word.c)
0002:5350      InitWordSearch_
0002:559c      MarkStartOfNextWordForward_
0002:567e      MarkEndOfNextWordForward_
0002:57ae      MarkStartOfNextWordBackward_
0002:58ae      GimmeCurrentWord_
0002:595a      GimmeCurrentEntireWordDim_
Module: hide.obj(/mnt/sda5/.user/root/src/openwatcom-1.9/bld/vi/c/hide.c)
0002:5aac      HideLineRange_
Module: editins.obj(/mnt/sda5/.user/root/src/openwatcom-1.9/bld/vi/c/editins.c)
0002:5c1e      DoneCurrentInsert_
0002:5c92      UpdateEditStatus_
0002:5e72      IMChar_
0002:5f10      IMEsc_
0002:5f20      IMEnter_
0002:60da      IMBackSpace_
0002:622a      IMDelete_
0002:62da      IMDeleteML_
0002:62f2      IMBackSpaceML_
0002:630a      IMMouseEvent_
0002:6350      IMCursorKey_
0002:6464      IMMenuKey_
0002:6492      IMSpace_
0002:64bc      IMTabs_
0002:67d0      IMEscapeNextChar_
0002:67ee      IMInsert_
0002:6864      IMCloseBracket_
0002:69de      IMCloseBrace_
0002:6b9a      DeleteAndInsertText_
0002:6d6c      InsertTextOnNextLine_
0002:6d7a      InsertTextOnPreviousLine_
0002:6d86      InsertTextAtCursor_
0002:6d98      InsertTextAfterCursor_
0002:6daa      InsertTextAtLineStart_
0002:6dd2      InsertTextAtLineEnd_
0002:6e02      DoReplaceText_
0002:6e14      InsertLikeLast_
0002:6e36      PushMode_
0002:6e88      PopMode_
Module: getautoi.obj(/mnt/sda5/.user/root/src/openwatcom-1.9/bld/vi/c/getautoi.c)
0002:6fa8      GetAutoIndentAmount_
Module: replace.obj(/mnt/sda5/.user/root/src/openwatcom-1.9/bld/vi/c/replace.c)
0002:7130      ReplaceChar_
Module: dir.obj(/mnt/sda5/.user/root/src/openwatcom-1.9/bld/vi/c/dir.c)
0002:73a8      GetCWD1_
0002:73de      GetCWD2_
0002:7406      ChangeDirectory_
0002:7454      ConditionalChangeDirectory_
0002:7492      SetCWD_
0002:7568      FormatDirToFile_
Module: select.obj(/mnt/sda5/.user/root/src/openwatcom-1.9/bld/vi/c/select.c)
0002:794e*     SelectItem_
0002:7b0c*     SelectItemAndValue_
Module: io.obj(/mnt/sda5/.user/root/src/openwatcom-1.9/bld/vi/c/io.c)
0002:7c04      FileExists_
0002:7cd0      FileOpen_
0002:7d66      FileSeek_
0002:7e32      GetFromEnvAndOpen_
0002:7e72      GetFromEnv_
0002:7eba      VerifyTmpDir_
0002:7fe8      MakeTmpPath_
0002:803e      TmpFileOpen_
0002:8084      TmpFileClose_
0002:80ba      FileLower_
0002:80c6      FileTemplateMatch_
0002:815e      StripPath_
Module: clread.obj(/mnt/sda5/.user/root/src/openwatcom-1.9/bld/vi/c/clread.c)
0002:81e4      ReadAFile_
Module: cledit.obj(/mnt/sda5/.user/root/src/openwatcom-1.9/bld/vi/c/cledit.c)
0002:8442+     isMultipleFiles_
0002:846a      EditFile_
0002:8b7c      OpenWindowOnFile_
Module: misc.obj(/mnt/sda5/.user/root/src/openwatcom-1.9/bld/vi/c/misc.c)
0002:8dd2      ExecCmd_
0002:8df4      GetResponse_
0002:8e0e      PromptFilesForSave_
0002:8ede      PromptThisFileForSave_
0002:8fe0      QueryFile_
0002:905e      ExitWithPrompt_
0002:90e6      ExitWithVerify_
0002:919c      PrintHexValue_
0002:91e2      EnterHexKey_
0002:9300      DoVersion_
0002:9336      StrMerge_
0002:93a2      ModificationTest_
0002:9408      CurFileExitOptionSaveChanges_
0002:942e      UpdateCurrentDirectory_
0002:9456      NextBiggestPrime_
0002:9498      FancySetFS_
0002:94a6      FancySetScr_
0002:94b4      FancySetGen_
0002:94c2      ToggleToolbar_
0002:9500      ToggleStatusbar_
0002:953e      ToggleColorbar_
0002:957c      ToggleSSbar_
0002:95ba      ToggleFontbar_
0002:95f8      GenericQueryBool_
Module: tags.obj(/mnt/sda5/.user/root/src/openwatcom-1.9/bld/vi/c/tags.c)
0002:9638      GetCurrentTag_
0002:9674      TagHunt_
0002:9764      FindTag_
0002:99c8+     SearchForTags_
0002:9af6      LocateTag_
Module: alias.obj(/mnt/sda5/.user/root/src/openwatcom-1.9/bld/vi/c/alias.c)
0002:9ea4      SetAlias_
0002:9ebc      UnAlias_
0002:9ed4      CheckAlias_
0002:9f3a      Abbrev_
0002:9f58      UnAbbrev_
0002:9f76      CheckAbbrev_
Module: bnddata.obj(/mnt/sda5/.user/root/src/openwatcom-1.9/bld/vi/c/bnddata.c)
0002:a040      CheckForBoundData_
0002:a1de      SpecialOpen_
0002:a3c2      SpecialFclose_
0002:a408      SpecialFgets_
Module: abandon.obj(/mnt/sda5/.user/root/src/openwatcom-1.9/bld/vi/c/abandon.c)
0002:a5e0      AbandonHopeAllYeWhoEnterHere_
Module: filter.obj(/mnt/sda5/.user/root/src/openwatcom-1.9/bld/vi/c/filter.c)
0002:a654      DoGenericFilter_
Module: ex.obj(/mnt/sda5/.user/root/src/openwatcom-1.9/bld/vi/c/ex.c)
0002:a8be*     EnterExMode_
0002:a9d8      ProcessEx_
Module: exappend.obj(/mnt/sda5/.user/root/src/openwatcom-1.9/bld/vi/c/exappend.c)
0002:aed0      Append_
0002:af32      AppendAnother_
Module: wingen.obj(/mnt/sda5/.user/root/src/openwatcom-1.9/bld/vi/c/wingen.c)
0002:b02c      NewMessageWindow_
0002:b06a      WPrintfLine_
0002:b0c2      SetWindowCursor_
0002:b0c8      SetWindowCursorForReal_
0002:b13a*     DisplayExtraInfo_
0002:b1c6      ColumnInWindow_
0002:b204      SetWindowSizes_
0002:b2d8      CurrentWindowResize_
0002:b3b8      SetFileWindowTitle_
0002:b438      ResetAllWindows_
Module: printf.obj(/mnt/sda5/.user/root/src/openwatcom-1.9/bld/vi/c/printf.c)
0002:b4c0      Lead_
0002:b928      MyPrintf_
0002:b984      MySprintf_
0002:b9cc      MyVSprintf_
0002:b9fe      MyVPrintf_
0002:ba12      MyFprintf_
Module: getspcmd.obj(/mnt/sda5/.user/root/src/openwatcom-1.9/bld/vi/c/getspcmd.c)
0002:ba64      GetSpawnCommandLine_
Module: selrgn.obj(/mnt/sda5/.user/root/src/openwatcom-1.9/bld/vi/c/selrgn.c)
0002:bd20*     GetFixedSelectedRegion_
0002:bde2      InitSelectedRegion_
0002:be1c      SelRgnFini_
0002:be1c      SelRgnInit_
0002:bee6      UnselectRegion_
0002:bf04      UpdateDrag_
0002:c0b0      UpdateCursorDrag_
0002:c146      SetSelRegionCols_
0002:c1bc      ReselectRegion_
0002:c1ea+     startSelectedRegion_
0002:c248      SelectLeft_
0002:c272      SelectRight_
0002:c29c      SelectUp_
0002:c2d4      SelectDown_
0002:c30c      SelectHome_
0002:c334      SelectEnd_
0002:c35e      SelectPageUp_
0002:c39a      SelectPageDown_
0002:c3d4      SelectBackwardsWord_
0002:c3fe      SelectForwardWord_
0002:c428      SelectStartOfFile_
0002:c452      SelectEndOfFile_
0002:c47c      SelectTopOfPage_
0002:c4a6      SelectBottomOfPage_
0002:c4d0      DoSelectSelection_
0002:c652      DoSelectSelectionPopMenu_
0002:c660      GetSelectedRegion_
0002:c6e4      SetSelectedRegion_
0002:c7a4      SetSelectedRegionFromLine_
0002:c7fe      NormalizeRange_
0002:c8d0      SelectAll_
Module: cstatus.obj(/mnt/sda5/.user/root/src/openwatcom-1.9/bld/vi/c/cstatus.c)
0002:c99a      GetModeString_
0002:c9dc      UpdateCurrentStatus_
Module: help.obj(/mnt/sda5/.user/root/src/openwatcom-1.9/bld/vi/c/help.c)
0002:ca82      DoHelpOnContext_
0002:ca96      DoHelp_
0007:2fa0      _helpFiles
0007:2fb8      _nHelpFiles
Module: readstr.obj(/mnt/sda5/.user/root/src/openwatcom-1.9/bld/vi/c/readstr.c)
0007:2fba      _ReadingAString
0002:d67e      GetTextForSpecialKey_
0002:d7b4      InsertTextForSpecialKey_
0002:e036      ReadStringInWindow_
0002:e09e      PromptForString_
Module: tab_e_c.obj(/mnt/sda5/.user/root/src/openwatcom-1.9/bld/vi/c/tab_e_c.c)
0002:e3c8      ExpandWhiteSpace_
0002:e3d4      CompressWhiteSpace_
Module: gencfg.obj(/mnt/sda5/.user/root/src/openwatcom-1.9/bld/vi/c/gencfg.c)
0002:ed72      GenerateConfiguration_
Module: fts.obj(/mnt/sda5/.user/root/src/openwatcom-1.9/bld/vi/c/fts.c)
0002:f2e6      FTSStart_
0002:f40c      FTSAddCmd_
0002:f514      FTSAddBoolean_
0002:f5a6      FTSAddInt_
0002:f5d8*     FTSAddChar_
0002:f60c      FTSAddStr_
0002:f63c      FTSEnd_
0002:f6f6      FTSSearchFTIndex_
0002:f85e      FTSRunCmds_
0002:f87a      FTSGetFirst_
0002:f882      FTSGetNext_
0002:f898      FTSGetFirstTemplate_
0002:f8a8      FTSGetNextTemplate_
0002:f8be      FTSBarfData_
0002:f9c2+     FTSMatchTemplate_
0002:fab2+     deleteTemplateList_
0002:fae4*     FTSMatchTemplateData_
0002:fb9e+     FTSKill_
0002:fc20      FTSInit_
0002:fc30      FTSFini_
Module: fcbdisk.obj(/mnt/sda5/.user/root/src/openwatcom-1.9/bld/vi/c/fcbdisk.c)
0002:fc70      SwapToDisk_
0002:fcac      SwapToMemoryFromDisk_
0002:fd50      SwapFileClose_
0002:fd68      GiveBackSwapBlock_
0002:fe04      SwapBlockInit_
0002:fe6e      SwapBlockFini_
Module: fcbblock.obj(/mnt/sda5/.user/root/src/openwatcom-1.9/bld/vi/c/fcbblock.c)
0003:0000      GiveBackBlock_
0003:0048      GetNewBlock_
0003:00c2      MakeWriteBlock_
Module: fcb.obj(/mnt/sda5/.user/root/src/openwatcom-1.9/bld/vi/c/fcb.c)
0003:01dc      ReadFcbData_
0003:0550      FindFcbWithLine_
0003:0656      CreateFcbData_
0003:0724      FcbSize_
Module: fcbmem.obj(/mnt/sda5/.user/root/src/openwatcom-1.9/bld/vi/c/fcbmem.c)
0003:0740      FcbAlloc_
0003:07d8      FcbFree_
0003:08a2      FreeEntireFcb_
0003:08fa      FreeFcbList_
Module: fcbsplit.obj(/mnt/sda5/.user/root/src/openwatcom-1.9/bld/vi/c/fcbsplit.c)
0003:0930      SplitFcbAtLine_
0003:0b7c      CheckCurrentFcbCapacity_
Module: fcbdup.obj(/mnt/sda5/.user/root/src/openwatcom-1.9/bld/vi/c/fcbdup.c)
0003:0dc8      CreateDuplicateFcbList_
Module: fcbmerge.obj(/mnt/sda5/.user/root/src/openwatcom-1.9/bld/vi/c/fcbmerge.c)
0003:0f24      MergeFcbs_
0003:0f92      MergeAllFcbs_
Module: linenew.obj(/mnt/sda5/.user/root/src/openwatcom-1.9/bld/vi/c/linenew.c)
0003:1020      AddNewLineAroundCurrent_
0003:112a      InsertNewLine_
0003:11b8      LineAlloc_
0003:1218      CreateNullLine_
Module: dc.obj(/mnt/sda5/.user/root/src/openwatcom-1.9/bld/vi/c/dc.c)
0003:1300      DCCreate_
0003:137c      DCResize_
0003:1460      DCScroll_
0003:15bc      DCDestroy_
0003:162c      DCUpdate_
0003:1820      DCUpdateAll_
0003:18c0+     shaveRange_
0003:1956      DCDisplaySomeLines_
0003:1a22      DCDisplayAllLines_
0003:1a4e      DCInvalidateSomeLines_
0003:1ac0      DCInvalidateAllLines_
0003:1af6      DCFindLine_
0003:1b2e      DCValidateLine_
Module: lineptr.obj(/mnt/sda5/.user/root/src/openwatcom-1.9/bld/vi/c/lineptr.c)
0003:1bf0      CGimmeLinePtr_
0003:1c0e      GimmeLinePtr_
0003:1c6a      CGimmeNextLinePtr_
0003:1c8c      CAdvanceToLine_
0003:1cb4      GimmeNextLinePtr_
0003:1e0e      GimmePrevLinePtr_
0003:1ebc      GimmeLinePtrFromFcb_
0003:1f36      CFindLastLine_
0003:1faa      IsPastLastLine_
0003:201a      ValidateCurrentLine_
Module: linecfb.obj(/mnt/sda5/.user/root/src/openwatcom-1.9/bld/vi/c/linecfb.c)
0003:2176      CreateLinesFromBuffer_
Module: linedisp.obj(/mnt/sda5/.user/root/src/openwatcom-1.9/bld/vi/c/linedisp.c)
0003:22c0      ReDisplayScreen_
0003:2362      ReDisplayBuffers_
Module: linemisc.obj(/mnt/sda5/.user/root/src/openwatcom-1.9/bld/vi/c/linemisc.c)
0003:23f0      FindStartOfALine_
0003:2414      FindStartOfCurrentLine_
0003:2428      GenericJoinCurrentLineToNext_
0003:262c      JoinCurrentLineToNext_
0003:2688      SaveCurrentFilePos_
0003:26d2      RestoreCurrentFilePos_
0003:2794      SaveAndResetFilePos_
Module: linedel.obj(/mnt/sda5/.user/root/src/openwatcom-1.9/bld/vi/c/linedel.c)
0003:2812      UpdateLineNumbers_
0003:2848      DeleteLineRange_
0003:2c7c      LineDeleteMessage_
Module: lineins.obj(/mnt/sda5/.user/root/src/openwatcom-1.9/bld/vi/c/lineins.c)
0003:2cd0      InsertLinesAtCursor_
0003:3010      InsertLines_
Module: lineyank.obj(/mnt/sda5/.user/root/src/openwatcom-1.9/bld/vi/c/lineyank.c)
0003:3482      YankLineRange_
0003:34d2      GetCopyOfLineRange_
0003:3808      LineYankMessage_
Module: grep.obj(/mnt/sda5/.user/root/src/openwatcom-1.9/bld/vi/c/grep.c)
0003:3894      DoFGREP_
0003:3922      DoEGREP_
0003:3d60+     GREPLISTPROC
Module: editmain.obj(/mnt/sda5/.user/root/src/openwatcom-1.9/bld/vi/c/editmain.c)
0003:47ec      DoMove_
0003:4952      DoLastEvent_
0003:4b42      DoneLastEvent_
0003:4b98      EditMain_
0003:4cb6      AbsoluteNullResponse_
0003:4cba      NullResponse_
0003:4ce6+     KillRepeatWindow_
0003:4d04+     DoneRepeat_
0003:4d20      SetRepeatCount_
0003:4d7e      GetRepeatCount_
0003:4dae      DoDigit_
0003:4e54      InvalidKey_
0003:4e76      Modified_
0003:4ee6      ResetDisplayLine_
Module: filesave.obj(/mnt/sda5/.user/root/src/openwatcom-1.9/bld/vi/c/filesave.c)
0003:5144      SaveFileAs_
0003:51ca      SaveFile_
0003:5560      StartSaveExit_
0003:5592      SaveAndExit_
0003:55ec      FilePromptForSaveChanges_
0003:56d8      FileExitOptionSaveChanges_
0003:578e+     FancyFileSave_
0003:57e8      DoKeyboardSave_
Module: filenew.obj(/mnt/sda5/.user/root/src/openwatcom-1.9/bld/vi/c/filenew.c)
0003:5c6e      NewFile_
0003:5dac      FileAlloc_
0003:5e3e      FileFree_
0003:5e74      FreeEntireFile_
Module: undo.obj(/mnt/sda5/.user/root/src/openwatcom-1.9/bld/vi/c/undo.c)
0003:5ea0      StartUndoGroupWithPosition_
0003:5fc4      UndoReplaceLines_
0003:60bc      UndoDeleteFcbs_
0003:6142      UndoInsert_
0003:6210      PatchDeleteUndo_
0003:63d0      StartUndoGroup_
0003:63f4      EndUndoGroup_
0003:64d4      TryEndUndoGroup_
Module: undostks.obj(/mnt/sda5/.user/root/src/openwatcom-1.9/bld/vi/c/undostks.c)
0003:6602      UndoAlloc_
0003:66aa      UndoFree_
0003:6708      PushUndoStack_
0003:6770      PopUndoStack_
0003:67b2      PurgeUndoStack_
0003:6826      AddUndoToCurrent_
0003:685a      AllocateUndoStacks_
0003:68b8      FreeUndoStacks_
0003:695e      TossUndos_
0003:6b1e      FreeAllUndos_
Module: undo_do.obj(/mnt/sda5/.user/root/src/openwatcom-1.9/bld/vi/c/undo_do.c)
0003:6e70      DoUndo_
0003:6e90      DoUndoUndo_
Module: clglob.obj(/mnt/sda5/.user/root/src/openwatcom-1.9/bld/vi/c/clglob.c)
0003:6ef6      Global_
0003:744c      ProcessingMessage_
Module: clsubs.obj(/mnt/sda5/.user/root/src/openwatcom-1.9/bld/vi/c/clsubs.c)
0003:74ec+     MYMESSAGEBOXWNDFUNC
0003:764e      TwoPartSubstitute_
0003:77ce      Substitute_
0003:7d46      SplitUpLine_
0007:5d8e+     _LastSubstituteCancelled
0007:5d90+     _LastLineCount
0007:5d92+     _LastChangeCount
Module: shove.obj(/mnt/sda5/.user/root/src/openwatcom-1.9/bld/vi/c/shove.c)
0003:7e9c      Shift_
Module: match.obj(/mnt/sda5/.user/root/src/openwatcom-1.9/bld/vi/c/match.c)
0003:8056      DoMatching_
0003:8082      FindMatch_
0003:82ca      AddMatchString_
0003:838a      MatchInit_
0003:83d8      MatchFini_
Module: cut.obj(/mnt/sda5/.user/root/src/openwatcom-1.9/bld/vi/c/cut.c)
0003:8410      Cut_
Module: opmove.obj(/mnt/sda5/.user/root/src/openwatcom-1.9/bld/vi/c/opmove.c)
0003:88b2      MovePageMiddle_
0003:8942      MovePageTop_
0003:8952      MovePageBottom_
0003:8a28      MoveUp_
0003:8a44      MoveDown_
0003:8acc      MoveLineEnd_
0003:8b06*     LineEndRange_
0003:8b68      MoveStartOfLine_
0003:8b92      MoveLineBegin_
0003:8bae      MoveLeft_
0003:8bc0      MoveRight_
0003:8bce      MoveToColumn_
0003:8be6      MoveTab_
0003:8cae      MoveShiftTab_
0003:8dee      MoveStartNextLine_
0003:8dfa      MoveStartPrevLine_
0003:8ec6      MoveForwardWord_
0003:8ed6      MoveForwardBigWord_
0003:8ee6      MoveForwardWordEnd_
0003:8ef6      MoveForwardBigWordEnd_
0003:8f98      MoveBackwardsWord_
0003:8fa6      MoveBackwardsBigWord_
0003:9032      MoveUpToChar_
0003:9044      MoveUpToBeforeChar_
0003:9056      MoveBackToChar_
0003:9066      MoveBackToAfterChar_
0003:9078      DoGo_
0003:919c      MoveToLastCharFind_
0003:91aa      MoveToLastCharFindRev_
0003:91ba      MoveStartOfFile_
0003:91ea      MoveEndOfFile_
0003:925c      MoveTopOfPage_
0003:9278      MoveBottomOfPage_
Module: srcgen.obj(/mnt/sda5/.user/root/src/openwatcom-1.9/bld/vi/c/srcgen.c)
0003:92ba      AbortGen_
0003:9332      GenJmpIf_
0003:935c      GenJmp_
0003:9380      GenLabel_
0003:940c      GenTestCond_
0003:961c      NewLabel_
0003:9762      PreProcess_
Module: fmatch.obj(/mnt/sda5/.user/root/src/openwatcom-1.9/bld/vi/c/fmatch.c)
0003:9c62      FileMatch_
0003:9c98      FileMatchInit_
0003:9e08      FileMatchFini_
Module: status.obj(/mnt/sda5/.user/root/src/openwatcom-1.9/bld/vi/c/status.c)
0003:9e30      NewStatusWindow_
0003:9e7e      UpdateStatusWindow_
Module: expr.obj(/mnt/sda5/.user/root/src/openwatcom-1.9/bld/vi/c/expr.c)
0003:a1dc      StartExprParse_
0003:a8ec      GetConstExpr_
Module: op.obj(/mnt/sda5/.user/root/src/openwatcom-1.9/bld/vi/c/op.c)
0003:aed6      LineLength_
0003:af0c      GetLineRange_
0003:af6e      Delete_
0003:b084      DeleteLines_
0003:b0ba      Yank_
0003:b18c      YankLines_
0003:b1c2      Change_
0003:b446      StartShove_
0003:b464      StartSuck_
0003:b52a      ChangeCase_
0003:b638      Filter_
Module: lang.obj(/mnt/sda5/.user/root/src/openwatcom-1.9/bld/vi/c/lang.c)
0003:b7d4      IsKeyword_
0003:b8ea      IsPragma_
0003:b994      IsDeclspec_
0003:bbc0      LangInit_
0003:bdd8      LangFini_
0003:be78      LangFiniAll_
Module: sstyle.obj(/mnt/sda5/.user/root/src/openwatcom-1.9/bld/vi/c/sstyle.c)
0003:c056+     addSelection_
0003:c420+     fixSelection_
0003:c49c      SSDifBlock_
0003:c64a      SSNewBlock_
0003:c65a      SSKillBlock_
0003:c686      SSKillsFlags_
0003:c702      SSInitLanguageFlags_
0003:c78a      SSInitLanguageFlagsGivenValues_
0003:c812      SSGetLanguageFlags_
0003:c87a      SSGetStyle_
0003:c8ca      SSInitBeforeConfig_
0003:c8ee      SSInitAfterConfig_
0003:c924      SSFini_
0007:6008      _SEType
Module: sstyle_f.obj(/mnt/sda5/.user/root/src/openwatcom-1.9/bld/vi/c/sstyle_f.c)
0003:cafc      InitFORTRANLine_
0003:d076      InitFORTRANFlagsGivenValues_
0003:d084      GetFORTRANFlags_
0003:d092      InitFORTRANFlags_
0003:d144      GetFORTRANBlock_
Module: sstyle_c.obj(/mnt/sda5/.user/root/src/openwatcom-1.9/bld/vi/c/sstyle_c.c)
0003:d404      InitCLine_
0003:dd72      InitCFlagsGivenValues_
0003:dd8c      GetCFlags_
0003:dd9a      InitCFlags_
0003:e0b6      GetCBlock_
Module: sstyle_h.obj(/mnt/sda5/.user/root/src/openwatcom-1.9/bld/vi/c/sstyle_h.c)
0003:e2e0      InitHTMLLine_
0003:e3b4+     getHTMLComment_
0003:e46c      InitHTMLFlagsGivenValues_
0003:e47a      GetHTMLFlags_
0003:e488      InitHTMLFlags_
0003:e48e      GetHTMLBlock_
Module: sstyle_g.obj(/mnt/sda5/.user/root/src/openwatcom-1.9/bld/vi/c/sstyle_g.c)
0003:e606      InitGMLLine_
0003:e79a      InitGMLFlagsGivenValues_
0003:e7a8      GetGMLFlags_
0003:e7b6      InitGMLFlags_
0003:e7bc      GetGMLBlock_
Module: sstyle_m.obj(/mnt/sda5/.user/root/src/openwatcom-1.9/bld/vi/c/sstyle_m.c)
0003:e8d0      InitMkLine_
0003:ebb6      InitMkFlagsGivenValues_
0003:ebc4      GetMkFlags_
0003:ebd2      InitMkFlags_
0003:ebd8      GetMkBlock_
Module: sstyle_p.obj(/mnt/sda5/.user/root/src/openwatcom-1.9/bld/vi/c/sstyle_p.c)
0003:edf8      InitPerlLine_
0003:f594      InitPerlFlagsGivenValues_
0003:f5a2      GetPerlFlags_
0003:f5b0      InitPerlFlags_
0003:f6e0      GetPerlBlock_
Module: rcs.obj(/mnt/sda5/.user/root/src/openwatcom-1.9/bld/vi/c/rcs.c)
0007:34a0+     _RCSGetVersion
0007:34a4      _RCSInit
0007:34a8      _RCSCheckout
0007:34ac      _RCSCheckin
0007:34b0+     _RCSHasShell
0007:34b4+     _RCSRunShell
0007:34b8+     _RCSSetSystem
0007:34bc      _RCSQuerySystem
0007:34c0      _RCSRegisterBatchCallback
0007:34c4+     _RCSRegisterMessageBoxCallback
0003:f9b8      ViRCSInit_
0003:f9f8      ViRCSFini_
0007:34c8      _RCSSetPause
0007:34cc      _RCSFini
Module: main.obj(/mnt/sda5/.user/root/src/openwatcom-1.9/bld/vi/win/main.c)
0003:fb8e      StartWindows_
0003:fbe2      FiniInstance_
0003:fbf4      WINMAIN
0003:fcda      MessageLoop_
0007:34d0      _EditorName
0007:66ea      _Root
0007:66ec      _InstanceHandle
0007:66ee      _EditContainer
Module: mainwnd.obj(/mnt/sda5/.user/root/src/openwatcom-1.9/bld/vi/win/mainwnd.c)
0007:66f0      _RootRect
0004:000c      RegisterMainWindow_
0004:0074      CreateMainWindow_
0004:0136      SetInitialWindowSize_
0004:0216      SetInitialWindowRect_
0004:0240      ResizeRoot_
0004:0344+     MAINWINDOWPROC
0007:6700      _RootState
Module: editwnd.obj(/mnt/sda5/.user/root/src/openwatcom-1.9/bld/vi/win/editwnd.c)
0007:6704      _MouseY
0007:6706      _MouseX
0004:0796*     GetEditStyle_
0004:079c*     SetWindowTitle_
0004:0832      NewEditWindow_
0004:0df2      PositionVerticalScrollThumb_
0004:0ef4      PositionHorizontalScrollThumb_
0004:0f2e*     EditDrawScrollBars_
0004:1146+     EDITWINDOWPROC
0004:1670+     RESIZEEXTRA
0004:16fe      ResetExtraRects_
0007:34f0+     _EditWindowClassName
0007:34f4      _EditWindow
0007:3508      _VScrollBarScale
0007:350c      _HScrollBarScale
Module: dosdir.obj(/mnt/sda5/.user/root/src/openwatcom-1.9/bld/vi/c/dosdir.c)
0004:1786      MyGetFileSize_
0004:17cc      IsDirectory_
0004:1846      GetFileInfo_
0004:1888      FormatFileEntry_
Module: time.obj(/mnt/sda5/.user/root/src/openwatcom-1.9/bld/vi/c/time.c)
0004:1a0a      GetTimeString_
0004:1b12      GetDateTimeString_
0004:1bd8      GetDateString_
Module: stubs.obj(/mnt/sda5/.user/root/src/openwatcom-1.9/bld/vi/win/stubs.c)
0004:1c20      RedrawMouse_
0004:1c22      DoGetDriveType_
0004:1c22      DisplayMouse_
0004:1c24      TurnOffCapsLock_
0004:1c26      GetNewValueDialog_
0004:1c26      ResetWindow_
0004:1c26      MoveCurrentWindowWithKeys_
0004:1c26      ResizeCurrentWindowWithKeys_
0004:1c26      HandleMouseEvent_
0004:1c28      ClearScreen_
0004:1c28      ScreenFini_
0004:1c28      FiniMouse_
0004:1c28      WindowSwapFileClose_
0004:1c28      RestoreInterrupts_
0004:1c28*     WindowBorderData_
0004:1c28      PopMouseEventHandler_
0004:1c28      PushMouseEventHandler_
0004:1c28*     DrawBorder_
0004:1c28      WindowAuxUpdate_
0004:1c28      GetSpinStart_
0004:1c28      GetClockStart_
0004:1c28      SetMouseSpeed_
0004:1c28      SwapAllWindows_
0004:1c2a      ResizeWindowRelative_
0004:1c32      ResizeWindow_
0004:1c3a      WindowIsVisible_
0004:1c3c      HideCursor_
0004:1c3c      SetPosToMessageLine_
0004:1c3c*     DisplayCrossLineInWindow_
0004:1c3c*     NewWindow_
0004:1c3c      SetBorderGadgets_
0004:1c3c      InitMouse_
0004:1c3c      ChkExtendedKbd_
0004:1c3c      SetInterrupts_
0004:1c3c      ScreenInit_
0004:1c3e*     SetCharInWindowWithColor_
0004:1c48*     DisplayLineWithHilite_
Module: color.obj(/mnt/sda5/.user/root/src/openwatcom-1.9/bld/vi/win/color.c)
0004:1c50      ColorRGB_
0004:1c62      ColorBrush_
0004:1c70*     ColorPen_
0004:1d34      InitColors_
0004:1dbe      GetNumColors_
0004:1dc2      GetColorSetting_
0004:1df4      GetRGB_
0004:1f2c      SetAColor_
0004:2028      FiniColors_
Module: wstatus.obj(/mnt/sda5/.user/root/src/openwatcom-1.9/bld/vi/win/wstatus.c)
0004:2070      StatusWndSetSeparatorsWithArray_
0004:215c+     setCursor_
0004:21b6+     processMouseMove_
0004:2302+     processLButtonDown_
0004:2392+     processLButtonUp_
0004:23f4+     StatusWindowProc_
0004:2472      NewStatWindow_
0004:24c4      StatusLine_
0007:3510      _StatusBar
Module: font.obj(/mnt/sda5/.user/root/src/openwatcom-1.9/bld/vi/win/font.c)
0004:256a*     FontFixed_
0004:257a      FontHandle_
0004:2586      FontHeight_
0004:2592      FontlfHeight_
0004:259e      FontlfFaceName_
0004:25ac      FontIsFunnyItalic_
0004:25c8      FontMaxWidth_
0004:25d4      FontAverageWidth_
0004:25e0      FontTabWidth_
0004:25f2*     GetTextExtentX_
0004:26e8      EnsureUniformFonts_
0004:276a      InitFonts_
0004:2a02      SetUpFont_
0004:2ab2*     PickFont_
0004:2af2      SetFont_
0004:2b92      BarfFontData_
0004:2c34      FiniFonts_
0007:3524+     _Helvetica6
0007:3556+     _Arial10
0007:3588+     _ArialBold10
0007:35ba+     _Fixed10
0007:35ec+     _SansSerif
0007:361e+     _Courier
0007:3650+     _CourierBold
0007:6924+     _Fonts
Module: window.obj(/mnt/sda5/.user/root/src/openwatcom-1.9/bld/vi/win/window.c)
0004:2c80      DefaultWindows_
0004:2e7a      InitWindows_
0004:2eae+     FiniWindows_
0004:2efe      WindowAuxInfo_
0004:3062      NewWindow2_
0004:3104      CloseAWindow_
0004:3122      CloseAChildWindow_
0004:314c      InsideWindow_
0004:317a      InactiveWindow_
0004:317c      ActiveWindow_
0004:31a4+     MoveWindowToFront_
0004:31ce      MoveWindowToFrontDammit_
0004:31e2      MaximizeCurrentWindow_
0004:3212      MinimizeCurrentWindow_
0004:3242      FinishWindows_
0007:3690+     _Windows
Module: display.obj(/mnt/sda5/.user/root/src/openwatcom-1.9/bld/vi/win/display.c)
0004:32d0      ScreenPage_
0004:32e4      WindowTitleAOI_
0004:32fc      WindowTitle_
0004:330c      ClearWindow_
0004:3392      DisplayLineInWindow_
0004:33a4      ShiftWindowUpDown_
0004:3468+     SetDrawingObjects_
0004:35c2+     MyTabbedTextOut_
0004:37ce      DisplayLineInWindowWithSyntaxStyle_
0007:36a8      _AllowDisplay
Module: getkey.obj(/mnt/sda5/.user/root/src/openwatcom-1.9/bld/vi/win/getkey.c)
0004:3f40+     find_key_in_table_
0004:3f60      ShiftDown_
0004:3f84*     CapsDown_
0004:3fa6      CtrlDown_
0004:3fca*     AltDown_
0004:403c      MapVirtualKeyToVIKey_
0004:41d4      WindowsKeyPush_
0004:423e      KeyboardHit_
0004:4266      GetKeyboard_
0004:42ae      GetMouseEvent_
0004:42b2      TestMouseEvent_
Module: cursor.obj(/mnt/sda5/.user/root/src/openwatcom-1.9/bld/vi/win/cursor.c)
0004:42c0      SetCursorBlinkRate_
0004:42dc      GoodbyeCursor_
0004:430a      NewCursor_
0004:4776      PixelFromColumnOnCurrentLine_
0004:487a      SetCursorOnLine_
0004:494a      SetGenericWindowCursor_
0004:4958      ResetEditWindowCursor_
0004:4990      MyShowCaret_
0004:49bc      MyHideCaret_
0004:49e2      MyKillCaret_
0004:4a0e      MyRaiseCaret_
Module: command.obj(/mnt/sda5/.user/root/src/openwatcom-1.9/bld/vi/win/command.c)
0007:36c0      _CommandWindow
0007:36d4      _CommandId
0004:4ac6+     COMMANDWINDOWPROC
0004:4bd8      NewCommandWindow_
Module: utils.obj(/mnt/sda5/.user/root/src/openwatcom-1.9/bld/vi/win/utils.c)
0007:7060      _GadgetString
0004:4d36+     WriteText_
0004:4da8      WriteString_
0004:4dd8      TextGetDC_
0004:4e3e      TextReleaseDC_
0004:4e60      BlankRectIndirect_
0004:4ea2*     BlankRect_
0004:4ed8      MyTextExtent_
0004:4f72*     MyStringExtent_
0004:4fa0      ClientToRowCol_
0004:5386      ToggleHourglass_
0004:53d0      MemSize_
0004:53e4      SetGadgetString_
0004:53fe      MyDelay_
0004:540a      MyBeep_
0004:542c      PushDirectory_
0004:5478      PopDirectory_
0004:54ba      DoAboutBox_
0004:5512      CursorOp_
0004:560a      GetOwnedWindow_
0004:56ee*     GetNumWindowTypes_
0004:56f2      MoveWindowTopRight_
0004:57cc*     SetEditInt_
0004:57fe*     UpdateBoolSetting_
0004:5878+     DoStrSet_
0004:5924*     UpdateStrSetting_
0004:5992*     UpdateIntSetting_
0004:59e4      CenterWindowInRoot_
0004:5aa6      DrawRectangleUpDown_
0004:5aea      ChangeDrive_
0007:36e4+     _windowName
Module: menu.obj(/mnt/sda5/.user/root/src/openwatcom-1.9/bld/vi/win/menu.c)
0004:5d64      NextMenuId_
0004:65c0      StartMenu_
0004:6688      MenuItem_
0004:670c      AddMenuItem_
0004:6796+     DoMenuChar_
0004:689a      ViEndMenu_
0004:6914      DoItemDelete_
0004:6994      DoMenuDelete_
0004:69e6      InitMenu_
0004:6aae      FiniMenu_
0004:6b3a      IsMenuHotKey_
0004:6c4e      ActivateFloatMenu_
0004:6cfa      MenuCommand_
0004:6ec0      BarfMenuData_
0004:7302      HandleInitMenu_
0004:748e      ResetMenuBits_
0004:74f6      MenuItemFileList_
0004:7516      MenuItemLastFiles_
0004:7536      HandleMenuSelect_
0004:7668      GetMenuHelpString_
0004:76b2      SetMenuHelpString_
0004:76ba      DoWindowGadgetMenu_
0004:76dc*     GetCurrentMenuId_
0004:76dc*     GetMenuIdFromCoord_
Module: filesel.obj(/mnt/sda5/.user/root/src/openwatcom-1.9/bld/vi/win/filesel.c)
0004:79d6+     OPENHOOK
0004:7a5e      SelectFileOpen_
0004:7b6e      SelectFileSave_
0004:7c70      GetInitialFileName_
0004:7cea      SelectLineInFile_
Module: flist.obj(/mnt/sda5/.user/root/src/openwatcom-1.9/bld/vi/win/flist.c)
0004:7eda+     FILELISTPROC
0004:7fa4      EditFileFromList_
Module: message.obj(/mnt/sda5/.user/root/src/openwatcom-1.9/bld/vi/win/message.c)
0007:3800      _MessageBar
0004:807e+     MESSAGEWINDOWPROC
0004:811a      NewMsgWindow_
0004:8244      Message1_
0004:82c4      Message1Box_
0004:8344      Message2_
Module: windir.obj(/mnt/sda5/.user/root/src/openwatcom-1.9/bld/vi/win/windir.c)
0007:3820      _FileCompleteWindow
0004:8452+     FILECOMPLETEWINDOWPROC
0004:8524      NewFileCompleteWindow_
Module: contain.obj(/mnt/sda5/.user/root/src/openwatcom-1.9/bld/vi/win/contain.c)
0004:85b4      CreateContainerWindow_
0004:8666+     CONTAINERWINDOWPROC
0007:72a0+     _oldContainerProc
Module: bitmap.obj(/mnt/sda5/.user/root/src/openwatcom-1.9/bld/sdk/misc/bitmap.c)
0004:8bd2      ReadBitmapFile_
Module: palette.obj(/mnt/sda5/.user/root/src/openwatcom-1.9/bld/sdk/misc/palette.c)
0004:8cb0      CreateDIBPalette_
Module: dde.obj(/mnt/sda5/.user/root/src/openwatcom-1.9/bld/vi/win/dde.c)
0007:72b4      _DDEInstId
0007:72b8      _DDERet
0004:8da6+     DDECALLBACK
0004:8e76      CreateStringHandle_
0004:8f88      DeleteStringHandle_
0004:9014      DDEInit_
0004:9064      DDEFini_
0007:3844      _ClipboardFormat
0007:72c0      _ServerCount
0007:72c2      _UseDDE
Module: srcwin.obj(/mnt/sda5/.user/root/src/openwatcom-1.9/bld/vi/win/srcwin.c)
0004:90ba      GetDWORD_
0004:9120      RunWindowsCommand_
Module: srcdde.obj(/mnt/sda5/.user/root/src/openwatcom-1.9/bld/vi/win/srcdde.c)
0004:97bc      RunDDECommand_
Module: tool.obj(/mnt/sda5/.user/root/src/openwatcom-1.9/bld/vi/win/tool.c)
0007:72c4      _ToolBarFloatRect
0004:9f24      HandleToolCommand_
0004:a03e+     ToolBarHelp_
0004:a0a2+     MyToolBarProc_
0004:a33e      NewToolBar_
0004:a3fa      AddBitmapToToolBar_
0004:a660      DeleteFromToolBar_
0004:a704+     CloseToolBar_
0004:a744      DestroyToolBar_
0004:a76a      GetToolbarWindow_
0004:a780      BarfToolBarData_
Module: wintica.obj(/mnt/sda5/.user/root/src/openwatcom-1.9/bld/vi/win/wintica.c)
0004:a800      WindowTile_
0004:a8e6      WindowCascade_
Module: repcnt.obj(/mnt/sda5/.user/root/src/openwatcom-1.9/bld/vi/win/repcnt.c)
0007:3990      _RepeatCountWindow
0004:aa42+     REPEATWINDOWPROC
0004:aacc      NewRepeatCountWindow_
0004:ab50      UpdateRepeatString_
Module: clipbrd.obj(/mnt/sda5/.user/root/src/openwatcom-1.9/bld/vi/win/clipbrd.c)
0004:ac0e      AddLineToClipboard_
0004:acae      AddFcbsToClipboard_
0004:af8a      GetClipboardSavebuf_
0004:b15e      IsClipboardEmpty_
Module: asavedlg.obj(/mnt/sda5/.user/root/src/openwatcom-1.9/bld/vi/win/asavedlg.c)
0004:b19a+     ASAVEDLGPROC
0004:b208      GetAutosaveResponse_
Module: profile.obj(/mnt/sda5/.user/root/src/openwatcom-1.9/bld/vi/win/profile.c)
0004:b4b8+     writeInitialPosition_
0004:b71c      SetSaveConfig_
0004:b724      ReadProfile_
0004:b738      WriteProfile_
0004:b75c      FiniProfile_
Module: finddlg.obj(/mnt/sda5/.user/root/src/openwatcom-1.9/bld/vi/win/finddlg.c)
0004:b798+     FINDDLGPROC
0004:bb10      GetFindStringDialog_
Module: ectlsub.obj(/mnt/sda5/.user/root/src/openwatcom-1.9/bld/vi/win/ectlsub.c)
0004:bdce+     EDITSUBCLASSPROC
0004:be3a      EditSubClass_
0004:be9e      RemoveEditSubClass_
Module: grepdlg.obj(/mnt/sda5/.user/root/src/openwatcom-1.9/bld/vi/win/grepdlg.c)
0004:bee8+     GREPDLGPROC
0004:bf3a      InitGrepDialog_
0004:bf78      FiniGrepDialog_
0004:bfbe      SetGrepDialogFile_
Module: cmddlg.obj(/mnt/sda5/.user/root/src/openwatcom-1.9/bld/vi/win/cmddlg.c)
0004:bff8+     CMDDLGPROC
0004:c23a      GetCmdDialog_
Module: statwnd.obj(/mnt/sda5/.user/root/src/openwatcom-1.9/bld/sdk/misc/statwnd.c)
0004:c4a6+     STATUSWNDCALLBACK
0004:c5f2      StatusWndInit_
0004:c6f8      StatusWndChangeSysColors_
0004:c782      StatusWndCreate_
0004:c7ee+     StatusWndDraw3DBox_
0004:c858+     outputText_
0004:c9e6      StatusWndDrawLine_
0004:caee      StatusWndSetSeparators_
0004:cb30      StatusWndFini_
Module: toolbr.obj(/mnt/sda5/.user/root/src/openwatcom-1.9/bld/sdk/misc/toolbr.c)
0004:ce10*     ToolBarRedrawButtons_
0004:ce3c      ToolBarInit_
0004:cf70      ToolBarChangeSysColors_
0004:d022+     ToolBarDestroy_
0004:d0a6      ToolBarFini_
0004:d0fc      ToolBarAddItem_
0004:d1a8*     ToolBarSetState_
0004:d1de*     ToolBarGetState_
0004:d1fe      ToolBarDeleteItem_
0004:d264      ToolBarDisplay_
0004:d3e4      ToolBarWindow_
0004:d3fa      UpdateToolBar_
0004:da96*     isPointInToolbar_
0004:db42*     HasToolAtPoint_
0004:db5c*     FindToolIDAtPoint_
0004:db88+     TOOLBARWNDPROC
0004:e0a8*     ChangeToolButtonBitmap_
0004:e0f4+     TB_TransparentBlt_
Module: ftbar.obj(/mnt/sda5/.user/root/src/openwatcom-1.9/bld/vi/win/ftbar.c)
0004:e2e0+     ENUMFAMTYPEFACES
0004:e30c+     ENUMFAMINFO
0004:e392+     SETUPFONTDATA
0004:e984+     FTDLGPROC
0004:eb56      RefreshFontbar_
0007:3a1a*     _YPIXELS_PER_INCH
0007:7560*     _lpfnOldSize
0007:7564+     _Style
0007:7568      _CurLogfont
0007:759a+     _NStyles
0007:759c+     _hwndSizeEdit
0007:759e      _hFontbar
0007:75a0+     _NSizes
0007:75a2+     _hwndTypeface
0007:75a4+     _hwndPick
0007:75a6+     _hwndSize
0007:75a8+     _hwndStyle
Module: about.obj(/mnt/sda5/.user/root/src/openwatcom-1.9/bld/sdk/misc/about.c)
0004:ec72+     ABOUTPROC
0004:eeda      DoAbout_
Module: startdlg.obj(/mnt/sda5/.user/root/src/openwatcom-1.9/bld/vi/win/startdlg.c)
0004:ef5c+     STARTUPPROC
0004:effa      ShowStartupDialog_
0004:f032      CloseStartupDialog_
Module: usage.obj(/mnt/sda5/.user/root/src/openwatcom-1.9/bld/vi/win/usage.c)
0004:f076+     USAGEPROC
0004:f132      UsageDialog_
Module: tagdlg.obj(/mnt/sda5/.user/root/src/openwatcom-1.9/bld/vi/win/tagdlg.c)
0004:f1a2+     TAGLISTPROC
0004:f2b8      PickATag_
Module: ldstr.obj(/mnt/sda5/.user/root/src/openwatcom-1.9/bld/sdk/misc/ldstr.c)
0004:f320*     GetRCString_
0004:f342+     AllocRCString_
0004:f3ae      CopyRCString_
0004:f3c8*     FreeRCString_
0004:f3d4      SetInstance_
0004:f3d8      RCsprintf_
0004:f430*     RCfprintf_
0004:f484*     RCvfprintf_
0004:f4c0*     RCMessageBox_
Module: hasshare.obj(/mnt/sda5/.user/root/src/openwatcom-1.9/bld/vi/win/hasshare.c)
0004:f584      HasShare_
Module: getidata.obj(/mnt/sda5/.user/root/src/openwatcom-1.9/bld/vi/win/getidata.c)
0004:f5f0      MyGetInstanceData_
Module: linedlg.obj(/mnt/sda5/.user/root/src/openwatcom-1.9/bld/vi/win/linedlg.c)
0004:f618+     GOTOLINEDLGPROC
0004:f6b0      GetLineDialog_
Module: clrbar.obj(/mnt/sda5/.user/root/src/openwatcom-1.9/bld/vi/win/clrbar.c)
0004:f770+     CLRDLGPROC
0004:f7d6      RefreshColorbar_
0007:79d8      _hColorbar
Module: clrpick.obj(/mnt/sda5/.user/root/src/openwatcom-1.9/bld/vi/win/clrpick.c)
0004:fa7e+     drawFocus_
0004:fe8a+     CLRPICKPROC
0004:ff2c      InitClrPick_
0004:ffaa      FiniClrPick_
0007:7ae6+     _Width
0007:7ae8+     _Height
Module: ftpick.obj(/mnt/sda5/.user/root/src/openwatcom-1.9/bld/vi/win/ftpick.c)
0005:0240+     drawCurLogfont_
0005:0362+     FTPICKPROC
0005:03d6      InitFtPick_
0005:0454      FiniFtPick_
Module: repdlg.obj(/mnt/sda5/.user/root/src/openwatcom-1.9/bld/vi/win/repdlg.c)
0005:0478+     REPDLGPROC
0005:0804      GetReplaceStringDialog_
Module: setfs.obj(/mnt/sda5/.user/root/src/openwatcom-1.9/bld/vi/ctl/setfs.c)
0005:13a6+     SETFSPROC
0005:1558      GetSetFSDialog_
0007:3a7a+     _Dyn_setfs
0007:3a92+     _Ctl_setfs
Module: setscr.obj(/mnt/sda5/.user/root/src/openwatcom-1.9/bld/vi/ctl/setscr.c)
0005:16e2+     SETSCRPROC
0005:17a8      GetSetScrDialog_
0007:3bc4+     _Ctl_setscr
Module: setgen.obj(/mnt/sda5/.user/root/src/openwatcom-1.9/bld/vi/ctl/setgen.c)
0005:1b8a+     SETGENPROC
0005:1c80      GetSetGenDialog_
0007:3c26+     _Dyn_setgen
0007:3c42+     _Ctl_setgen
Module: util.obj(/mnt/sda5/.user/root/src/openwatcom-1.9/bld/vi/ctl/util.c)
0005:1d02      UtilUpdateBoolean_
0005:1d9c      UtilUpdateInt_
0005:1dd4*     UtilUpdateChar_
0005:1e10      UtilUpdateStr_
Module: hotkey.obj(/mnt/sda5/.user/root/src/openwatcom-1.9/bld/vi/win/hotkey.c)
0005:1e80      HOTKEYPROC
Module: ssbar.obj(/mnt/sda5/.user/root/src/openwatcom-1.9/bld/vi/win/ssbar.c)
0007:8c30      _hSSbar
0005:1f4c+     findBlockString_
0005:1f80+     totalRedraw_
0005:1fba+     destroyBlock_
0005:20c4+     splitBlock_
0005:225c+     buildNewItem_
0005:243e+     buildDefaults_
0005:24ae+     buildNewStatusString_
0005:2680+     STATICSUBCLASSPROC
0005:26fa+     addSubclasses_
0005:2762+     removeSubclasses_
0005:27b8+     SSDLGPROC
0005:280e      RefreshSSbar_
Module: subclass.obj(/mnt/sda5/.user/root/src/openwatcom-1.9/bld/vi/win/subclass.c)
0005:2890      SubclassGenericAdd_
0005:2910      SubclassGenericRemove_
0005:298e      SubclassGenericInit_
0005:299c      SubclassGenericFini_
0005:299e      SubclassGenericFindOldProc_
0007:8c40+     _procHead
0007:8c44+     _procTail
Module: snoop.obj(/mnt/sda5/.user/root/src/openwatcom-1.9/bld/vi/win/snoop.c)
0005:29da+     SNOOPDLGPROC
0005:2b8c      GetSnoopStringDialog_
Module: wwinhelp.obj(/mnt/sda5/.user/root/src/openwatcom-1.9/bld/sdk/misc/wwinhelp.c)
0005:2c20      WWinHelp_
0005:2d8a      WHtmlHelp_
Module: hackdctl.obj(/mnt/sda5/.user/root/src/openwatcom-1.9/bld/vi/win/hackdctl.c)
0005:2e9e      ctl_dlg_init_
0005:2f0c      ctl_dlg_done_
0005:2f82      ctl_dlg_process_
0005:2fda      ctl_dlg_reset_
0005:2fee      dyn_tpl_init_
0005:31d0      dyn_tpl_process_
0007:3f90+     _Ctl_int_actions
Module: filetype.obj(/mnt/sda5/.user/root/src/openwatcom-1.9/bld/vi/win/filetype.c)
0005:3cb0      UpdateFileTypeIcon_
Module: exec.obj(/mnt/sda5/.user/root/src/openwatcom-1.9/bld/vi/win/exec.c)
0005:3cc2+     NOTIFYHANDLER
0005:3d20      MySpawn_
Module: doscmds.obj(/mnt/sda5/.user/root/src/openwatcom-1.9/bld/vi/dos/doscmds.c)
0007:4010      _InternalCommands
0007:408c      _InternalCommandCount
0007:4090      _ExeExtensions
0007:409c      _ExeExtensionCount
Module: /mnt/sda5/.user/root/src/openwatcom-1.9/rel2/lib286/win/clibl.lib(cmodel)
0006:0000      _big_code_
0006:0000*     CodeModelMismatch
Module: /mnt/sda5/.user/root/src/openwatcom-1.9/rel2/lib286/win/clibl.lib(tolower.c)
0006:0000      tolower_
Module: /mnt/sda5/.user/root/src/openwatcom-1.9/rel2/lib286/win/clibl.lib(strcspn.c)
0006:000e      strcspn_
Module: /mnt/sda5/.user/root/src/openwatcom-1.9/rel2/lib286/win/clibl.lib(strnicmp.c)
0006:0060      strnicmp_
Module: /mnt/sda5/.user/root/src/openwatcom-1.9/rel2/lib286/win/clibl.lib(strncmp.c)
0006:00b4      strncmp_
Module: /mnt/sda5/.user/root/src/openwatcom-1.9/rel2/lib286/win/clibl.lib(istable.c)
0007:04dc      __IsTable
Module: /mnt/sda5/.user/root/src/openwatcom-1.9/rel2/lib286/win/clibl.lib(strupr.c)
0006:00f6      strupr_
Module: /mnt/sda5/.user/root/src/openwatcom-1.9/rel2/lib286/win/clibl.lib(strncpy.c)
0006:011a      strncpy_
Module: /mnt/sda5/.user/root/src/openwatcom-1.9/rel2/lib286/win/clibl.lib(ltoa.c)
0006:0158      ultoa_
0006:01cb      ltoa_
Module: /mnt/sda5/.user/root/src/openwatcom-1.9/rel2/lib286/win/clibl.lib(atoi.c)
0006:01fc      atoi_
Module: /mnt/sda5/.user/root/src/openwatcom-1.9/rel2/lib286/win/clibl.lib(toupper.c)
0006:0258      toupper_
Module: /mnt/sda5/.user/root/src/openwatcom-1.9/rel2/lib286/win/clibl.lib(strlwr.c)
0006:0266      strlwr_
Module: /mnt/sda5/.user/root/src/openwatcom-1.9/rel2/lib286/win/clibl.lib(fmalloc.c)
0006:028a      malloc_
0006:0295      _fmalloc_
0007:409e+     ___fheap
0007:40a0      ___fheapRover
0007:40a2      ___LargestSizeB4Rover
Module: /mnt/sda5/.user/root/src/openwatcom-1.9/rel2/lib286/win/clibl.lib(fmsize.c)
0006:038d      _msize_
0006:038d      _fmsize_
Module: /mnt/sda5/.user/root/src/openwatcom-1.9/rel2/lib286/win/clibl.lib(ffree.c)
0006:039f      free_
0006:03aa      _ffree_
Module: /mnt/sda5/.user/root/src/openwatcom-1.9/rel2/lib286/win/clibl.lib(frealloc.c)
0006:03e8      realloc_
0006:03f3+     _frealloc_
Module: /mnt/sda5/.user/root/src/openwatcom-1.9/rel2/lib286/win/clibl.lib(getenv.c)
0006:04c8      getenv_
Module: /mnt/sda5/.user/root/src/openwatcom-1.9/rel2/lib286/win/clibl.lib(setenv.c)
0006:058f      setenv_
0006:0882      _setenv_
Module: /mnt/sda5/.user/root/src/openwatcom-1.9/rel2/lib286/win/clibl.lib(argcv.c)
0007:8c4e      __argv
0007:8c52      ___argv
0007:8c56      __argc
0007:8c58      ___argc
Module: /mnt/sda5/.user/root/src/openwatcom-1.9/rel2/lib286/win/clibl.lib(strstr.c)
0006:0b18      strstr_
Module: /mnt/sda5/.user/root/src/openwatcom-1.9/rel2/lib286/win/clibl.lib(cmdname.c)
0006:0bd7      _cmdname_
Module: /mnt/sda5/.user/root/src/openwatcom-1.9/rel2/lib286/win/clibl.lib(itoa.c)
0006:0c16      utoa_
0006:0c79      itoa_
Module: /mnt/sda5/.user/root/src/openwatcom-1.9/rel2/lib286/win/clibl.lib(setjmp)
0006:0ca2      _setjmp_
0006:0cd8      longjmp_
Module: /mnt/sda5/.user/root/src/openwatcom-1.9/rel2/lib286/win/clibl.lib(fopen.c)
0006:0d1b      __open_flags_
0006:0f2b+     _fsopen_
0006:0f96      fopen_
0006:1073*     freopen_
Module: /mnt/sda5/.user/root/src/openwatcom-1.9/rel2/lib286/win/clibl.lib(fgets.c)
0006:1111      fgets_
Module: /mnt/sda5/.user/root/src/openwatcom-1.9/rel2/lib286/win/clibl.lib(fclose.c)
0006:11a9      __doclose_
0006:1265      __shutdown_stream_
0006:1282      fclose_
0007:8c5a+     ___RmTmpFileFn
Module: /mnt/sda5/.user/root/src/openwatcom-1.9/rel2/lib286/win/clibl.lib(stricmp.c)
0006:12d2      stricmp_
Module: /mnt/sda5/.user/root/src/openwatcom-1.9/rel2/lib286/win/clibl.lib(fullpath.c)
0006:1310+     _sys_fullpath_
0006:15c6      _fullpath_
Module: /mnt/sda5/.user/root/src/openwatcom-1.9/rel2/lib286/win/clibl.lib(splitpat.c)
0006:16df      _splitpath_
Module: /mnt/sda5/.user/root/src/openwatcom-1.9/rel2/lib286/win/clibl.lib(makepath.c)
0006:1807      _makepath_
Module: /mnt/sda5/.user/root/src/openwatcom-1.9/rel2/lib286/win/clibl.lib(dir.c)
0006:1ac5+     _opendir_
0006:1c8e      opendir_
0006:1ca0      readdir_
0006:1ce1      closedir_
0006:1d3e*     rewinddir_
Module: /mnt/sda5/.user/root/src/openwatcom-1.9/rel2/lib286/win/clibl.lib(qsort.c)
0006:1dfa      qsort_
Module: /mnt/sda5/.user/root/src/openwatcom-1.9/rel2/lib286/win/clibl.lib(i4m)
0006:2384      __I4M
0006:2384      __U4M
Module: /mnt/sda5/.user/root/src/openwatcom-1.9/rel2/lib286/win/clibl.lib(i4d)
0006:239c      __I4D
0006:23eb      __U4D
Module: /mnt/sda5/.user/root/src/openwatcom-1.9/rel2/lib286/win/clibl.lib(strncat.c)
0006:246f      strncat_
Module: /mnt/sda5/.user/root/src/openwatcom-1.9/rel2/lib286/win/clibl.lib(accss.c)
0006:24b0      access_
Module: /mnt/sda5/.user/root/src/openwatcom-1.9/rel2/lib286/win/clibl.lib(errno.c)
0006:24ed      __get_errno_ptr_
0006:24f3      __get_doserrno_ptr_
0007:8c5e+     _errno
0007:8c60+     __doserrno
Module: /mnt/sda5/.user/root/src/openwatcom-1.9/rel2/lib286/win/clibl.lib(exit.c)
0006:24f9+     __null_int23_exit_
0006:24fa      exit_
0006:2533      _exit_
0007:40a4+     ___int23_exit
0007:40a8+     ___FPE_handler_exit
Module: /mnt/sda5/.user/root/src/openwatcom-1.9/rel2/lib286/win/clibl.lib(clockwin.c)
0006:2546      clock_
Module: /mnt/sda5/.user/root/src/openwatcom-1.9/rel2/lib286/win/clibl.lib(open.c)
0006:27a1      open_
0006:27dc      sopen_
Module: /mnt/sda5/.user/root/src/openwatcom-1.9/rel2/lib286/win/clibl.lib(close.c)
0006:280a      close_
Module: /mnt/sda5/.user/root/src/openwatcom-1.9/rel2/lib286/win/clibl.lib(remove.c)
0006:2816      remove_
Module: /mnt/sda5/.user/root/src/openwatcom-1.9/rel2/lib286/win/clibl.lib(gtpid.c)
0006:2822      getpid_
Module: /mnt/sda5/.user/root/src/openwatcom-1.9/rel2/lib286/win/clibl.lib(strerror.c)
0006:2826      strerror_
0006:2848*     _strerror_
0007:40ac+     __sys_errlist
0007:4150+     __sys_nerr
Module: /mnt/sda5/.user/root/src/openwatcom-1.9/rel2/lib286/win/clibl.lib(fdopen.c)
0006:295d      fdopen_
Module: /mnt/sda5/.user/root/src/openwatcom-1.9/rel2/lib286/win/clibl.lib(renam.c)
0006:2a5a      rename_
Module: /mnt/sda5/.user/root/src/openwatcom-1.9/rel2/lib286/win/clibl.lib(strtol.c)
0006:2cc2      strtoul_
0006:2cd6      strtol_
Module: /mnt/sda5/.user/root/src/openwatcom-1.9/rel2/lib286/win/clibl.lib(fprintf.c)
0006:2ce0      fprintf_
Module: /mnt/sda5/.user/root/src/openwatcom-1.9/rel2/lib286/win/clibl.lib(printf.c)
0006:2d12      printf_
Module: /mnt/sda5/.user/root/src/openwatcom-1.9/rel2/lib286/win/clibl.lib(time.c)
0006:2d43      time_
Module: /mnt/sda5/.user/root/src/openwatcom-1.9/rel2/lib286/win/clibl.lib(localtim.c)
0006:2d93      _localtime_
0006:2e1d      localtime_
Module: /mnt/sda5/.user/root/src/openwatcom-1.9/rel2/lib286/win/clibl.lib(strftime.c)
0006:2ecc      strftime_
Module: /mnt/sda5/.user/root/src/openwatcom-1.9/rel2/lib286/win/clibl.lib(atol.c)
0006:3407      atol_
Module: /mnt/sda5/.user/root/src/openwatcom-1.9/rel2/lib286/win/clibl.lib(stack086.c)
0006:3477      stackavail_
Module: /mnt/sda5/.user/root/src/openwatcom-1.9/rel2/lib286/win/clibl.lib(gtcwd.c)
0006:3484      getcwd_
Module: /mnt/sda5/.user/root/src/openwatcom-1.9/rel2/lib286/win/clibl.lib(chdir.c)
0006:3538      chdir_
Module: /mnt/sda5/.user/root/src/openwatcom-1.9/rel2/lib286/win/clibl.lib(isatt.c)
0006:3554      isatty_
Module: /mnt/sda5/.user/root/src/openwatcom-1.9/rel2/lib286/win/clibl.lib(tell.c)
0006:3595      tell_
Module: /mnt/sda5/.user/root/src/openwatcom-1.9/rel2/lib286/win/clibl.lib(lseek.c)
0006:35ac      lseek_
Module: /mnt/sda5/.user/root/src/openwatcom-1.9/rel2/lib286/win/clibl.lib(searchen.c)
0006:35e3      _searchenv_
Module: /mnt/sda5/.user/root/src/openwatcom-1.9/rel2/lib286/win/clibl.lib(tmpnm.c)
0006:37fb      tmpnam_
Module: /mnt/sda5/.user/root/src/openwatcom-1.9/rel2/lib286/win/clibl.lib(sprintf.c)
0006:38fc      sprintf_
Module: /mnt/sda5/.user/root/src/openwatcom-1.9/rel2/lib286/win/clibl.lib(strrchr.c)
0006:392e      strrchr_
Module: /mnt/sda5/.user/root/src/openwatcom-1.9/rel2/lib286/win/clibl.lib(read.c)
0006:3959      read_
Module: /mnt/sda5/.user/root/src/openwatcom-1.9/rel2/lib286/win/clibl.lib(fputc.c)
0006:3ada      fputc_
Module: /mnt/sda5/.user/root/src/openwatcom-1.9/rel2/lib286/win/clibl.lib(iob.c)
0007:41de      ___iob
0007:4346      __fmode
0007:8d86      ___OpenStreams
0007:8d8a      ___ClosedStreams
Module: /mnt/sda5/.user/root/src/openwatcom-1.9/rel2/lib286/win/clibl.lib(memmove.c)
0006:3bcc      memmove_
Module: /mnt/sda5/.user/root/src/openwatcom-1.9/rel2/lib286/win/clibl.lib(setvbuf.c)
0006:3c45      setvbuf_
Module: /mnt/sda5/.user/root/src/openwatcom-1.9/rel2/lib286/win/clibl.lib(write.c)
0006:3e59      write_
Module: /mnt/sda5/.user/root/src/openwatcom-1.9/rel2/lib286/win/clibl.lib(fread.c)
0006:404f      fread_
Module: /mnt/sda5/.user/root/src/openwatcom-1.9/rel2/lib286/win/clibl.lib(fwrite.c)
0006:4278      fwrite_
Module: /mnt/sda5/.user/root/src/openwatcom-1.9/rel2/lib286/win/clibl.lib(chmod.c)
0006:44a5      chmod_
Module: /mnt/sda5/.user/root/src/openwatcom-1.9/rel2/lib286/win/clibl.lib(setmd.c)
0006:44ee      setmode_
Module: /mnt/sda5/.user/root/src/openwatcom-1.9/rel2/lib286/win/clibl.lib(wstart)
0000:0006*     pLocalHeap
0000:0008*     pAtomTable
0000:000a*     pStackTop
0000:000c*     pStackMin
0000:000e*     pStackBot
0007:0000*     __nullarea
0007:434a      __curbrk
0007:434c      __psp
0007:434e      __osmajor
0007:434f*     __osminor
0007:4350      __osmode
0007:000a      __STACKLOW
0007:000c*     __STACKTOP
0007:4352      __cbyte
0007:4354*     __child
0007:4356      __no87
0007:4351      __HShift
0007:4358*     __get_ovl_stack
0007:435c*     __restore_ovl_stack
0007:4360*     ___FPE_handler
0007:4364      __LpCmdLine
0007:4368      __LpPgmName
0006:45ac      _wstart_
0006:45ac*     _cstart_
0006:468d      __exit_
0006:469e      __GETDS
Module: /mnt/sda5/.user/root/src/openwatcom-1.9/rel2/lib286/win/clibl.lib(strpbrk.c)
0006:46a0      strpbrk_
Module: /mnt/sda5/.user/root/src/openwatcom-1.9/rel2/lib286/win/clibl.lib(finddos.c)
0006:46f7      _dos_findfirst_
0006:472c      _dos_findnext_
0006:4745      _dos_findclose_
Module: /mnt/sda5/.user/root/src/openwatcom-1.9/rel2/lib286/win/clibl.lib(asctime.c)
0006:4764+     _asctime_
0006:4874*     asctime_
0006:4888*     _ctime_
0006:48a9      ctime_
Module: /mnt/sda5/.user/root/src/openwatcom-1.9/rel2/lib286/win/clibl.lib(bsearch.c)
0006:48bb      bsearch_
Module: /mnt/sda5/.user/root/src/openwatcom-1.9/rel2/lib286/win/clibl.lib(delay.c)
0006:4960      delay_
Module: /mnt/sda5/.user/root/src/openwatcom-1.9/rel2/lib286/win/clibl.lib(dosdrive)
0006:4ac2      _dos_getdrive_
0006:4ad6      _dos_setdrive_
Module: /mnt/sda5/.user/root/src/openwatcom-1.9/rel2/lib286/win/clibl.lib(fseek.c)
0006:4b66      fseek_
Module: /mnt/sda5/.user/root/src/openwatcom-1.9/rel2/lib286/win/clibl.lib(pia)
0006:4ccf      __PIA
0006:4cc8*     __PIS
Module: /mnt/sda5/.user/root/src/openwatcom-1.9/rel2/lib286/win/clibl.lib(haloc.c)
0006:4cf4      halloc_
0006:4d3f      hfree_
Module: /mnt/sda5/.user/root/src/openwatcom-1.9/rel2/lib286/win/clibl.lib(stat.c)
0006:4dcd      stat_
Module: /mnt/sda5/.user/root/src/openwatcom-1.9/rel2/lib286/win/clibl.lib(_istrcmp.asm)
0006:50c8      strcmpi_
Module: /mnt/sda5/.user/root/src/openwatcom-1.9/rel2/lib286/win/clibl.lib(vsprintf.c)
0006:50f4      vsprintf_
Module: /mnt/sda5/.user/root/src/openwatcom-1.9/rel2/lib286/win/clibl.lib(vfprintf.c)
0006:5122      vfprintf_
Module: /mnt/sda5/.user/root/src/openwatcom-1.9/rel2/lib286/win/clibl.lib(intd086.c)
0006:5136      intdos_
Module: /mnt/sda5/.user/root/src/openwatcom-1.9/rel2/lib286/win/clibl.lib(opendos.c)
0006:519e      _dos_open_
Module: /mnt/sda5/.user/root/src/openwatcom-1.9/rel2/lib286/win/clibl.lib(filedos.c)
0006:51c6      _dos_close_
0006:51da      _dos_commit_
Module: /mnt/sda5/.user/root/src/openwatcom-1.9/rel2/lib286/win/clibl.lib(mbisdbcs.c)
0007:8da8      ___IsDBCS
Module: /mnt/sda5/.user/root/src/openwatcom-1.9/rel2/lib286/win/emu87.lib(initemuw.asm)
0000:8000*     FJSRQQ
0000:0632*     FISRQQ
0000:1632      FIERQQ
0000:5c32      FIDRQQ
0000:a23d      FIWRQQ
0000:c000*     FJCRQQ
0000:4000*     FJARQQ
0000:0e32*     FICRQQ
0000:fe32*     FIARQQ
0006:51ee      __init_87_emulator
0006:522d*     __fini_87_emulator
0006:523c*     _userfpe
Module: /mnt/sda5/.user/root/src/openwatcom-1.9/rel2/lib286/win/clibl.lib(sscanf.c)
0006:528d+     vsscanf_
0006:52c5      sscanf_
Module: /mnt/sda5/.user/root/src/openwatcom-1.9/rel2/lib286/win/clibl.lib(fltused.c)
0007:43fc      _fltused_
Module: /mnt/sda5/.user/root/src/openwatcom-1.9/rel2/lib286/win/clibl.lib(_8087)
0007:43fe      __8087
0007:43ff      __real87
Module: /mnt/sda5/.user/root/src/openwatcom-1.9/rel2/lib286/win/clibl.lib(setbits.c)
0006:52f6      __setbits_
Module: /mnt/sda5/.user/root/src/openwatcom-1.9/rel2/lib286/win/clibl.lib(bits.c)
0007:06b0      __Bits
Module: /mnt/sda5/.user/root/src/openwatcom-1.9/rel2/lib286/win/clibl.lib(alphabet.c)
0007:0422      ___Alphabet
Module: /mnt/sda5/.user/root/src/openwatcom-1.9/rel2/lib286/win/clibl.lib(mem.c)
0006:5350      __MemAllocator
0006:541e      __MemFree
Module: /mnt/sda5/.user/root/src/openwatcom-1.9/rel2/lib286/win/clibl.lib(growseg.c)
0006:557d      __GrowSeg_
Module: /mnt/sda5/.user/root/src/openwatcom-1.9/rel2/lib286/win/clibl.lib(allocseg.c)
0006:56b7      __AllocSeg_
Module: /mnt/sda5/.user/root/src/openwatcom-1.9/rel2/lib286/win/clibl.lib(fmemneed.c)
0006:5791      __fmemneed_
Module: /mnt/sda5/.user/root/src/openwatcom-1.9/rel2/lib286/win/clibl.lib(nmalloc.c)
0006:5794      _nmalloc_
0007:4400      ___nheapbeg
0007:4402      ___MiniHeapRover
0007:4404      ___LargestSizeB4MiniHeapRover
Module: /mnt/sda5/.user/root/src/openwatcom-1.9/rel2/lib286/win/clibl.lib(nfree.c)
0006:5858      _nfree_
0007:8daa      ___MiniHeapFreeRover
Module: /mnt/sda5/.user/root/src/openwatcom-1.9/rel2/lib286/win/clibl.lib(nexpand.c)
0006:5923      __HeapManager_expand_
0006:5ac0      _nexpand_
Module: /mnt/sda5/.user/root/src/openwatcom-1.9/rel2/lib286/win/clibl.lib(fexpand.c)
0006:5aec*     _expand_
0006:5af7      _fexpand_
Module: /mnt/sda5/.user/root/src/openwatcom-1.9/rel2/lib286/win/clibl.lib(environ.c)
0007:8dac      ___env_mask
0007:8db0      _environ
0007:8db4      __wenviron
Module: /mnt/sda5/.user/root/src/openwatcom-1.9/rel2/lib286/win/clibl.lib(mbterm.c)
0006:5b33      _mbterm_
Module: /mnt/sda5/.user/root/src/openwatcom-1.9/rel2/lib286/win/clibl.lib(mbsnextc.c)
0006:5b6f      _mbsnextc_
Module: /mnt/sda5/.user/root/src/openwatcom-1.9/rel2/lib286/win/clibl.lib(mbcupper.c)
0006:5b9b      _mbctoupper_
Module: /mnt/sda5/.user/root/src/openwatcom-1.9/rel2/lib286/win/clibl.lib(mbsinc.c)
0006:5bbf      _mbsinc_
Module: /mnt/sda5/.user/root/src/openwatcom-1.9/rel2/lib286/win/clibl.lib(mbslen.c)
0006:5bf4      _mbslen_
Module: /mnt/sda5/.user/root/src/openwatcom-1.9/rel2/lib286/win/clibl.lib(mbstowcs.c)
0006:5c26      mbstowcs_
Module: /mnt/sda5/.user/root/src/openwatcom-1.9/rel2/lib286/win/clibl.lib(usetenv.c)
0006:5cd3*     _wsetenv_
0006:5f35      __wsetenv_
Module: /mnt/sda5/.user/root/src/openwatcom-1.9/rel2/lib286/win/clibl.lib(seterrno.c)
0006:612e      __set_errno_
0006:6149*     __set_EDOM_
0006:6160      __set_ERANGE_
0006:6176*     __set_EINVAL_
0006:618f      __set_doserrno_
Module: /mnt/sda5/.user/root/src/openwatcom-1.9/rel2/lib286/win/clibl.lib(initargv.c)
0006:619f      __Init_Argv_
0006:61f5+     _getargv_
0006:641c      __Fini_Argv_
Module: /mnt/sda5/.user/root/src/openwatcom-1.9/rel2/lib286/win/clibl.lib(ljmphdl.c)
0007:4406      ___longjmp_handler
Module: /mnt/sda5/.user/root/src/openwatcom-1.9/rel2/lib286/win/clibl.lib(comtflag.c)
0006:643c*     __set_commode_
0007:440a      __commode
Module: /mnt/sda5/.user/root/src/openwatcom-1.9/rel2/lib286/win/clibl.lib(chktty.c)
0006:6443      __chktty_
Module: /mnt/sda5/.user/root/src/openwatcom-1.9/rel2/lib286/win/clibl.lib(freefp.c)
0006:6479      __freefp_
0006:64f5      __purgefp_
Module: /mnt/sda5/.user/root/src/openwatcom-1.9/rel2/lib286/win/clibl.lib(allocfp.c)
0006:652e      __allocfp_
Module: /mnt/sda5/.user/root/src/openwatcom-1.9/rel2/lib286/win/clibl.lib(winrtns.c)
0007:440c      __WindowsIsWindowedHandle
0007:4410      __WindowsRemoveWindowedHandle
0007:4414      __WindowsNewWindow
0007:4418      __WindowsCloseWindow
0007:441c*     __WindowsSetAbout
0007:4420*     __WindowsSetAppTitle
0007:4424*     __WindowsSetConTitle
0007:4428*     __WindowsDestroyOnClose
0007:442c*     __WindowsYieldControl
0007:4430*     __WindowsShutDown
0007:4434      __WindowsStdin
0007:4438      __WindowsStdout
0007:443c*     __WindowsKbhit
0007:4440*     __WindowsGetch
0007:4444      __WindowsGetche
0007:4448*     __WindowsPutch
0007:444c      __WindowsExitRtn
Module: /mnt/sda5/.user/root/src/openwatcom-1.9/rel2/lib286/win/clibl.lib(fgetc.c)
0006:6646      __fill_buffer_
0006:6763      fgetc_
Module: /mnt/sda5/.user/root/src/openwatcom-1.9/rel2/lib286/win/clibl.lib(__lseek.c)
0006:682c      __lseek_
Module: /mnt/sda5/.user/root/src/openwatcom-1.9/rel2/lib286/win/clibl.lib(_clse.c)
0006:6869      __close_
Module: /mnt/sda5/.user/root/src/openwatcom-1.9/rel2/lib286/win/clibl.lib(flush.c)
0006:68cf      __flush_
Module: /mnt/sda5/.user/root/src/openwatcom-1.9/rel2/lib286/win/clibl.lib(stk)
0006:6a27      __STK
0006:6a3e      __STKOVERFLOW_
Module: /mnt/sda5/.user/root/src/openwatcom-1.9/rel2/lib286/win/clibl.lib(mbsnccnt.c)
0006:6a5b      _mbsnccnt_
Module: /mnt/sda5/.user/root/src/openwatcom-1.9/rel2/lib286/win/clibl.lib(mbsncpy.c)
0006:6a95      _mbsncpy_
Module: /mnt/sda5/.user/root/src/openwatcom-1.9/rel2/lib286/win/clibl.lib(mbsnbcnt.c)
0006:6ace      _mbsnbcnt_
Module: /mnt/sda5/.user/root/src/openwatcom-1.9/rel2/lib286/win/clibl.lib(mbconv.c)
0006:6b40      _mbvtop_
Module: /mnt/sda5/.user/root/src/openwatcom-1.9/rel2/lib286/win/clibl.lib(mbclen.c)
0006:6b58      _mbclen_
Module: /mnt/sda5/.user/root/src/openwatcom-1.9/rel2/lib286/win/clibl.lib(mbsdec.c)
0006:6b7f      _mbsdec_
Module: /mnt/sda5/.user/root/src/openwatcom-1.9/rel2/lib286/win/clibl.lib(dosret.c)
0006:6c05      _dosretax_
0006:6c17*     _dosret0_
0006:6c2b      __set_errno_dos_
0006:6c85*     __set_errno_dos_reterr_
Module: /mnt/sda5/.user/root/src/openwatcom-1.9/rel2/lib286/win/clibl.lib(strdup.c)
0006:6c96      __clib_strdup_
Module: /mnt/sda5/.user/root/src/openwatcom-1.9/rel2/lib286/win/clibl.lib(gfattdos.c)
0006:6cf2      _dos_getfileattr_
Module: /mnt/sda5/.user/root/src/openwatcom-1.9/rel2/lib286/win/clibl.lib(initrtns.c)
0006:6d4c      __FInitRtns
0006:6d57+     __InitRtns
0006:6db5      __FFiniRtns
0006:6dc0      __FiniRtns
Module: /mnt/sda5/.user/root/src/openwatcom-1.9/rel2/lib286/win/clibl.lib(iomode.c)
0006:6e24      __GetIOMode_
0006:6e40      __SetIOMode_nogrow_
0007:4466      ___NFiles
0007:4468      ___init_mode
0007:4490      ___io_mode
Module: /mnt/sda5/.user/root/src/openwatcom-1.9/rel2/lib286/win/clibl.lib(umaskval.c)
0007:4494      ___umaskval
Module: /mnt/sda5/.user/root/src/openwatcom-1.9/rel2/lib286/win/clibl.lib(creatdos.c)
0006:6e5a      _dos_creat_
0006:6e80*     _dos_creatnew_
Module: /mnt/sda5/.user/root/src/openwatcom-1.9/rel2/lib286/win/clibl.lib(stiomode.c)
0006:6ea3+     __grow_iomode_
0006:6f5e+     __shrink_iomode_
0006:6f91      __SetIOMode_
Module: /mnt/sda5/.user/root/src/openwatcom-1.9/rel2/lib286/win/clibl.lib(unlnk.c)
0006:6fea      unlink_
Module: /mnt/sda5/.user/root/src/openwatcom-1.9/rel2/lib286/win/clibl.lib(doserror)
0006:7006      __doserror_
Module: /mnt/sda5/.user/root/src/openwatcom-1.9/rel2/lib286/win/clibl.lib(fprtf.c)
0006:7037      __fprtf_
Module: /mnt/sda5/.user/root/src/openwatcom-1.9/rel2/lib286/win/clibl.lib(gtctm.c)
0006:711c      __getctime_
Module: /mnt/sda5/.user/root/src/openwatcom-1.9/rel2/lib286/win/clibl.lib(mktime.c)
0006:71b3      mktime_
Module: /mnt/sda5/.user/root/src/openwatcom-1.9/rel2/lib286/win/clibl.lib(tzset.c)
0007:4496      ___start_dst
0007:44a8      ___end_dst
0007:45bc      _tzname
0007:45c4      _timezone
0007:45c8      _daylight
0007:45ca      ___dst_adjust
0006:7266*     __DontCacheOSTZ_
0006:727a*     __CacheOSTZ_
0006:7808+     __parse_tz_
0006:79a3      tzset_
Module: /mnt/sda5/.user/root/src/openwatcom-1.9/rel2/lib286/win/clibl.lib(gmtime.c)
0006:7a1a      __brktime_
0006:7b88+     _gmtime_
0006:7bb3*     gmtime_
Module: /mnt/sda5/.user/root/src/openwatcom-1.9/rel2/lib286/win/clibl.lib(timeutil.c)
0006:7d0a      __isindst_
Module: /mnt/sda5/.user/root/src/openwatcom-1.9/rel2/lib286/win/clibl.lib(leapyear.c)
0006:801d      __leapyear_
0007:044c      ___diyr
0007:0466      ___dilyr
Module: /mnt/sda5/.user/root/src/openwatcom-1.9/rel2/lib286/win/clibl.lib(strlen.c)
0006:8047      strlen_
Module: /mnt/sda5/.user/root/src/openwatcom-1.9/rel2/lib286/win/clibl.lib(strcat.c)
0006:8062      strcat_
Module: /mnt/sda5/.user/root/src/openwatcom-1.9/rel2/lib286/win/clibl.lib(iomodtty.c)
0006:8098      __ChkTTYIOMode_
0006:80d8*     __IOMode_
Module: /mnt/sda5/.user/root/src/openwatcom-1.9/rel2/lib286/win/clibl.lib(ioalloc.c)
0006:80ee      __ioalloc_
Module: /mnt/sda5/.user/root/src/openwatcom-1.9/rel2/lib286/win/clibl.lib(initfile.c)
0006:81ac      __InitFiles_
Module: /mnt/sda5/.user/root/src/openwatcom-1.9/rel2/lib286/win/clibl.lib(ioexit.c)
0006:82f4*     fcloseall_
0006:8301      __full_io_exit_
Module: /mnt/sda5/.user/root/src/openwatcom-1.9/rel2/lib286/win/clibl.lib(qread.c)
0006:8312      __qread_
Module: /mnt/sda5/.user/root/src/openwatcom-1.9/rel2/lib286/win/clibl.lib(qwrit.c)
0006:8366      __qwrite_
Module: /mnt/sda5/.user/root/src/openwatcom-1.9/rel2/lib286/win/clibl.lib(sfattdos.c)
0006:83fb      _dos_setfileattr_
Module: /mnt/sda5/.user/root/src/openwatcom-1.9/rel2/lib286/win/clibl.lib(dosseg)
0006:8416      __DOSseg__
Module: /mnt/sda5/.user/root/src/openwatcom-1.9/rel2/lib286/win/clibl.lib(freeseg.c)
0006:8449+     __DoFreeSeg_
0006:8481      __FreeSeg_
Module: /mnt/sda5/.user/root/src/openwatcom-1.9/rel2/lib286/win/clibl.lib(mbschr.c)
0006:8493      _mbschr_
Module: /mnt/sda5/.user/root/src/openwatcom-1.9/rel2/lib286/win/clibl.lib(mbscmp.c)
0006:851c      _mbscmp_
Module: /mnt/sda5/.user/root/src/openwatcom-1.9/rel2/lib286/win/clibl.lib(mbspbrk.c)
0006:85ba      _mbspbrk_
Module: /mnt/sda5/.user/root/src/openwatcom-1.9/rel2/lib286/win/clibl.lib(fstat.c)
0006:8615      fstat_
Module: /mnt/sda5/.user/root/src/openwatcom-1.9/rel2/lib286/win/clibl.lib(d2ttime.c)
0006:878f      _d2ttime_
Module: /mnt/sda5/.user/root/src/openwatcom-1.9/rel2/lib286/win/clibl.lib(prtf.c)
0006:87ff      __prtf_
Module: /mnt/sda5/.user/root/src/openwatcom-1.9/rel2/lib286/win/clibl.lib(init8087)
0006:96dc      __init_8087_emu
0006:96e2      __x87id
Module: /mnt/sda5/.user/root/src/openwatcom-1.9/rel2/lib286/win/clibl.lib(sigfpe.c)
0006:9721      __raise_fpe_
0006:9729+     __sigfpe_handler_
Module: /mnt/sda5/.user/root/src/openwatcom-1.9/rel2/lib286/win/clibl.lib(scnf.c)
0006:a700      __scnf_
Module: /mnt/sda5/.user/root/src/openwatcom-1.9/rel2/lib286/win/clibl.lib(setefg.c)
0006:a99d      __setEFGfmt_
Module: /mnt/sda5/.user/root/src/openwatcom-1.9/rel2/lib286/win/clibl.lib(chk8087.c)
0006:a9de*     _fpreset_
0006:a9f8      __init_8087_
0006:aa33      __chk8087_
Module: /mnt/sda5/.user/root/src/openwatcom-1.9/rel2/lib286/win/clibl.lib(heapen.c)
0006:aa6f*     _heapenable_
0007:45f2      ___heap_enabled
Module: /mnt/sda5/.user/root/src/openwatcom-1.9/rel2/lib286/win/clibl.lib(amblksiz.c)
0007:45f4      __amblksiz
Module: /mnt/sda5/.user/root/src/openwatcom-1.9/rel2/lib286/win/clibl.lib(wallflgs.c)
0007:45f6      ___win_alloc_flags
0007:45fa      ___win_realloc_flags
Module: /mnt/sda5/.user/root/src/openwatcom-1.9/rel2/lib286/win/clibl.lib(nmemneed.c)
0006:aa7b      __nmemneed_
Module: /mnt/sda5/.user/root/src/openwatcom-1.9/rel2/lib286/win/clibl.lib(grownear.c)
0006:ab9b      __ExpandDGROUP_
Module: /mnt/sda5/.user/root/src/openwatcom-1.9/rel2/lib286/win/clibl.lib(bfree.c)
0006:abb0      _bfree_
Module: /mnt/sda5/.user/root/src/openwatcom-1.9/rel2/lib286/win/clibl.lib(bexpand.c)
0006:abda      _bexpand_
Module: /mnt/sda5/.user/root/src/openwatcom-1.9/rel2/lib286/win/clibl.lib(setenvp.c)
0006:ac36      __setenvp_
0006:ad36      __freeenvp_
Module: /mnt/sda5/.user/root/src/openwatcom-1.9/rel2/lib286/win/clibl.lib(mbislead.c)
0006:ad80*     _ismbblead_
0007:8dd4      ___MBCSIsTable
Module: /mnt/sda5/.user/root/src/openwatcom-1.9/rel2/lib286/win/clibl.lib(mbinit.c)
0006:add2      __mbinit_
0007:45fe      ___MBCodePage
Module: /mnt/sda5/.user/root/src/openwatcom-1.9/rel2/lib286/win/clibl.lib(mbdtoupp.c)
0006:ae70      _mbdtoupper_
Module: /mnt/sda5/.user/root/src/openwatcom-1.9/rel2/lib286/win/clibl.lib(mbtowc.c)
0006:ae7e      mbtowc_
Module: /mnt/sda5/.user/root/src/openwatcom-1.9/rel2/lib286/win/clibl.lib(crtwenv.c)
0006:af67      __create_wide_environment_
Module: /mnt/sda5/.user/root/src/openwatcom-1.9/rel2/lib286/win/clibl.lib(ugetenv.c)
0006:aff2      _wgetenv_
Module: /mnt/sda5/.user/root/src/openwatcom-1.9/rel2/lib286/win/clibl.lib(ustrlen.c)
0006:b0a4      wcslen_
Module: /mnt/sda5/.user/root/src/openwatcom-1.9/rel2/lib286/win/clibl.lib(wcstombs.c)
0006:b0bb      wcstombs_
Module: /mnt/sda5/.user/root/src/openwatcom-1.9/rel2/lib286/win/clibl.lib(utoupper.c)
0006:b169      towupper_
Module: /mnt/sda5/.user/root/src/openwatcom-1.9/rel2/lib286/win/clibl.lib(memcpy.c)
0006:b177      memcpy_
Module: /mnt/sda5/.user/root/src/openwatcom-1.9/rel2/lib286/win/clibl.lib(ustrcpy.c)
0006:b19e      wcscpy_
Module: /mnt/sda5/.user/root/src/openwatcom-1.9/rel2/lib286/win/clibl.lib(histsplt.c)
0007:8ed6      ___historical_splitparms
Module: /mnt/sda5/.user/root/src/openwatcom-1.9/rel2/lib286/win/clibl.lib(___argc.c)
0007:8ed8      ____Argv
0007:8edc      ____Argc
Module: /mnt/sda5/.user/root/src/openwatcom-1.9/rel2/lib286/win/clibl.lib(flushall.c)
0006:b1c6      __flushall_
0006:b229*     flushall_
Module: /mnt/sda5/.user/root/src/openwatcom-1.9/rel2/lib286/win/clibl.lib(gtche.c)
0006:b237      getche_
Module: /mnt/sda5/.user/root/src/openwatcom-1.9/rel2/lib286/win/clibl.lib(fsync.c)
0006:b26c      fsync_
Module: /mnt/sda5/.user/root/src/openwatcom-1.9/rel2/lib286/win/clibl.lib(xmsgwin.c)
0006:b278+     __exit_with_msg_
0006:b2d9      __fatal_runtime_error_
Module: /mnt/sda5/.user/root/src/openwatcom-1.9/rel2/lib286/win/clibl.lib(mbsnbcpy.c)
0006:b2f6      _mbsnbcpy_
Module: /mnt/sda5/.user/root/src/openwatcom-1.9/rel2/lib286/win/clibl.lib(sgdef086)
0007:46d6      __Start_XI
0007:470c      __End_XI
0007:470c      __Start_YI
0007:472a      __End_YI
Module: /mnt/sda5/.user/root/src/openwatcom-1.9/rel2/lib286/win/clibl.lib(locmktim.c)
0006:b374      __local_mktime_
Module: /mnt/sda5/.user/root/src/openwatcom-1.9/rel2/lib286/win/clibl.lib(mbccmp.c)
0006:b546      _mbccmp_
Module: /mnt/sda5/.user/root/src/openwatcom-1.9/rel2/lib286/win/clibl.lib(filelen.c)
0006:b59a      filelength_
Module: /mnt/sda5/.user/root/src/openwatcom-1.9/rel2/lib286/win/clibl.lib(wctomb.c)
0006:b5fb      wctomb_
Module: /mnt/sda5/.user/root/src/openwatcom-1.9/rel2/lib286/win/clibl.lib(noefgfmt.c)
0007:4600      ___EFG_printf
0007:4604      ___EFG_scanf
Module: /mnt/sda5/.user/root/src/openwatcom-1.9/rel2/lib286/win/clibl.lib(lltoa.c)
0006:b63f      ulltoa_
0006:b728*     lltoa_
Module: /mnt/sda5/.user/root/src/openwatcom-1.9/rel2/lib286/win/clibl.lib(8087cw.c)
0007:4608      __8087cw
Module: /mnt/sda5/.user/root/src/openwatcom-1.9/rel2/lib286/win/clibl.lib(sigtab.c)
0007:460a      __SignalTable
Module: /mnt/sda5/.user/root/src/openwatcom-1.9/rel2/lib286/win/clibl.lib(fdfs086)
0006:b78c      __FDFS
Module: /mnt/sda5/.user/root/src/openwatcom-1.9/rel2/lib286/win/clibl.lib(i8m086)
0006:b7ef*     __I8M
0006:b7ef      __U8M
0006:b7d4*     __I8ME
0006:b7d4*     __U8ME
Module: /mnt/sda5/.user/root/src/openwatcom-1.9/rel2/lib286/win/math87l.lib(efgfmt.c)
0006:b939      _EFG_Format_
Module: /mnt/sda5/.user/root/src/openwatcom-1.9/rel2/lib286/win/math87l.lib(cnvs2d.c)
0006:baf2      __cnvs2d_
Module: /mnt/sda5/.user/root/src/openwatcom-1.9/rel2/lib286/win/clibl.lib(save8087.c)
0007:463e      ___Save8087
0007:4642      ___Rest8087
Module: /mnt/sda5/.user/root/src/openwatcom-1.9/rel2/lib286/win/clibl.lib(nheapmin.c)
0006:bb13*     _nheapmin_
0006:bb9b      _nheapshrink_
Module: /mnt/sda5/.user/root/src/openwatcom-1.9/rel2/lib286/win/clibl.lib(clearenv.c)
0006:bbcc      clearenv_
Module: /mnt/sda5/.user/root/src/openwatcom-1.9/rel2/lib286/win/clibl.lib(uputenv.c)
0006:bc9e*     _wputenv_
0006:be0b      __wputenv_
Module: /mnt/sda5/.user/root/src/openwatcom-1.9/rel2/lib286/win/clibl.lib(ustrnicm.c)
0006:bf46      _wcsnicmp_
Module: /mnt/sda5/.user/root/src/openwatcom-1.9/rel2/lib286/win/clibl.lib(enterdb.c)
0006:bf9f      __EnterWVIDEO_
0007:4646+     ___WD_Present
Module: /mnt/sda5/.user/root/src/openwatcom-1.9/rel2/lib286/win/clibl.lib(rtcntrl.c)
0006:bfc3*     _SetLD64bit_
0006:bfc9*     _SetLD80bit_
0006:bfcf      _LDisDouble_
Module: /mnt/sda5/.user/root/src/openwatcom-1.9/rel2/lib286/win/math87l.lib(ldcvt.c)
0006:c0f9      _LDScale10x_
0006:c6e7      __LDcvt_
Module: /mnt/sda5/.user/root/src/openwatcom-1.9/rel2/lib286/win/math87l.lib(strtod.c)
0006:d1e1+     __Strtold_
0006:d3a8      strtod_
Module: /mnt/sda5/.user/root/src/openwatcom-1.9/rel2/lib286/win/clibl.lib(putenv.c)
0006:d535*     putenv_
0006:d6f9      __putenv_
Module: /mnt/sda5/.user/root/src/openwatcom-1.9/rel2/lib286/win/math87l.lib(ldclass.c)
0006:d8d6      __LDClass_
0006:d92e*     _FLClass_
Module: /mnt/sda5/.user/root/src/openwatcom-1.9/rel2/lib286/win/math87l.lib(bufld086)
0006:d942      __ZBuf2LD
Module: /mnt/sda5/.user/root/src/openwatcom-1.9/rel2/lib286/win/math87l.lib(inf_nan.c)
0007:06b8*     ___f_infinity
0007:06bc*     ___f_posqnan
0007:06c0      ___d_infinity
0007:06c8      ___d_posqnan
0007:06d0*     ___ld_infinity
0007:06d8*     ___ld_posqnan
Module: /mnt/sda5/.user/root/src/openwatcom-1.9/rel2/lib286/win/clibl.lib(hugeval.c)
0007:06e0      __HugeValue


                        +----------------------+
                        |   Imported Symbols   |
                        +----------------------+

Symbol                              Module
======                              ======

MESSAGEBOX                          USER
INVALIDATERECT                      USER
UPDATEWINDOW                        USER
GETWINDOWLONG                       USER
GETCLIENTRECT                       USER
GETVERSION                          KERNEL
MAKEPROCINSTANCE                    KERNEL
FREEPROCINSTANCE                    KERNEL
BRINGWINDOWTOTOP                    USER
SETFOCUS                            USER
SETWINDOWPOS                        USER
SETWINDOWTEXT                       USER
GETDC                               USER
RELEASEDC                           USER
GETDLGITEM                          USER
SENDMESSAGE                         USER
ENDDIALOG                           USER
DIALOGBOXPARAM                      USER
SHOWWINDOW                          USER
CALLNEXTHOOKEX                      USER
GETCLASSNAME                        USER
GETCURRENTTASK                      KERNEL
SETWINDOWSHOOKEX                    USER
UNHOOKWINDOWSHOOKEX                 USER
SETERRORMODE                        KERNEL
LOADLIBRARY                         KERNEL
FREELIBRARY                         KERNEL
GETPROCADDRESS                      KERNEL
PEEKMESSAGE                         USER
GETMESSAGE                          USER
TRANSLATEMESSAGE                    USER
DISPATCHMESSAGE                     USER
TRANSLATEMDISYSACCEL                USER
ISDIALOGMESSAGE                     USER
LOADICON                            USER
LOADCURSOR                          USER
REGISTERCLASS                       USER
CREATEWINDOW                        USER
GETSYSTEMMETRICS                    USER
MOVEWINDOW                          USER
ISWINDOW                            USER
ISZOOMED                            USER
DRAGACCEPTFILES                     SHELL
KILLTIMER                           USER
DEFFRAMEPROC                        USER
ISICONIC                            USER
SETTIMER                            USER
DRAGQUERYFILE                       SHELL
DRAGFINISH                          SHELL
GETWINDOWRECT                       USER
GETMENU                             USER
RELEASECAPTURE                      USER
GETKEYSTATE                         USER
SETCAPTURE                          USER
GETSCROLLRANGE                      USER
GETSCROLLPOS                        USER
SETSCROLLPOS                        USER
SETSCROLLRANGE                      USER
SETWINDOWLONG                       USER
DEFMDICHILDPROC                     USER
GETUPDATERECT                       USER
BEGINPAINT                          USER
ENDPAINT                            USER
INTERSECTRECT                       USER
ISCHILD                             USER
ENUMCHILDWINDOWS                    USER
GETNEARESTCOLOR                     GDI
CREATEPEN                           GDI
CREATEBRUSHINDIRECT                 GDI
DELETEOBJECT                        GDI
GETSYSTEMPALETTEENTRIES             GDI
CHOOSECOLOR                         COMMDLG
GETSYSCOLOR                         USER
GETTEXTEXTENT                       GDI
CREATEFONTINDIRECT                  GDI
SELECTOBJECT                        GDI
GETTEXTMETRICS                      GDI
CHOOSEFONT                          COMMDLG
DESTROYWINDOW                       USER
PTINRECT                            USER
SETACTIVEWINDOW                     USER
FILLRECT                            USER
SCROLLWINDOW                        USER
SETBKCOLOR                          GDI
SETTEXTCOLOR                        GDI
TEXTOUT                             GDI
GETCURRENTPOSITIONEX                GDI
MOVETOEX                            GDI
SETTEXTALIGN                        GDI
GETKEYBOARDSTATE                    USER
TOASCII                             KEYBOARD
SETCARETBLINKTIME                   USER
DESTROYCARET                        USER
GETCARETBLINKTIME                   USER
CREATECARET                         USER
SETCARETPOS                         USER
SHOWCARET                           USER
HIDECARET                           USER
DEFWINDOWPROC                       USER
GETWINDOW                           USER
CLIENTTOSCREEN                      USER
TABBEDTEXTOUT                       USER
RESTOREDC                           GDI
SAVEDC                              GDI
GETTABBEDTEXTEXTENT                 USER
SETCURSOR                           USER
GLOBALCOMPACT                       KERNEL
MESSAGEBEEP                         USER
DESTROYCURSOR                       USER
WINDOWFROMPOINT                     USER
SCREENTOCLIENT                      USER
CHILDWINDOWFROMPOINT                USER
GETWINDOWWORD                       USER
GETPARENT                           USER
SETDLGITEMTEXT                      USER
ISDLGBUTTONCHECKED                  USER
GETDLGITEMTEXT                      USER
APPENDMENU                          USER
DELETEMENU                          USER
GETSUBMENU                          USER
DESTROYMENU                         USER
CREATEPOPUPMENU                     USER
CREATEMENU                          USER
SETMENU                             USER
TRACKPOPUPMENU                      USER
CHECKMENUITEM                       USER
ENABLEMENUITEM                      USER
SENDDLGITEMMESSAGE                  USER
GETOPENFILENAME                     COMMDLG
COMMDLGEXTENDEDERROR                COMMDLG
GETSAVEFILENAME                     COMMDLG
DIALOGBOX                           USER
CALLWINDOWPROC                      USER
CREATEBITMAP                        GDI
SELECTPALETTE                       USER
REALIZEPALETTE                      USER
CREATEDIBITMAP                      GDI
CREATEPALETTE                       GDI
DDECREATEDATAHANDLE                 DDEML
DDECREATESTRINGHANDLE               DDEML
DDEKEEPSTRINGHANDLE                 DDEML
DDEFREESTRINGHANDLE                 DDEML
DDEINITIALIZE                       DDEML
DDENAMESERVICE                      DDEML
DDEUNINITIALIZE                     DDEML
DDEQUERYSTRING                      DDEML
DDEGETDATA                          DDEML
DDECONNECT                          DDEML
DDEDISCONNECT                       DDEML
DDECLIENTTRANSACTION                DDEML
DDEFREEDATAHANDLE                   DDEML
LOADBITMAP                          USER
LOADSTRING                          USER
OPENCLIPBOARD                       USER
ISCLIPBOARDFORMATAVAILABLE          USER
CLOSECLIPBOARD                      USER
EMPTYCLIPBOARD                      USER
GLOBALALLOC                         KERNEL
GLOBALLOCK                          KERNEL
GLOBALUNLOCK                        KERNEL
SETCLIPBOARDDATA                    USER
GETCLIPBOARDDATA                    USER
POSTMESSAGE                         USER
GETPRIVATEPROFILESTRING             KERNEL
WRITEPRIVATEPROFILESTRING           KERNEL
GETWINDOWSDIRECTORY                 KERNEL
CHECKDLGBUTTON                      USER
GETWINDOWTEXT                       USER
CREATEDIALOG                        USER
GETBKCOLOR                          GDI
GETTEXTCOLOR                        GDI
LINETO                              GDI
DRAWTEXT                            USER
INFLATERECT                         USER
UNREALIZEOBJECT                     GDI
CREATESOLIDBRUSH                    GDI
GETCLASSINFO                        USER
GETSTOCKOBJECT                      GDI
CREATEPATTERNBRUSH                  GDI
DPTOLP                              GDI
CREATECOMPATIBLEDC                  GDI
GETOBJECT                           GDI
SETSTRETCHBLTMODE                   GDI
STRETCHBLT                          GDI
DELETEDC                            GDI
CREATECOMPATIBLEBITMAP              GDI
GETPIXEL                            GDI
BITBLT                              GDI
ENUMFONTFAMILIES                    GDI
GETFOCUS                            USER
GETWINFLAGS                         KERNEL
GETFREESPACE                        KERNEL
SYSTEMHEAPINFO                      TOOLHELP
GETMODULEFILENAME                   KERNEL
GETINSTANCEDATA                     KERNEL
MAPDIALOGRECT                       USER
UNREGISTERCLASS                     USER
GETTEXTEXTENTPOINT                  GDI
GETWINDOWTEXTLENGTH                 USER
GETDLGCTRLID                        USER
WINHELP                             USER
ENABLEWINDOW                        USER
SETDLGITEMINT                       USER
GETDLGITEMINT                       USER
CHECKRADIOBUTTON                    USER
NOTIFYREGISTER                      TOOLHELP
WINEXEC                             KERNEL
GETMODULEHANDLE                     KERNEL
YIELD                               KERNEL
NOTIFYUNREGISTER                    TOOLHELP
GETTICKCOUNT                        USER
_LREAD                              KERNEL
_LWRITE                             KERNEL
INITTASK                            KERNEL
INITAPP                             USER
WAITEVENT                           KERNEL
__AHSHIFT                           KERNEL
__FPMATH                            WIN87EM
GLOBALHANDLE                        KERNEL
GLOBALREALLOC                       KERNEL
GLOBALFREE                          KERNEL
GLOBALSIZE                          KERNEL
LOCALALLOC                          KERNEL
GETDOSENVIRONMENT                   KERNEL
ISDBCSLEADBYTE                      KERNEL
GETKBCODEPAGE                       KEYBOARD
LOCALFREE                           KERNEL


                        +--------------------+
                        |   Libraries Used   |
                        +--------------------+

/mnt/sda5/.user/root/src/openwatcom-1.9/rel2/lib286/win/windows.lib
/mnt/sda5/.user/root/src/openwatcom-1.9/rel2/lib286/win/commdlg.lib
/mnt/sda5/.user/root/src/openwatcom-1.9/rel2/lib286/win/toolhelp.lib
/mnt/sda5/.user/root/src/openwatcom-1.9/rel2/lib286/win/ddeml.lib
/mnt/sda5/.user/root/src/openwatcom-1.9/rel2/lib286/win/shell.lib
/mnt/sda5/.user/root/src/openwatcom-1.9/rel2/lib286/win/math87l.lib
/mnt/sda5/.user/root/src/openwatcom-1.9/rel2/lib286/win/emu87.lib
/mnt/sda5/.user/root/src/openwatcom-1.9/rel2/lib286/win/clibl.lib


                        +-----------------------+
                        |   Linker Statistics   |
                        +-----------------------+

Stack size:  3e80 (16000.)
Memory size:  0005dcf1 (384241.)
Entry point address: 0006:45ac
Link time: 00:00.00
