Open Watcom Linker Version 1.9
Portions Copyright (c) 1985-2002 Sybase, Inc. All Rights Reserved.
Created on:       12/12/16 02:40:45
Executable Image: mapsym.d32
creating an OS/2 32-bit dynamic link library


                        +------------+
                        |   Groups   |
                        +------------+

Group                           Address              Size
=====                           =======              ====

DGROUP                          0002:00000000        00001114



                        +--------------+
                        |   Segments   |
                        +--------------+

Segment                Class          Group          Address         Size
=======                =====          =====          =======         ====

_TEXT                  CODE           AUTO           0001:00000000   000013e3
CONST                  DATA           DGROUP         0002:00000000   00000000
CONST2                 DATA           DGROUP         0002:00000000   00000000
_DATA                  DATA           DGROUP         0002:00000000   000000f8
_BSS                   BSS            DGROUP         0002:000000f8   0000101c


                        +----------------+
                        |   Memory Map   |
                        +----------------+

* = unreferenced symbol
+ = symbol only referenced locally

Address        Symbol
=======        ======

Module: dipimp.obj(/mnt/sda5/.user/root/src/openwatcom-1.9/bld/dip/c/dipimp.c)
0001:00000000  DIPLOAD
0001:00000030  DCAlloc_
0001:00000040* DCAllocZ_
0001:00000070* DCRealloc_
0001:00000080  DCFree_
0001:00000090  DCMapAddr_
0001:000000a0  DCSymCreate_
0001:000000b0* DCItemLocation_
0001:000000c0* DCAssignLocation_
0001:000000d0* DCSameAddrSpace_
0001:00000100  DCAddrSection_
0001:00000110* DCOpen_
0001:00000120  DCSeek_
0001:00000130  DCRead_
0001:00000140* DCReadAt_
0001:000001a0* DCWrite_
0001:000001b0  DCClose_
0001:000001c0* DCRemove_
0001:000001d0  DCStatus_
0001:000001e0* DCCurrMAD_
0001:00000200* DCMachineData_
0001:00000250+ DIPImpOldTypeBase_
0002:00000000+ _ImpInterface
0002:000000f8  _NilAddr
0002:00000100+ _Client
Module: msymmisc.obj(/mnt/sda5/.user/root/src/openwatcom-1.9/bld/dip/mapsym/c/msymmisc.c)
0001:00000260  _DIPImpName
0001:00000270  DIPImpQueryHandleSize_
0001:00000280  DIPImpMoreMem_
0001:00000290  DIPImpStartup_
0001:000002a0  DIPImpCancel_
0001:000002a0  DIPImpShutdown_
Module: msymld.obj(/mnt/sda5/.user/root/src/openwatcom-1.9/bld/dip/mapsym/c/msymld.c)
0001:000002c0+ BSeek_
0001:00000340+ BRead_
0001:000004e0  DIPImpUnloadInfo_
0001:00000510  FindAddrBlock_
0001:00000b40  DIPImpLoadInfo_
0001:00000bc0  DIPImpMapInfo_
0002:00001110* __nullarea
Module: msymmod.obj(/mnt/sda5/.user/root/src/openwatcom-1.9/bld/dip/mapsym/c/msymmod.c)
0001:00000c10  DIPImpWalkModList_
0001:00000c20  DIPImpModName_
0001:00000c60  DIPImpModSrcLang_
0001:00000c70  DIPImpModDefault_
0001:00000c70  DIPImpModInfo_
0001:00000c80  DIPImpAddrMod_
0001:00000cb0  DIPImpModAddr_
Module: msymtype.obj(/mnt/sda5/.user/root/src/openwatcom-1.9/bld/dip/mapsym/c/msymtype.c)
0001:00000d10  DIPImpWalkTypeList_
0001:00000d20  DIPImpTypePtrAddrSpace_
0001:00000d20  DIPImpTypeMod_
0001:00000d30  DIPImpTypeInfo_
0001:00000d50  DIPImpTypeBase_
0001:00000d60  DIPImpTypeArrayInfo_
0001:00000d90  DIPImpTypeThunkAdjust_
0001:00000db0  DIPImpTypeProcInfo_
0001:00000dc0  DIPImpTypeCmp_
0001:00000dd0  DIPImpTypeName_
0001:00000de0  DIPImpTypeFreeAll_
0001:00000de0  DIPImpTypeRelease_
0001:00000de0  DIPImpTypeAddRef_
Module: msymsym.obj(/mnt/sda5/.user/root/src/openwatcom-1.9/bld/dip/mapsym/c/msymsym.c)
0001:00000df0+ DoWalkSymList_
0001:00000e40  DIPImpWalkSymList_
0001:00000e60  DIPImpWalkSymListEx_
0001:00000e80  DIPImpSymObjLocation_
0001:00000e80  DIPImpSymObjType_
0001:00000e80  DIPImpSymValue_
0001:00000e80  DIPImpSymMod_
0001:00000e90  DIPImpSymName_
0001:00000ef0  DIPImpSymType_
0001:00000f20  DIPImpSymLocation_
0001:00000f50  DIPImpSymInfo_
0001:00000fa0  DIPImpSymParmLocation_
0001:00000fb0  DIPImpAddrSym_
0001:00001020+ DoLookupSym_
0001:00001090  DIPImpLookupSym_
0001:000010b0  DIPImpLookupSymEx_
0001:000010d0  DIPImpAddrScope_
0001:000010e0  DIPImpScopeOuter_
0001:000010f0  DIPImpSymCmp_
0001:00001100  DIPImpSymFreeAll_
0001:00001100  DIPImpSymRelease_
0001:00001100  DIPImpSymAddRef_
Module: msymcue.obj(/mnt/sda5/.user/root/src/openwatcom-1.9/bld/dip/mapsym/c/msymcue.c)
0001:00001110  DIPImpWalkFileList_
0001:00001120  DIPImpCueCmp_
0001:00001120  DIPImpCueColumn_
0001:00001120  DIPImpCueLine_
0001:00001120  DIPImpCueFileId_
0001:00001120  DIPImpCueFile_
0001:00001120  DIPImpCueMod_
0001:00001130  DIPImpCueAdjust_
0001:00001140  DIPImpCueAddr_
0001:00001160  DIPImpLineCue_
0001:00001170  DIPImpAddrCue_
Module: /mnt/sda5/.user/root/src/openwatcom-1.9/rel2/lib386/os2/clib3r.lib(memset.c)
0001:00001180  memset_
Module: /mnt/sda5/.user/root/src/openwatcom-1.9/rel2/lib386/os2/clib3r.lib(_strcmp)
0001:000011a0  strcmp_
Module: /mnt/sda5/.user/root/src/openwatcom-1.9/rel2/lib386/os2/clib3r.lib(memcmp.c)
0001:000012e0  memcmp_
Module: /mnt/sda5/.user/root/src/openwatcom-1.9/rel2/lib386/os2/clib3r.lib(memicmp.c)
0001:00001300  memicmp_
Module: /mnt/sda5/.user/root/src/openwatcom-1.9/rel2/lib386/os2/clib3r.lib(__stos)
0001:00001340  __STOSB
0001:00001377* __STOSD


                        +----------------------+
                        |   Imported Symbols   |
                        +----------------------+

Symbol                              Module
======                              ======



                        +--------------------+
                        |   Libraries Used   |
                        +--------------------+

/mnt/sda5/.user/root/src/openwatcom-1.9/rel2/lib386/os2/clib3r.lib


                        +-----------------------+
                        |   Linker Statistics   |
                        +-----------------------+

Stack size:  0000 (0.)
Memory size:  24f7 (9463.)
Link time: 00:00.00
