Open Watcom Linker Version 1.9
Portions Copyright (c) 1985-2002 Sybase, Inc. All Rights Reserved.
Created on:       12/12/16 02:22:41
Executable Image: plbr19d.dll
creating an OS/2 32-bit dynamic link library


                        +------------+
                        |   Groups   |
                        +------------+

Group                           Address              Size
=====                           =======              ====

DGROUP                          0002:00000000        000067d0



                        +--------------+
                        |   Segments   |
                        +--------------+

Segment                Class          Group          Address         Size
=======                =====          =====          =======         ====

BEGTEXT                CODE           AUTO           0001:00000000   00000007
_TEXT                  CODE           AUTO           0001:00000010   0002ad7e
_NULL                  BEGDATA        DGROUP         0002:00000000   00000004
_AFTERNULL             BEGDATA        DGROUP         0002:00000004   00000000
CONST                  DATA           DGROUP         0002:00000004   00000b90
CONST2                 DATA           DGROUP         0002:00000ba0   00003b18
_DATA                  DATA           DGROUP         0002:000046c0   000015e4
XIB                    DATA           DGROUP         0002:00005ca4   00000000
XI                     DATA           DGROUP         0002:00005ca4   00000054
XIE                    DATA           DGROUP         0002:00005cf8   00000000
YIB                    DATA           DGROUP         0002:00005cf8   00000000
YI                     DATA           DGROUP         0002:00005cf8   0000000c
YIE                    DATA           DGROUP         0002:00005d04   00000000
TIB                    DATA           DGROUP         0002:00005d04   00000000
TI                     DATA           DGROUP         0002:00005d04   00000000
TIE                    DATA           DGROUP         0002:00005d04   00000000
DATA                   DATA           DGROUP         0002:00005d04   00000000
_BSS                   BSS            DGROUP         0002:00005d10   00000ab8
STACK                  STACK          DGROUP         0002:000067d0   00000000


                        +----------------+
                        |   Memory Map   |
                        +----------------+

* = unreferenced symbol
+ = symbol only referenced locally

Address        Symbol
=======        ======

Module: /mnt/sda5/.user/root/src/openwatcom-1.9/bld/clib/startup/library/os2.386/mf_rd/clibdo32.obj(/mnt/sda5/.user/root/src/openwatcom-1.9/bld/clib/startup/c/clibdo32.c)
0001:00000010  __dll_initialize_
0001:00000040  __dll_terminate_
Module: ../../../clib/os2.386/mf_rd/clbrdlld.lib(dstrt386)
0001:00000062  __DLLstart_
0001:00000062* __DLLstartw_
Module: /mnt/sda5/.user/root/src/openwatcom-1.9/bld/plusplus/cpplib/os2.386/mf_rmtd.dll/plbxmt3r.lib(FSHAND)
0001:000000be  __wcpp_4_fs_handler_
Module: /mnt/sda5/.user/root/src/openwatcom-1.9/bld/plusplus/cpplib/os2.386/mf_rmtd.dll/plbxmt3r.lib(/mnt/sda5/.user/root/src/openwatcom-1.9/bld/plusplus/cpplib/runtime/cpp/opdel.cpp)
0001:000000f9  W?_set_op_delete$n(pn(pnv)v)pn(pnv)v
0001:00000148  W?$dln(pnv)v
Module: /mnt/sda5/.user/root/src/openwatcom-1.9/bld/plusplus/cpplib/os2.386/mf_rmtd.dll/plbxmt3r.lib(/mnt/sda5/.user/root/src/openwatcom-1.9/bld/plusplus/cpplib/runtime/cpp/opdelarr.cpp)
0001:0000019d  W?_set_op_delete_array$n(pn(pnv)v)pn(pnv)v
0001:000001ec  W?$dan(pnv)v
Module: /mnt/sda5/.user/root/src/openwatcom-1.9/bld/plusplus/cpplib/os2.386/mf_rmtd.dll/plbxmt3r.lib(/mnt/sda5/.user/root/src/openwatcom-1.9/bld/plusplus/cpplib/runtime/cpp/opnew.cpp)
0001:000002a1  W?_set_op_new$n(pn(ui)pnv)pn(ui)pnv
0001:000002f0  W?$nwn(ui)pnv
Module: /mnt/sda5/.user/root/src/openwatcom-1.9/bld/plusplus/cpplib/os2.386/mf_rmtd.dll/plbxmt3r.lib(/mnt/sda5/.user/root/src/openwatcom-1.9/bld/plusplus/cpplib/runtime/cpp/opnewarr.cpp)
0001:00000351  W?_set_op_new_array$n(pn(ui)pnv)pn(ui)pnv
0001:000003a0  W?$nan(ui)pnv
Module: /mnt/sda5/.user/root/src/openwatcom-1.9/bld/plusplus/cpplib/os2.386/mf_rmtd.dll/plbxmt3r.lib(/mnt/sda5/.user/root/src/openwatcom-1.9/bld/plusplus/cpplib/runtime/cpp/opnewp.cpp)
0001:000003d1  W?$nwn(uipnv)pnv
Module: /mnt/sda5/.user/root/src/openwatcom-1.9/bld/plusplus/cpplib/os2.386/mf_rmtd.dll/plbxmt3r.lib(/mnt/sda5/.user/root/src/openwatcom-1.9/bld/plusplus/cpplib/runtime/cpp/opnewpar.cpp)
0001:000003fd  W?$nan(uipnv)pnv
Module: /mnt/sda5/.user/root/src/openwatcom-1.9/bld/plusplus/cpplib/os2.386/mf_rmtd.dll/plbxmt3r.lib(/mnt/sda5/.user/root/src/openwatcom-1.9/bld/plusplus/cpplib/runtime/cpp/arrassgn.cpp)
0001:00000429  __wcpp_4_assign_array__
Module: /mnt/sda5/.user/root/src/openwatcom-1.9/bld/plusplus/cpplib/os2.386/mf_rmtd.dll/plbxmt3r.lib(/mnt/sda5/.user/root/src/openwatcom-1.9/bld/plusplus/cpplib/runtime/cpp/cppdata.cpp)
0002:00005d10  __wint_thread_data_offset
0002:00005d14  __compiled_under_OS2
Module: /mnt/sda5/.user/root/src/openwatcom-1.9/bld/plusplus/cpplib/os2.386/mf_rmtd.dll/plbxmt3r.lib(/mnt/sda5/.user/root/src/openwatcom-1.9/bld/plusplus/cpplib/runtime/cpp/ctorarst.cpp)
0001:000009bc+ W?$ct:_RTDTOR$n()_
0001:00000480+ W?$dt:_CTAS$n()_
0001:000009f0+ W?$ct:_CTAS$n()_
0002:00000bd0+ W?$Wts09n$_CTAS$$$nx[]uc
0001:00000776  __wcpp_4_ctor_array_storage_1m__
0001:000007e8  __wcpp_4_ctor_array_storage_1s__
0001:0000085a  __wcpp_4_ctor_array_storage_2s__
0001:000008cc  __wcpp_4_ctor_array_storage_gm__
0001:00000944  __wcpp_4_ctor_array_storage_gs__
0002:000046d0+ W?$Wti08$_CTAS$$$n[]uc
Module: /mnt/sda5/.user/root/src/openwatcom-1.9/bld/plusplus/cpplib/os2.386/mf_rmtd.dll/plbxmt3r.lib(/mnt/sda5/.user/root/src/openwatcom-1.9/bld/plusplus/cpplib/runtime/cpp/dtorarst.cpp)
0001:00000a36  __wcpp_4_dtor_array_store__
Module: /mnt/sda5/.user/root/src/openwatcom-1.9/bld/plusplus/cpplib/os2.386/mf_rmtd.dll/plbxmt3r.lib(/mnt/sda5/.user/root/src/openwatcom-1.9/bld/plusplus/cpplib/runtime/cpp/fsregist.cpp)
0001:00000a8a+ W?findHandler$n(pnuc)pnuc
0001:00000ad5+ __wcpp_4_dispatch_dummy__
0001:00000b3e  __wcpp_4_fs_lookup__
0001:00000cb8  __wcpp_4_fs_handler_rtn_
Module: /mnt/sda5/.user/root/src/openwatcom-1.9/bld/plusplus/cpplib/os2.386/mf_rmtd.dll/plbxmt3r.lib(/mnt/sda5/.user/root/src/openwatcom-1.9/bld/plusplus/cpplib/runtime/cpp/stabfunc.cpp)
0001:00000e69  __wcpp_4_fun_register__
Module: /mnt/sda5/.user/root/src/openwatcom-1.9/bld/plusplus/cpplib/os2.386/mf_rmtd.dll/plbxmt3r.lib(/mnt/sda5/.user/root/src/openwatcom-1.9/bld/plusplus/cpplib/runtime/cpp/stabreg.cpp)
0001:00000e99  __wcpp_4_base_register__
0001:00000efc  __wcpp_4_base_deregister__
Module: /mnt/sda5/.user/root/src/openwatcom-1.9/bld/plusplus/cpplib/os2.386/mf_rmtd.dll/plbxmt3r.lib(/mnt/sda5/.user/root/src/openwatcom-1.9/bld/plusplus/cpplib/runtime/cpp/lock.cpp)
0001:00000f29  W?$ct:__lock$n()_
0001:00000f63  W?$dt:__lock$n()_
0001:00000fc2  W?p$:__lock$n()v
0001:00000fed  W?v$:__lock$n()v
0001:00001018  W?$ct:__fn_lock$n(pn$__lock$$)_
0001:00001054  W?$dt:__fn_lock$n()_
0002:00005cf8+ W?__wcpp_4_data_fini_sisema_$jl02YI$rt_init$$
Module: /mnt/sda5/.user/root/src/openwatcom-1.9/bld/plusplus/cpplib/os2.386/mf_rmtd.dll/plbxmt3r.lib(/mnt/sda5/.user/root/src/openwatcom-1.9/bld/plusplus/cpplib/runtime/cpp/pure_err.cpp)
0001:000010b5  __wcpp_4_pure_error__
Module: /mnt/sda5/.user/root/src/openwatcom-1.9/bld/plusplus/cpplib/os2.386/mf_rmtd.dll/plbxmt3r.lib(/mnt/sda5/.user/root/src/openwatcom-1.9/bld/plusplus/cpplib/runtime/cpp/rttiptr.cpp)
0001:000010f6  __wcpp_4_dcptr__
Module: /mnt/sda5/.user/root/src/openwatcom-1.9/bld/plusplus/cpplib/os2.386/mf_rmtd.dll/plbxmt3r.lib(/mnt/sda5/.user/root/src/openwatcom-1.9/bld/plusplus/cpplib/runtime/cpp/rttivoid.cpp)
0001:00001153  __wcpp_4_dcvoid__
Module: /mnt/sda5/.user/root/src/openwatcom-1.9/bld/plusplus/cpplib/os2.386/mf_rmtd.dll/plbxmt3r.lib(/mnt/sda5/.user/root/src/openwatcom-1.9/bld/plusplus/cpplib/runtime/cpp/rttiref.cpp)
0001:0000129f  W?$ct:exception$:std$n()_
0001:00001304  W?$ct:exception$:std$n(rnx$0:1$)_
0001:00001374  W?$ct:exception$:std$n(pnxa)_
0001:000013e2  W?$dt:exception$:std$n()_
0001:000014a2  W?what$:exception$:std$n.x()pnxa
0001:000014ff  W?$ct:bad_cast$:std$n()_
0001:0000157e  W?$ct:bad_cast$:std$n(rnx$0:1$)_
0001:000015c2  W?$dt:bad_cast$:std$n()_
0002:00000c80  W?$Wvf0Io4:exception$:std$$nx[]pn()v
0002:00000c90+ W?$Wvf0Ho4:bad_cast$:std$$nx[]pn()v
0002:00000ca0  W?$Wcm012$nx[]uc
0002:00000cb0+ W?$Wth0Jnrn$bad_cast$:std$$$nx[]uc
0002:00000cd0  W?$Wts0In$exception$:std$$$nx[]uc
0002:00000cf0+ W?$Wts0Hn$bad_cast$:std$$$nx[]uc
0002:00000d10+ W?$Wva0Ho0:bad_cast$:std$$nx[]uc
0002:000046dd+ W?$Wti0G$bad_cast$:std$$$n[]uc
0001:000016a2+ W?.tcctor$:bad_cast$:std$n(rnx$1:2$)rn$1:2$
0001:000016d6+ W?.tdtor$:bad_cast$:std$n()pnv
0001:0000170a  W?.tdtor$:exception$:std$n()pnv
0002:00000d30  W?$Wva0Io0:exception$:std$$nx[]uc
0001:0000123d  __wcpp_4_dcref__
0002:000046f2  W?$Wti0H$exception$:std$$$n[]uc
Module: /mnt/sda5/.user/root/src/openwatcom-1.9/bld/plusplus/cpplib/os2.386/mf_rmtd.dll/plbxmt3r.lib(/mnt/sda5/.user/root/src/openwatcom-1.9/bld/plusplus/cpplib/runtime/cpp/rttitid.cpp)
0001:00001857  W?$ct:bad_typeid$:std$n()_
0001:000018d6  W?$ct:bad_typeid$:std$n(rnx$0:1$)_
0001:0000191a  W?$dt:bad_typeid$:std$n()_
0002:00000dd0+ W?$Wvf0Jo4:bad_typeid$:std$$nx[]pn()v
0002:00000de0+ W?$Wth0Lnrn$bad_typeid$:std$$$nx[]uc
0002:00000e00+ W?$Wts0Jn$bad_typeid$:std$$$nx[]uc
0002:00000e20+ W?$Wva0Jo0:bad_typeid$:std$$nx[]uc
0002:00004708+ W?$Wti0I$bad_typeid$:std$$$n[]uc
0001:000019fa+ W?.tcctor$:bad_typeid$:std$n(rnx$1:2$)rn$1:2$
0001:00001a2e+ W?.tdtor$:bad_typeid$:std$n()pnv
0001:000017cb  __wcpp_4_gettid__
Module: /mnt/sda5/.user/root/src/openwatcom-1.9/bld/plusplus/cpplib/os2.386/mf_rmtd.dll/plbxmt3r.lib(/mnt/sda5/.user/root/src/openwatcom-1.9/bld/plusplus/cpplib/runtime/cpp/setnwhdl.cpp)
0001:00001a62  W?set_new_handler$n(pn()v)pn()v
Module: /mnt/sda5/.user/root/src/openwatcom-1.9/bld/plusplus/cpplib/os2.386/mf_rmtd.dll/plbxmt3r.lib(/mnt/sda5/.user/root/src/openwatcom-1.9/bld/plusplus/cpplib/runtime/cpp/_stnwhdl.cpp)
0001:00001ab0  W?_set_new_handler$n(pn(ui)i)pn(ui)i
Module: /mnt/sda5/.user/root/src/openwatcom-1.9/bld/plusplus/cpplib/os2.386/mf_rmtd.dll/plbxmt3r.lib(/mnt/sda5/.user/root/src/openwatcom-1.9/bld/plusplus/cpplib/runtime/cpp/settrmnt.cpp)
0001:00001af5  W?set_terminate$:std$n(pn()v)pn()v
Module: /mnt/sda5/.user/root/src/openwatcom-1.9/bld/plusplus/cpplib/os2.386/mf_rmtd.dll/plbxmt3r.lib(/mnt/sda5/.user/root/src/openwatcom-1.9/bld/plusplus/cpplib/runtime/cpp/setunexp.cpp)
0001:00001b43  W?set_unexpected$:std$n(pn()v)pn()v
Module: /mnt/sda5/.user/root/src/openwatcom-1.9/bld/plusplus/cpplib/os2.386/mf_rmtd.dll/plbxmt3r.lib(/mnt/sda5/.user/root/src/openwatcom-1.9/bld/plusplus/cpplib/runtime/cpp/sisema.cpp)
0001:00001b91  __wcpp_4_static_init__
Module: /mnt/sda5/.user/root/src/openwatcom-1.9/bld/plusplus/cpplib/os2.386/mf_rmtd.dll/plbxmt3r.lib(/mnt/sda5/.user/root/src/openwatcom-1.9/bld/plusplus/cpplib/runtime/cpp/stabacp.cpp)
0002:00000e50  W?$Wts0Dn$_RTARCTOR$$$nx[]uc
0001:00001bfd  __wcpp_4_copy_array__
0002:0000471f  W?$Wti0C$_RTARCTOR$$$n[]uc
Module: /mnt/sda5/.user/root/src/openwatcom-1.9/bld/plusplus/cpplib/os2.386/mf_rmtd.dll/plbxmt3r.lib(/mnt/sda5/.user/root/src/openwatcom-1.9/bld/plusplus/cpplib/runtime/cpp/stabacpv.cpp)
0001:00001d32  __wcpp_4_copy_varray__
Module: /mnt/sda5/.user/root/src/openwatcom-1.9/bld/plusplus/cpplib/os2.386/mf_rmtd.dll/plbxmt3r.lib(/mnt/sda5/.user/root/src/openwatcom-1.9/bld/plusplus/cpplib/runtime/cpp/stabact.cpp)
0001:00001e69  __wcpp_4_ctor_array__
Module: /mnt/sda5/.user/root/src/openwatcom-1.9/bld/plusplus/cpplib/os2.386/mf_rmtd.dll/plbxmt3r.lib(/mnt/sda5/.user/root/src/openwatcom-1.9/bld/plusplus/cpplib/runtime/cpp/stabactv.cpp)
0001:00001f92  __wcpp_4_ctor_varray__
Module: /mnt/sda5/.user/root/src/openwatcom-1.9/bld/plusplus/cpplib/os2.386/mf_rmtd.dll/plbxmt3r.lib(/mnt/sda5/.user/root/src/openwatcom-1.9/bld/plusplus/cpplib/runtime/cpp/stabadt.cpp)
0001:000020bd+ W?dtor_the_array$n(pn$_RTARCTOR$$)pnv
0001:0000214f  W?$dt:_RTARCTOR$n()_
0001:00002198  W?$ct:_RTARCTOR$n(rnx$0$)_
0001:0000220c  __wcpp_4_dtor_array__
Module: /mnt/sda5/.user/root/src/openwatcom-1.9/bld/plusplus/cpplib/os2.386/mf_rmtd.dll/plbxmt3r.lib(/mnt/sda5/.user/root/src/openwatcom-1.9/bld/plusplus/cpplib/runtime/cpp/stabdtor.cpp)
0001:000027e3  __wcpp_4_destruct_internal__
0001:00002828  __wcpp_4_destruct_all__
0001:0000284e  __wcpp_4_destruct__
0001:00002899  __wcpp_4_cmd_active__
Module: /mnt/sda5/.user/root/src/openwatcom-1.9/bld/plusplus/cpplib/os2.386/mf_rmtd.dll/plbxmt3r.lib(/mnt/sda5/.user/root/src/openwatcom-1.9/bld/plusplus/cpplib/runtime/cpp/stabthrw.cpp)
0001:00003511  W?$ct:bad_exception$:std$n()_
0001:000035ac  W?$ct:bad_exception$:std$n(rnx$0:1$)_
0001:0000361c  W?$dt:bad_exception$:std$n()_
0002:00000fa0+ W?$Wvf0Mo4:bad_exception$:std$$nx[]pn()v
0002:00000fb0  W?$Wcm013$nx[]uc
0002:00000fc0+ W?$Wth0Onrn$bad_exception$:std$$$nx[]uc
0002:00000fe0+ W?$Wts0Mn$bad_exception$:std$$$nx[]uc
0002:00001000+ W?$Wts0Hn$_EXC_PR_FNEXC$$$nx[]uc
0002:00001020+ W?$Wts0Gn$_EXC_PR_DTOR$$$nx[]uc
0002:00001040  W?$Wts0Gn$_EXC_PR_FREE$$$nx[]uc
0002:00001060  W?$Wts0Bn$_EXC_PR$$$nx[]uc
0002:00001080+ W?$Wva0Mo0:bad_exception$:std$$nx[]uc
0002:00004730  W?$Wti0A$_EXC_PR$$$n[]uc
0002:0000473f  W?$Wti0F$_EXC_PR_FREE$$$n[]uc
0002:00004753+ W?$Wti0F$_EXC_PR_DTOR$$$n[]uc
0002:00004767+ W?$Wti0G$_EXC_PR_FNEXC$$$n[]uc
0002:0000477c+ W?$Wti0L$bad_exception$:std$$$n[]uc
0001:0000371a+ W?.tcctor$:bad_exception$:std$n(rnx$1:2$)rn$1:2$
0001:0000374e+ W?.tdtor$:bad_exception$:std$n()pnv
0001:00003341  __wcpp_4_rethrow__
0001:0000339b  __wcpp_4_catch_done__
0001:0000344e  __wcpp_4_throw__
0001:000034ae  __wcpp_4_throw_zero__
Module: /mnt/sda5/.user/root/src/openwatcom-1.9/bld/plusplus/cpplib/os2.386/mf_rmtd.dll/plbxmt3r.lib(/mnt/sda5/.user/root/src/openwatcom-1.9/bld/plusplus/cpplib/runtime/cpp/termnate.cpp)
0001:00003782  W?terminate$:std$n()v
Module: /mnt/sda5/.user/root/src/openwatcom-1.9/bld/plusplus/cpplib/os2.386/mf_rmtd.dll/plbxmt3r.lib(/mnt/sda5/.user/root/src/openwatcom-1.9/bld/plusplus/cpplib/runtime/cpp/ti_bfor.cpp)
0001:000037fb  W?before$:type_info$:std$n.x(rnx$1:2$)q
Module: /mnt/sda5/.user/root/src/openwatcom-1.9/bld/plusplus/cpplib/os2.386/mf_rmtd.dll/plbxmt3r.lib(/mnt/sda5/.user/root/src/openwatcom-1.9/bld/plusplus/cpplib/runtime/cpp/ti_dtor.cpp)
0001:00003854  W?$dt:type_info$:std$n()_
Module: /mnt/sda5/.user/root/src/openwatcom-1.9/bld/plusplus/cpplib/os2.386/mf_rmtd.dll/plbxmt3r.lib(/mnt/sda5/.user/root/src/openwatcom-1.9/bld/plusplus/cpplib/runtime/cpp/ti_name.cpp)
0002:000010c0  W?$Wts0An$__lock$$$nx[]uc
0002:000010e0+ W?$Wts0Dn$__fn_lock$$$nx[]uc
0002:000047b6+ W?$Wti0Z$__INITFINI$:$Wun0E2b_mf4cns4whtu$$$n[]uc
0002:000047de+ W?$Wti0C$__fn_lock$$$n[]uc
0001:00003a21+ W?.tdtor$:__fn_lock$n()pnv
0001:00003a55  W?.tdtor$:__lock$n()pnv
0002:00001100+ W?$Wts0an$__INITFINI$:$Wun0E2b_mf4cns4whtu$$$nx[]uc
0002:000047ef  W?$Wti09$__lock$$$n[]uc
0001:00003945  W?name$:type_info$:std$n.x()pnxa
0002:00005d34+ W?__type_info_name_free$n$__INITFINI$:$Wun0E2b_mf4cns4whtu$$
Module: /mnt/sda5/.user/root/src/openwatcom-1.9/bld/plusplus/cpplib/os2.386/mf_rmtd.dll/plbxmt3r.lib(/mnt/sda5/.user/root/src/openwatcom-1.9/bld/plusplus/cpplib/runtime/cpp/ti_raw.cpp)
0001:00003a89  W?raw_name$:type_info$:std$n.x()pnxa
Module: /mnt/sda5/.user/root/src/openwatcom-1.9/bld/plusplus/cpplib/os2.386/mf_rmtd.dll/plbxmt3r.lib(/mnt/sda5/.user/root/src/openwatcom-1.9/bld/plusplus/cpplib/runtime/cpp/ti_opeq.cpp)
0001:00003ab7  W?$ra:type_info$:std$n.x(rnx$0:1$)q
Module: /mnt/sda5/.user/root/src/openwatcom-1.9/bld/plusplus/cpplib/os2.386/mf_rmtd.dll/plbxmt3r.lib(/mnt/sda5/.user/root/src/openwatcom-1.9/bld/plusplus/cpplib/runtime/cpp/ti_opne.cpp)
0001:00003b10  W?$rb:type_info$:std$n.x(rnx$0:1$)q
Module: /mnt/sda5/.user/root/src/openwatcom-1.9/bld/plusplus/cpplib/os2.386/mf_rmtd.dll/plbxmt3r.lib(/mnt/sda5/.user/root/src/openwatcom-1.9/bld/plusplus/cpplib/runtime/cpp/undefed.cpp)
0001:00003b69  __wcpp_4_undefed_cdtor__
Module: /mnt/sda5/.user/root/src/openwatcom-1.9/bld/plusplus/cpplib/os2.386/mf_rmtd.dll/plbxmt3r.lib(/mnt/sda5/.user/root/src/openwatcom-1.9/bld/plusplus/cpplib/runtime/cpp/undefmbr.cpp)
0001:00003b97  __wcpp_4_undefined_member_function__
Module: /mnt/sda5/.user/root/src/openwatcom-1.9/bld/plusplus/cpplib/os2.386/mf_rmtd.dll/plbxmt3r.lib(/mnt/sda5/.user/root/src/openwatcom-1.9/bld/plusplus/cpplib/runtime/cpp/unexpect.cpp)
0001:00003bc5  W?unexpected$:std$n()v
Module: /mnt/sda5/.user/root/src/openwatcom-1.9/bld/plusplus/cpplib/os2.386/mf_rmtd.dll/plbxmt3r.lib(/mnt/sda5/.user/root/src/openwatcom-1.9/bld/plusplus/cpplib/runtime/cpp/vfun_err.cpp)
0001:00003c8d  __wcpp_4_undef_vfun__
Module: /mnt/sda5/.user/root/src/openwatcom-1.9/bld/plusplus/cpplib/os2.386/mf_rmtd.dll/plbxmt3r.lib(/mnt/sda5/.user/root/src/openwatcom-1.9/bld/plusplus/cpplib/iostream/cpp/flfattac.cpp)
0001:00003e16  W?.tdtor$:__get_lock$n()pnv
0002:00001140  W?$Wts0En$__get_lock$$$nx[]uc
0001:00003cce  W?attach$:filebuf$:std$n(i)pn$1:2$
0002:000047fd  W?$Wti0D$__get_lock$$$n[]uc
Module: /mnt/sda5/.user/root/src/openwatcom-1.9/bld/plusplus/cpplib/os2.386/mf_rmtd.dll/plbxmt3r.lib(/mnt/sda5/.user/root/src/openwatcom-1.9/bld/plusplus/cpplib/iostream/cpp/flfclose.cpp)
0001:00003e4a  W?close$:filebuf$:std$n()pn$1:2$
Module: /mnt/sda5/.user/root/src/openwatcom-1.9/bld/plusplus/cpplib/os2.386/mf_rmtd.dll/plbxmt3r.lib(/mnt/sda5/.user/root/src/openwatcom-1.9/bld/plusplus/cpplib/iostream/cpp/flfconde.cpp)
0002:00001170  W?$Wvf0Ho19:filebuf$:std$$nx[]pn()v
0002:0000480f  W?$Wti0H$streambuf$:std$$$n[]uc
0001:00003fcd  W?$ct:filebuf$:std$n()_
0002:000011a0  W?$Wva0Go0:filebuf$:std$$nx[]uc
0002:00004825  W?$Wti0F$filebuf$:std$$$n[]uc
Module: /mnt/sda5/.user/root/src/openwatcom-1.9/bld/plusplus/cpplib/os2.386/mf_rmtd.dll/plbxmt3r.lib(/mnt/sda5/.user/root/src/openwatcom-1.9/bld/plusplus/cpplib/iostream/cpp/flfconfd.cpp)
0001:000040c5  W?.tdtor$:streambuf$:std$n()pnv
0001:0000401d  W?$ct:filebuf$:std$n(i)_
Module: /mnt/sda5/.user/root/src/openwatcom-1.9/bld/plusplus/cpplib/os2.386/mf_rmtd.dll/plbxmt3r.lib(/mnt/sda5/.user/root/src/openwatcom-1.9/bld/plusplus/cpplib/iostream/cpp/flfconsf.cpp)
0001:000040f9  W?$ct:filebuf$:std$n(ipnai)_
Module: /mnt/sda5/.user/root/src/openwatcom-1.9/bld/plusplus/cpplib/os2.386/mf_rmtd.dll/plbxmt3r.lib(/mnt/sda5/.user/root/src/openwatcom-1.9/bld/plusplus/cpplib/iostream/cpp/flfdestr.cpp)
0002:00001240+ W?$Wts0Gn$filebuf$:std$$$nx[]uc
0001:00004324  W?.tdtor$:filebuf$:std$n()pnv
0001:000041b1  W?$dt:filebuf$:std$n()_
Module: /mnt/sda5/.user/root/src/openwatcom-1.9/bld/plusplus/cpplib/os2.386/mf_rmtd.dll/plbxmt3r.lib(/mnt/sda5/.user/root/src/openwatcom-1.9/bld/plusplus/cpplib/iostream/cpp/flfopen.cpp)
0001:00004358  W?open$:filebuf$:std$n(pnxaii)pn$1:2$
Module: /mnt/sda5/.user/root/src/openwatcom-1.9/bld/plusplus/cpplib/os2.386/mf_rmtd.dll/plbxmt3r.lib(/mnt/sda5/.user/root/src/openwatcom-1.9/bld/plusplus/cpplib/iostream/cpp/flfoprot.cpp)
0002:00001270  W?openprot$:filebuf$:std$nxi
Module: /mnt/sda5/.user/root/src/openwatcom-1.9/bld/plusplus/cpplib/os2.386/mf_rmtd.dll/plbxmt3r.lib(/mnt/sda5/.user/root/src/openwatcom-1.9/bld/plusplus/cpplib/iostream/cpp/flfoverf.cpp)
0001:00004576  W?overflow$:filebuf$:std$n(i)i
Module: /mnt/sda5/.user/root/src/openwatcom-1.9/bld/plusplus/cpplib/os2.386/mf_rmtd.dll/plbxmt3r.lib(/mnt/sda5/.user/root/src/openwatcom-1.9/bld/plusplus/cpplib/iostream/cpp/flfpbfai.cpp)
0001:0000522a  W?pbackfail$:filebuf$:std$n(i)i
Module: /mnt/sda5/.user/root/src/openwatcom-1.9/bld/plusplus/cpplib/os2.386/mf_rmtd.dll/plbxmt3r.lib(/mnt/sda5/.user/root/src/openwatcom-1.9/bld/plusplus/cpplib/iostream/cpp/flfseeko.cpp)
0001:00005807  W?seekoff$:filebuf$:std$n(lii)l
Module: /mnt/sda5/.user/root/src/openwatcom-1.9/bld/plusplus/cpplib/os2.386/mf_rmtd.dll/plbxmt3r.lib(/mnt/sda5/.user/root/src/openwatcom-1.9/bld/plusplus/cpplib/iostream/cpp/flfsetbf.cpp)
0001:00005ae3  W?setbuf$:filebuf$:std$n(pnai)pn$streambuf$:2$
Module: /mnt/sda5/.user/root/src/openwatcom-1.9/bld/plusplus/cpplib/os2.386/mf_rmtd.dll/plbxmt3r.lib(/mnt/sda5/.user/root/src/openwatcom-1.9/bld/plusplus/cpplib/iostream/cpp/flfsync.cpp)
0001:00005c73  W?sync$:filebuf$:std$n()i
Module: /mnt/sda5/.user/root/src/openwatcom-1.9/bld/plusplus/cpplib/os2.386/mf_rmtd.dll/plbxmt3r.lib(/mnt/sda5/.user/root/src/openwatcom-1.9/bld/plusplus/cpplib/iostream/cpp/flfundrf.cpp)
0001:00005ff7  W?underflow$:filebuf$:std$n()i
Module: /mnt/sda5/.user/root/src/openwatcom-1.9/bld/plusplus/cpplib/os2.386/mf_rmtd.dll/plbxmt3r.lib(/mnt/sda5/.user/root/src/openwatcom-1.9/bld/plusplus/cpplib/iostream/cpp/fsbattac.cpp)
0001:000069f4  W?attach$:fstreambase$:std$n(i)v
Module: /mnt/sda5/.user/root/src/openwatcom-1.9/bld/plusplus/cpplib/os2.386/mf_rmtd.dll/plbxmt3r.lib(/mnt/sda5/.user/root/src/openwatcom-1.9/bld/plusplus/cpplib/iostream/cpp/fsbclose.cpp)
0001:00006b92  W?close$:fstreambase$:std$n()v
Module: /mnt/sda5/.user/root/src/openwatcom-1.9/bld/plusplus/cpplib/os2.386/mf_rmtd.dll/plbxmt3r.lib(/mnt/sda5/.user/root/src/openwatcom-1.9/bld/plusplus/cpplib/iostream/cpp/fsbconde.cpp)
0002:000013a0  W?$Wvb0Ko0:fstreambase$:std$$nx[]ui
0002:000013b0  W?$Wvf0Lo22:fstreambase$:std$$nx[]pn()v
0002:000013c0  W?$Wvf0Lo3j:fstreambase$:std$$nx[]pn()v
0002:00004839  W?$Wti0B$ios$:std$$$n[]uc
0001:00006e2f  W?$Wvt0Z.@dt:fstreambase$:std$c$:0:1$dtn()_$:ios$:std$n()pnv
0001:00006e62  W?.tdtor$:ios$:std$n()pnv
0002:000013d0  W?$Wva0Ko0:fstreambase$:std$$nx[]uc
0001:00006d0d  W?$ct:fstreambase$:std$n()_
0002:00004849  W?$Wti0J$fstreambase$:std$$$n[]uc
Module: /mnt/sda5/.user/root/src/openwatcom-1.9/bld/plusplus/cpplib/os2.386/mf_rmtd.dll/plbxmt3r.lib(/mnt/sda5/.user/root/src/openwatcom-1.9/bld/plusplus/cpplib/iostream/cpp/fsbconfd.cpp)
0001:00006e96  W?$ct:fstreambase$:std$n(i)_
Module: /mnt/sda5/.user/root/src/openwatcom-1.9/bld/plusplus/cpplib/os2.386/mf_rmtd.dll/plbxmt3r.lib(/mnt/sda5/.user/root/src/openwatcom-1.9/bld/plusplus/cpplib/iostream/cpp/fsbconnm.cpp)
0001:00006fe8  W?$ct:fstreambase$:std$n(pnxaii)_
Module: /mnt/sda5/.user/root/src/openwatcom-1.9/bld/plusplus/cpplib/os2.386/mf_rmtd.dll/plbxmt3r.lib(/mnt/sda5/.user/root/src/openwatcom-1.9/bld/plusplus/cpplib/iostream/cpp/fsbconsf.cpp)
0001:00007143  W?$ct:fstreambase$:std$n(ipnai)_
Module: /mnt/sda5/.user/root/src/openwatcom-1.9/bld/plusplus/cpplib/os2.386/mf_rmtd.dll/plbxmt3r.lib(/mnt/sda5/.user/root/src/openwatcom-1.9/bld/plusplus/cpplib/iostream/cpp/fsbdestr.cpp)
0002:00001510+ W?$Wts0Kn$fstreambase$:std$$$nx[]uc
0001:0000741e  W?.tdtor$:fstreambase$:std$n()pnv
0001:000072a6  W?$dt:fstreambase$:std$n()_
Module: /mnt/sda5/.user/root/src/openwatcom-1.9/bld/plusplus/cpplib/os2.386/mf_rmtd.dll/plbxmt3r.lib(/mnt/sda5/.user/root/src/openwatcom-1.9/bld/plusplus/cpplib/iostream/cpp/fsbopen.cpp)
0001:00007452  W?open$:fstreambase$:std$n(pnxaii)v
Module: /mnt/sda5/.user/root/src/openwatcom-1.9/bld/plusplus/cpplib/os2.386/mf_rmtd.dll/plbxmt3r.lib(/mnt/sda5/.user/root/src/openwatcom-1.9/bld/plusplus/cpplib/iostream/cpp/fsbsetbf.cpp)
0001:000075f8  W?setbuf$:fstreambase$:std$n(pnai)v
Module: /mnt/sda5/.user/root/src/openwatcom-1.9/bld/plusplus/cpplib/os2.386/mf_rmtd.dll/plbxmt3r.lib(/mnt/sda5/.user/root/src/openwatcom-1.9/bld/plusplus/cpplib/iostream/cpp/fstconde.cpp)
0001:000078db  W?$Wvt0X.@dt:fstream$:std$o26$:0:1$dtn()_$:iostream$:std$n()pnv
0001:00007909  W?$Wvt0X.@dt:fstream$:std$o2i$:0:1$dtn()_$:ostream$:std$n()pnv
0002:000015c0  W?$Wvb0Go0:fstream$:std$$nx[]ui
0002:000015d0  W?$Wvb0Ho26:fstream$:std$$nx[]ui
0002:000015e0  W?$Wvb0Ho2i:fstream$:std$$nx[]ui
0002:000015f0  W?$Wvf0Ho22:fstream$:std$$nx[]pn()v
0002:00001600  W?$Wvf0Ho2e:fstream$:std$$nx[]pn()v
0002:00001610  W?$Wvf0Ho2m:fstream$:std$$nx[]pn()v
0002:00001620  W?$Wvf0Ho48:fstream$:std$$nx[]pn()v
0002:00004861  W?$Wti0F$ostream$:std$$$n[]uc
0002:00004875  W?$Wti0F$istream$:std$$$n[]uc
0002:00004889  W?$Wti0G$iostream$:std$$$n[]uc
0001:00007937  W?$Wvt0V.@dt:fstream$:std$c$:0:1$dtn()_$:ios$:std$n()pnv
0001:0000796a  W?.tdtor$:iostream$:std$n()pnv
0002:00001630  W?$Wva0Go0:fstream$:std$$nx[]uc
0001:00007782  W?$ct:fstream$:std$n()_
0002:0000489e  W?$Wti0F$fstream$:std$$$n[]uc
Module: /mnt/sda5/.user/root/src/openwatcom-1.9/bld/plusplus/cpplib/os2.386/mf_rmtd.dll/plbxmt3r.lib(/mnt/sda5/.user/root/src/openwatcom-1.9/bld/plusplus/cpplib/iostream/cpp/fstconfd.cpp)
0001:0000799e  W?$ct:fstream$:std$n(i)_
Module: /mnt/sda5/.user/root/src/openwatcom-1.9/bld/plusplus/cpplib/os2.386/mf_rmtd.dll/plbxmt3r.lib(/mnt/sda5/.user/root/src/openwatcom-1.9/bld/plusplus/cpplib/iostream/cpp/fstconnm.cpp)
0001:00007afb  W?$ct:fstream$:std$n(pnxaii)_
Module: /mnt/sda5/.user/root/src/openwatcom-1.9/bld/plusplus/cpplib/os2.386/mf_rmtd.dll/plbxmt3r.lib(/mnt/sda5/.user/root/src/openwatcom-1.9/bld/plusplus/cpplib/iostream/cpp/fstconsf.cpp)
0001:00007c82  W?$ct:fstream$:std$n(ipnai)_
Module: /mnt/sda5/.user/root/src/openwatcom-1.9/bld/plusplus/cpplib/os2.386/mf_rmtd.dll/plbxmt3r.lib(/mnt/sda5/.user/root/src/openwatcom-1.9/bld/plusplus/cpplib/iostream/cpp/fstdestr.cpp)
0002:00001800+ W?$Wts0Gn$fstream$:std$$$nx[]uc
0001:00007f9d+ W?.tdtor$:fstream$:std$n()pnv
0001:00007de9  W?$dt:fstream$:std$n()_
Module: /mnt/sda5/.user/root/src/openwatcom-1.9/bld/plusplus/cpplib/os2.386/mf_rmtd.dll/plbxmt3r.lib(/mnt/sda5/.user/root/src/openwatcom-1.9/bld/plusplus/cpplib/iostream/cpp/ifsconde.cpp)
0001:00008116  W?$Wvt0Y.@dt:ifstream$:std$o26$:0:1$dtn()_$:istream$:std$n()pnv
0002:00001870  W?$Wvb0Ho0:ifstream$:std$$nx[]ui
0002:00001880  W?$Wvb0Io26:ifstream$:std$$nx[]ui
0002:00001890  W?$Wvf0Io22:ifstream$:std$$nx[]pn()v
0002:000018a0  W?$Wvf0Io2e:ifstream$:std$$nx[]pn()v
0002:000018b0  W?$Wvf0Io40:ifstream$:std$$nx[]pn()v
0001:00008144  W?$Wvt0W.@dt:ifstream$:std$c$:0:1$dtn()_$:ios$:std$n()pnv
0001:00008177  W?.tdtor$:istream$:std$n()pnv
0002:000018c0  W?$Wva0Ho0:ifstream$:std$$nx[]uc
0001:00007fd1  W?$ct:ifstream$:std$n()_
0002:000048b2  W?$Wti0G$ifstream$:std$$$n[]uc
Module: /mnt/sda5/.user/root/src/openwatcom-1.9/bld/plusplus/cpplib/os2.386/mf_rmtd.dll/plbxmt3r.lib(/mnt/sda5/.user/root/src/openwatcom-1.9/bld/plusplus/cpplib/iostream/cpp/ifsconfd.cpp)
0001:000081ab  W?$ct:ifstream$:std$n(i)_
Module: /mnt/sda5/.user/root/src/openwatcom-1.9/bld/plusplus/cpplib/os2.386/mf_rmtd.dll/plbxmt3r.lib(/mnt/sda5/.user/root/src/openwatcom-1.9/bld/plusplus/cpplib/iostream/cpp/ifsconnm.cpp)
0001:000082f4  W?$ct:ifstream$:std$n(pnxaii)_
Module: /mnt/sda5/.user/root/src/openwatcom-1.9/bld/plusplus/cpplib/os2.386/mf_rmtd.dll/plbxmt3r.lib(/mnt/sda5/.user/root/src/openwatcom-1.9/bld/plusplus/cpplib/iostream/cpp/ifsconsf.cpp)
0001:0000844a  W?$ct:ifstream$:std$n(ipnai)_
Module: /mnt/sda5/.user/root/src/openwatcom-1.9/bld/plusplus/cpplib/os2.386/mf_rmtd.dll/plbxmt3r.lib(/mnt/sda5/.user/root/src/openwatcom-1.9/bld/plusplus/cpplib/iostream/cpp/ifsdestr.cpp)
0002:00001a70+ W?$Wts0Hn$ifstream$:std$$$nx[]uc
0001:00008747+ W?.tdtor$:ifstream$:std$n()pnv
0001:0000859d  W?$dt:ifstream$:std$n()_
Module: /mnt/sda5/.user/root/src/openwatcom-1.9/bld/plusplus/cpplib/os2.386/mf_rmtd.dll/plbxmt3r.lib(/mnt/sda5/.user/root/src/openwatcom-1.9/bld/plusplus/cpplib/iostream/cpp/iofexdou.cpp)
0001:0000877b  W?$oa:istream$:std$n(rnd)rn$0:1$
Module: /mnt/sda5/.user/root/src/openwatcom-1.9/bld/plusplus/cpplib/os2.386/mf_rmtd.dll/plbxmt3r.lib(/mnt/sda5/.user/root/src/openwatcom-1.9/bld/plusplus/cpplib/iostream/cpp/iofexflo.cpp)
0001:00008944  W?$oa:istream$:std$n(rnb)rn$0:1$
Module: /mnt/sda5/.user/root/src/openwatcom-1.9/bld/plusplus/cpplib/os2.386/mf_rmtd.dll/plbxmt3r.lib(/mnt/sda5/.user/root/src/openwatcom-1.9/bld/plusplus/cpplib/iostream/cpp/iofexldo.cpp)
0001:00008a9e  W?$oa:istream$:std$n(rnt)rn$0:1$
Module: /mnt/sda5/.user/root/src/openwatcom-1.9/bld/plusplus/cpplib/os2.386/mf_rmtd.dll/plbxmt3r.lib(/mnt/sda5/.user/root/src/openwatcom-1.9/bld/plusplus/cpplib/iostream/cpp/iofnoefg.cpp)
0002:000048c8  W?__EFG_cnvs2d$npn(pnapnd)v
0002:000048cc  W?__EFG_cnvd2f$npn(pndpnb)i
0002:000048d0  W?__EFG_LDcvt$npn(pn$__6ks9tmlong_double$$pn$cvt_info$$pna)v
0002:000048d4  W?__EFG_fcvt$npn(dipnipni)pna
0002:000048d8  W?__EFG__FDLD$npn(pndpn$__6ks9tmlong_double$$)v
Module: /mnt/sda5/.user/root/src/openwatcom-1.9/bld/plusplus/cpplib/os2.386/mf_rmtd.dll/plbxmt3r.lib(/mnt/sda5/.user/root/src/openwatcom-1.9/bld/plusplus/cpplib/iostream/cpp/iofoutfl.cpp)
0001:00008c95  W?__outfloat$:ostream$:std$n(rnxt)rn$1:2$
Module: /mnt/sda5/.user/root/src/openwatcom-1.9/bld/plusplus/cpplib/os2.386/mf_rmtd.dll/plbxmt3r.lib(/mnt/sda5/.user/root/src/openwatcom-1.9/bld/plusplus/cpplib/iostream/cpp/ioicerr.cpp)
0002:00005d78  W?cerr$:std$n$ostream$:1$
0002:00001b20  W?$Wts0Cn$stdiobuf$$$nx[]uc
0002:00001b40  W?$Wts0Gn$ostream$:std$$$nx[]uc
0002:0000490c+ W?$Wti0G$cerr_initfini$$$n[]uc
0002:00004921  W?$Wti0B$stdiobuf$$$n[]uc
0001:00009514  W?.tdtor$:ostream$:std$n()pnv
0001:00009548  W?.tdtor$:stdiobuf$n()pnv
0002:00001b60+ W?$Wts0Hn$cerr_initfini$$$nx[]uc
0001:00009425+ W?$ct:cerr_initfini$n()_
0001:000094de+ W?$dt:cerr_initfini$n()_
Module: /mnt/sda5/.user/root/src/openwatcom-1.9/bld/plusplus/cpplib/os2.386/mf_rmtd.dll/plbxmt3r.lib(/mnt/sda5/.user/root/src/openwatcom-1.9/bld/plusplus/cpplib/iostream/cpp/ioicin.cpp)
0002:00005df8  W?cin$:std$n$istream$:1$
0002:00001ba0  W?$Wts0Gn$istream$:std$$$nx[]uc
0001:000095e5+ W?$ct:cin_initfini$n()_
Module: /mnt/sda5/.user/root/src/openwatcom-1.9/bld/plusplus/cpplib/os2.386/mf_rmtd.dll/plbxmt3r.lib(/mnt/sda5/.user/root/src/openwatcom-1.9/bld/plusplus/cpplib/iostream/cpp/ioiclog.cpp)
0002:00005e78  W?clog$:std$n$ostream$:1$
0002:00004981+ W?$Wti0G$clog_initfini$$$n[]uc
0002:00001bf0+ W?$Wts0Hn$clog_initfini$$$nx[]uc
0001:00009717+ W?$ct:clog_initfini$n()_
0001:00009789+ W?$dt:clog_initfini$n()_
Module: /mnt/sda5/.user/root/src/openwatcom-1.9/bld/plusplus/cpplib/os2.386/mf_rmtd.dll/plbxmt3r.lib(/mnt/sda5/.user/root/src/openwatcom-1.9/bld/plusplus/cpplib/iostream/cpp/ioicout.cpp)
0002:00005ef8  W?cout$:std$n$ostream$:1$
0002:000049c6+ W?$Wti0G$cout_initfini$$$n[]uc
0002:00001c40+ W?$Wts0Hn$cout_initfini$$$nx[]uc
0001:00009838+ W?$ct:cout_initfini$n()_
0001:000098aa+ W?$dt:cout_initfini$n()_
Module: /mnt/sda5/.user/root/src/openwatcom-1.9/bld/plusplus/cpplib/os2.386/mf_rmtd.dll/plbxmt3r.lib(/mnt/sda5/.user/root/src/openwatcom-1.9/bld/plusplus/cpplib/iostream/cpp/ioilfofg.cpp)
0002:000049dc  W?__last_format_flag$:ios$:std$nl
Module: /mnt/sda5/.user/root/src/openwatcom-1.9/bld/plusplus/cpplib/os2.386/mf_rmtd.dll/plbxmt3r.lib(/mnt/sda5/.user/root/src/openwatcom-1.9/bld/plusplus/cpplib/iostream/cpp/ioilock.cpp)
0002:000049f0  W?__x_lock$:ios$:std$npn$__lock$$
0002:00005f40+ W?xalloc_lock$n$__lock$$
Module: /mnt/sda5/.user/root/src/openwatcom-1.9/bld/plusplus/cpplib/os2.386/mf_rmtd.dll/plbxmt3r.lib(/mnt/sda5/.user/root/src/openwatcom-1.9/bld/plusplus/cpplib/iostream/cpp/ioixainx.cpp)
0002:00005f50  W?__xalloc_index$:ios$:std$ni
Module: /mnt/sda5/.user/root/src/openwatcom-1.9/bld/plusplus/cpplib/os2.386/mf_rmtd.dll/plbxmt3r.lib(/mnt/sda5/.user/root/src/openwatcom-1.9/bld/plusplus/cpplib/iostream/cpp/iolglcon.cpp)
0001:00009916  W?$ct:__get_lock$n(pn$__lock$$)_
Module: /mnt/sda5/.user/root/src/openwatcom-1.9/bld/plusplus/cpplib/os2.386/mf_rmtd.dll/plbxmt3r.lib(/mnt/sda5/.user/root/src/openwatcom-1.9/bld/plusplus/cpplib/iostream/cpp/iolgldes.cpp)
0001:0000995c  W?$dt:__get_lock$n()_
Module: /mnt/sda5/.user/root/src/openwatcom-1.9/bld/plusplus/cpplib/os2.386/mf_rmtd.dll/plbxmt3r.lib(/mnt/sda5/.user/root/src/openwatcom-1.9/bld/plusplus/cpplib/iostream/cpp/iosbital.cpp)
0001:0000999a  W?bitalloc$:ios$:std$n()l
Module: /mnt/sda5/.user/root/src/openwatcom-1.9/bld/plusplus/cpplib/os2.386/mf_rmtd.dll/plbxmt3r.lib(/mnt/sda5/.user/root/src/openwatcom-1.9/bld/plusplus/cpplib/iostream/cpp/iosclear.cpp)
0001:00009a10  W?clear$:ios$:std$n(i)i
Module: /mnt/sda5/.user/root/src/openwatcom-1.9/bld/plusplus/cpplib/os2.386/mf_rmtd.dll/plbxmt3r.lib(/mnt/sda5/.user/root/src/openwatcom-1.9/bld/plusplus/cpplib/iostream/cpp/ioscoeio.cpp)
0001:00009b00  W?$aa:ios$:std$n(rnx$0:1$)rn$0:1$
Module: /mnt/sda5/.user/root/src/openwatcom-1.9/bld/plusplus/cpplib/os2.386/mf_rmtd.dll/plbxmt3r.lib(/mnt/sda5/.user/root/src/openwatcom-1.9/bld/plusplus/cpplib/iostream/cpp/ioscoios.cpp)
0002:00001cb0  W?$Wvf0Do19:ios$:std$$nx[]pn()v
0002:00001cc0  W?$Wva0Co0:ios$:std$$nx[]uc
0001:00009d62  W?$ct:ios$:std$n(rnx$0:1$)_
Module: /mnt/sda5/.user/root/src/openwatcom-1.9/bld/plusplus/cpplib/os2.386/mf_rmtd.dll/plbxmt3r.lib(/mnt/sda5/.user/root/src/openwatcom-1.9/bld/plusplus/cpplib/iostream/cpp/iosconde.cpp)
0001:00009e87  W?$ct:ios$:std$n()_
Module: /mnt/sda5/.user/root/src/openwatcom-1.9/bld/plusplus/cpplib/os2.386/mf_rmtd.dll/plbxmt3r.lib(/mnt/sda5/.user/root/src/openwatcom-1.9/bld/plusplus/cpplib/iostream/cpp/ioscostf.cpp)
0001:00009ebc  W?$ct:ios$:std$n(pn$streambuf$:1$)_
Module: /mnt/sda5/.user/root/src/openwatcom-1.9/bld/plusplus/cpplib/os2.386/mf_rmtd.dll/plbxmt3r.lib(/mnt/sda5/.user/root/src/openwatcom-1.9/bld/plusplus/cpplib/iostream/cpp/iosdestr.cpp)
0002:00001cf0+ W?$Wts0Cn$ios$:std$$$nx[]uc
0001:00009efd  W?$dt:ios$:std$n()_
Module: /mnt/sda5/.user/root/src/openwatcom-1.9/bld/plusplus/cpplib/os2.386/mf_rmtd.dll/plbxmt3r.lib(/mnt/sda5/.user/root/src/openwatcom-1.9/bld/plusplus/cpplib/iostream/cpp/iosexcep.cpp)
0001:00009fc5  W?exceptions$:ios$:std$n(i)i
Module: /mnt/sda5/.user/root/src/openwatcom-1.9/bld/plusplus/cpplib/os2.386/mf_rmtd.dll/plbxmt3r.lib(/mnt/sda5/.user/root/src/openwatcom-1.9/bld/plusplus/cpplib/iostream/cpp/iosinit.cpp)
0001:0000a0b3  W?init$:ios$:std$n(pn$streambuf$:2$)v
Module: /mnt/sda5/.user/root/src/openwatcom-1.9/bld/plusplus/cpplib/os2.386/mf_rmtd.dll/plbxmt3r.lib(/mnt/sda5/.user/root/src/openwatcom-1.9/bld/plusplus/cpplib/iostream/cpp/iosiword.cpp)
0001:0000a148  W?iword$:ios$:std$n(i)rnl
Module: /mnt/sda5/.user/root/src/openwatcom-1.9/bld/plusplus/cpplib/os2.386/mf_rmtd.dll/plbxmt3r.lib(/mnt/sda5/.user/root/src/openwatcom-1.9/bld/plusplus/cpplib/iostream/cpp/iospword.cpp)
0001:0000a23c  W?pword$:ios$:std$n(i)rnpnv
Module: /mnt/sda5/.user/root/src/openwatcom-1.9/bld/plusplus/cpplib/os2.386/mf_rmtd.dll/plbxmt3r.lib(/mnt/sda5/.user/root/src/openwatcom-1.9/bld/plusplus/cpplib/iostream/cpp/iossetst.cpp)
0001:0000a406+ W?$ct:failure$:ios$:std$n(rnx$0:1:2$)_
0001:0000a454+ W?$dt:failure$:ios$:std$n()_
0001:0000a480  W?$ct:__WATCOM_exception$n(rnx$0$)_
0002:00001d50+ W?$Wth0Nnrn$failure$:ios$:std$$$nx[]uc
0002:00001d70+ W?$Wts0Ln$failure$:ios$:std$$$nx[]uc
0002:000049f4  W?$Wti0L$__WATCOM_exception$$$n[]uc
0002:00004a0e+ W?$Wti0K$failure$:ios$:std$$$n[]uc
0001:0000a4ac  W?$dt:__WATCOM_exception$n()_
0002:00001d90  W?$Wts0Mn$__WATCOM_exception$$$nx[]uc
0001:0000a330  W?setstate$:ios$:std$n(i)v
Module: /mnt/sda5/.user/root/src/openwatcom-1.9/bld/plusplus/cpplib/os2.386/mf_rmtd.dll/plbxmt3r.lib(/mnt/sda5/.user/root/src/openwatcom-1.9/bld/plusplus/cpplib/iostream/cpp/iosxallo.cpp)
0001:0000a4d8  W?xalloc$:ios$:std$n()i
Module: /mnt/sda5/.user/root/src/openwatcom-1.9/bld/plusplus/cpplib/os2.386/mf_rmtd.dll/plbxmt3r.lib(/mnt/sda5/.user/root/src/openwatcom-1.9/bld/plusplus/cpplib/iostream/cpp/iotconbf.cpp)
0001:0000a6e9  W?$Wvt0X.@dt:iostream$:std$oc$:0:1$dtn()_$:ostream$:std$n()pnv
0002:00001e00  W?$Wvb0Ho0:iostream$:std$$nx[]ui
0002:00001e10  W?$Wvb0Hoc:iostream$:std$$nx[]ui
0002:00001e20  W?$Wvf0Ho8:iostream$:std$$nx[]pn()v
0002:00001e30  W?$Wvf0Hog:iostream$:std$$nx[]pn()v
0002:00001e40  W?$Wvf0Io22:iostream$:std$$nx[]pn()v
0001:0000a717  W?$Wvt0W.@dt:iostream$:std$c$:0:1$dtn()_$:ios$:std$n()pnv
0002:00001e50  W?$Wva0Ho0:iostream$:std$$nx[]uc
0001:0000a52f  W?$ct:iostream$:std$n(pn$streambuf$:1$)_
Module: /mnt/sda5/.user/root/src/openwatcom-1.9/bld/plusplus/cpplib/os2.386/mf_rmtd.dll/plbxmt3r.lib(/mnt/sda5/.user/root/src/openwatcom-1.9/bld/plusplus/cpplib/iostream/cpp/iotconde.cpp)
0001:0000a74a  W?$ct:iostream$:std$n()_
Module: /mnt/sda5/.user/root/src/openwatcom-1.9/bld/plusplus/cpplib/os2.386/mf_rmtd.dll/plbxmt3r.lib(/mnt/sda5/.user/root/src/openwatcom-1.9/bld/plusplus/cpplib/iostream/cpp/iotconsm.cpp)
0001:0000a8e8  W?$ct:iostream$:std$n(rnx$ios$:1$)_
Module: /mnt/sda5/.user/root/src/openwatcom-1.9/bld/plusplus/cpplib/os2.386/mf_rmtd.dll/plbxmt3r.lib(/mnt/sda5/.user/root/src/openwatcom-1.9/bld/plusplus/cpplib/iostream/cpp/iotdestr.cpp)
0002:00001fc0+ W?$Wts0Hn$iostream$:std$$$nx[]uc
0001:0000aaa9  W?$dt:iostream$:std$n()_
Module: /mnt/sda5/.user/root/src/openwatcom-1.9/bld/plusplus/cpplib/os2.386/mf_rmtd.dll/plbxmt3r.lib(/mnt/sda5/.user/root/src/openwatcom-1.9/bld/plusplus/cpplib/iostream/cpp/iotopbuf.cpp)
0001:0000ac53  W?$aa:iostream$:std$n(pn$streambuf$:1$)rn$0:1$
Module: /mnt/sda5/.user/root/src/openwatcom-1.9/bld/plusplus/cpplib/os2.386/mf_rmtd.dll/plbxmt3r.lib(/mnt/sda5/.user/root/src/openwatcom-1.9/bld/plusplus/cpplib/iostream/cpp/iotopstm.cpp)
0001:0000ad50  W?$aa:iostream$:std$n(rnx$ios$:1$)rn$0:1$
Module: /mnt/sda5/.user/root/src/openwatcom-1.9/bld/plusplus/cpplib/os2.386/mf_rmtd.dll/plbxmt3r.lib(/mnt/sda5/.user/root/src/openwatcom-1.9/bld/plusplus/cpplib/iostream/cpp/ioufrxal.cpp)
0001:0000aea4  W?free_xalloc_storage$:__WATCOM_ios$n(pn$ios$:std$$)v
Module: /mnt/sda5/.user/root/src/openwatcom-1.9/bld/plusplus/cpplib/os2.386/mf_rmtd.dll/plbxmt3r.lib(/mnt/sda5/.user/root/src/openwatcom-1.9/bld/plusplus/cpplib/iostream/cpp/ioufuswr.cpp)
0001:0000aeed  W?find_user_word$:__WATCOM_ios$n(pn$ios$:std$$i)pnv
Module: /mnt/sda5/.user/root/src/openwatcom-1.9/bld/plusplus/cpplib/os2.386/mf_rmtd.dll/plbxmt3r.lib(/mnt/sda5/.user/root/src/openwatcom-1.9/bld/plusplus/cpplib/iostream/cpp/iouwrtit.cpp)
0002:00002090  W?$Wcm014$nx[]uc
0001:0000b017  W?writeitem$:__WATCOM_ios$n(rn$ostream$:std$$pnxaii)i
Module: /mnt/sda5/.user/root/src/openwatcom-1.9/bld/plusplus/cpplib/os2.386/mf_rmtd.dll/plbxmt3r.lib(/mnt/sda5/.user/root/src/openwatcom-1.9/bld/plusplus/cpplib/iostream/cpp/isscochz.cpp)
0001:0000c0e7  W?$Wvt0a.@dt:istrstream$:std$o2a$:0:1$dtn()_$:istream$:std$n()pnv
0002:000020f0  W?$Wvb0Jo0:istrstream$:std$$nx[]ui
0002:00002100  W?$Wvb0Ko2a:istrstream$:std$$nx[]ui
0002:00002110  W?$Wvf0Ko26:istrstream$:std$$nx[]pn()v
0002:00002120  W?$Wvf0Ko2i:istrstream$:std$$nx[]pn()v
0002:00002130  W?$Wvf0Ko44:istrstream$:std$$nx[]pn()v
0002:00004a27  W?$Wti0L$strstreambase$:std$$$n[]uc
0001:0000c115  W?$Wvt0Y.@dt:istrstream$:std$c$:0:1$dtn()_$:ios$:std$n()pnv
0001:0000c148  W?.tdtor$:strstreambase$:std$n()pnv
0002:00002140  W?$Wva0Jo0:istrstream$:std$$nx[]uc
0001:0000bf98  W?$ct:istrstream$:std$n(pnai)_
0002:00004a41  W?$Wti0I$istrstream$:std$$$n[]uc
Module: /mnt/sda5/.user/root/src/openwatcom-1.9/bld/plusplus/cpplib/os2.386/mf_rmtd.dll/plbxmt3r.lib(/mnt/sda5/.user/root/src/openwatcom-1.9/bld/plusplus/cpplib/iostream/cpp/issconch.cpp)
0001:0000c17c  W?$ct:istrstream$:std$n(pna)_
Module: /mnt/sda5/.user/root/src/openwatcom-1.9/bld/plusplus/cpplib/os2.386/mf_rmtd.dll/plbxmt3r.lib(/mnt/sda5/.user/root/src/openwatcom-1.9/bld/plusplus/cpplib/iostream/cpp/issconsc.cpp)
0001:0000c2c9  W?$ct:istrstream$:std$n(pnc)_
Module: /mnt/sda5/.user/root/src/openwatcom-1.9/bld/plusplus/cpplib/os2.386/mf_rmtd.dll/plbxmt3r.lib(/mnt/sda5/.user/root/src/openwatcom-1.9/bld/plusplus/cpplib/iostream/cpp/issconuc.cpp)
0001:0000c416  W?$ct:istrstream$:std$n(pnuc)_
Module: /mnt/sda5/.user/root/src/openwatcom-1.9/bld/plusplus/cpplib/os2.386/mf_rmtd.dll/plbxmt3r.lib(/mnt/sda5/.user/root/src/openwatcom-1.9/bld/plusplus/cpplib/iostream/cpp/isscoscz.cpp)
0001:0000c563  W?$ct:istrstream$:std$n(pnci)_
Module: /mnt/sda5/.user/root/src/openwatcom-1.9/bld/plusplus/cpplib/os2.386/mf_rmtd.dll/plbxmt3r.lib(/mnt/sda5/.user/root/src/openwatcom-1.9/bld/plusplus/cpplib/iostream/cpp/isscoucz.cpp)
0001:0000c6b2  W?$ct:istrstream$:std$n(pnuci)_
Module: /mnt/sda5/.user/root/src/openwatcom-1.9/bld/plusplus/cpplib/os2.386/mf_rmtd.dll/plbxmt3r.lib(/mnt/sda5/.user/root/src/openwatcom-1.9/bld/plusplus/cpplib/iostream/cpp/issdestr.cpp)
0002:00002390+ W?$Wts0Jn$istrstream$:std$$$nx[]uc
0001:0000c9ab+ W?.tdtor$:istrstream$:std$n()pnv
0001:0000c801  W?$dt:istrstream$:std$n()_
Module: /mnt/sda5/.user/root/src/openwatcom-1.9/bld/plusplus/cpplib/os2.386/mf_rmtd.dll/plbxmt3r.lib(/mnt/sda5/.user/root/src/openwatcom-1.9/bld/plusplus/cpplib/iostream/cpp/istcoeis.cpp)
0001:0000c9df  W?$aa:istream$:std$n(rnx$0:1$)rn$0:1$
Module: /mnt/sda5/.user/root/src/openwatcom-1.9/bld/plusplus/cpplib/os2.386/mf_rmtd.dll/plbxmt3r.lib(/mnt/sda5/.user/root/src/openwatcom-1.9/bld/plusplus/cpplib/iostream/cpp/istcoesf.cpp)
0001:0000cb83  W?$aa:istream$:std$n(pn$streambuf$:1$)rn$0:1$
Module: /mnt/sda5/.user/root/src/openwatcom-1.9/bld/plusplus/cpplib/os2.386/mf_rmtd.dll/plbxmt3r.lib(/mnt/sda5/.user/root/src/openwatcom-1.9/bld/plusplus/cpplib/iostream/cpp/istcoist.cpp)
0002:00002410  W?$Wvb0Go0:istream$:std$$nx[]ui
0002:00002420  W?$Wvf0Go8:istream$:std$$nx[]pn()v
0002:00002430  W?$Wvf0Ho1p:istream$:std$$nx[]pn()v
0001:0000ce6d  W?$Wvt0V.@dt:istream$:std$c$:0:1$dtn()_$:ios$:std$n()pnv
0002:00002440  W?$Wva0Go0:istream$:std$$nx[]uc
0001:0000cc80  W?$ct:istream$:std$n(rnx$0:1$)_
Module: /mnt/sda5/.user/root/src/openwatcom-1.9/bld/plusplus/cpplib/os2.386/mf_rmtd.dll/plbxmt3r.lib(/mnt/sda5/.user/root/src/openwatcom-1.9/bld/plusplus/cpplib/iostream/cpp/istconde.cpp)
0001:0000cea0  W?$ct:istream$:std$n()_
Module: /mnt/sda5/.user/root/src/openwatcom-1.9/bld/plusplus/cpplib/os2.386/mf_rmtd.dll/plbxmt3r.lib(/mnt/sda5/.user/root/src/openwatcom-1.9/bld/plusplus/cpplib/iostream/cpp/istconsf.cpp)
0001:0000cfde  W?$ct:istream$:std$n(pn$streambuf$:1$)_
Module: /mnt/sda5/.user/root/src/openwatcom-1.9/bld/plusplus/cpplib/os2.386/mf_rmtd.dll/plbxmt3r.lib(/mnt/sda5/.user/root/src/openwatcom-1.9/bld/plusplus/cpplib/iostream/cpp/istdestr.cpp)
0001:0000d138  W?$dt:istream$:std$n()_
Module: /mnt/sda5/.user/root/src/openwatcom-1.9/bld/plusplus/cpplib/os2.386/mf_rmtd.dll/plbxmt3r.lib(/mnt/sda5/.user/root/src/openwatcom-1.9/bld/plusplus/cpplib/iostream/cpp/istdipfx.cpp)
0001:0000d27c  W?do_ipfx$:istream$:std$n(i)i
Module: /mnt/sda5/.user/root/src/openwatcom-1.9/bld/plusplus/cpplib/os2.386/mf_rmtd.dll/plbxmt3r.lib(/mnt/sda5/.user/root/src/openwatcom-1.9/bld/plusplus/cpplib/iostream/cpp/istdoget.cpp)
0001:0000d564  W?do_get$:istream$:std$n(rna)rn$1:2$
Module: /mnt/sda5/.user/root/src/openwatcom-1.9/bld/plusplus/cpplib/os2.386/mf_rmtd.dll/plbxmt3r.lib(/mnt/sda5/.user/root/src/openwatcom-1.9/bld/plusplus/cpplib/iostream/cpp/istdread.cpp)
0001:0000d792  W?do_read$:istream$:std$n(pnai)rn$1:2$
Module: /mnt/sda5/.user/root/src/openwatcom-1.9/bld/plusplus/cpplib/os2.386/mf_rmtd.dll/plbxmt3r.lib(/mnt/sda5/.user/root/src/openwatcom-1.9/bld/plusplus/cpplib/iostream/cpp/istdrshf.cpp)
0001:0000dad9  W?do_rshift$:istream$:std$n(rna)rn$1:2$
Module: /mnt/sda5/.user/root/src/openwatcom-1.9/bld/plusplus/cpplib/os2.386/mf_rmtd.dll/plbxmt3r.lib(/mnt/sda5/.user/root/src/openwatcom-1.9/bld/plusplus/cpplib/iostream/cpp/isteatwh.cpp)
0001:0000dcf3  W?eatwhite$:istream$:std$n()v
Module: /mnt/sda5/.user/root/src/openwatcom-1.9/bld/plusplus/cpplib/os2.386/mf_rmtd.dll/plbxmt3r.lib(/mnt/sda5/.user/root/src/openwatcom-1.9/bld/plusplus/cpplib/iostream/cpp/istexcha.cpp)
0001:0000ddbf  W?$oa:istream$:std$n(rna)rn$0:1$
Module: /mnt/sda5/.user/root/src/openwatcom-1.9/bld/plusplus/cpplib/os2.386/mf_rmtd.dll/plbxmt3r.lib(/mnt/sda5/.user/root/src/openwatcom-1.9/bld/plusplus/cpplib/iostream/cpp/istexi64.cpp)
0001:0000e287  W?$oa:istream$:std$n(rnz)rn$0:1$
Module: /mnt/sda5/.user/root/src/openwatcom-1.9/bld/plusplus/cpplib/os2.386/mf_rmtd.dll/plbxmt3r.lib(/mnt/sda5/.user/root/src/openwatcom-1.9/bld/plusplus/cpplib/iostream/cpp/isteximn.cpp)
0001:0000e4d5  W?$oa:istream$:std$n(pn(rn$0:1$)rn$0:1$)rn$0:1$
Module: /mnt/sda5/.user/root/src/openwatcom-1.9/bld/plusplus/cpplib/os2.386/mf_rmtd.dll/plbxmt3r.lib(/mnt/sda5/.user/root/src/openwatcom-1.9/bld/plusplus/cpplib/iostream/cpp/istexiom.cpp)
0001:0000e504  W?$oa:istream$:std$n(pn(rn$ios$:1$)rn$2:1$)rn$0:1$
Module: /mnt/sda5/.user/root/src/openwatcom-1.9/bld/plusplus/cpplib/os2.386/mf_rmtd.dll/plbxmt3r.lib(/mnt/sda5/.user/root/src/openwatcom-1.9/bld/plusplus/cpplib/iostream/cpp/istexpch.cpp)
0001:0000e546  W?$oa:istream$:std$n(pna)rn$0:1$
Module: /mnt/sda5/.user/root/src/openwatcom-1.9/bld/plusplus/cpplib/os2.386/mf_rmtd.dll/plbxmt3r.lib(/mnt/sda5/.user/root/src/openwatcom-1.9/bld/plusplus/cpplib/iostream/cpp/istexsin.cpp)
0001:0000eb2e  W?$oa:istream$:std$n(rni)rn$0:1$
Module: /mnt/sda5/.user/root/src/openwatcom-1.9/bld/plusplus/cpplib/os2.386/mf_rmtd.dll/plbxmt3r.lib(/mnt/sda5/.user/root/src/openwatcom-1.9/bld/plusplus/cpplib/iostream/cpp/istexslo.cpp)
0001:0000ed63  W?$oa:istream$:std$n(rnl)rn$0:1$
Module: /mnt/sda5/.user/root/src/openwatcom-1.9/bld/plusplus/cpplib/os2.386/mf_rmtd.dll/plbxmt3r.lib(/mnt/sda5/.user/root/src/openwatcom-1.9/bld/plusplus/cpplib/iostream/cpp/istexssh.cpp)
0001:0000ef98  W?$oa:istream$:std$n(rns)rn$0:1$
Module: /mnt/sda5/.user/root/src/openwatcom-1.9/bld/plusplus/cpplib/os2.386/mf_rmtd.dll/plbxmt3r.lib(/mnt/sda5/.user/root/src/openwatcom-1.9/bld/plusplus/cpplib/iostream/cpp/istexstf.cpp)
0002:00002690  W?$Wcm015$nx[]uc
0001:0000f1ce  W?$oa:istream$:std$n(pn$streambuf$:1$)rn$0:1$
Module: /mnt/sda5/.user/root/src/openwatcom-1.9/bld/plusplus/cpplib/os2.386/mf_rmtd.dll/plbxmt3r.lib(/mnt/sda5/.user/root/src/openwatcom-1.9/bld/plusplus/cpplib/iostream/cpp/istexu64.cpp)
0001:0000f786  W?$oa:istream$:std$n(rnuz)rn$0:1$
Module: /mnt/sda5/.user/root/src/openwatcom-1.9/bld/plusplus/cpplib/os2.386/mf_rmtd.dll/plbxmt3r.lib(/mnt/sda5/.user/root/src/openwatcom-1.9/bld/plusplus/cpplib/iostream/cpp/istexuin.cpp)
0001:0000f9d1  W?$oa:istream$:std$n(rnui)rn$0:1$
Module: /mnt/sda5/.user/root/src/openwatcom-1.9/bld/plusplus/cpplib/os2.386/mf_rmtd.dll/plbxmt3r.lib(/mnt/sda5/.user/root/src/openwatcom-1.9/bld/plusplus/cpplib/iostream/cpp/istexulo.cpp)
0001:0000fc06  W?$oa:istream$:std$n(rnul)rn$0:1$
Module: /mnt/sda5/.user/root/src/openwatcom-1.9/bld/plusplus/cpplib/os2.386/mf_rmtd.dll/plbxmt3r.lib(/mnt/sda5/.user/root/src/openwatcom-1.9/bld/plusplus/cpplib/iostream/cpp/istexush.cpp)
0001:0000fe3b  W?$oa:istream$:std$n(rnus)rn$0:1$
Module: /mnt/sda5/.user/root/src/openwatcom-1.9/bld/plusplus/cpplib/os2.386/mf_rmtd.dll/plbxmt3r.lib(/mnt/sda5/.user/root/src/openwatcom-1.9/bld/plusplus/cpplib/iostream/cpp/istgch.cpp)
0001:00010071  W?get$:istream$:std$n(rna)rn$1:2$
Module: /mnt/sda5/.user/root/src/openwatcom-1.9/bld/plusplus/cpplib/os2.386/mf_rmtd.dll/plbxmt3r.lib(/mnt/sda5/.user/root/src/openwatcom-1.9/bld/plusplus/cpplib/iostream/cpp/istget.cpp)
0001:000104d7  W?get$:istream$:std$n()i
Module: /mnt/sda5/.user/root/src/openwatcom-1.9/bld/plusplus/cpplib/os2.386/mf_rmtd.dll/plbxmt3r.lib(/mnt/sda5/.user/root/src/openwatcom-1.9/bld/plusplus/cpplib/iostream/cpp/istgline.cpp)
0001:0001072a  W?getline$:istream$:std$n(pnaia)rn$1:2$
Module: /mnt/sda5/.user/root/src/openwatcom-1.9/bld/plusplus/cpplib/os2.386/mf_rmtd.dll/plbxmt3r.lib(/mnt/sda5/.user/root/src/openwatcom-1.9/bld/plusplus/cpplib/iostream/cpp/istgpch.cpp)
0001:00010847  W?get$:istream$:std$n(pnaia)rn$1:2$
Module: /mnt/sda5/.user/root/src/openwatcom-1.9/bld/plusplus/cpplib/os2.386/mf_rmtd.dll/plbxmt3r.lib(/mnt/sda5/.user/root/src/openwatcom-1.9/bld/plusplus/cpplib/iostream/cpp/istgstf.cpp)
0001:00010964  W?get$:istream$:std$n(rn$streambuf$:2$a)rn$1:2$
Module: /mnt/sda5/.user/root/src/openwatcom-1.9/bld/plusplus/cpplib/os2.386/mf_rmtd.dll/plbxmt3r.lib(/mnt/sda5/.user/root/src/openwatcom-1.9/bld/plusplus/cpplib/iostream/cpp/istignor.cpp)
0001:00010ee2  W?ignore$:istream$:std$n(ii)rn$1:2$
Module: /mnt/sda5/.user/root/src/openwatcom-1.9/bld/plusplus/cpplib/os2.386/mf_rmtd.dll/plbxmt3r.lib(/mnt/sda5/.user/root/src/openwatcom-1.9/bld/plusplus/cpplib/iostream/cpp/istipfx.cpp)
0001:00011166  W?ipfx$:istream$:std$n(i)i
Module: /mnt/sda5/.user/root/src/openwatcom-1.9/bld/plusplus/cpplib/os2.386/mf_rmtd.dll/plbxmt3r.lib(/mnt/sda5/.user/root/src/openwatcom-1.9/bld/plusplus/cpplib/iostream/cpp/istpback.cpp)
0001:0001132f  W?putback$:istream$:std$n(a)rn$1:2$
Module: /mnt/sda5/.user/root/src/openwatcom-1.9/bld/plusplus/cpplib/os2.386/mf_rmtd.dll/plbxmt3r.lib(/mnt/sda5/.user/root/src/openwatcom-1.9/bld/plusplus/cpplib/iostream/cpp/istpeek.cpp)
0001:00011620  W?peek$:istream$:std$n()i
Module: /mnt/sda5/.user/root/src/openwatcom-1.9/bld/plusplus/cpplib/os2.386/mf_rmtd.dll/plbxmt3r.lib(/mnt/sda5/.user/root/src/openwatcom-1.9/bld/plusplus/cpplib/iostream/cpp/istread.cpp)
0001:00011842  W?read$:istream$:std$n(pnai)rn$1:2$
Module: /mnt/sda5/.user/root/src/openwatcom-1.9/bld/plusplus/cpplib/os2.386/mf_rmtd.dll/plbxmt3r.lib(/mnt/sda5/.user/root/src/openwatcom-1.9/bld/plusplus/cpplib/iostream/cpp/istsgsto.cpp)
0001:00011d49  W?seekg$:istream$:std$n(li)rn$1:2$
Module: /mnt/sda5/.user/root/src/openwatcom-1.9/bld/plusplus/cpplib/os2.386/mf_rmtd.dll/plbxmt3r.lib(/mnt/sda5/.user/root/src/openwatcom-1.9/bld/plusplus/cpplib/iostream/cpp/istsgstp.cpp)
0001:00011ea5  W?seekg$:istream$:std$n(l)rn$1:2$
Module: /mnt/sda5/.user/root/src/openwatcom-1.9/bld/plusplus/cpplib/os2.386/mf_rmtd.dll/plbxmt3r.lib(/mnt/sda5/.user/root/src/openwatcom-1.9/bld/plusplus/cpplib/iostream/cpp/istsync.cpp)
0001:00011fff  W?sync$:istream$:std$n()i
Module: /mnt/sda5/.user/root/src/openwatcom-1.9/bld/plusplus/cpplib/os2.386/mf_rmtd.dll/plbxmt3r.lib(/mnt/sda5/.user/root/src/openwatcom-1.9/bld/plusplus/cpplib/iostream/cpp/isttellg.cpp)
0001:0001205c  W?tellg$:istream$:std$n()l
Module: /mnt/sda5/.user/root/src/openwatcom-1.9/bld/plusplus/cpplib/os2.386/mf_rmtd.dll/plbxmt3r.lib(/mnt/sda5/.user/root/src/openwatcom-1.9/bld/plusplus/cpplib/iostream/cpp/mandec.cpp)
0001:000121cf  W?dec$:std$n(rn$ios$:1$)rn$2:1$
Module: /mnt/sda5/.user/root/src/openwatcom-1.9/bld/plusplus/cpplib/os2.386/mf_rmtd.dll/plbxmt3r.lib(/mnt/sda5/.user/root/src/openwatcom-1.9/bld/plusplus/cpplib/iostream/cpp/manendl.cpp)
0001:00012254  W?endl$:std$n(rn$ostream$:1$)rn$2:1$
Module: /mnt/sda5/.user/root/src/openwatcom-1.9/bld/plusplus/cpplib/os2.386/mf_rmtd.dll/plbxmt3r.lib(/mnt/sda5/.user/root/src/openwatcom-1.9/bld/plusplus/cpplib/iostream/cpp/manends.cpp)
0001:0001234a  W?ends$:std$n(rn$ostream$:1$)rn$2:1$
Module: /mnt/sda5/.user/root/src/openwatcom-1.9/bld/plusplus/cpplib/os2.386/mf_rmtd.dll/plbxmt3r.lib(/mnt/sda5/.user/root/src/openwatcom-1.9/bld/plusplus/cpplib/iostream/cpp/manflush.cpp)
0001:0001237f  W?flush$:std$n(rn$ostream$:1$)rn$2:1$
Module: /mnt/sda5/.user/root/src/openwatcom-1.9/bld/plusplus/cpplib/os2.386/mf_rmtd.dll/plbxmt3r.lib(/mnt/sda5/.user/root/src/openwatcom-1.9/bld/plusplus/cpplib/iostream/cpp/manhex.cpp)
0001:000123af  W?hex$:std$n(rn$ios$:1$)rn$2:1$
Module: /mnt/sda5/.user/root/src/openwatcom-1.9/bld/plusplus/cpplib/os2.386/mf_rmtd.dll/plbxmt3r.lib(/mnt/sda5/.user/root/src/openwatcom-1.9/bld/plusplus/cpplib/iostream/cpp/manoct.cpp)
0001:00012434  W?oct$:std$n(rn$ios$:1$)rn$2:1$
Module: /mnt/sda5/.user/root/src/openwatcom-1.9/bld/plusplus/cpplib/os2.386/mf_rmtd.dll/plbxmt3r.lib(/mnt/sda5/.user/root/src/openwatcom-1.9/bld/plusplus/cpplib/iostream/cpp/manriofg.cpp)
0002:00005f54  W?resetiosflags$:std$n$sapp$::1nl$
Module: /mnt/sda5/.user/root/src/openwatcom-1.9/bld/plusplus/cpplib/os2.386/mf_rmtd.dll/plbxmt3r.lib(/mnt/sda5/.user/root/src/openwatcom-1.9/bld/plusplus/cpplib/iostream/cpp/mansbase.cpp)
0002:00005f58  W?setbase$:std$n$sapp$::1ni$
Module: /mnt/sda5/.user/root/src/openwatcom-1.9/bld/plusplus/cpplib/os2.386/mf_rmtd.dll/plbxmt3r.lib(/mnt/sda5/.user/root/src/openwatcom-1.9/bld/plusplus/cpplib/iostream/cpp/mansetw.cpp)
0002:00005f5c  W?setw$:std$n$sapp$::1ni$
Module: /mnt/sda5/.user/root/src/openwatcom-1.9/bld/plusplus/cpplib/os2.386/mf_rmtd.dll/plbxmt3r.lib(/mnt/sda5/.user/root/src/openwatcom-1.9/bld/plusplus/cpplib/iostream/cpp/mansfill.cpp)
0002:00005f60  W?setfill$:std$n$sapp$::1ni$
Module: /mnt/sda5/.user/root/src/openwatcom-1.9/bld/plusplus/cpplib/os2.386/mf_rmtd.dll/plbxmt3r.lib(/mnt/sda5/.user/root/src/openwatcom-1.9/bld/plusplus/cpplib/iostream/cpp/mansiofl.cpp)
0002:00005f64  W?setiosflags$:std$n$sapp$::1nl$
Module: /mnt/sda5/.user/root/src/openwatcom-1.9/bld/plusplus/cpplib/os2.386/mf_rmtd.dll/plbxmt3r.lib(/mnt/sda5/.user/root/src/openwatcom-1.9/bld/plusplus/cpplib/iostream/cpp/mansprec.cpp)
0002:00005f68  W?setprecision$:std$n$sapp$::1ni$
Module: /mnt/sda5/.user/root/src/openwatcom-1.9/bld/plusplus/cpplib/os2.386/mf_rmtd.dll/plbxmt3r.lib(/mnt/sda5/.user/root/src/openwatcom-1.9/bld/plusplus/cpplib/iostream/cpp/manws.cpp)
0001:00012aa5  W?ws$:std$n(rn$istream$:1$)rn$2:1$
Module: /mnt/sda5/.user/root/src/openwatcom-1.9/bld/plusplus/cpplib/os2.386/mf_rmtd.dll/plbxmt3r.lib(/mnt/sda5/.user/root/src/openwatcom-1.9/bld/plusplus/cpplib/iostream/cpp/ofsconde.cpp)
0001:00012d29  W?$Wvt0Y.@dt:ofstream$:std$o26$:0:1$dtn()_$:ostream$:std$n()pnv
0002:00002930  W?$Wvb0Ho0:ofstream$:std$$nx[]ui
0002:00002940  W?$Wvb0Io26:ofstream$:std$$nx[]ui
0002:00002950  W?$Wvf0Io22:ofstream$:std$$nx[]pn()v
0002:00002960  W?$Wvf0Io2a:ofstream$:std$$nx[]pn()v
0002:00002970  W?$Wvf0Io3r:ofstream$:std$$nx[]pn()v
0001:00012d57  W?$Wvt0W.@dt:ofstream$:std$c$:0:1$dtn()_$:ios$:std$n()pnv
0002:00002980  W?$Wva0Ho0:ofstream$:std$$nx[]uc
0001:00012be4  W?$ct:ofstream$:std$n()_
0002:00004a58  W?$Wti0G$ofstream$:std$$$n[]uc
Module: /mnt/sda5/.user/root/src/openwatcom-1.9/bld/plusplus/cpplib/os2.386/mf_rmtd.dll/plbxmt3r.lib(/mnt/sda5/.user/root/src/openwatcom-1.9/bld/plusplus/cpplib/iostream/cpp/ofsconfd.cpp)
0001:00012d8a  W?$ct:ofstream$:std$n(i)_
Module: /mnt/sda5/.user/root/src/openwatcom-1.9/bld/plusplus/cpplib/os2.386/mf_rmtd.dll/plbxmt3r.lib(/mnt/sda5/.user/root/src/openwatcom-1.9/bld/plusplus/cpplib/iostream/cpp/ofsconnm.cpp)
0001:00012ed3  W?$ct:ofstream$:std$n(pnxaii)_
Module: /mnt/sda5/.user/root/src/openwatcom-1.9/bld/plusplus/cpplib/os2.386/mf_rmtd.dll/plbxmt3r.lib(/mnt/sda5/.user/root/src/openwatcom-1.9/bld/plusplus/cpplib/iostream/cpp/ofsconsf.cpp)
0001:00013029  W?$ct:ofstream$:std$n(ipnai)_
Module: /mnt/sda5/.user/root/src/openwatcom-1.9/bld/plusplus/cpplib/os2.386/mf_rmtd.dll/plbxmt3r.lib(/mnt/sda5/.user/root/src/openwatcom-1.9/bld/plusplus/cpplib/iostream/cpp/ofsdestr.cpp)
0002:00002b30+ W?$Wts0Hn$ofstream$:std$$$nx[]uc
0001:00013326+ W?.tdtor$:ofstream$:std$n()pnv
0001:0001317c  W?$dt:ofstream$:std$n()_
Module: /mnt/sda5/.user/root/src/openwatcom-1.9/bld/plusplus/cpplib/os2.386/mf_rmtd.dll/plbxmt3r.lib(/mnt/sda5/.user/root/src/openwatcom-1.9/bld/plusplus/cpplib/iostream/cpp/ossconch.cpp)
0001:000134e1  W?$Wvt0a.@dt:ostrstream$:std$o2a$:0:1$dtn()_$:ostream$:std$n()pnv
0002:00002ba0  W?$Wvb0Jo0:ostrstream$:std$$nx[]ui
0002:00002bb0  W?$Wvb0Ko2a:ostrstream$:std$$nx[]ui
0002:00002bc0  W?$Wvf0Ko26:ostrstream$:std$$nx[]pn()v
0002:00002bd0  W?$Wvf0Ko2e:ostrstream$:std$$nx[]pn()v
0002:00002be0  W?$Wvf0Ko40:ostrstream$:std$$nx[]pn()v
0001:0001350f  W?$Wvt0Y.@dt:ostrstream$:std$c$:0:1$dtn()_$:ios$:std$n()pnv
0002:00002bf0  W?$Wva0Jo0:ostrstream$:std$$nx[]uc
0001:0001335a  W?$ct:ostrstream$:std$n(pnaii)_
0002:00004a6d  W?$Wti0I$ostrstream$:std$$$n[]uc
Module: /mnt/sda5/.user/root/src/openwatcom-1.9/bld/plusplus/cpplib/os2.386/mf_rmtd.dll/plbxmt3r.lib(/mnt/sda5/.user/root/src/openwatcom-1.9/bld/plusplus/cpplib/iostream/cpp/ossconde.cpp)
0001:00013542  W?$ct:ostrstream$:std$n()_
Module: /mnt/sda5/.user/root/src/openwatcom-1.9/bld/plusplus/cpplib/os2.386/mf_rmtd.dll/plbxmt3r.lib(/mnt/sda5/.user/root/src/openwatcom-1.9/bld/plusplus/cpplib/iostream/cpp/ossconsc.cpp)
0001:00013687  W?$ct:ostrstream$:std$n(pncii)_
Module: /mnt/sda5/.user/root/src/openwatcom-1.9/bld/plusplus/cpplib/os2.386/mf_rmtd.dll/plbxmt3r.lib(/mnt/sda5/.user/root/src/openwatcom-1.9/bld/plusplus/cpplib/iostream/cpp/ossconuc.cpp)
0001:0001380e  W?$ct:ostrstream$:std$n(pnucii)_
Module: /mnt/sda5/.user/root/src/openwatcom-1.9/bld/plusplus/cpplib/os2.386/mf_rmtd.dll/plbxmt3r.lib(/mnt/sda5/.user/root/src/openwatcom-1.9/bld/plusplus/cpplib/iostream/cpp/ossdestr.cpp)
0002:00002da0+ W?$Wts0Jn$ostrstream$:std$$$nx[]uc
0001:00013b3f+ W?.tdtor$:ostrstream$:std$n()pnv
0001:00013995  W?$dt:ostrstream$:std$n()_
Module: /mnt/sda5/.user/root/src/openwatcom-1.9/bld/plusplus/cpplib/os2.386/mf_rmtd.dll/plbxmt3r.lib(/mnt/sda5/.user/root/src/openwatcom-1.9/bld/plusplus/cpplib/iostream/cpp/ostcoeos.cpp)
0001:00013b73  W?$aa:ostream$:std$n(rnx$0:1$)rn$0:1$
Module: /mnt/sda5/.user/root/src/openwatcom-1.9/bld/plusplus/cpplib/os2.386/mf_rmtd.dll/plbxmt3r.lib(/mnt/sda5/.user/root/src/openwatcom-1.9/bld/plusplus/cpplib/iostream/cpp/ostcoesf.cpp)
0001:00013d17  W?$aa:ostream$:std$n(pn$streambuf$:1$)rn$0:1$
Module: /mnt/sda5/.user/root/src/openwatcom-1.9/bld/plusplus/cpplib/os2.386/mf_rmtd.dll/plbxmt3r.lib(/mnt/sda5/.user/root/src/openwatcom-1.9/bld/plusplus/cpplib/iostream/cpp/ostconde.cpp)
0002:00002df0  W?$Wvb0Go0:ostream$:std$$nx[]ui
0002:00002e00  W?$Wvf0Go4:ostream$:std$$nx[]pn()v
0002:00002e10  W?$Wvf0Ho1l:ostream$:std$$nx[]pn()v
0001:00013ea1  W?$Wvt0V.@dt:ostream$:std$c$:0:1$dtn()_$:ios$:std$n()pnv
0001:00013e14  W?$ct:ostream$:std$n()_
0002:00002e20  W?$Wva0Go0:ostream$:std$$nx[]uc
Module: /mnt/sda5/.user/root/src/openwatcom-1.9/bld/plusplus/cpplib/os2.386/mf_rmtd.dll/plbxmt3r.lib(/mnt/sda5/.user/root/src/openwatcom-1.9/bld/plusplus/cpplib/iostream/cpp/ostconsf.cpp)
0001:00013ed4  W?$ct:ostream$:std$n(pn$streambuf$:1$)_
Module: /mnt/sda5/.user/root/src/openwatcom-1.9/bld/plusplus/cpplib/os2.386/mf_rmtd.dll/plbxmt3r.lib(/mnt/sda5/.user/root/src/openwatcom-1.9/bld/plusplus/cpplib/iostream/cpp/ostcoost.cpp)
0001:00013fcb  W?$ct:ostream$:std$n(rnx$0:1$)_
Module: /mnt/sda5/.user/root/src/openwatcom-1.9/bld/plusplus/cpplib/os2.386/mf_rmtd.dll/plbxmt3r.lib(/mnt/sda5/.user/root/src/openwatcom-1.9/bld/plusplus/cpplib/iostream/cpp/ostdestr.cpp)
0001:00014146  W?$dt:ostream$:std$n()_
Module: /mnt/sda5/.user/root/src/openwatcom-1.9/bld/plusplus/cpplib/os2.386/mf_rmtd.dll/plbxmt3r.lib(/mnt/sda5/.user/root/src/openwatcom-1.9/bld/plusplus/cpplib/iostream/cpp/ostdlshf.cpp)
0001:0001428a  W?do_lshift$:ostream$:std$n(a)rn$1:2$
Module: /mnt/sda5/.user/root/src/openwatcom-1.9/bld/plusplus/cpplib/os2.386/mf_rmtd.dll/plbxmt3r.lib(/mnt/sda5/.user/root/src/openwatcom-1.9/bld/plusplus/cpplib/iostream/cpp/ostflush.cpp)
0001:000143a2  W?flush$:ostream$:std$n()rn$1:2$
Module: /mnt/sda5/.user/root/src/openwatcom-1.9/bld/plusplus/cpplib/os2.386/mf_rmtd.dll/plbxmt3r.lib(/mnt/sda5/.user/root/src/openwatcom-1.9/bld/plusplus/cpplib/iostream/cpp/ostincch.cpp)
0001:0001451a  W?$ob:ostream$:std$n(pnxa)rn$0:1$
Module: /mnt/sda5/.user/root/src/openwatcom-1.9/bld/plusplus/cpplib/os2.386/mf_rmtd.dll/plbxmt3r.lib(/mnt/sda5/.user/root/src/openwatcom-1.9/bld/plusplus/cpplib/iostream/cpp/ostincha.cpp)
0001:000148e5  W?$ob:ostream$:std$n(a)rn$0:1$
Module: /mnt/sda5/.user/root/src/openwatcom-1.9/bld/plusplus/cpplib/os2.386/mf_rmtd.dll/plbxmt3r.lib(/mnt/sda5/.user/root/src/openwatcom-1.9/bld/plusplus/cpplib/iostream/cpp/ostini64.cpp)
0001:00014ecb  W?$ob:ostream$:std$n(z)rn$0:1$
Module: /mnt/sda5/.user/root/src/openwatcom-1.9/bld/plusplus/cpplib/os2.386/mf_rmtd.dll/plbxmt3r.lib(/mnt/sda5/.user/root/src/openwatcom-1.9/bld/plusplus/cpplib/iostream/cpp/ostiniom.cpp)
0001:0001541b  W?$ob:ostream$:std$n(pn(rn$ios$:1$)rn$2:1$)rn$0:1$
Module: /mnt/sda5/.user/root/src/openwatcom-1.9/bld/plusplus/cpplib/os2.386/mf_rmtd.dll/plbxmt3r.lib(/mnt/sda5/.user/root/src/openwatcom-1.9/bld/plusplus/cpplib/iostream/cpp/ostinomn.cpp)
0001:0001545d  W?$ob:ostream$:std$n(pn(rn$0:1$)rn$0:1$)rn$0:1$
Module: /mnt/sda5/.user/root/src/openwatcom-1.9/bld/plusplus/cpplib/os2.386/mf_rmtd.dll/plbxmt3r.lib(/mnt/sda5/.user/root/src/openwatcom-1.9/bld/plusplus/cpplib/iostream/cpp/ostinptr.cpp)
0001:0001548c  W?$ob:ostream$:std$n(pnv)rn$0:1$
Module: /mnt/sda5/.user/root/src/openwatcom-1.9/bld/plusplus/cpplib/os2.386/mf_rmtd.dll/plbxmt3r.lib(/mnt/sda5/.user/root/src/openwatcom-1.9/bld/plusplus/cpplib/iostream/cpp/ostinslo.cpp)
0001:00015924  W?$ob:ostream$:std$n(l)rn$0:1$
Module: /mnt/sda5/.user/root/src/openwatcom-1.9/bld/plusplus/cpplib/os2.386/mf_rmtd.dll/plbxmt3r.lib(/mnt/sda5/.user/root/src/openwatcom-1.9/bld/plusplus/cpplib/iostream/cpp/ostinstf.cpp)
0002:00003040+ W?$Wcm016$nx[]uc
0001:00015e34  W?$ob:ostream$:std$n(pn$streambuf$:1$)rn$0:1$
Module: /mnt/sda5/.user/root/src/openwatcom-1.9/bld/plusplus/cpplib/os2.386/mf_rmtd.dll/plbxmt3r.lib(/mnt/sda5/.user/root/src/openwatcom-1.9/bld/plusplus/cpplib/iostream/cpp/ostinu64.cpp)
0001:000164d7  W?$ob:ostream$:std$n(uz)rn$0:1$
Module: /mnt/sda5/.user/root/src/openwatcom-1.9/bld/plusplus/cpplib/os2.386/mf_rmtd.dll/plbxmt3r.lib(/mnt/sda5/.user/root/src/openwatcom-1.9/bld/plusplus/cpplib/iostream/cpp/ostinulo.cpp)
0001:00016ab7  W?$ob:ostream$:std$n(ul)rn$0:1$
Module: /mnt/sda5/.user/root/src/openwatcom-1.9/bld/plusplus/cpplib/os2.386/mf_rmtd.dll/plbxmt3r.lib(/mnt/sda5/.user/root/src/openwatcom-1.9/bld/plusplus/cpplib/iostream/cpp/ostopfx.cpp)
0001:0001706a  W?do_opfx$:ostream$:std$n()i
Module: /mnt/sda5/.user/root/src/openwatcom-1.9/bld/plusplus/cpplib/os2.386/mf_rmtd.dll/plbxmt3r.lib(/mnt/sda5/.user/root/src/openwatcom-1.9/bld/plusplus/cpplib/iostream/cpp/ostput.cpp)
0001:0001722b  W?put$:ostream$:std$n(a)rn$1:2$
Module: /mnt/sda5/.user/root/src/openwatcom-1.9/bld/plusplus/cpplib/os2.386/mf_rmtd.dll/plbxmt3r.lib(/mnt/sda5/.user/root/src/openwatcom-1.9/bld/plusplus/cpplib/iostream/cpp/ostspsto.cpp)
0001:000177b4  W?seekp$:ostream$:std$n(li)rn$1:2$
Module: /mnt/sda5/.user/root/src/openwatcom-1.9/bld/plusplus/cpplib/os2.386/mf_rmtd.dll/plbxmt3r.lib(/mnt/sda5/.user/root/src/openwatcom-1.9/bld/plusplus/cpplib/iostream/cpp/ostspstp.cpp)
0001:00017c12  W?seekp$:ostream$:std$n(l)rn$1:2$
Module: /mnt/sda5/.user/root/src/openwatcom-1.9/bld/plusplus/cpplib/os2.386/mf_rmtd.dll/plbxmt3r.lib(/mnt/sda5/.user/root/src/openwatcom-1.9/bld/plusplus/cpplib/iostream/cpp/osttellp.cpp)
0001:00018068  W?tellp$:ostream$:std$n()l
Module: /mnt/sda5/.user/root/src/openwatcom-1.9/bld/plusplus/cpplib/os2.386/mf_rmtd.dll/plbxmt3r.lib(/mnt/sda5/.user/root/src/openwatcom-1.9/bld/plusplus/cpplib/iostream/cpp/ostwrite.cpp)
0001:000181db  W?write$:ostream$:std$n(pnxai)rn$1:2$
Module: /mnt/sda5/.user/root/src/openwatcom-1.9/bld/plusplus/cpplib/os2.386/mf_rmtd.dll/plbxmt3r.lib(/mnt/sda5/.user/root/src/openwatcom-1.9/bld/plusplus/cpplib/iostream/cpp/sdfconde.cpp)
0002:000031b0  W?$Wvf0Do19:stdiobuf$$nx[]pn()v
0001:000187fe  W?$ct:stdiobuf$n()_
0002:000031e0  W?$Wva0Co0:stdiobuf$$nx[]uc
Module: /mnt/sda5/.user/root/src/openwatcom-1.9/bld/plusplus/cpplib/os2.386/mf_rmtd.dll/plbxmt3r.lib(/mnt/sda5/.user/root/src/openwatcom-1.9/bld/plusplus/cpplib/iostream/cpp/sdfconfp.cpp)
0001:00018844  W?$ct:stdiobuf$n(pn$__iobuf$$)_
Module: /mnt/sda5/.user/root/src/openwatcom-1.9/bld/plusplus/cpplib/os2.386/mf_rmtd.dll/plbxmt3r.lib(/mnt/sda5/.user/root/src/openwatcom-1.9/bld/plusplus/cpplib/iostream/cpp/sdfdestr.cpp)
0001:00018894  W?$dt:stdiobuf$n()_
Module: /mnt/sda5/.user/root/src/openwatcom-1.9/bld/plusplus/cpplib/os2.386/mf_rmtd.dll/plbxmt3r.lib(/mnt/sda5/.user/root/src/openwatcom-1.9/bld/plusplus/cpplib/iostream/cpp/sdfoverf.cpp)
0001:000189e5  W?overflow$:stdiobuf$n(i)i
Module: /mnt/sda5/.user/root/src/openwatcom-1.9/bld/plusplus/cpplib/os2.386/mf_rmtd.dll/plbxmt3r.lib(/mnt/sda5/.user/root/src/openwatcom-1.9/bld/plusplus/cpplib/iostream/cpp/sdfsync.cpp)
0001:0001949e  W?sync$:stdiobuf$n()i
Module: /mnt/sda5/.user/root/src/openwatcom-1.9/bld/plusplus/cpplib/os2.386/mf_rmtd.dll/plbxmt3r.lib(/mnt/sda5/.user/root/src/openwatcom-1.9/bld/plusplus/cpplib/iostream/cpp/sdfundrf.cpp)
0001:00019652  W?underflow$:stdiobuf$n()i
Module: /mnt/sda5/.user/root/src/openwatcom-1.9/bld/plusplus/cpplib/os2.386/mf_rmtd.dll/plbxmt3r.lib(/mnt/sda5/.user/root/src/openwatcom-1.9/bld/plusplus/cpplib/iostream/cpp/ssbconde.cpp)
0002:000032f0  W?$Wvf0Mo19:strstreambuf$:std$$nx[]pn()v
0002:00003320  W?$Wvb0Mo0:strstreambase$:std$$nx[]ui
0002:00003330  W?$Wvf0No26:strstreambase$:std$$nx[]pn()v
0002:00003340  W?$Wvf0No3n:strstreambase$:std$$nx[]pn()v
0002:00003350  W?$Wva0Mo0:strstreambase$:std$$nx[]uc
0002:00004a84  W?$Wti0K$strstreambuf$:std$$$n[]uc
0001:0001a173  W?$Wvt0b.@dt:strstreambase$:std$c$:0:1$dtn()_$:ios$:std$n()pnv
0001:0001a1a6  W?.tdtor$:strstreambuf$:std$n()pnv
0002:00003380  W?$Wva0Lo0:strstreambuf$:std$$nx[]uc
0001:00019ff8  W?$ct:strstreambase$:std$n()_
Module: /mnt/sda5/.user/root/src/openwatcom-1.9/bld/plusplus/cpplib/os2.386/mf_rmtd.dll/plbxmt3r.lib(/mnt/sda5/.user/root/src/openwatcom-1.9/bld/plusplus/cpplib/iostream/cpp/ssbconsz.cpp)
0001:0001a1da  W?$ct:strstreambase$:std$n(pnaipna)_
Module: /mnt/sda5/.user/root/src/openwatcom-1.9/bld/plusplus/cpplib/os2.386/mf_rmtd.dll/plbxmt3r.lib(/mnt/sda5/.user/root/src/openwatcom-1.9/bld/plusplus/cpplib/iostream/cpp/ssbdestr.cpp)
0002:00003450+ W?$Wts0Mn$strstreambase$:std$$$nx[]uc
0001:0001a36e  W?$dt:strstreambase$:std$n()_
Module: /mnt/sda5/.user/root/src/openwatcom-1.9/bld/plusplus/cpplib/os2.386/mf_rmtd.dll/plbxmt3r.lib(/mnt/sda5/.user/root/src/openwatcom-1.9/bld/plusplus/cpplib/iostream/cpp/ssfdestr.cpp)
0001:0001a64a  W?$ct:strstreambuf$:std$n()_
0002:000034d0+ W?$Wts0Ln$strstreambuf$:std$$$nx[]uc
0001:0001a4e6  W?$dt:strstreambuf$:std$n()_
Module: /mnt/sda5/.user/root/src/openwatcom-1.9/bld/plusplus/cpplib/os2.386/mf_rmtd.dll/plbxmt3r.lib(/mnt/sda5/.user/root/src/openwatcom-1.9/bld/plusplus/cpplib/iostream/cpp/ssfdoall.cpp)
0001:0001a6ea  W?doallocate$:strstreambuf$:std$n()i
Module: /mnt/sda5/.user/root/src/openwatcom-1.9/bld/plusplus/cpplib/os2.386/mf_rmtd.dll/plbxmt3r.lib(/mnt/sda5/.user/root/src/openwatcom-1.9/bld/plusplus/cpplib/iostream/cpp/ssfempsf.cpp)
0001:0001aca1  W?$ct:strstreambuf$:std$n(pn(l)pnvpn(pnv)v)_
Module: /mnt/sda5/.user/root/src/openwatcom-1.9/bld/plusplus/cpplib/os2.386/mf_rmtd.dll/plbxmt3r.lib(/mnt/sda5/.user/root/src/openwatcom-1.9/bld/plusplus/cpplib/iostream/cpp/ssfempsz.cpp)
0001:0001ad55  W?$ct:strstreambuf$:std$n(i)_
Module: /mnt/sda5/.user/root/src/openwatcom-1.9/bld/plusplus/cpplib/os2.386/mf_rmtd.dll/plbxmt3r.lib(/mnt/sda5/.user/root/src/openwatcom-1.9/bld/plusplus/cpplib/iostream/cpp/ssfoverf.cpp)
0001:0001adff  W?overflow$:strstreambuf$:std$n(i)i
Module: /mnt/sda5/.user/root/src/openwatcom-1.9/bld/plusplus/cpplib/os2.386/mf_rmtd.dll/plbxmt3r.lib(/mnt/sda5/.user/root/src/openwatcom-1.9/bld/plusplus/cpplib/iostream/cpp/ssfseeko.cpp)
0001:0001b10d  W?seekoff$:strstreambuf$:std$n(lii)l
Module: /mnt/sda5/.user/root/src/openwatcom-1.9/bld/plusplus/cpplib/os2.386/mf_rmtd.dll/plbxmt3r.lib(/mnt/sda5/.user/root/src/openwatcom-1.9/bld/plusplus/cpplib/iostream/cpp/ssfsetbf.cpp)
0001:0001b661  W?setbuf$:strstreambuf$:std$n(pnai)pn$streambuf$:2$
Module: /mnt/sda5/.user/root/src/openwatcom-1.9/bld/plusplus/cpplib/os2.386/mf_rmtd.dll/plbxmt3r.lib(/mnt/sda5/.user/root/src/openwatcom-1.9/bld/plusplus/cpplib/iostream/cpp/ssfstbuf.cpp)
0001:0001b6c3  W?__strstreambuf$:strstreambuf$:std$n(pnaipna)v
Module: /mnt/sda5/.user/root/src/openwatcom-1.9/bld/plusplus/cpplib/os2.386/mf_rmtd.dll/plbxmt3r.lib(/mnt/sda5/.user/root/src/openwatcom-1.9/bld/plusplus/cpplib/iostream/cpp/ssfstr.cpp)
0001:0001b953  W?str$:strstreambuf$:std$n()pna
Module: /mnt/sda5/.user/root/src/openwatcom-1.9/bld/plusplus/cpplib/os2.386/mf_rmtd.dll/plbxmt3r.lib(/mnt/sda5/.user/root/src/openwatcom-1.9/bld/plusplus/cpplib/iostream/cpp/ssfsync.cpp)
0001:0001bc87  W?sync$:strstreambuf$:std$n()i
Module: /mnt/sda5/.user/root/src/openwatcom-1.9/bld/plusplus/cpplib/os2.386/mf_rmtd.dll/plbxmt3r.lib(/mnt/sda5/.user/root/src/openwatcom-1.9/bld/plusplus/cpplib/iostream/cpp/ssfundrf.cpp)
0001:0001bcb3  W?underflow$:strstreambuf$:std$n()i
Module: /mnt/sda5/.user/root/src/openwatcom-1.9/bld/plusplus/cpplib/os2.386/mf_rmtd.dll/plbxmt3r.lib(/mnt/sda5/.user/root/src/openwatcom-1.9/bld/plusplus/cpplib/iostream/cpp/sstconch.cpp)
0001:0001c2a0  W?$Wvt0Z.@dt:strstream$:std$o2a$:0:1$dtn()_$:iostream$:std$n()pnv
0001:0001c2ce  W?$Wvt0Z.@dt:strstream$:std$o2m$:0:1$dtn()_$:ostream$:std$n()pnv
0002:000035e0  W?$Wvb0Io0:strstream$:std$$nx[]ui
0002:000035f0  W?$Wvb0Jo2a:strstream$:std$$nx[]ui
0002:00003600  W?$Wvb0Jo2m:strstream$:std$$nx[]ui
0002:00003610  W?$Wvf0Jo26:strstream$:std$$nx[]pn()v
0002:00003620  W?$Wvf0Jo2i:strstream$:std$$nx[]pn()v
0002:00003630  W?$Wvf0Jo2q:strstream$:std$$nx[]pn()v
0002:00003640  W?$Wvf0Jo4c:strstream$:std$$nx[]pn()v
0001:0001c2fc  W?$Wvt0X.@dt:strstream$:std$c$:0:1$dtn()_$:ios$:std$n()pnv
0002:00003650  W?$Wva0Io0:strstream$:std$$nx[]uc
0001:0001c105  W?$ct:strstream$:std$n(pnaii)_
0002:00004a9d  W?$Wti0H$strstream$:std$$$n[]uc
Module: /mnt/sda5/.user/root/src/openwatcom-1.9/bld/plusplus/cpplib/os2.386/mf_rmtd.dll/plbxmt3r.lib(/mnt/sda5/.user/root/src/openwatcom-1.9/bld/plusplus/cpplib/iostream/cpp/sstconde.cpp)
0001:0001c32f  W?$ct:strstream$:std$n()_
Module: /mnt/sda5/.user/root/src/openwatcom-1.9/bld/plusplus/cpplib/os2.386/mf_rmtd.dll/plbxmt3r.lib(/mnt/sda5/.user/root/src/openwatcom-1.9/bld/plusplus/cpplib/iostream/cpp/sstconsc.cpp)
0001:0001c488  W?$ct:strstream$:std$n(pncii)_
Module: /mnt/sda5/.user/root/src/openwatcom-1.9/bld/plusplus/cpplib/os2.386/mf_rmtd.dll/plbxmt3r.lib(/mnt/sda5/.user/root/src/openwatcom-1.9/bld/plusplus/cpplib/iostream/cpp/sstconuc.cpp)
0001:0001c623  W?$ct:strstream$:std$n(pnucii)_
Module: /mnt/sda5/.user/root/src/openwatcom-1.9/bld/plusplus/cpplib/os2.386/mf_rmtd.dll/plbxmt3r.lib(/mnt/sda5/.user/root/src/openwatcom-1.9/bld/plusplus/cpplib/iostream/cpp/sstdestr.cpp)
0002:00003820+ W?$Wts0In$strstream$:std$$$nx[]uc
0001:0001c972+ W?.tdtor$:strstream$:std$n()pnv
0001:0001c7be  W?$dt:strstream$:std$n()_
Module: /mnt/sda5/.user/root/src/openwatcom-1.9/bld/plusplus/cpplib/os2.386/mf_rmtd.dll/plbxmt3r.lib(/mnt/sda5/.user/root/src/openwatcom-1.9/bld/plusplus/cpplib/iostream/cpp/stfconb.cpp)
0002:00003840  W?$Wvf0Jo19:streambuf$:std$$nx[]pn()v
0001:0001c9a6  W?$ct:streambuf$:std$n(pnai)_
0002:00003870  W?$Wva0Io0:streambuf$:std$$nx[]uc
Module: /mnt/sda5/.user/root/src/openwatcom-1.9/bld/plusplus/cpplib/os2.386/mf_rmtd.dll/plbxmt3r.lib(/mnt/sda5/.user/root/src/openwatcom-1.9/bld/plusplus/cpplib/iostream/cpp/stfconde.cpp)
0001:0001ca55  W?$ct:streambuf$:std$n()_
Module: /mnt/sda5/.user/root/src/openwatcom-1.9/bld/plusplus/cpplib/os2.386/mf_rmtd.dll/plbxmt3r.lib(/mnt/sda5/.user/root/src/openwatcom-1.9/bld/plusplus/cpplib/iostream/cpp/stfdbp.cpp)
0001:0001caf4  W?dbp$:streambuf$:std$n()v
Module: /mnt/sda5/.user/root/src/openwatcom-1.9/bld/plusplus/cpplib/os2.386/mf_rmtd.dll/plbxmt3r.lib(/mnt/sda5/.user/root/src/openwatcom-1.9/bld/plusplus/cpplib/iostream/cpp/stfdestr.cpp)
0001:0001cb6f  W?$dt:streambuf$:std$n()_
Module: /mnt/sda5/.user/root/src/openwatcom-1.9/bld/plusplus/cpplib/os2.386/mf_rmtd.dll/plbxmt3r.lib(/mnt/sda5/.user/root/src/openwatcom-1.9/bld/plusplus/cpplib/iostream/cpp/stfdoall.cpp)
0001:0001cbb9  W?doallocate$:streambuf$:std$n()i
Module: /mnt/sda5/.user/root/src/openwatcom-1.9/bld/plusplus/cpplib/os2.386/mf_rmtd.dll/plbxmt3r.lib(/mnt/sda5/.user/root/src/openwatcom-1.9/bld/plusplus/cpplib/iostream/cpp/stfdsgtn.cpp)
0001:0001ccdb  W?do_sgetn$:streambuf$:std$n(pnai)i
Module: /mnt/sda5/.user/root/src/openwatcom-1.9/bld/plusplus/cpplib/os2.386/mf_rmtd.dll/plbxmt3r.lib(/mnt/sda5/.user/root/src/openwatcom-1.9/bld/plusplus/cpplib/iostream/cpp/stfdspun.cpp)
0001:0001cece  W?do_sputn$:streambuf$:std$n(pnxai)i
Module: /mnt/sda5/.user/root/src/openwatcom-1.9/bld/plusplus/cpplib/os2.386/mf_rmtd.dll/plbxmt3r.lib(/mnt/sda5/.user/root/src/openwatcom-1.9/bld/plusplus/cpplib/iostream/cpp/stfpbfai.cpp)
0001:0001d18c  W?pbackfail$:streambuf$:std$n(i)i
Module: /mnt/sda5/.user/root/src/openwatcom-1.9/bld/plusplus/cpplib/os2.386/mf_rmtd.dll/plbxmt3r.lib(/mnt/sda5/.user/root/src/openwatcom-1.9/bld/plusplus/cpplib/iostream/cpp/stfsbuf.cpp)
0001:0001d1b9  W?setbuf$:streambuf$:std$n(pnai)pn$1:2$
Module: /mnt/sda5/.user/root/src/openwatcom-1.9/bld/plusplus/cpplib/os2.386/mf_rmtd.dll/plbxmt3r.lib(/mnt/sda5/.user/root/src/openwatcom-1.9/bld/plusplus/cpplib/iostream/cpp/stfseeko.cpp)
0001:0001d330  W?seekoff$:streambuf$:std$n(lii)l
Module: /mnt/sda5/.user/root/src/openwatcom-1.9/bld/plusplus/cpplib/os2.386/mf_rmtd.dll/plbxmt3r.lib(/mnt/sda5/.user/root/src/openwatcom-1.9/bld/plusplus/cpplib/iostream/cpp/stfseekp.cpp)
0001:0001d35f  W?seekpos$:streambuf$:std$n(li)l
Module: /mnt/sda5/.user/root/src/openwatcom-1.9/bld/plusplus/cpplib/os2.386/mf_rmtd.dll/plbxmt3r.lib(/mnt/sda5/.user/root/src/openwatcom-1.9/bld/plusplus/cpplib/iostream/cpp/stfsetb.cpp)
0001:0001d3a3  W?setb$:streambuf$:std$n(pnapnai)v
Module: /mnt/sda5/.user/root/src/openwatcom-1.9/bld/plusplus/cpplib/os2.386/mf_rmtd.dll/plbxmt3r.lib(/mnt/sda5/.user/root/src/openwatcom-1.9/bld/plusplus/cpplib/iostream/cpp/stfsync.cpp)
0001:0001d4e8  W?sync$:streambuf$:std$n()i
Module: /mnt/sda5/.user/root/src/openwatcom-1.9/bld/plusplus/cpplib/os2.386/mf_rmtd.dll/plbxmt3r.lib(/mnt/sda5/.user/root/src/openwatcom-1.9/bld/plusplus/cpplib/string/cpp/allocrep.cpp)
0001:0001d5a1  W?__AllocStringRep$:String$n(pn$StringRep$:1$ui)pn$2:1$
0002:00004ab4  W?__string_mult_size$:String$nui
0002:00005f6c  W?_AllocCount$ni
Module: /mnt/sda5/.user/root/src/openwatcom-1.9/bld/plusplus/cpplib/os2.386/mf_rmtd.dll/plbxmt3r.lib(/mnt/sda5/.user/root/src/openwatcom-1.9/bld/plusplus/cpplib/string/cpp/allomusz.cpp)
0001:0001d62e  W?alloc_mult_size$:String$n(i)i
Module: /mnt/sda5/.user/root/src/openwatcom-1.9/bld/plusplus/cpplib/os2.386/mf_rmtd.dll/plbxmt3r.lib(/mnt/sda5/.user/root/src/openwatcom-1.9/bld/plusplus/cpplib/string/cpp/constrch.cpp)
0001:0001d67f  W?$ct:String$n(aui)_
Module: /mnt/sda5/.user/root/src/openwatcom-1.9/bld/plusplus/cpplib/os2.386/mf_rmtd.dll/plbxmt3r.lib(/mnt/sda5/.user/root/src/openwatcom-1.9/bld/plusplus/cpplib/string/cpp/destruct.cpp)
0001:0001d713  W?$dt:String$n()_
0002:00005f70  W?_CStrAllocCount$ni
Module: /mnt/sda5/.user/root/src/openwatcom-1.9/bld/plusplus/cpplib/os2.386/mf_rmtd.dll/plbxmt3r.lib(/mnt/sda5/.user/root/src/openwatcom-1.9/bld/plusplus/cpplib/string/cpp/opcostsc.cpp)
0001:0001d761  W?$cv:String$n.x()a
Module: /mnt/sda5/.user/root/src/openwatcom-1.9/bld/plusplus/cpplib/os2.386/mf_rmtd.dll/plbxmt3r.lib(/mnt/sda5/.user/root/src/openwatcom-1.9/bld/plusplus/cpplib/string/cpp/opasstcs.cpp)
0001:0001d7ae  W?$aa:String$n(pnxa)rn$0$
Module: /mnt/sda5/.user/root/src/openwatcom-1.9/bld/plusplus/cpplib/os2.386/mf_rmtd.dll/plbxmt3r.lib(/mnt/sda5/.user/root/src/openwatcom-1.9/bld/plusplus/cpplib/string/cpp/opappcst.cpp)
0001:0001d855  W?$ac:String$n(pnxa)rn$0$
Module: /mnt/sda5/.user/root/src/openwatcom-1.9/bld/plusplus/cpplib/os2.386/mf_rmtd.dll/plbxmt3r.lib(/mnt/sda5/.user/root/src/openwatcom-1.9/bld/plusplus/cpplib/string/cpp/opsubstr.cpp)
0001:0001da47  W?.tdtor$:String$n()pnv
0002:00003950  W?$Wts0An$String$$$nx[]uc
0001:0001d8dc  W?$op:String$n.x(uiui)$0$
0002:00004ab8  W?$Wti09$String$$$n[]uc
Module: /mnt/sda5/.user/root/src/openwatcom-1.9/bld/plusplus/cpplib/os2.386/mf_rmtd.dll/plbxmt3r.lib(/mnt/sda5/.user/root/src/openwatcom-1.9/bld/plusplus/cpplib/string/cpp/oprfchar.cpp)
0001:0001da7b  W?$op:String$n(ui)rna
0002:00005f74  W?__ref_char$:String$na
Module: /mnt/sda5/.user/root/src/openwatcom-1.9/bld/plusplus/cpplib/os2.386/mf_rmtd.dll/plbxmt3r.lib(/mnt/sda5/.user/root/src/openwatcom-1.9/bld/plusplus/cpplib/string/cpp/zapcase.cpp)
0001:0001db52  W?__ZapCase$:String$n.x(pn(i)i)$1$
Module: /mnt/sda5/.user/root/src/openwatcom-1.9/bld/plusplus/cpplib/os2.386/mf_rmtd.dll/plbxmt3r.lib(/mnt/sda5/.user/root/src/openwatcom-1.9/bld/plusplus/cpplib/string/cpp/compstr.cpp)
0001:0001dca3  W?__CompareStrings$:String$n(rnx$1$rnx$1$)i
Module: /mnt/sda5/.user/root/src/openwatcom-1.9/bld/plusplus/cpplib/os2.386/mf_rmtd.dll/plbxmt3r.lib(/mnt/sda5/.user/root/src/openwatcom-1.9/bld/plusplus/cpplib/string/cpp/opeqchst.cpp)
0001:0001dd30  W?$ran(pnxarnx$String$$)i
Module: /mnt/sda5/.user/root/src/openwatcom-1.9/bld/plusplus/cpplib/os2.386/mf_rmtd.dll/plbxmt3r.lib(/mnt/sda5/.user/root/src/openwatcom-1.9/bld/plusplus/cpplib/string/cpp/opnechst.cpp)
0001:0001dd91  W?$rbn(pnxarnx$String$$)i
Module: /mnt/sda5/.user/root/src/openwatcom-1.9/bld/plusplus/cpplib/os2.386/mf_rmtd.dll/plbxmt3r.lib(/mnt/sda5/.user/root/src/openwatcom-1.9/bld/plusplus/cpplib/string/cpp/oplqchst.cpp)
0001:0001ddf2  W?$rdn(pnxarnx$String$$)i
Module: /mnt/sda5/.user/root/src/openwatcom-1.9/bld/plusplus/cpplib/os2.386/mf_rmtd.dll/plbxmt3r.lib(/mnt/sda5/.user/root/src/openwatcom-1.9/bld/plusplus/cpplib/string/cpp/opgrchst.cpp)
0001:0001de53  W?$ren(pnxarnx$String$$)i
Module: /mnt/sda5/.user/root/src/openwatcom-1.9/bld/plusplus/cpplib/os2.386/mf_rmtd.dll/plbxmt3r.lib(/mnt/sda5/.user/root/src/openwatcom-1.9/bld/plusplus/cpplib/string/cpp/opgqchst.cpp)
0001:0001deb4  W?$rfn(pnxarnx$String$$)i
Module: /mnt/sda5/.user/root/src/openwatcom-1.9/bld/plusplus/cpplib/os2.386/mf_rmtd.dll/plbxmt3r.lib(/mnt/sda5/.user/root/src/openwatcom-1.9/bld/plusplus/cpplib/string/cpp/opcachst.cpp)
0001:0001df15  W?$ojn(pnxarnx$String$$)$0$
Module: /mnt/sda5/.user/root/src/openwatcom-1.9/bld/plusplus/cpplib/os2.386/mf_rmtd.dll/plbxmt3r.lib(/mnt/sda5/.user/root/src/openwatcom-1.9/bld/plusplus/cpplib/string/cpp/opinput.cpp)
0001:0001e12d  W?$oan(rn$istream$:std$$rn$String$$)rn$0:1$
Module: /mnt/sda5/.user/root/src/openwatcom-1.9/bld/plusplus/cpplib/os2.386/mf_rmtd.dll/plbxmt3r.lib(/mnt/sda5/.user/root/src/openwatcom-1.9/bld/plusplus/cpplib/string/cpp/opoutput.cpp)
0001:0001e2a7  W?$obn(rn$ostream$:std$$rnx$String$$)rn$0:1$
Module: /mnt/sda5/.user/root/src/openwatcom-1.9/bld/plusplus/cpplib/os2.386/mf_rmtd.dll/plbxmt3r.lib(/mnt/sda5/.user/root/src/openwatcom-1.9/bld/plusplus/cpplib/string/cpp/matchcst.cpp)
0001:0001e2f8  W?match$:String$n.x(pnxa)i
Module: /mnt/sda5/.user/root/src/openwatcom-1.9/bld/plusplus/cpplib/os2.386/mf_rmtd.dll/plbxmt3r.lib(/mnt/sda5/.user/root/src/openwatcom-1.9/bld/plusplus/cpplib/string/cpp/joinstr.cpp)
0001:0001e360  W?__JoinStrings$:String$n(pnxauipnxaui)v
Module: /mnt/sda5/.user/root/src/openwatcom-1.9/bld/plusplus/cpplib/os2.386/mf_rmtd.dll/plbxmt3r.lib(/mnt/sda5/.user/root/src/openwatcom-1.9/bld/plusplus/cpplib/string/cpp/freestr.cpp)
0001:0001e418  W?__FreeStringRep$:String$n()v
Module: /mnt/sda5/.user/root/src/openwatcom-1.9/bld/plusplus/cpplib/os2.386/mf_rmtd.dll/plbxmt3r.lib(/mnt/sda5/.user/root/src/openwatcom-1.9/bld/plusplus/cpplib/string/cpp/indexcha.cpp)
0001:0001e480  W?index$:String$n.x(pnxaui)i
Module: /mnt/sda5/.user/root/src/openwatcom-1.9/bld/plusplus/cpplib/os2.386/mf_rmtd.dll/plbxmt3r.lib(/mnt/sda5/.user/root/src/openwatcom-1.9/bld/plusplus/cpplib/string/cpp/appendst.cpp)
0001:0001e520  W?__AppendToStringRep$:String$n(rnx$1$pnxaui)v
Module: /mnt/sda5/.user/root/src/openwatcom-1.9/bld/plusplus/cpplib/os2.386/mf_rmtd.dll/plbxmt3r.lib(/mnt/sda5/.user/root/src/openwatcom-1.9/bld/plusplus/cpplib/string/cpp/indexstr.cpp)
0001:0001e6b3  W?index$:String$n.x(rnx$1$ui)i
Module: /mnt/sda5/.user/root/src/openwatcom-1.9/bld/plusplus/cpplib/os2.386/mf_rmtd.dll/plbxmt3r.lib(/mnt/sda5/.user/root/src/openwatcom-1.9/bld/plusplus/cpplib/string/cpp/condefau.cpp)
0001:0001e75c  W?$ct:String$n()_
Module: /mnt/sda5/.user/root/src/openwatcom-1.9/bld/plusplus/cpplib/os2.386/mf_rmtd.dll/plbxmt3r.lib(/mnt/sda5/.user/root/src/openwatcom-1.9/bld/plusplus/cpplib/string/cpp/constrst.cpp)
0001:0001e7b5  W?$ct:String$n(rnx$0$uiui)_
Module: /mnt/sda5/.user/root/src/openwatcom-1.9/bld/plusplus/cpplib/os2.386/mf_rmtd.dll/plbxmt3r.lib(/mnt/sda5/.user/root/src/openwatcom-1.9/bld/plusplus/cpplib/string/cpp/constcst.cpp)
0001:0001e873  W?$ct:String$n(pnxaui)_
Module: /mnt/sda5/.user/root/src/openwatcom-1.9/bld/plusplus/cpplib/os2.386/mf_rmtd.dll/plbxmt3r.lib(/mnt/sda5/.user/root/src/openwatcom-1.9/bld/plusplus/cpplib/string/cpp/matchs.cpp)
0001:0001e91b  W?match$:String$n.x(rnx$1$)i
Module: /mnt/sda5/.user/root/src/openwatcom-1.9/bld/plusplus/cpplib/os2.386/mf_rmtd.dll/plbxmt3r.lib(/mnt/sda5/.user/root/src/openwatcom-1.9/bld/plusplus/cpplib/string/cpp/opappstr.cpp)
0001:0001e98c  W?$ac:String$n(rnx$0$)rn$0$
Module: /mnt/sda5/.user/root/src/openwatcom-1.9/bld/plusplus/cpplib/os2.386/mf_rmtd.dll/plbxmt3r.lib(/mnt/sda5/.user/root/src/openwatcom-1.9/bld/plusplus/cpplib/string/cpp/opcastst.cpp)
0001:0001ea04  W?$ojn(rnx$String$$rnx$0$)$0$
Module: /mnt/sda5/.user/root/src/openwatcom-1.9/bld/plusplus/cpplib/os2.386/mf_rmtd.dll/plbxmt3r.lib(/mnt/sda5/.user/root/src/openwatcom-1.9/bld/plusplus/cpplib/string/cpp/opcastch.cpp)
0001:0001ebf5  W?$ojn(rnx$String$$pnxa)$0$
Module: /mnt/sda5/.user/root/src/openwatcom-1.9/bld/plusplus/cpplib/os2.386/mf_rmtd.dll/plbxmt3r.lib(/mnt/sda5/.user/root/src/openwatcom-1.9/bld/plusplus/cpplib/string/cpp/opcostch.cpp)
0001:0001edfc  W?$cv:String$n()pnxa
Module: /mnt/sda5/.user/root/src/openwatcom-1.9/bld/plusplus/cpplib/os2.386/mf_rmtd.dll/plbxmt3r.lib(/mnt/sda5/.user/root/src/openwatcom-1.9/bld/plusplus/cpplib/string/cpp/opco1sch.cpp)
0001:0001eec8  W?$cv:String$n.x()pnxa
Module: /mnt/sda5/.user/root/src/openwatcom-1.9/bld/plusplus/cpplib/os2.386/mf_rmtd.dll/plbxmt3r.lib(/mnt/sda5/.user/root/src/openwatcom-1.9/bld/plusplus/cpplib/string/cpp/opgrstst.cpp)
0001:0001eefe  W?$ren(rnx$String$$rnx$0$)i
Module: /mnt/sda5/.user/root/src/openwatcom-1.9/bld/plusplus/cpplib/os2.386/mf_rmtd.dll/plbxmt3r.lib(/mnt/sda5/.user/root/src/openwatcom-1.9/bld/plusplus/cpplib/string/cpp/opgrstch.cpp)
0001:0001ef49  W?$ren(rnx$String$$pnxa)i
Module: /mnt/sda5/.user/root/src/openwatcom-1.9/bld/plusplus/cpplib/os2.386/mf_rmtd.dll/plbxmt3r.lib(/mnt/sda5/.user/root/src/openwatcom-1.9/bld/plusplus/cpplib/string/cpp/opeqstst.cpp)
0001:0001efac  W?$ran(rnx$String$$rnx$0$)i
Module: /mnt/sda5/.user/root/src/openwatcom-1.9/bld/plusplus/cpplib/os2.386/mf_rmtd.dll/plbxmt3r.lib(/mnt/sda5/.user/root/src/openwatcom-1.9/bld/plusplus/cpplib/string/cpp/opeqstch.cpp)
0001:0001eff7  W?$ran(rnx$String$$pnxa)i
Module: /mnt/sda5/.user/root/src/openwatcom-1.9/bld/plusplus/cpplib/os2.386/mf_rmtd.dll/plbxmt3r.lib(/mnt/sda5/.user/root/src/openwatcom-1.9/bld/plusplus/cpplib/string/cpp/oplqstst.cpp)
0001:0001f05a  W?$rdn(rnx$String$$rnx$0$)i
Module: /mnt/sda5/.user/root/src/openwatcom-1.9/bld/plusplus/cpplib/os2.386/mf_rmtd.dll/plbxmt3r.lib(/mnt/sda5/.user/root/src/openwatcom-1.9/bld/plusplus/cpplib/string/cpp/oplqstch.cpp)
0001:0001f0a5  W?$rdn(rnx$String$$pnxa)i
Module: /mnt/sda5/.user/root/src/openwatcom-1.9/bld/plusplus/cpplib/os2.386/mf_rmtd.dll/plbxmt3r.lib(/mnt/sda5/.user/root/src/openwatcom-1.9/bld/plusplus/cpplib/string/cpp/oplestst.cpp)
0001:0001f108  W?$rcn(rnx$String$$rnx$0$)i
Module: /mnt/sda5/.user/root/src/openwatcom-1.9/bld/plusplus/cpplib/os2.386/mf_rmtd.dll/plbxmt3r.lib(/mnt/sda5/.user/root/src/openwatcom-1.9/bld/plusplus/cpplib/string/cpp/oplestch.cpp)
0001:0001f153  W?$rcn(rnx$String$$pnxa)i
Module: /mnt/sda5/.user/root/src/openwatcom-1.9/bld/plusplus/cpplib/os2.386/mf_rmtd.dll/plbxmt3r.lib(/mnt/sda5/.user/root/src/openwatcom-1.9/bld/plusplus/cpplib/string/cpp/oplechst.cpp)
0001:0001f1b6  W?$rcn(pnxarnx$String$$)i
Module: /mnt/sda5/.user/root/src/openwatcom-1.9/bld/plusplus/cpplib/os2.386/mf_rmtd.dll/plbxmt3r.lib(/mnt/sda5/.user/root/src/openwatcom-1.9/bld/plusplus/cpplib/string/cpp/opnestst.cpp)
0001:0001f217  W?$rbn(rnx$String$$rnx$0$)i
Module: /mnt/sda5/.user/root/src/openwatcom-1.9/bld/plusplus/cpplib/os2.386/mf_rmtd.dll/plbxmt3r.lib(/mnt/sda5/.user/root/src/openwatcom-1.9/bld/plusplus/cpplib/string/cpp/opnestch.cpp)
0001:0001f262  W?$rbn(rnx$String$$pnxa)i
Module: /mnt/sda5/.user/root/src/openwatcom-1.9/bld/plusplus/cpplib/os2.386/mf_rmtd.dll/plbxmt3r.lib(/mnt/sda5/.user/root/src/openwatcom-1.9/bld/plusplus/cpplib/string/cpp/opgqstst.cpp)
0001:0001f2c5  W?$rfn(rnx$String$$rnx$0$)i
Module: /mnt/sda5/.user/root/src/openwatcom-1.9/bld/plusplus/cpplib/os2.386/mf_rmtd.dll/plbxmt3r.lib(/mnt/sda5/.user/root/src/openwatcom-1.9/bld/plusplus/cpplib/string/cpp/opgqstch.cpp)
0001:0001f310  W?$rfn(rnx$String$$pnxa)i
Module: /mnt/sda5/.user/root/src/openwatcom-1.9/bld/plusplus/cpplib/os2.386/mf_rmtd.dll/plbxmt3r.lib(/mnt/sda5/.user/root/src/openwatcom-1.9/bld/plusplus/cpplib/string/cpp/opasstst.cpp)
0001:0001f373  W?$aa:String$n(rnx$0$)rn$0$
Module: /mnt/sda5/.user/root/src/openwatcom-1.9/bld/plusplus/cpplib/os2.386/mf_rmtd.dll/plbxmt3r.lib(/mnt/sda5/.user/root/src/openwatcom-1.9/bld/plusplus/cpplib/string/cpp/opcrchar.cpp)
0001:0001f3f4  W?$op:String$n.x(ui)rnxa
Module: /mnt/sda5/.user/root/src/openwatcom-1.9/bld/plusplus/cpplib/os2.386/mf_rmtd.dll/plbxmt3r.lib(/mnt/sda5/.user/root/src/openwatcom-1.9/bld/plusplus/cpplib/string/cpp/conszcap.cpp)
0001:0001f44c  W?$ct:String$n(ui$$TE$:0$)_
Module: /mnt/sda5/.user/root/src/openwatcom-1.9/bld/plusplus/cpplib/os2.386/mf_rmtd.dll/plbxmt3r.lib(/mnt/sda5/.user/root/src/openwatcom-1.9/bld/plusplus/cpplib/string/cpp/opeqcrst.cpp)
0001:0001f4ef  W?$ran(arnx$String$$)i
Module: /mnt/sda5/.user/root/src/openwatcom-1.9/bld/plusplus/cpplib/os2.386/mf_rmtd.dll/plbxmt3r.lib(/mnt/sda5/.user/root/src/openwatcom-1.9/bld/plusplus/cpplib/string/cpp/opnecrst.cpp)
0001:0001f550  W?$rbn(arnx$String$$)i
Module: /mnt/sda5/.user/root/src/openwatcom-1.9/bld/plusplus/cpplib/os2.386/mf_rmtd.dll/plbxmt3r.lib(/mnt/sda5/.user/root/src/openwatcom-1.9/bld/plusplus/cpplib/string/cpp/oplecrst.cpp)
0001:0001f5b1  W?$rcn(arnx$String$$)i
Module: /mnt/sda5/.user/root/src/openwatcom-1.9/bld/plusplus/cpplib/os2.386/mf_rmtd.dll/plbxmt3r.lib(/mnt/sda5/.user/root/src/openwatcom-1.9/bld/plusplus/cpplib/string/cpp/oplqcrst.cpp)
0001:0001f612  W?$rdn(arnx$String$$)i
Module: /mnt/sda5/.user/root/src/openwatcom-1.9/bld/plusplus/cpplib/os2.386/mf_rmtd.dll/plbxmt3r.lib(/mnt/sda5/.user/root/src/openwatcom-1.9/bld/plusplus/cpplib/string/cpp/opgrcrst.cpp)
0001:0001f673  W?$ren(arnx$String$$)i
Module: /mnt/sda5/.user/root/src/openwatcom-1.9/bld/plusplus/cpplib/os2.386/mf_rmtd.dll/plbxmt3r.lib(/mnt/sda5/.user/root/src/openwatcom-1.9/bld/plusplus/cpplib/string/cpp/opgqcrst.cpp)
0001:0001f6d4  W?$rfn(arnx$String$$)i
Module: /mnt/sda5/.user/root/src/openwatcom-1.9/bld/plusplus/cpplib/os2.386/mf_rmtd.dll/plbxmt3r.lib(/mnt/sda5/.user/root/src/openwatcom-1.9/bld/plusplus/cpplib/string/cpp/opcacrst.cpp)
0001:0001f735  W?$ojn(arnx$String$$)$0$
Module: /mnt/sda5/.user/root/src/openwatcom-1.9/bld/plusplus/cpplib/os2.386/mf_rmtd.dll/plbxmt3r.lib(/mnt/sda5/.user/root/src/openwatcom-1.9/bld/plusplus/cpplib/string/cpp/opeqstcr.cpp)
0001:0001f927  W?$ran(rnx$String$$a)i
Module: /mnt/sda5/.user/root/src/openwatcom-1.9/bld/plusplus/cpplib/os2.386/mf_rmtd.dll/plbxmt3r.lib(/mnt/sda5/.user/root/src/openwatcom-1.9/bld/plusplus/cpplib/string/cpp/opnestcr.cpp)
0001:0001f98a  W?$rbn(rnx$String$$a)i
Module: /mnt/sda5/.user/root/src/openwatcom-1.9/bld/plusplus/cpplib/os2.386/mf_rmtd.dll/plbxmt3r.lib(/mnt/sda5/.user/root/src/openwatcom-1.9/bld/plusplus/cpplib/string/cpp/opgrstcr.cpp)
0001:0001f9ed  W?$ren(rnx$String$$a)i
Module: /mnt/sda5/.user/root/src/openwatcom-1.9/bld/plusplus/cpplib/os2.386/mf_rmtd.dll/plbxmt3r.lib(/mnt/sda5/.user/root/src/openwatcom-1.9/bld/plusplus/cpplib/string/cpp/opgqstcr.cpp)
0001:0001fa50  W?$rfn(rnx$String$$a)i
Module: /mnt/sda5/.user/root/src/openwatcom-1.9/bld/plusplus/cpplib/os2.386/mf_rmtd.dll/plbxmt3r.lib(/mnt/sda5/.user/root/src/openwatcom-1.9/bld/plusplus/cpplib/string/cpp/oplestcr.cpp)
0001:0001fab3  W?$rcn(rnx$String$$a)i
Module: /mnt/sda5/.user/root/src/openwatcom-1.9/bld/plusplus/cpplib/os2.386/mf_rmtd.dll/plbxmt3r.lib(/mnt/sda5/.user/root/src/openwatcom-1.9/bld/plusplus/cpplib/string/cpp/oplqstcr.cpp)
0001:0001fb16  W?$rdn(rnx$String$$a)i
Module: /mnt/sda5/.user/root/src/openwatcom-1.9/bld/plusplus/cpplib/os2.386/mf_rmtd.dll/plbxmt3r.lib(/mnt/sda5/.user/root/src/openwatcom-1.9/bld/plusplus/cpplib/string/cpp/opcastcr.cpp)
0001:0001fb79  W?$ojn(rnx$String$$a)$0$
Module: /mnt/sda5/.user/root/src/openwatcom-1.9/bld/plusplus/cpplib/os2.386/mf_rmtd.dll/plbxmt3r.lib(/mnt/sda5/.user/root/src/openwatcom-1.9/bld/plusplus/cpplib/contain/cpp/wcexcept.cpp)
0001:0001fd68  W?base_throw_empty_container$:WCExcept$n.x()v
0001:0001fdc5  W?base_throw_index_range$:WCExcept$n.x()v
0001:0001fe22  W?base_throw_not_empty$:WCExcept$n()v
0001:0001fe88  W?base_throw_not_unique$:WCExcept$n.x()v
0001:0001fee5  W?base_throw_out_of_memory$:WCExcept$n.x()v
0001:0001ff42  W?base_throw_resize_required$:WCExcept$n.x()v
0001:0001ff9f  W?base_throw_zero_buckets$:WCExcept$n.x()v
0001:0001fffc  W?base_throw_iter_range$:WCIterExcept$n.x()v
0001:00020059  W?base_throw_undef_item$:WCIterExcept$n.x()v
0001:00020113+ W?$ct:failure$:WCIterExcept$n(rnx$0:1$)_
0001:00020161+ W?$dt:failure$:WCIterExcept$n()_
0001:0002018d+ W?$ct:failure$:WCExcept$n(rnx$0:1$)_
0001:000201db+ W?$dt:failure$:WCExcept$n()_
0002:00003d90+ W?$Wth0Nnrn$failure$:WCExcept$$$nx[]uc
0002:00003db0+ W?$Wth0Rnrn$failure$:WCIterExcept$$$nx[]uc
0002:00003dd0+ W?$Wts0Ln$failure$:WCExcept$$$nx[]uc
0002:00004ac6+ W?$Wti0O$failure$:WCIterExcept$$$n[]uc
0001:000200b6  W?base_throw_undef_iter$:WCIterExcept$n.x()v
0002:00003df0+ W?$Wts0Pn$failure$:WCIterExcept$$$nx[]uc
0002:00004ae3+ W?$Wti0K$failure$:WCExcept$$$n[]uc
Module: /mnt/sda5/.user/root/src/openwatcom-1.9/bld/plusplus/cpplib/os2.386/mf_rmtd.dll/plbxmt3r.lib(/mnt/sda5/.user/root/src/openwatcom-1.9/bld/plusplus/cpplib/contain/cpp/wchash.cpp)
0001:000215f0  W?$ct:WCExcept$n()_
0001:0002162e  W?$dt:WCExcept$n()_
0001:000216e4+ W?$ct:WCIterExcept$n()_
0001:00021722+ W?$dt:WCIterExcept$n()_
0001:000217d8+ W?$ct:WCIsvListBase$n()_
0001:00021880+ W?$ct:WCListIterBase$n()_
0001:00021932+ W?$dt:WCListIterBase$n()_
0001:00020207  W?base_construct$:WCHashBase$n(pnx$1$)v
0001:00020686  W?base_find$:WCHashBase$n.x(pnxvpnuipnui$find_type$:1$)pn$WCSLink$$
0001:00020bf6  W?base_init$:WCHashBase$n(ui)v
0001:00020c9c  W?base_remove_but_not_delete$:WCHashBase$n(pnxv)pn$WCSLink$$
0001:00020d40  W?base_set_insert$:WCHashBase$n(pnxv)pn$WCSLink$$
0001:00020e56+ W?$dt:WCHashBase$n()_
0001:00020edc  W?bitHash$:WCHashBase$n(pnxvui)ui
0001:00020f53  W?clear$:WCHashBase$n()v
0001:00020ffe  W?insert$:WCHashBase$n(pnxv)i
0001:000210f1  W?occurrencesOf$:WCHashBase$n.x(pnxv)ui
0001:000219b8+ W?WCListDelete$:WCIsvSListBase$::1n$WCSLink$$n(pn$2$)v
0001:000219e3+ W?$dt:WCIsvSListBase$::1n$WCSLink$$n()_
0001:00021a29+ W?$dt:WCPtrListBase$::1n$WCSLink$$1n$WCIsvSListBase$::1n$1$$n()_
0001:00021a92+ W?$ct:WCIsvSList$::1n$WCSLink$$n()_
0001:00021bd2+ W?$dt:WCIsvSList$::1n$WCSLink$$n()_
0001:00021d05+ W?$dt:WCIsvListIterBase$::1n$WCSLink$$1n$WCIsvSList$::1n$1$$n()_
0001:00021dae+ W?$ct:WCIsvSListIter$::1n$WCSLink$$n()_
0001:00021ebf+ W?$dt:WCIsvSListIter$::1n$WCSLink$$n()_
0001:00022002+ W?$ct:WCPtrListBase$::1n$WCSLink$$1n$WCIsvSListBase$::1n$1$$n()_
0001:00022129+ W?$ct:WCIsvListIterBase$::1n$WCSLink$$1n$WCIsvSList$::1n$1$$n()_
0001:00022207+ W?$ct:WCIsvSListBase$::1n$WCSLink$$n(pn(ui)pnvpn(pnvui)v)_
0002:00004000  W?$Wvf0Co4:WCExcept$$nx[]pn()v
0002:00004010+ W?$Wvf0Go4:WCIterExcept$$nx[]pn()v
0002:00004020  W?$Wvf0Ho4:WCIsvListBase$$nx[]pn()v
0002:00004030+ W?$Wvf0Io4:WCListIterBase$$nx[]pn()v
0002:00004040+ W?$Wvf0Eo4:WCHashBase$$nx[]pn()v
0002:00004060+ W?$Wvf0Wo4:WCIsvSListBase$::1n$WCSLink$$$nx[]pn()v
0002:00004070+ W?$Wvf0vo4:WCPtrListBase$::1n$WCSLink$$1n$WCIsvSListBase$::1n$1$$$nx[]pn()v
0002:00004080+ W?$Wvf0So4:WCIsvSList$::1n$WCSLink$$$nx[]pn()v
0002:00004090+ W?$Wvf0vo4:WCIsvListIterBase$::1n$WCSLink$$1n$WCIsvSList$::1n$1$$$nx[]pn()v
0002:000040a0+ W?$Wvf0Wo4:WCIsvSListIter$::1n$WCSLink$$$nx[]pn()v
0002:000040b0  W?$Wts0Cn$WCExcept$$$nx[]uc
0002:000040d0+ W?$Wts0Gn$WCIterExcept$$$nx[]uc
0002:000040f0+ W?$Wts0Wn$WCIsvSListIter$::1n$WCSLink$$$$nx[]uc
0002:00004110+ W?$Wts0Sn$WCIsvSList$::1n$WCSLink$$$$nx[]uc
0002:00004130+ W?$Wva0Wo0:WCIsvSListIter$::1n$WCSLink$$$nx[]uc
0002:00004170+ W?$Wva0vo0:WCIsvListIterBase$::1n$WCSLink$$1n$WCIsvSList$::1n$1$$$nx[]uc
0002:000041a0+ W?$Wva0So0:WCIsvSList$::1n$WCSLink$$$nx[]uc
0002:000041e0+ W?$Wva0vo0:WCPtrListBase$::1n$WCSLink$$1n$WCIsvSListBase$::1n$1$$$nx[]uc
0002:00004220+ W?$Wva0Wo0:WCIsvSListBase$::1n$WCSLink$$$nx[]uc
0002:00004250+ W?$Wva0Eo0:WCHashBase$$nx[]uc
0002:00004270+ W?$Wva0Io0:WCListIterBase$$nx[]uc
0002:00004290  W?$Wva0Ho0:WCIsvListBase$$nx[]uc
0002:000042b0+ W?$Wva0Go0:WCIterExcept$$nx[]uc
0002:00004afc+ W?$Wti0D$WCHashBase$$$n[]uc
0002:00004b0e  W?$Wti0G$WCIsvListBase$$$n[]uc
0002:00004b23+ W?$Wti0V$WCIsvSListBase$::1n$WCSLink$$$$n[]uc
0002:00004b47+ W?$Wti0u$WCPtrListBase$::1n$WCSLink$$1n$WCIsvSListBase$::1n$1$$$$n[]uc
0002:00004b84+ W?$Wti0H$WCListIterBase$$$n[]uc
0002:00004b9a+ W?$Wti0u$WCIsvListIterBase$::1n$WCSLink$$1n$WCIsvSList$::1n$1$$$$n[]uc
0002:00004bd7+ W?$Wti0R$WCIsvSList$::1n$WCSLink$$$$n[]uc
0002:00004bf7+ W?$Wti0V$WCIsvSListIter$::1n$WCSLink$$$$n[]uc
0002:00004c1b+ W?$Wti0F$WCIterExcept$$$n[]uc
0002:000042c0  W?$Wva0Co0:WCExcept$$nx[]uc
0001:00021173  W?removeAll$:WCHashBase$n(pnxv)ui
0001:00021254  W?resize$:WCHashBase$n(ui)v
0001:00021414  W?base_advance$:WCHashIterBase$n()i
0001:00021553  W?reset$:WCHashIterBase$n()v
0002:00004c2f  W?$Wti0B$WCExcept$$$n[]uc
Module: /mnt/sda5/.user/root/src/openwatcom-1.9/bld/plusplus/cpplib/os2.386/mf_rmtd.dll/plbxmt3r.lib(/mnt/sda5/.user/root/src/openwatcom-1.9/bld/plusplus/cpplib/contain/cpp/wclist.cpp)
0001:000222ef  W?base_next$:WCIsvListBase$n.x(pnx$WCSLink$$i)pn$2$
0001:00022352  W?base_insert$:WCIsvListBase$n(pn$WCSLink$$)v
0001:000223af  W?base_index_check$:WCIsvListBase$n.x(i)i
0001:00022421  W?base_bfind$:WCIsvListBase$n.x(i)pn$WCSLink$$
0001:00022479  W?base_sfind$:WCIsvListBase$n.x(i)pn$WCSLink$$
0001:000224c4  W?base_dfind$:WCIsvListBase$n.x(i)pn$WCDLink$$
0001:0002254e  W?base_sget$:WCIsvListBase$n(i)pn$WCSLink$$
0001:000225d7  W?base_dget$:WCIsvListBase$n(i)pn$WCDLink$$
0001:0002266c  W?base_index$:WCIsvListBase$n.x(pnx$WCSLink$$)i
0001:000226e1  W?base_clear$:WCIsvListBase$n()v
0001:00022717  W?base_destroy$:WCIsvListBase$n()v
0001:00022787  W?$dt:WCIsvListBase$n()_
0001:0002283f  W?base_advance$:WCListIterBase$n(i)pn$WCSLink$$
0001:0002295e  W?base_retreat$:WCListIterBase$n(i)pn$WCDLink$$
0001:00022a8a  W?base_tail_hit$:WCListIterBase$n(pn$WCSLink$$)pn$2$
0001:00022ae5  W?base_tail_unhit$:WCListIterBase$n(pn$WCSLink$$)v
Module: /mnt/sda5/.user/root/src/openwatcom-1.9/bld/plusplus/cpplib/os2.386/mf_rmtd.dll/plbxmt3r.lib(/mnt/sda5/.user/root/src/openwatcom-1.9/bld/plusplus/cpplib/contain/cpp/wcskip.cpp)
0001:00023745+ W?$dt:WCSkipNonTempBase$n()_
0001:00022b43  W?$ct:WCSkipNonTempBase$n(uiuii)_
0001:00022c19  W?$ct:WCSkipNonTempBase$n(uiuipn(ui)pnvpn(pnvui)vi)_
0001:00022cef  W?base_assign$:WCSkipNonTempBase$n(pnx$1$)v
0001:00022d78  W?base_construct$:WCSkipNonTempBase$n(pnx$1$)v
0001:00022e17  W?base_find$:WCSkipNonTempBase$n.x(pnxv)pn$WCSkipListPtrs$$
0001:00022ec9  W?base_find_with_update$:WCSkipNonTempBase$n.x(pnxvpnpn$WCSkipListPtrs$$)pn$2$
0001:00022f8a+ W?base_init$:WCSkipNonTempBase$n(uiui)v
0001:00023030  W?base_insert$:WCSkipNonTempBase$n(pnxv)pn$WCSkipListPtrs$$
0001:0002313c  W?base_occurrencesOf$:WCSkipNonTempBase$n.x(pnxv)ui
0001:000231b7  W?base_random_level$:WCSkipNonTempBase$n()i
0001:00023254  W?base_removeAll$:WCSkipNonTempBase$n(pnxv)ui
0002:00004350+ W?$Wvf0Lo4:WCSkipNonTempBase$$nx[]pn()v
0002:00004370+ W?$Wva0Lo0:WCSkipNonTempBase$$nx[]uc
0002:00004c44+ W?$Wti0K$WCSkipNonTempBase$$$n[]uc
0001:0002348d  W?base_remove_but_not_delete$:WCSkipNonTempBase$n(pnxvrni)pn$WCSkipListPtrs$$
0001:00023570  W?clear$:WCSkipNonTempBase$n()v
0001:000236e0  W?remove$:WCSkipNonTempBase$n(pnxv)i
0002:00004c40  W?randomsLeft$:WCSkipNonTempBase$nui
0002:00005f78  W?randomBits$:WCSkipNonTempBase$nui
Module: ../../../clib/os2.386/mf_rd/clbrdlld.lib(/mnt/sda5/.user/root/src/openwatcom-1.9/bld/clib/startup/c/dmndo32.c)
0001:000237d0  __LibMain
0002:00005f7c+ ___Is_DLL
0002:00005f80+ __LpwDllName
0002:00005f84+ __LpDllName
Module: ../../../clib/os2.386/mf_rd/clbrdlld.lib(segdefns)
0001:00000003  ___begtext
0002:00000000* __nullarea
0002:00005ca4  __Start_XI
0002:00005cf8  __End_XI
0002:00005cf8  __Start_YI
0002:00005d04  __End_YI
Module: /mnt/sda5/.user/root/src/openwatcom-1.9/bld/plusplus/cpplib/os2.386/mf_rmtd/plbxmt3r.lib(/mnt/sda5/.user/root/src/openwatcom-1.9/bld/plusplus/cpplib/runtime/cpp/prwdata.cpp)
0002:000062a0  __wint_static_init_sema
0002:000062b0  __wint_pure_error_flag
0002:000062b2  __wint_undef_vfun_flag
0002:000062b4  __wint_module_init
Module: /mnt/sda5/.user/root/src/openwatcom-1.9/bld/plusplus/cpplib/os2.386/mf_rmtd.dll/plbxmt3r.lib(/mnt/sda5/.user/root/src/openwatcom-1.9/bld/plusplus/cpplib/runtime/cpp/thrddata.cpp)
0001:000238ce  __wcpp_4_multi_thread_init__
Module: /mnt/sda5/.user/root/src/openwatcom-1.9/bld/plusplus/cpplib/os2.386/mf_rmtd.dll/plbxmt3r.lib(/mnt/sda5/.user/root/src/openwatcom-1.9/bld/plusplus/cpplib/runtime/cpp/rtdbgst.cpp)
0001:00024cb3  __wcpp_4_DbgRtDumpModuleDtor__
0001:00024d07  __wcpp_4_DbgRtDumpAutoDtor__
0001:00024f0f* DbgRedirectBeg_
0001:00024f46* DbgRedirectEnd_
0001:00024f9f* DbgLogBeg_
0001:00024fd6* DbgLogEnd_
Module: /mnt/sda5/.user/root/src/openwatcom-1.9/bld/plusplus/cpplib/os2.386/mf_rmtd.dll/plbxmt3r.lib(/mnt/sda5/.user/root/src/openwatcom-1.9/bld/plusplus/cpplib/runtime/cpp/tssize.cpp)
0001:0002500e  __wcpp_4_ts_size__
Module: /mnt/sda5/.user/root/src/openwatcom-1.9/bld/plusplus/cpplib/os2.386/mf_rmtd.dll/plbxmt3r.lib(/mnt/sda5/.user/root/src/openwatcom-1.9/bld/plusplus/cpplib/runtime/cpp/stabdisp.cpp)
0001:0002541c  __wcpp_4_dispatchable__
Module: /mnt/sda5/.user/root/src/openwatcom-1.9/bld/plusplus/cpplib/os2.386/mf_rmtd.dll/plbxmt3r.lib(/mnt/sda5/.user/root/src/openwatcom-1.9/bld/plusplus/cpplib/runtime/cpp/pgmthrd.cpp)
0001:000254d8  __wcpp_4_pgm_thread__
Module: /mnt/sda5/.user/root/src/openwatcom-1.9/bld/plusplus/cpplib/os2.386/mf_rmtd.dll/plbxmt3r.lib(/mnt/sda5/.user/root/src/openwatcom-1.9/bld/plusplus/cpplib/runtime/cpp/fatalerr.cpp)
0001:0002553c  __wcpp_4_fatal_runtime_error__
Module: /mnt/sda5/.user/root/src/openwatcom-1.9/bld/plusplus/cpplib/os2.386/mf_rmtd.dll/plbxmt3r.lib(/mnt/sda5/.user/root/src/openwatcom-1.9/bld/plusplus/cpplib/runtime/cpp/rttidync.cpp)
0001:00025586  __DoDynamicCast_
Module: /mnt/sda5/.user/root/src/openwatcom-1.9/bld/plusplus/cpplib/os2.386/mf_rmtd.dll/plbxmt3r.lib(/mnt/sda5/.user/root/src/openwatcom-1.9/bld/plusplus/cpplib/runtime/cpp/rttisupp.cpp)
0001:00025697  __CalcMostDerived_
0001:00025728  __MakeSureTidIsPresent_
Module: /mnt/sda5/.user/root/src/openwatcom-1.9/bld/plusplus/cpplib/os2.386/mf_rmtd.dll/plbxmt3r.lib(/mnt/sda5/.user/root/src/openwatcom-1.9/bld/plusplus/cpplib/runtime/cpp/stabtrav.cpp)
0001:000257d9  __wcpp_4_stab_entry__
0001:00025829* __wcpp_4_stab_trav_comp__
0001:00025a07  __wcpp_4_stab_trav_init__
0001:00025a6d  __wcpp_4_stab_trav_next__
0001:00025b2b  __wcpp_4_stab_trav_move__
Module: /mnt/sda5/.user/root/src/openwatcom-1.9/bld/plusplus/cpplib/os2.386/mf_rmtd.dll/plbxmt3r.lib(/mnt/sda5/.user/root/src/openwatcom-1.9/bld/plusplus/cpplib/runtime/cpp/allocexc.cpp)
0001:00025b61  __wcpp_4_alloc_exc__
0001:00025eb8  __wcpp_4_free_exc__
0001:00025f93  __wcpp_4_find_active__
0001:00025ff7  __wcpp_4_dtor_free_exc__
Module: /mnt/sda5/.user/root/src/openwatcom-1.9/bld/plusplus/cpplib/os2.386/mf_rmtd.dll/plbxmt3r.lib(/mnt/sda5/.user/root/src/openwatcom-1.9/bld/plusplus/cpplib/runtime/cpp/exc_pr.cpp)
0001:000260e8  W?$ct:_EXC_PR$n(pn$_RTCTL$$pn$RW_DTREG$$$EXCSTATE$$)_
0001:00026163  W?$dt:_EXC_PR$n()_
0001:000261a0  W?$ct:_EXC_PR_FREE$n(pn$_RTCTL$$pn$RW_DTREG$$$EXCSTATE$$pn$ACTIVE_EXC$$)_
0001:000261fb  W?$dt:_EXC_PR_FREE$n()_
0001:00026261  W?$ct:_EXC_PR_DTOR$n(pn$_RTCTL$$pn$RW_DTREG$$$EXCSTATE$$pn$ACTIVE_EXC$$)_
0001:000262b7  W?$dt:_EXC_PR_DTOR$n()_
0001:00026317  W?$ct:_EXC_PR_FNEXC$n(pn$_RTCTL$$pn$RW_DTREG$$pn$2$pn$ACTIVE_EXC$$)_
0001:0002638d  W?$dt:_EXC_PR_FNEXC$n()_
Module: /mnt/sda5/.user/root/src/openwatcom-1.9/bld/plusplus/cpplib/os2.386/mf_rmtd.dll/plbxmt3r.lib(/mnt/sda5/.user/root/src/openwatcom-1.9/bld/plusplus/cpplib/runtime/cpp/callterm.cpp)
0001:000263c9  __wcpp_4_corrupted_stack__
0001:000263f9  __wcpp_4_call_terminate__
Module: /mnt/sda5/.user/root/src/openwatcom-1.9/bld/plusplus/cpplib/os2.386/mf_rmtd.dll/plbxmt3r.lib(/mnt/sda5/.user/root/src/openwatcom-1.9/bld/plusplus/cpplib/runtime/cpp/tsequiv.cpp)
0001:00026456  __wcpp_4_ts_refed__
0001:000264a2  __wcpp_4_ts_pnted__
0001:000264e6  __wcpp_4_ts_equiv__
Module: /mnt/sda5/.user/root/src/openwatcom-1.9/bld/plusplus/cpplib/os2.386/mf_rmtd.dll/plbxmt3r.lib(/mnt/sda5/.user/root/src/openwatcom-1.9/bld/plusplus/cpplib/runtime/cpp/stabinit.cpp)
0001:000266f9  __wcpp_4_exc_setup__
Module: /mnt/sda5/.user/root/src/openwatcom-1.9/bld/plusplus/cpplib/os2.386/mf_rmtd/plbxmt3r.lib(/mnt/sda5/.user/root/src/openwatcom-1.9/bld/plusplus/cpplib/runtime/cpp/stablcl.cpp)
0001:00026811  __wcpp_4_lcl_register__
Module: /mnt/sda5/.user/root/src/openwatcom-1.9/bld/plusplus/cpplib/os2.386/mf_rmtd/plbxmt3r.lib(/mnt/sda5/.user/root/src/openwatcom-1.9/bld/plusplus/cpplib/runtime/cpp/moddtorr.cpp)
0002:00005cfe  ___wcpp_4_data_module_dtor_ref_
Module: /mnt/sda5/.user/root/src/openwatcom-1.9/bld/plusplus/cpplib/os2.386/mf_rmtd/plbxmt3r.lib(/mnt/sda5/.user/root/src/openwatcom-1.9/bld/plusplus/cpplib/runtime/cpp/undefmbd.cpp)
0002:000062e8  ____wcpp_4_data_undefined_member_data_
Module: /mnt/sda5/.user/root/src/openwatcom-1.9/bld/plusplus/cpplib/os2.386/mf_rmtd.dll/plbxmt3r.lib(/mnt/sda5/.user/root/src/openwatcom-1.9/bld/plusplus/cpplib/iostream/cpp/iofgldfl.cpp)
0001:0002683b+ W?__getLDFsign$n(pn$streambuf$:std$$rnpnai)i
0001:00026d11+ W?__getLDFmantissa$n(pn$streambuf$:std$$rnpna)i
0001:00027359+ W?__getLDFexponent$n(pn$streambuf$:std$$rnpna)i
0001:00027ad1  W?__GetLDFloat$n(pn$streambuf$:std$$pna)i
Module: /mnt/sda5/.user/root/src/openwatcom-1.9/bld/plusplus/cpplib/os2.386/mf_rmtd.dll/plbxmt3r.lib(/mnt/sda5/.user/root/src/openwatcom-1.9/bld/plusplus/cpplib/iostream/cpp/iosgnilk.cpp)
0001:00027bdd  W?$Wda0216$:__lock$n(ui)pnv
0001:00027c18  W?.tdctor$:__lock$n()rn$1$
0001:00027b61  W?__get_next_ios_lock$n()pn$__lock$$
Module: /mnt/sda5/.user/root/src/openwatcom-1.9/bld/plusplus/cpplib/os2.386/mf_rmtd.dll/plbxmt3r.lib(/mnt/sda5/.user/root/src/openwatcom-1.9/bld/plusplus/cpplib/iostream/cpp/iosfail.cpp)
0001:00027c48  W?$ct:failure$:ios$:std$n(i)_
Module: /mnt/sda5/.user/root/src/openwatcom-1.9/bld/plusplus/cpplib/os2.386/mf_rmtd.dll/plbxmt3r.lib(/mnt/sda5/.user/root/src/openwatcom-1.9/bld/plusplus/cpplib/iostream/cpp/istgtu64.cpp)
0001:00027c7c  W?__getunsignedint64$n(pn$streambuf$:std$$rnuzuzzl)i
Module: /mnt/sda5/.user/root/src/openwatcom-1.9/bld/plusplus/cpplib/os2.386/mf_rmtd.dll/plbxmt3r.lib(/mnt/sda5/.user/root/src/openwatcom-1.9/bld/plusplus/cpplib/iostream/cpp/istgetul.cpp)
0001:000281b2  W?__getunsignedlong$n(pn$streambuf$:std$$rnululll)i
Module: /mnt/sda5/.user/root/src/openwatcom-1.9/bld/plusplus/cpplib/os2.386/mf_rmtd.dll/plbxmt3r.lib(/mnt/sda5/.user/root/src/openwatcom-1.9/bld/plusplus/cpplib/iostream/cpp/istgalin.cpp)
0001:0002867e  W?__getaline$n(rn$istream$:std$$pnaiairni)i
Module: /mnt/sda5/.user/root/src/openwatcom-1.9/bld/plusplus/cpplib/os2.386/mf_rmtd.dll/plbxmt3r.lib(/mnt/sda5/.user/root/src/openwatcom-1.9/bld/plusplus/cpplib/iostream/cpp/ioufgtba.cpp)
0001:00028be9  W?__FlagsToBase$n(l)i
Module: /mnt/sda5/.user/root/src/openwatcom-1.9/bld/plusplus/cpplib/os2.386/mf_rmtd.dll/plbxmt3r.lib(/mnt/sda5/.user/root/src/openwatcom-1.9/bld/plusplus/cpplib/iostream/cpp/ostadpre.cpp)
0001:00028c46  W?__AddPrefix$n(apnarniil)v
Module: /mnt/sda5/.user/root/src/openwatcom-1.9/bld/plusplus/cpplib/os2.386/mf_rmtd.dll/plbxmt3r.lib(/mnt/sda5/.user/root/src/openwatcom-1.9/bld/plusplus/cpplib/iostream/cpp/ssfgpos.cpp)
0001:00028cd3  W?__get_position$n(lipnapnapnapna)l
Module: /mnt/sda5/.user/root/src/openwatcom-1.9/bld/plusplus/cpplib/os2.386/mf_rmtd.dll/plbxmt3r.lib(/mnt/sda5/.user/root/src/openwatcom-1.9/bld/plusplus/cpplib/iostream/cpp/stfgnslk.cpp)
0001:00028de3  W?__get_next_streambuf_lock$n()pn$__lock$$
Module: /mnt/sda5/.user/root/src/openwatcom-1.9/bld/plusplus/cpplib/os2.386/mf_rmtd.dll/plbxmt3r.lib(/mnt/sda5/.user/root/src/openwatcom-1.9/bld/plusplus/cpplib/string/cpp/compchar.cpp)
0001:00028e5f  W?__CompareChars$n(pnxalpnxal)i
Module: /mnt/sda5/.user/root/src/openwatcom-1.9/bld/plusplus/cpplib/os2.386/mf_rmtd.dll/plbxmt3r.lib(/mnt/sda5/.user/root/src/openwatcom-1.9/bld/plusplus/cpplib/string/cpp/matchstr.cpp)
0001:00028f54  W?__MatchStrings$n(pnxauipnxaui)l
Module: /mnt/sda5/.user/root/src/openwatcom-1.9/bld/plusplus/cpplib/os2.386/mf_rmtd.dll/plbxmt3r.lib(/mnt/sda5/.user/root/src/openwatcom-1.9/bld/plusplus/cpplib/string/cpp/strsrch.cpp)
0001:00028fd5  StringSearch_
Module: ../../../clib/os2.386/mf_rd/clbrdlld.lib(/mnt/sda5/.user/root/src/openwatcom-1.9/bld/clib/startup/c/lmaino32.c)
0001:000291a0  LibMain
Module: ../../../clib/os2.386/mf_rd/clbrdlld.lib(/mnt/sda5/.user/root/src/openwatcom-1.9/bld/clib/startup/c/initrtns.c)
0001:00029200  __InitRtns
0001:00029290  __FiniRtns
Module: ../../../clib/os2.386/mf_rd/clbrdlld.lib(/mnt/sda5/.user/root/src/openwatcom-1.9/bld/clib/startup/c/ddgrpo32.c)
0001:00029430  __disallow_single_dgroup_
Module: ../../../clib/os2.386/mf_rd/clbrdlld.lib(/mnt/sda5/.user/root/src/openwatcom-1.9/bld/clib/startup/c/dcinit.c)
0001:000296b0  __CommonInit_
0002:000067c4  ___hmodule
Module: ../../../clib/os2.386/mf_rd/clbrdlld.lib(dosseg)
0000:00001234  __DOSseg__
Module: /mnt/sda5/.user/root/src/openwatcom-1.9/bld/plusplus/cpplib/os2.386/mf_rmtd.dll/plbxmt3r.lib(/mnt/sda5/.user/root/src/openwatcom-1.9/bld/plusplus/cpplib/runtime/cpp/bittest.cpp)
0001:000296d4  __wcpp_4_bit_test__
0001:00029720  __wcpp_4_bit_off__
Module: /mnt/sda5/.user/root/src/openwatcom-1.9/bld/plusplus/cpplib/os2.386/mf_rmtd/plbxmt3r.lib(/mnt/sda5/.user/root/src/openwatcom-1.9/bld/plusplus/cpplib/runtime/cpp/areaexc.cpp)
0002:00004ca0  ___EXC_AREA
Module: /mnt/sda5/.user/root/src/openwatcom-1.9/bld/plusplus/cpplib/os2.386/mf_rmtd.dll/plbxmt3r.lib(/mnt/sda5/.user/root/src/openwatcom-1.9/bld/plusplus/cpplib/runtime/cpp/dstabmod.cpp)
0001:00029766  __wcpp_4_module_dtor__
0001:000297e2  __wcpp_4_mod_register__
Module: /mnt/sda5/.user/root/src/openwatcom-1.9/bld/plusplus/cpplib/os2.386/mf_rmtd.dll/plbxmt3r.lib(/mnt/sda5/.user/root/src/openwatcom-1.9/bld/plusplus/cpplib/iostream/cpp/istgsign.cpp)
0001:0002982b  W?__getsign$n(pn$streambuf$:std$$rna)i
Module: /mnt/sda5/.user/root/src/openwatcom-1.9/bld/plusplus/cpplib/os2.386/mf_rmtd.dll/plbxmt3r.lib(/mnt/sda5/.user/root/src/openwatcom-1.9/bld/plusplus/cpplib/iostream/cpp/istgbase.cpp)
0001:00029a0d  W?__getbase$n(pn$streambuf$:std$$rnirni)i
Module: /mnt/sda5/.user/root/src/openwatcom-1.9/bld/plusplus/cpplib/os2.386/mf_rmtd.dll/plbxmt3r.lib(/mnt/sda5/.user/root/src/openwatcom-1.9/bld/plusplus/cpplib/iostream/cpp/istgnm64.cpp)
0001:0002a3be  W?__getnumberint64$n(pn$streambuf$:std$$rnuzirni)i
Module: /mnt/sda5/.user/root/src/openwatcom-1.9/bld/plusplus/cpplib/os2.386/mf_rmtd.dll/plbxmt3r.lib(/mnt/sda5/.user/root/src/openwatcom-1.9/bld/plusplus/cpplib/iostream/cpp/istgnum.cpp)
0001:0002a8e0  W?__getnumber$n(pn$streambuf$:std$$rnulirni)i
Module: ../../../clib/os2.386/mf_rd/clbrdlld.lib(/mnt/sda5/.user/root/src/openwatcom-1.9/bld/clib/startup/c/dllmno32.c)
0001:0002ad60  DllMain


                        +---------------------+
                        |   Module Segments   |
                        +---------------------+

! = 32-bit segment
c = initialized communal data

Module          Segment               Class           Address         Size
======          =======               =====           =======         ====

/mnt/sda5/.user/root/src/openwatcom-1.9/bld/clib/startup/c/clibdo32.c
                _TEXT                 CODE           0001:00000010  ! 00000051
                CONST                 DATA           0002:00000004  ! 00000000
                CONST2                DATA           0002:00000ba0  ! 00000000
                _DATA                 DATA           0002:000046c0  ! 00000000
dstrt386        _TEXT                 CODE           0001:00000062  ! 0000005c
                _DATA                 DATA           0002:000046c0  ! 00000000
FSHAND          _TEXT                 CODE           0001:000000be  ! 0000000b
                _DATA                 DATA           0002:000046c0  ! 00000000
/mnt/sda5/.user/root/src/openwatcom-1.9/bld/plusplus/cpplib/runtime/cpp/opdel.cpp
                _TEXT                 CODE           0001:000000c9  ! 000000aa
                CONST                 DATA           0002:00000004  ! 00000000
                CONST2                DATA           0002:00000ba0  ! 00000000
                _DATA                 DATA           0002:000046c0  ! 00000004
                _BSS                  BSS            0002:00005d10  ! 00000000
/mnt/sda5/.user/root/src/openwatcom-1.9/bld/plusplus/cpplib/runtime/cpp/opdelarr.cpp
                _TEXT                 CODE           0001:00000173  ! 000000a4
                CONST                 DATA           0002:00000004  ! 00000000
                CONST2                DATA           0002:00000ba0  ! 00000000
                _DATA                 DATA           0002:000046c4  ! 00000004
                _BSS                  BSS            0002:00005d10  ! 00000000
/mnt/sda5/.user/root/src/openwatcom-1.9/bld/plusplus/cpplib/runtime/cpp/opnew.cpp
                _TEXT                 CODE           0001:00000217  ! 0000010a
                CONST                 DATA           0002:00000004  ! 00000000
                CONST2                DATA           0002:00000ba0  ! 00000000
                _DATA                 DATA           0002:000046c8  ! 00000004
                _BSS                  BSS            0002:00005d10  ! 00000000
/mnt/sda5/.user/root/src/openwatcom-1.9/bld/plusplus/cpplib/runtime/cpp/opnewarr.cpp
                _TEXT                 CODE           0001:00000321  ! 000000b0
                CONST                 DATA           0002:00000004  ! 00000000
                CONST2                DATA           0002:00000ba0  ! 00000000
                _DATA                 DATA           0002:000046cc  ! 00000004
                _BSS                  BSS            0002:00005d10  ! 00000000
/mnt/sda5/.user/root/src/openwatcom-1.9/bld/plusplus/cpplib/runtime/cpp/opnewp.cpp
                _TEXT                 CODE           0001:000003d1  ! 0000002c
                CONST                 DATA           0002:00000004  ! 00000000
                CONST2                DATA           0002:00000ba0  ! 00000000
                _DATA                 DATA           0002:000046d0  ! 00000000
                _BSS                  BSS            0002:00005d10  ! 00000000
/mnt/sda5/.user/root/src/openwatcom-1.9/bld/plusplus/cpplib/runtime/cpp/opnewpar.cpp
                _TEXT                 CODE           0001:000003fd  ! 0000002c
                CONST                 DATA           0002:00000004  ! 00000000
                CONST2                DATA           0002:00000ba0  ! 00000000
                _DATA                 DATA           0002:000046d0  ! 00000000
                _BSS                  BSS            0002:00005d10  ! 00000000
/mnt/sda5/.user/root/src/openwatcom-1.9/bld/plusplus/cpplib/runtime/cpp/arrassgn.cpp
                _TEXT                 CODE           0001:00000429  ! 00000057
                CONST                 DATA           0002:00000004  ! 00000000
                CONST2                DATA           0002:00000ba0  ! 00000000
                _DATA                 DATA           0002:000046d0  ! 00000000
                _BSS                  BSS            0002:00005d10  ! 00000000
/mnt/sda5/.user/root/src/openwatcom-1.9/bld/plusplus/cpplib/runtime/cpp/cppdata.cpp
                _TEXT                 CODE           0001:00000480  ! 00000000
                CONST                 DATA           0002:00000004  ! 00000000
                CONST2                DATA           0002:00000ba0  ! 00000000
                _DATA                 DATA           0002:000046d0  ! 00000000
                _BSS                  BSS            0002:00005d10  ! 00000008
                XIB                   DATA           0002:00005ca4  ! 00000000
                XI                    DATA           0002:00005ca4  ! 00000006
                XIE                   DATA           0002:00005cf8  ! 00000000
/mnt/sda5/.user/root/src/openwatcom-1.9/bld/plusplus/cpplib/runtime/cpp/ctorarst.cpp
                _TEXT                 CODE           0001:00000480  ! 0000053c
                CONST                 DATA           0002:00000004  ! 00000000
                CONST2                DATA           0002:00000ba0  ! 00000028
                _DATA                 DATA           0002:000046d0  ! 00000000
                _BSS                  BSS            0002:00005d18  ! 00000000
                _TEXT                 CODE           0001:000009bc c! 00000034
                _TEXT                 CODE           0001:000009f0 c! 00000046
                CONST2                DATA           0002:00000bd0 c! 00000018
                _DATA                 DATA           0002:000046d0 c! 0000000d
/mnt/sda5/.user/root/src/openwatcom-1.9/bld/plusplus/cpplib/runtime/cpp/dtorarst.cpp
                _TEXT                 CODE           0001:00000a36  ! 00000054
                CONST                 DATA           0002:00000004  ! 00000000
                CONST2                DATA           0002:00000be8  ! 00000000
                _DATA                 DATA           0002:000046dd  ! 00000000
                _BSS                  BSS            0002:00005d18  ! 00000000
/mnt/sda5/.user/root/src/openwatcom-1.9/bld/plusplus/cpplib/runtime/cpp/fsregist.cpp
                _TEXT                 CODE           0001:00000a8a  ! 000003df
                CONST                 DATA           0002:00000004  ! 00000000
                CONST2                DATA           0002:00000be8  ! 00000000
                _DATA                 DATA           0002:000046dd  ! 00000000
                _BSS                  BSS            0002:00005d18  ! 00000000
/mnt/sda5/.user/root/src/openwatcom-1.9/bld/plusplus/cpplib/runtime/cpp/stabfunc.cpp
                _TEXT                 CODE           0001:00000e69  ! 00000030
                CONST                 DATA           0002:00000004  ! 00000000
                CONST2                DATA           0002:00000be8  ! 00000000
                _DATA                 DATA           0002:000046dd  ! 00000000
                _BSS                  BSS            0002:00005d18  ! 00000000
/mnt/sda5/.user/root/src/openwatcom-1.9/bld/plusplus/cpplib/runtime/cpp/stabreg.cpp
                _TEXT                 CODE           0001:00000e99  ! 00000090
                CONST                 DATA           0002:00000004  ! 00000000
                CONST2                DATA           0002:00000be8  ! 00000000
                _DATA                 DATA           0002:000046dd  ! 00000000
                _BSS                  BSS            0002:00005d18  ! 00000000
/mnt/sda5/.user/root/src/openwatcom-1.9/bld/plusplus/cpplib/runtime/cpp/lock.cpp
                _TEXT                 CODE           0001:00000f29  ! 0000018c
                CONST                 DATA           0002:00000004  ! 00000000
                CONST2                DATA           0002:00000be8  ! 00000000
                _DATA                 DATA           0002:000046dd  ! 00000000
                _BSS                  BSS            0002:00005d18  ! 00000000
                YIB                   DATA           0002:00005cf8  ! 00000000
                YI                    DATA           0002:00005cf8  ! 00000006
                YIE                   DATA           0002:00005d04  ! 00000000
/mnt/sda5/.user/root/src/openwatcom-1.9/bld/plusplus/cpplib/runtime/cpp/pure_err.cpp
                _TEXT                 CODE           0001:000010b5  ! 00000041
                CONST                 DATA           0002:00000004  ! 0000001e
                CONST2                DATA           0002:00000be8  ! 00000000
                _DATA                 DATA           0002:000046dd  ! 00000000
                _BSS                  BSS            0002:00005d18  ! 00000000
/mnt/sda5/.user/root/src/openwatcom-1.9/bld/plusplus/cpplib/runtime/cpp/rttiptr.cpp
                _TEXT                 CODE           0001:000010f6  ! 0000005d
                CONST                 DATA           0002:00000022  ! 00000000
                CONST2                DATA           0002:00000bf0  ! 00000000
                _DATA                 DATA           0002:000046dd  ! 00000000
                _BSS                  BSS            0002:00005d18  ! 00000000
/mnt/sda5/.user/root/src/openwatcom-1.9/bld/plusplus/cpplib/runtime/cpp/rttivoid.cpp
                _TEXT                 CODE           0001:00001153  ! 0000005d
                CONST                 DATA           0002:00000022  ! 00000000
                CONST2                DATA           0002:00000bf0  ! 00000000
                _DATA                 DATA           0002:000046dd  ! 00000000
                _BSS                  BSS            0002:00005d18  ! 00000000
/mnt/sda5/.user/root/src/openwatcom-1.9/bld/plusplus/cpplib/runtime/cpp/rttiref.cpp
                _TEXT                 CODE           0001:000011b0  ! 000000ef
                CONST                 DATA           0002:00000022  ! 00000015
                CONST2                DATA           0002:00000bf0  ! 00000084
                _DATA                 DATA           0002:000046dd  ! 00000000
                _BSS                  BSS            0002:00005d18  ! 00000000
                _TEXT                 CODE           0001:0000129f c! 00000065
                _TEXT                 CODE           0001:00001304 c! 00000070
                _TEXT                 CODE           0001:00001374 c! 0000006e
                _TEXT                 CODE           0001:000013e2 c! 000000c0
                _TEXT                 CODE           0001:000014a2 c! 0000005d
                _TEXT                 CODE           0001:000014ff c! 0000007f
                _TEXT                 CODE           0001:0000157e c! 00000044
                _TEXT                 CODE           0001:000015c2 c! 000000e0
                CONST2                DATA           0002:00000c80 c! 0000000c
                CONST2                DATA           0002:00000c90 c! 0000000c
                CONST2                DATA           0002:00000ca0 c! 00000008
                CONST2                DATA           0002:00000cb0 c! 0000001c
                CONST2                DATA           0002:00000cd0 c! 00000018
                CONST2                DATA           0002:00000cf0 c! 00000018
                CONST2                DATA           0002:00000d10 c! 0000001c
                _DATA                 DATA           0002:000046dd c! 00000015
                _TEXT                 CODE           0001:000016a2 c! 00000034
                _TEXT                 CODE           0001:000016d6 c! 00000034
                _TEXT                 CODE           0001:0000170a c! 00000034
                CONST2                DATA           0002:00000d30 c! 00000010
                _DATA                 DATA           0002:000046f2 c! 00000016
/mnt/sda5/.user/root/src/openwatcom-1.9/bld/plusplus/cpplib/runtime/cpp/rttitid.cpp
                _TEXT                 CODE           0001:0000173e  ! 00000119
                CONST                 DATA           0002:00000037  ! 00000016
                CONST2                DATA           0002:00000d40  ! 00000084
                _DATA                 DATA           0002:00004708  ! 00000000
                _BSS                  BSS            0002:00005d18  ! 00000000
                _TEXT                 CODE           0001:00001857 c! 0000007f
                _TEXT                 CODE           0001:000018d6 c! 00000044
                _TEXT                 CODE           0001:0000191a c! 000000e0
                CONST2                DATA           0002:00000dd0 c! 0000000c
                CONST2                DATA           0002:00000de0 c! 0000001c
                CONST2                DATA           0002:00000e00 c! 00000018
                CONST2                DATA           0002:00000e20 c! 0000001c
                _DATA                 DATA           0002:00004708 c! 00000017
                _TEXT                 CODE           0001:000019fa c! 00000034
                _TEXT                 CODE           0001:00001a2e c! 00000034
/mnt/sda5/.user/root/src/openwatcom-1.9/bld/plusplus/cpplib/runtime/cpp/setnwhdl.cpp
                _TEXT                 CODE           0001:00001a62  ! 0000004e
                CONST                 DATA           0002:0000004d  ! 00000000
                CONST2                DATA           0002:00000e40  ! 00000000
                _DATA                 DATA           0002:0000471f  ! 00000000
                _BSS                  BSS            0002:00005d18  ! 00000000
/mnt/sda5/.user/root/src/openwatcom-1.9/bld/plusplus/cpplib/runtime/cpp/_stnwhdl.cpp
                _TEXT                 CODE           0001:00001ab0  ! 00000045
                CONST                 DATA           0002:0000004d  ! 00000000
                CONST2                DATA           0002:00000e40  ! 00000000
                _DATA                 DATA           0002:0000471f  ! 00000000
                _BSS                  BSS            0002:00005d18  ! 00000000
/mnt/sda5/.user/root/src/openwatcom-1.9/bld/plusplus/cpplib/runtime/cpp/settrmnt.cpp
                _TEXT                 CODE           0001:00001af5  ! 0000004e
                CONST                 DATA           0002:0000004d  ! 00000000
                CONST2                DATA           0002:00000e40  ! 00000000
                _DATA                 DATA           0002:0000471f  ! 00000000
                _BSS                  BSS            0002:00005d18  ! 00000000
/mnt/sda5/.user/root/src/openwatcom-1.9/bld/plusplus/cpplib/runtime/cpp/setunexp.cpp
                _TEXT                 CODE           0001:00001b43  ! 0000004e
                CONST                 DATA           0002:0000004d  ! 00000000
                CONST2                DATA           0002:00000e40  ! 00000000
                _DATA                 DATA           0002:0000471f  ! 00000000
                _BSS                  BSS            0002:00005d18  ! 00000000
/mnt/sda5/.user/root/src/openwatcom-1.9/bld/plusplus/cpplib/runtime/cpp/sisema.cpp
                _TEXT                 CODE           0001:00001b91  ! 0000006c
                CONST                 DATA           0002:0000004d  ! 00000000
                CONST2                DATA           0002:00000e40  ! 00000000
                _DATA                 DATA           0002:0000471f  ! 00000000
                _BSS                  BSS            0002:00005d18  ! 00000000
/mnt/sda5/.user/root/src/openwatcom-1.9/bld/plusplus/cpplib/runtime/cpp/stabacp.cpp
                _TEXT                 CODE           0001:00001bfd  ! 00000135
                CONST                 DATA           0002:0000004d  ! 00000000
                CONST2                DATA           0002:00000e40  ! 0000000c
                _DATA                 DATA           0002:0000471f  ! 00000000
                _BSS                  BSS            0002:00005d18  ! 00000000
                CONST2                DATA           0002:00000e50 c! 00000018
                _DATA                 DATA           0002:0000471f c! 00000011
/mnt/sda5/.user/root/src/openwatcom-1.9/bld/plusplus/cpplib/runtime/cpp/stabacpv.cpp
                _TEXT                 CODE           0001:00001d32  ! 00000137
                CONST                 DATA           0002:0000004d  ! 00000000
                CONST2                DATA           0002:00000e70  ! 0000000c
                _DATA                 DATA           0002:00004730  ! 00000000
                _BSS                  BSS            0002:00005d18  ! 00000000
/mnt/sda5/.user/root/src/openwatcom-1.9/bld/plusplus/cpplib/runtime/cpp/stabact.cpp
                _TEXT                 CODE           0001:00001e69  ! 00000129
                CONST                 DATA           0002:0000004d  ! 00000000
                CONST2                DATA           0002:00000e80  ! 0000000c
                _DATA                 DATA           0002:00004730  ! 00000000
                _BSS                  BSS            0002:00005d18  ! 00000000
/mnt/sda5/.user/root/src/openwatcom-1.9/bld/plusplus/cpplib/runtime/cpp/stabactv.cpp
                _TEXT                 CODE           0001:00001f92  ! 0000012b
                CONST                 DATA           0002:0000004d  ! 00000000
                CONST2                DATA           0002:00000e90  ! 0000000c
                _DATA                 DATA           0002:00004730  ! 00000000
                _BSS                  BSS            0002:00005d18  ! 00000000
/mnt/sda5/.user/root/src/openwatcom-1.9/bld/plusplus/cpplib/runtime/cpp/stabadt.cpp
                _TEXT                 CODE           0001:000020bd  ! 00000241
                CONST                 DATA           0002:0000004d  ! 00000024
                CONST2                DATA           0002:00000ea0  ! 0000000c
                _DATA                 DATA           0002:00004730  ! 00000000
                _BSS                  BSS            0002:00005d18  ! 00000000
/mnt/sda5/.user/root/src/openwatcom-1.9/bld/plusplus/cpplib/runtime/cpp/stabdtor.cpp
                _TEXT                 CODE           0001:000022fe  ! 00000647
                CONST                 DATA           0002:00000071  ! 0000007b
                CONST2                DATA           0002:00000eac  ! 00000000
                _DATA                 DATA           0002:00004730  ! 00000000
                _BSS                  BSS            0002:00005d18  ! 00000000
/mnt/sda5/.user/root/src/openwatcom-1.9/bld/plusplus/cpplib/runtime/cpp/stabthrw.cpp
                _TEXT                 CODE           0001:00002945  ! 00000bcc
                CONST                 DATA           0002:000000ec  ! 00000276
                CONST2                DATA           0002:00000eb0  ! 000000ec
                _DATA                 DATA           0002:00004730  ! 00000000
                _BSS                  BSS            0002:00005d18  ! 00000000
                _TEXT                 CODE           0001:00003511 c! 0000009b
                _TEXT                 CODE           0001:000035ac c! 00000070
                _TEXT                 CODE           0001:0000361c c! 000000fe
                CONST2                DATA           0002:00000fa0 c! 0000000c
                CONST2                DATA           0002:00000fb0 c! 00000008
                CONST2                DATA           0002:00000fc0 c! 0000001c
                CONST2                DATA           0002:00000fe0 c! 00000018
                CONST2                DATA           0002:00001000 c! 00000018
                CONST2                DATA           0002:00001020 c! 00000018
                CONST2                DATA           0002:00001040 c! 00000018
                CONST2                DATA           0002:00001060 c! 00000018
                CONST2                DATA           0002:00001080 c! 0000001c
                _DATA                 DATA           0002:00004730 c! 0000000f
                _DATA                 DATA           0002:0000473f c! 00000014
                _DATA                 DATA           0002:00004753 c! 00000014
                _DATA                 DATA           0002:00004767 c! 00000015
                _DATA                 DATA           0002:0000477c c! 0000001a
                _TEXT                 CODE           0001:0000371a c! 00000034
                _TEXT                 CODE           0001:0000374e c! 00000034
/mnt/sda5/.user/root/src/openwatcom-1.9/bld/plusplus/cpplib/runtime/cpp/termnate.cpp
                _TEXT                 CODE           0001:00003782  ! 00000079
                CONST                 DATA           0002:00000362  ! 00000022
                CONST2                DATA           0002:0000109c  ! 00000000
                _DATA                 DATA           0002:00004796  ! 00000000
                _BSS                  BSS            0002:00005d18  ! 00000000
/mnt/sda5/.user/root/src/openwatcom-1.9/bld/plusplus/cpplib/runtime/cpp/ti_bfor.cpp
                _TEXT                 CODE           0001:000037fb  ! 00000059
                CONST                 DATA           0002:00000384  ! 00000000
                CONST2                DATA           0002:000010a0  ! 00000000
                _DATA                 DATA           0002:00004796  ! 00000000
                _BSS                  BSS            0002:00005d18  ! 00000000
/mnt/sda5/.user/root/src/openwatcom-1.9/bld/plusplus/cpplib/runtime/cpp/ti_dtor.cpp
                _TEXT                 CODE           0001:00003854  ! 0000002c
                CONST                 DATA           0002:00000384  ! 00000000
                CONST2                DATA           0002:000010a0  ! 00000000
                _DATA                 DATA           0002:00004796  ! 00000000
                _BSS                  BSS            0002:00005d18  ! 00000000
/mnt/sda5/.user/root/src/openwatcom-1.9/bld/plusplus/cpplib/runtime/cpp/ti_name.cpp
                _TEXT                 CODE           0001:00003880  ! 000001a1
                CONST                 DATA           0002:00000384  ! 00000000
                CONST2                DATA           0002:000010a0  ! 00000018
                _DATA                 DATA           0002:00004796  ! 00000020
                _BSS                  BSS            0002:00005d20  ! 00000015
                XIB                   DATA           0002:00005ca4  ! 00000000
                XI                    DATA           0002:00005caa  ! 00000006
                XIE                   DATA           0002:00005cf8  ! 00000000
                CONST2                DATA           0002:000010c0 c! 00000018
                CONST2                DATA           0002:000010e0 c! 00000018
                _DATA                 DATA           0002:000047b6 c! 00000028
                _DATA                 DATA           0002:000047de c! 00000011
                _TEXT                 CODE           0001:00003a21 c! 00000034
                _TEXT                 CODE           0001:00003a55 c! 00000034
                CONST2                DATA           0002:00001100 c! 00000018
                _DATA                 DATA           0002:000047ef c! 0000000e
/mnt/sda5/.user/root/src/openwatcom-1.9/bld/plusplus/cpplib/runtime/cpp/ti_raw.cpp
                _TEXT                 CODE           0001:00003a89  ! 0000002e
                CONST                 DATA           0002:00000384  ! 00000000
                CONST2                DATA           0002:00001120  ! 00000000
                _DATA                 DATA           0002:000047fd  ! 00000000
                _BSS                  BSS            0002:00005d35  ! 00000000
/mnt/sda5/.user/root/src/openwatcom-1.9/bld/plusplus/cpplib/runtime/cpp/ti_opeq.cpp
                _TEXT                 CODE           0001:00003ab7  ! 00000059
                CONST                 DATA           0002:00000384  ! 00000000
                CONST2                DATA           0002:00001120  ! 00000000
                _DATA                 DATA           0002:000047fd  ! 00000000
                _BSS                  BSS            0002:00005d35  ! 00000000
/mnt/sda5/.user/root/src/openwatcom-1.9/bld/plusplus/cpplib/runtime/cpp/ti_opne.cpp
                _TEXT                 CODE           0001:00003b10  ! 00000059
                CONST                 DATA           0002:00000384  ! 00000000
                CONST2                DATA           0002:00001120  ! 00000000
                _DATA                 DATA           0002:000047fd  ! 00000000
                _BSS                  BSS            0002:00005d35  ! 00000000
/mnt/sda5/.user/root/src/openwatcom-1.9/bld/plusplus/cpplib/runtime/cpp/undefed.cpp
                _TEXT                 CODE           0001:00003b69  ! 0000002e
                CONST                 DATA           0002:00000384  ! 0000002c
                CONST2                DATA           0002:00001120  ! 00000000
                _DATA                 DATA           0002:000047fd  ! 00000000
                _BSS                  BSS            0002:00005d35  ! 00000000
/mnt/sda5/.user/root/src/openwatcom-1.9/bld/plusplus/cpplib/runtime/cpp/undefmbr.cpp
                _TEXT                 CODE           0001:00003b97  ! 0000002e
                CONST                 DATA           0002:000003b0  ! 0000003c
                CONST2                DATA           0002:00001120  ! 00000000
                _DATA                 DATA           0002:000047fd  ! 00000000
                _BSS                  BSS            0002:00005d35  ! 00000000
/mnt/sda5/.user/root/src/openwatcom-1.9/bld/plusplus/cpplib/runtime/cpp/unexpect.cpp
                _TEXT                 CODE           0001:00003bc5  ! 000000c8
                CONST                 DATA           0002:000003ec  ! 00000023
                CONST2                DATA           0002:00001120  ! 0000000c
                _DATA                 DATA           0002:000047fd  ! 00000000
                _BSS                  BSS            0002:00005d35  ! 00000000
/mnt/sda5/.user/root/src/openwatcom-1.9/bld/plusplus/cpplib/runtime/cpp/vfun_err.cpp
                _TEXT                 CODE           0001:00003c8d  ! 00000041
                CONST                 DATA           0002:0000040f  ! 00000032
                CONST2                DATA           0002:0000112c  ! 00000000
                _DATA                 DATA           0002:000047fd  ! 00000000
                _BSS                  BSS            0002:00005d35  ! 00000000
/mnt/sda5/.user/root/src/openwatcom-1.9/bld/plusplus/cpplib/iostream/cpp/flfattac.cpp
                _TEXT                 CODE           0001:00003cce  ! 00000148
                CONST                 DATA           0002:00000441  ! 00000000
                CONST2                DATA           0002:00001130  ! 0000000c
                _DATA                 DATA           0002:000047fd  ! 00000000
                _BSS                  BSS            0002:00005d35  ! 00000000
                _TEXT                 CODE           0001:00003e16 c! 00000034
                CONST2                DATA           0002:00001140 c! 00000018
                _DATA                 DATA           0002:000047fd c! 00000012
/mnt/sda5/.user/root/src/openwatcom-1.9/bld/plusplus/cpplib/iostream/cpp/flfclose.cpp
                _TEXT                 CODE           0001:00003e4a  ! 00000183
                CONST                 DATA           0002:00000441  ! 00000000
                CONST2                DATA           0002:00001160  ! 0000000c
                _DATA                 DATA           0002:0000480f  ! 00000000
                _BSS                  BSS            0002:00005d35  ! 00000000
/mnt/sda5/.user/root/src/openwatcom-1.9/bld/plusplus/cpplib/iostream/cpp/flfconde.cpp
                _TEXT                 CODE           0001:00003fcd  ! 00000050
                CONST                 DATA           0002:00000441  ! 00000000
                CONST2                DATA           0002:00001170  ! 00000000
                _DATA                 DATA           0002:0000480f  ! 00000000
                _BSS                  BSS            0002:00005d35  ! 00000000
                CONST2                DATA           0002:00001170 c! 00000030
                _DATA                 DATA           0002:0000480f c! 00000016
                CONST2                DATA           0002:000011a0 c! 0000001c
                _DATA                 DATA           0002:00004825 c! 00000014
/mnt/sda5/.user/root/src/openwatcom-1.9/bld/plusplus/cpplib/iostream/cpp/flfconfd.cpp
                _TEXT                 CODE           0001:0000401d  ! 000000a8
                CONST                 DATA           0002:00000441  ! 00000000
                CONST2                DATA           0002:000011c0  ! 0000001c
                _DATA                 DATA           0002:00004839  ! 00000000
                _BSS                  BSS            0002:00005d35  ! 00000000
                _TEXT                 CODE           0001:000040c5 c! 00000034
/mnt/sda5/.user/root/src/openwatcom-1.9/bld/plusplus/cpplib/iostream/cpp/flfconsf.cpp
                _TEXT                 CODE           0001:000040f9  ! 000000b8
                CONST                 DATA           0002:00000441  ! 00000000
                CONST2                DATA           0002:000011e0  ! 0000001c
                _DATA                 DATA           0002:00004839  ! 00000000
                _BSS                  BSS            0002:00005d35  ! 00000000
/mnt/sda5/.user/root/src/openwatcom-1.9/bld/plusplus/cpplib/iostream/cpp/flfdestr.cpp
                _TEXT                 CODE           0001:000041b1  ! 00000173
                CONST                 DATA           0002:00000441  ! 00000000
                CONST2                DATA           0002:00001200  ! 00000038
                _DATA                 DATA           0002:00004839  ! 00000000
                _BSS                  BSS            0002:00005d35  ! 00000000
                CONST2                DATA           0002:00001240 c! 00000018
                _TEXT                 CODE           0001:00004324 c! 00000034
/mnt/sda5/.user/root/src/openwatcom-1.9/bld/plusplus/cpplib/iostream/cpp/flfopen.cpp
                _TEXT                 CODE           0001:00004358  ! 0000021e
                CONST                 DATA           0002:00000441  ! 00000000
                CONST2                DATA           0002:00001260  ! 0000000c
                _DATA                 DATA           0002:00004839  ! 00000000
                _BSS                  BSS            0002:00005d35  ! 00000000
/mnt/sda5/.user/root/src/openwatcom-1.9/bld/plusplus/cpplib/iostream/cpp/flfoprot.cpp
                _TEXT                 CODE           0001:00004576  ! 00000000
                CONST                 DATA           0002:00000441  ! 00000000
                CONST2                DATA           0002:00001270  ! 00000004
                _DATA                 DATA           0002:00004839  ! 00000000
                _BSS                  BSS            0002:00005d35  ! 00000000
/mnt/sda5/.user/root/src/openwatcom-1.9/bld/plusplus/cpplib/iostream/cpp/flfoverf.cpp
                _TEXT                 CODE           0001:00004576  ! 00000cb4
                CONST                 DATA           0002:00000441  ! 00000000
                CONST2                DATA           0002:00001280  ! 00000014
                _DATA                 DATA           0002:00004839  ! 00000000
                _BSS                  BSS            0002:00005d35  ! 00000000
/mnt/sda5/.user/root/src/openwatcom-1.9/bld/plusplus/cpplib/iostream/cpp/flfpbfai.cpp
                _TEXT                 CODE           0001:0000522a  ! 000005dd
                CONST                 DATA           0002:00000441  ! 00000000
                CONST2                DATA           0002:000012a0  ! 00000024
                _DATA                 DATA           0002:00004839  ! 00000000
                _BSS                  BSS            0002:00005d35  ! 00000000
/mnt/sda5/.user/root/src/openwatcom-1.9/bld/plusplus/cpplib/iostream/cpp/flfseeko.cpp
                _TEXT                 CODE           0001:00005807  ! 000002dc
                CONST                 DATA           0002:00000441  ! 00000000
                CONST2                DATA           0002:000012d0  ! 0000000c
                _DATA                 DATA           0002:00004839  ! 00000000
                _BSS                  BSS            0002:00005d35  ! 00000000
/mnt/sda5/.user/root/src/openwatcom-1.9/bld/plusplus/cpplib/iostream/cpp/flfsetbf.cpp
                _TEXT                 CODE           0001:00005ae3  ! 00000190
                CONST                 DATA           0002:00000441  ! 00000000
                CONST2                DATA           0002:000012e0  ! 0000000c
                _DATA                 DATA           0002:00004839  ! 00000000
                _BSS                  BSS            0002:00005d35  ! 00000000
/mnt/sda5/.user/root/src/openwatcom-1.9/bld/plusplus/cpplib/iostream/cpp/flfsync.cpp
                _TEXT                 CODE           0001:00005c73  ! 00000384
                CONST                 DATA           0002:00000441  ! 00000000
                CONST2                DATA           0002:000012f0  ! 0000000c
                _DATA                 DATA           0002:00004839  ! 00000000
                _BSS                  BSS            0002:00005d35  ! 00000000
/mnt/sda5/.user/root/src/openwatcom-1.9/bld/plusplus/cpplib/iostream/cpp/flfundrf.cpp
                _TEXT                 CODE           0001:00005ff7  ! 000009fd
                CONST                 DATA           0002:00000441  ! 00000000
                CONST2                DATA           0002:00001300  ! 00000014
                _DATA                 DATA           0002:00004839  ! 00000000
                _BSS                  BSS            0002:00005d35  ! 00000000
/mnt/sda5/.user/root/src/openwatcom-1.9/bld/plusplus/cpplib/iostream/cpp/fsbattac.cpp
                _TEXT                 CODE           0001:000069f4  ! 0000019e
                CONST                 DATA           0002:00000441  ! 00000000
                CONST2                DATA           0002:00001320  ! 00000014
                _DATA                 DATA           0002:00004839  ! 00000000
                _BSS                  BSS            0002:00005d35  ! 00000000
/mnt/sda5/.user/root/src/openwatcom-1.9/bld/plusplus/cpplib/iostream/cpp/fsbclose.cpp
                _TEXT                 CODE           0001:00006b92  ! 0000017b
                CONST                 DATA           0002:00000441  ! 00000000
                CONST2                DATA           0002:00001340  ! 00000014
                _DATA                 DATA           0002:00004839  ! 00000000
                _BSS                  BSS            0002:00005d35  ! 00000000
/mnt/sda5/.user/root/src/openwatcom-1.9/bld/plusplus/cpplib/iostream/cpp/fsbconde.cpp
                _TEXT                 CODE           0001:00006d0d  ! 00000122
                CONST                 DATA           0002:00000441  ! 00000000
                CONST2                DATA           0002:00001360  ! 00000034
                _DATA                 DATA           0002:00004839  ! 00000000
                _BSS                  BSS            0002:00005d35  ! 00000000
                CONST2                DATA           0002:000013a0 c! 00000008
                CONST2                DATA           0002:000013b0 c! 00000008
                CONST2                DATA           0002:000013c0 c! 00000008
                _DATA                 DATA           0002:00004839 c! 00000010
                _TEXT                 CODE           0001:00006e2f c! 00000033
                _TEXT                 CODE           0001:00006e62 c! 00000034
                CONST2                DATA           0002:000013d0 c! 00000024
                _DATA                 DATA           0002:00004849 c! 00000018
/mnt/sda5/.user/root/src/openwatcom-1.9/bld/plusplus/cpplib/iostream/cpp/fsbconfd.cpp
                _TEXT                 CODE           0001:00006e96  ! 00000152
                CONST                 DATA           0002:00000441  ! 00000000
                CONST2                DATA           0002:00001400  ! 00000034
                _DATA                 DATA           0002:00004861  ! 00000000
                _BSS                  BSS            0002:00005d35  ! 00000000
/mnt/sda5/.user/root/src/openwatcom-1.9/bld/plusplus/cpplib/iostream/cpp/fsbconnm.cpp
                _TEXT                 CODE           0001:00006fe8  ! 0000015b
                CONST                 DATA           0002:00000441  ! 00000000
                CONST2                DATA           0002:00001440  ! 00000034
                _DATA                 DATA           0002:00004861  ! 00000000
                _BSS                  BSS            0002:00005d35  ! 00000000
/mnt/sda5/.user/root/src/openwatcom-1.9/bld/plusplus/cpplib/iostream/cpp/fsbconsf.cpp
                _TEXT                 CODE           0001:00007143  ! 00000163
                CONST                 DATA           0002:00000441  ! 00000000
                CONST2                DATA           0002:00001480  ! 00000034
                _DATA                 DATA           0002:00004861  ! 00000000
                _BSS                  BSS            0002:00005d35  ! 00000000
/mnt/sda5/.user/root/src/openwatcom-1.9/bld/plusplus/cpplib/iostream/cpp/fsbdestr.cpp
                _TEXT                 CODE           0001:000072a6  ! 00000178
                CONST                 DATA           0002:00000441  ! 00000000
                CONST2                DATA           0002:000014c0  ! 00000050
                _DATA                 DATA           0002:00004861  ! 00000000
                _BSS                  BSS            0002:00005d35  ! 00000000
                CONST2                DATA           0002:00001510 c! 00000018
                _TEXT                 CODE           0001:0000741e c! 00000034
/mnt/sda5/.user/root/src/openwatcom-1.9/bld/plusplus/cpplib/iostream/cpp/fsbopen.cpp
                _TEXT                 CODE           0001:00007452  ! 000001a6
                CONST                 DATA           0002:00000441  ! 00000000
                CONST2                DATA           0002:00001530  ! 00000014
                _DATA                 DATA           0002:00004861  ! 00000000
                _BSS                  BSS            0002:00005d35  ! 00000000
/mnt/sda5/.user/root/src/openwatcom-1.9/bld/plusplus/cpplib/iostream/cpp/fsbsetbf.cpp
                _TEXT                 CODE           0001:000075f8  ! 0000018a
                CONST                 DATA           0002:00000441  ! 00000000
                CONST2                DATA           0002:00001550  ! 00000014
                _DATA                 DATA           0002:00004861  ! 00000000
                _BSS                  BSS            0002:00005d35  ! 00000000
/mnt/sda5/.user/root/src/openwatcom-1.9/bld/plusplus/cpplib/iostream/cpp/fstconde.cpp
                _TEXT                 CODE           0001:00007782  ! 00000159
                CONST                 DATA           0002:00000441  ! 00000000
                CONST2                DATA           0002:00001570  ! 0000004c
                _DATA                 DATA           0002:00004861  ! 00000000
                _BSS                  BSS            0002:00005d35  ! 00000000
                _TEXT                 CODE           0001:000078db c! 0000002e
                _TEXT                 CODE           0001:00007909 c! 0000002e
                CONST2                DATA           0002:000015c0 c! 00000008
                CONST2                DATA           0002:000015d0 c! 00000008
                CONST2                DATA           0002:000015e0 c! 00000008
                CONST2                DATA           0002:000015f0 c! 00000008
                CONST2                DATA           0002:00001600 c! 00000008
                CONST2                DATA           0002:00001610 c! 00000008
                CONST2                DATA           0002:00001620 c! 00000008
                _DATA                 DATA           0002:00004861 c! 00000014
                _DATA                 DATA           0002:00004875 c! 00000014
                _DATA                 DATA           0002:00004889 c! 00000015
                _TEXT                 CODE           0001:00007937 c! 00000033
                _TEXT                 CODE           0001:0000796a c! 00000034
                CONST2                DATA           0002:00001630 c! 00000064
                _DATA                 DATA           0002:0000489e c! 00000014
/mnt/sda5/.user/root/src/openwatcom-1.9/bld/plusplus/cpplib/iostream/cpp/fstconfd.cpp
                _TEXT                 CODE           0001:0000799e  ! 0000015d
                CONST                 DATA           0002:00000441  ! 00000000
                CONST2                DATA           0002:000016a0  ! 0000004c
                _DATA                 DATA           0002:000048b2  ! 00000000
                _BSS                  BSS            0002:00005d35  ! 00000000
/mnt/sda5/.user/root/src/openwatcom-1.9/bld/plusplus/cpplib/iostream/cpp/fstconnm.cpp
                _TEXT                 CODE           0001:00007afb  ! 00000187
                CONST                 DATA           0002:00000441  ! 00000000
                CONST2                DATA           0002:000016f0  ! 0000004c
                _DATA                 DATA           0002:000048b2  ! 00000000
                _BSS                  BSS            0002:00005d35  ! 00000000
/mnt/sda5/.user/root/src/openwatcom-1.9/bld/plusplus/cpplib/iostream/cpp/fstconsf.cpp
                _TEXT                 CODE           0001:00007c82  ! 00000167
                CONST                 DATA           0002:00000441  ! 00000000
                CONST2                DATA           0002:00001740  ! 0000004c
                _DATA                 DATA           0002:000048b2  ! 00000000
                _BSS                  BSS            0002:00005d35  ! 00000000
/mnt/sda5/.user/root/src/openwatcom-1.9/bld/plusplus/cpplib/iostream/cpp/fstdestr.cpp
                _TEXT                 CODE           0001:00007de9  ! 000001b4
                CONST                 DATA           0002:00000441  ! 00000000
                CONST2                DATA           0002:00001790  ! 00000068
                _DATA                 DATA           0002:000048b2  ! 00000000
                _BSS                  BSS            0002:00005d35  ! 00000000
                CONST2                DATA           0002:00001800 c! 00000018
                _TEXT                 CODE           0001:00007f9d c! 00000034
/mnt/sda5/.user/root/src/openwatcom-1.9/bld/plusplus/cpplib/iostream/cpp/ifsconde.cpp
                _TEXT                 CODE           0001:00007fd1  ! 00000145
                CONST                 DATA           0002:00000441  ! 00000000
                CONST2                DATA           0002:00001820  ! 0000004c
                _DATA                 DATA           0002:000048b2  ! 00000000
                _BSS                  BSS            0002:00005d35  ! 00000000
                _TEXT                 CODE           0001:00008116 c! 0000002e
                CONST2                DATA           0002:00001870 c! 00000008
                CONST2                DATA           0002:00001880 c! 00000008
                CONST2                DATA           0002:00001890 c! 00000008
                CONST2                DATA           0002:000018a0 c! 00000008
                CONST2                DATA           0002:000018b0 c! 00000008
                _TEXT                 CODE           0001:00008144 c! 00000033
                _TEXT                 CODE           0001:00008177 c! 00000034
                CONST2                DATA           0002:000018c0 c! 00000044
                _DATA                 DATA           0002:000048b2 c! 00000015
/mnt/sda5/.user/root/src/openwatcom-1.9/bld/plusplus/cpplib/iostream/cpp/ifsconfd.cpp
                _TEXT                 CODE           0001:000081ab  ! 00000149
                CONST                 DATA           0002:00000441  ! 00000000
                CONST2                DATA           0002:00001910  ! 0000004c
                _DATA                 DATA           0002:000048c7  ! 00000000
                _BSS                  BSS            0002:00005d35  ! 00000000
/mnt/sda5/.user/root/src/openwatcom-1.9/bld/plusplus/cpplib/iostream/cpp/ifsconnm.cpp
                _TEXT                 CODE           0001:000082f4  ! 00000156
                CONST                 DATA           0002:00000441  ! 00000000
                CONST2                DATA           0002:00001960  ! 0000004c
                _DATA                 DATA           0002:000048c7  ! 00000000
                _BSS                  BSS            0002:00005d35  ! 00000000
/mnt/sda5/.user/root/src/openwatcom-1.9/bld/plusplus/cpplib/iostream/cpp/ifsconsf.cpp
                _TEXT                 CODE           0001:0000844a  ! 00000153
                CONST                 DATA           0002:00000441  ! 00000000
                CONST2                DATA           0002:000019b0  ! 0000004c
                _DATA                 DATA           0002:000048c7  ! 00000000
                _BSS                  BSS            0002:00005d35  ! 00000000
/mnt/sda5/.user/root/src/openwatcom-1.9/bld/plusplus/cpplib/iostream/cpp/ifsdestr.cpp
                _TEXT                 CODE           0001:0000859d  ! 000001aa
                CONST                 DATA           0002:00000441  ! 00000000
                CONST2                DATA           0002:00001a00  ! 00000068
                _DATA                 DATA           0002:000048c7  ! 00000000
                _BSS                  BSS            0002:00005d35  ! 00000000
                CONST2                DATA           0002:00001a70 c! 00000018
                _TEXT                 CODE           0001:00008747 c! 00000034
/mnt/sda5/.user/root/src/openwatcom-1.9/bld/plusplus/cpplib/iostream/cpp/iofexdou.cpp
                _TEXT                 CODE           0001:0000877b  ! 000001c9
                CONST                 DATA           0002:00000441  ! 00000000
                CONST2                DATA           0002:00001a90  ! 0000000c
                _DATA                 DATA           0002:000048c7  ! 00000000
                _BSS                  BSS            0002:00005d35  ! 00000000
/mnt/sda5/.user/root/src/openwatcom-1.9/bld/plusplus/cpplib/iostream/cpp/iofexflo.cpp
                _TEXT                 CODE           0001:00008944  ! 0000015a
                CONST                 DATA           0002:00000441  ! 00000000
                CONST2                DATA           0002:00001aa0  ! 0000000c
                _DATA                 DATA           0002:000048c7  ! 00000000
                _BSS                  BSS            0002:00005d35  ! 00000000
/mnt/sda5/.user/root/src/openwatcom-1.9/bld/plusplus/cpplib/iostream/cpp/iofexldo.cpp
                _TEXT                 CODE           0001:00008a9e  ! 000001c9
                CONST                 DATA           0002:00000441  ! 00000000
                CONST2                DATA           0002:00001ab0  ! 0000000c
                _DATA                 DATA           0002:000048c7  ! 00000000
                _BSS                  BSS            0002:00005d35  ! 00000000
/mnt/sda5/.user/root/src/openwatcom-1.9/bld/plusplus/cpplib/iostream/cpp/iofnoefg.cpp
                _TEXT                 CODE           0001:00008c67  ! 0000002e
                CONST                 DATA           0002:00000441  ! 00000026
                CONST2                DATA           0002:00001ac0  ! 00000000
                _DATA                 DATA           0002:000048c8  ! 00000014
                _BSS                  BSS            0002:00005d35  ! 00000000
/mnt/sda5/.user/root/src/openwatcom-1.9/bld/plusplus/cpplib/iostream/cpp/iofoutfl.cpp
                _TEXT                 CODE           0001:00008c95  ! 00000717
                CONST                 DATA           0002:00000467  ! 00000000
                CONST2                DATA           0002:00001ac0  ! 00000024
                _DATA                 DATA           0002:000048dc  ! 00000000
                _BSS                  BSS            0002:00005d35  ! 00000000
/mnt/sda5/.user/root/src/openwatcom-1.9/bld/plusplus/cpplib/iostream/cpp/ioicerr.cpp
                _TEXT                 CODE           0001:000093ac  ! 00000168
                CONST                 DATA           0002:00000467  ! 00000000
                CONST2                DATA           0002:00001af0  ! 00000024
                _DATA                 DATA           0002:000048dc  ! 00000030
                _BSS                  BSS            0002:00005d40  ! 00000071
                XIB                   DATA           0002:00005ca4  ! 00000000
                XI                    DATA           0002:00005cb0  ! 00000006
                XIE                   DATA           0002:00005cf8  ! 00000000
                CONST2                DATA           0002:00001b20 c! 00000018
                CONST2                DATA           0002:00001b40 c! 00000018
                _DATA                 DATA           0002:0000490c c! 00000015
                _DATA                 DATA           0002:00004921 c! 00000010
                _TEXT                 CODE           0001:00009514 c! 00000034
                _TEXT                 CODE           0001:00009548 c! 00000034
                CONST2                DATA           0002:00001b60 c! 00000018
/mnt/sda5/.user/root/src/openwatcom-1.9/bld/plusplus/cpplib/iostream/cpp/ioicin.cpp
                _TEXT                 CODE           0001:0000957c  ! 00000122
                CONST                 DATA           0002:00000467  ! 00000000
                CONST2                DATA           0002:00001b80  ! 00000018
                _DATA                 DATA           0002:00004931  ! 00000020
                _BSS                  BSS            0002:00005dc0  ! 00000075
                XIB                   DATA           0002:00005ca4  ! 00000000
                XI                    DATA           0002:00005cb6  ! 00000006
                XIE                   DATA           0002:00005cf8  ! 00000000
                CONST2                DATA           0002:00001ba0 c! 00000018
/mnt/sda5/.user/root/src/openwatcom-1.9/bld/plusplus/cpplib/iostream/cpp/ioiclog.cpp
                _TEXT                 CODE           0001:0000969e  ! 00000121
                CONST                 DATA           0002:00000467  ! 00000000
                CONST2                DATA           0002:00001bc0  ! 00000024
                _DATA                 DATA           0002:00004951  ! 00000030
                _BSS                  BSS            0002:00005e40  ! 00000071
                XIB                   DATA           0002:00005ca4  ! 00000000
                XI                    DATA           0002:00005cbc  ! 00000006
                XIE                   DATA           0002:00005cf8  ! 00000000
                _DATA                 DATA           0002:00004981 c! 00000015
                CONST2                DATA           0002:00001bf0 c! 00000018
/mnt/sda5/.user/root/src/openwatcom-1.9/bld/plusplus/cpplib/iostream/cpp/ioicout.cpp
                _TEXT                 CODE           0001:000097bf  ! 00000121
                CONST                 DATA           0002:00000467  ! 00000000
                CONST2                DATA           0002:00001c10  ! 00000024
                _DATA                 DATA           0002:00004996  ! 00000030
                _BSS                  BSS            0002:00005ec0  ! 00000071
                XIB                   DATA           0002:00005ca4  ! 00000000
                XI                    DATA           0002:00005cc2  ! 00000006
                XIE                   DATA           0002:00005cf8  ! 00000000
                _DATA                 DATA           0002:000049c6 c! 00000015
                CONST2                DATA           0002:00001c40 c! 00000018
/mnt/sda5/.user/root/src/openwatcom-1.9/bld/plusplus/cpplib/iostream/cpp/ioilfofg.cpp
                _TEXT                 CODE           0001:000098e0  ! 00000000
                CONST                 DATA           0002:00000467  ! 00000000
                CONST2                DATA           0002:00001c60  ! 00000000
                _DATA                 DATA           0002:000049dc  ! 00000004
                _BSS                  BSS            0002:00005f31  ! 00000000
/mnt/sda5/.user/root/src/openwatcom-1.9/bld/plusplus/cpplib/iostream/cpp/ioilock.cpp
                _TEXT                 CODE           0001:000098e0  ! 00000036
                CONST                 DATA           0002:00000467  ! 00000000
                CONST2                DATA           0002:00001c60  ! 0000000c
                _DATA                 DATA           0002:000049e0  ! 00000014
                _BSS                  BSS            0002:00005f40  ! 00000010
                XIB                   DATA           0002:00005ca4  ! 00000000
                XI                    DATA           0002:00005cc8  ! 00000006
                XIE                   DATA           0002:00005cf8  ! 00000000
/mnt/sda5/.user/root/src/openwatcom-1.9/bld/plusplus/cpplib/iostream/cpp/ioixainx.cpp
                _TEXT                 CODE           0001:00009916  ! 00000000
                CONST                 DATA           0002:00000467  ! 00000000
                CONST2                DATA           0002:00001c70  ! 00000000
                _DATA                 DATA           0002:000049f4  ! 00000000
                _BSS                  BSS            0002:00005f50  ! 00000004
/mnt/sda5/.user/root/src/openwatcom-1.9/bld/plusplus/cpplib/iostream/cpp/iolglcon.cpp
                _TEXT                 CODE           0001:00009916  ! 00000046
                CONST                 DATA           0002:00000467  ! 00000000
                CONST2                DATA           0002:00001c70  ! 00000000
                _DATA                 DATA           0002:000049f4  ! 00000000
                _BSS                  BSS            0002:00005f54  ! 00000000
/mnt/sda5/.user/root/src/openwatcom-1.9/bld/plusplus/cpplib/iostream/cpp/iolgldes.cpp
                _TEXT                 CODE           0001:0000995c  ! 0000003e
                CONST                 DATA           0002:00000467  ! 00000000
                CONST2                DATA           0002:00001c70  ! 00000000
                _DATA                 DATA           0002:000049f4  ! 00000000
                _BSS                  BSS            0002:00005f54  ! 00000000
/mnt/sda5/.user/root/src/openwatcom-1.9/bld/plusplus/cpplib/iostream/cpp/iosbital.cpp
                _TEXT                 CODE           0001:0000999a  ! 00000076
                CONST                 DATA           0002:00000467  ! 00000000
                CONST2                DATA           0002:00001c70  ! 00000000
                _DATA                 DATA           0002:000049f4  ! 00000000
                _BSS                  BSS            0002:00005f54  ! 00000000
/mnt/sda5/.user/root/src/openwatcom-1.9/bld/plusplus/cpplib/iostream/cpp/iosclear.cpp
                _TEXT                 CODE           0001:00009a10  ! 000000f0
                CONST                 DATA           0002:00000467  ! 00000000
                CONST2                DATA           0002:00001c70  ! 0000000c
                _DATA                 DATA           0002:000049f4  ! 00000000
                _BSS                  BSS            0002:00005f54  ! 00000000
/mnt/sda5/.user/root/src/openwatcom-1.9/bld/plusplus/cpplib/iostream/cpp/ioscoeio.cpp
                _TEXT                 CODE           0001:00009b00  ! 00000262
                CONST                 DATA           0002:00000467  ! 00000000
                CONST2                DATA           0002:00001c80  ! 0000001c
                _DATA                 DATA           0002:000049f4  ! 00000000
                _BSS                  BSS            0002:00005f54  ! 00000000
/mnt/sda5/.user/root/src/openwatcom-1.9/bld/plusplus/cpplib/iostream/cpp/ioscoios.cpp
                _TEXT                 CODE           0001:00009d62  ! 00000125
                CONST                 DATA           0002:00000467  ! 00000000
                CONST2                DATA           0002:00001ca0  ! 0000000c
                _DATA                 DATA           0002:000049f4  ! 00000000
                _BSS                  BSS            0002:00005f54  ! 00000000
                CONST2                DATA           0002:00001cb0 c! 00000008
                CONST2                DATA           0002:00001cc0 c! 00000010
/mnt/sda5/.user/root/src/openwatcom-1.9/bld/plusplus/cpplib/iostream/cpp/iosconde.cpp
                _TEXT                 CODE           0001:00009e87  ! 00000035
                CONST                 DATA           0002:00000467  ! 00000000
                CONST2                DATA           0002:00001cd0  ! 00000000
                _DATA                 DATA           0002:000049f4  ! 00000000
                _BSS                  BSS            0002:00005f54  ! 00000000
/mnt/sda5/.user/root/src/openwatcom-1.9/bld/plusplus/cpplib/iostream/cpp/ioscostf.cpp
                _TEXT                 CODE           0001:00009ebc  ! 00000041
                CONST                 DATA           0002:00000467  ! 00000000
                CONST2                DATA           0002:00001cd0  ! 00000000
                _DATA                 DATA           0002:000049f4  ! 00000000
                _BSS                  BSS            0002:00005f54  ! 00000000
/mnt/sda5/.user/root/src/openwatcom-1.9/bld/plusplus/cpplib/iostream/cpp/iosdestr.cpp
                _TEXT                 CODE           0001:00009efd  ! 000000c8
                CONST                 DATA           0002:00000467  ! 00000000
                CONST2                DATA           0002:00001cd0  ! 00000018
                _DATA                 DATA           0002:000049f4  ! 00000000
                _BSS                  BSS            0002:00005f54  ! 00000000
                CONST2                DATA           0002:00001cf0 c! 00000018
/mnt/sda5/.user/root/src/openwatcom-1.9/bld/plusplus/cpplib/iostream/cpp/iosexcep.cpp
                _TEXT                 CODE           0001:00009fc5  ! 000000ee
                CONST                 DATA           0002:00000467  ! 00000000
                CONST2                DATA           0002:00001d10  ! 0000000c
                _DATA                 DATA           0002:000049f4  ! 00000000
                _BSS                  BSS            0002:00005f54  ! 00000000
/mnt/sda5/.user/root/src/openwatcom-1.9/bld/plusplus/cpplib/iostream/cpp/iosinit.cpp
                _TEXT                 CODE           0001:0000a0b3  ! 00000095
                CONST                 DATA           0002:00000467  ! 00000000
                CONST2                DATA           0002:00001d20  ! 00000000
                _DATA                 DATA           0002:000049f4  ! 00000000
                _BSS                  BSS            0002:00005f54  ! 00000000
/mnt/sda5/.user/root/src/openwatcom-1.9/bld/plusplus/cpplib/iostream/cpp/iosiword.cpp
                _TEXT                 CODE           0001:0000a148  ! 000000f4
                CONST                 DATA           0002:00000467  ! 00000000
                CONST2                DATA           0002:00001d20  ! 0000000c
                _DATA                 DATA           0002:000049f4  ! 00000000
                _BSS                  BSS            0002:00005f54  ! 00000000
/mnt/sda5/.user/root/src/openwatcom-1.9/bld/plusplus/cpplib/iostream/cpp/iospword.cpp
                _TEXT                 CODE           0001:0000a23c  ! 000000f4
                CONST                 DATA           0002:00000467  ! 00000000
                CONST2                DATA           0002:00001d30  ! 0000000c
                _DATA                 DATA           0002:000049f4  ! 00000000
                _BSS                  BSS            0002:00005f54  ! 00000000
/mnt/sda5/.user/root/src/openwatcom-1.9/bld/plusplus/cpplib/iostream/cpp/iossetst.cpp
                _TEXT                 CODE           0001:0000a330  ! 000000d6
                CONST                 DATA           0002:00000467  ! 00000000
                CONST2                DATA           0002:00001d40  ! 0000000c
                _DATA                 DATA           0002:000049f4  ! 00000000
                _BSS                  BSS            0002:00005f54  ! 00000000
                _TEXT                 CODE           0001:0000a406 c! 0000004e
                _TEXT                 CODE           0001:0000a454 c! 0000002c
                _TEXT                 CODE           0001:0000a480 c! 0000002c
                CONST2                DATA           0002:00001d50 c! 0000001c
                CONST2                DATA           0002:00001d70 c! 00000018
                _DATA                 DATA           0002:000049f4 c! 0000001a
                _DATA                 DATA           0002:00004a0e c! 00000019
                _TEXT                 CODE           0001:0000a4ac c! 0000002c
                CONST2                DATA           0002:00001d90 c! 00000018
/mnt/sda5/.user/root/src/openwatcom-1.9/bld/plusplus/cpplib/iostream/cpp/iosxallo.cpp
                _TEXT                 CODE           0001:0000a4d8  ! 00000057
                CONST                 DATA           0002:00000467  ! 00000000
                CONST2                DATA           0002:00001db0  ! 00000000
                _DATA                 DATA           0002:00004a27  ! 00000000
                _BSS                  BSS            0002:00005f54  ! 00000000
/mnt/sda5/.user/root/src/openwatcom-1.9/bld/plusplus/cpplib/iostream/cpp/iotconbf.cpp
                _TEXT                 CODE           0001:0000a52f  ! 000001ba
                CONST                 DATA           0002:00000467  ! 00000000
                CONST2                DATA           0002:00001db0  ! 0000004c
                _DATA                 DATA           0002:00004a27  ! 00000000
                _BSS                  BSS            0002:00005f54  ! 00000000
                _TEXT                 CODE           0001:0000a6e9 c! 0000002e
                CONST2                DATA           0002:00001e00 c! 00000008
                CONST2                DATA           0002:00001e10 c! 00000008
                CONST2                DATA           0002:00001e20 c! 00000008
                CONST2                DATA           0002:00001e30 c! 00000008
                CONST2                DATA           0002:00001e40 c! 00000008
                _TEXT                 CODE           0001:0000a717 c! 00000033
                CONST2                DATA           0002:00001e50 c! 00000044
/mnt/sda5/.user/root/src/openwatcom-1.9/bld/plusplus/cpplib/iostream/cpp/iotconde.cpp
                _TEXT                 CODE           0001:0000a74a  ! 0000019e
                CONST                 DATA           0002:00000467  ! 00000000
                CONST2                DATA           0002:00001ea0  ! 0000004c
                _DATA                 DATA           0002:00004a27  ! 00000000
                _BSS                  BSS            0002:00005f54  ! 00000000
/mnt/sda5/.user/root/src/openwatcom-1.9/bld/plusplus/cpplib/iostream/cpp/iotconsm.cpp
                _TEXT                 CODE           0001:0000a8e8  ! 000001c1
                CONST                 DATA           0002:00000467  ! 00000000
                CONST2                DATA           0002:00001ef0  ! 00000054
                _DATA                 DATA           0002:00004a27  ! 00000000
                _BSS                  BSS            0002:00005f54  ! 00000000
/mnt/sda5/.user/root/src/openwatcom-1.9/bld/plusplus/cpplib/iostream/cpp/iotdestr.cpp
                _TEXT                 CODE           0001:0000aaa9  ! 000001aa
                CONST                 DATA           0002:00000467  ! 00000000
                CONST2                DATA           0002:00001f50  ! 00000068
                _DATA                 DATA           0002:00004a27  ! 00000000
                _BSS                  BSS            0002:00005f54  ! 00000000
                CONST2                DATA           0002:00001fc0 c! 00000018
/mnt/sda5/.user/root/src/openwatcom-1.9/bld/plusplus/cpplib/iostream/cpp/iotopbuf.cpp
                _TEXT                 CODE           0001:0000ac53  ! 000000fd
                CONST                 DATA           0002:00000467  ! 00000000
                CONST2                DATA           0002:00001fe0  ! 0000000c
                _DATA                 DATA           0002:00004a27  ! 00000000
                _BSS                  BSS            0002:00005f54  ! 00000000
/mnt/sda5/.user/root/src/openwatcom-1.9/bld/plusplus/cpplib/iostream/cpp/iotopstm.cpp
                _TEXT                 CODE           0001:0000ad50  ! 00000154
                CONST                 DATA           0002:00000467  ! 00000000
                CONST2                DATA           0002:00001ff0  ! 00000014
                _DATA                 DATA           0002:00004a27  ! 00000000
                _BSS                  BSS            0002:00005f54  ! 00000000
/mnt/sda5/.user/root/src/openwatcom-1.9/bld/plusplus/cpplib/iostream/cpp/ioufrxal.cpp
                _TEXT                 CODE           0001:0000aea4  ! 00000049
                CONST                 DATA           0002:00000467  ! 00000000
                CONST2                DATA           0002:00002010  ! 00000000
                _DATA                 DATA           0002:00004a27  ! 00000000
                _BSS                  BSS            0002:00005f54  ! 00000000
/mnt/sda5/.user/root/src/openwatcom-1.9/bld/plusplus/cpplib/iostream/cpp/ioufuswr.cpp
                _TEXT                 CODE           0001:0000aeed  ! 0000012a
                CONST                 DATA           0002:00000467  ! 00000000
                CONST2                DATA           0002:00002010  ! 00000000
                _DATA                 DATA           0002:00004a27  ! 00000000
                _BSS                  BSS            0002:00005f54  ! 00000000
/mnt/sda5/.user/root/src/openwatcom-1.9/bld/plusplus/cpplib/iostream/cpp/iouwrtit.cpp
                _TEXT                 CODE           0001:0000b017  ! 00000f81
                CONST                 DATA           0002:00000467  ! 00000000
                CONST2                DATA           0002:00002010  ! 0000007c
                _DATA                 DATA           0002:00004a27  ! 00000000
                _BSS                  BSS            0002:00005f54  ! 00000000
                CONST2                DATA           0002:00002090 c! 00000008
/mnt/sda5/.user/root/src/openwatcom-1.9/bld/plusplus/cpplib/iostream/cpp/isscochz.cpp
                _TEXT                 CODE           0001:0000bf98  ! 0000014f
                CONST                 DATA           0002:00000467  ! 00000000
                CONST2                DATA           0002:000020a0  ! 0000004c
                _DATA                 DATA           0002:00004a27  ! 00000000
                _BSS                  BSS            0002:00005f54  ! 00000000
                _TEXT                 CODE           0001:0000c0e7 c! 0000002e
                CONST2                DATA           0002:000020f0 c! 00000008
                CONST2                DATA           0002:00002100 c! 00000008
                CONST2                DATA           0002:00002110 c! 00000008
                CONST2                DATA           0002:00002120 c! 00000008
                CONST2                DATA           0002:00002130 c! 00000008
                _DATA                 DATA           0002:00004a27 c! 0000001a
                _TEXT                 CODE           0001:0000c115 c! 00000033
                _TEXT                 CODE           0001:0000c148 c! 00000034
                CONST2                DATA           0002:00002140 c! 00000044
                _DATA                 DATA           0002:00004a41 c! 00000017
/mnt/sda5/.user/root/src/openwatcom-1.9/bld/plusplus/cpplib/iostream/cpp/issconch.cpp
                _TEXT                 CODE           0001:0000c17c  ! 0000014d
                CONST                 DATA           0002:00000467  ! 00000000
                CONST2                DATA           0002:00002190  ! 0000004c
                _DATA                 DATA           0002:00004a58  ! 00000000
                _BSS                  BSS            0002:00005f54  ! 00000000
/mnt/sda5/.user/root/src/openwatcom-1.9/bld/plusplus/cpplib/iostream/cpp/issconsc.cpp
                _TEXT                 CODE           0001:0000c2c9  ! 0000014d
                CONST                 DATA           0002:00000467  ! 00000000
                CONST2                DATA           0002:000021e0  ! 0000004c
                _DATA                 DATA           0002:00004a58  ! 00000000
                _BSS                  BSS            0002:00005f54  ! 00000000
/mnt/sda5/.user/root/src/openwatcom-1.9/bld/plusplus/cpplib/iostream/cpp/issconuc.cpp
                _TEXT                 CODE           0001:0000c416  ! 0000014d
                CONST                 DATA           0002:00000467  ! 00000000
                CONST2                DATA           0002:00002230  ! 0000004c
                _DATA                 DATA           0002:00004a58  ! 00000000
                _BSS                  BSS            0002:00005f54  ! 00000000
/mnt/sda5/.user/root/src/openwatcom-1.9/bld/plusplus/cpplib/iostream/cpp/isscoscz.cpp
                _TEXT                 CODE           0001:0000c563  ! 0000014f
                CONST                 DATA           0002:00000467  ! 00000000
                CONST2                DATA           0002:00002280  ! 0000004c
                _DATA                 DATA           0002:00004a58  ! 00000000
                _BSS                  BSS            0002:00005f54  ! 00000000
/mnt/sda5/.user/root/src/openwatcom-1.9/bld/plusplus/cpplib/iostream/cpp/isscoucz.cpp
                _TEXT                 CODE           0001:0000c6b2  ! 0000014f
                CONST                 DATA           0002:00000467  ! 00000000
                CONST2                DATA           0002:000022d0  ! 0000004c
                _DATA                 DATA           0002:00004a58  ! 00000000
                _BSS                  BSS            0002:00005f54  ! 00000000
/mnt/sda5/.user/root/src/openwatcom-1.9/bld/plusplus/cpplib/iostream/cpp/issdestr.cpp
                _TEXT                 CODE           0001:0000c801  ! 000001aa
                CONST                 DATA           0002:00000467  ! 00000000
                CONST2                DATA           0002:00002320  ! 00000068
                _DATA                 DATA           0002:00004a58  ! 00000000
                _BSS                  BSS            0002:00005f54  ! 00000000
                CONST2                DATA           0002:00002390 c! 00000018
                _TEXT                 CODE           0001:0000c9ab c! 00000034
/mnt/sda5/.user/root/src/openwatcom-1.9/bld/plusplus/cpplib/iostream/cpp/istcoeis.cpp
                _TEXT                 CODE           0001:0000c9df  ! 000001a4
                CONST                 DATA           0002:00000467  ! 00000000
                CONST2                DATA           0002:000023b0  ! 00000014
                _DATA                 DATA           0002:00004a58  ! 00000000
                _BSS                  BSS            0002:00005f54  ! 00000000
/mnt/sda5/.user/root/src/openwatcom-1.9/bld/plusplus/cpplib/iostream/cpp/istcoesf.cpp
                _TEXT                 CODE           0001:0000cb83  ! 000000fd
                CONST                 DATA           0002:00000467  ! 00000000
                CONST2                DATA           0002:000023d0  ! 0000000c
                _DATA                 DATA           0002:00004a58  ! 00000000
                _BSS                  BSS            0002:00005f54  ! 00000000
/mnt/sda5/.user/root/src/openwatcom-1.9/bld/plusplus/cpplib/iostream/cpp/istcoist.cpp
                _TEXT                 CODE           0001:0000cc80  ! 000001ed
                CONST                 DATA           0002:00000467  ! 00000000
                CONST2                DATA           0002:000023e0  ! 00000024
                _DATA                 DATA           0002:00004a58  ! 00000000
                _BSS                  BSS            0002:00005f54  ! 00000000
                CONST2                DATA           0002:00002410 c! 00000008
                CONST2                DATA           0002:00002420 c! 00000008
                CONST2                DATA           0002:00002430 c! 00000008
                _TEXT                 CODE           0001:0000ce6d c! 00000033
                CONST2                DATA           0002:00002440 c! 00000024
/mnt/sda5/.user/root/src/openwatcom-1.9/bld/plusplus/cpplib/iostream/cpp/istconde.cpp
                _TEXT                 CODE           0001:0000cea0  ! 0000013e
                CONST                 DATA           0002:00000467  ! 00000000
                CONST2                DATA           0002:00002470  ! 0000001c
                _DATA                 DATA           0002:00004a58  ! 00000000
                _BSS                  BSS            0002:00005f54  ! 00000000
/mnt/sda5/.user/root/src/openwatcom-1.9/bld/plusplus/cpplib/iostream/cpp/istconsf.cpp
                _TEXT                 CODE           0001:0000cfde  ! 0000015a
                CONST                 DATA           0002:00000467  ! 00000000
                CONST2                DATA           0002:00002490  ! 0000001c
                _DATA                 DATA           0002:00004a58  ! 00000000
                _BSS                  BSS            0002:00005f54  ! 00000000
/mnt/sda5/.user/root/src/openwatcom-1.9/bld/plusplus/cpplib/iostream/cpp/istdestr.cpp
                _TEXT                 CODE           0001:0000d138  ! 00000144
                CONST                 DATA           0002:00000467  ! 00000000
                CONST2                DATA           0002:000024b0  ! 00000038
                _DATA                 DATA           0002:00004a58  ! 00000000
                _BSS                  BSS            0002:00005f54  ! 00000000
/mnt/sda5/.user/root/src/openwatcom-1.9/bld/plusplus/cpplib/iostream/cpp/istdipfx.cpp
                _TEXT                 CODE           0001:0000d27c  ! 000002e8
                CONST                 DATA           0002:00000467  ! 00000000
                CONST2                DATA           0002:000024f0  ! 0000000c
                _DATA                 DATA           0002:00004a58  ! 00000000
                _BSS                  BSS            0002:00005f54  ! 00000000
/mnt/sda5/.user/root/src/openwatcom-1.9/bld/plusplus/cpplib/iostream/cpp/istdoget.cpp
                _TEXT                 CODE           0001:0000d564  ! 0000022e
                CONST                 DATA           0002:00000467  ! 00000000
                CONST2                DATA           0002:00002500  ! 00000014
                _DATA                 DATA           0002:00004a58  ! 00000000
                _BSS                  BSS            0002:00005f54  ! 00000000
/mnt/sda5/.user/root/src/openwatcom-1.9/bld/plusplus/cpplib/iostream/cpp/istdread.cpp
                _TEXT                 CODE           0001:0000d792  ! 00000347
                CONST                 DATA           0002:00000467  ! 00000000
                CONST2                DATA           0002:00002520  ! 00000014
                _DATA                 DATA           0002:00004a58  ! 00000000
                _BSS                  BSS            0002:00005f54  ! 00000000
/mnt/sda5/.user/root/src/openwatcom-1.9/bld/plusplus/cpplib/iostream/cpp/istdrshf.cpp
                _TEXT                 CODE           0001:0000dad9  ! 0000021a
                CONST                 DATA           0002:00000467  ! 00000000
                CONST2                DATA           0002:00002540  ! 00000014
                _DATA                 DATA           0002:00004a58  ! 00000000
                _BSS                  BSS            0002:00005f54  ! 00000000
/mnt/sda5/.user/root/src/openwatcom-1.9/bld/plusplus/cpplib/iostream/cpp/isteatwh.cpp
                _TEXT                 CODE           0001:0000dcf3  ! 000000cc
                CONST                 DATA           0002:00000467  ! 00000000
                CONST2                DATA           0002:00002560  ! 0000000c
                _DATA                 DATA           0002:00004a58  ! 00000000
                _BSS                  BSS            0002:00005f54  ! 00000000
/mnt/sda5/.user/root/src/openwatcom-1.9/bld/plusplus/cpplib/iostream/cpp/istexcha.cpp
                _TEXT                 CODE           0001:0000ddbf  ! 000004c8
                CONST                 DATA           0002:00000467  ! 00000000
                CONST2                DATA           0002:00002570  ! 00000024
                _DATA                 DATA           0002:00004a58  ! 00000000
                _BSS                  BSS            0002:00005f54  ! 00000000
/mnt/sda5/.user/root/src/openwatcom-1.9/bld/plusplus/cpplib/iostream/cpp/istexi64.cpp
                _TEXT                 CODE           0001:0000e287  ! 0000024e
                CONST                 DATA           0002:00000467  ! 00000000
                CONST2                DATA           0002:000025a0  ! 00000014
                _DATA                 DATA           0002:00004a58  ! 00000000
                _BSS                  BSS            0002:00005f54  ! 00000000
/mnt/sda5/.user/root/src/openwatcom-1.9/bld/plusplus/cpplib/iostream/cpp/isteximn.cpp
                _TEXT                 CODE           0001:0000e4d5  ! 0000002f
                CONST                 DATA           0002:00000467  ! 00000000
                CONST2                DATA           0002:000025c0  ! 00000000
                _DATA                 DATA           0002:00004a58  ! 00000000
                _BSS                  BSS            0002:00005f54  ! 00000000
/mnt/sda5/.user/root/src/openwatcom-1.9/bld/plusplus/cpplib/iostream/cpp/istexiom.cpp
                _TEXT                 CODE           0001:0000e504  ! 00000042
                CONST                 DATA           0002:00000467  ! 00000000
                CONST2                DATA           0002:000025c0  ! 00000000
                _DATA                 DATA           0002:00004a58  ! 00000000
                _BSS                  BSS            0002:00005f54  ! 00000000
/mnt/sda5/.user/root/src/openwatcom-1.9/bld/plusplus/cpplib/iostream/cpp/istexpch.cpp
                _TEXT                 CODE           0001:0000e546  ! 000005e8
                CONST                 DATA           0002:00000467  ! 00000000
                CONST2                DATA           0002:000025c0  ! 0000002c
                _DATA                 DATA           0002:00004a58  ! 00000000
                _BSS                  BSS            0002:00005f54  ! 00000000
/mnt/sda5/.user/root/src/openwatcom-1.9/bld/plusplus/cpplib/iostream/cpp/istexsin.cpp
                _TEXT                 CODE           0001:0000eb2e  ! 00000235
                CONST                 DATA           0002:00000467  ! 00000000
                CONST2                DATA           0002:000025f0  ! 00000014
                _DATA                 DATA           0002:00004a58  ! 00000000
                _BSS                  BSS            0002:00005f54  ! 00000000
/mnt/sda5/.user/root/src/openwatcom-1.9/bld/plusplus/cpplib/iostream/cpp/istexslo.cpp
                _TEXT                 CODE           0001:0000ed63  ! 00000235
                CONST                 DATA           0002:00000467  ! 00000000
                CONST2                DATA           0002:00002610  ! 00000014
                _DATA                 DATA           0002:00004a58  ! 00000000
                _BSS                  BSS            0002:00005f54  ! 00000000
/mnt/sda5/.user/root/src/openwatcom-1.9/bld/plusplus/cpplib/iostream/cpp/istexssh.cpp
                _TEXT                 CODE           0001:0000ef98  ! 00000236
                CONST                 DATA           0002:00000467  ! 00000000
                CONST2                DATA           0002:00002630  ! 00000014
                _DATA                 DATA           0002:00004a58  ! 00000000
                _BSS                  BSS            0002:00005f54  ! 00000000
/mnt/sda5/.user/root/src/openwatcom-1.9/bld/plusplus/cpplib/iostream/cpp/istexstf.cpp
                _TEXT                 CODE           0001:0000f1ce  ! 000005b8
                CONST                 DATA           0002:00000467  ! 00000000
                CONST2                DATA           0002:00002650  ! 00000034
                _DATA                 DATA           0002:00004a58  ! 00000000
                _BSS                  BSS            0002:00005f54  ! 00000000
                CONST2                DATA           0002:00002690 c! 00000008
/mnt/sda5/.user/root/src/openwatcom-1.9/bld/plusplus/cpplib/iostream/cpp/istexu64.cpp
                _TEXT                 CODE           0001:0000f786  ! 0000024b
                CONST                 DATA           0002:00000467  ! 00000000
                CONST2                DATA           0002:000026a0  ! 00000014
                _DATA                 DATA           0002:00004a58  ! 00000000
                _BSS                  BSS            0002:00005f54  ! 00000000
/mnt/sda5/.user/root/src/openwatcom-1.9/bld/plusplus/cpplib/iostream/cpp/istexuin.cpp
                _TEXT                 CODE           0001:0000f9d1  ! 00000235
                CONST                 DATA           0002:00000467  ! 00000000
                CONST2                DATA           0002:000026c0  ! 00000014
                _DATA                 DATA           0002:00004a58  ! 00000000
                _BSS                  BSS            0002:00005f54  ! 00000000
/mnt/sda5/.user/root/src/openwatcom-1.9/bld/plusplus/cpplib/iostream/cpp/istexulo.cpp
                _TEXT                 CODE           0001:0000fc06  ! 00000235
                CONST                 DATA           0002:00000467  ! 00000000
                CONST2                DATA           0002:000026e0  ! 00000014
                _DATA                 DATA           0002:00004a58  ! 00000000
                _BSS                  BSS            0002:00005f54  ! 00000000
/mnt/sda5/.user/root/src/openwatcom-1.9/bld/plusplus/cpplib/iostream/cpp/istexush.cpp
                _TEXT                 CODE           0001:0000fe3b  ! 00000236
                CONST                 DATA           0002:00000467  ! 00000000
                CONST2                DATA           0002:00002700  ! 00000014
                _DATA                 DATA           0002:00004a58  ! 00000000
                _BSS                  BSS            0002:00005f54  ! 00000000
/mnt/sda5/.user/root/src/openwatcom-1.9/bld/plusplus/cpplib/iostream/cpp/istgch.cpp
                _TEXT                 CODE           0001:00010071  ! 00000466
                CONST                 DATA           0002:00000467  ! 00000000
                CONST2                DATA           0002:00002720  ! 00000024
                _DATA                 DATA           0002:00004a58  ! 00000000
                _BSS                  BSS            0002:00005f54  ! 00000000
/mnt/sda5/.user/root/src/openwatcom-1.9/bld/plusplus/cpplib/iostream/cpp/istget.cpp
                _TEXT                 CODE           0001:000104d7  ! 00000253
                CONST                 DATA           0002:00000467  ! 00000000
                CONST2                DATA           0002:00002750  ! 00000014
                _DATA                 DATA           0002:00004a58  ! 00000000
                _BSS                  BSS            0002:00005f54  ! 00000000
/mnt/sda5/.user/root/src/openwatcom-1.9/bld/plusplus/cpplib/iostream/cpp/istgline.cpp
                _TEXT                 CODE           0001:0001072a  ! 0000011d
                CONST                 DATA           0002:00000467  ! 00000000
                CONST2                DATA           0002:00002770  ! 0000000c
                _DATA                 DATA           0002:00004a58  ! 00000000
                _BSS                  BSS            0002:00005f54  ! 00000000
/mnt/sda5/.user/root/src/openwatcom-1.9/bld/plusplus/cpplib/iostream/cpp/istgpch.cpp
                _TEXT                 CODE           0001:00010847  ! 0000011d
                CONST                 DATA           0002:00000467  ! 00000000
                CONST2                DATA           0002:00002780  ! 0000000c
                _DATA                 DATA           0002:00004a58  ! 00000000
                _BSS                  BSS            0002:00005f54  ! 00000000
/mnt/sda5/.user/root/src/openwatcom-1.9/bld/plusplus/cpplib/iostream/cpp/istgstf.cpp
                _TEXT                 CODE           0001:00010964  ! 0000057e
                CONST                 DATA           0002:00000467  ! 00000000
                CONST2                DATA           0002:00002790  ! 00000044
                _DATA                 DATA           0002:00004a58  ! 00000000
                _BSS                  BSS            0002:00005f54  ! 00000000
/mnt/sda5/.user/root/src/openwatcom-1.9/bld/plusplus/cpplib/iostream/cpp/istignor.cpp
                _TEXT                 CODE           0001:00010ee2  ! 00000284
                CONST                 DATA           0002:00000467  ! 00000000
                CONST2                DATA           0002:000027e0  ! 0000001c
                _DATA                 DATA           0002:00004a58  ! 00000000
                _BSS                  BSS            0002:00005f54  ! 00000000
/mnt/sda5/.user/root/src/openwatcom-1.9/bld/plusplus/cpplib/iostream/cpp/istipfx.cpp
                _TEXT                 CODE           0001:00011166  ! 000001c9
                CONST                 DATA           0002:00000467  ! 00000000
                CONST2                DATA           0002:00002800  ! 0000000c
                _DATA                 DATA           0002:00004a58  ! 00000000
                _BSS                  BSS            0002:00005f54  ! 00000000
/mnt/sda5/.user/root/src/openwatcom-1.9/bld/plusplus/cpplib/iostream/cpp/istpback.cpp
                _TEXT                 CODE           0001:0001132f  ! 000002f1
                CONST                 DATA           0002:00000467  ! 00000000
                CONST2                DATA           0002:00002810  ! 00000014
                _DATA                 DATA           0002:00004a58  ! 00000000
                _BSS                  BSS            0002:00005f54  ! 00000000
/mnt/sda5/.user/root/src/openwatcom-1.9/bld/plusplus/cpplib/iostream/cpp/istpeek.cpp
                _TEXT                 CODE           0001:00011620  ! 00000222
                CONST                 DATA           0002:00000467  ! 00000000
                CONST2                DATA           0002:00002830  ! 00000014
                _DATA                 DATA           0002:00004a58  ! 00000000
                _BSS                  BSS            0002:00005f54  ! 00000000
/mnt/sda5/.user/root/src/openwatcom-1.9/bld/plusplus/cpplib/iostream/cpp/istread.cpp
                _TEXT                 CODE           0001:00011842  ! 00000507
                CONST                 DATA           0002:00000467  ! 00000000
                CONST2                DATA           0002:00002850  ! 00000024
                _DATA                 DATA           0002:00004a58  ! 00000000
                _BSS                  BSS            0002:00005f54  ! 00000000
/mnt/sda5/.user/root/src/openwatcom-1.9/bld/plusplus/cpplib/iostream/cpp/istsgsto.cpp
                _TEXT                 CODE           0001:00011d49  ! 0000015c
                CONST                 DATA           0002:00000467  ! 00000000
                CONST2                DATA           0002:00002880  ! 0000000c
                _DATA                 DATA           0002:00004a58  ! 00000000
                _BSS                  BSS            0002:00005f54  ! 00000000
/mnt/sda5/.user/root/src/openwatcom-1.9/bld/plusplus/cpplib/iostream/cpp/istsgstp.cpp
                _TEXT                 CODE           0001:00011ea5  ! 0000015a
                CONST                 DATA           0002:00000467  ! 00000000
                CONST2                DATA           0002:00002890  ! 0000000c
                _DATA                 DATA           0002:00004a58  ! 00000000
                _BSS                  BSS            0002:00005f54  ! 00000000
/mnt/sda5/.user/root/src/openwatcom-1.9/bld/plusplus/cpplib/iostream/cpp/istsync.cpp
                _TEXT                 CODE           0001:00011fff  ! 0000005d
                CONST                 DATA           0002:00000467  ! 00000000
                CONST2                DATA           0002:000028a0  ! 00000000
                _DATA                 DATA           0002:00004a58  ! 00000000
                _BSS                  BSS            0002:00005f54  ! 00000000
/mnt/sda5/.user/root/src/openwatcom-1.9/bld/plusplus/cpplib/iostream/cpp/isttellg.cpp
                _TEXT                 CODE           0001:0001205c  ! 00000173
                CONST                 DATA           0002:00000467  ! 00000000
                CONST2                DATA           0002:000028a0  ! 0000000c
                _DATA                 DATA           0002:00004a58  ! 00000000
                _BSS                  BSS            0002:00005f54  ! 00000000
/mnt/sda5/.user/root/src/openwatcom-1.9/bld/plusplus/cpplib/iostream/cpp/mandec.cpp
                _TEXT                 CODE           0001:000121cf  ! 00000085
                CONST                 DATA           0002:00000467  ! 00000000
                CONST2                DATA           0002:000028b0  ! 00000000
                _DATA                 DATA           0002:00004a58  ! 00000000
                _BSS                  BSS            0002:00005f54  ! 00000000
/mnt/sda5/.user/root/src/openwatcom-1.9/bld/plusplus/cpplib/iostream/cpp/manendl.cpp
                _TEXT                 CODE           0001:00012254  ! 000000f6
                CONST                 DATA           0002:00000467  ! 00000000
                CONST2                DATA           0002:000028b0  ! 0000000c
                _DATA                 DATA           0002:00004a58  ! 00000000
                _BSS                  BSS            0002:00005f54  ! 00000000
/mnt/sda5/.user/root/src/openwatcom-1.9/bld/plusplus/cpplib/iostream/cpp/manends.cpp
                _TEXT                 CODE           0001:0001234a  ! 00000035
                CONST                 DATA           0002:00000467  ! 00000000
                CONST2                DATA           0002:000028c0  ! 00000000
                _DATA                 DATA           0002:00004a58  ! 00000000
                _BSS                  BSS            0002:00005f54  ! 00000000
/mnt/sda5/.user/root/src/openwatcom-1.9/bld/plusplus/cpplib/iostream/cpp/manflush.cpp
                _TEXT                 CODE           0001:0001237f  ! 00000030
                CONST                 DATA           0002:00000467  ! 00000000
                CONST2                DATA           0002:000028c0  ! 00000000
                _DATA                 DATA           0002:00004a58  ! 00000000
                _BSS                  BSS            0002:00005f54  ! 00000000
/mnt/sda5/.user/root/src/openwatcom-1.9/bld/plusplus/cpplib/iostream/cpp/manhex.cpp
                _TEXT                 CODE           0001:000123af  ! 00000085
                CONST                 DATA           0002:00000467  ! 00000000
                CONST2                DATA           0002:000028c0  ! 00000000
                _DATA                 DATA           0002:00004a58  ! 00000000
                _BSS                  BSS            0002:00005f54  ! 00000000
/mnt/sda5/.user/root/src/openwatcom-1.9/bld/plusplus/cpplib/iostream/cpp/manoct.cpp
                _TEXT                 CODE           0001:00012434  ! 00000085
                CONST                 DATA           0002:00000467  ! 00000000
                CONST2                DATA           0002:000028c0  ! 00000000
                _DATA                 DATA           0002:00004a58  ! 00000000
                _BSS                  BSS            0002:00005f54  ! 00000000
/mnt/sda5/.user/root/src/openwatcom-1.9/bld/plusplus/cpplib/iostream/cpp/manriofg.cpp
                _TEXT                 CODE           0001:000124b9  ! 000000b0
                CONST                 DATA           0002:00000467  ! 00000000
                CONST2                DATA           0002:000028c0  ! 00000000
                _DATA                 DATA           0002:00004a58  ! 00000000
                _BSS                  BSS            0002:00005f54  ! 00000004
                XIB                   DATA           0002:00005ca4  ! 00000000
                XI                    DATA           0002:00005cce  ! 00000006
                XIE                   DATA           0002:00005cf8  ! 00000000
/mnt/sda5/.user/root/src/openwatcom-1.9/bld/plusplus/cpplib/iostream/cpp/mansbase.cpp
                _TEXT                 CODE           0001:00012569  ! 00000284
                CONST                 DATA           0002:00000467  ! 00000000
                CONST2                DATA           0002:000028c0  ! 00000010
                _DATA                 DATA           0002:00004a58  ! 00000000
                _BSS                  BSS            0002:00005f58  ! 00000004
                XIB                   DATA           0002:00005ca4  ! 00000000
                XI                    DATA           0002:00005cd4  ! 00000006
                XIE                   DATA           0002:00005cf8  ! 00000000
/mnt/sda5/.user/root/src/openwatcom-1.9/bld/plusplus/cpplib/iostream/cpp/mansetw.cpp
                _TEXT                 CODE           0001:000127ed  ! 000000ae
                CONST                 DATA           0002:00000467  ! 00000000
                CONST2                DATA           0002:000028d0  ! 00000000
                _DATA                 DATA           0002:00004a58  ! 00000000
                _BSS                  BSS            0002:00005f5c  ! 00000004
                XIB                   DATA           0002:00005ca4  ! 00000000
                XI                    DATA           0002:00005cda  ! 00000006
                XIE                   DATA           0002:00005cf8  ! 00000000
/mnt/sda5/.user/root/src/openwatcom-1.9/bld/plusplus/cpplib/iostream/cpp/mansfill.cpp
                _TEXT                 CODE           0001:0001289b  ! 000000ae
                CONST                 DATA           0002:00000467  ! 00000000
                CONST2                DATA           0002:000028d0  ! 00000000
                _DATA                 DATA           0002:00004a58  ! 00000000
                _BSS                  BSS            0002:00005f60  ! 00000004
                XIB                   DATA           0002:00005ca4  ! 00000000
                XI                    DATA           0002:00005ce0  ! 00000006
                XIE                   DATA           0002:00005cf8  ! 00000000
/mnt/sda5/.user/root/src/openwatcom-1.9/bld/plusplus/cpplib/iostream/cpp/mansiofl.cpp
                _TEXT                 CODE           0001:00012949  ! 000000ae
                CONST                 DATA           0002:00000467  ! 00000000
                CONST2                DATA           0002:000028d0  ! 00000000
                _DATA                 DATA           0002:00004a58  ! 00000000
                _BSS                  BSS            0002:00005f64  ! 00000004
                XIB                   DATA           0002:00005ca4  ! 00000000
                XI                    DATA           0002:00005ce6  ! 00000006
                XIE                   DATA           0002:00005cf8  ! 00000000
/mnt/sda5/.user/root/src/openwatcom-1.9/bld/plusplus/cpplib/iostream/cpp/mansprec.cpp
                _TEXT                 CODE           0001:000129f7  ! 000000ae
                CONST                 DATA           0002:00000467  ! 00000000
                CONST2                DATA           0002:000028d0  ! 00000000
                _DATA                 DATA           0002:00004a58  ! 00000000
                _BSS                  BSS            0002:00005f68  ! 00000004
                XIB                   DATA           0002:00005ca4  ! 00000000
                XI                    DATA           0002:00005cec  ! 00000006
                XIE                   DATA           0002:00005cf8  ! 00000000
/mnt/sda5/.user/root/src/openwatcom-1.9/bld/plusplus/cpplib/iostream/cpp/manws.cpp
                _TEXT                 CODE           0001:00012aa5  ! 0000013f
                CONST                 DATA           0002:00000467  ! 00000000
                CONST2                DATA           0002:000028d0  ! 0000000c
                _DATA                 DATA           0002:00004a58  ! 00000000
                _BSS                  BSS            0002:00005f6c  ! 00000000
/mnt/sda5/.user/root/src/openwatcom-1.9/bld/plusplus/cpplib/iostream/cpp/ofsconde.cpp
                _TEXT                 CODE           0001:00012be4  ! 00000145
                CONST                 DATA           0002:00000467  ! 00000000
                CONST2                DATA           0002:000028e0  ! 0000004c
                _DATA                 DATA           0002:00004a58  ! 00000000
                _BSS                  BSS            0002:00005f6c  ! 00000000
                _TEXT                 CODE           0001:00012d29 c! 0000002e
                CONST2                DATA           0002:00002930 c! 00000008
                CONST2                DATA           0002:00002940 c! 00000008
                CONST2                DATA           0002:00002950 c! 00000008
                CONST2                DATA           0002:00002960 c! 00000008
                CONST2                DATA           0002:00002970 c! 00000008
                _TEXT                 CODE           0001:00012d57 c! 00000033
                CONST2                DATA           0002:00002980 c! 00000044
                _DATA                 DATA           0002:00004a58 c! 00000015
/mnt/sda5/.user/root/src/openwatcom-1.9/bld/plusplus/cpplib/iostream/cpp/ofsconfd.cpp
                _TEXT                 CODE           0001:00012d8a  ! 00000149
                CONST                 DATA           0002:00000467  ! 00000000
                CONST2                DATA           0002:000029d0  ! 0000004c
                _DATA                 DATA           0002:00004a6d  ! 00000000
                _BSS                  BSS            0002:00005f6c  ! 00000000
/mnt/sda5/.user/root/src/openwatcom-1.9/bld/plusplus/cpplib/iostream/cpp/ofsconnm.cpp
                _TEXT                 CODE           0001:00012ed3  ! 00000156
                CONST                 DATA           0002:00000467  ! 00000000
                CONST2                DATA           0002:00002a20  ! 0000004c
                _DATA                 DATA           0002:00004a6d  ! 00000000
                _BSS                  BSS            0002:00005f6c  ! 00000000
/mnt/sda5/.user/root/src/openwatcom-1.9/bld/plusplus/cpplib/iostream/cpp/ofsconsf.cpp
                _TEXT                 CODE           0001:00013029  ! 00000153
                CONST                 DATA           0002:00000467  ! 00000000
                CONST2                DATA           0002:00002a70  ! 0000004c
                _DATA                 DATA           0002:00004a6d  ! 00000000
                _BSS                  BSS            0002:00005f6c  ! 00000000
/mnt/sda5/.user/root/src/openwatcom-1.9/bld/plusplus/cpplib/iostream/cpp/ofsdestr.cpp
                _TEXT                 CODE           0001:0001317c  ! 000001aa
                CONST                 DATA           0002:00000467  ! 00000000
                CONST2                DATA           0002:00002ac0  ! 00000068
                _DATA                 DATA           0002:00004a6d  ! 00000000
                _BSS                  BSS            0002:00005f6c  ! 00000000
                CONST2                DATA           0002:00002b30 c! 00000018
                _TEXT                 CODE           0001:00013326 c! 00000034
/mnt/sda5/.user/root/src/openwatcom-1.9/bld/plusplus/cpplib/iostream/cpp/ossconch.cpp
                _TEXT                 CODE           0001:0001335a  ! 00000187
                CONST                 DATA           0002:00000467  ! 00000000
                CONST2                DATA           0002:00002b50  ! 0000004c
                _DATA                 DATA           0002:00004a6d  ! 00000000
                _BSS                  BSS            0002:00005f6c  ! 00000000
                _TEXT                 CODE           0001:000134e1 c! 0000002e
                CONST2                DATA           0002:00002ba0 c! 00000008
                CONST2                DATA           0002:00002bb0 c! 00000008
                CONST2                DATA           0002:00002bc0 c! 00000008
                CONST2                DATA           0002:00002bd0 c! 00000008
                CONST2                DATA           0002:00002be0 c! 00000008
                _TEXT                 CODE           0001:0001350f c! 00000033
                CONST2                DATA           0002:00002bf0 c! 00000044
                _DATA                 DATA           0002:00004a6d c! 00000017
/mnt/sda5/.user/root/src/openwatcom-1.9/bld/plusplus/cpplib/iostream/cpp/ossconde.cpp
                _TEXT                 CODE           0001:00013542  ! 00000145
                CONST                 DATA           0002:00000467  ! 00000000
                CONST2                DATA           0002:00002c40  ! 0000004c
                _DATA                 DATA           0002:00004a84  ! 00000000
                _BSS                  BSS            0002:00005f6c  ! 00000000
/mnt/sda5/.user/root/src/openwatcom-1.9/bld/plusplus/cpplib/iostream/cpp/ossconsc.cpp
                _TEXT                 CODE           0001:00013687  ! 00000187
                CONST                 DATA           0002:00000467  ! 00000000
                CONST2                DATA           0002:00002c90  ! 0000004c
                _DATA                 DATA           0002:00004a84  ! 00000000
                _BSS                  BSS            0002:00005f6c  ! 00000000
/mnt/sda5/.user/root/src/openwatcom-1.9/bld/plusplus/cpplib/iostream/cpp/ossconuc.cpp
                _TEXT                 CODE           0001:0001380e  ! 00000187
                CONST                 DATA           0002:00000467  ! 00000000
                CONST2                DATA           0002:00002ce0  ! 0000004c
                _DATA                 DATA           0002:00004a84  ! 00000000
                _BSS                  BSS            0002:00005f6c  ! 00000000
/mnt/sda5/.user/root/src/openwatcom-1.9/bld/plusplus/cpplib/iostream/cpp/ossdestr.cpp
                _TEXT                 CODE           0001:00013995  ! 000001aa
                CONST                 DATA           0002:00000467  ! 00000000
                CONST2                DATA           0002:00002d30  ! 00000068
                _DATA                 DATA           0002:00004a84  ! 00000000
                _BSS                  BSS            0002:00005f6c  ! 00000000
                CONST2                DATA           0002:00002da0 c! 00000018
                _TEXT                 CODE           0001:00013b3f c! 00000034
/mnt/sda5/.user/root/src/openwatcom-1.9/bld/plusplus/cpplib/iostream/cpp/ostcoeos.cpp
                _TEXT                 CODE           0001:00013b73  ! 000001a4
                CONST                 DATA           0002:00000467  ! 00000000
                CONST2                DATA           0002:00002dc0  ! 00000014
                _DATA                 DATA           0002:00004a84  ! 00000000
                _BSS                  BSS            0002:00005f6c  ! 00000000
/mnt/sda5/.user/root/src/openwatcom-1.9/bld/plusplus/cpplib/iostream/cpp/ostcoesf.cpp
                _TEXT                 CODE           0001:00013d17  ! 000000fd
                CONST                 DATA           0002:00000467  ! 00000000
                CONST2                DATA           0002:00002de0  ! 0000000c
                _DATA                 DATA           0002:00004a84  ! 00000000
                _BSS                  BSS            0002:00005f6c  ! 00000000
/mnt/sda5/.user/root/src/openwatcom-1.9/bld/plusplus/cpplib/iostream/cpp/ostconde.cpp
                _TEXT                 CODE           0001:00013e14  ! 0000008d
                CONST                 DATA           0002:00000467  ! 00000000
                CONST2                DATA           0002:00002df0  ! 00000000
                _DATA                 DATA           0002:00004a84  ! 00000000
                _BSS                  BSS            0002:00005f6c  ! 00000000
                CONST2                DATA           0002:00002df0 c! 00000008
                CONST2                DATA           0002:00002e00 c! 00000008
                CONST2                DATA           0002:00002e10 c! 00000008
                _TEXT                 CODE           0001:00013ea1 c! 00000033
                CONST2                DATA           0002:00002e20 c! 00000024
/mnt/sda5/.user/root/src/openwatcom-1.9/bld/plusplus/cpplib/iostream/cpp/ostconsf.cpp
                _TEXT                 CODE           0001:00013ed4  ! 000000f7
                CONST                 DATA           0002:00000467  ! 00000000
                CONST2                DATA           0002:00002e50  ! 0000001c
                _DATA                 DATA           0002:00004a84  ! 00000000
                _BSS                  BSS            0002:00005f6c  ! 00000000
/mnt/sda5/.user/root/src/openwatcom-1.9/bld/plusplus/cpplib/iostream/cpp/ostcoost.cpp
                _TEXT                 CODE           0001:00013fcb  ! 0000017b
                CONST                 DATA           0002:00000467  ! 00000000
                CONST2                DATA           0002:00002e70  ! 00000024
                _DATA                 DATA           0002:00004a84  ! 00000000
                _BSS                  BSS            0002:00005f6c  ! 00000000
/mnt/sda5/.user/root/src/openwatcom-1.9/bld/plusplus/cpplib/iostream/cpp/ostdestr.cpp
                _TEXT                 CODE           0001:00014146  ! 00000144
                CONST                 DATA           0002:00000467  ! 00000000
                CONST2                DATA           0002:00002ea0  ! 00000038
                _DATA                 DATA           0002:00004a84  ! 00000000
                _BSS                  BSS            0002:00005f6c  ! 00000000
/mnt/sda5/.user/root/src/openwatcom-1.9/bld/plusplus/cpplib/iostream/cpp/ostdlshf.cpp
                _TEXT                 CODE           0001:0001428a  ! 00000118
                CONST                 DATA           0002:00000467  ! 00000000
                CONST2                DATA           0002:00002ee0  ! 0000000c
                _DATA                 DATA           0002:00004a84  ! 00000000
                _BSS                  BSS            0002:00005f6c  ! 00000000
/mnt/sda5/.user/root/src/openwatcom-1.9/bld/plusplus/cpplib/iostream/cpp/ostflush.cpp
                _TEXT                 CODE           0001:000143a2  ! 00000178
                CONST                 DATA           0002:00000467  ! 00000000
                CONST2                DATA           0002:00002ef0  ! 0000000c
                _DATA                 DATA           0002:00004a84  ! 00000000
                _BSS                  BSS            0002:00005f6c  ! 00000000
/mnt/sda5/.user/root/src/openwatcom-1.9/bld/plusplus/cpplib/iostream/cpp/ostincch.cpp
                _TEXT                 CODE           0001:0001451a  ! 000003cb
                CONST                 DATA           0002:00000467  ! 00000000
                CONST2                DATA           0002:00002f00  ! 00000024
                _DATA                 DATA           0002:00004a84  ! 00000000
                _BSS                  BSS            0002:00005f6c  ! 00000000
/mnt/sda5/.user/root/src/openwatcom-1.9/bld/plusplus/cpplib/iostream/cpp/ostincha.cpp
                _TEXT                 CODE           0001:000148e5  ! 000005e6
                CONST                 DATA           0002:00000467  ! 00000000
                CONST2                DATA           0002:00002f30  ! 00000034
                _DATA                 DATA           0002:00004a84  ! 00000000
                _BSS                  BSS            0002:00005f6c  ! 00000000
/mnt/sda5/.user/root/src/openwatcom-1.9/bld/plusplus/cpplib/iostream/cpp/ostini64.cpp
                _TEXT                 CODE           0001:00014ecb  ! 00000550
                CONST                 DATA           0002:00000467  ! 00000000
                CONST2                DATA           0002:00002f70  ! 00000024
                _DATA                 DATA           0002:00004a84  ! 00000000
                _BSS                  BSS            0002:00005f6c  ! 00000000
/mnt/sda5/.user/root/src/openwatcom-1.9/bld/plusplus/cpplib/iostream/cpp/ostiniom.cpp
                _TEXT                 CODE           0001:0001541b  ! 00000042
                CONST                 DATA           0002:00000467  ! 00000000
                CONST2                DATA           0002:00002fa0  ! 00000000
                _DATA                 DATA           0002:00004a84  ! 00000000
                _BSS                  BSS            0002:00005f6c  ! 00000000
/mnt/sda5/.user/root/src/openwatcom-1.9/bld/plusplus/cpplib/iostream/cpp/ostinomn.cpp
                _TEXT                 CODE           0001:0001545d  ! 0000002f
                CONST                 DATA           0002:00000467  ! 00000000
                CONST2                DATA           0002:00002fa0  ! 00000000
                _DATA                 DATA           0002:00004a84  ! 00000000
                _BSS                  BSS            0002:00005f6c  ! 00000000
/mnt/sda5/.user/root/src/openwatcom-1.9/bld/plusplus/cpplib/iostream/cpp/ostinptr.cpp
                _TEXT                 CODE           0001:0001548c  ! 00000498
                CONST                 DATA           0002:00000467  ! 00000000
                CONST2                DATA           0002:00002fa0  ! 00000024
                _DATA                 DATA           0002:00004a84  ! 00000000
                _BSS                  BSS            0002:00005f6c  ! 00000000
/mnt/sda5/.user/root/src/openwatcom-1.9/bld/plusplus/cpplib/iostream/cpp/ostinslo.cpp
                _TEXT                 CODE           0001:00015924  ! 00000510
                CONST                 DATA           0002:00000467  ! 00000000
                CONST2                DATA           0002:00002fd0  ! 00000024
                _DATA                 DATA           0002:00004a84  ! 00000000
                _BSS                  BSS            0002:00005f6c  ! 00000000
/mnt/sda5/.user/root/src/openwatcom-1.9/bld/plusplus/cpplib/iostream/cpp/ostinstf.cpp
                _TEXT                 CODE           0001:00015e34  ! 000006a3
                CONST                 DATA           0002:00000467  ! 00000000
                CONST2                DATA           0002:00003000  ! 0000003c
                _DATA                 DATA           0002:00004a84  ! 00000000
                _BSS                  BSS            0002:00005f6c  ! 00000000
                CONST2                DATA           0002:00003040 c! 00000008
/mnt/sda5/.user/root/src/openwatcom-1.9/bld/plusplus/cpplib/iostream/cpp/ostinu64.cpp
                _TEXT                 CODE           0001:000164d7  ! 000005e0
                CONST                 DATA           0002:00000467  ! 00000000
                CONST2                DATA           0002:00003050  ! 00000024
                _DATA                 DATA           0002:00004a84  ! 00000000
                _BSS                  BSS            0002:00005f6c  ! 00000000
/mnt/sda5/.user/root/src/openwatcom-1.9/bld/plusplus/cpplib/iostream/cpp/ostinulo.cpp
                _TEXT                 CODE           0001:00016ab7  ! 000005b3
                CONST                 DATA           0002:00000467  ! 00000000
                CONST2                DATA           0002:00003080  ! 00000024
                _DATA                 DATA           0002:00004a84  ! 00000000
                _BSS                  BSS            0002:00005f6c  ! 00000000
/mnt/sda5/.user/root/src/openwatcom-1.9/bld/plusplus/cpplib/iostream/cpp/ostopfx.cpp
                _TEXT                 CODE           0001:0001706a  ! 000001c1
                CONST                 DATA           0002:00000467  ! 00000000
                CONST2                DATA           0002:000030b0  ! 0000000c
                _DATA                 DATA           0002:00004a84  ! 00000000
                _BSS                  BSS            0002:00005f6c  ! 00000000
/mnt/sda5/.user/root/src/openwatcom-1.9/bld/plusplus/cpplib/iostream/cpp/ostput.cpp
                _TEXT                 CODE           0001:0001722b  ! 00000589
                CONST                 DATA           0002:00000467  ! 00000000
                CONST2                DATA           0002:000030c0  ! 00000034
                _DATA                 DATA           0002:00004a84  ! 00000000
                _BSS                  BSS            0002:00005f6c  ! 00000000
/mnt/sda5/.user/root/src/openwatcom-1.9/bld/plusplus/cpplib/iostream/cpp/ostspsto.cpp
                _TEXT                 CODE           0001:000177b4  ! 0000045e
                CONST                 DATA           0002:00000467  ! 00000000
                CONST2                DATA           0002:00003100  ! 00000024
                _DATA                 DATA           0002:00004a84  ! 00000000
                _BSS                  BSS            0002:00005f6c  ! 00000000
/mnt/sda5/.user/root/src/openwatcom-1.9/bld/plusplus/cpplib/iostream/cpp/ostspstp.cpp
                _TEXT                 CODE           0001:00017c12  ! 00000456
                CONST                 DATA           0002:00000467  ! 00000000
                CONST2                DATA           0002:00003130  ! 00000024
                _DATA                 DATA           0002:00004a84  ! 00000000
                _BSS                  BSS            0002:00005f6c  ! 00000000
/mnt/sda5/.user/root/src/openwatcom-1.9/bld/plusplus/cpplib/iostream/cpp/osttellp.cpp
                _TEXT                 CODE           0001:00018068  ! 00000173
                CONST                 DATA           0002:00000467  ! 00000000
                CONST2                DATA           0002:00003160  ! 0000000c
                _DATA                 DATA           0002:00004a84  ! 00000000
                _BSS                  BSS            0002:00005f6c  ! 00000000
/mnt/sda5/.user/root/src/openwatcom-1.9/bld/plusplus/cpplib/iostream/cpp/ostwrite.cpp
                _TEXT                 CODE           0001:000181db  ! 00000623
                CONST                 DATA           0002:00000467  ! 00000000
                CONST2                DATA           0002:00003170  ! 00000034
                _DATA                 DATA           0002:00004a84  ! 00000000
                _BSS                  BSS            0002:00005f6c  ! 00000000
/mnt/sda5/.user/root/src/openwatcom-1.9/bld/plusplus/cpplib/iostream/cpp/sdfconde.cpp
                _TEXT                 CODE           0001:000187fe  ! 00000046
                CONST                 DATA           0002:00000467  ! 00000000
                CONST2                DATA           0002:000031b0  ! 00000000
                _DATA                 DATA           0002:00004a84  ! 00000000
                _BSS                  BSS            0002:00005f6c  ! 00000000
                CONST2                DATA           0002:000031b0 c! 00000030
                CONST2                DATA           0002:000031e0 c! 0000001c
/mnt/sda5/.user/root/src/openwatcom-1.9/bld/plusplus/cpplib/iostream/cpp/sdfconfp.cpp
                _TEXT                 CODE           0001:00018844  ! 00000050
                CONST                 DATA           0002:00000467  ! 00000000
                CONST2                DATA           0002:00003200  ! 00000000
                _DATA                 DATA           0002:00004a84  ! 00000000
                _BSS                  BSS            0002:00005f6c  ! 00000000
/mnt/sda5/.user/root/src/openwatcom-1.9/bld/plusplus/cpplib/iostream/cpp/sdfdestr.cpp
                _TEXT                 CODE           0001:00018894  ! 00000151
                CONST                 DATA           0002:00000467  ! 00000000
                CONST2                DATA           0002:00003200  ! 00000038
                _DATA                 DATA           0002:00004a84  ! 00000000
                _BSS                  BSS            0002:00005f6c  ! 00000000
/mnt/sda5/.user/root/src/openwatcom-1.9/bld/plusplus/cpplib/iostream/cpp/sdfoverf.cpp
                _TEXT                 CODE           0001:000189e5  ! 00000ab9
                CONST                 DATA           0002:00000467  ! 00000000
                CONST2                DATA           0002:00003240  ! 00000014
                _DATA                 DATA           0002:00004a84  ! 00000000
                _BSS                  BSS            0002:00005f6c  ! 00000000
/mnt/sda5/.user/root/src/openwatcom-1.9/bld/plusplus/cpplib/iostream/cpp/sdfsync.cpp
                _TEXT                 CODE           0001:0001949e  ! 000001b4
                CONST                 DATA           0002:00000467  ! 00000000
                CONST2                DATA           0002:00003260  ! 0000000c
                _DATA                 DATA           0002:00004a84  ! 00000000
                _BSS                  BSS            0002:00005f6c  ! 00000000
/mnt/sda5/.user/root/src/openwatcom-1.9/bld/plusplus/cpplib/iostream/cpp/sdfundrf.cpp
                _TEXT                 CODE           0001:00019652  ! 000009a6
                CONST                 DATA           0002:00000467  ! 00000000
                CONST2                DATA           0002:00003270  ! 00000014
                _DATA                 DATA           0002:00004a84  ! 00000000
                _BSS                  BSS            0002:00005f6c  ! 00000000
/mnt/sda5/.user/root/src/openwatcom-1.9/bld/plusplus/cpplib/iostream/cpp/ssbconde.cpp
                _TEXT                 CODE           0001:00019ff8  ! 0000017b
                CONST                 DATA           0002:00000467  ! 00000000
                CONST2                DATA           0002:00003290  ! 0000005c
                _DATA                 DATA           0002:00004a84  ! 00000000
                _BSS                  BSS            0002:00005f6c  ! 00000000
                CONST2                DATA           0002:000032f0 c! 00000030
                CONST2                DATA           0002:00003320 c! 00000008
                CONST2                DATA           0002:00003330 c! 00000008
                CONST2                DATA           0002:00003340 c! 00000008
                CONST2                DATA           0002:00003350 c! 00000024
                _DATA                 DATA           0002:00004a84 c! 00000019
                _TEXT                 CODE           0001:0001a173 c! 00000033
                _TEXT                 CODE           0001:0001a1a6 c! 00000034
                CONST2                DATA           0002:00003380 c! 0000001c
/mnt/sda5/.user/root/src/openwatcom-1.9/bld/plusplus/cpplib/iostream/cpp/ssbconsz.cpp
                _TEXT                 CODE           0001:0001a1da  ! 00000194
                CONST                 DATA           0002:00000467  ! 00000000
                CONST2                DATA           0002:000033a0  ! 0000005c
                _DATA                 DATA           0002:00004a9d  ! 00000000
                _BSS                  BSS            0002:00005f6c  ! 00000000
/mnt/sda5/.user/root/src/openwatcom-1.9/bld/plusplus/cpplib/iostream/cpp/ssbdestr.cpp
                _TEXT                 CODE           0001:0001a36e  ! 00000178
                CONST                 DATA           0002:00000467  ! 00000000
                CONST2                DATA           0002:00003400  ! 00000050
                _DATA                 DATA           0002:00004a9d  ! 00000000
                _BSS                  BSS            0002:00005f6c  ! 00000000
                CONST2                DATA           0002:00003450 c! 00000018
/mnt/sda5/.user/root/src/openwatcom-1.9/bld/plusplus/cpplib/iostream/cpp/ssfdestr.cpp
                _TEXT                 CODE           0001:0001a4e6  ! 00000164
                CONST                 DATA           0002:00000467  ! 00000000
                CONST2                DATA           0002:00003470  ! 00000054
                _DATA                 DATA           0002:00004a9d  ! 00000000
                _BSS                  BSS            0002:00005f6c  ! 00000000
                _TEXT                 CODE           0001:0001a64a c! 000000a0
                CONST2                DATA           0002:000034d0 c! 00000018
/mnt/sda5/.user/root/src/openwatcom-1.9/bld/plusplus/cpplib/iostream/cpp/ssfdoall.cpp
                _TEXT                 CODE           0001:0001a6ea  ! 000005b7
                CONST                 DATA           0002:00000467  ! 00000000
                CONST2                DATA           0002:000034f0  ! 0000000c
                _DATA                 DATA           0002:00004a9d  ! 00000000
                _BSS                  BSS            0002:00005f6c  ! 00000000
/mnt/sda5/.user/root/src/openwatcom-1.9/bld/plusplus/cpplib/iostream/cpp/ssfempsf.cpp
                _TEXT                 CODE           0001:0001aca1  ! 000000b4
                CONST                 DATA           0002:00000467  ! 00000000
                CONST2                DATA           0002:00003500  ! 0000001c
                _DATA                 DATA           0002:00004a9d  ! 00000000
                _BSS                  BSS            0002:00005f6c  ! 00000000
/mnt/sda5/.user/root/src/openwatcom-1.9/bld/plusplus/cpplib/iostream/cpp/ssfempsz.cpp
                _TEXT                 CODE           0001:0001ad55  ! 000000aa
                CONST                 DATA           0002:00000467  ! 00000000
                CONST2                DATA           0002:00003520  ! 0000001c
                _DATA                 DATA           0002:00004a9d  ! 00000000
                _BSS                  BSS            0002:00005f6c  ! 00000000
/mnt/sda5/.user/root/src/openwatcom-1.9/bld/plusplus/cpplib/iostream/cpp/ssfoverf.cpp
                _TEXT                 CODE           0001:0001adff  ! 0000030e
                CONST                 DATA           0002:00000467  ! 00000000
                CONST2                DATA           0002:00003540  ! 0000000c
                _DATA                 DATA           0002:00004a9d  ! 00000000
                _BSS                  BSS            0002:00005f6c  ! 00000000
/mnt/sda5/.user/root/src/openwatcom-1.9/bld/plusplus/cpplib/iostream/cpp/ssfseeko.cpp
                _TEXT                 CODE           0001:0001b10d  ! 00000554
                CONST                 DATA           0002:00000467  ! 00000000
                CONST2                DATA           0002:00003550  ! 0000000c
                _DATA                 DATA           0002:00004a9d  ! 00000000
                _BSS                  BSS            0002:00005f6c  ! 00000000
/mnt/sda5/.user/root/src/openwatcom-1.9/bld/plusplus/cpplib/iostream/cpp/ssfsetbf.cpp
                _TEXT                 CODE           0001:0001b661  ! 00000062
                CONST                 DATA           0002:00000467  ! 00000000
                CONST2                DATA           0002:00003560  ! 00000000
                _DATA                 DATA           0002:00004a9d  ! 00000000
                _BSS                  BSS            0002:00005f6c  ! 00000000
/mnt/sda5/.user/root/src/openwatcom-1.9/bld/plusplus/cpplib/iostream/cpp/ssfstbuf.cpp
                _TEXT                 CODE           0001:0001b6c3  ! 00000290
                CONST                 DATA           0002:00000467  ! 00000000
                CONST2                DATA           0002:00003560  ! 0000000c
                _DATA                 DATA           0002:00004a9d  ! 00000000
                _BSS                  BSS            0002:00005f6c  ! 00000000
/mnt/sda5/.user/root/src/openwatcom-1.9/bld/plusplus/cpplib/iostream/cpp/ssfstr.cpp
                _TEXT                 CODE           0001:0001b953  ! 00000334
                CONST                 DATA           0002:00000467  ! 00000000
                CONST2                DATA           0002:00003570  ! 0000000c
                _DATA                 DATA           0002:00004a9d  ! 00000000
                _BSS                  BSS            0002:00005f6c  ! 00000000
/mnt/sda5/.user/root/src/openwatcom-1.9/bld/plusplus/cpplib/iostream/cpp/ssfsync.cpp
                _TEXT                 CODE           0001:0001bc87  ! 0000002c
                CONST                 DATA           0002:00000467  ! 00000000
                CONST2                DATA           0002:00003580  ! 00000000
                _DATA                 DATA           0002:00004a9d  ! 00000000
                _BSS                  BSS            0002:00005f6c  ! 00000000
/mnt/sda5/.user/root/src/openwatcom-1.9/bld/plusplus/cpplib/iostream/cpp/ssfundrf.cpp
                _TEXT                 CODE           0001:0001bcb3  ! 00000452
                CONST                 DATA           0002:00000467  ! 00000000
                CONST2                DATA           0002:00003580  ! 0000000c
                _DATA                 DATA           0002:00004a9d  ! 00000000
                _BSS                  BSS            0002:00005f6c  ! 00000000
/mnt/sda5/.user/root/src/openwatcom-1.9/bld/plusplus/cpplib/iostream/cpp/sstconch.cpp
                _TEXT                 CODE           0001:0001c105  ! 0000019b
                CONST                 DATA           0002:00000467  ! 00000000
                CONST2                DATA           0002:00003590  ! 0000004c
                _DATA                 DATA           0002:00004a9d  ! 00000000
                _BSS                  BSS            0002:00005f6c  ! 00000000
                _TEXT                 CODE           0001:0001c2a0 c! 0000002e
                _TEXT                 CODE           0001:0001c2ce c! 0000002e
                CONST2                DATA           0002:000035e0 c! 00000008
                CONST2                DATA           0002:000035f0 c! 00000008
                CONST2                DATA           0002:00003600 c! 00000008
                CONST2                DATA           0002:00003610 c! 00000008
                CONST2                DATA           0002:00003620 c! 00000008
                CONST2                DATA           0002:00003630 c! 00000008
                CONST2                DATA           0002:00003640 c! 00000008
                _TEXT                 CODE           0001:0001c2fc c! 00000033
                CONST2                DATA           0002:00003650 c! 00000064
                _DATA                 DATA           0002:00004a9d c! 00000016
/mnt/sda5/.user/root/src/openwatcom-1.9/bld/plusplus/cpplib/iostream/cpp/sstconde.cpp
                _TEXT                 CODE           0001:0001c32f  ! 00000159
                CONST                 DATA           0002:00000467  ! 00000000
                CONST2                DATA           0002:000036c0  ! 0000004c
                _DATA                 DATA           0002:00004ab3  ! 00000000
                _BSS                  BSS            0002:00005f6c  ! 00000000
/mnt/sda5/.user/root/src/openwatcom-1.9/bld/plusplus/cpplib/iostream/cpp/sstconsc.cpp
                _TEXT                 CODE           0001:0001c488  ! 0000019b
                CONST                 DATA           0002:00000467  ! 00000000
                CONST2                DATA           0002:00003710  ! 0000004c
                _DATA                 DATA           0002:00004ab3  ! 00000000
                _BSS                  BSS            0002:00005f6c  ! 00000000
/mnt/sda5/.user/root/src/openwatcom-1.9/bld/plusplus/cpplib/iostream/cpp/sstconuc.cpp
                _TEXT                 CODE           0001:0001c623  ! 0000019b
                CONST                 DATA           0002:00000467  ! 00000000
                CONST2                DATA           0002:00003760  ! 0000004c
                _DATA                 DATA           0002:00004ab3  ! 00000000
                _BSS                  BSS            0002:00005f6c  ! 00000000
/mnt/sda5/.user/root/src/openwatcom-1.9/bld/plusplus/cpplib/iostream/cpp/sstdestr.cpp
                _TEXT                 CODE           0001:0001c7be  ! 000001b4
                CONST                 DATA           0002:00000467  ! 00000000
                CONST2                DATA           0002:000037b0  ! 00000068
                _DATA                 DATA           0002:00004ab3  ! 00000000
                _BSS                  BSS            0002:00005f6c  ! 00000000
                CONST2                DATA           0002:00003820 c! 00000018
                _TEXT                 CODE           0001:0001c972 c! 00000034
/mnt/sda5/.user/root/src/openwatcom-1.9/bld/plusplus/cpplib/iostream/cpp/stfconb.cpp
                _TEXT                 CODE           0001:0001c9a6  ! 000000af
                CONST                 DATA           0002:00000467  ! 00000000
                CONST2                DATA           0002:00003840  ! 00000000
                _DATA                 DATA           0002:00004ab3  ! 00000000
                _BSS                  BSS            0002:00005f6c  ! 00000000
                CONST2                DATA           0002:00003840 c! 00000030
                CONST2                DATA           0002:00003870 c! 00000010
/mnt/sda5/.user/root/src/openwatcom-1.9/bld/plusplus/cpplib/iostream/cpp/stfconde.cpp
                _TEXT                 CODE           0001:0001ca55  ! 0000009f
                CONST                 DATA           0002:00000467  ! 00000000
                CONST2                DATA           0002:00003880  ! 00000000
                _DATA                 DATA           0002:00004ab3  ! 00000000
                _BSS                  BSS            0002:00005f6c  ! 00000000
/mnt/sda5/.user/root/src/openwatcom-1.9/bld/plusplus/cpplib/iostream/cpp/stfdbp.cpp
                _TEXT                 CODE           0001:0001caf4  ! 0000007b
                CONST                 DATA           0002:00000467  ! 000000a2
                CONST2                DATA           0002:00003880  ! 00000000
                _DATA                 DATA           0002:00004ab3  ! 00000000
                _BSS                  BSS            0002:00005f6c  ! 00000000
/mnt/sda5/.user/root/src/openwatcom-1.9/bld/plusplus/cpplib/iostream/cpp/stfdestr.cpp
                _TEXT                 CODE           0001:0001cb6f  ! 0000004a
                CONST                 DATA           0002:00000509  ! 00000000
                CONST2                DATA           0002:00003880  ! 00000000
                _DATA                 DATA           0002:00004ab3  ! 00000000
                _BSS                  BSS            0002:00005f6c  ! 00000000
/mnt/sda5/.user/root/src/openwatcom-1.9/bld/plusplus/cpplib/iostream/cpp/stfdoall.cpp
                _TEXT                 CODE           0001:0001cbb9  ! 00000122
                CONST                 DATA           0002:00000509  ! 00000000
                CONST2                DATA           0002:00003880  ! 0000000c
                _DATA                 DATA           0002:00004ab3  ! 00000000
                _BSS                  BSS            0002:00005f6c  ! 00000000
/mnt/sda5/.user/root/src/openwatcom-1.9/bld/plusplus/cpplib/iostream/cpp/stfdsgtn.cpp
                _TEXT                 CODE           0001:0001ccdb  ! 000001f3
                CONST                 DATA           0002:00000509  ! 00000000
                CONST2                DATA           0002:00003890  ! 0000000c
                _DATA                 DATA           0002:00004ab3  ! 00000000
                _BSS                  BSS            0002:00005f6c  ! 00000000
/mnt/sda5/.user/root/src/openwatcom-1.9/bld/plusplus/cpplib/iostream/cpp/stfdspun.cpp
                _TEXT                 CODE           0001:0001cece  ! 000002be
                CONST                 DATA           0002:00000509  ! 00000000
                CONST2                DATA           0002:000038a0  ! 0000000c
                _DATA                 DATA           0002:00004ab3  ! 00000000
                _BSS                  BSS            0002:00005f6c  ! 00000000
/mnt/sda5/.user/root/src/openwatcom-1.9/bld/plusplus/cpplib/iostream/cpp/stfpbfai.cpp
                _TEXT                 CODE           0001:0001d18c  ! 0000002d
                CONST                 DATA           0002:00000509  ! 00000000
                CONST2                DATA           0002:000038b0  ! 00000000
                _DATA                 DATA           0002:00004ab3  ! 00000000
                _BSS                  BSS            0002:00005f6c  ! 00000000
/mnt/sda5/.user/root/src/openwatcom-1.9/bld/plusplus/cpplib/iostream/cpp/stfsbuf.cpp
                _TEXT                 CODE           0001:0001d1b9  ! 00000177
                CONST                 DATA           0002:00000509  ! 00000000
                CONST2                DATA           0002:000038b0  ! 0000000c
                _DATA                 DATA           0002:00004ab3  ! 00000000
                _BSS                  BSS            0002:00005f6c  ! 00000000
/mnt/sda5/.user/root/src/openwatcom-1.9/bld/plusplus/cpplib/iostream/cpp/stfseeko.cpp
                _TEXT                 CODE           0001:0001d330  ! 0000002f
                CONST                 DATA           0002:00000509  ! 00000000
                CONST2                DATA           0002:000038c0  ! 00000000
                _DATA                 DATA           0002:00004ab3  ! 00000000
                _BSS                  BSS            0002:00005f6c  ! 00000000
/mnt/sda5/.user/root/src/openwatcom-1.9/bld/plusplus/cpplib/iostream/cpp/stfseekp.cpp
                _TEXT                 CODE           0001:0001d35f  ! 00000044
                CONST                 DATA           0002:00000509  ! 00000000
                CONST2                DATA           0002:000038c0  ! 00000000
                _DATA                 DATA           0002:00004ab3  ! 00000000
                _BSS                  BSS            0002:00005f6c  ! 00000000
/mnt/sda5/.user/root/src/openwatcom-1.9/bld/plusplus/cpplib/iostream/cpp/stfsetb.cpp
                _TEXT                 CODE           0001:0001d3a3  ! 00000145
                CONST                 DATA           0002:00000509  ! 00000000
                CONST2                DATA           0002:000038c0  ! 0000000c
                _DATA                 DATA           0002:00004ab3  ! 00000000
                _BSS                  BSS            0002:00005f6c  ! 00000000
/mnt/sda5/.user/root/src/openwatcom-1.9/bld/plusplus/cpplib/iostream/cpp/stfsync.cpp
                _TEXT                 CODE           0001:0001d4e8  ! 000000b9
                CONST                 DATA           0002:00000509  ! 00000000
                CONST2                DATA           0002:000038d0  ! 00000000
                _DATA                 DATA           0002:00004ab3  ! 00000000
                _BSS                  BSS            0002:00005f6c  ! 00000000
/mnt/sda5/.user/root/src/openwatcom-1.9/bld/plusplus/cpplib/string/cpp/allocrep.cpp
                _TEXT                 CODE           0001:0001d5a1  ! 0000008d
                CONST                 DATA           0002:00000509  ! 00000000
                CONST2                DATA           0002:000038d0  ! 00000004
                _DATA                 DATA           0002:00004ab4  ! 00000004
                _BSS                  BSS            0002:00005f6c  ! 00000004
/mnt/sda5/.user/root/src/openwatcom-1.9/bld/plusplus/cpplib/string/cpp/allomusz.cpp
                _TEXT                 CODE           0001:0001d62e  ! 00000051
                CONST                 DATA           0002:00000509  ! 00000000
                CONST2                DATA           0002:000038e0  ! 00000004
                _DATA                 DATA           0002:00004ab8  ! 00000000
                _BSS                  BSS            0002:00005f70  ! 00000000
/mnt/sda5/.user/root/src/openwatcom-1.9/bld/plusplus/cpplib/string/cpp/constrch.cpp
                _TEXT                 CODE           0001:0001d67f  ! 00000094
                CONST                 DATA           0002:00000509  ! 00000000
                CONST2                DATA           0002:000038f0  ! 00000004
                _DATA                 DATA           0002:00004ab8  ! 00000000
                _BSS                  BSS            0002:00005f70  ! 00000000
/mnt/sda5/.user/root/src/openwatcom-1.9/bld/plusplus/cpplib/string/cpp/destruct.cpp
                _TEXT                 CODE           0001:0001d713  ! 0000004e
                CONST                 DATA           0002:00000509  ! 00000000
                CONST2                DATA           0002:00003900  ! 00000004
                _DATA                 DATA           0002:00004ab8  ! 00000000
                _BSS                  BSS            0002:00005f70  ! 00000004
/mnt/sda5/.user/root/src/openwatcom-1.9/bld/plusplus/cpplib/string/cpp/opcostsc.cpp
                _TEXT                 CODE           0001:0001d761  ! 0000004d
                CONST                 DATA           0002:00000509  ! 00000000
                CONST2                DATA           0002:00003910  ! 00000004
                _DATA                 DATA           0002:00004ab8  ! 00000000
                _BSS                  BSS            0002:00005f74  ! 00000000
/mnt/sda5/.user/root/src/openwatcom-1.9/bld/plusplus/cpplib/string/cpp/opasstcs.cpp
                _TEXT                 CODE           0001:0001d7ae  ! 000000a7
                CONST                 DATA           0002:00000509  ! 00000000
                CONST2                DATA           0002:00003920  ! 00000004
                _DATA                 DATA           0002:00004ab8  ! 00000000
                _BSS                  BSS            0002:00005f74  ! 00000000
/mnt/sda5/.user/root/src/openwatcom-1.9/bld/plusplus/cpplib/string/cpp/opappcst.cpp
                _TEXT                 CODE           0001:0001d855  ! 00000087
                CONST                 DATA           0002:00000509  ! 00000000
                CONST2                DATA           0002:00003930  ! 00000004
                _DATA                 DATA           0002:00004ab8  ! 00000000
                _BSS                  BSS            0002:00005f74  ! 00000000
/mnt/sda5/.user/root/src/openwatcom-1.9/bld/plusplus/cpplib/string/cpp/opsubstr.cpp
                _TEXT                 CODE           0001:0001d8dc  ! 0000016b
                CONST                 DATA           0002:00000509  ! 00000000
                CONST2                DATA           0002:00003940  ! 00000010
                _DATA                 DATA           0002:00004ab8  ! 00000000
                _BSS                  BSS            0002:00005f74  ! 00000000
                _TEXT                 CODE           0001:0001da47 c! 00000034
                CONST2                DATA           0002:00003950 c! 00000018
                _DATA                 DATA           0002:00004ab8 c! 0000000e
/mnt/sda5/.user/root/src/openwatcom-1.9/bld/plusplus/cpplib/string/cpp/oprfchar.cpp
                _TEXT                 CODE           0001:0001da7b  ! 000000d7
                CONST                 DATA           0002:00000509  ! 00000000
                CONST2                DATA           0002:00003970  ! 00000004
                _DATA                 DATA           0002:00004ac6  ! 00000000
                _BSS                  BSS            0002:00005f74  ! 00000001
/mnt/sda5/.user/root/src/openwatcom-1.9/bld/plusplus/cpplib/string/cpp/zapcase.cpp
                _TEXT                 CODE           0001:0001db52  ! 00000151
                CONST                 DATA           0002:00000509  ! 00000000
                CONST2                DATA           0002:00003980  ! 00000010
                _DATA                 DATA           0002:00004ac6  ! 00000000
                _BSS                  BSS            0002:00005f75  ! 00000000
/mnt/sda5/.user/root/src/openwatcom-1.9/bld/plusplus/cpplib/string/cpp/compstr.cpp
                _TEXT                 CODE           0001:0001dca3  ! 0000008d
                CONST                 DATA           0002:00000509  ! 00000000
                CONST2                DATA           0002:00003990  ! 00000004
                _DATA                 DATA           0002:00004ac6  ! 00000000
                _BSS                  BSS            0002:00005f75  ! 00000000
/mnt/sda5/.user/root/src/openwatcom-1.9/bld/plusplus/cpplib/string/cpp/opeqchst.cpp
                _TEXT                 CODE           0001:0001dd30  ! 00000061
                CONST                 DATA           0002:00000509  ! 00000000
                CONST2                DATA           0002:000039a0  ! 00000004
                _DATA                 DATA           0002:00004ac6  ! 00000000
                _BSS                  BSS            0002:00005f75  ! 00000000
/mnt/sda5/.user/root/src/openwatcom-1.9/bld/plusplus/cpplib/string/cpp/opnechst.cpp
                _TEXT                 CODE           0001:0001dd91  ! 00000061
                CONST                 DATA           0002:00000509  ! 00000000
                CONST2                DATA           0002:000039b0  ! 00000004
                _DATA                 DATA           0002:00004ac6  ! 00000000
                _BSS                  BSS            0002:00005f75  ! 00000000
/mnt/sda5/.user/root/src/openwatcom-1.9/bld/plusplus/cpplib/string/cpp/oplqchst.cpp
                _TEXT                 CODE           0001:0001ddf2  ! 00000061
                CONST                 DATA           0002:00000509  ! 00000000
                CONST2                DATA           0002:000039c0  ! 00000004
                _DATA                 DATA           0002:00004ac6  ! 00000000
                _BSS                  BSS            0002:00005f75  ! 00000000
/mnt/sda5/.user/root/src/openwatcom-1.9/bld/plusplus/cpplib/string/cpp/opgrchst.cpp
                _TEXT                 CODE           0001:0001de53  ! 00000061
                CONST                 DATA           0002:00000509  ! 00000000
                CONST2                DATA           0002:000039d0  ! 00000004
                _DATA                 DATA           0002:00004ac6  ! 00000000
                _BSS                  BSS            0002:00005f75  ! 00000000
/mnt/sda5/.user/root/src/openwatcom-1.9/bld/plusplus/cpplib/string/cpp/opgqchst.cpp
                _TEXT                 CODE           0001:0001deb4  ! 00000061
                CONST                 DATA           0002:00000509  ! 00000000
                CONST2                DATA           0002:000039e0  ! 00000004
                _DATA                 DATA           0002:00004ac6  ! 00000000
                _BSS                  BSS            0002:00005f75  ! 00000000
/mnt/sda5/.user/root/src/openwatcom-1.9/bld/plusplus/cpplib/string/cpp/opcachst.cpp
                _TEXT                 CODE           0001:0001df15  ! 00000218
                CONST                 DATA           0002:00000509  ! 00000000
                CONST2                DATA           0002:000039f0  ! 00000030
                _DATA                 DATA           0002:00004ac6  ! 00000000
                _BSS                  BSS            0002:00005f75  ! 00000000
/mnt/sda5/.user/root/src/openwatcom-1.9/bld/plusplus/cpplib/string/cpp/opinput.cpp
                _TEXT                 CODE           0001:0001e12d  ! 0000017a
                CONST                 DATA           0002:00000509  ! 00000000
                CONST2                DATA           0002:00003a20  ! 00000004
                _DATA                 DATA           0002:00004ac6  ! 00000000
                _BSS                  BSS            0002:00005f75  ! 00000000
/mnt/sda5/.user/root/src/openwatcom-1.9/bld/plusplus/cpplib/string/cpp/opoutput.cpp
                _TEXT                 CODE           0001:0001e2a7  ! 00000051
                CONST                 DATA           0002:00000509  ! 00000000
                CONST2                DATA           0002:00003a30  ! 00000004
                _DATA                 DATA           0002:00004ac6  ! 00000000
                _BSS                  BSS            0002:00005f75  ! 00000000
/mnt/sda5/.user/root/src/openwatcom-1.9/bld/plusplus/cpplib/string/cpp/matchcst.cpp
                _TEXT                 CODE           0001:0001e2f8  ! 00000068
                CONST                 DATA           0002:00000509  ! 00000000
                CONST2                DATA           0002:00003a40  ! 00000004
                _DATA                 DATA           0002:00004ac6  ! 00000000
                _BSS                  BSS            0002:00005f75  ! 00000000
/mnt/sda5/.user/root/src/openwatcom-1.9/bld/plusplus/cpplib/string/cpp/joinstr.cpp
                _TEXT                 CODE           0001:0001e360  ! 000000b8
                CONST                 DATA           0002:00000509  ! 00000000
                CONST2                DATA           0002:00003a50  ! 00000004
                _DATA                 DATA           0002:00004ac6  ! 00000000
                _BSS                  BSS            0002:00005f75  ! 00000000
/mnt/sda5/.user/root/src/openwatcom-1.9/bld/plusplus/cpplib/string/cpp/freestr.cpp
                _TEXT                 CODE           0001:0001e418  ! 00000068
                CONST                 DATA           0002:00000509  ! 00000000
                CONST2                DATA           0002:00003a60  ! 00000004
                _DATA                 DATA           0002:00004ac6  ! 00000000
                _BSS                  BSS            0002:00005f75  ! 00000000
/mnt/sda5/.user/root/src/openwatcom-1.9/bld/plusplus/cpplib/string/cpp/indexcha.cpp
                _TEXT                 CODE           0001:0001e480  ! 000000a0
                CONST                 DATA           0002:00000509  ! 00000000
                CONST2                DATA           0002:00003a70  ! 00000004
                _DATA                 DATA           0002:00004ac6  ! 00000000
                _BSS                  BSS            0002:00005f75  ! 00000000
/mnt/sda5/.user/root/src/openwatcom-1.9/bld/plusplus/cpplib/string/cpp/appendst.cpp
                _TEXT                 CODE           0001:0001e520  ! 00000193
                CONST                 DATA           0002:00000509  ! 00000000
                CONST2                DATA           0002:00003a80  ! 00000004
                _DATA                 DATA           0002:00004ac6  ! 00000000
                _BSS                  BSS            0002:00005f75  ! 00000000
/mnt/sda5/.user/root/src/openwatcom-1.9/bld/plusplus/cpplib/string/cpp/indexstr.cpp
                _TEXT                 CODE           0001:0001e6b3  ! 000000a9
                CONST                 DATA           0002:00000509  ! 00000000
                CONST2                DATA           0002:00003a90  ! 00000004
                _DATA                 DATA           0002:00004ac6  ! 00000000
                _BSS                  BSS            0002:00005f75  ! 00000000
/mnt/sda5/.user/root/src/openwatcom-1.9/bld/plusplus/cpplib/string/cpp/condefau.cpp
                _TEXT                 CODE           0001:0001e75c  ! 00000059
                CONST                 DATA           0002:00000509  ! 00000000
                CONST2                DATA           0002:00003aa0  ! 00000004
                _DATA                 DATA           0002:00004ac6  ! 00000000
                _BSS                  BSS            0002:00005f75  ! 00000000
/mnt/sda5/.user/root/src/openwatcom-1.9/bld/plusplus/cpplib/string/cpp/constrst.cpp
                _TEXT                 CODE           0001:0001e7b5  ! 000000be
                CONST                 DATA           0002:00000509  ! 00000000
                CONST2                DATA           0002:00003ab0  ! 00000004
                _DATA                 DATA           0002:00004ac6  ! 00000000
                _BSS                  BSS            0002:00005f75  ! 00000000
/mnt/sda5/.user/root/src/openwatcom-1.9/bld/plusplus/cpplib/string/cpp/constcst.cpp
                _TEXT                 CODE           0001:0001e873  ! 000000a8
                CONST                 DATA           0002:00000509  ! 00000000
                CONST2                DATA           0002:00003ac0  ! 00000004
                _DATA                 DATA           0002:00004ac6  ! 00000000
                _BSS                  BSS            0002:00005f75  ! 00000000
/mnt/sda5/.user/root/src/openwatcom-1.9/bld/plusplus/cpplib/string/cpp/matchs.cpp
                _TEXT                 CODE           0001:0001e91b  ! 00000071
                CONST                 DATA           0002:00000509  ! 00000000
                CONST2                DATA           0002:00003ad0  ! 00000004
                _DATA                 DATA           0002:00004ac6  ! 00000000
                _BSS                  BSS            0002:00005f75  ! 00000000
/mnt/sda5/.user/root/src/openwatcom-1.9/bld/plusplus/cpplib/string/cpp/opappstr.cpp
                _TEXT                 CODE           0001:0001e98c  ! 00000078
                CONST                 DATA           0002:00000509  ! 00000000
                CONST2                DATA           0002:00003ae0  ! 00000004
                _DATA                 DATA           0002:00004ac6  ! 00000000
                _BSS                  BSS            0002:00005f75  ! 00000000
/mnt/sda5/.user/root/src/openwatcom-1.9/bld/plusplus/cpplib/string/cpp/opcastst.cpp
                _TEXT                 CODE           0001:0001ea04  ! 000001f1
                CONST                 DATA           0002:00000509  ! 00000000
                CONST2                DATA           0002:00003af0  ! 00000030
                _DATA                 DATA           0002:00004ac6  ! 00000000
                _BSS                  BSS            0002:00005f75  ! 00000000
/mnt/sda5/.user/root/src/openwatcom-1.9/bld/plusplus/cpplib/string/cpp/opcastch.cpp
                _TEXT                 CODE           0001:0001ebf5  ! 00000207
                CONST                 DATA           0002:00000509  ! 00000000
                CONST2                DATA           0002:00003b20  ! 00000030
                _DATA                 DATA           0002:00004ac6  ! 00000000
                _BSS                  BSS            0002:00005f75  ! 00000000
/mnt/sda5/.user/root/src/openwatcom-1.9/bld/plusplus/cpplib/string/cpp/opcostch.cpp
                _TEXT                 CODE           0001:0001edfc  ! 000000cc
                CONST                 DATA           0002:00000509  ! 00000000
                CONST2                DATA           0002:00003b50  ! 00000004
                _DATA                 DATA           0002:00004ac6  ! 00000000
                _BSS                  BSS            0002:00005f75  ! 00000000
/mnt/sda5/.user/root/src/openwatcom-1.9/bld/plusplus/cpplib/string/cpp/opco1sch.cpp
                _TEXT                 CODE           0001:0001eec8  ! 00000036
                CONST                 DATA           0002:00000509  ! 00000000
                CONST2                DATA           0002:00003b60  ! 00000004
                _DATA                 DATA           0002:00004ac6  ! 00000000
                _BSS                  BSS            0002:00005f75  ! 00000000
/mnt/sda5/.user/root/src/openwatcom-1.9/bld/plusplus/cpplib/string/cpp/opgrstst.cpp
                _TEXT                 CODE           0001:0001eefe  ! 0000004b
                CONST                 DATA           0002:00000509  ! 00000000
                CONST2                DATA           0002:00003b70  ! 00000004
                _DATA                 DATA           0002:00004ac6  ! 00000000
                _BSS                  BSS            0002:00005f75  ! 00000000
/mnt/sda5/.user/root/src/openwatcom-1.9/bld/plusplus/cpplib/string/cpp/opgrstch.cpp
                _TEXT                 CODE           0001:0001ef49  ! 00000063
                CONST                 DATA           0002:00000509  ! 00000000
                CONST2                DATA           0002:00003b80  ! 00000004
                _DATA                 DATA           0002:00004ac6  ! 00000000
                _BSS                  BSS            0002:00005f75  ! 00000000
/mnt/sda5/.user/root/src/openwatcom-1.9/bld/plusplus/cpplib/string/cpp/opeqstst.cpp
                _TEXT                 CODE           0001:0001efac  ! 0000004b
                CONST                 DATA           0002:00000509  ! 00000000
                CONST2                DATA           0002:00003b90  ! 00000004
                _DATA                 DATA           0002:00004ac6  ! 00000000
                _BSS                  BSS            0002:00005f75  ! 00000000
/mnt/sda5/.user/root/src/openwatcom-1.9/bld/plusplus/cpplib/string/cpp/opeqstch.cpp
                _TEXT                 CODE           0001:0001eff7  ! 00000063
                CONST                 DATA           0002:00000509  ! 00000000
                CONST2                DATA           0002:00003ba0  ! 00000004
                _DATA                 DATA           0002:00004ac6  ! 00000000
                _BSS                  BSS            0002:00005f75  ! 00000000
/mnt/sda5/.user/root/src/openwatcom-1.9/bld/plusplus/cpplib/string/cpp/oplqstst.cpp
                _TEXT                 CODE           0001:0001f05a  ! 0000004b
                CONST                 DATA           0002:00000509  ! 00000000
                CONST2                DATA           0002:00003bb0  ! 00000004
                _DATA                 DATA           0002:00004ac6  ! 00000000
                _BSS                  BSS            0002:00005f75  ! 00000000
/mnt/sda5/.user/root/src/openwatcom-1.9/bld/plusplus/cpplib/string/cpp/oplqstch.cpp
                _TEXT                 CODE           0001:0001f0a5  ! 00000063
                CONST                 DATA           0002:00000509  ! 00000000
                CONST2                DATA           0002:00003bc0  ! 00000004
                _DATA                 DATA           0002:00004ac6  ! 00000000
                _BSS                  BSS            0002:00005f75  ! 00000000
/mnt/sda5/.user/root/src/openwatcom-1.9/bld/plusplus/cpplib/string/cpp/oplestst.cpp
                _TEXT                 CODE           0001:0001f108  ! 0000004b
                CONST                 DATA           0002:00000509  ! 00000000
                CONST2                DATA           0002:00003bd0  ! 00000004
                _DATA                 DATA           0002:00004ac6  ! 00000000
                _BSS                  BSS            0002:00005f75  ! 00000000
/mnt/sda5/.user/root/src/openwatcom-1.9/bld/plusplus/cpplib/string/cpp/oplestch.cpp
                _TEXT                 CODE           0001:0001f153  ! 00000063
                CONST                 DATA           0002:00000509  ! 00000000
                CONST2                DATA           0002:00003be0  ! 00000004
                _DATA                 DATA           0002:00004ac6  ! 00000000
                _BSS                  BSS            0002:00005f75  ! 00000000
/mnt/sda5/.user/root/src/openwatcom-1.9/bld/plusplus/cpplib/string/cpp/oplechst.cpp
                _TEXT                 CODE           0001:0001f1b6  ! 00000061
                CONST                 DATA           0002:00000509  ! 00000000
                CONST2                DATA           0002:00003bf0  ! 00000004
                _DATA                 DATA           0002:00004ac6  ! 00000000
                _BSS                  BSS            0002:00005f75  ! 00000000
/mnt/sda5/.user/root/src/openwatcom-1.9/bld/plusplus/cpplib/string/cpp/opnestst.cpp
                _TEXT                 CODE           0001:0001f217  ! 0000004b
                CONST                 DATA           0002:00000509  ! 00000000
                CONST2                DATA           0002:00003c00  ! 00000004
                _DATA                 DATA           0002:00004ac6  ! 00000000
                _BSS                  BSS            0002:00005f75  ! 00000000
/mnt/sda5/.user/root/src/openwatcom-1.9/bld/plusplus/cpplib/string/cpp/opnestch.cpp
                _TEXT                 CODE           0001:0001f262  ! 00000063
                CONST                 DATA           0002:00000509  ! 00000000
                CONST2                DATA           0002:00003c10  ! 00000004
                _DATA                 DATA           0002:00004ac6  ! 00000000
                _BSS                  BSS            0002:00005f75  ! 00000000
/mnt/sda5/.user/root/src/openwatcom-1.9/bld/plusplus/cpplib/string/cpp/opgqstst.cpp
                _TEXT                 CODE           0001:0001f2c5  ! 0000004b
                CONST                 DATA           0002:00000509  ! 00000000
                CONST2                DATA           0002:00003c20  ! 00000004
                _DATA                 DATA           0002:00004ac6  ! 00000000
                _BSS                  BSS            0002:00005f75  ! 00000000
/mnt/sda5/.user/root/src/openwatcom-1.9/bld/plusplus/cpplib/string/cpp/opgqstch.cpp
                _TEXT                 CODE           0001:0001f310  ! 00000063
                CONST                 DATA           0002:00000509  ! 00000000
                CONST2                DATA           0002:00003c30  ! 00000004
                _DATA                 DATA           0002:00004ac6  ! 00000000
                _BSS                  BSS            0002:00005f75  ! 00000000
/mnt/sda5/.user/root/src/openwatcom-1.9/bld/plusplus/cpplib/string/cpp/opasstst.cpp
                _TEXT                 CODE           0001:0001f373  ! 00000081
                CONST                 DATA           0002:00000509  ! 00000000
                CONST2                DATA           0002:00003c40  ! 00000004
                _DATA                 DATA           0002:00004ac6  ! 00000000
                _BSS                  BSS            0002:00005f75  ! 00000000
/mnt/sda5/.user/root/src/openwatcom-1.9/bld/plusplus/cpplib/string/cpp/opcrchar.cpp
                _TEXT                 CODE           0001:0001f3f4  ! 00000058
                CONST                 DATA           0002:00000509  ! 00000000
                CONST2                DATA           0002:00003c50  ! 00000004
                _DATA                 DATA           0002:00004ac6  ! 00000000
                _BSS                  BSS            0002:00005f75  ! 00000000
/mnt/sda5/.user/root/src/openwatcom-1.9/bld/plusplus/cpplib/string/cpp/conszcap.cpp
                _TEXT                 CODE           0001:0001f44c  ! 000000a3
                CONST                 DATA           0002:00000509  ! 00000000
                CONST2                DATA           0002:00003c60  ! 00000004
                _DATA                 DATA           0002:00004ac6  ! 00000000
                _BSS                  BSS            0002:00005f75  ! 00000000
/mnt/sda5/.user/root/src/openwatcom-1.9/bld/plusplus/cpplib/string/cpp/opeqcrst.cpp
                _TEXT                 CODE           0001:0001f4ef  ! 00000061
                CONST                 DATA           0002:00000509  ! 00000000
                CONST2                DATA           0002:00003c70  ! 00000004
                _DATA                 DATA           0002:00004ac6  ! 00000000
                _BSS                  BSS            0002:00005f75  ! 00000000
/mnt/sda5/.user/root/src/openwatcom-1.9/bld/plusplus/cpplib/string/cpp/opnecrst.cpp
                _TEXT                 CODE           0001:0001f550  ! 00000061
                CONST                 DATA           0002:00000509  ! 00000000
                CONST2                DATA           0002:00003c80  ! 00000004
                _DATA                 DATA           0002:00004ac6  ! 00000000
                _BSS                  BSS            0002:00005f75  ! 00000000
/mnt/sda5/.user/root/src/openwatcom-1.9/bld/plusplus/cpplib/string/cpp/oplecrst.cpp
                _TEXT                 CODE           0001:0001f5b1  ! 00000061
                CONST                 DATA           0002:00000509  ! 00000000
                CONST2                DATA           0002:00003c90  ! 00000004
                _DATA                 DATA           0002:00004ac6  ! 00000000
                _BSS                  BSS            0002:00005f75  ! 00000000
/mnt/sda5/.user/root/src/openwatcom-1.9/bld/plusplus/cpplib/string/cpp/oplqcrst.cpp
                _TEXT                 CODE           0001:0001f612  ! 00000061
                CONST                 DATA           0002:00000509  ! 00000000
                CONST2                DATA           0002:00003ca0  ! 00000004
                _DATA                 DATA           0002:00004ac6  ! 00000000
                _BSS                  BSS            0002:00005f75  ! 00000000
/mnt/sda5/.user/root/src/openwatcom-1.9/bld/plusplus/cpplib/string/cpp/opgrcrst.cpp
                _TEXT                 CODE           0001:0001f673  ! 00000061
                CONST                 DATA           0002:00000509  ! 00000000
                CONST2                DATA           0002:00003cb0  ! 00000004
                _DATA                 DATA           0002:00004ac6  ! 00000000
                _BSS                  BSS            0002:00005f75  ! 00000000
/mnt/sda5/.user/root/src/openwatcom-1.9/bld/plusplus/cpplib/string/cpp/opgqcrst.cpp
                _TEXT                 CODE           0001:0001f6d4  ! 00000061
                CONST                 DATA           0002:00000509  ! 00000000
                CONST2                DATA           0002:00003cc0  ! 00000004
                _DATA                 DATA           0002:00004ac6  ! 00000000
                _BSS                  BSS            0002:00005f75  ! 00000000
/mnt/sda5/.user/root/src/openwatcom-1.9/bld/plusplus/cpplib/string/cpp/opcacrst.cpp
                _TEXT                 CODE           0001:0001f735  ! 000001f2
                CONST                 DATA           0002:00000509  ! 00000000
                CONST2                DATA           0002:00003cd0  ! 00000030
                _DATA                 DATA           0002:00004ac6  ! 00000000
                _BSS                  BSS            0002:00005f75  ! 00000000
/mnt/sda5/.user/root/src/openwatcom-1.9/bld/plusplus/cpplib/string/cpp/opeqstcr.cpp
                _TEXT                 CODE           0001:0001f927  ! 00000063
                CONST                 DATA           0002:00000509  ! 00000000
                CONST2                DATA           0002:00003d00  ! 00000004
                _DATA                 DATA           0002:00004ac6  ! 00000000
                _BSS                  BSS            0002:00005f75  ! 00000000
/mnt/sda5/.user/root/src/openwatcom-1.9/bld/plusplus/cpplib/string/cpp/opnestcr.cpp
                _TEXT                 CODE           0001:0001f98a  ! 00000063
                CONST                 DATA           0002:00000509  ! 00000000
                CONST2                DATA           0002:00003d10  ! 00000004
                _DATA                 DATA           0002:00004ac6  ! 00000000
                _BSS                  BSS            0002:00005f75  ! 00000000
/mnt/sda5/.user/root/src/openwatcom-1.9/bld/plusplus/cpplib/string/cpp/opgrstcr.cpp
                _TEXT                 CODE           0001:0001f9ed  ! 00000063
                CONST                 DATA           0002:00000509  ! 00000000
                CONST2                DATA           0002:00003d20  ! 00000004
                _DATA                 DATA           0002:00004ac6  ! 00000000
                _BSS                  BSS            0002:00005f75  ! 00000000
/mnt/sda5/.user/root/src/openwatcom-1.9/bld/plusplus/cpplib/string/cpp/opgqstcr.cpp
                _TEXT                 CODE           0001:0001fa50  ! 00000063
                CONST                 DATA           0002:00000509  ! 00000000
                CONST2                DATA           0002:00003d30  ! 00000004
                _DATA                 DATA           0002:00004ac6  ! 00000000
                _BSS                  BSS            0002:00005f75  ! 00000000
/mnt/sda5/.user/root/src/openwatcom-1.9/bld/plusplus/cpplib/string/cpp/oplestcr.cpp
                _TEXT                 CODE           0001:0001fab3  ! 00000063
                CONST                 DATA           0002:00000509  ! 00000000
                CONST2                DATA           0002:00003d40  ! 00000004
                _DATA                 DATA           0002:00004ac6  ! 00000000
                _BSS                  BSS            0002:00005f75  ! 00000000
/mnt/sda5/.user/root/src/openwatcom-1.9/bld/plusplus/cpplib/string/cpp/oplqstcr.cpp
                _TEXT                 CODE           0001:0001fb16  ! 00000063
                CONST                 DATA           0002:00000509  ! 00000000
                CONST2                DATA           0002:00003d50  ! 00000004
                _DATA                 DATA           0002:00004ac6  ! 00000000
                _BSS                  BSS            0002:00005f75  ! 00000000
/mnt/sda5/.user/root/src/openwatcom-1.9/bld/plusplus/cpplib/string/cpp/opcastcr.cpp
                _TEXT                 CODE           0001:0001fb79  ! 000001ef
                CONST                 DATA           0002:00000509  ! 00000000
                CONST2                DATA           0002:00003d60  ! 00000030
                _DATA                 DATA           0002:00004ac6  ! 00000000
                _BSS                  BSS            0002:00005f75  ! 00000000
/mnt/sda5/.user/root/src/openwatcom-1.9/bld/plusplus/cpplib/contain/cpp/wcexcept.cpp
                _TEXT                 CODE           0001:0001fd68  ! 000003ab
                CONST                 DATA           0002:00000509  ! 00000000
                CONST2                DATA           0002:00003d90  ! 00000000
                _DATA                 DATA           0002:00004ac6  ! 00000000
                _BSS                  BSS            0002:00005f75  ! 00000000
                _TEXT                 CODE           0001:00020113 c! 0000004e
                _TEXT                 CODE           0001:00020161 c! 0000002c
                _TEXT                 CODE           0001:0002018d c! 0000004e
                _TEXT                 CODE           0001:000201db c! 0000002c
                CONST2                DATA           0002:00003d90 c! 0000001c
                CONST2                DATA           0002:00003db0 c! 0000001c
                CONST2                DATA           0002:00003dd0 c! 00000018
                _DATA                 DATA           0002:00004ac6 c! 0000001d
                CONST2                DATA           0002:00003df0 c! 00000018
                _DATA                 DATA           0002:00004ae3 c! 00000019
/mnt/sda5/.user/root/src/openwatcom-1.9/bld/plusplus/cpplib/contain/cpp/wchash.cpp
                _TEXT                 CODE           0001:00020207  ! 000013e9
                CONST                 DATA           0002:00000509  ! 00000000
                CONST2                DATA           0002:00003e10  ! 000001e4
                _DATA                 DATA           0002:00004afc  ! 00000000
                _BSS                  BSS            0002:00005f75  ! 00000000
                _TEXT                 CODE           0001:000215f0 c! 0000003e
                _TEXT                 CODE           0001:0002162e c! 000000b6
                _TEXT                 CODE           0001:000216e4 c! 0000003e
                _TEXT                 CODE           0001:00021722 c! 000000b6
                _TEXT                 CODE           0001:000217d8 c! 000000a8
                _TEXT                 CODE           0001:00021880 c! 000000b2
                _TEXT                 CODE           0001:00021932 c! 00000086
                _TEXT                 CODE           0001:000219b8 c! 0000002b
                _TEXT                 CODE           0001:000219e3 c! 00000046
                _TEXT                 CODE           0001:00021a29 c! 00000069
                _TEXT                 CODE           0001:00021a92 c! 00000140
                _TEXT                 CODE           0001:00021bd2 c! 00000133
                _TEXT                 CODE           0001:00021d05 c! 000000a9
                _TEXT                 CODE           0001:00021dae c! 00000111
                _TEXT                 CODE           0001:00021ebf c! 00000143
                _TEXT                 CODE           0001:00022002 c! 00000127
                _TEXT                 CODE           0001:00022129 c! 000000de
                _TEXT                 CODE           0001:00022207 c! 000000e8
                CONST2                DATA           0002:00004000 c! 00000008
                CONST2                DATA           0002:00004010 c! 00000008
                CONST2                DATA           0002:00004020 c! 0000000c
                CONST2                DATA           0002:00004030 c! 00000008
                CONST2                DATA           0002:00004040 c! 00000020
                CONST2                DATA           0002:00004060 c! 0000000c
                CONST2                DATA           0002:00004070 c! 0000000c
                CONST2                DATA           0002:00004080 c! 0000000c
                CONST2                DATA           0002:00004090 c! 00000008
                CONST2                DATA           0002:000040a0 c! 00000008
                CONST2                DATA           0002:000040b0 c! 00000018
                CONST2                DATA           0002:000040d0 c! 00000018
                CONST2                DATA           0002:000040f0 c! 00000018
                CONST2                DATA           0002:00004110 c! 00000018
                CONST2                DATA           0002:00004130 c! 00000034
                CONST2                DATA           0002:00004170 c! 00000028
                CONST2                DATA           0002:000041a0 c! 00000040
                CONST2                DATA           0002:000041e0 c! 00000034
                CONST2                DATA           0002:00004220 c! 00000028
                CONST2                DATA           0002:00004250 c! 0000001c
                CONST2                DATA           0002:00004270 c! 0000001c
                CONST2                DATA           0002:00004290 c! 0000001c
                CONST2                DATA           0002:000042b0 c! 00000010
                _DATA                 DATA           0002:00004afc c! 00000012
                _DATA                 DATA           0002:00004b0e c! 00000015
                _DATA                 DATA           0002:00004b23 c! 00000024
                _DATA                 DATA           0002:00004b47 c! 0000003d
                _DATA                 DATA           0002:00004b84 c! 00000016
                _DATA                 DATA           0002:00004b9a c! 0000003d
                _DATA                 DATA           0002:00004bd7 c! 00000020
                _DATA                 DATA           0002:00004bf7 c! 00000024
                _DATA                 DATA           0002:00004c1b c! 00000014
                CONST2                DATA           0002:000042c0 c! 00000010
                _DATA                 DATA           0002:00004c2f c! 00000010
/mnt/sda5/.user/root/src/openwatcom-1.9/bld/plusplus/cpplib/contain/cpp/wclist.cpp
                _TEXT                 CODE           0001:000222ef  ! 0000082b
                CONST                 DATA           0002:00000509  ! 00000000
                CONST2                DATA           0002:000042d0  ! 00000034
                _DATA                 DATA           0002:00004c3f  ! 00000000
                _BSS                  BSS            0002:00005f75  ! 00000000
/mnt/sda5/.user/root/src/openwatcom-1.9/bld/plusplus/cpplib/contain/cpp/wcskip.cpp
                _TEXT                 CODE           0001:00022b1a  ! 00000c2b
                CONST                 DATA           0002:00000509  ! 00000000
                CONST2                DATA           0002:00004310  ! 00000038
                _DATA                 DATA           0002:00004c40  ! 00000004
                _BSS                  BSS            0002:00005f78  ! 00000004
                XIB                   DATA           0002:00005ca4  ! 00000000
                XI                    DATA           0002:00005cf2  ! 00000006
                XIE                   DATA           0002:00005cf8  ! 00000000
                _TEXT                 CODE           0001:00023745 c! 0000007c
                CONST2                DATA           0002:00004350 c! 0000001c
                CONST2                DATA           0002:00004370 c! 0000001c
                _DATA                 DATA           0002:00004c44 c! 00000019
/mnt/sda5/.user/root/src/openwatcom-1.9/bld/clib/startup/c/dmndo32.c
                _TEXT                 CODE           0001:000237d0  ! 000000fe
                CONST                 DATA           0002:0000050c  ! 00000000
                CONST2                DATA           0002:0000438c  ! 00000000
                _DATA                 DATA           0002:00004c60  ! 00000000
                _BSS                  BSS            0002:00005f7c  ! 0000031c
segdefns        _TEXT                 CODE           0001:000238ce  ! 00000000
                _DATA                 DATA           0002:00004c60  ! 00000000
                BEGTEXT               CODE           0001:00000000  ! 00000007
                _NULL                 BEGDATA        0002:00000000  ! 00000004
                _AFTERNULL            BEGDATA        0002:00000004  ! 00000000
                CONST                 DATA           0002:0000050c  ! 00000000
                TIB                   DATA           0002:00005d04  ! 00000000
                TI                    DATA           0002:00005d04  ! 00000000
                TIE                   DATA           0002:00005d04  ! 00000000
                XIB                   DATA           0002:00005ca4  ! 00000000
                XI                    DATA           0002:00005cf8  ! 00000000
                XIE                   DATA           0002:00005cf8  ! 00000000
                YIB                   DATA           0002:00005cf8  ! 00000000
                YI                    DATA           0002:00005cfe  ! 00000000
                YIE                   DATA           0002:00005d04  ! 00000000
                DATA                  DATA           0002:00005d04  ! 00000000
                _BSS                  BSS            0002:00006298  ! 00000000
                STACK                 STACK          0002:000067d0  ! 00010000
/mnt/sda5/.user/root/src/openwatcom-1.9/bld/plusplus/cpplib/runtime/cpp/prwdata.cpp
                _TEXT                 CODE           0001:000238ce  ! 00000000
                CONST                 DATA           0002:0000050c  ! 00000000
                CONST2                DATA           0002:0000438c  ! 00000000
                _DATA                 DATA           0002:00004c60  ! 00000000
                _BSS                  BSS            0002:000062a0  ! 00000018
/mnt/sda5/.user/root/src/openwatcom-1.9/bld/plusplus/cpplib/runtime/cpp/thrddata.cpp
                _TEXT                 CODE           0001:000238ce  ! 00000024
                CONST                 DATA           0002:0000050c  ! 00000000
                CONST2                DATA           0002:0000438c  ! 00000000
                _DATA                 DATA           0002:00004c60  ! 00000000
                _BSS                  BSS            0002:000062b8  ! 00000000
/mnt/sda5/.user/root/src/openwatcom-1.9/bld/plusplus/cpplib/runtime/cpp/rtdbgst.cpp
                _TEXT                 CODE           0001:000238f2  ! 0000171c
                CONST                 DATA           0002:0000050c  ! 00000550
                CONST2                DATA           0002:0000438c  ! 00000000
                _DATA                 DATA           0002:00004c60  ! 00000004
                _BSS                  BSS            0002:000062b8  ! 00000030
/mnt/sda5/.user/root/src/openwatcom-1.9/bld/plusplus/cpplib/runtime/cpp/tssize.cpp
                _TEXT                 CODE           0001:0002500e  ! 000000b0
                CONST                 DATA           0002:00000a5c  ! 00000025
                CONST2                DATA           0002:0000438c  ! 00000000
                _DATA                 DATA           0002:00004c64  ! 00000000
                _BSS                  BSS            0002:000062e8  ! 00000000
/mnt/sda5/.user/root/src/openwatcom-1.9/bld/plusplus/cpplib/runtime/cpp/stabdisp.cpp
                _TEXT                 CODE           0001:000250be  ! 0000041a
                CONST                 DATA           0002:00000a81  ! 00000032
                CONST2                DATA           0002:0000438c  ! 00000000
                _DATA                 DATA           0002:00004c64  ! 00000000
                _BSS                  BSS            0002:000062e8  ! 00000000
/mnt/sda5/.user/root/src/openwatcom-1.9/bld/plusplus/cpplib/runtime/cpp/pgmthrd.cpp
                _TEXT                 CODE           0001:000254d8  ! 00000064
                CONST                 DATA           0002:00000ab3  ! 00000000
                CONST2                DATA           0002:0000438c  ! 00000000
                _DATA                 DATA           0002:00004c64  ! 00000000
                _BSS                  BSS            0002:000062e8  ! 00000000
/mnt/sda5/.user/root/src/openwatcom-1.9/bld/plusplus/cpplib/runtime/cpp/fatalerr.cpp
                _TEXT                 CODE           0001:0002553c  ! 0000004a
                CONST                 DATA           0002:00000ab3  ! 00000000
                CONST2                DATA           0002:0000438c  ! 00000000
                _DATA                 DATA           0002:00004c64  ! 00000000
                _BSS                  BSS            0002:000062e8  ! 00000000
/mnt/sda5/.user/root/src/openwatcom-1.9/bld/plusplus/cpplib/runtime/cpp/rttidync.cpp
                _TEXT                 CODE           0001:00025586  ! 00000111
                CONST                 DATA           0002:00000ab3  ! 00000000
                CONST2                DATA           0002:00004390  ! 00000000
                _DATA                 DATA           0002:00004c64  ! 00000000
                _BSS                  BSS            0002:000062e8  ! 00000000
/mnt/sda5/.user/root/src/openwatcom-1.9/bld/plusplus/cpplib/runtime/cpp/rttisupp.cpp
                _TEXT                 CODE           0001:00025697  ! 00000142
                CONST                 DATA           0002:00000ab3  ! 00000000
                CONST2                DATA           0002:00004390  ! 00000000
                _DATA                 DATA           0002:00004c64  ! 00000000
                _BSS                  BSS            0002:000062e8  ! 00000000
/mnt/sda5/.user/root/src/openwatcom-1.9/bld/plusplus/cpplib/runtime/cpp/stabtrav.cpp
                _TEXT                 CODE           0001:000257d9  ! 00000388
                CONST                 DATA           0002:00000ab3  ! 0000001e
                CONST2                DATA           0002:00004390  ! 00000000
                _DATA                 DATA           0002:00004c64  ! 00000000
                _BSS                  BSS            0002:000062e8  ! 00000000
/mnt/sda5/.user/root/src/openwatcom-1.9/bld/plusplus/cpplib/runtime/cpp/allocexc.cpp
                _TEXT                 CODE           0001:00025b61  ! 00000587
                CONST                 DATA           0002:00000ad1  ! 0000005a
                CONST2                DATA           0002:00004390  ! 00000028
                _DATA                 DATA           0002:00004c64  ! 00000000
                _BSS                  BSS            0002:000062e8  ! 00000000
/mnt/sda5/.user/root/src/openwatcom-1.9/bld/plusplus/cpplib/runtime/cpp/exc_pr.cpp
                _TEXT                 CODE           0001:000260e8  ! 000002e1
                CONST                 DATA           0002:00000b2b  ! 00000000
                CONST2                DATA           0002:000043b8  ! 00000000
                _DATA                 DATA           0002:00004c64  ! 00000000
                _BSS                  BSS            0002:000062e8  ! 00000000
/mnt/sda5/.user/root/src/openwatcom-1.9/bld/plusplus/cpplib/runtime/cpp/callterm.cpp
                _TEXT                 CODE           0001:000263c9  ! 0000008d
                CONST                 DATA           0002:00000b2b  ! 00000041
                CONST2                DATA           0002:000043b8  ! 00000000
                _DATA                 DATA           0002:00004c64  ! 00000000
                _BSS                  BSS            0002:000062e8  ! 00000000
/mnt/sda5/.user/root/src/openwatcom-1.9/bld/plusplus/cpplib/runtime/cpp/tsequiv.cpp
                _TEXT                 CODE           0001:00026456  ! 000002a3
                CONST                 DATA           0002:00000b6c  ! 00000025
                CONST2                DATA           0002:000043b8  ! 00000000
                _DATA                 DATA           0002:00004c64  ! 00000000
                _BSS                  BSS            0002:000062e8  ! 00000000
/mnt/sda5/.user/root/src/openwatcom-1.9/bld/plusplus/cpplib/runtime/cpp/stabinit.cpp
                _TEXT                 CODE           0001:000266f9  ! 00000118
                CONST                 DATA           0002:00000b91  ! 00000000
                CONST2                DATA           0002:000043b8  ! 00000000
                _DATA                 DATA           0002:00004c64  ! 00000000
                _BSS                  BSS            0002:000062e8  ! 00000000
/mnt/sda5/.user/root/src/openwatcom-1.9/bld/plusplus/cpplib/runtime/cpp/stablcl.cpp
                _TEXT                 CODE           0001:00026811  ! 0000002a
                CONST                 DATA           0002:00000b91  ! 00000000
                CONST2                DATA           0002:000043b8  ! 00000000
                _DATA                 DATA           0002:00004c64  ! 00000000
                _BSS                  BSS            0002:000062e8  ! 00000000
/mnt/sda5/.user/root/src/openwatcom-1.9/bld/plusplus/cpplib/runtime/cpp/moddtorr.cpp
                _TEXT                 CODE           0001:0002683b  ! 00000000
                CONST                 DATA           0002:00000b91  ! 00000000
                CONST2                DATA           0002:000043b8  ! 00000000
                _DATA                 DATA           0002:00004c64  ! 00000000
                _BSS                  BSS            0002:000062e8  ! 00000000
                YIB                   DATA           0002:00005cf8  ! 00000000
                YI                    DATA           0002:00005cfe  ! 00000006
                YIE                   DATA           0002:00005d04  ! 00000000
/mnt/sda5/.user/root/src/openwatcom-1.9/bld/plusplus/cpplib/runtime/cpp/undefmbd.cpp
                _TEXT                 CODE           0001:0002683b  ! 00000000
                CONST                 DATA           0002:00000b91  ! 00000000
                CONST2                DATA           0002:000043b8  ! 00000000
                _DATA                 DATA           0002:00004c64  ! 00000000
                _BSS                  BSS            0002:000062e8  ! 00000004
/mnt/sda5/.user/root/src/openwatcom-1.9/bld/plusplus/cpplib/iostream/cpp/iofgldfl.cpp
                _TEXT                 CODE           0001:0002683b  ! 00001326
                CONST                 DATA           0002:00000b91  ! 00000000
                CONST2                DATA           0002:000043c0  ! 000000e4
                _DATA                 DATA           0002:00004c64  ! 00000000
                _BSS                  BSS            0002:000062ec  ! 00000000
/mnt/sda5/.user/root/src/openwatcom-1.9/bld/plusplus/cpplib/iostream/cpp/iosgnilk.cpp
                _TEXT                 CODE           0001:00027b61  ! 0000007c
                CONST                 DATA           0002:00000b91  ! 00000000
                CONST2                DATA           0002:000044b0  ! 0000000c
                _DATA                 DATA           0002:00004c64  ! 00000010
                _BSS                  BSS            0002:000062f0  ! 00000105
                _TEXT                 CODE           0001:00027bdd c! 0000003b
                _TEXT                 CODE           0001:00027c18 c! 00000030
/mnt/sda5/.user/root/src/openwatcom-1.9/bld/plusplus/cpplib/iostream/cpp/iosfail.cpp
                _TEXT                 CODE           0001:00027c48  ! 00000034
                CONST                 DATA           0002:00000b91  ! 00000000
                CONST2                DATA           0002:000044c0  ! 00000000
                _DATA                 DATA           0002:00004c74  ! 00000000
                _BSS                  BSS            0002:000063f5  ! 00000000
/mnt/sda5/.user/root/src/openwatcom-1.9/bld/plusplus/cpplib/iostream/cpp/istgtu64.cpp
                _TEXT                 CODE           0001:00027c7c  ! 00000536
                CONST                 DATA           0002:00000b91  ! 00000000
                CONST2                DATA           0002:000044c0  ! 0000002c
                _DATA                 DATA           0002:00004c74  ! 00000000
                _BSS                  BSS            0002:000063f5  ! 00000000
/mnt/sda5/.user/root/src/openwatcom-1.9/bld/plusplus/cpplib/iostream/cpp/istgetul.cpp
                _TEXT                 CODE           0001:000281b2  ! 000004cc
                CONST                 DATA           0002:00000b91  ! 00000000
                CONST2                DATA           0002:000044f0  ! 0000002c
                _DATA                 DATA           0002:00004c74  ! 00000000
                _BSS                  BSS            0002:000063f5  ! 00000000
/mnt/sda5/.user/root/src/openwatcom-1.9/bld/plusplus/cpplib/iostream/cpp/istgalin.cpp
                _TEXT                 CODE           0001:0002867e  ! 0000056b
                CONST                 DATA           0002:00000b91  ! 00000000
                CONST2                DATA           0002:00004520  ! 0000003c
                _DATA                 DATA           0002:00004c74  ! 00000000
                _BSS                  BSS            0002:000063f5  ! 00000000
/mnt/sda5/.user/root/src/openwatcom-1.9/bld/plusplus/cpplib/iostream/cpp/ioufgtba.cpp
                _TEXT                 CODE           0001:00028be9  ! 0000005d
                CONST                 DATA           0002:00000b91  ! 00000000
                CONST2                DATA           0002:00004560  ! 00000000
                _DATA                 DATA           0002:00004c74  ! 00000000
                _BSS                  BSS            0002:000063f5  ! 00000000
/mnt/sda5/.user/root/src/openwatcom-1.9/bld/plusplus/cpplib/iostream/cpp/ostadpre.cpp
                _TEXT                 CODE           0001:00028c46  ! 0000008d
                CONST                 DATA           0002:00000b91  ! 00000000
                CONST2                DATA           0002:00004560  ! 00000000
                _DATA                 DATA           0002:00004c74  ! 00000000
                _BSS                  BSS            0002:000063f5  ! 00000000
/mnt/sda5/.user/root/src/openwatcom-1.9/bld/plusplus/cpplib/iostream/cpp/ssfgpos.cpp
                _TEXT                 CODE           0001:00028cd3  ! 00000110
                CONST                 DATA           0002:00000b91  ! 00000000
                CONST2                DATA           0002:00004560  ! 00000000
                _DATA                 DATA           0002:00004c74  ! 00000000
                _BSS                  BSS            0002:000063f5  ! 00000000
/mnt/sda5/.user/root/src/openwatcom-1.9/bld/plusplus/cpplib/iostream/cpp/stfgnslk.cpp
                _TEXT                 CODE           0001:00028de3  ! 0000007c
                CONST                 DATA           0002:00000b91  ! 00000000
                CONST2                DATA           0002:00004560  ! 0000000c
                _DATA                 DATA           0002:00004c74  ! 00000010
                _BSS                  BSS            0002:00006400  ! 00000105
/mnt/sda5/.user/root/src/openwatcom-1.9/bld/plusplus/cpplib/string/cpp/compchar.cpp
                _TEXT                 CODE           0001:00028e5f  ! 000000f5
                CONST                 DATA           0002:00000b91  ! 00000000
                CONST2                DATA           0002:00004570  ! 00000004
                _DATA                 DATA           0002:00004c84  ! 00000000
                _BSS                  BSS            0002:00006505  ! 00000000
/mnt/sda5/.user/root/src/openwatcom-1.9/bld/plusplus/cpplib/string/cpp/matchstr.cpp
                _TEXT                 CODE           0001:00028f54  ! 00000081
                CONST                 DATA           0002:00000b91  ! 00000000
                CONST2                DATA           0002:00004580  ! 00000004
                _DATA                 DATA           0002:00004c84  ! 00000000
                _BSS                  BSS            0002:00006505  ! 00000000
/mnt/sda5/.user/root/src/openwatcom-1.9/bld/plusplus/cpplib/string/cpp/strsrch.cpp
                _TEXT                 CODE           0001:00028fd5  ! 000001c7
                CONST                 DATA           0002:00000b91  ! 00000000
                CONST2                DATA           0002:00004584  ! 00000000
                _DATA                 DATA           0002:00004c84  ! 00000000
                _BSS                  BSS            0002:00006505  ! 00000000
/mnt/sda5/.user/root/src/openwatcom-1.9/bld/clib/startup/c/lmaino32.c
                _TEXT                 CODE           0001:000291a0  ! 00000029
                CONST                 DATA           0002:00000b94  ! 00000000
                CONST2                DATA           0002:00004584  ! 00000000
                _DATA                 DATA           0002:00004c84  ! 00000000
/mnt/sda5/.user/root/src/openwatcom-1.9/bld/clib/startup/c/initrtns.c
                _TEXT                 CODE           0001:000291d0  ! 0000015a
                CONST                 DATA           0002:00000b94  ! 00000000
                CONST2                DATA           0002:00004584  ! 00000000
                _DATA                 DATA           0002:00004c84  ! 00000000
/mnt/sda5/.user/root/src/openwatcom-1.9/bld/clib/startup/c/ddgrpo32.c
                _TEXT                 CODE           0001:00029330  ! 0000037a
                CONST                 DATA           0002:00000b94  ! 00000000
                CONST2                DATA           0002:00004584  ! 00000000
                _DATA                 DATA           0002:00004c84  ! 00000000
                _BSS                  BSS            0002:00006508  ! 000002ba
/mnt/sda5/.user/root/src/openwatcom-1.9/bld/clib/startup/c/dcinit.c
                _TEXT                 CODE           0001:000296b0  ! 00000021
                CONST                 DATA           0002:00000b94  ! 00000000
                CONST2                DATA           0002:00004584  ! 00000000
                _DATA                 DATA           0002:00004c84  ! 00000000
                _BSS                  BSS            0002:000067c4  ! 00000004
dosseg          _TEXT                 CODE           0001:000296d4  ! 00000000
                _DATA                 DATA           0002:00004c84  ! 00000000
/mnt/sda5/.user/root/src/openwatcom-1.9/bld/plusplus/cpplib/runtime/cpp/bittest.cpp
                _TEXT                 CODE           0001:000296d4  ! 00000092
                CONST                 DATA           0002:00000b94  ! 00000000
                CONST2                DATA           0002:00004584  ! 00000000
                _DATA                 DATA           0002:00004c90  ! 00000010
                _BSS                  BSS            0002:000067c8  ! 00000000
/mnt/sda5/.user/root/src/openwatcom-1.9/bld/plusplus/cpplib/runtime/cpp/areaexc.cpp
                _TEXT                 CODE           0001:00029766  ! 00000000
                CONST                 DATA           0002:00000b94  ! 00000000
                CONST2                DATA           0002:00004584  ! 00000000
                _DATA                 DATA           0002:00004ca0  ! 00001000
                _BSS                  BSS            0002:000067c8  ! 00000000
/mnt/sda5/.user/root/src/openwatcom-1.9/bld/plusplus/cpplib/runtime/cpp/dstabmod.cpp
                _TEXT                 CODE           0001:00029766  ! 000000c5
                CONST                 DATA           0002:00000b94  ! 00000000
                CONST2                DATA           0002:00004584  ! 00000000
                _DATA                 DATA           0002:00005ca0  ! 00000000
                _BSS                  BSS            0002:000067c8  ! 00000000
/mnt/sda5/.user/root/src/openwatcom-1.9/bld/plusplus/cpplib/iostream/cpp/istgsign.cpp
                _TEXT                 CODE           0001:0002982b  ! 000001e2
                CONST                 DATA           0002:00000b94  ! 00000000
                CONST2                DATA           0002:00004590  ! 00000014
                _DATA                 DATA           0002:00005ca0  ! 00000000
                _BSS                  BSS            0002:000067c8  ! 00000000
/mnt/sda5/.user/root/src/openwatcom-1.9/bld/plusplus/cpplib/iostream/cpp/istgbase.cpp
                _TEXT                 CODE           0001:00029a0d  ! 000009b1
                CONST                 DATA           0002:00000b94  ! 00000000
                CONST2                DATA           0002:000045b0  ! 00000074
                _DATA                 DATA           0002:00005ca0  ! 00000000
                _BSS                  BSS            0002:000067c8  ! 00000000
/mnt/sda5/.user/root/src/openwatcom-1.9/bld/plusplus/cpplib/iostream/cpp/istgnm64.cpp
                _TEXT                 CODE           0001:0002a3be  ! 00000522
                CONST                 DATA           0002:00000b94  ! 00000000
                CONST2                DATA           0002:00004630  ! 00000050
                _DATA                 DATA           0002:00005ca0  ! 00000000
                _BSS                  BSS            0002:000067c8  ! 00000000
/mnt/sda5/.user/root/src/openwatcom-1.9/bld/plusplus/cpplib/iostream/cpp/istgnum.cpp
                _TEXT                 CODE           0001:0002a8e0  ! 00000475
                CONST                 DATA           0002:00000b94  ! 00000000
                CONST2                DATA           0002:00004680  ! 00000038
                _DATA                 DATA           0002:00005ca0  ! 00000000
                _BSS                  BSS            0002:000067c8  ! 00000000
/mnt/sda5/.user/root/src/openwatcom-1.9/bld/clib/startup/c/dllmno32.c
                _TEXT                 CODE           0001:0002ad60  ! 0000002e
                CONST                 DATA           0002:00000b94  ! 00000000
                CONST2                DATA           0002:000046b8  ! 00000000
                _DATA                 DATA           0002:00005ca0  ! 00000004


                        +----------------------+
                        |   Imported Symbols   |
                        +----------------------+

Symbol                              Module
======                              ======

__CHK                               clbr19d
free_                               clbr19d
malloc_                             clbr19d
___GetThreadPtr                     clbr19d
memset_                             clbr19d
___ReleaseSema4                     clbr19d
___CloseSema4                       clbr19d
___AccessSema4                      clbr19d
memcpy_                             clbr19d
longjmp_                            clbr19d
stackavail_                         clbr19d
__GRO                               clbr19d
DosRaiseException                   DOSCALLS
DosUnwindException                  DOSCALLS
__exit_                             clbr19d
strcmp_                             clbr19d
__demangle_t_                       clbr19d
__plusplus_fstat_                   clbr19d
close_                              clbr19d
__plusplus_open_                    clbr19d
write_                              clbr19d
tell_                               clbr19d
lseek_                              clbr19d
memmove_                            clbr19d
read_                               clbr19d
__get_errno_ptr_                    clbr19d
__fatal_runtime_error_              clbr19d
strlen_                             clbr19d
__get_std_stream_                   clbr19d
_plib_free_                         clbr19d
_plib_malloc_                       clbr19d
isspace_                            clbr19d
lltoa_                              clbr19d
ultoa_                              clbr19d
strupr_                             clbr19d
ltoa_                               clbr19d
ulltoa_                             clbr19d
__flush_                            clbr19d
fwrite_                             clbr19d
fgetc_                              clbr19d
printf_                             clbr19d
realloc_                            clbr19d
rand_                               clbr19d
DosQueryModuleName                  DOSCALLS
_atouni_                            clbr19d
__RegisterThreadDataSize_           clbr19d
fflush_                             clbr19d
puts_                               clbr19d
strcpy_                             clbr19d
itoa_                               clbr19d
fopen_                              clbr19d
fclose_                             clbr19d
__EnterWVIDEO_                      clbr19d
exit_                               clbr19d
__exit_with_msg_                    clbr19d
isdigit_                            clbr19d
tolower_                            clbr19d
isxdigit_                           clbr19d
memcmp_                             clbr19d
memchr_                             clbr19d
DosGetInfoBlocks                    DOSCALLS
DosLoadModule                       DOSCALLS
DosQueryProcAddr                    DOSCALLS
DosOpen                             DOSCALLS
DosWrite                            DOSCALLS
DosClose                            DOSCALLS
__amblksiz_br                       clbr19d
__U8LS                              clbr19d


                        +--------------------+
                        |   Libraries Used   |
                        +--------------------+

/mnt/sda5/.user/root/src/openwatcom-1.9/bld/plusplus/cpplib/os2.386/mf_rmtd.dll/plbxmt3r.lib
../../../clib/os2.386/mf_rd/clbrdlld.lib
/mnt/sda5/.user/root/src/openwatcom-1.9/bld/plusplus/cpplib/os2.386/mf_rmtd/plbxmt3r.lib
/mnt/sda5/.user/root/src/openwatcom-1.9/rel2/lib386/os2/os2386.lib


                        +-----------------------+
                        |   Linker Statistics   |
                        +-----------------------+

Stack size:  0000 (0.)
Memory size:  0003155e (202078.)
Link time: 00:00.60
